ARM GAS  C:\Users\Rajesh\AppData\Local\Temp\ccMJoliC.s 			page 1


   1              		.syntax unified
   2              		.cpu cortex-m0
   3              		.fpu softvfp
   4              		.eabi_attribute 20, 1
   5              		.eabi_attribute 21, 1
   6              		.eabi_attribute 23, 3
   7              		.eabi_attribute 24, 1
   8              		.eabi_attribute 25, 1
   9              		.eabi_attribute 26, 1
  10              		.eabi_attribute 30, 1
  11              		.eabi_attribute 34, 0
  12              		.eabi_attribute 18, 4
  13              		.thumb
  14              		.syntax unified
  15              		.file	"vl53l0x_api_core.c"
  16              		.text
  17              	.Ltext0:
  18              		.cfi_sections	.debug_frame
  19              		.section	.text.VL53L0X_reverse_bytes,"ax",%progbits
  20              		.align	2
  21              		.global	VL53L0X_reverse_bytes
  22              		.code	16
  23              		.thumb_func
  24              		.type	VL53L0X_reverse_bytes, %function
  25              	VL53L0X_reverse_bytes:
  26              	.LFB1:
  27              		.file 1 "Api\\core\\src\\vl53l0x_api_core.c"
   1:Api\core\src/vl53l0x_api_core.c **** /*******************************************************************************
   2:Api\core\src/vl53l0x_api_core.c ****  Copyright © 2016, STMicroelectronics International N.V.
   3:Api\core\src/vl53l0x_api_core.c ****  All rights reserved.
   4:Api\core\src/vl53l0x_api_core.c **** 
   5:Api\core\src/vl53l0x_api_core.c ****  Redistribution and use in source and binary forms, with or without
   6:Api\core\src/vl53l0x_api_core.c ****  modification, are permitted provided that the following conditions are met:
   7:Api\core\src/vl53l0x_api_core.c ****  * Redistributions of source code must retain the above copyright
   8:Api\core\src/vl53l0x_api_core.c ****  notice, this list of conditions and the following disclaimer.
   9:Api\core\src/vl53l0x_api_core.c ****  * Redistributions in binary form must reproduce the above copyright
  10:Api\core\src/vl53l0x_api_core.c ****  notice, this list of conditions and the following disclaimer in the
  11:Api\core\src/vl53l0x_api_core.c ****  documentation and/or other materials provided with the distribution.
  12:Api\core\src/vl53l0x_api_core.c ****  * Neither the name of STMicroelectronics nor the
  13:Api\core\src/vl53l0x_api_core.c ****  names of its contributors may be used to endorse or promote products
  14:Api\core\src/vl53l0x_api_core.c ****  derived from this software without specific prior written permission.
  15:Api\core\src/vl53l0x_api_core.c **** 
  16:Api\core\src/vl53l0x_api_core.c ****  THIS SOFTWARE IS PROVIDED BY THE COPYRIGHT HOLDERS AND CONTRIBUTORS "AS IS" AND
  17:Api\core\src/vl53l0x_api_core.c ****  ANY EXPRESS OR IMPLIED WARRANTIES, INCLUDING, BUT NOT LIMITED TO, THE IMPLIED
  18:Api\core\src/vl53l0x_api_core.c ****  WARRANTIES OF MERCHANTABILITY, FITNESS FOR A PARTICULAR PURPOSE, AND
  19:Api\core\src/vl53l0x_api_core.c ****  NON-INFRINGEMENT OF INTELLECTUAL PROPERTY RIGHTS ARE DISCLAIMED.
  20:Api\core\src/vl53l0x_api_core.c ****  IN NO EVENT SHALL STMICROELECTRONICS INTERNATIONAL N.V. BE LIABLE FOR ANY
  21:Api\core\src/vl53l0x_api_core.c ****  DIRECT, INDIRECT, INCIDENTAL, SPECIAL, EXEMPLARY, OR CONSEQUENTIAL DAMAGES
  22:Api\core\src/vl53l0x_api_core.c ****  (INCLUDING, BUT NOT LIMITED TO, PROCUREMENT OF SUBSTITUTE GOODS OR SERVICES;
  23:Api\core\src/vl53l0x_api_core.c ****  LOSS OF USE, DATA, OR PROFITS; OR BUSINESS INTERRUPTION) HOWEVER CAUSED AND
  24:Api\core\src/vl53l0x_api_core.c ****  ON ANY THEORY OF LIABILITY, WHETHER IN CONTRACT, STRICT LIABILITY, OR TORT
  25:Api\core\src/vl53l0x_api_core.c ****  (INCLUDING NEGLIGENCE OR OTHERWISE) ARISING IN ANY WAY OUT OF THE USE OF THIS
  26:Api\core\src/vl53l0x_api_core.c ****  SOFTWARE, EVEN IF ADVISED OF THE POSSIBILITY OF SUCH DAMAGE.
  27:Api\core\src/vl53l0x_api_core.c ****  ******************************************************************************/
  28:Api\core\src/vl53l0x_api_core.c **** 
  29:Api\core\src/vl53l0x_api_core.c **** #include "vl53l0x_api.h"
  30:Api\core\src/vl53l0x_api_core.c **** #include "vl53l0x_api_core.h"
ARM GAS  C:\Users\Rajesh\AppData\Local\Temp\ccMJoliC.s 			page 2


  31:Api\core\src/vl53l0x_api_core.c **** #include "vl53l0x_api_calibration.h"
  32:Api\core\src/vl53l0x_api_core.c **** 
  33:Api\core\src/vl53l0x_api_core.c **** 
  34:Api\core\src/vl53l0x_api_core.c **** #ifndef __KERNEL__
  35:Api\core\src/vl53l0x_api_core.c **** #include <stdlib.h>
  36:Api\core\src/vl53l0x_api_core.c **** #endif
  37:Api\core\src/vl53l0x_api_core.c **** #define LOG_FUNCTION_START(fmt, ...) \
  38:Api\core\src/vl53l0x_api_core.c **** 	_LOG_FUNCTION_START(TRACE_MODULE_API, fmt, ##__VA_ARGS__)
  39:Api\core\src/vl53l0x_api_core.c **** #define LOG_FUNCTION_END(status, ...) \
  40:Api\core\src/vl53l0x_api_core.c **** 	_LOG_FUNCTION_END(TRACE_MODULE_API, status, ##__VA_ARGS__)
  41:Api\core\src/vl53l0x_api_core.c **** #define LOG_FUNCTION_END_FMT(status, fmt, ...) \
  42:Api\core\src/vl53l0x_api_core.c **** 	_LOG_FUNCTION_END_FMT(TRACE_MODULE_API, status, fmt, ##__VA_ARGS__)
  43:Api\core\src/vl53l0x_api_core.c **** 
  44:Api\core\src/vl53l0x_api_core.c **** VL53L0X_Error VL53L0X_reverse_bytes(uint8_t *data, uint32_t size)
  45:Api\core\src/vl53l0x_api_core.c **** {
  28              		.loc 1 45 0
  29              		.cfi_startproc
  30              		@ args = 0, pretend = 0, frame = 0
  31              		@ frame_needed = 0, uses_anonymous_args = 0
  32              	.LVL0:
  33 0000 F0B5     		push	{r4, r5, r6, r7, lr}
  34              		.cfi_def_cfa_offset 20
  35              		.cfi_offset 4, -20
  36              		.cfi_offset 5, -16
  37              		.cfi_offset 6, -12
  38              		.cfi_offset 7, -8
  39              		.cfi_offset 14, -4
  40              	.LVL1:
  46:Api\core\src/vl53l0x_api_core.c **** 	VL53L0X_Error Status = VL53L0X_ERROR_NONE;
  47:Api\core\src/vl53l0x_api_core.c **** 	uint8_t tempData;
  48:Api\core\src/vl53l0x_api_core.c **** 	uint32_t mirrorIndex;
  49:Api\core\src/vl53l0x_api_core.c **** 	uint32_t middle = size/2;
  41              		.loc 1 49 0
  42 0002 4F08     		lsrs	r7, r1, #1
  43              	.LVL2:
  50:Api\core\src/vl53l0x_api_core.c **** 	uint32_t index;
  51:Api\core\src/vl53l0x_api_core.c **** 
  52:Api\core\src/vl53l0x_api_core.c **** 	for (index = 0; index < middle; index++) {
  44              		.loc 1 52 0
  45 0004 0022     		movs	r2, #0
  46 0006 08E0     		b	.L2
  47              	.LVL3:
  48              	.L3:
  53:Api\core\src/vl53l0x_api_core.c **** 		mirrorIndex		 = size - index - 1;
  49              		.loc 1 53 0 discriminator 3
  50 0008 8B1A     		subs	r3, r1, r2
  51 000a 013B     		subs	r3, r3, #1
  52              	.LVL4:
  54:Api\core\src/vl53l0x_api_core.c **** 		tempData		 = data[index];
  53              		.loc 1 54 0 discriminator 3
  54 000c 8418     		adds	r4, r0, r2
  55 000e 2578     		ldrb	r5, [r4]
  56              	.LVL5:
  55:Api\core\src/vl53l0x_api_core.c **** 		data[index]		 = data[mirrorIndex];
  57              		.loc 1 55 0 discriminator 3
  58 0010 C318     		adds	r3, r0, r3
  59              	.LVL6:
ARM GAS  C:\Users\Rajesh\AppData\Local\Temp\ccMJoliC.s 			page 3


  60 0012 1E78     		ldrb	r6, [r3]
  61 0014 2670     		strb	r6, [r4]
  56:Api\core\src/vl53l0x_api_core.c **** 		data[mirrorIndex] = tempData;
  62              		.loc 1 56 0 discriminator 3
  63 0016 1D70     		strb	r5, [r3]
  52:Api\core\src/vl53l0x_api_core.c **** 		mirrorIndex		 = size - index - 1;
  64              		.loc 1 52 0 discriminator 3
  65 0018 0132     		adds	r2, r2, #1
  66              	.LVL7:
  67              	.L2:
  52:Api\core\src/vl53l0x_api_core.c **** 		mirrorIndex		 = size - index - 1;
  68              		.loc 1 52 0 is_stmt 0 discriminator 1
  69 001a BA42     		cmp	r2, r7
  70 001c F4D3     		bcc	.L3
  57:Api\core\src/vl53l0x_api_core.c **** 	}
  58:Api\core\src/vl53l0x_api_core.c **** 	return Status;
  59:Api\core\src/vl53l0x_api_core.c **** }
  71              		.loc 1 59 0 is_stmt 1
  72 001e 0020     		movs	r0, #0
  73              	.LVL8:
  74              		@ sp needed
  75              	.LVL9:
  76 0020 F0BD     		pop	{r4, r5, r6, r7, pc}
  77              		.cfi_endproc
  78              	.LFE1:
  79              		.size	VL53L0X_reverse_bytes, .-VL53L0X_reverse_bytes
  80 0022 C046     		.section	.text.VL53L0X_measurement_poll_for_completion,"ax",%progbits
  81              		.align	2
  82              		.global	VL53L0X_measurement_poll_for_completion
  83              		.code	16
  84              		.thumb_func
  85              		.type	VL53L0X_measurement_poll_for_completion, %function
  86              	VL53L0X_measurement_poll_for_completion:
  87              	.LFB2:
  60:Api\core\src/vl53l0x_api_core.c **** 
  61:Api\core\src/vl53l0x_api_core.c **** VL53L0X_Error VL53L0X_measurement_poll_for_completion(VL53L0X_DEV Dev)
  62:Api\core\src/vl53l0x_api_core.c **** {
  88              		.loc 1 62 0
  89              		.cfi_startproc
  90              		@ args = 0, pretend = 0, frame = 8
  91              		@ frame_needed = 0, uses_anonymous_args = 0
  92              	.LVL10:
  93 0000 30B5     		push	{r4, r5, lr}
  94              		.cfi_def_cfa_offset 12
  95              		.cfi_offset 4, -12
  96              		.cfi_offset 5, -8
  97              		.cfi_offset 14, -4
  98 0002 83B0     		sub	sp, sp, #12
  99              		.cfi_def_cfa_offset 24
 100 0004 0500     		movs	r5, r0
 101              	.LVL11:
  63:Api\core\src/vl53l0x_api_core.c **** 	VL53L0X_Error Status = VL53L0X_ERROR_NONE;
  64:Api\core\src/vl53l0x_api_core.c **** 	uint8_t NewDataReady = 0;
 102              		.loc 1 64 0
 103 0006 0022     		movs	r2, #0
 104 0008 6B46     		mov	r3, sp
 105 000a DA71     		strb	r2, [r3, #7]
ARM GAS  C:\Users\Rajesh\AppData\Local\Temp\ccMJoliC.s 			page 4


 106              	.LVL12:
  65:Api\core\src/vl53l0x_api_core.c **** 	uint32_t LoopNb;
  66:Api\core\src/vl53l0x_api_core.c **** 
  67:Api\core\src/vl53l0x_api_core.c **** 	LOG_FUNCTION_START("");
  68:Api\core\src/vl53l0x_api_core.c **** 
  69:Api\core\src/vl53l0x_api_core.c **** 	LoopNb = 0;
 107              		.loc 1 69 0
 108 000c 0024     		movs	r4, #0
 109              	.LVL13:
 110              	.L6:
  70:Api\core\src/vl53l0x_api_core.c **** 
  71:Api\core\src/vl53l0x_api_core.c **** 	do {
  72:Api\core\src/vl53l0x_api_core.c **** 		Status = VL53L0X_GetMeasurementDataReady(Dev, &NewDataReady);
 111              		.loc 1 72 0
 112 000e 6B46     		mov	r3, sp
 113 0010 D91D     		adds	r1, r3, #7
 114 0012 2800     		movs	r0, r5
 115 0014 FFF7FEFF 		bl	VL53L0X_GetMeasurementDataReady
 116              	.LVL14:
  73:Api\core\src/vl53l0x_api_core.c **** 		if (Status != 0)
 117              		.loc 1 73 0
 118 0018 0028     		cmp	r0, #0
 119 001a 0ED1     		bne	.L5
  74:Api\core\src/vl53l0x_api_core.c **** 			break; /* the error is set */
  75:Api\core\src/vl53l0x_api_core.c **** 
  76:Api\core\src/vl53l0x_api_core.c **** 		if (NewDataReady == 1)
 120              		.loc 1 76 0
 121 001c 6B46     		mov	r3, sp
 122 001e 0733     		adds	r3, r3, #7
 123 0020 1B78     		ldrb	r3, [r3]
 124 0022 012B     		cmp	r3, #1
 125 0024 09D0     		beq	.L5
  77:Api\core\src/vl53l0x_api_core.c **** 			break; /* done note that status == 0 */
  78:Api\core\src/vl53l0x_api_core.c **** 
  79:Api\core\src/vl53l0x_api_core.c **** 		LoopNb++;
 126              		.loc 1 79 0
 127 0026 0134     		adds	r4, r4, #1
 128              	.LVL15:
  80:Api\core\src/vl53l0x_api_core.c **** 		if (LoopNb >= VL53L0X_DEFAULT_MAX_LOOP) {
 129              		.loc 1 80 0
 130 0028 054B     		ldr	r3, .L8
 131 002a 9C42     		cmp	r4, r3
 132 002c 03D8     		bhi	.L7
  81:Api\core\src/vl53l0x_api_core.c **** 			Status = VL53L0X_ERROR_TIME_OUT;
  82:Api\core\src/vl53l0x_api_core.c **** 			break;
  83:Api\core\src/vl53l0x_api_core.c **** 		}
  84:Api\core\src/vl53l0x_api_core.c **** 
  85:Api\core\src/vl53l0x_api_core.c **** 		VL53L0X_PollingDelay(Dev);
 133              		.loc 1 85 0
 134 002e 2800     		movs	r0, r5
 135              	.LVL16:
 136 0030 FFF7FEFF 		bl	VL53L0X_PollingDelay
 137              	.LVL17:
  86:Api\core\src/vl53l0x_api_core.c **** 	} while (1);
 138              		.loc 1 86 0
 139 0034 EBE7     		b	.L6
 140              	.LVL18:
ARM GAS  C:\Users\Rajesh\AppData\Local\Temp\ccMJoliC.s 			page 5


 141              	.L7:
  81:Api\core\src/vl53l0x_api_core.c **** 			Status = VL53L0X_ERROR_TIME_OUT;
 142              		.loc 1 81 0
 143 0036 0720     		movs	r0, #7
 144              	.LVL19:
 145 0038 4042     		rsbs	r0, r0, #0
 146              	.L5:
 147              	.LVL20:
  87:Api\core\src/vl53l0x_api_core.c **** 
  88:Api\core\src/vl53l0x_api_core.c **** 	LOG_FUNCTION_END(Status);
  89:Api\core\src/vl53l0x_api_core.c **** 
  90:Api\core\src/vl53l0x_api_core.c **** 	return Status;
  91:Api\core\src/vl53l0x_api_core.c **** }
 148              		.loc 1 91 0
 149 003a 03B0     		add	sp, sp, #12
 150              		@ sp needed
 151              	.LVL21:
 152              	.LVL22:
 153 003c 30BD     		pop	{r4, r5, pc}
 154              	.L9:
 155 003e C046     		.align	2
 156              	.L8:
 157 0040 CF070000 		.word	1999
 158              		.cfi_endproc
 159              	.LFE2:
 160              		.size	VL53L0X_measurement_poll_for_completion, .-VL53L0X_measurement_poll_for_completion
 161              		.section	.text.VL53L0X_decode_vcsel_period,"ax",%progbits
 162              		.align	2
 163              		.global	VL53L0X_decode_vcsel_period
 164              		.code	16
 165              		.thumb_func
 166              		.type	VL53L0X_decode_vcsel_period, %function
 167              	VL53L0X_decode_vcsel_period:
 168              	.LFB3:
  92:Api\core\src/vl53l0x_api_core.c **** 
  93:Api\core\src/vl53l0x_api_core.c **** 
  94:Api\core\src/vl53l0x_api_core.c **** uint8_t VL53L0X_decode_vcsel_period(uint8_t vcsel_period_reg)
  95:Api\core\src/vl53l0x_api_core.c **** {
 169              		.loc 1 95 0
 170              		.cfi_startproc
 171              		@ args = 0, pretend = 0, frame = 0
 172              		@ frame_needed = 0, uses_anonymous_args = 0
 173              		@ link register save eliminated.
 174              	.LVL23:
  96:Api\core\src/vl53l0x_api_core.c **** 	/*!
  97:Api\core\src/vl53l0x_api_core.c **** 	 * Converts the encoded VCSEL period register value into the real
  98:Api\core\src/vl53l0x_api_core.c **** 	 * period in PLL clocks
  99:Api\core\src/vl53l0x_api_core.c **** 	 */
 100:Api\core\src/vl53l0x_api_core.c **** 
 101:Api\core\src/vl53l0x_api_core.c **** 	uint8_t vcsel_period_pclks = 0;
 102:Api\core\src/vl53l0x_api_core.c **** 
 103:Api\core\src/vl53l0x_api_core.c **** 	vcsel_period_pclks = (vcsel_period_reg + 1) << 1;
 175              		.loc 1 103 0
 176 0000 0130     		adds	r0, r0, #1
 177              	.LVL24:
 178 0002 4000     		lsls	r0, r0, #1
 179 0004 C0B2     		uxtb	r0, r0
ARM GAS  C:\Users\Rajesh\AppData\Local\Temp\ccMJoliC.s 			page 6


 180              	.LVL25:
 104:Api\core\src/vl53l0x_api_core.c **** 
 105:Api\core\src/vl53l0x_api_core.c **** 	return vcsel_period_pclks;
 106:Api\core\src/vl53l0x_api_core.c **** }
 181              		.loc 1 106 0
 182              		@ sp needed
 183 0006 7047     		bx	lr
 184              		.cfi_endproc
 185              	.LFE3:
 186              		.size	VL53L0X_decode_vcsel_period, .-VL53L0X_decode_vcsel_period
 187              		.section	.text.VL53L0X_encode_vcsel_period,"ax",%progbits
 188              		.align	2
 189              		.global	VL53L0X_encode_vcsel_period
 190              		.code	16
 191              		.thumb_func
 192              		.type	VL53L0X_encode_vcsel_period, %function
 193              	VL53L0X_encode_vcsel_period:
 194              	.LFB4:
 107:Api\core\src/vl53l0x_api_core.c **** 
 108:Api\core\src/vl53l0x_api_core.c **** uint8_t VL53L0X_encode_vcsel_period(uint8_t vcsel_period_pclks)
 109:Api\core\src/vl53l0x_api_core.c **** {
 195              		.loc 1 109 0
 196              		.cfi_startproc
 197              		@ args = 0, pretend = 0, frame = 0
 198              		@ frame_needed = 0, uses_anonymous_args = 0
 199              		@ link register save eliminated.
 200              	.LVL26:
 110:Api\core\src/vl53l0x_api_core.c **** 	/*!
 111:Api\core\src/vl53l0x_api_core.c **** 	 * Converts the encoded VCSEL period register value into the real period
 112:Api\core\src/vl53l0x_api_core.c **** 	 * in PLL clocks
 113:Api\core\src/vl53l0x_api_core.c **** 	 */
 114:Api\core\src/vl53l0x_api_core.c **** 
 115:Api\core\src/vl53l0x_api_core.c **** 	uint8_t vcsel_period_reg = 0;
 116:Api\core\src/vl53l0x_api_core.c **** 
 117:Api\core\src/vl53l0x_api_core.c **** 	vcsel_period_reg = (vcsel_period_pclks >> 1) - 1;
 201              		.loc 1 117 0
 202 0000 4008     		lsrs	r0, r0, #1
 203              	.LVL27:
 204 0002 0138     		subs	r0, r0, #1
 205 0004 C0B2     		uxtb	r0, r0
 206              	.LVL28:
 118:Api\core\src/vl53l0x_api_core.c **** 
 119:Api\core\src/vl53l0x_api_core.c **** 	return vcsel_period_reg;
 120:Api\core\src/vl53l0x_api_core.c **** }
 207              		.loc 1 120 0
 208              		@ sp needed
 209 0006 7047     		bx	lr
 210              		.cfi_endproc
 211              	.LFE4:
 212              		.size	VL53L0X_encode_vcsel_period, .-VL53L0X_encode_vcsel_period
 213              		.section	.text.VL53L0X_isqrt,"ax",%progbits
 214              		.align	2
 215              		.global	VL53L0X_isqrt
 216              		.code	16
 217              		.thumb_func
 218              		.type	VL53L0X_isqrt, %function
 219              	VL53L0X_isqrt:
ARM GAS  C:\Users\Rajesh\AppData\Local\Temp\ccMJoliC.s 			page 7


 220              	.LFB5:
 121:Api\core\src/vl53l0x_api_core.c **** 
 122:Api\core\src/vl53l0x_api_core.c **** 
 123:Api\core\src/vl53l0x_api_core.c **** uint32_t VL53L0X_isqrt(uint32_t num)
 124:Api\core\src/vl53l0x_api_core.c **** {
 221              		.loc 1 124 0
 222              		.cfi_startproc
 223              		@ args = 0, pretend = 0, frame = 0
 224              		@ frame_needed = 0, uses_anonymous_args = 0
 225              		@ link register save eliminated.
 226              	.LVL29:
 227 0000 0200     		movs	r2, r0
 228              	.LVL30:
 125:Api\core\src/vl53l0x_api_core.c **** 	/*
 126:Api\core\src/vl53l0x_api_core.c **** 	 * Implements an integer square root
 127:Api\core\src/vl53l0x_api_core.c **** 	 *
 128:Api\core\src/vl53l0x_api_core.c **** 	 * From: http://en.wikipedia.org/wiki/Methods_of_computing_square_roots
 129:Api\core\src/vl53l0x_api_core.c **** 	 */
 130:Api\core\src/vl53l0x_api_core.c **** 
 131:Api\core\src/vl53l0x_api_core.c **** 	uint32_t  res = 0;
 132:Api\core\src/vl53l0x_api_core.c **** 	uint32_t  bit = 1 << 30;
 229              		.loc 1 132 0
 230 0002 8023     		movs	r3, #128
 231 0004 DB05     		lsls	r3, r3, #23
 133:Api\core\src/vl53l0x_api_core.c **** 	/* The second-to-top bit is set:
 134:Api\core\src/vl53l0x_api_core.c **** 	 *	1 << 14 for 16-bits, 1 << 30 for 32 bits */
 135:Api\core\src/vl53l0x_api_core.c **** 
 136:Api\core\src/vl53l0x_api_core.c **** 	 /* "bit" starts at the highest power of four <= the argument. */
 137:Api\core\src/vl53l0x_api_core.c **** 	while (bit > num)
 232              		.loc 1 137 0
 233 0006 00E0     		b	.L13
 234              	.LVL31:
 235              	.L14:
 138:Api\core\src/vl53l0x_api_core.c **** 		bit >>= 2;
 236              		.loc 1 138 0
 237 0008 9B08     		lsrs	r3, r3, #2
 238              	.LVL32:
 239              	.L13:
 137:Api\core\src/vl53l0x_api_core.c **** 		bit >>= 2;
 240              		.loc 1 137 0
 241 000a 9342     		cmp	r3, r2
 242 000c FCD8     		bhi	.L14
 243 000e 0020     		movs	r0, #0
 244              	.LVL33:
 245 0010 08E0     		b	.L15
 246              	.LVL34:
 247              	.L18:
 139:Api\core\src/vl53l0x_api_core.c **** 
 140:Api\core\src/vl53l0x_api_core.c **** 
 141:Api\core\src/vl53l0x_api_core.c **** 	while (bit != 0) {
 142:Api\core\src/vl53l0x_api_core.c **** 		if (num >= res + bit) {
 248              		.loc 1 142 0
 249 0012 C118     		adds	r1, r0, r3
 250 0014 8A42     		cmp	r2, r1
 251 0016 03D3     		bcc	.L16
 143:Api\core\src/vl53l0x_api_core.c **** 			num -= res + bit;
 252              		.loc 1 143 0
ARM GAS  C:\Users\Rajesh\AppData\Local\Temp\ccMJoliC.s 			page 8


 253 0018 521A     		subs	r2, r2, r1
 254              	.LVL35:
 144:Api\core\src/vl53l0x_api_core.c **** 			res = (res >> 1) + bit;
 255              		.loc 1 144 0
 256 001a 4008     		lsrs	r0, r0, #1
 257              	.LVL36:
 258 001c 1818     		adds	r0, r3, r0
 259              	.LVL37:
 260 001e 00E0     		b	.L17
 261              	.L16:
 145:Api\core\src/vl53l0x_api_core.c **** 		} else
 146:Api\core\src/vl53l0x_api_core.c **** 			res >>= 1;
 262              		.loc 1 146 0
 263 0020 4008     		lsrs	r0, r0, #1
 264              	.LVL38:
 265              	.L17:
 147:Api\core\src/vl53l0x_api_core.c **** 
 148:Api\core\src/vl53l0x_api_core.c **** 		bit >>= 2;
 266              		.loc 1 148 0
 267 0022 9B08     		lsrs	r3, r3, #2
 268              	.LVL39:
 269              	.L15:
 141:Api\core\src/vl53l0x_api_core.c **** 		if (num >= res + bit) {
 270              		.loc 1 141 0
 271 0024 002B     		cmp	r3, #0
 272 0026 F4D1     		bne	.L18
 149:Api\core\src/vl53l0x_api_core.c **** 	}
 150:Api\core\src/vl53l0x_api_core.c **** 
 151:Api\core\src/vl53l0x_api_core.c **** 	return res;
 152:Api\core\src/vl53l0x_api_core.c **** }
 273              		.loc 1 152 0
 274              		@ sp needed
 275 0028 7047     		bx	lr
 276              		.cfi_endproc
 277              	.LFE5:
 278              		.size	VL53L0X_isqrt, .-VL53L0X_isqrt
 279 002a C046     		.section	.text.VL53L0X_quadrature_sum,"ax",%progbits
 280              		.align	2
 281              		.global	VL53L0X_quadrature_sum
 282              		.code	16
 283              		.thumb_func
 284              		.type	VL53L0X_quadrature_sum, %function
 285              	VL53L0X_quadrature_sum:
 286              	.LFB6:
 153:Api\core\src/vl53l0x_api_core.c **** 
 154:Api\core\src/vl53l0x_api_core.c **** 
 155:Api\core\src/vl53l0x_api_core.c **** uint32_t VL53L0X_quadrature_sum(uint32_t a, uint32_t b)
 156:Api\core\src/vl53l0x_api_core.c **** {
 287              		.loc 1 156 0
 288              		.cfi_startproc
 289              		@ args = 0, pretend = 0, frame = 0
 290              		@ frame_needed = 0, uses_anonymous_args = 0
 291              	.LVL40:
 292 0000 10B5     		push	{r4, lr}
 293              		.cfi_def_cfa_offset 8
 294              		.cfi_offset 4, -8
 295              		.cfi_offset 14, -4
ARM GAS  C:\Users\Rajesh\AppData\Local\Temp\ccMJoliC.s 			page 9


 296              	.LVL41:
 157:Api\core\src/vl53l0x_api_core.c **** 	/*
 158:Api\core\src/vl53l0x_api_core.c **** 	 * Implements a quadrature sum
 159:Api\core\src/vl53l0x_api_core.c **** 	 *
 160:Api\core\src/vl53l0x_api_core.c **** 	 * rea = sqrt(a^2 + b^2)
 161:Api\core\src/vl53l0x_api_core.c **** 	 *
 162:Api\core\src/vl53l0x_api_core.c **** 	 * Trap overflow case max input value is 65535 (16-bit value)
 163:Api\core\src/vl53l0x_api_core.c **** 	 * as internal calc are 32-bit wide
 164:Api\core\src/vl53l0x_api_core.c **** 	 *
 165:Api\core\src/vl53l0x_api_core.c **** 	 * If overflow then seta output to maximum
 166:Api\core\src/vl53l0x_api_core.c **** 	 */
 167:Api\core\src/vl53l0x_api_core.c **** 	uint32_t  res = 0;
 168:Api\core\src/vl53l0x_api_core.c **** 
 169:Api\core\src/vl53l0x_api_core.c **** 	if (a > 65535 || b > 65535)
 297              		.loc 1 169 0
 298 0002 074B     		ldr	r3, .L23
 299 0004 9842     		cmp	r0, r3
 300 0006 07D8     		bhi	.L21
 301              		.loc 1 169 0 is_stmt 0 discriminator 1
 302 0008 9942     		cmp	r1, r3
 303 000a 07D8     		bhi	.L22
 170:Api\core\src/vl53l0x_api_core.c **** 		res = 65535;
 171:Api\core\src/vl53l0x_api_core.c **** 	else
 172:Api\core\src/vl53l0x_api_core.c **** 		res = VL53L0X_isqrt(a * a + b * b);
 304              		.loc 1 172 0 is_stmt 1
 305 000c 4043     		muls	r0, r0
 306              	.LVL42:
 307 000e 4943     		muls	r1, r1
 308              	.LVL43:
 309 0010 4018     		adds	r0, r0, r1
 310 0012 FFF7FEFF 		bl	VL53L0X_isqrt
 311              	.LVL44:
 312 0016 02E0     		b	.L20
 313              	.LVL45:
 314              	.L21:
 170:Api\core\src/vl53l0x_api_core.c **** 		res = 65535;
 315              		.loc 1 170 0
 316 0018 0148     		ldr	r0, .L23
 317              	.LVL46:
 318 001a 00E0     		b	.L20
 319              	.LVL47:
 320              	.L22:
 321 001c 0048     		ldr	r0, .L23
 322              	.LVL48:
 323              	.L20:
 173:Api\core\src/vl53l0x_api_core.c **** 
 174:Api\core\src/vl53l0x_api_core.c **** 	return res;
 175:Api\core\src/vl53l0x_api_core.c **** }
 324              		.loc 1 175 0
 325              		@ sp needed
 326 001e 10BD     		pop	{r4, pc}
 327              	.L24:
 328              		.align	2
 329              	.L23:
 330 0020 FFFF0000 		.word	65535
 331              		.cfi_endproc
 332              	.LFE6:
ARM GAS  C:\Users\Rajesh\AppData\Local\Temp\ccMJoliC.s 			page 10


 333              		.size	VL53L0X_quadrature_sum, .-VL53L0X_quadrature_sum
 334              		.section	.text.VL53L0X_device_read_strobe,"ax",%progbits
 335              		.align	2
 336              		.global	VL53L0X_device_read_strobe
 337              		.code	16
 338              		.thumb_func
 339              		.type	VL53L0X_device_read_strobe, %function
 340              	VL53L0X_device_read_strobe:
 341              	.LFB7:
 176:Api\core\src/vl53l0x_api_core.c **** 
 177:Api\core\src/vl53l0x_api_core.c **** 
 178:Api\core\src/vl53l0x_api_core.c **** VL53L0X_Error VL53L0X_device_read_strobe(VL53L0X_DEV Dev)
 179:Api\core\src/vl53l0x_api_core.c **** {
 342              		.loc 1 179 0
 343              		.cfi_startproc
 344              		@ args = 0, pretend = 0, frame = 8
 345              		@ frame_needed = 0, uses_anonymous_args = 0
 346              	.LVL49:
 347 0000 F0B5     		push	{r4, r5, r6, r7, lr}
 348              		.cfi_def_cfa_offset 20
 349              		.cfi_offset 4, -20
 350              		.cfi_offset 5, -16
 351              		.cfi_offset 6, -12
 352              		.cfi_offset 7, -8
 353              		.cfi_offset 14, -4
 354 0002 83B0     		sub	sp, sp, #12
 355              		.cfi_def_cfa_offset 32
 356 0004 0500     		movs	r5, r0
 357              	.LVL50:
 180:Api\core\src/vl53l0x_api_core.c **** 	VL53L0X_Error Status = VL53L0X_ERROR_NONE;
 181:Api\core\src/vl53l0x_api_core.c **** 	uint8_t strobe;
 182:Api\core\src/vl53l0x_api_core.c **** 	uint32_t LoopNb;
 183:Api\core\src/vl53l0x_api_core.c **** 	LOG_FUNCTION_START("");
 184:Api\core\src/vl53l0x_api_core.c **** 
 185:Api\core\src/vl53l0x_api_core.c **** 	Status |= VL53L0X_WrByte(Dev, 0x83, 0x00);
 358              		.loc 1 185 0
 359 0006 0022     		movs	r2, #0
 360 0008 8321     		movs	r1, #131
 361 000a FFF7FEFF 		bl	VL53L0X_WrByte
 362              	.LVL51:
 363 000e 041E     		subs	r4, r0, #0
 364              	.LVL52:
 186:Api\core\src/vl53l0x_api_core.c **** 
 187:Api\core\src/vl53l0x_api_core.c **** 	/* polling
 188:Api\core\src/vl53l0x_api_core.c **** 	 * use timeout to avoid deadlock*/
 189:Api\core\src/vl53l0x_api_core.c **** 	if (Status == VL53L0X_ERROR_NONE) {
 365              		.loc 1 189 0
 366 0010 16D1     		bne	.L26
 367 0012 0027     		movs	r7, #0
 368              	.LVL53:
 369              	.L28:
 190:Api\core\src/vl53l0x_api_core.c **** 		LoopNb = 0;
 191:Api\core\src/vl53l0x_api_core.c **** 		do {
 192:Api\core\src/vl53l0x_api_core.c **** 			Status = VL53L0X_RdByte(Dev, 0x83, &strobe);
 370              		.loc 1 192 0
 371 0014 6B46     		mov	r3, sp
 372 0016 DE1D     		adds	r6, r3, #7
ARM GAS  C:\Users\Rajesh\AppData\Local\Temp\ccMJoliC.s 			page 11


 373 0018 3200     		movs	r2, r6
 374 001a 8321     		movs	r1, #131
 375 001c 2800     		movs	r0, r5
 376 001e FFF7FEFF 		bl	VL53L0X_RdByte
 377              	.LVL54:
 378 0022 0400     		movs	r4, r0
 379              	.LVL55:
 193:Api\core\src/vl53l0x_api_core.c **** 			if ((strobe != 0x00) || Status != VL53L0X_ERROR_NONE)
 380              		.loc 1 193 0
 381 0024 3378     		ldrb	r3, [r6]
 382 0026 002B     		cmp	r3, #0
 383 0028 05D1     		bne	.L27
 384              		.loc 1 193 0 is_stmt 0 discriminator 1
 385 002a 0028     		cmp	r0, #0
 386 002c 03D1     		bne	.L27
 194:Api\core\src/vl53l0x_api_core.c **** 					break;
 195:Api\core\src/vl53l0x_api_core.c **** 
 196:Api\core\src/vl53l0x_api_core.c **** 			LoopNb = LoopNb + 1;
 387              		.loc 1 196 0 is_stmt 1
 388 002e 0137     		adds	r7, r7, #1
 389              	.LVL56:
 197:Api\core\src/vl53l0x_api_core.c **** 		} while (LoopNb < VL53L0X_DEFAULT_MAX_LOOP);
 390              		.loc 1 197 0
 391 0030 084B     		ldr	r3, .L30
 392 0032 9F42     		cmp	r7, r3
 393 0034 EED9     		bls	.L28
 394              	.L27:
 198:Api\core\src/vl53l0x_api_core.c **** 
 199:Api\core\src/vl53l0x_api_core.c **** 		if (LoopNb >= VL53L0X_DEFAULT_MAX_LOOP)
 395              		.loc 1 199 0
 396 0036 074B     		ldr	r3, .L30
 397 0038 9F42     		cmp	r7, r3
 398 003a 01D9     		bls	.L26
 200:Api\core\src/vl53l0x_api_core.c **** 			Status = VL53L0X_ERROR_TIME_OUT;
 399              		.loc 1 200 0
 400 003c 0724     		movs	r4, #7
 401 003e 6442     		rsbs	r4, r4, #0
 402              	.LVL57:
 403              	.L26:
 201:Api\core\src/vl53l0x_api_core.c **** 
 202:Api\core\src/vl53l0x_api_core.c **** 	}
 203:Api\core\src/vl53l0x_api_core.c **** 
 204:Api\core\src/vl53l0x_api_core.c **** 	Status |= VL53L0X_WrByte(Dev, 0x83, 0x01);
 404              		.loc 1 204 0
 405 0040 0122     		movs	r2, #1
 406 0042 8321     		movs	r1, #131
 407 0044 2800     		movs	r0, r5
 408 0046 FFF7FEFF 		bl	VL53L0X_WrByte
 409              	.LVL58:
 410 004a 2043     		orrs	r0, r4
 411 004c 40B2     		sxtb	r0, r0
 412              	.LVL59:
 205:Api\core\src/vl53l0x_api_core.c **** 
 206:Api\core\src/vl53l0x_api_core.c **** 	LOG_FUNCTION_END(Status);
 207:Api\core\src/vl53l0x_api_core.c **** 	return Status;
 208:Api\core\src/vl53l0x_api_core.c **** 
 209:Api\core\src/vl53l0x_api_core.c **** }
ARM GAS  C:\Users\Rajesh\AppData\Local\Temp\ccMJoliC.s 			page 12


 413              		.loc 1 209 0
 414 004e 03B0     		add	sp, sp, #12
 415              		@ sp needed
 416              	.LVL60:
 417 0050 F0BD     		pop	{r4, r5, r6, r7, pc}
 418              	.L31:
 419 0052 C046     		.align	2
 420              	.L30:
 421 0054 CF070000 		.word	1999
 422              		.cfi_endproc
 423              	.LFE7:
 424              		.size	VL53L0X_device_read_strobe, .-VL53L0X_device_read_strobe
 425              		.section	.text.VL53L0X_get_info_from_device,"ax",%progbits
 426              		.align	2
 427              		.global	VL53L0X_get_info_from_device
 428              		.code	16
 429              		.thumb_func
 430              		.type	VL53L0X_get_info_from_device, %function
 431              	VL53L0X_get_info_from_device:
 432              	.LFB8:
 210:Api\core\src/vl53l0x_api_core.c **** 
 211:Api\core\src/vl53l0x_api_core.c **** VL53L0X_Error VL53L0X_get_info_from_device(VL53L0X_DEV Dev, uint8_t option)
 212:Api\core\src/vl53l0x_api_core.c **** {
 433              		.loc 1 212 0
 434              		.cfi_startproc
 435              		@ args = 0, pretend = 0, frame = 56
 436              		@ frame_needed = 0, uses_anonymous_args = 0
 437              	.LVL61:
 438 0000 F0B5     		push	{r4, r5, r6, r7, lr}
 439              		.cfi_def_cfa_offset 20
 440              		.cfi_offset 4, -20
 441              		.cfi_offset 5, -16
 442              		.cfi_offset 6, -12
 443              		.cfi_offset 7, -8
 444              		.cfi_offset 14, -4
 445 0002 5F46     		mov	r7, fp
 446 0004 5646     		mov	r6, r10
 447 0006 4D46     		mov	r5, r9
 448 0008 4446     		mov	r4, r8
 449 000a F0B4     		push	{r4, r5, r6, r7}
 450              		.cfi_def_cfa_offset 36
 451              		.cfi_offset 8, -36
 452              		.cfi_offset 9, -32
 453              		.cfi_offset 10, -28
 454              		.cfi_offset 11, -24
 455 000c 8FB0     		sub	sp, sp, #60
 456              		.cfi_def_cfa_offset 96
 457 000e 0400     		movs	r4, r0
 458 0010 0D00     		movs	r5, r1
 459              	.LVL62:
 213:Api\core\src/vl53l0x_api_core.c **** 
 214:Api\core\src/vl53l0x_api_core.c **** 	VL53L0X_Error Status = VL53L0X_ERROR_NONE;
 215:Api\core\src/vl53l0x_api_core.c **** 	uint8_t byte;
 216:Api\core\src/vl53l0x_api_core.c **** 	uint32_t TmpDWord;
 217:Api\core\src/vl53l0x_api_core.c **** 	uint8_t ModuleId;
 218:Api\core\src/vl53l0x_api_core.c **** 	uint8_t Revision;
 219:Api\core\src/vl53l0x_api_core.c **** 	uint8_t ReferenceSpadCount = 0;
ARM GAS  C:\Users\Rajesh\AppData\Local\Temp\ccMJoliC.s 			page 13


 220:Api\core\src/vl53l0x_api_core.c **** 	uint8_t ReferenceSpadType = 0;
 221:Api\core\src/vl53l0x_api_core.c **** 	uint32_t PartUIDUpper = 0;
 460              		.loc 1 221 0
 461 0012 0023     		movs	r3, #0
 462 0014 0A93     		str	r3, [sp, #40]
 222:Api\core\src/vl53l0x_api_core.c **** 	uint32_t PartUIDLower = 0;
 463              		.loc 1 222 0
 464 0016 0993     		str	r3, [sp, #36]
 465              	.LVL63:
 223:Api\core\src/vl53l0x_api_core.c **** 	uint32_t OffsetFixed1104_mm = 0;
 224:Api\core\src/vl53l0x_api_core.c **** 	int16_t OffsetMicroMeters = 0;
 225:Api\core\src/vl53l0x_api_core.c **** 	uint32_t DistMeasTgtFixed1104_mm = 400 << 4;
 226:Api\core\src/vl53l0x_api_core.c **** 	uint32_t DistMeasFixed1104_400_mm = 0;
 227:Api\core\src/vl53l0x_api_core.c **** 	uint32_t SignalRateMeasFixed1104_400_mm = 0;
 228:Api\core\src/vl53l0x_api_core.c **** 	char ProductId[19];
 229:Api\core\src/vl53l0x_api_core.c **** 	char *ProductId_tmp;
 230:Api\core\src/vl53l0x_api_core.c **** 	uint8_t ReadDataFromDeviceDone;
 231:Api\core\src/vl53l0x_api_core.c **** 	FixPoint1616_t SignalRateMeasFixed400mmFix = 0;
 232:Api\core\src/vl53l0x_api_core.c **** 	uint8_t NvmRefGoodSpadMap[VL53L0X_REF_SPAD_BUFFER_SIZE];
 233:Api\core\src/vl53l0x_api_core.c **** 	int i;
 234:Api\core\src/vl53l0x_api_core.c **** 
 235:Api\core\src/vl53l0x_api_core.c **** 
 236:Api\core\src/vl53l0x_api_core.c **** 	LOG_FUNCTION_START("");
 237:Api\core\src/vl53l0x_api_core.c **** 
 238:Api\core\src/vl53l0x_api_core.c **** 	ReadDataFromDeviceDone = VL53L0X_GETDEVICESPECIFICPARAMETER(Dev,
 466              		.loc 1 238 0
 467 0018 F033     		adds	r3, r3, #240
 468 001a C35C     		ldrb	r3, [r0, r3]
 469 001c 9846     		mov	r8, r3
 470              	.LVL64:
 239:Api\core\src/vl53l0x_api_core.c **** 			ReadDataFromDeviceDone);
 240:Api\core\src/vl53l0x_api_core.c **** 
 241:Api\core\src/vl53l0x_api_core.c **** 	/* This access is done only once after that a GetDeviceInfo or
 242:Api\core\src/vl53l0x_api_core.c **** 	 * datainit is done*/
 243:Api\core\src/vl53l0x_api_core.c **** 	if (ReadDataFromDeviceDone != 7) {
 471              		.loc 1 243 0
 472 001e 072B     		cmp	r3, #7
 473 0020 00D1     		bne	.LCB451
 474 0022 6DE2     		b	.L44	@long jump
 475              	.LCB451:
 244:Api\core\src/vl53l0x_api_core.c **** 
 245:Api\core\src/vl53l0x_api_core.c **** 		Status |= VL53L0X_WrByte(Dev, 0x80, 0x01);
 476              		.loc 1 245 0
 477 0024 0122     		movs	r2, #1
 478 0026 8021     		movs	r1, #128
 479              	.LVL65:
 480 0028 FFF7FEFF 		bl	VL53L0X_WrByte
 481              	.LVL66:
 482 002c 0600     		movs	r6, r0
 483              	.LVL67:
 246:Api\core\src/vl53l0x_api_core.c **** 		Status |= VL53L0X_WrByte(Dev, 0xFF, 0x01);
 484              		.loc 1 246 0
 485 002e 0122     		movs	r2, #1
 486 0030 FF21     		movs	r1, #255
 487 0032 2000     		movs	r0, r4
 488 0034 FFF7FEFF 		bl	VL53L0X_WrByte
 489              	.LVL68:
ARM GAS  C:\Users\Rajesh\AppData\Local\Temp\ccMJoliC.s 			page 14


 490 0038 3043     		orrs	r0, r6
 491 003a 46B2     		sxtb	r6, r0
 492              	.LVL69:
 247:Api\core\src/vl53l0x_api_core.c **** 		Status |= VL53L0X_WrByte(Dev, 0x00, 0x00);
 493              		.loc 1 247 0
 494 003c 0022     		movs	r2, #0
 495 003e 0021     		movs	r1, #0
 496 0040 2000     		movs	r0, r4
 497 0042 FFF7FEFF 		bl	VL53L0X_WrByte
 498              	.LVL70:
 499 0046 3043     		orrs	r0, r6
 500 0048 46B2     		sxtb	r6, r0
 501              	.LVL71:
 248:Api\core\src/vl53l0x_api_core.c **** 
 249:Api\core\src/vl53l0x_api_core.c **** 		Status |= VL53L0X_WrByte(Dev, 0xFF, 0x06);
 502              		.loc 1 249 0
 503 004a 0622     		movs	r2, #6
 504 004c FF21     		movs	r1, #255
 505 004e 2000     		movs	r0, r4
 506 0050 FFF7FEFF 		bl	VL53L0X_WrByte
 507              	.LVL72:
 508 0054 3043     		orrs	r0, r6
 509 0056 46B2     		sxtb	r6, r0
 510              	.LVL73:
 250:Api\core\src/vl53l0x_api_core.c **** 		Status |= VL53L0X_RdByte(Dev, 0x83, &byte);
 511              		.loc 1 250 0
 512 0058 2F27     		movs	r7, #47
 513 005a 02AB     		add	r3, sp, #8
 514 005c 9C46     		mov	ip, r3
 515 005e 6744     		add	r7, r7, ip
 516 0060 3A00     		movs	r2, r7
 517 0062 8321     		movs	r1, #131
 518 0064 2000     		movs	r0, r4
 519 0066 FFF7FEFF 		bl	VL53L0X_RdByte
 520              	.LVL74:
 521 006a 0643     		orrs	r6, r0
 522              	.LVL75:
 523 006c 76B2     		sxtb	r6, r6
 524              	.LVL76:
 251:Api\core\src/vl53l0x_api_core.c **** 		Status |= VL53L0X_WrByte(Dev, 0x83, byte|4);
 525              		.loc 1 251 0
 526 006e 3A78     		ldrb	r2, [r7]
 527 0070 0423     		movs	r3, #4
 528 0072 1A43     		orrs	r2, r3
 529 0074 D2B2     		uxtb	r2, r2
 530 0076 8321     		movs	r1, #131
 531 0078 2000     		movs	r0, r4
 532 007a FFF7FEFF 		bl	VL53L0X_WrByte
 533              	.LVL77:
 534 007e 3043     		orrs	r0, r6
 535 0080 46B2     		sxtb	r6, r0
 536              	.LVL78:
 252:Api\core\src/vl53l0x_api_core.c **** 		Status |= VL53L0X_WrByte(Dev, 0xFF, 0x07);
 537              		.loc 1 252 0
 538 0082 0722     		movs	r2, #7
 539 0084 FF21     		movs	r1, #255
 540 0086 2000     		movs	r0, r4
ARM GAS  C:\Users\Rajesh\AppData\Local\Temp\ccMJoliC.s 			page 15


 541 0088 FFF7FEFF 		bl	VL53L0X_WrByte
 542              	.LVL79:
 543 008c 3043     		orrs	r0, r6
 544 008e 46B2     		sxtb	r6, r0
 545              	.LVL80:
 253:Api\core\src/vl53l0x_api_core.c **** 		Status |= VL53L0X_WrByte(Dev, 0x81, 0x01);
 546              		.loc 1 253 0
 547 0090 0122     		movs	r2, #1
 548 0092 8121     		movs	r1, #129
 549 0094 2000     		movs	r0, r4
 550 0096 FFF7FEFF 		bl	VL53L0X_WrByte
 551              	.LVL81:
 552 009a 3043     		orrs	r0, r6
 553 009c 46B2     		sxtb	r6, r0
 554              	.LVL82:
 254:Api\core\src/vl53l0x_api_core.c **** 
 255:Api\core\src/vl53l0x_api_core.c **** 		Status |= VL53L0X_PollingDelay(Dev);
 555              		.loc 1 255 0
 556 009e 2000     		movs	r0, r4
 557 00a0 FFF7FEFF 		bl	VL53L0X_PollingDelay
 558              	.LVL83:
 559 00a4 3043     		orrs	r0, r6
 560 00a6 46B2     		sxtb	r6, r0
 561              	.LVL84:
 256:Api\core\src/vl53l0x_api_core.c **** 
 257:Api\core\src/vl53l0x_api_core.c **** 		Status |= VL53L0X_WrByte(Dev, 0x80, 0x01);
 562              		.loc 1 257 0
 563 00a8 0122     		movs	r2, #1
 564 00aa 8021     		movs	r1, #128
 565 00ac 2000     		movs	r0, r4
 566 00ae FFF7FEFF 		bl	VL53L0X_WrByte
 567              	.LVL85:
 568 00b2 0643     		orrs	r6, r0
 569              	.LVL86:
 570 00b4 73B2     		sxtb	r3, r6
 571 00b6 9946     		mov	r9, r3
 572              	.LVL87:
 258:Api\core\src/vl53l0x_api_core.c **** 
 259:Api\core\src/vl53l0x_api_core.c **** 		if (((option & 1) == 1) &&
 573              		.loc 1 259 0
 574 00b8 EB07     		lsls	r3, r5, #31
 575 00ba 56D5     		bpl	.L45
 576              		.loc 1 259 0 is_stmt 0 discriminator 1
 577 00bc 4346     		mov	r3, r8
 578 00be DB07     		lsls	r3, r3, #31
 579 00c0 57D4     		bmi	.L46
 260:Api\core\src/vl53l0x_api_core.c **** 			((ReadDataFromDeviceDone & 1) == 0)) {
 261:Api\core\src/vl53l0x_api_core.c **** 			Status |= VL53L0X_WrByte(Dev, 0x94, 0x6b);
 580              		.loc 1 261 0 is_stmt 1
 581 00c2 6B22     		movs	r2, #107
 582 00c4 9421     		movs	r1, #148
 583 00c6 2000     		movs	r0, r4
 584 00c8 FFF7FEFF 		bl	VL53L0X_WrByte
 585              	.LVL88:
 586 00cc 4B46     		mov	r3, r9
 587 00ce 0343     		orrs	r3, r0
 588 00d0 5EB2     		sxtb	r6, r3
ARM GAS  C:\Users\Rajesh\AppData\Local\Temp\ccMJoliC.s 			page 16


 589              	.LVL89:
 262:Api\core\src/vl53l0x_api_core.c **** 			Status |= VL53L0X_device_read_strobe(Dev);
 590              		.loc 1 262 0
 591 00d2 2000     		movs	r0, r4
 592 00d4 FFF7FEFF 		bl	VL53L0X_device_read_strobe
 593              	.LVL90:
 594 00d8 3043     		orrs	r0, r6
 595 00da 46B2     		sxtb	r6, r0
 596              	.LVL91:
 263:Api\core\src/vl53l0x_api_core.c **** 			Status |= VL53L0X_RdDWord(Dev, 0x90, &TmpDWord);
 597              		.loc 1 263 0
 598 00dc 0CAA     		add	r2, sp, #48
 599 00de 9021     		movs	r1, #144
 600 00e0 2000     		movs	r0, r4
 601 00e2 FFF7FEFF 		bl	VL53L0X_RdDWord
 602              	.LVL92:
 603 00e6 0643     		orrs	r6, r0
 604              	.LVL93:
 605 00e8 76B2     		sxtb	r6, r6
 606              	.LVL94:
 264:Api\core\src/vl53l0x_api_core.c **** 
 265:Api\core\src/vl53l0x_api_core.c **** 			ReferenceSpadCount = (uint8_t)((TmpDWord >> 8) & 0x07f);
 607              		.loc 1 265 0
 608 00ea 0C9B     		ldr	r3, [sp, #48]
 609 00ec 190A     		lsrs	r1, r3, #8
 610 00ee 7F22     		movs	r2, #127
 611 00f0 1140     		ands	r1, r2
 612 00f2 8A46     		mov	r10, r1
 613              	.LVL95:
 266:Api\core\src/vl53l0x_api_core.c **** 			ReferenceSpadType  = (uint8_t)((TmpDWord >> 15) & 0x01);
 614              		.loc 1 266 0
 615 00f4 DB0B     		lsrs	r3, r3, #15
 616 00f6 7E3A     		subs	r2, r2, #126
 617 00f8 1340     		ands	r3, r2
 618 00fa 0093     		str	r3, [sp]
 619              	.LVL96:
 267:Api\core\src/vl53l0x_api_core.c **** 
 268:Api\core\src/vl53l0x_api_core.c **** 			Status |= VL53L0X_WrByte(Dev, 0x94, 0x24);
 620              		.loc 1 268 0
 621 00fc 2332     		adds	r2, r2, #35
 622 00fe 9421     		movs	r1, #148
 623 0100 2000     		movs	r0, r4
 624 0102 FFF7FEFF 		bl	VL53L0X_WrByte
 625              	.LVL97:
 626 0106 3043     		orrs	r0, r6
 627 0108 46B2     		sxtb	r6, r0
 628              	.LVL98:
 269:Api\core\src/vl53l0x_api_core.c **** 			Status |= VL53L0X_device_read_strobe(Dev);
 629              		.loc 1 269 0
 630 010a 2000     		movs	r0, r4
 631 010c FFF7FEFF 		bl	VL53L0X_device_read_strobe
 632              	.LVL99:
 633 0110 3043     		orrs	r0, r6
 634 0112 46B2     		sxtb	r6, r0
 635              	.LVL100:
 270:Api\core\src/vl53l0x_api_core.c **** 			Status |= VL53L0X_RdDWord(Dev, 0x90, &TmpDWord);
 636              		.loc 1 270 0
ARM GAS  C:\Users\Rajesh\AppData\Local\Temp\ccMJoliC.s 			page 17


 637 0114 0CAA     		add	r2, sp, #48
 638 0116 9021     		movs	r1, #144
 639 0118 2000     		movs	r0, r4
 640 011a FFF7FEFF 		bl	VL53L0X_RdDWord
 641              	.LVL101:
 642 011e 0643     		orrs	r6, r0
 643              	.LVL102:
 644 0120 76B2     		sxtb	r6, r6
 645              	.LVL103:
 271:Api\core\src/vl53l0x_api_core.c **** 
 272:Api\core\src/vl53l0x_api_core.c **** 
 273:Api\core\src/vl53l0x_api_core.c **** 			NvmRefGoodSpadMap[0] = (uint8_t)((TmpDWord >> 24)
 646              		.loc 1 273 0
 647 0122 0C9B     		ldr	r3, [sp, #48]
 648 0124 1A0E     		lsrs	r2, r3, #24
 649 0126 02A9     		add	r1, sp, #8
 650 0128 0A70     		strb	r2, [r1]
 274:Api\core\src/vl53l0x_api_core.c **** 				& 0xff);
 275:Api\core\src/vl53l0x_api_core.c **** 			NvmRefGoodSpadMap[1] = (uint8_t)((TmpDWord >> 16)
 651              		.loc 1 275 0
 652 012a 1A0C     		lsrs	r2, r3, #16
 653 012c 4A70     		strb	r2, [r1, #1]
 276:Api\core\src/vl53l0x_api_core.c **** 				& 0xff);
 277:Api\core\src/vl53l0x_api_core.c **** 			NvmRefGoodSpadMap[2] = (uint8_t)((TmpDWord >> 8)
 654              		.loc 1 277 0
 655 012e 1A0A     		lsrs	r2, r3, #8
 656 0130 8A70     		strb	r2, [r1, #2]
 278:Api\core\src/vl53l0x_api_core.c **** 				& 0xff);
 279:Api\core\src/vl53l0x_api_core.c **** 			NvmRefGoodSpadMap[3] = (uint8_t)(TmpDWord & 0xff);
 657              		.loc 1 279 0
 658 0132 CB70     		strb	r3, [r1, #3]
 280:Api\core\src/vl53l0x_api_core.c **** 
 281:Api\core\src/vl53l0x_api_core.c **** 			Status |= VL53L0X_WrByte(Dev, 0x94, 0x25);
 659              		.loc 1 281 0
 660 0134 2522     		movs	r2, #37
 661 0136 9421     		movs	r1, #148
 662 0138 2000     		movs	r0, r4
 663 013a FFF7FEFF 		bl	VL53L0X_WrByte
 664              	.LVL104:
 665 013e 3043     		orrs	r0, r6
 666 0140 46B2     		sxtb	r6, r0
 667              	.LVL105:
 282:Api\core\src/vl53l0x_api_core.c **** 			Status |= VL53L0X_device_read_strobe(Dev);
 668              		.loc 1 282 0
 669 0142 2000     		movs	r0, r4
 670 0144 FFF7FEFF 		bl	VL53L0X_device_read_strobe
 671              	.LVL106:
 672 0148 3043     		orrs	r0, r6
 673 014a 46B2     		sxtb	r6, r0
 674              	.LVL107:
 283:Api\core\src/vl53l0x_api_core.c **** 			Status |= VL53L0X_RdDWord(Dev, 0x90, &TmpDWord);
 675              		.loc 1 283 0
 676 014c 0CAA     		add	r2, sp, #48
 677 014e 9021     		movs	r1, #144
 678 0150 2000     		movs	r0, r4
 679 0152 FFF7FEFF 		bl	VL53L0X_RdDWord
 680              	.LVL108:
ARM GAS  C:\Users\Rajesh\AppData\Local\Temp\ccMJoliC.s 			page 18


 681 0156 0643     		orrs	r6, r0
 682              	.LVL109:
 683 0158 73B2     		sxtb	r3, r6
 684 015a 9946     		mov	r9, r3
 685              	.LVL110:
 284:Api\core\src/vl53l0x_api_core.c **** 
 285:Api\core\src/vl53l0x_api_core.c **** 			NvmRefGoodSpadMap[4] = (uint8_t)((TmpDWord >> 24)
 686              		.loc 1 285 0
 687 015c 0C9B     		ldr	r3, [sp, #48]
 688 015e 1A0E     		lsrs	r2, r3, #24
 689 0160 02A9     		add	r1, sp, #8
 690 0162 0A71     		strb	r2, [r1, #4]
 286:Api\core\src/vl53l0x_api_core.c **** 				& 0xff);
 287:Api\core\src/vl53l0x_api_core.c **** 			NvmRefGoodSpadMap[5] = (uint8_t)((TmpDWord >> 16)
 691              		.loc 1 287 0
 692 0164 1B0C     		lsrs	r3, r3, #16
 693 0166 4B71     		strb	r3, [r1, #5]
 694 0168 06E0     		b	.L34
 695              	.LVL111:
 696              	.L45:
 220:Api\core\src/vl53l0x_api_core.c **** 	uint32_t PartUIDUpper = 0;
 697              		.loc 1 220 0
 698 016a 0023     		movs	r3, #0
 699 016c 0093     		str	r3, [sp]
 219:Api\core\src/vl53l0x_api_core.c **** 	uint8_t ReferenceSpadType = 0;
 700              		.loc 1 219 0
 701 016e 9A46     		mov	r10, r3
 702 0170 02E0     		b	.L34
 703              	.L46:
 220:Api\core\src/vl53l0x_api_core.c **** 	uint32_t PartUIDUpper = 0;
 704              		.loc 1 220 0
 705 0172 0023     		movs	r3, #0
 706 0174 0093     		str	r3, [sp]
 219:Api\core\src/vl53l0x_api_core.c **** 	uint8_t ReferenceSpadType = 0;
 707              		.loc 1 219 0
 708 0176 9A46     		mov	r10, r3
 709              	.LVL112:
 710              	.L34:
 288:Api\core\src/vl53l0x_api_core.c **** 				& 0xff);
 289:Api\core\src/vl53l0x_api_core.c **** 		}
 290:Api\core\src/vl53l0x_api_core.c **** 
 291:Api\core\src/vl53l0x_api_core.c **** 		if (((option & 2) == 2) &&
 711              		.loc 1 291 0
 712 0178 AB07     		lsls	r3, r5, #30
 713 017a 00D4     		bmi	.LCB702
 714 017c EEE0     		b	.L35	@long jump
 715              	.LCB702:
 716              		.loc 1 291 0 is_stmt 0 discriminator 1
 717 017e 4346     		mov	r3, r8
 718 0180 9B07     		lsls	r3, r3, #30
 719 0182 00D5     		bpl	.LCB709
 720 0184 EAE0     		b	.L35	@long jump
 721              	.LCB709:
 292:Api\core\src/vl53l0x_api_core.c **** 			((ReadDataFromDeviceDone & 2) == 0)) {
 293:Api\core\src/vl53l0x_api_core.c **** 
 294:Api\core\src/vl53l0x_api_core.c **** 			Status |= VL53L0X_WrByte(Dev, 0x94, 0x02);
 722              		.loc 1 294 0 is_stmt 1
ARM GAS  C:\Users\Rajesh\AppData\Local\Temp\ccMJoliC.s 			page 19


 723 0186 0222     		movs	r2, #2
 724 0188 9421     		movs	r1, #148
 725 018a 2000     		movs	r0, r4
 726 018c FFF7FEFF 		bl	VL53L0X_WrByte
 727              	.LVL113:
 728 0190 4B46     		mov	r3, r9
 729 0192 0343     		orrs	r3, r0
 730 0194 5EB2     		sxtb	r6, r3
 731              	.LVL114:
 295:Api\core\src/vl53l0x_api_core.c **** 			Status |= VL53L0X_device_read_strobe(Dev);
 732              		.loc 1 295 0
 733 0196 2000     		movs	r0, r4
 734 0198 FFF7FEFF 		bl	VL53L0X_device_read_strobe
 735              	.LVL115:
 736 019c 3043     		orrs	r0, r6
 737 019e 46B2     		sxtb	r6, r0
 738              	.LVL116:
 296:Api\core\src/vl53l0x_api_core.c **** 			Status |= VL53L0X_RdByte(Dev, 0x90, &ModuleId);
 739              		.loc 1 296 0
 740 01a0 2722     		movs	r2, #39
 741 01a2 02AB     		add	r3, sp, #8
 742 01a4 9C46     		mov	ip, r3
 743 01a6 6244     		add	r2, r2, ip
 744 01a8 9021     		movs	r1, #144
 745 01aa 2000     		movs	r0, r4
 746 01ac FFF7FEFF 		bl	VL53L0X_RdByte
 747              	.LVL117:
 748 01b0 3043     		orrs	r0, r6
 749 01b2 46B2     		sxtb	r6, r0
 750              	.LVL118:
 297:Api\core\src/vl53l0x_api_core.c **** 
 298:Api\core\src/vl53l0x_api_core.c **** 			Status |= VL53L0X_WrByte(Dev, 0x94, 0x7B);
 751              		.loc 1 298 0
 752 01b4 7B22     		movs	r2, #123
 753 01b6 9421     		movs	r1, #148
 754 01b8 2000     		movs	r0, r4
 755 01ba FFF7FEFF 		bl	VL53L0X_WrByte
 756              	.LVL119:
 757 01be 3043     		orrs	r0, r6
 758 01c0 46B2     		sxtb	r6, r0
 759              	.LVL120:
 299:Api\core\src/vl53l0x_api_core.c **** 			Status |= VL53L0X_device_read_strobe(Dev);
 760              		.loc 1 299 0
 761 01c2 2000     		movs	r0, r4
 762 01c4 FFF7FEFF 		bl	VL53L0X_device_read_strobe
 763              	.LVL121:
 764 01c8 3043     		orrs	r0, r6
 765 01ca 46B2     		sxtb	r6, r0
 766              	.LVL122:
 300:Api\core\src/vl53l0x_api_core.c **** 			Status |= VL53L0X_RdByte(Dev, 0x90, &Revision);
 767              		.loc 1 300 0
 768 01cc 2622     		movs	r2, #38
 769 01ce 02AB     		add	r3, sp, #8
 770 01d0 9C46     		mov	ip, r3
 771 01d2 6244     		add	r2, r2, ip
 772 01d4 9021     		movs	r1, #144
 773 01d6 2000     		movs	r0, r4
ARM GAS  C:\Users\Rajesh\AppData\Local\Temp\ccMJoliC.s 			page 20


 774 01d8 FFF7FEFF 		bl	VL53L0X_RdByte
 775              	.LVL123:
 776 01dc 3043     		orrs	r0, r6
 777 01de 46B2     		sxtb	r6, r0
 778              	.LVL124:
 301:Api\core\src/vl53l0x_api_core.c **** 
 302:Api\core\src/vl53l0x_api_core.c **** 			Status |= VL53L0X_WrByte(Dev, 0x94, 0x77);
 779              		.loc 1 302 0
 780 01e0 7722     		movs	r2, #119
 781 01e2 9421     		movs	r1, #148
 782 01e4 2000     		movs	r0, r4
 783 01e6 FFF7FEFF 		bl	VL53L0X_WrByte
 784              	.LVL125:
 785 01ea 3043     		orrs	r0, r6
 786 01ec 46B2     		sxtb	r6, r0
 787              	.LVL126:
 303:Api\core\src/vl53l0x_api_core.c **** 			Status |= VL53L0X_device_read_strobe(Dev);
 788              		.loc 1 303 0
 789 01ee 2000     		movs	r0, r4
 790 01f0 FFF7FEFF 		bl	VL53L0X_device_read_strobe
 791              	.LVL127:
 792 01f4 3043     		orrs	r0, r6
 793 01f6 46B2     		sxtb	r6, r0
 794              	.LVL128:
 304:Api\core\src/vl53l0x_api_core.c **** 			Status |= VL53L0X_RdDWord(Dev, 0x90, &TmpDWord);
 795              		.loc 1 304 0
 796 01f8 0CAA     		add	r2, sp, #48
 797 01fa 9021     		movs	r1, #144
 798 01fc 2000     		movs	r0, r4
 799 01fe FFF7FEFF 		bl	VL53L0X_RdDWord
 800              	.LVL129:
 801 0202 0643     		orrs	r6, r0
 802              	.LVL130:
 803 0204 73B2     		sxtb	r3, r6
 804 0206 9946     		mov	r9, r3
 805              	.LVL131:
 305:Api\core\src/vl53l0x_api_core.c **** 
 306:Api\core\src/vl53l0x_api_core.c **** 			ProductId[0] = (char)((TmpDWord >> 25) & 0x07f);
 806              		.loc 1 306 0
 807 0208 0C9B     		ldr	r3, [sp, #48]
 808 020a 5A0E     		lsrs	r2, r3, #25
 809 020c 7F27     		movs	r7, #127
 810 020e 3A40     		ands	r2, r7
 811 0210 04AE     		add	r6, sp, #16
 812 0212 3270     		strb	r2, [r6]
 307:Api\core\src/vl53l0x_api_core.c **** 			ProductId[1] = (char)((TmpDWord >> 18) & 0x07f);
 813              		.loc 1 307 0
 814 0214 9A0C     		lsrs	r2, r3, #18
 815 0216 3A40     		ands	r2, r7
 816 0218 7270     		strb	r2, [r6, #1]
 308:Api\core\src/vl53l0x_api_core.c **** 			ProductId[2] = (char)((TmpDWord >> 11) & 0x07f);
 817              		.loc 1 308 0
 818 021a DA0A     		lsrs	r2, r3, #11
 819 021c 3A40     		ands	r2, r7
 820 021e B270     		strb	r2, [r6, #2]
 309:Api\core\src/vl53l0x_api_core.c **** 			ProductId[3] = (char)((TmpDWord >> 4) & 0x07f);
 821              		.loc 1 309 0
ARM GAS  C:\Users\Rajesh\AppData\Local\Temp\ccMJoliC.s 			page 21


 822 0220 1A09     		lsrs	r2, r3, #4
 823 0222 3A40     		ands	r2, r7
 824 0224 F270     		strb	r2, [r6, #3]
 310:Api\core\src/vl53l0x_api_core.c **** 
 311:Api\core\src/vl53l0x_api_core.c **** 			byte = (uint8_t)((TmpDWord & 0x00f) << 3);
 825              		.loc 1 311 0
 826 0226 DB00     		lsls	r3, r3, #3
 827 0228 7822     		movs	r2, #120
 828 022a 1340     		ands	r3, r2
 829 022c 02AA     		add	r2, sp, #8
 830 022e 2F21     		movs	r1, #47
 831 0230 5218     		adds	r2, r2, r1
 832 0232 1370     		strb	r3, [r2]
 312:Api\core\src/vl53l0x_api_core.c **** 
 313:Api\core\src/vl53l0x_api_core.c **** 			Status |= VL53L0X_WrByte(Dev, 0x94, 0x78);
 833              		.loc 1 313 0
 834 0234 7822     		movs	r2, #120
 835 0236 6531     		adds	r1, r1, #101
 836 0238 2000     		movs	r0, r4
 837 023a FFF7FEFF 		bl	VL53L0X_WrByte
 838              	.LVL132:
 839 023e 4B46     		mov	r3, r9
 840 0240 1843     		orrs	r0, r3
 841 0242 43B2     		sxtb	r3, r0
 842 0244 9946     		mov	r9, r3
 843              	.LVL133:
 314:Api\core\src/vl53l0x_api_core.c **** 			Status |= VL53L0X_device_read_strobe(Dev);
 844              		.loc 1 314 0
 845 0246 2000     		movs	r0, r4
 846 0248 FFF7FEFF 		bl	VL53L0X_device_read_strobe
 847              	.LVL134:
 848 024c 4B46     		mov	r3, r9
 849 024e 1843     		orrs	r0, r3
 850 0250 43B2     		sxtb	r3, r0
 851 0252 9946     		mov	r9, r3
 852              	.LVL135:
 315:Api\core\src/vl53l0x_api_core.c **** 			Status |= VL53L0X_RdDWord(Dev, 0x90, &TmpDWord);
 853              		.loc 1 315 0
 854 0254 0CAA     		add	r2, sp, #48
 855 0256 9021     		movs	r1, #144
 856 0258 2000     		movs	r0, r4
 857 025a FFF7FEFF 		bl	VL53L0X_RdDWord
 858              	.LVL136:
 859 025e 4B46     		mov	r3, r9
 860 0260 1843     		orrs	r0, r3
 861 0262 43B2     		sxtb	r3, r0
 862 0264 9946     		mov	r9, r3
 863              	.LVL137:
 316:Api\core\src/vl53l0x_api_core.c **** 
 317:Api\core\src/vl53l0x_api_core.c **** 			ProductId[4] = (char)(byte +
 318:Api\core\src/vl53l0x_api_core.c **** 					((TmpDWord >> 29) & 0x07f));
 864              		.loc 1 318 0
 865 0266 0C9B     		ldr	r3, [sp, #48]
 866 0268 590F     		lsrs	r1, r3, #29
 317:Api\core\src/vl53l0x_api_core.c **** 					((TmpDWord >> 29) & 0x07f));
 867              		.loc 1 317 0
 868 026a 02AA     		add	r2, sp, #8
ARM GAS  C:\Users\Rajesh\AppData\Local\Temp\ccMJoliC.s 			page 22


 869 026c 2F20     		movs	r0, #47
 870 026e 1218     		adds	r2, r2, r0
 871 0270 1278     		ldrb	r2, [r2]
 872 0272 8A18     		adds	r2, r1, r2
 873 0274 3271     		strb	r2, [r6, #4]
 319:Api\core\src/vl53l0x_api_core.c **** 			ProductId[5] = (char)((TmpDWord >> 22) & 0x07f);
 874              		.loc 1 319 0
 875 0276 9A0D     		lsrs	r2, r3, #22
 876 0278 3A40     		ands	r2, r7
 877 027a 7271     		strb	r2, [r6, #5]
 320:Api\core\src/vl53l0x_api_core.c **** 			ProductId[6] = (char)((TmpDWord >> 15) & 0x07f);
 878              		.loc 1 320 0
 879 027c DA0B     		lsrs	r2, r3, #15
 880 027e 3A40     		ands	r2, r7
 881 0280 B271     		strb	r2, [r6, #6]
 321:Api\core\src/vl53l0x_api_core.c **** 			ProductId[7] = (char)((TmpDWord >> 8) & 0x07f);
 882              		.loc 1 321 0
 883 0282 1A0A     		lsrs	r2, r3, #8
 884 0284 3A40     		ands	r2, r7
 885 0286 F271     		strb	r2, [r6, #7]
 322:Api\core\src/vl53l0x_api_core.c **** 			ProductId[8] = (char)((TmpDWord >> 1) & 0x07f);
 886              		.loc 1 322 0
 887 0288 5A08     		lsrs	r2, r3, #1
 888 028a 3A40     		ands	r2, r7
 889 028c 3272     		strb	r2, [r6, #8]
 323:Api\core\src/vl53l0x_api_core.c **** 
 324:Api\core\src/vl53l0x_api_core.c **** 			byte = (uint8_t)((TmpDWord & 0x001) << 6);
 890              		.loc 1 324 0
 891 028e 9B01     		lsls	r3, r3, #6
 892 0290 4022     		movs	r2, #64
 893 0292 1340     		ands	r3, r2
 894 0294 02AA     		add	r2, sp, #8
 895 0296 2F21     		movs	r1, #47
 896 0298 5218     		adds	r2, r2, r1
 897 029a 1370     		strb	r3, [r2]
 325:Api\core\src/vl53l0x_api_core.c **** 
 326:Api\core\src/vl53l0x_api_core.c **** 			Status |= VL53L0X_WrByte(Dev, 0x94, 0x79);
 898              		.loc 1 326 0
 899 029c 7922     		movs	r2, #121
 900 029e 6531     		adds	r1, r1, #101
 901 02a0 2000     		movs	r0, r4
 902 02a2 FFF7FEFF 		bl	VL53L0X_WrByte
 903              	.LVL138:
 904 02a6 4B46     		mov	r3, r9
 905 02a8 1843     		orrs	r0, r3
 906 02aa 43B2     		sxtb	r3, r0
 907 02ac 9946     		mov	r9, r3
 908              	.LVL139:
 327:Api\core\src/vl53l0x_api_core.c **** 
 328:Api\core\src/vl53l0x_api_core.c **** 			Status |= VL53L0X_device_read_strobe(Dev);
 909              		.loc 1 328 0
 910 02ae 2000     		movs	r0, r4
 911 02b0 FFF7FEFF 		bl	VL53L0X_device_read_strobe
 912              	.LVL140:
 913 02b4 4B46     		mov	r3, r9
 914 02b6 1843     		orrs	r0, r3
 915 02b8 43B2     		sxtb	r3, r0
ARM GAS  C:\Users\Rajesh\AppData\Local\Temp\ccMJoliC.s 			page 23


 916 02ba 9946     		mov	r9, r3
 917              	.LVL141:
 329:Api\core\src/vl53l0x_api_core.c **** 
 330:Api\core\src/vl53l0x_api_core.c **** 			Status |= VL53L0X_RdDWord(Dev, 0x90, &TmpDWord);
 918              		.loc 1 330 0
 919 02bc 0CAA     		add	r2, sp, #48
 920 02be 9021     		movs	r1, #144
 921 02c0 2000     		movs	r0, r4
 922 02c2 FFF7FEFF 		bl	VL53L0X_RdDWord
 923              	.LVL142:
 924 02c6 4B46     		mov	r3, r9
 925 02c8 1843     		orrs	r0, r3
 926 02ca 43B2     		sxtb	r3, r0
 927 02cc 9946     		mov	r9, r3
 928              	.LVL143:
 331:Api\core\src/vl53l0x_api_core.c **** 
 332:Api\core\src/vl53l0x_api_core.c **** 			ProductId[9] = (char)(byte +
 333:Api\core\src/vl53l0x_api_core.c **** 					((TmpDWord >> 26) & 0x07f));
 929              		.loc 1 333 0
 930 02ce 0C9B     		ldr	r3, [sp, #48]
 931 02d0 990E     		lsrs	r1, r3, #26
 332:Api\core\src/vl53l0x_api_core.c **** 					((TmpDWord >> 26) & 0x07f));
 932              		.loc 1 332 0
 933 02d2 02AA     		add	r2, sp, #8
 934 02d4 2F20     		movs	r0, #47
 935 02d6 1218     		adds	r2, r2, r0
 936 02d8 1278     		ldrb	r2, [r2]
 937 02da 8A18     		adds	r2, r1, r2
 938 02dc 7272     		strb	r2, [r6, #9]
 334:Api\core\src/vl53l0x_api_core.c **** 			ProductId[10] = (char)((TmpDWord >> 19) & 0x07f);
 939              		.loc 1 334 0
 940 02de DA0C     		lsrs	r2, r3, #19
 941 02e0 3A40     		ands	r2, r7
 942 02e2 B272     		strb	r2, [r6, #10]
 335:Api\core\src/vl53l0x_api_core.c **** 			ProductId[11] = (char)((TmpDWord >> 12) & 0x07f);
 943              		.loc 1 335 0
 944 02e4 1A0B     		lsrs	r2, r3, #12
 945 02e6 3A40     		ands	r2, r7
 946 02e8 F272     		strb	r2, [r6, #11]
 336:Api\core\src/vl53l0x_api_core.c **** 			ProductId[12] = (char)((TmpDWord >> 5) & 0x07f);
 947              		.loc 1 336 0
 948 02ea 5A09     		lsrs	r2, r3, #5
 949 02ec 3A40     		ands	r2, r7
 950 02ee 3273     		strb	r2, [r6, #12]
 337:Api\core\src/vl53l0x_api_core.c **** 
 338:Api\core\src/vl53l0x_api_core.c **** 			byte = (uint8_t)((TmpDWord & 0x01f) << 2);
 951              		.loc 1 338 0
 952 02f0 9B00     		lsls	r3, r3, #2
 953 02f2 7C22     		movs	r2, #124
 954 02f4 1340     		ands	r3, r2
 955 02f6 02AA     		add	r2, sp, #8
 956 02f8 2F21     		movs	r1, #47
 957 02fa 5218     		adds	r2, r2, r1
 958 02fc 1370     		strb	r3, [r2]
 339:Api\core\src/vl53l0x_api_core.c **** 
 340:Api\core\src/vl53l0x_api_core.c **** 			Status |= VL53L0X_WrByte(Dev, 0x94, 0x7A);
 959              		.loc 1 340 0
ARM GAS  C:\Users\Rajesh\AppData\Local\Temp\ccMJoliC.s 			page 24


 960 02fe 7A22     		movs	r2, #122
 961 0300 6531     		adds	r1, r1, #101
 962 0302 2000     		movs	r0, r4
 963 0304 FFF7FEFF 		bl	VL53L0X_WrByte
 964              	.LVL144:
 965 0308 4B46     		mov	r3, r9
 966 030a 1843     		orrs	r0, r3
 967 030c 43B2     		sxtb	r3, r0
 968 030e 9946     		mov	r9, r3
 969              	.LVL145:
 341:Api\core\src/vl53l0x_api_core.c **** 
 342:Api\core\src/vl53l0x_api_core.c **** 			Status |= VL53L0X_device_read_strobe(Dev);
 970              		.loc 1 342 0
 971 0310 2000     		movs	r0, r4
 972 0312 FFF7FEFF 		bl	VL53L0X_device_read_strobe
 973              	.LVL146:
 974 0316 4B46     		mov	r3, r9
 975 0318 1843     		orrs	r0, r3
 976 031a 43B2     		sxtb	r3, r0
 977 031c 9946     		mov	r9, r3
 978              	.LVL147:
 343:Api\core\src/vl53l0x_api_core.c **** 
 344:Api\core\src/vl53l0x_api_core.c **** 			Status |= VL53L0X_RdDWord(Dev, 0x90, &TmpDWord);
 979              		.loc 1 344 0
 980 031e 0CAA     		add	r2, sp, #48
 981 0320 9021     		movs	r1, #144
 982 0322 2000     		movs	r0, r4
 983 0324 FFF7FEFF 		bl	VL53L0X_RdDWord
 984              	.LVL148:
 985 0328 4B46     		mov	r3, r9
 986 032a 1843     		orrs	r0, r3
 987 032c 43B2     		sxtb	r3, r0
 988 032e 9946     		mov	r9, r3
 989              	.LVL149:
 345:Api\core\src/vl53l0x_api_core.c **** 
 346:Api\core\src/vl53l0x_api_core.c **** 			ProductId[13] = (char)(byte +
 347:Api\core\src/vl53l0x_api_core.c **** 					((TmpDWord >> 30) & 0x07f));
 990              		.loc 1 347 0
 991 0330 0C9B     		ldr	r3, [sp, #48]
 992 0332 990F     		lsrs	r1, r3, #30
 346:Api\core\src/vl53l0x_api_core.c **** 					((TmpDWord >> 30) & 0x07f));
 993              		.loc 1 346 0
 994 0334 02AA     		add	r2, sp, #8
 995 0336 2F20     		movs	r0, #47
 996 0338 1218     		adds	r2, r2, r0
 997 033a 1278     		ldrb	r2, [r2]
 998 033c 8A18     		adds	r2, r1, r2
 999 033e 7273     		strb	r2, [r6, #13]
 348:Api\core\src/vl53l0x_api_core.c **** 			ProductId[14] = (char)((TmpDWord >> 23) & 0x07f);
 1000              		.loc 1 348 0
 1001 0340 DA0D     		lsrs	r2, r3, #23
 1002 0342 3A40     		ands	r2, r7
 1003 0344 B273     		strb	r2, [r6, #14]
 349:Api\core\src/vl53l0x_api_core.c **** 			ProductId[15] = (char)((TmpDWord >> 16) & 0x07f);
 1004              		.loc 1 349 0
 1005 0346 1A0C     		lsrs	r2, r3, #16
 1006 0348 3A40     		ands	r2, r7
ARM GAS  C:\Users\Rajesh\AppData\Local\Temp\ccMJoliC.s 			page 25


 1007 034a F273     		strb	r2, [r6, #15]
 350:Api\core\src/vl53l0x_api_core.c **** 			ProductId[16] = (char)((TmpDWord >> 9) & 0x07f);
 1008              		.loc 1 350 0
 1009 034c 5A0A     		lsrs	r2, r3, #9
 1010 034e 3A40     		ands	r2, r7
 1011 0350 3274     		strb	r2, [r6, #16]
 351:Api\core\src/vl53l0x_api_core.c **** 			ProductId[17] = (char)((TmpDWord >> 2) & 0x07f);
 1012              		.loc 1 351 0
 1013 0352 9B08     		lsrs	r3, r3, #2
 1014 0354 3B40     		ands	r3, r7
 1015 0356 7374     		strb	r3, [r6, #17]
 352:Api\core\src/vl53l0x_api_core.c **** 			ProductId[18] = '\0';
 1016              		.loc 1 352 0
 1017 0358 0023     		movs	r3, #0
 1018 035a B374     		strb	r3, [r6, #18]
 1019              	.L35:
 353:Api\core\src/vl53l0x_api_core.c **** 
 354:Api\core\src/vl53l0x_api_core.c **** 		}
 355:Api\core\src/vl53l0x_api_core.c **** 
 356:Api\core\src/vl53l0x_api_core.c **** 		if (((option & 4) == 4) &&
 1020              		.loc 1 356 0
 1021 035c 6B07     		lsls	r3, r5, #29
 1022 035e 00D4     		bmi	.LCB1016
 1023 0360 85E0     		b	.L47	@long jump
 1024              	.LCB1016:
 1025              		.loc 1 356 0 is_stmt 0 discriminator 1
 1026 0362 4346     		mov	r3, r8
 1027 0364 5B07     		lsls	r3, r3, #29
 1028 0366 00D5     		bpl	.LCB1023
 1029 0368 85E0     		b	.L48	@long jump
 1030              	.LCB1023:
 357:Api\core\src/vl53l0x_api_core.c **** 			((ReadDataFromDeviceDone & 4) == 0)) {
 358:Api\core\src/vl53l0x_api_core.c **** 
 359:Api\core\src/vl53l0x_api_core.c **** 			Status |= VL53L0X_WrByte(Dev, 0x94, 0x7B);
 1031              		.loc 1 359 0 is_stmt 1
 1032 036a 7B22     		movs	r2, #123
 1033 036c 9421     		movs	r1, #148
 1034 036e 2000     		movs	r0, r4
 1035 0370 FFF7FEFF 		bl	VL53L0X_WrByte
 1036              	.LVL150:
 1037 0374 4B46     		mov	r3, r9
 1038 0376 0343     		orrs	r3, r0
 1039 0378 5EB2     		sxtb	r6, r3
 1040              	.LVL151:
 360:Api\core\src/vl53l0x_api_core.c **** 			Status |= VL53L0X_device_read_strobe(Dev);
 1041              		.loc 1 360 0
 1042 037a 2000     		movs	r0, r4
 1043 037c FFF7FEFF 		bl	VL53L0X_device_read_strobe
 1044              	.LVL152:
 1045 0380 3043     		orrs	r0, r6
 1046 0382 46B2     		sxtb	r6, r0
 1047              	.LVL153:
 361:Api\core\src/vl53l0x_api_core.c **** 			Status |= VL53L0X_RdDWord(Dev, 0x90, &PartUIDUpper);
 1048              		.loc 1 361 0
 1049 0384 0AAA     		add	r2, sp, #40
 1050 0386 9021     		movs	r1, #144
 1051 0388 2000     		movs	r0, r4
ARM GAS  C:\Users\Rajesh\AppData\Local\Temp\ccMJoliC.s 			page 26


 1052 038a FFF7FEFF 		bl	VL53L0X_RdDWord
 1053              	.LVL154:
 1054 038e 3043     		orrs	r0, r6
 1055 0390 46B2     		sxtb	r6, r0
 1056              	.LVL155:
 362:Api\core\src/vl53l0x_api_core.c **** 
 363:Api\core\src/vl53l0x_api_core.c **** 			Status |= VL53L0X_WrByte(Dev, 0x94, 0x7C);
 1057              		.loc 1 363 0
 1058 0392 7C22     		movs	r2, #124
 1059 0394 9421     		movs	r1, #148
 1060 0396 2000     		movs	r0, r4
 1061 0398 FFF7FEFF 		bl	VL53L0X_WrByte
 1062              	.LVL156:
 1063 039c 3043     		orrs	r0, r6
 1064 039e 46B2     		sxtb	r6, r0
 1065              	.LVL157:
 364:Api\core\src/vl53l0x_api_core.c **** 			Status |= VL53L0X_device_read_strobe(Dev);
 1066              		.loc 1 364 0
 1067 03a0 2000     		movs	r0, r4
 1068 03a2 FFF7FEFF 		bl	VL53L0X_device_read_strobe
 1069              	.LVL158:
 1070 03a6 3043     		orrs	r0, r6
 1071 03a8 46B2     		sxtb	r6, r0
 1072              	.LVL159:
 365:Api\core\src/vl53l0x_api_core.c **** 			Status |= VL53L0X_RdDWord(Dev, 0x90, &PartUIDLower);
 1073              		.loc 1 365 0
 1074 03aa 09AA     		add	r2, sp, #36
 1075 03ac 9021     		movs	r1, #144
 1076 03ae 2000     		movs	r0, r4
 1077 03b0 FFF7FEFF 		bl	VL53L0X_RdDWord
 1078              	.LVL160:
 1079 03b4 3043     		orrs	r0, r6
 1080 03b6 46B2     		sxtb	r6, r0
 1081              	.LVL161:
 366:Api\core\src/vl53l0x_api_core.c **** 
 367:Api\core\src/vl53l0x_api_core.c **** 			Status |= VL53L0X_WrByte(Dev, 0x94, 0x73);
 1082              		.loc 1 367 0
 1083 03b8 7322     		movs	r2, #115
 1084 03ba 9421     		movs	r1, #148
 1085 03bc 2000     		movs	r0, r4
 1086 03be FFF7FEFF 		bl	VL53L0X_WrByte
 1087              	.LVL162:
 1088 03c2 3043     		orrs	r0, r6
 1089 03c4 46B2     		sxtb	r6, r0
 1090              	.LVL163:
 368:Api\core\src/vl53l0x_api_core.c **** 			Status |= VL53L0X_device_read_strobe(Dev);
 1091              		.loc 1 368 0
 1092 03c6 2000     		movs	r0, r4
 1093 03c8 FFF7FEFF 		bl	VL53L0X_device_read_strobe
 1094              	.LVL164:
 1095 03cc 3043     		orrs	r0, r6
 1096 03ce 46B2     		sxtb	r6, r0
 1097              	.LVL165:
 369:Api\core\src/vl53l0x_api_core.c **** 			Status |= VL53L0X_RdDWord(Dev, 0x90, &TmpDWord);
 1098              		.loc 1 369 0
 1099 03d0 0CAA     		add	r2, sp, #48
 1100 03d2 9021     		movs	r1, #144
ARM GAS  C:\Users\Rajesh\AppData\Local\Temp\ccMJoliC.s 			page 27


 1101 03d4 2000     		movs	r0, r4
 1102 03d6 FFF7FEFF 		bl	VL53L0X_RdDWord
 1103              	.LVL166:
 1104 03da 0643     		orrs	r6, r0
 1105              	.LVL167:
 1106 03dc 76B2     		sxtb	r6, r6
 1107              	.LVL168:
 370:Api\core\src/vl53l0x_api_core.c **** 
 371:Api\core\src/vl53l0x_api_core.c **** 			SignalRateMeasFixed1104_400_mm = (TmpDWord &
 1108              		.loc 1 371 0
 1109 03de 0C9B     		ldr	r3, [sp, #48]
 1110 03e0 1F06     		lsls	r7, r3, #24
 1111 03e2 3F0C     		lsrs	r7, r7, #16
 1112              	.LVL169:
 372:Api\core\src/vl53l0x_api_core.c **** 				0x0000000ff) << 8;
 373:Api\core\src/vl53l0x_api_core.c **** 
 374:Api\core\src/vl53l0x_api_core.c **** 			Status |= VL53L0X_WrByte(Dev, 0x94, 0x74);
 1113              		.loc 1 374 0
 1114 03e4 7422     		movs	r2, #116
 1115 03e6 9421     		movs	r1, #148
 1116 03e8 2000     		movs	r0, r4
 1117 03ea FFF7FEFF 		bl	VL53L0X_WrByte
 1118              	.LVL170:
 1119 03ee 3043     		orrs	r0, r6
 1120 03f0 46B2     		sxtb	r6, r0
 1121              	.LVL171:
 375:Api\core\src/vl53l0x_api_core.c **** 			Status |= VL53L0X_device_read_strobe(Dev);
 1122              		.loc 1 375 0
 1123 03f2 2000     		movs	r0, r4
 1124 03f4 FFF7FEFF 		bl	VL53L0X_device_read_strobe
 1125              	.LVL172:
 1126 03f8 3043     		orrs	r0, r6
 1127 03fa 46B2     		sxtb	r6, r0
 1128              	.LVL173:
 376:Api\core\src/vl53l0x_api_core.c **** 			Status |= VL53L0X_RdDWord(Dev, 0x90, &TmpDWord);
 1129              		.loc 1 376 0
 1130 03fc 0CAA     		add	r2, sp, #48
 1131 03fe 9021     		movs	r1, #144
 1132 0400 2000     		movs	r0, r4
 1133 0402 FFF7FEFF 		bl	VL53L0X_RdDWord
 1134              	.LVL174:
 1135 0406 0643     		orrs	r6, r0
 1136              	.LVL175:
 1137 0408 76B2     		sxtb	r6, r6
 1138              	.LVL176:
 377:Api\core\src/vl53l0x_api_core.c **** 
 378:Api\core\src/vl53l0x_api_core.c **** 			SignalRateMeasFixed1104_400_mm |= ((TmpDWord &
 379:Api\core\src/vl53l0x_api_core.c **** 				0xff000000) >> 24);
 1139              		.loc 1 379 0
 1140 040a 0C9B     		ldr	r3, [sp, #48]
 1141 040c 1B0E     		lsrs	r3, r3, #24
 378:Api\core\src/vl53l0x_api_core.c **** 				0xff000000) >> 24);
 1142              		.loc 1 378 0
 1143 040e 1F43     		orrs	r7, r3
 1144              	.LVL177:
 1145 0410 0197     		str	r7, [sp, #4]
 1146              	.LVL178:
ARM GAS  C:\Users\Rajesh\AppData\Local\Temp\ccMJoliC.s 			page 28


 380:Api\core\src/vl53l0x_api_core.c **** 
 381:Api\core\src/vl53l0x_api_core.c **** 			Status |= VL53L0X_WrByte(Dev, 0x94, 0x75);
 1147              		.loc 1 381 0
 1148 0412 7522     		movs	r2, #117
 1149 0414 9421     		movs	r1, #148
 1150 0416 2000     		movs	r0, r4
 1151 0418 FFF7FEFF 		bl	VL53L0X_WrByte
 1152              	.LVL179:
 1153 041c 3043     		orrs	r0, r6
 1154 041e 46B2     		sxtb	r6, r0
 1155              	.LVL180:
 382:Api\core\src/vl53l0x_api_core.c **** 			Status |= VL53L0X_device_read_strobe(Dev);
 1156              		.loc 1 382 0
 1157 0420 2000     		movs	r0, r4
 1158 0422 FFF7FEFF 		bl	VL53L0X_device_read_strobe
 1159              	.LVL181:
 1160 0426 3043     		orrs	r0, r6
 1161 0428 46B2     		sxtb	r6, r0
 1162              	.LVL182:
 383:Api\core\src/vl53l0x_api_core.c **** 			Status |= VL53L0X_RdDWord(Dev, 0x90, &TmpDWord);
 1163              		.loc 1 383 0
 1164 042a 0CAA     		add	r2, sp, #48
 1165 042c 9021     		movs	r1, #144
 1166 042e 2000     		movs	r0, r4
 1167 0430 FFF7FEFF 		bl	VL53L0X_RdDWord
 1168              	.LVL183:
 1169 0434 0643     		orrs	r6, r0
 1170              	.LVL184:
 1171 0436 76B2     		sxtb	r6, r6
 1172              	.LVL185:
 384:Api\core\src/vl53l0x_api_core.c **** 
 385:Api\core\src/vl53l0x_api_core.c **** 			DistMeasFixed1104_400_mm = (TmpDWord & 0x0000000ff)
 1173              		.loc 1 385 0
 1174 0438 0C9B     		ldr	r3, [sp, #48]
 1175 043a 1F06     		lsls	r7, r3, #24
 1176              	.LVL186:
 1177 043c 3F0C     		lsrs	r7, r7, #16
 1178              	.LVL187:
 386:Api\core\src/vl53l0x_api_core.c **** 							<< 8;
 387:Api\core\src/vl53l0x_api_core.c **** 
 388:Api\core\src/vl53l0x_api_core.c **** 			Status |= VL53L0X_WrByte(Dev, 0x94, 0x76);
 1179              		.loc 1 388 0
 1180 043e 7622     		movs	r2, #118
 1181 0440 9421     		movs	r1, #148
 1182 0442 2000     		movs	r0, r4
 1183 0444 FFF7FEFF 		bl	VL53L0X_WrByte
 1184              	.LVL188:
 1185 0448 0643     		orrs	r6, r0
 1186              	.LVL189:
 1187 044a 76B2     		sxtb	r6, r6
 1188              	.LVL190:
 389:Api\core\src/vl53l0x_api_core.c **** 			Status |= VL53L0X_device_read_strobe(Dev);
 1189              		.loc 1 389 0
 1190 044c 2000     		movs	r0, r4
 1191 044e FFF7FEFF 		bl	VL53L0X_device_read_strobe
 1192              	.LVL191:
 1193 0452 0643     		orrs	r6, r0
ARM GAS  C:\Users\Rajesh\AppData\Local\Temp\ccMJoliC.s 			page 29


 1194              	.LVL192:
 1195 0454 76B2     		sxtb	r6, r6
 1196              	.LVL193:
 390:Api\core\src/vl53l0x_api_core.c **** 			Status |= VL53L0X_RdDWord(Dev, 0x90, &TmpDWord);
 1197              		.loc 1 390 0
 1198 0456 0CAA     		add	r2, sp, #48
 1199 0458 9021     		movs	r1, #144
 1200 045a 2000     		movs	r0, r4
 1201 045c FFF7FEFF 		bl	VL53L0X_RdDWord
 1202              	.LVL194:
 1203 0460 0643     		orrs	r6, r0
 1204              	.LVL195:
 1205 0462 73B2     		sxtb	r3, r6
 1206 0464 9946     		mov	r9, r3
 1207              	.LVL196:
 391:Api\core\src/vl53l0x_api_core.c **** 
 392:Api\core\src/vl53l0x_api_core.c **** 			DistMeasFixed1104_400_mm |= ((TmpDWord & 0xff000000)
 393:Api\core\src/vl53l0x_api_core.c **** 							>> 24);
 1208              		.loc 1 393 0
 1209 0466 0C9B     		ldr	r3, [sp, #48]
 1210 0468 1B0E     		lsrs	r3, r3, #24
 392:Api\core\src/vl53l0x_api_core.c **** 							>> 24);
 1211              		.loc 1 392 0
 1212 046a 1F43     		orrs	r7, r3
 1213              	.LVL197:
 1214 046c 06E0     		b	.L36
 1215              	.LVL198:
 1216              	.L47:
 227:Api\core\src/vl53l0x_api_core.c **** 	char ProductId[19];
 1217              		.loc 1 227 0
 1218 046e 0023     		movs	r3, #0
 1219 0470 0193     		str	r3, [sp, #4]
 226:Api\core\src/vl53l0x_api_core.c **** 	uint32_t SignalRateMeasFixed1104_400_mm = 0;
 1220              		.loc 1 226 0
 1221 0472 0027     		movs	r7, #0
 1222 0474 02E0     		b	.L36
 1223              	.L48:
 227:Api\core\src/vl53l0x_api_core.c **** 	char ProductId[19];
 1224              		.loc 1 227 0
 1225 0476 0023     		movs	r3, #0
 1226 0478 0193     		str	r3, [sp, #4]
 226:Api\core\src/vl53l0x_api_core.c **** 	uint32_t SignalRateMeasFixed1104_400_mm = 0;
 1227              		.loc 1 226 0
 1228 047a 0027     		movs	r7, #0
 1229              	.LVL199:
 1230              	.L36:
 394:Api\core\src/vl53l0x_api_core.c **** 		}
 395:Api\core\src/vl53l0x_api_core.c **** 
 396:Api\core\src/vl53l0x_api_core.c **** 		Status |= VL53L0X_WrByte(Dev, 0x81, 0x00);
 1231              		.loc 1 396 0
 1232 047c 0022     		movs	r2, #0
 1233 047e 8121     		movs	r1, #129
 1234 0480 2000     		movs	r0, r4
 1235 0482 FFF7FEFF 		bl	VL53L0X_WrByte
 1236              	.LVL200:
 1237 0486 4B46     		mov	r3, r9
 1238 0488 0343     		orrs	r3, r0
ARM GAS  C:\Users\Rajesh\AppData\Local\Temp\ccMJoliC.s 			page 30


 1239 048a 5EB2     		sxtb	r6, r3
 1240              	.LVL201:
 397:Api\core\src/vl53l0x_api_core.c **** 		Status |= VL53L0X_WrByte(Dev, 0xFF, 0x06);
 1241              		.loc 1 397 0
 1242 048c 0622     		movs	r2, #6
 1243 048e FF21     		movs	r1, #255
 1244 0490 2000     		movs	r0, r4
 1245 0492 FFF7FEFF 		bl	VL53L0X_WrByte
 1246              	.LVL202:
 1247 0496 0643     		orrs	r6, r0
 1248              	.LVL203:
 1249 0498 76B2     		sxtb	r6, r6
 1250              	.LVL204:
 398:Api\core\src/vl53l0x_api_core.c **** 		Status |= VL53L0X_RdByte(Dev, 0x83, &byte);
 1251              		.loc 1 398 0
 1252 049a 2F23     		movs	r3, #47
 1253 049c 02AA     		add	r2, sp, #8
 1254 049e 9446     		mov	ip, r2
 1255 04a0 6344     		add	r3, r3, ip
 1256 04a2 9B46     		mov	fp, r3
 1257 04a4 1A00     		movs	r2, r3
 1258 04a6 8321     		movs	r1, #131
 1259 04a8 2000     		movs	r0, r4
 1260 04aa FFF7FEFF 		bl	VL53L0X_RdByte
 1261              	.LVL205:
 1262 04ae 0643     		orrs	r6, r0
 1263              	.LVL206:
 1264 04b0 76B2     		sxtb	r6, r6
 1265              	.LVL207:
 399:Api\core\src/vl53l0x_api_core.c **** 		Status |= VL53L0X_WrByte(Dev, 0x83, byte&0xfb);
 1266              		.loc 1 399 0
 1267 04b2 5B46     		mov	r3, fp
 1268 04b4 1A78     		ldrb	r2, [r3]
 1269 04b6 0423     		movs	r3, #4
 1270 04b8 9A43     		bics	r2, r3
 1271 04ba 8321     		movs	r1, #131
 1272 04bc 2000     		movs	r0, r4
 1273 04be FFF7FEFF 		bl	VL53L0X_WrByte
 1274              	.LVL208:
 1275 04c2 0643     		orrs	r6, r0
 1276              	.LVL209:
 1277 04c4 76B2     		sxtb	r6, r6
 1278              	.LVL210:
 400:Api\core\src/vl53l0x_api_core.c **** 		Status |= VL53L0X_WrByte(Dev, 0xFF, 0x01);
 1279              		.loc 1 400 0
 1280 04c6 0122     		movs	r2, #1
 1281 04c8 FF21     		movs	r1, #255
 1282 04ca 2000     		movs	r0, r4
 1283 04cc FFF7FEFF 		bl	VL53L0X_WrByte
 1284              	.LVL211:
 1285 04d0 0643     		orrs	r6, r0
 1286              	.LVL212:
 1287 04d2 76B2     		sxtb	r6, r6
 1288              	.LVL213:
 401:Api\core\src/vl53l0x_api_core.c **** 		Status |= VL53L0X_WrByte(Dev, 0x00, 0x01);
 1289              		.loc 1 401 0
 1290 04d4 0122     		movs	r2, #1
ARM GAS  C:\Users\Rajesh\AppData\Local\Temp\ccMJoliC.s 			page 31


 1291 04d6 0021     		movs	r1, #0
 1292 04d8 2000     		movs	r0, r4
 1293 04da FFF7FEFF 		bl	VL53L0X_WrByte
 1294              	.LVL214:
 1295 04de 0643     		orrs	r6, r0
 1296              	.LVL215:
 1297 04e0 76B2     		sxtb	r6, r6
 1298              	.LVL216:
 402:Api\core\src/vl53l0x_api_core.c **** 
 403:Api\core\src/vl53l0x_api_core.c **** 		Status |= VL53L0X_WrByte(Dev, 0xFF, 0x00);
 1299              		.loc 1 403 0
 1300 04e2 0022     		movs	r2, #0
 1301 04e4 FF21     		movs	r1, #255
 1302 04e6 2000     		movs	r0, r4
 1303 04e8 FFF7FEFF 		bl	VL53L0X_WrByte
 1304              	.LVL217:
 1305 04ec 0643     		orrs	r6, r0
 1306              	.LVL218:
 1307 04ee 76B2     		sxtb	r6, r6
 1308              	.LVL219:
 404:Api\core\src/vl53l0x_api_core.c **** 		Status |= VL53L0X_WrByte(Dev, 0x80, 0x00);
 1309              		.loc 1 404 0
 1310 04f0 0022     		movs	r2, #0
 1311 04f2 8021     		movs	r1, #128
 1312 04f4 2000     		movs	r0, r4
 1313 04f6 FFF7FEFF 		bl	VL53L0X_WrByte
 1314              	.LVL220:
 1315 04fa 0643     		orrs	r6, r0
 1316              	.LVL221:
 1317 04fc 76B2     		sxtb	r6, r6
 1318              	.LVL222:
 1319 04fe 05E0     		b	.L33
 1320              	.LVL223:
 1321              	.L44:
 227:Api\core\src/vl53l0x_api_core.c **** 	char ProductId[19];
 1322              		.loc 1 227 0
 1323 0500 0023     		movs	r3, #0
 1324              	.LVL224:
 1325 0502 0193     		str	r3, [sp, #4]
 226:Api\core\src/vl53l0x_api_core.c **** 	uint32_t SignalRateMeasFixed1104_400_mm = 0;
 1326              		.loc 1 226 0
 1327 0504 0027     		movs	r7, #0
 220:Api\core\src/vl53l0x_api_core.c **** 	uint32_t PartUIDUpper = 0;
 1328              		.loc 1 220 0
 1329 0506 0093     		str	r3, [sp]
 219:Api\core\src/vl53l0x_api_core.c **** 	uint8_t ReferenceSpadType = 0;
 1330              		.loc 1 219 0
 1331 0508 9A46     		mov	r10, r3
 214:Api\core\src/vl53l0x_api_core.c **** 	uint8_t byte;
 1332              		.loc 1 214 0
 1333 050a 0026     		movs	r6, #0
 1334              	.LVL225:
 1335              	.L33:
 405:Api\core\src/vl53l0x_api_core.c **** 	}
 406:Api\core\src/vl53l0x_api_core.c **** 
 407:Api\core\src/vl53l0x_api_core.c **** 	if ((Status == VL53L0X_ERROR_NONE) &&
 1336              		.loc 1 407 0
ARM GAS  C:\Users\Rajesh\AppData\Local\Temp\ccMJoliC.s 			page 32


 1337 050c 002E     		cmp	r6, #0
 1338 050e 54D1     		bne	.L37
 1339              		.loc 1 407 0 is_stmt 0 discriminator 1
 1340 0510 4346     		mov	r3, r8
 1341 0512 072B     		cmp	r3, #7
 1342 0514 51D0     		beq	.L37
 1343              	.LVL226:
 408:Api\core\src/vl53l0x_api_core.c **** 		(ReadDataFromDeviceDone != 7)) {
 409:Api\core\src/vl53l0x_api_core.c **** 		/* Assign to variable if status is ok */
 410:Api\core\src/vl53l0x_api_core.c **** 		if (((option & 1) == 1) &&
 1344              		.loc 1 410 0 is_stmt 1
 1345 0516 EB07     		lsls	r3, r5, #31
 1346 0518 15D5     		bpl	.L38
 1347              	.LVL227:
 1348              		.loc 1 410 0 is_stmt 0 discriminator 1
 1349 051a 4346     		mov	r3, r8
 1350 051c DB07     		lsls	r3, r3, #31
 1351 051e 12D4     		bmi	.L38
 411:Api\core\src/vl53l0x_api_core.c **** 			((ReadDataFromDeviceDone & 1) == 0)) {
 412:Api\core\src/vl53l0x_api_core.c **** 			VL53L0X_SETDEVICESPECIFICPARAMETER(Dev,
 1352              		.loc 1 412 0 is_stmt 1
 1353 0520 1423     		movs	r3, #20
 1354 0522 FF33     		adds	r3, r3, #255
 1355 0524 5246     		mov	r2, r10
 1356 0526 E254     		strb	r2, [r4, r3]
 413:Api\core\src/vl53l0x_api_core.c **** 				ReferenceSpadCount, ReferenceSpadCount);
 414:Api\core\src/vl53l0x_api_core.c **** 
 415:Api\core\src/vl53l0x_api_core.c **** 			VL53L0X_SETDEVICESPECIFICPARAMETER(Dev,
 1357              		.loc 1 415 0
 1358 0528 0133     		adds	r3, r3, #1
 1359 052a 6A46     		mov	r2, sp
 1360 052c 1278     		ldrb	r2, [r2]
 1361 052e E254     		strb	r2, [r4, r3]
 1362              	.LVL228:
 416:Api\core\src/vl53l0x_api_core.c **** 				ReferenceSpadType, ReferenceSpadType);
 417:Api\core\src/vl53l0x_api_core.c **** 
 418:Api\core\src/vl53l0x_api_core.c **** 			for (i = 0; i < VL53L0X_REF_SPAD_BUFFER_SIZE; i++) {
 1363              		.loc 1 418 0
 1364 0530 0023     		movs	r3, #0
 1365 0532 06E0     		b	.L39
 1366              	.LVL229:
 1367              	.L40:
 419:Api\core\src/vl53l0x_api_core.c **** 				Dev->Data.SpadData.RefGoodSpadMap[i] =
 420:Api\core\src/vl53l0x_api_core.c **** 					NvmRefGoodSpadMap[i];
 1368              		.loc 1 420 0 discriminator 3
 1369 0534 02AA     		add	r2, sp, #8
 1370 0536 D15C     		ldrb	r1, [r2, r3]
 419:Api\core\src/vl53l0x_api_core.c **** 				Dev->Data.SpadData.RefGoodSpadMap[i] =
 1371              		.loc 1 419 0 discriminator 3
 1372 0538 E218     		adds	r2, r4, r3
 1373 053a 2B32     		adds	r2, r2, #43
 1374 053c FF32     		adds	r2, r2, #255
 1375 053e 1170     		strb	r1, [r2]
 418:Api\core\src/vl53l0x_api_core.c **** 				Dev->Data.SpadData.RefGoodSpadMap[i] =
 1376              		.loc 1 418 0 discriminator 3
 1377 0540 0133     		adds	r3, r3, #1
 1378              	.LVL230:
ARM GAS  C:\Users\Rajesh\AppData\Local\Temp\ccMJoliC.s 			page 33


 1379              	.L39:
 418:Api\core\src/vl53l0x_api_core.c **** 				Dev->Data.SpadData.RefGoodSpadMap[i] =
 1380              		.loc 1 418 0 is_stmt 0 discriminator 1
 1381 0542 052B     		cmp	r3, #5
 1382 0544 F6DD     		ble	.L40
 1383              	.LVL231:
 1384              	.L38:
 421:Api\core\src/vl53l0x_api_core.c **** 			}
 422:Api\core\src/vl53l0x_api_core.c **** 		}
 423:Api\core\src/vl53l0x_api_core.c **** 
 424:Api\core\src/vl53l0x_api_core.c **** 		if (((option & 2) == 2) &&
 1385              		.loc 1 424 0 is_stmt 1
 1386 0546 AB07     		lsls	r3, r5, #30
 1387 0548 13D5     		bpl	.L41
 1388              		.loc 1 424 0 is_stmt 0 discriminator 1
 1389 054a 4346     		mov	r3, r8
 1390 054c 9B07     		lsls	r3, r3, #30
 1391 054e 10D4     		bmi	.L41
 425:Api\core\src/vl53l0x_api_core.c **** 			((ReadDataFromDeviceDone & 2) == 0)) {
 426:Api\core\src/vl53l0x_api_core.c **** 			VL53L0X_SETDEVICESPECIFICPARAMETER(Dev,
 1392              		.loc 1 426 0 is_stmt 1
 1393 0550 2723     		movs	r3, #39
 1394 0552 02AA     		add	r2, sp, #8
 1395 0554 9446     		mov	ip, r2
 1396 0556 6344     		add	r3, r3, ip
 1397 0558 1A78     		ldrb	r2, [r3]
 1398 055a F123     		movs	r3, #241
 1399 055c E254     		strb	r2, [r4, r3]
 427:Api\core\src/vl53l0x_api_core.c **** 					ModuleId, ModuleId);
 428:Api\core\src/vl53l0x_api_core.c **** 
 429:Api\core\src/vl53l0x_api_core.c **** 			VL53L0X_SETDEVICESPECIFICPARAMETER(Dev,
 1400              		.loc 1 429 0
 1401 055e CB3B     		subs	r3, r3, #203
 1402 0560 6344     		add	r3, r3, ip
 1403 0562 1A78     		ldrb	r2, [r3]
 1404 0564 F223     		movs	r3, #242
 1405 0566 E254     		strb	r2, [r4, r3]
 430:Api\core\src/vl53l0x_api_core.c **** 					Revision, Revision);
 431:Api\core\src/vl53l0x_api_core.c **** 
 432:Api\core\src/vl53l0x_api_core.c **** 			ProductId_tmp = VL53L0X_GETDEVICESPECIFICPARAMETER(Dev,
 433:Api\core\src/vl53l0x_api_core.c **** 					ProductId);
 434:Api\core\src/vl53l0x_api_core.c **** 			VL53L0X_COPYSTRING(ProductId_tmp, ProductId);
 1406              		.loc 1 434 0
 1407 0568 04A9     		add	r1, sp, #16
 1408 056a 2000     		movs	r0, r4
 1409 056c F330     		adds	r0, r0, #243
 1410 056e FFF7FEFF 		bl	strcpy
 1411              	.LVL232:
 1412              	.L41:
 435:Api\core\src/vl53l0x_api_core.c **** 
 436:Api\core\src/vl53l0x_api_core.c **** 		}
 437:Api\core\src/vl53l0x_api_core.c **** 
 438:Api\core\src/vl53l0x_api_core.c **** 		if (((option & 4) == 4) &&
 1413              		.loc 1 438 0
 1414 0572 6B07     		lsls	r3, r5, #29
 1415 0574 1CD5     		bpl	.L42
 1416              		.loc 1 438 0 is_stmt 0 discriminator 1
ARM GAS  C:\Users\Rajesh\AppData\Local\Temp\ccMJoliC.s 			page 34


 1417 0576 4346     		mov	r3, r8
 1418 0578 5B07     		lsls	r3, r3, #29
 1419 057a 19D4     		bmi	.L42
 439:Api\core\src/vl53l0x_api_core.c **** 			((ReadDataFromDeviceDone & 4) == 0)) {
 440:Api\core\src/vl53l0x_api_core.c **** 			VL53L0X_SETDEVICESPECIFICPARAMETER(Dev,
 1420              		.loc 1 440 0 is_stmt 1
 1421 057c 8C23     		movs	r3, #140
 1422 057e 5B00     		lsls	r3, r3, #1
 1423 0580 0A9A     		ldr	r2, [sp, #40]
 1424 0582 E250     		str	r2, [r4, r3]
 441:Api\core\src/vl53l0x_api_core.c **** 						PartUIDUpper, PartUIDUpper);
 442:Api\core\src/vl53l0x_api_core.c **** 
 443:Api\core\src/vl53l0x_api_core.c **** 			VL53L0X_SETDEVICESPECIFICPARAMETER(Dev,
 1425              		.loc 1 443 0
 1426 0584 0433     		adds	r3, r3, #4
 1427 0586 099A     		ldr	r2, [sp, #36]
 1428 0588 E250     		str	r2, [r4, r3]
 444:Api\core\src/vl53l0x_api_core.c **** 						PartUIDLower, PartUIDLower);
 445:Api\core\src/vl53l0x_api_core.c **** 
 446:Api\core\src/vl53l0x_api_core.c **** 			SignalRateMeasFixed400mmFix =
 1429              		.loc 1 446 0
 1430 058a 019B     		ldr	r3, [sp, #4]
 1431 058c 5B02     		lsls	r3, r3, #9
 1432              	.LVL233:
 447:Api\core\src/vl53l0x_api_core.c **** 				VL53L0X_FIXPOINT97TOFIXPOINT1616(
 448:Api\core\src/vl53l0x_api_core.c **** 					SignalRateMeasFixed1104_400_mm);
 449:Api\core\src/vl53l0x_api_core.c **** 
 450:Api\core\src/vl53l0x_api_core.c **** 			VL53L0X_SETDEVICESPECIFICPARAMETER(Dev,
 1433              		.loc 1 450 0
 1434 058e 9022     		movs	r2, #144
 1435 0590 5200     		lsls	r2, r2, #1
 1436 0592 A350     		str	r3, [r4, r2]
 451:Api\core\src/vl53l0x_api_core.c **** 				SignalRateMeasFixed400mm,
 452:Api\core\src/vl53l0x_api_core.c **** 				SignalRateMeasFixed400mmFix);
 453:Api\core\src/vl53l0x_api_core.c **** 
 454:Api\core\src/vl53l0x_api_core.c **** 			OffsetMicroMeters = 0;
 455:Api\core\src/vl53l0x_api_core.c **** 			if (DistMeasFixed1104_400_mm != 0) {
 1437              		.loc 1 455 0
 1438 0594 002F     		cmp	r7, #0
 1439 0596 09D0     		beq	.L49
 456:Api\core\src/vl53l0x_api_core.c **** 					OffsetFixed1104_mm =
 1440              		.loc 1 456 0
 1441 0598 0C4B     		ldr	r3, .L50
 1442              	.LVL234:
 1443 059a 9C46     		mov	ip, r3
 1444 059c 6744     		add	r7, r7, ip
 1445              	.LVL235:
 457:Api\core\src/vl53l0x_api_core.c **** 						DistMeasFixed1104_400_mm -
 458:Api\core\src/vl53l0x_api_core.c **** 						DistMeasTgtFixed1104_mm;
 459:Api\core\src/vl53l0x_api_core.c **** 					OffsetMicroMeters = (OffsetFixed1104_mm
 460:Api\core\src/vl53l0x_api_core.c **** 						* 1000) >> 4;
 1446              		.loc 1 460 0
 1447 059e FA23     		movs	r3, #250
 1448 05a0 9B00     		lsls	r3, r3, #2
 1449 05a2 5F43     		muls	r7, r3
 1450              	.LVL236:
 1451 05a4 3F09     		lsrs	r7, r7, #4
ARM GAS  C:\Users\Rajesh\AppData\Local\Temp\ccMJoliC.s 			page 35


 1452              	.LVL237:
 461:Api\core\src/vl53l0x_api_core.c **** 					OffsetMicroMeters *= -1;
 1453              		.loc 1 461 0
 1454 05a6 7B42     		rsbs	r3, r7, #0
 1455 05a8 1BB2     		sxth	r3, r3
 1456              	.LVL238:
 1457 05aa 00E0     		b	.L43
 1458              	.LVL239:
 1459              	.L49:
 454:Api\core\src/vl53l0x_api_core.c **** 			if (DistMeasFixed1104_400_mm != 0) {
 1460              		.loc 1 454 0
 1461 05ac 0023     		movs	r3, #0
 1462              	.LVL240:
 1463              	.L43:
 462:Api\core\src/vl53l0x_api_core.c **** 			}
 463:Api\core\src/vl53l0x_api_core.c **** 
 464:Api\core\src/vl53l0x_api_core.c **** 			PALDevDataSet(Dev,
 1464              		.loc 1 464 0
 1465 05ae E360     		str	r3, [r4, #12]
 1466              	.LVL241:
 1467              	.L42:
 465:Api\core\src/vl53l0x_api_core.c **** 				Part2PartOffsetAdjustmentNVMMicroMeter,
 466:Api\core\src/vl53l0x_api_core.c **** 				OffsetMicroMeters);
 467:Api\core\src/vl53l0x_api_core.c **** 		}
 468:Api\core\src/vl53l0x_api_core.c **** 		byte = (uint8_t)(ReadDataFromDeviceDone|option);
 1468              		.loc 1 468 0
 1469 05b0 4346     		mov	r3, r8
 1470 05b2 2B43     		orrs	r3, r5
 1471 05b4 1D00     		movs	r5, r3
 1472              	.LVL242:
 469:Api\core\src/vl53l0x_api_core.c **** 		VL53L0X_SETDEVICESPECIFICPARAMETER(Dev, ReadDataFromDeviceDone,
 1473              		.loc 1 469 0
 1474 05b6 F023     		movs	r3, #240
 1475 05b8 E554     		strb	r5, [r4, r3]
 1476              	.LVL243:
 1477              	.L37:
 470:Api\core\src/vl53l0x_api_core.c **** 				byte);
 471:Api\core\src/vl53l0x_api_core.c **** 	}
 472:Api\core\src/vl53l0x_api_core.c **** 
 473:Api\core\src/vl53l0x_api_core.c **** 	LOG_FUNCTION_END(Status);
 474:Api\core\src/vl53l0x_api_core.c **** 	return Status;
 475:Api\core\src/vl53l0x_api_core.c **** }
 1478              		.loc 1 475 0
 1479 05ba 3000     		movs	r0, r6
 1480 05bc 0FB0     		add	sp, sp, #60
 1481              	.LVL244:
 1482              		@ sp needed
 1483              	.LVL245:
 1484              	.LVL246:
 1485              	.LVL247:
 1486              	.LVL248:
 1487 05be 3CBC     		pop	{r2, r3, r4, r5}
 1488 05c0 9046     		mov	r8, r2
 1489 05c2 9946     		mov	r9, r3
 1490 05c4 A246     		mov	r10, r4
 1491 05c6 AB46     		mov	fp, r5
 1492 05c8 F0BD     		pop	{r4, r5, r6, r7, pc}
ARM GAS  C:\Users\Rajesh\AppData\Local\Temp\ccMJoliC.s 			page 36


 1493              	.L51:
 1494 05ca C046     		.align	2
 1495              	.L50:
 1496 05cc 00E7FFFF 		.word	-6400
 1497              		.cfi_endproc
 1498              	.LFE8:
 1499              		.size	VL53L0X_get_info_from_device, .-VL53L0X_get_info_from_device
 1500              		.section	.text.VL53L0X_calc_macro_period_ps,"ax",%progbits
 1501              		.align	2
 1502              		.global	VL53L0X_calc_macro_period_ps
 1503              		.code	16
 1504              		.thumb_func
 1505              		.type	VL53L0X_calc_macro_period_ps, %function
 1506              	VL53L0X_calc_macro_period_ps:
 1507              	.LFB9:
 476:Api\core\src/vl53l0x_api_core.c **** 
 477:Api\core\src/vl53l0x_api_core.c **** 
 478:Api\core\src/vl53l0x_api_core.c **** uint32_t VL53L0X_calc_macro_period_ps(VL53L0X_DEV Dev, uint8_t vcsel_period_pclks)
 479:Api\core\src/vl53l0x_api_core.c **** {
 1508              		.loc 1 479 0
 1509              		.cfi_startproc
 1510              		@ args = 0, pretend = 0, frame = 0
 1511              		@ frame_needed = 0, uses_anonymous_args = 0
 1512              		@ link register save eliminated.
 1513              	.LVL249:
 480:Api\core\src/vl53l0x_api_core.c **** 	uint64_t PLL_period_ps;
 481:Api\core\src/vl53l0x_api_core.c **** 	uint32_t macro_period_vclks;
 482:Api\core\src/vl53l0x_api_core.c **** 	uint32_t macro_period_ps;
 483:Api\core\src/vl53l0x_api_core.c **** 
 484:Api\core\src/vl53l0x_api_core.c **** 	LOG_FUNCTION_START("");
 485:Api\core\src/vl53l0x_api_core.c **** 
 486:Api\core\src/vl53l0x_api_core.c **** 	/* The above calculation will produce rounding errors,
 487:Api\core\src/vl53l0x_api_core.c **** 	   therefore set fixed value
 488:Api\core\src/vl53l0x_api_core.c **** 	*/
 489:Api\core\src/vl53l0x_api_core.c **** 	PLL_period_ps = 1655;
 490:Api\core\src/vl53l0x_api_core.c **** 
 491:Api\core\src/vl53l0x_api_core.c **** 	macro_period_vclks = 2304;
 492:Api\core\src/vl53l0x_api_core.c **** 	macro_period_ps = (uint32_t)(macro_period_vclks
 493:Api\core\src/vl53l0x_api_core.c **** 			* vcsel_period_pclks * PLL_period_ps);
 1514              		.loc 1 493 0
 1515 0000 CB00     		lsls	r3, r1, #3
 1516 0002 5918     		adds	r1, r3, r1
 1517              	.LVL250:
 1518 0004 0802     		lsls	r0, r1, #8
 1519              	.LVL251:
 492:Api\core\src/vl53l0x_api_core.c **** 			* vcsel_period_pclks * PLL_period_ps);
 1520              		.loc 1 492 0
 1521 0006 014B     		ldr	r3, .L53
 1522 0008 5843     		muls	r0, r3
 1523              	.LVL252:
 494:Api\core\src/vl53l0x_api_core.c **** 
 495:Api\core\src/vl53l0x_api_core.c **** 	LOG_FUNCTION_END("");
 496:Api\core\src/vl53l0x_api_core.c **** 	return macro_period_ps;
 497:Api\core\src/vl53l0x_api_core.c **** }
 1524              		.loc 1 497 0
 1525              		@ sp needed
 1526 000a 7047     		bx	lr
ARM GAS  C:\Users\Rajesh\AppData\Local\Temp\ccMJoliC.s 			page 37


 1527              	.L54:
 1528              		.align	2
 1529              	.L53:
 1530 000c 77060000 		.word	1655
 1531              		.cfi_endproc
 1532              	.LFE9:
 1533              		.size	VL53L0X_calc_macro_period_ps, .-VL53L0X_calc_macro_period_ps
 1534              		.section	.text.VL53L0X_encode_timeout,"ax",%progbits
 1535              		.align	2
 1536              		.global	VL53L0X_encode_timeout
 1537              		.code	16
 1538              		.thumb_func
 1539              		.type	VL53L0X_encode_timeout, %function
 1540              	VL53L0X_encode_timeout:
 1541              	.LFB10:
 498:Api\core\src/vl53l0x_api_core.c **** 
 499:Api\core\src/vl53l0x_api_core.c **** uint16_t VL53L0X_encode_timeout(uint32_t timeout_macro_clks)
 500:Api\core\src/vl53l0x_api_core.c **** {
 1542              		.loc 1 500 0
 1543              		.cfi_startproc
 1544              		@ args = 0, pretend = 0, frame = 0
 1545              		@ frame_needed = 0, uses_anonymous_args = 0
 1546              		@ link register save eliminated.
 1547              	.LVL253:
 501:Api\core\src/vl53l0x_api_core.c **** 	/*!
 502:Api\core\src/vl53l0x_api_core.c **** 	 * Encode timeout in macro periods in (LSByte * 2^MSByte) + 1 format
 503:Api\core\src/vl53l0x_api_core.c **** 	 */
 504:Api\core\src/vl53l0x_api_core.c **** 
 505:Api\core\src/vl53l0x_api_core.c **** 	uint16_t encoded_timeout = 0;
 506:Api\core\src/vl53l0x_api_core.c **** 	uint32_t ls_byte = 0;
 507:Api\core\src/vl53l0x_api_core.c **** 	uint16_t ms_byte = 0;
 508:Api\core\src/vl53l0x_api_core.c **** 
 509:Api\core\src/vl53l0x_api_core.c **** 	if (timeout_macro_clks > 0) {
 1548              		.loc 1 509 0
 1549 0000 0028     		cmp	r0, #0
 1550 0002 10D0     		beq	.L59
 510:Api\core\src/vl53l0x_api_core.c **** 		ls_byte = timeout_macro_clks - 1;
 1551              		.loc 1 510 0
 1552 0004 0138     		subs	r0, r0, #1
 1553              	.LVL254:
 507:Api\core\src/vl53l0x_api_core.c **** 
 1554              		.loc 1 507 0
 1555 0006 0023     		movs	r3, #0
 511:Api\core\src/vl53l0x_api_core.c **** 
 512:Api\core\src/vl53l0x_api_core.c **** 		while ((ls_byte & 0xFFFFFF00) > 0) {
 1556              		.loc 1 512 0
 1557 0008 02E0     		b	.L57
 1558              	.LVL255:
 1559              	.L58:
 513:Api\core\src/vl53l0x_api_core.c **** 			ls_byte = ls_byte >> 1;
 1560              		.loc 1 513 0
 1561 000a 4008     		lsrs	r0, r0, #1
 1562              	.LVL256:
 514:Api\core\src/vl53l0x_api_core.c **** 			ms_byte++;
 1563              		.loc 1 514 0
 1564 000c 0133     		adds	r3, r3, #1
 1565              	.LVL257:
ARM GAS  C:\Users\Rajesh\AppData\Local\Temp\ccMJoliC.s 			page 38


 1566 000e 9BB2     		uxth	r3, r3
 1567              	.LVL258:
 1568              	.L57:
 512:Api\core\src/vl53l0x_api_core.c **** 			ls_byte = ls_byte >> 1;
 1569              		.loc 1 512 0
 1570 0010 FF22     		movs	r2, #255
 1571 0012 0100     		movs	r1, r0
 1572 0014 9143     		bics	r1, r2
 1573 0016 0A1E     		subs	r2, r1, #0
 1574 0018 F7D1     		bne	.L58
 515:Api\core\src/vl53l0x_api_core.c **** 		}
 516:Api\core\src/vl53l0x_api_core.c **** 
 517:Api\core\src/vl53l0x_api_core.c **** 		encoded_timeout = (ms_byte << 8)
 1575              		.loc 1 517 0
 1576 001a 1B02     		lsls	r3, r3, #8
 1577              	.LVL259:
 1578 001c FF32     		adds	r2, r2, #255
 1579 001e 1040     		ands	r0, r2
 1580              	.LVL260:
 1581 0020 1818     		adds	r0, r3, r0
 1582 0022 80B2     		uxth	r0, r0
 1583              	.LVL261:
 1584 0024 00E0     		b	.L56
 1585              	.LVL262:
 1586              	.L59:
 505:Api\core\src/vl53l0x_api_core.c **** 	uint32_t ls_byte = 0;
 1587              		.loc 1 505 0
 1588 0026 0020     		movs	r0, #0
 1589              	.LVL263:
 1590              	.L56:
 518:Api\core\src/vl53l0x_api_core.c **** 				+ (uint16_t) (ls_byte & 0x000000FF);
 519:Api\core\src/vl53l0x_api_core.c **** 	}
 520:Api\core\src/vl53l0x_api_core.c **** 
 521:Api\core\src/vl53l0x_api_core.c **** 	return encoded_timeout;
 522:Api\core\src/vl53l0x_api_core.c **** 
 523:Api\core\src/vl53l0x_api_core.c **** }
 1591              		.loc 1 523 0
 1592              		@ sp needed
 1593 0028 7047     		bx	lr
 1594              		.cfi_endproc
 1595              	.LFE10:
 1596              		.size	VL53L0X_encode_timeout, .-VL53L0X_encode_timeout
 1597 002a C046     		.section	.text.VL53L0X_decode_timeout,"ax",%progbits
 1598              		.align	2
 1599              		.global	VL53L0X_decode_timeout
 1600              		.code	16
 1601              		.thumb_func
 1602              		.type	VL53L0X_decode_timeout, %function
 1603              	VL53L0X_decode_timeout:
 1604              	.LFB11:
 524:Api\core\src/vl53l0x_api_core.c **** 
 525:Api\core\src/vl53l0x_api_core.c **** uint32_t VL53L0X_decode_timeout(uint16_t encoded_timeout)
 526:Api\core\src/vl53l0x_api_core.c **** {
 1605              		.loc 1 526 0
 1606              		.cfi_startproc
 1607              		@ args = 0, pretend = 0, frame = 0
 1608              		@ frame_needed = 0, uses_anonymous_args = 0
ARM GAS  C:\Users\Rajesh\AppData\Local\Temp\ccMJoliC.s 			page 39


 1609              		@ link register save eliminated.
 1610              	.LVL264:
 1611 0000 0300     		movs	r3, r0
 1612              	.LVL265:
 527:Api\core\src/vl53l0x_api_core.c **** 	/*!
 528:Api\core\src/vl53l0x_api_core.c **** 	 * Decode 16-bit timeout register value - format (LSByte * 2^MSByte) + 1
 529:Api\core\src/vl53l0x_api_core.c **** 	 */
 530:Api\core\src/vl53l0x_api_core.c **** 
 531:Api\core\src/vl53l0x_api_core.c **** 	uint32_t timeout_macro_clks = 0;
 532:Api\core\src/vl53l0x_api_core.c **** 
 533:Api\core\src/vl53l0x_api_core.c **** 	timeout_macro_clks = ((uint32_t) (encoded_timeout & 0x00FF)
 1613              		.loc 1 533 0
 1614 0002 FF20     		movs	r0, #255
 1615              	.LVL266:
 1616 0004 1840     		ands	r0, r3
 534:Api\core\src/vl53l0x_api_core.c **** 			<< (uint32_t) ((encoded_timeout & 0xFF00) >> 8)) + 1;
 1617              		.loc 1 534 0
 1618 0006 1B0A     		lsrs	r3, r3, #8
 1619 0008 9840     		lsls	r0, r0, r3
 533:Api\core\src/vl53l0x_api_core.c **** 			<< (uint32_t) ((encoded_timeout & 0xFF00) >> 8)) + 1;
 1620              		.loc 1 533 0
 1621 000a 0130     		adds	r0, r0, #1
 1622              	.LVL267:
 535:Api\core\src/vl53l0x_api_core.c **** 
 536:Api\core\src/vl53l0x_api_core.c **** 	return timeout_macro_clks;
 537:Api\core\src/vl53l0x_api_core.c **** }
 1623              		.loc 1 537 0
 1624              		@ sp needed
 1625 000c 7047     		bx	lr
 1626              		.cfi_endproc
 1627              	.LFE11:
 1628              		.size	VL53L0X_decode_timeout, .-VL53L0X_decode_timeout
 1629              		.global	__aeabi_uidiv
 1630 000e C046     		.section	.text.VL53L0X_calc_timeout_mclks,"ax",%progbits
 1631              		.align	2
 1632              		.global	VL53L0X_calc_timeout_mclks
 1633              		.code	16
 1634              		.thumb_func
 1635              		.type	VL53L0X_calc_timeout_mclks, %function
 1636              	VL53L0X_calc_timeout_mclks:
 1637              	.LFB12:
 538:Api\core\src/vl53l0x_api_core.c **** 
 539:Api\core\src/vl53l0x_api_core.c **** 
 540:Api\core\src/vl53l0x_api_core.c **** /* To convert ms into register value */
 541:Api\core\src/vl53l0x_api_core.c **** uint32_t VL53L0X_calc_timeout_mclks(VL53L0X_DEV Dev,
 542:Api\core\src/vl53l0x_api_core.c **** 		uint32_t timeout_period_us,
 543:Api\core\src/vl53l0x_api_core.c **** 		uint8_t vcsel_period_pclks)
 544:Api\core\src/vl53l0x_api_core.c **** {
 1638              		.loc 1 544 0
 1639              		.cfi_startproc
 1640              		@ args = 0, pretend = 0, frame = 0
 1641              		@ frame_needed = 0, uses_anonymous_args = 0
 1642              	.LVL268:
 1643 0000 70B5     		push	{r4, r5, r6, lr}
 1644              		.cfi_def_cfa_offset 16
 1645              		.cfi_offset 4, -16
 1646              		.cfi_offset 5, -12
ARM GAS  C:\Users\Rajesh\AppData\Local\Temp\ccMJoliC.s 			page 40


 1647              		.cfi_offset 6, -8
 1648              		.cfi_offset 14, -4
 1649 0002 0E00     		movs	r6, r1
 1650              	.LVL269:
 545:Api\core\src/vl53l0x_api_core.c **** 	uint32_t macro_period_ps;
 546:Api\core\src/vl53l0x_api_core.c **** 	uint32_t macro_period_ns;
 547:Api\core\src/vl53l0x_api_core.c **** 	uint32_t timeout_period_mclks = 0;
 548:Api\core\src/vl53l0x_api_core.c **** 
 549:Api\core\src/vl53l0x_api_core.c **** 	macro_period_ps = VL53L0X_calc_macro_period_ps(Dev, vcsel_period_pclks);
 1651              		.loc 1 549 0
 1652 0004 1100     		movs	r1, r2
 1653              	.LVL270:
 1654 0006 FFF7FEFF 		bl	VL53L0X_calc_macro_period_ps
 1655              	.LVL271:
 550:Api\core\src/vl53l0x_api_core.c **** 	macro_period_ns = (macro_period_ps + 500) / 1000;
 1656              		.loc 1 550 0
 1657 000a F530     		adds	r0, r0, #245
 1658              	.LVL272:
 1659 000c FF30     		adds	r0, r0, #255
 1660              	.LVL273:
 1661 000e 0400     		movs	r4, r0
 1662 0010 FA21     		movs	r1, #250
 1663 0012 8900     		lsls	r1, r1, #2
 1664 0014 FFF7FEFF 		bl	__aeabi_uidiv
 1665              	.LVL274:
 1666 0018 0500     		movs	r5, r0
 1667              	.LVL275:
 551:Api\core\src/vl53l0x_api_core.c **** 
 552:Api\core\src/vl53l0x_api_core.c **** 	timeout_period_mclks =
 553:Api\core\src/vl53l0x_api_core.c **** 		(uint32_t) (((timeout_period_us * 1000)
 1668              		.loc 1 553 0
 1669 001a FA20     		movs	r0, #250
 1670              	.LVL276:
 1671 001c 8000     		lsls	r0, r0, #2
 1672 001e 4643     		muls	r6, r0
 1673              	.LVL277:
 554:Api\core\src/vl53l0x_api_core.c **** 		+ (macro_period_ns / 2)) / macro_period_ns);
 1674              		.loc 1 554 0
 1675 0020 FA21     		movs	r1, #250
 1676 0022 C900     		lsls	r1, r1, #3
 1677 0024 2000     		movs	r0, r4
 1678 0026 FFF7FEFF 		bl	__aeabi_uidiv
 1679              	.LVL278:
 1680 002a 3018     		adds	r0, r6, r0
 552:Api\core\src/vl53l0x_api_core.c **** 		(uint32_t) (((timeout_period_us * 1000)
 1681              		.loc 1 552 0
 1682 002c 2900     		movs	r1, r5
 1683 002e FFF7FEFF 		bl	__aeabi_uidiv
 1684              	.LVL279:
 555:Api\core\src/vl53l0x_api_core.c **** 
 556:Api\core\src/vl53l0x_api_core.c ****     return timeout_period_mclks;
 557:Api\core\src/vl53l0x_api_core.c **** }
 1685              		.loc 1 557 0
 1686              		@ sp needed
 1687              	.LVL280:
 1688              	.LVL281:
 1689 0032 70BD     		pop	{r4, r5, r6, pc}
ARM GAS  C:\Users\Rajesh\AppData\Local\Temp\ccMJoliC.s 			page 41


 1690              		.cfi_endproc
 1691              	.LFE12:
 1692              		.size	VL53L0X_calc_timeout_mclks, .-VL53L0X_calc_timeout_mclks
 1693              		.section	.text.VL53L0X_calc_timeout_us,"ax",%progbits
 1694              		.align	2
 1695              		.global	VL53L0X_calc_timeout_us
 1696              		.code	16
 1697              		.thumb_func
 1698              		.type	VL53L0X_calc_timeout_us, %function
 1699              	VL53L0X_calc_timeout_us:
 1700              	.LFB13:
 558:Api\core\src/vl53l0x_api_core.c **** 
 559:Api\core\src/vl53l0x_api_core.c **** /* To convert register value into us */
 560:Api\core\src/vl53l0x_api_core.c **** uint32_t VL53L0X_calc_timeout_us(VL53L0X_DEV Dev,
 561:Api\core\src/vl53l0x_api_core.c **** 		uint16_t timeout_period_mclks,
 562:Api\core\src/vl53l0x_api_core.c **** 		uint8_t vcsel_period_pclks)
 563:Api\core\src/vl53l0x_api_core.c **** {
 1701              		.loc 1 563 0
 1702              		.cfi_startproc
 1703              		@ args = 0, pretend = 0, frame = 0
 1704              		@ frame_needed = 0, uses_anonymous_args = 0
 1705              	.LVL282:
 1706 0000 10B5     		push	{r4, lr}
 1707              		.cfi_def_cfa_offset 8
 1708              		.cfi_offset 4, -8
 1709              		.cfi_offset 14, -4
 1710 0002 0C00     		movs	r4, r1
 1711              	.LVL283:
 564:Api\core\src/vl53l0x_api_core.c **** 	uint32_t macro_period_ps;
 565:Api\core\src/vl53l0x_api_core.c **** 	uint32_t macro_period_ns;
 566:Api\core\src/vl53l0x_api_core.c **** 	uint32_t actual_timeout_period_us = 0;
 567:Api\core\src/vl53l0x_api_core.c **** 
 568:Api\core\src/vl53l0x_api_core.c **** 	macro_period_ps = VL53L0X_calc_macro_period_ps(Dev, vcsel_period_pclks);
 1712              		.loc 1 568 0
 1713 0004 1100     		movs	r1, r2
 1714              	.LVL284:
 1715 0006 FFF7FEFF 		bl	VL53L0X_calc_macro_period_ps
 1716              	.LVL285:
 569:Api\core\src/vl53l0x_api_core.c **** 	macro_period_ns = (macro_period_ps + 500) / 1000;
 1717              		.loc 1 569 0
 1718 000a F530     		adds	r0, r0, #245
 1719              	.LVL286:
 1720 000c FF30     		adds	r0, r0, #255
 1721              	.LVL287:
 1722 000e FA21     		movs	r1, #250
 1723 0010 8900     		lsls	r1, r1, #2
 1724 0012 FFF7FEFF 		bl	__aeabi_uidiv
 1725              	.LVL288:
 570:Api\core\src/vl53l0x_api_core.c **** 
 571:Api\core\src/vl53l0x_api_core.c **** 	actual_timeout_period_us =
 572:Api\core\src/vl53l0x_api_core.c **** 		((timeout_period_mclks * macro_period_ns) + 500) / 1000;
 1726              		.loc 1 572 0
 1727 0016 6043     		muls	r0, r4
 1728              	.LVL289:
 1729 0018 F530     		adds	r0, r0, #245
 1730 001a FF30     		adds	r0, r0, #255
 571:Api\core\src/vl53l0x_api_core.c **** 		((timeout_period_mclks * macro_period_ns) + 500) / 1000;
ARM GAS  C:\Users\Rajesh\AppData\Local\Temp\ccMJoliC.s 			page 42


 1731              		.loc 1 571 0
 1732 001c FA21     		movs	r1, #250
 1733 001e 8900     		lsls	r1, r1, #2
 1734 0020 FFF7FEFF 		bl	__aeabi_uidiv
 1735              	.LVL290:
 573:Api\core\src/vl53l0x_api_core.c **** 
 574:Api\core\src/vl53l0x_api_core.c **** 	return actual_timeout_period_us;
 575:Api\core\src/vl53l0x_api_core.c **** }
 1736              		.loc 1 575 0
 1737              		@ sp needed
 1738 0024 10BD     		pop	{r4, pc}
 1739              		.cfi_endproc
 1740              	.LFE13:
 1741              		.size	VL53L0X_calc_timeout_us, .-VL53L0X_calc_timeout_us
 1742 0026 C046     		.section	.text.get_sequence_step_timeout,"ax",%progbits
 1743              		.align	2
 1744              		.global	get_sequence_step_timeout
 1745              		.code	16
 1746              		.thumb_func
 1747              		.type	get_sequence_step_timeout, %function
 1748              	get_sequence_step_timeout:
 1749              	.LFB14:
 576:Api\core\src/vl53l0x_api_core.c **** 
 577:Api\core\src/vl53l0x_api_core.c **** 
 578:Api\core\src/vl53l0x_api_core.c **** VL53L0X_Error get_sequence_step_timeout(VL53L0X_DEV Dev,
 579:Api\core\src/vl53l0x_api_core.c **** 				VL53L0X_SequenceStepId SequenceStepId,
 580:Api\core\src/vl53l0x_api_core.c **** 				uint32_t *pTimeOutMicroSecs)
 581:Api\core\src/vl53l0x_api_core.c **** {
 1750              		.loc 1 581 0
 1751              		.cfi_startproc
 1752              		@ args = 0, pretend = 0, frame = 16
 1753              		@ frame_needed = 0, uses_anonymous_args = 0
 1754              	.LVL291:
 1755 0000 F0B5     		push	{r4, r5, r6, r7, lr}
 1756              		.cfi_def_cfa_offset 20
 1757              		.cfi_offset 4, -20
 1758              		.cfi_offset 5, -16
 1759              		.cfi_offset 6, -12
 1760              		.cfi_offset 7, -8
 1761              		.cfi_offset 14, -4
 1762 0002 4746     		mov	r7, r8
 1763 0004 80B4     		push	{r7}
 1764              		.cfi_def_cfa_offset 24
 1765              		.cfi_offset 8, -24
 1766 0006 84B0     		sub	sp, sp, #16
 1767              		.cfi_def_cfa_offset 40
 1768 0008 0500     		movs	r5, r0
 1769 000a 1600     		movs	r6, r2
 1770              	.LVL292:
 582:Api\core\src/vl53l0x_api_core.c **** 	VL53L0X_Error Status = VL53L0X_ERROR_NONE;
 583:Api\core\src/vl53l0x_api_core.c **** 	uint8_t CurrentVCSELPulsePeriodPClk;
 584:Api\core\src/vl53l0x_api_core.c **** 	uint8_t EncodedTimeOutByte = 0;
 1771              		.loc 1 584 0
 1772 000c 0023     		movs	r3, #0
 1773 000e 0E22     		movs	r2, #14
 1774              	.LVL293:
 1775 0010 6A44     		add	r2, r2, sp
ARM GAS  C:\Users\Rajesh\AppData\Local\Temp\ccMJoliC.s 			page 43


 1776 0012 1370     		strb	r3, [r2]
 1777              	.LVL294:
 585:Api\core\src/vl53l0x_api_core.c **** 	uint32_t TimeoutMicroSeconds = 0;
 586:Api\core\src/vl53l0x_api_core.c **** 	uint16_t PreRangeEncodedTimeOut = 0;
 1778              		.loc 1 586 0
 1779 0014 03AA     		add	r2, sp, #12
 1780 0016 1380     		strh	r3, [r2]
 1781              	.LVL295:
 587:Api\core\src/vl53l0x_api_core.c **** 	uint16_t MsrcTimeOutMClks;
 588:Api\core\src/vl53l0x_api_core.c **** 	uint16_t PreRangeTimeOutMClks;
 589:Api\core\src/vl53l0x_api_core.c **** 	uint16_t FinalRangeTimeOutMClks = 0;
 590:Api\core\src/vl53l0x_api_core.c **** 	uint16_t FinalRangeEncodedTimeOut;
 591:Api\core\src/vl53l0x_api_core.c **** 	VL53L0X_SchedulerSequenceSteps_t SchedulerSequenceSteps;
 592:Api\core\src/vl53l0x_api_core.c **** 
 593:Api\core\src/vl53l0x_api_core.c **** 	if ((SequenceStepId == VL53L0X_SEQUENCESTEP_TCC)	 ||
 1782              		.loc 1 593 0
 1783 0018 0229     		cmp	r1, #2
 1784 001a 1AD8     		bhi	.L64
 594:Api\core\src/vl53l0x_api_core.c **** 		(SequenceStepId == VL53L0X_SEQUENCESTEP_DSS)	 ||
 595:Api\core\src/vl53l0x_api_core.c **** 		(SequenceStepId == VL53L0X_SEQUENCESTEP_MSRC)) {
 596:Api\core\src/vl53l0x_api_core.c **** 
 597:Api\core\src/vl53l0x_api_core.c **** 		Status = VL53L0X_GetVcselPulsePeriod(Dev,
 1785              		.loc 1 597 0
 1786 001c 0F22     		movs	r2, #15
 1787 001e 6A44     		add	r2, r2, sp
 1788 0020 0021     		movs	r1, #0
 1789              	.LVL296:
 1790 0022 FFF7FEFF 		bl	VL53L0X_GetVcselPulsePeriod
 1791              	.LVL297:
 1792 0026 041E     		subs	r4, r0, #0
 1793              	.LVL298:
 598:Api\core\src/vl53l0x_api_core.c **** 					VL53L0X_VCSEL_PERIOD_PRE_RANGE,
 599:Api\core\src/vl53l0x_api_core.c **** 					&CurrentVCSELPulsePeriodPClk);
 600:Api\core\src/vl53l0x_api_core.c **** 		if (Status == VL53L0X_ERROR_NONE) {
 1794              		.loc 1 600 0
 1795 0028 06D1     		bne	.L65
 601:Api\core\src/vl53l0x_api_core.c **** 			Status = VL53L0X_RdByte(Dev,
 1796              		.loc 1 601 0
 1797 002a 0E22     		movs	r2, #14
 1798 002c 6A44     		add	r2, r2, sp
 1799 002e 4621     		movs	r1, #70
 1800 0030 2800     		movs	r0, r5
 1801              	.LVL299:
 1802 0032 FFF7FEFF 		bl	VL53L0X_RdByte
 1803              	.LVL300:
 1804 0036 0400     		movs	r4, r0
 1805              	.LVL301:
 1806              	.L65:
 602:Api\core\src/vl53l0x_api_core.c **** 					VL53L0X_REG_MSRC_CONFIG_TIMEOUT_MACROP,
 603:Api\core\src/vl53l0x_api_core.c **** 					&EncodedTimeOutByte);
 604:Api\core\src/vl53l0x_api_core.c **** 		}
 605:Api\core\src/vl53l0x_api_core.c **** 		MsrcTimeOutMClks = VL53L0X_decode_timeout(EncodedTimeOutByte);
 1807              		.loc 1 605 0
 1808 0038 0E23     		movs	r3, #14
 1809 003a 6B44     		add	r3, r3, sp
 1810 003c 1878     		ldrb	r0, [r3]
 1811 003e FFF7FEFF 		bl	VL53L0X_decode_timeout
ARM GAS  C:\Users\Rajesh\AppData\Local\Temp\ccMJoliC.s 			page 44


 1812              	.LVL302:
 1813 0042 81B2     		uxth	r1, r0
 1814              	.LVL303:
 606:Api\core\src/vl53l0x_api_core.c **** 
 607:Api\core\src/vl53l0x_api_core.c **** 		TimeoutMicroSeconds = VL53L0X_calc_timeout_us(Dev,
 1815              		.loc 1 607 0
 1816 0044 0F23     		movs	r3, #15
 1817 0046 6B44     		add	r3, r3, sp
 1818 0048 1A78     		ldrb	r2, [r3]
 1819 004a 2800     		movs	r0, r5
 1820 004c FFF7FEFF 		bl	VL53L0X_calc_timeout_us
 1821              	.LVL304:
 1822 0050 6BE0     		b	.L66
 1823              	.LVL305:
 1824              	.L64:
 608:Api\core\src/vl53l0x_api_core.c **** 						MsrcTimeOutMClks,
 609:Api\core\src/vl53l0x_api_core.c **** 						CurrentVCSELPulsePeriodPClk);
 610:Api\core\src/vl53l0x_api_core.c **** 	} else if (SequenceStepId == VL53L0X_SEQUENCESTEP_PRE_RANGE) {
 1825              		.loc 1 610 0
 1826 0052 0329     		cmp	r1, #3
 1827 0054 20D1     		bne	.L67
 611:Api\core\src/vl53l0x_api_core.c **** 		/* Retrieve PRE-RANGE VCSEL Period */
 612:Api\core\src/vl53l0x_api_core.c **** 		Status = VL53L0X_GetVcselPulsePeriod(Dev,
 1828              		.loc 1 612 0
 1829 0056 0F22     		movs	r2, #15
 1830 0058 6A44     		add	r2, r2, sp
 1831 005a 0021     		movs	r1, #0
 1832              	.LVL306:
 1833 005c FFF7FEFF 		bl	VL53L0X_GetVcselPulsePeriod
 1834              	.LVL307:
 1835 0060 041E     		subs	r4, r0, #0
 1836              	.LVL308:
 613:Api\core\src/vl53l0x_api_core.c **** 						VL53L0X_VCSEL_PERIOD_PRE_RANGE,
 614:Api\core\src/vl53l0x_api_core.c **** 						&CurrentVCSELPulsePeriodPClk);
 615:Api\core\src/vl53l0x_api_core.c **** 
 616:Api\core\src/vl53l0x_api_core.c **** 		/* Retrieve PRE-RANGE Timeout in Macro periods (MCLKS) */
 617:Api\core\src/vl53l0x_api_core.c **** 		if (Status == VL53L0X_ERROR_NONE) {
 1837              		.loc 1 617 0
 1838 0062 5ED1     		bne	.L72
 618:Api\core\src/vl53l0x_api_core.c **** 
 619:Api\core\src/vl53l0x_api_core.c **** 			/* Retrieve PRE-RANGE VCSEL Period */
 620:Api\core\src/vl53l0x_api_core.c **** 			Status = VL53L0X_GetVcselPulsePeriod(Dev,
 1839              		.loc 1 620 0
 1840 0064 0F22     		movs	r2, #15
 1841 0066 6A44     		add	r2, r2, sp
 1842 0068 0021     		movs	r1, #0
 1843 006a 2800     		movs	r0, r5
 1844              	.LVL309:
 1845 006c FFF7FEFF 		bl	VL53L0X_GetVcselPulsePeriod
 1846              	.LVL310:
 1847 0070 041E     		subs	r4, r0, #0
 1848              	.LVL311:
 621:Api\core\src/vl53l0x_api_core.c **** 					VL53L0X_VCSEL_PERIOD_PRE_RANGE,
 622:Api\core\src/vl53l0x_api_core.c **** 					&CurrentVCSELPulsePeriodPClk);
 623:Api\core\src/vl53l0x_api_core.c **** 
 624:Api\core\src/vl53l0x_api_core.c **** 			if (Status == VL53L0X_ERROR_NONE) {
 1849              		.loc 1 624 0
ARM GAS  C:\Users\Rajesh\AppData\Local\Temp\ccMJoliC.s 			page 45


 1850 0072 05D1     		bne	.L68
 625:Api\core\src/vl53l0x_api_core.c **** 				Status = VL53L0X_RdWord(Dev,
 1851              		.loc 1 625 0
 1852 0074 03AA     		add	r2, sp, #12
 1853 0076 5121     		movs	r1, #81
 1854 0078 2800     		movs	r0, r5
 1855              	.LVL312:
 1856 007a FFF7FEFF 		bl	VL53L0X_RdWord
 1857              	.LVL313:
 1858 007e 0400     		movs	r4, r0
 1859              	.LVL314:
 1860              	.L68:
 626:Api\core\src/vl53l0x_api_core.c **** 				VL53L0X_REG_PRE_RANGE_CONFIG_TIMEOUT_MACROP_HI,
 627:Api\core\src/vl53l0x_api_core.c **** 				&PreRangeEncodedTimeOut);
 628:Api\core\src/vl53l0x_api_core.c **** 			}
 629:Api\core\src/vl53l0x_api_core.c **** 
 630:Api\core\src/vl53l0x_api_core.c **** 			PreRangeTimeOutMClks = VL53L0X_decode_timeout(
 1861              		.loc 1 630 0
 1862 0080 03AB     		add	r3, sp, #12
 1863 0082 1888     		ldrh	r0, [r3]
 1864 0084 FFF7FEFF 		bl	VL53L0X_decode_timeout
 1865              	.LVL315:
 1866 0088 81B2     		uxth	r1, r0
 1867              	.LVL316:
 631:Api\core\src/vl53l0x_api_core.c **** 					PreRangeEncodedTimeOut);
 632:Api\core\src/vl53l0x_api_core.c **** 
 633:Api\core\src/vl53l0x_api_core.c **** 			TimeoutMicroSeconds = VL53L0X_calc_timeout_us(Dev,
 1868              		.loc 1 633 0
 1869 008a 0F23     		movs	r3, #15
 1870 008c 6B44     		add	r3, r3, sp
 1871 008e 1A78     		ldrb	r2, [r3]
 1872 0090 2800     		movs	r0, r5
 1873 0092 FFF7FEFF 		bl	VL53L0X_calc_timeout_us
 1874              	.LVL317:
 1875 0096 48E0     		b	.L66
 1876              	.LVL318:
 1877              	.L67:
 634:Api\core\src/vl53l0x_api_core.c **** 					PreRangeTimeOutMClks,
 635:Api\core\src/vl53l0x_api_core.c **** 					CurrentVCSELPulsePeriodPClk);
 636:Api\core\src/vl53l0x_api_core.c **** 		}
 637:Api\core\src/vl53l0x_api_core.c **** 	} else if (SequenceStepId == VL53L0X_SEQUENCESTEP_FINAL_RANGE) {
 1878              		.loc 1 637 0
 1879 0098 0429     		cmp	r1, #4
 1880 009a 44D1     		bne	.L73
 638:Api\core\src/vl53l0x_api_core.c **** 
 639:Api\core\src/vl53l0x_api_core.c **** 		VL53L0X_GetSequenceStepEnables(Dev, &SchedulerSequenceSteps);
 1881              		.loc 1 639 0
 1882 009c 01AC     		add	r4, sp, #4
 1883 009e 2100     		movs	r1, r4
 1884              	.LVL319:
 1885 00a0 FFF7FEFF 		bl	VL53L0X_GetSequenceStepEnables
 1886              	.LVL320:
 640:Api\core\src/vl53l0x_api_core.c **** 		PreRangeTimeOutMClks = 0;
 641:Api\core\src/vl53l0x_api_core.c **** 
 642:Api\core\src/vl53l0x_api_core.c **** 		if (SchedulerSequenceSteps.PreRangeOn) {
 1887              		.loc 1 642 0
 1888 00a4 E378     		ldrb	r3, [r4, #3]
ARM GAS  C:\Users\Rajesh\AppData\Local\Temp\ccMJoliC.s 			page 46


 1889 00a6 002B     		cmp	r3, #0
 1890 00a8 13D0     		beq	.L74
 643:Api\core\src/vl53l0x_api_core.c **** 			/* Retrieve PRE-RANGE VCSEL Period */
 644:Api\core\src/vl53l0x_api_core.c **** 			Status = VL53L0X_GetVcselPulsePeriod(Dev,
 1891              		.loc 1 644 0
 1892 00aa 0F22     		movs	r2, #15
 1893 00ac 6A44     		add	r2, r2, sp
 1894 00ae 0021     		movs	r1, #0
 1895 00b0 2800     		movs	r0, r5
 1896 00b2 FFF7FEFF 		bl	VL53L0X_GetVcselPulsePeriod
 1897              	.LVL321:
 1898 00b6 041E     		subs	r4, r0, #0
 1899              	.LVL322:
 645:Api\core\src/vl53l0x_api_core.c **** 				VL53L0X_VCSEL_PERIOD_PRE_RANGE,
 646:Api\core\src/vl53l0x_api_core.c **** 				&CurrentVCSELPulsePeriodPClk);
 647:Api\core\src/vl53l0x_api_core.c **** 
 648:Api\core\src/vl53l0x_api_core.c **** 			/* Retrieve PRE-RANGE Timeout in Macro periods
 649:Api\core\src/vl53l0x_api_core.c **** 			 * (MCLKS) */
 650:Api\core\src/vl53l0x_api_core.c **** 			if (Status == VL53L0X_ERROR_NONE) {
 1900              		.loc 1 650 0
 1901 00b8 0ED1     		bne	.L75
 651:Api\core\src/vl53l0x_api_core.c **** 				Status = VL53L0X_RdWord(Dev,
 1902              		.loc 1 651 0
 1903 00ba 03AF     		add	r7, sp, #12
 1904 00bc 3A00     		movs	r2, r7
 1905 00be 5121     		movs	r1, #81
 1906 00c0 2800     		movs	r0, r5
 1907              	.LVL323:
 1908 00c2 FFF7FEFF 		bl	VL53L0X_RdWord
 1909              	.LVL324:
 1910 00c6 0400     		movs	r4, r0
 1911              	.LVL325:
 652:Api\core\src/vl53l0x_api_core.c **** 				VL53L0X_REG_PRE_RANGE_CONFIG_TIMEOUT_MACROP_HI,
 653:Api\core\src/vl53l0x_api_core.c **** 				&PreRangeEncodedTimeOut);
 654:Api\core\src/vl53l0x_api_core.c **** 				PreRangeTimeOutMClks = VL53L0X_decode_timeout(
 1912              		.loc 1 654 0
 1913 00c8 3888     		ldrh	r0, [r7]
 1914              	.LVL326:
 1915 00ca FFF7FEFF 		bl	VL53L0X_decode_timeout
 1916              	.LVL327:
 1917 00ce 87B2     		uxth	r7, r0
 1918              	.LVL328:
 1919 00d0 03E0     		b	.L69
 1920              	.LVL329:
 1921              	.L74:
 640:Api\core\src/vl53l0x_api_core.c **** 
 1922              		.loc 1 640 0
 1923 00d2 0027     		movs	r7, #0
 582:Api\core\src/vl53l0x_api_core.c **** 	uint8_t CurrentVCSELPulsePeriodPClk;
 1924              		.loc 1 582 0
 1925 00d4 0024     		movs	r4, #0
 1926 00d6 00E0     		b	.L69
 1927              	.LVL330:
 1928              	.L75:
 640:Api\core\src/vl53l0x_api_core.c **** 
 1929              		.loc 1 640 0
 1930 00d8 0027     		movs	r7, #0
ARM GAS  C:\Users\Rajesh\AppData\Local\Temp\ccMJoliC.s 			page 47


 1931              	.LVL331:
 1932              	.L69:
 655:Api\core\src/vl53l0x_api_core.c **** 						PreRangeEncodedTimeOut);
 656:Api\core\src/vl53l0x_api_core.c **** 			}
 657:Api\core\src/vl53l0x_api_core.c **** 		}
 658:Api\core\src/vl53l0x_api_core.c **** 
 659:Api\core\src/vl53l0x_api_core.c **** 		if (Status == VL53L0X_ERROR_NONE) {
 1933              		.loc 1 659 0
 1934 00da 002C     		cmp	r4, #0
 1935 00dc 06D1     		bne	.L70
 660:Api\core\src/vl53l0x_api_core.c **** 			/* Retrieve FINAL-RANGE VCSEL Period */
 661:Api\core\src/vl53l0x_api_core.c **** 			Status = VL53L0X_GetVcselPulsePeriod(Dev,
 1936              		.loc 1 661 0
 1937 00de 0F22     		movs	r2, #15
 1938 00e0 6A44     		add	r2, r2, sp
 1939 00e2 0121     		movs	r1, #1
 1940 00e4 2800     		movs	r0, r5
 1941 00e6 FFF7FEFF 		bl	VL53L0X_GetVcselPulsePeriod
 1942              	.LVL332:
 1943 00ea 0400     		movs	r4, r0
 1944              	.LVL333:
 1945              	.L70:
 662:Api\core\src/vl53l0x_api_core.c **** 					VL53L0X_VCSEL_PERIOD_FINAL_RANGE,
 663:Api\core\src/vl53l0x_api_core.c **** 					&CurrentVCSELPulsePeriodPClk);
 664:Api\core\src/vl53l0x_api_core.c **** 		}
 665:Api\core\src/vl53l0x_api_core.c **** 
 666:Api\core\src/vl53l0x_api_core.c **** 		/* Retrieve FINAL-RANGE Timeout in Macro periods (MCLKS) */
 667:Api\core\src/vl53l0x_api_core.c **** 		if (Status == VL53L0X_ERROR_NONE) {
 1946              		.loc 1 667 0
 1947 00ec 002C     		cmp	r4, #0
 1948 00ee 0ED1     		bne	.L76
 668:Api\core\src/vl53l0x_api_core.c **** 			Status = VL53L0X_RdWord(Dev,
 1949              		.loc 1 668 0
 1950 00f0 0A23     		movs	r3, #10
 1951 00f2 6B44     		add	r3, r3, sp
 1952 00f4 9846     		mov	r8, r3
 1953 00f6 1A00     		movs	r2, r3
 1954 00f8 7121     		movs	r1, #113
 1955 00fa 2800     		movs	r0, r5
 1956 00fc FFF7FEFF 		bl	VL53L0X_RdWord
 1957              	.LVL334:
 1958 0100 0400     		movs	r4, r0
 1959              	.LVL335:
 669:Api\core\src/vl53l0x_api_core.c **** 				VL53L0X_REG_FINAL_RANGE_CONFIG_TIMEOUT_MACROP_HI,
 670:Api\core\src/vl53l0x_api_core.c **** 				&FinalRangeEncodedTimeOut);
 671:Api\core\src/vl53l0x_api_core.c **** 			FinalRangeTimeOutMClks = VL53L0X_decode_timeout(
 1960              		.loc 1 671 0
 1961 0102 4346     		mov	r3, r8
 1962 0104 1888     		ldrh	r0, [r3]
 1963              	.LVL336:
 1964 0106 FFF7FEFF 		bl	VL53L0X_decode_timeout
 1965              	.LVL337:
 1966 010a 81B2     		uxth	r1, r0
 1967              	.LVL338:
 1968 010c 00E0     		b	.L71
 1969              	.LVL339:
 1970              	.L76:
ARM GAS  C:\Users\Rajesh\AppData\Local\Temp\ccMJoliC.s 			page 48


 589:Api\core\src/vl53l0x_api_core.c **** 	uint16_t FinalRangeEncodedTimeOut;
 1971              		.loc 1 589 0
 1972 010e 0021     		movs	r1, #0
 1973              	.LVL340:
 1974              	.L71:
 672:Api\core\src/vl53l0x_api_core.c **** 					FinalRangeEncodedTimeOut);
 673:Api\core\src/vl53l0x_api_core.c **** 		}
 674:Api\core\src/vl53l0x_api_core.c **** 
 675:Api\core\src/vl53l0x_api_core.c **** 		FinalRangeTimeOutMClks -= PreRangeTimeOutMClks;
 1975              		.loc 1 675 0
 1976 0110 C91B     		subs	r1, r1, r7
 1977              	.LVL341:
 1978 0112 89B2     		uxth	r1, r1
 1979              	.LVL342:
 676:Api\core\src/vl53l0x_api_core.c **** 		TimeoutMicroSeconds = VL53L0X_calc_timeout_us(Dev,
 1980              		.loc 1 676 0
 1981 0114 0F23     		movs	r3, #15
 1982 0116 6B44     		add	r3, r3, sp
 1983 0118 1A78     		ldrb	r2, [r3]
 1984 011a 2800     		movs	r0, r5
 1985 011c FFF7FEFF 		bl	VL53L0X_calc_timeout_us
 1986              	.LVL343:
 1987 0120 03E0     		b	.L66
 1988              	.LVL344:
 1989              	.L72:
 585:Api\core\src/vl53l0x_api_core.c **** 	uint16_t PreRangeEncodedTimeOut = 0;
 1990              		.loc 1 585 0
 1991 0122 0020     		movs	r0, #0
 1992              	.LVL345:
 1993 0124 01E0     		b	.L66
 1994              	.LVL346:
 1995              	.L73:
 1996 0126 0020     		movs	r0, #0
 1997              	.LVL347:
 582:Api\core\src/vl53l0x_api_core.c **** 	uint8_t CurrentVCSELPulsePeriodPClk;
 1998              		.loc 1 582 0
 1999 0128 0024     		movs	r4, #0
 2000              	.LVL348:
 2001              	.L66:
 677:Api\core\src/vl53l0x_api_core.c **** 						FinalRangeTimeOutMClks,
 678:Api\core\src/vl53l0x_api_core.c **** 						CurrentVCSELPulsePeriodPClk);
 679:Api\core\src/vl53l0x_api_core.c **** 	}
 680:Api\core\src/vl53l0x_api_core.c **** 
 681:Api\core\src/vl53l0x_api_core.c **** 	*pTimeOutMicroSecs = TimeoutMicroSeconds;
 2002              		.loc 1 681 0
 2003 012a 3060     		str	r0, [r6]
 682:Api\core\src/vl53l0x_api_core.c **** 
 683:Api\core\src/vl53l0x_api_core.c **** 	return Status;
 684:Api\core\src/vl53l0x_api_core.c **** }
 2004              		.loc 1 684 0
 2005 012c 2000     		movs	r0, r4
 2006              	.LVL349:
 2007 012e 04B0     		add	sp, sp, #16
 2008              		@ sp needed
 2009              	.LVL350:
 2010              	.LVL351:
 2011              	.LVL352:
ARM GAS  C:\Users\Rajesh\AppData\Local\Temp\ccMJoliC.s 			page 49


 2012 0130 04BC     		pop	{r2}
 2013 0132 9046     		mov	r8, r2
 2014 0134 F0BD     		pop	{r4, r5, r6, r7, pc}
 2015              		.cfi_endproc
 2016              	.LFE14:
 2017              		.size	get_sequence_step_timeout, .-get_sequence_step_timeout
 2018 0136 C046     		.section	.text.set_sequence_step_timeout,"ax",%progbits
 2019              		.align	2
 2020              		.global	set_sequence_step_timeout
 2021              		.code	16
 2022              		.thumb_func
 2023              		.type	set_sequence_step_timeout, %function
 2024              	set_sequence_step_timeout:
 2025              	.LFB15:
 685:Api\core\src/vl53l0x_api_core.c **** 
 686:Api\core\src/vl53l0x_api_core.c **** 
 687:Api\core\src/vl53l0x_api_core.c **** VL53L0X_Error set_sequence_step_timeout(VL53L0X_DEV Dev,
 688:Api\core\src/vl53l0x_api_core.c **** 					VL53L0X_SequenceStepId SequenceStepId,
 689:Api\core\src/vl53l0x_api_core.c **** 					uint32_t TimeOutMicroSecs)
 690:Api\core\src/vl53l0x_api_core.c **** {
 2026              		.loc 1 690 0
 2027              		.cfi_startproc
 2028              		@ args = 0, pretend = 0, frame = 16
 2029              		@ frame_needed = 0, uses_anonymous_args = 0
 2030              	.LVL353:
 2031 0000 F0B5     		push	{r4, r5, r6, r7, lr}
 2032              		.cfi_def_cfa_offset 20
 2033              		.cfi_offset 4, -20
 2034              		.cfi_offset 5, -16
 2035              		.cfi_offset 6, -12
 2036              		.cfi_offset 7, -8
 2037              		.cfi_offset 14, -4
 2038 0002 85B0     		sub	sp, sp, #20
 2039              		.cfi_def_cfa_offset 40
 2040 0004 0500     		movs	r5, r0
 2041 0006 1600     		movs	r6, r2
 2042              	.LVL354:
 691:Api\core\src/vl53l0x_api_core.c **** 	VL53L0X_Error Status = VL53L0X_ERROR_NONE;
 692:Api\core\src/vl53l0x_api_core.c **** 	uint8_t CurrentVCSELPulsePeriodPClk;
 693:Api\core\src/vl53l0x_api_core.c **** 	uint8_t MsrcEncodedTimeOut;
 694:Api\core\src/vl53l0x_api_core.c **** 	uint16_t PreRangeEncodedTimeOut;
 695:Api\core\src/vl53l0x_api_core.c **** 	uint16_t PreRangeTimeOutMClks;
 696:Api\core\src/vl53l0x_api_core.c **** 	uint16_t MsrcRangeTimeOutMClks;
 697:Api\core\src/vl53l0x_api_core.c **** 	uint32_t FinalRangeTimeOutMClks;
 698:Api\core\src/vl53l0x_api_core.c **** 	uint16_t FinalRangeEncodedTimeOut;
 699:Api\core\src/vl53l0x_api_core.c **** 	VL53L0X_SchedulerSequenceSteps_t SchedulerSequenceSteps;
 700:Api\core\src/vl53l0x_api_core.c **** 
 701:Api\core\src/vl53l0x_api_core.c **** 	if ((SequenceStepId == VL53L0X_SEQUENCESTEP_TCC)	 ||
 2043              		.loc 1 701 0
 2044 0008 0229     		cmp	r1, #2
 2045 000a 22D8     		bhi	.L78
 702:Api\core\src/vl53l0x_api_core.c **** 		(SequenceStepId == VL53L0X_SEQUENCESTEP_DSS)	 ||
 703:Api\core\src/vl53l0x_api_core.c **** 		(SequenceStepId == VL53L0X_SEQUENCESTEP_MSRC)) {
 704:Api\core\src/vl53l0x_api_core.c **** 
 705:Api\core\src/vl53l0x_api_core.c **** 		Status = VL53L0X_GetVcselPulsePeriod(Dev,
 2046              		.loc 1 705 0
 2047 000c 0F22     		movs	r2, #15
ARM GAS  C:\Users\Rajesh\AppData\Local\Temp\ccMJoliC.s 			page 50


 2048              	.LVL355:
 2049 000e 6A44     		add	r2, r2, sp
 2050 0010 0021     		movs	r1, #0
 2051              	.LVL356:
 2052 0012 FFF7FEFF 		bl	VL53L0X_GetVcselPulsePeriod
 2053              	.LVL357:
 2054 0016 041E     		subs	r4, r0, #0
 2055              	.LVL358:
 706:Api\core\src/vl53l0x_api_core.c **** 					VL53L0X_VCSEL_PERIOD_PRE_RANGE,
 707:Api\core\src/vl53l0x_api_core.c **** 					&CurrentVCSELPulsePeriodPClk);
 708:Api\core\src/vl53l0x_api_core.c **** 
 709:Api\core\src/vl53l0x_api_core.c **** 		if (Status == VL53L0X_ERROR_NONE) {
 2056              		.loc 1 709 0
 2057 0018 12D1     		bne	.L79
 710:Api\core\src/vl53l0x_api_core.c **** 			MsrcRangeTimeOutMClks = VL53L0X_calc_timeout_mclks(Dev,
 2058              		.loc 1 710 0
 2059 001a 0F23     		movs	r3, #15
 2060 001c 6B44     		add	r3, r3, sp
 2061 001e 1A78     		ldrb	r2, [r3]
 2062 0020 3100     		movs	r1, r6
 2063 0022 2800     		movs	r0, r5
 2064              	.LVL359:
 2065 0024 FFF7FEFF 		bl	VL53L0X_calc_timeout_mclks
 2066              	.LVL360:
 2067 0028 82B2     		uxth	r2, r0
 2068              	.LVL361:
 711:Api\core\src/vl53l0x_api_core.c **** 					TimeOutMicroSecs,
 712:Api\core\src/vl53l0x_api_core.c **** 					(uint8_t)CurrentVCSELPulsePeriodPClk);
 713:Api\core\src/vl53l0x_api_core.c **** 
 714:Api\core\src/vl53l0x_api_core.c **** 			if (MsrcRangeTimeOutMClks > 256)
 2069              		.loc 1 714 0
 2070 002a 8023     		movs	r3, #128
 2071 002c 5B00     		lsls	r3, r3, #1
 2072 002e 9A42     		cmp	r2, r3
 2073 0030 03D8     		bhi	.L87
 715:Api\core\src/vl53l0x_api_core.c **** 				MsrcEncodedTimeOut = 255;
 716:Api\core\src/vl53l0x_api_core.c **** 			else
 717:Api\core\src/vl53l0x_api_core.c **** 				MsrcEncodedTimeOut =
 718:Api\core\src/vl53l0x_api_core.c **** 					(uint8_t)MsrcRangeTimeOutMClks - 1;
 2074              		.loc 1 718 0
 2075 0032 C0B2     		uxtb	r0, r0
 717:Api\core\src/vl53l0x_api_core.c **** 					(uint8_t)MsrcRangeTimeOutMClks - 1;
 2076              		.loc 1 717 0
 2077 0034 0138     		subs	r0, r0, #1
 2078 0036 C7B2     		uxtb	r7, r0
 2079              	.LVL362:
 2080 0038 00E0     		b	.L80
 2081              	.LVL363:
 2082              	.L87:
 715:Api\core\src/vl53l0x_api_core.c **** 				MsrcEncodedTimeOut = 255;
 2083              		.loc 1 715 0
 2084 003a FF27     		movs	r7, #255
 2085              	.L80:
 2086              	.LVL364:
 719:Api\core\src/vl53l0x_api_core.c **** 
 720:Api\core\src/vl53l0x_api_core.c **** 			VL53L0X_SETDEVICESPECIFICPARAMETER(Dev,
 2087              		.loc 1 720 0
ARM GAS  C:\Users\Rajesh\AppData\Local\Temp\ccMJoliC.s 			page 51


 2088 003c D823     		movs	r3, #216
 2089 003e EF52     		strh	r7, [r5, r3]
 2090              	.LVL365:
 2091              	.L79:
 721:Api\core\src/vl53l0x_api_core.c **** 				LastEncodedTimeout,
 722:Api\core\src/vl53l0x_api_core.c **** 				MsrcEncodedTimeOut);
 723:Api\core\src/vl53l0x_api_core.c **** 		}
 724:Api\core\src/vl53l0x_api_core.c **** 
 725:Api\core\src/vl53l0x_api_core.c **** 		if (Status == VL53L0X_ERROR_NONE) {
 2092              		.loc 1 725 0
 2093 0040 002C     		cmp	r4, #0
 2094 0042 6ED1     		bne	.L81
 726:Api\core\src/vl53l0x_api_core.c **** 			Status = VL53L0X_WrByte(Dev,
 2095              		.loc 1 726 0
 2096 0044 3A00     		movs	r2, r7
 2097 0046 4621     		movs	r1, #70
 2098 0048 2800     		movs	r0, r5
 2099 004a FFF7FEFF 		bl	VL53L0X_WrByte
 2100              	.LVL366:
 2101 004e 0400     		movs	r4, r0
 2102              	.LVL367:
 2103 0050 67E0     		b	.L81
 2104              	.LVL368:
 2105              	.L78:
 727:Api\core\src/vl53l0x_api_core.c **** 				VL53L0X_REG_MSRC_CONFIG_TIMEOUT_MACROP,
 728:Api\core\src/vl53l0x_api_core.c **** 				MsrcEncodedTimeOut);
 729:Api\core\src/vl53l0x_api_core.c **** 		}
 730:Api\core\src/vl53l0x_api_core.c **** 	} else {
 731:Api\core\src/vl53l0x_api_core.c **** 
 732:Api\core\src/vl53l0x_api_core.c **** 		if (SequenceStepId == VL53L0X_SEQUENCESTEP_PRE_RANGE) {
 2106              		.loc 1 732 0
 2107 0052 0329     		cmp	r1, #3
 2108 0054 20D1     		bne	.L82
 733:Api\core\src/vl53l0x_api_core.c **** 
 734:Api\core\src/vl53l0x_api_core.c **** 			if (Status == VL53L0X_ERROR_NONE) {
 735:Api\core\src/vl53l0x_api_core.c **** 				Status = VL53L0X_GetVcselPulsePeriod(Dev,
 2109              		.loc 1 735 0
 2110 0056 0F27     		movs	r7, #15
 2111 0058 6F44     		add	r7, r7, sp
 2112 005a 3A00     		movs	r2, r7
 2113              	.LVL369:
 2114 005c 0021     		movs	r1, #0
 2115              	.LVL370:
 2116 005e FFF7FEFF 		bl	VL53L0X_GetVcselPulsePeriod
 2117              	.LVL371:
 2118 0062 0400     		movs	r4, r0
 2119              	.LVL372:
 736:Api\core\src/vl53l0x_api_core.c **** 						VL53L0X_VCSEL_PERIOD_PRE_RANGE,
 737:Api\core\src/vl53l0x_api_core.c **** 						&CurrentVCSELPulsePeriodPClk);
 738:Api\core\src/vl53l0x_api_core.c **** 				PreRangeTimeOutMClks =
 739:Api\core\src/vl53l0x_api_core.c **** 					VL53L0X_calc_timeout_mclks(Dev,
 2120              		.loc 1 739 0
 2121 0064 3A78     		ldrb	r2, [r7]
 2122 0066 3100     		movs	r1, r6
 2123 0068 2800     		movs	r0, r5
 2124              	.LVL373:
 2125 006a FFF7FEFF 		bl	VL53L0X_calc_timeout_mclks
ARM GAS  C:\Users\Rajesh\AppData\Local\Temp\ccMJoliC.s 			page 52


 2126              	.LVL374:
 740:Api\core\src/vl53l0x_api_core.c **** 					TimeOutMicroSecs,
 741:Api\core\src/vl53l0x_api_core.c **** 					(uint8_t)CurrentVCSELPulsePeriodPClk);
 742:Api\core\src/vl53l0x_api_core.c **** 				PreRangeEncodedTimeOut = VL53L0X_encode_timeout(
 2127              		.loc 1 742 0
 2128 006e 0004     		lsls	r0, r0, #16
 2129              	.LVL375:
 2130 0070 000C     		lsrs	r0, r0, #16
 2131 0072 FFF7FEFF 		bl	VL53L0X_encode_timeout
 2132              	.LVL376:
 2133 0076 03AB     		add	r3, sp, #12
 2134 0078 1880     		strh	r0, [r3]
 743:Api\core\src/vl53l0x_api_core.c **** 					PreRangeTimeOutMClks);
 744:Api\core\src/vl53l0x_api_core.c **** 
 745:Api\core\src/vl53l0x_api_core.c **** 				VL53L0X_SETDEVICESPECIFICPARAMETER(Dev,
 2135              		.loc 1 745 0
 2136 007a D823     		movs	r3, #216
 2137 007c E852     		strh	r0, [r5, r3]
 746:Api\core\src/vl53l0x_api_core.c **** 					LastEncodedTimeout,
 747:Api\core\src/vl53l0x_api_core.c **** 					PreRangeEncodedTimeOut);
 748:Api\core\src/vl53l0x_api_core.c **** 			}
 749:Api\core\src/vl53l0x_api_core.c **** 
 750:Api\core\src/vl53l0x_api_core.c **** 			if (Status == VL53L0X_ERROR_NONE) {
 2138              		.loc 1 750 0
 2139 007e 002C     		cmp	r4, #0
 2140 0080 05D1     		bne	.L83
 751:Api\core\src/vl53l0x_api_core.c **** 				Status = VL53L0X_WrWord(Dev,
 2141              		.loc 1 751 0
 2142 0082 0200     		movs	r2, r0
 2143 0084 5121     		movs	r1, #81
 2144 0086 2800     		movs	r0, r5
 2145 0088 FFF7FEFF 		bl	VL53L0X_WrWord
 2146              	.LVL377:
 2147 008c 0400     		movs	r4, r0
 2148              	.LVL378:
 2149              	.L83:
 752:Api\core\src/vl53l0x_api_core.c **** 				VL53L0X_REG_PRE_RANGE_CONFIG_TIMEOUT_MACROP_HI,
 753:Api\core\src/vl53l0x_api_core.c **** 				PreRangeEncodedTimeOut);
 754:Api\core\src/vl53l0x_api_core.c **** 			}
 755:Api\core\src/vl53l0x_api_core.c **** 
 756:Api\core\src/vl53l0x_api_core.c **** 			if (Status == VL53L0X_ERROR_NONE) {
 2150              		.loc 1 756 0
 2151 008e 002C     		cmp	r4, #0
 2152 0090 47D1     		bne	.L81
 757:Api\core\src/vl53l0x_api_core.c **** 				VL53L0X_SETDEVICESPECIFICPARAMETER(
 2153              		.loc 1 757 0
 2154 0092 E423     		movs	r3, #228
 2155 0094 EE50     		str	r6, [r5, r3]
 2156 0096 44E0     		b	.L81
 2157              	.LVL379:
 2158              	.L82:
 758:Api\core\src/vl53l0x_api_core.c **** 					Dev,
 759:Api\core\src/vl53l0x_api_core.c **** 					PreRangeTimeoutMicroSecs,
 760:Api\core\src/vl53l0x_api_core.c **** 					TimeOutMicroSecs);
 761:Api\core\src/vl53l0x_api_core.c **** 			}
 762:Api\core\src/vl53l0x_api_core.c **** 		} else if (SequenceStepId == VL53L0X_SEQUENCESTEP_FINAL_RANGE) {
 2159              		.loc 1 762 0
ARM GAS  C:\Users\Rajesh\AppData\Local\Temp\ccMJoliC.s 			page 53


 2160 0098 0429     		cmp	r1, #4
 2161 009a 40D1     		bne	.L88
 763:Api\core\src/vl53l0x_api_core.c **** 
 764:Api\core\src/vl53l0x_api_core.c **** 			/* For the final range timeout, the pre-range timeout
 765:Api\core\src/vl53l0x_api_core.c **** 			 * must be added. To do this both final and pre-range
 766:Api\core\src/vl53l0x_api_core.c **** 			 * timeouts must be expressed in macro periods MClks
 767:Api\core\src/vl53l0x_api_core.c **** 			 * because they have different vcsel periods.
 768:Api\core\src/vl53l0x_api_core.c **** 			 */
 769:Api\core\src/vl53l0x_api_core.c **** 
 770:Api\core\src/vl53l0x_api_core.c **** 			VL53L0X_GetSequenceStepEnables(Dev,
 2162              		.loc 1 770 0
 2163 009c 01AC     		add	r4, sp, #4
 2164 009e 2100     		movs	r1, r4
 2165              	.LVL380:
 2166 00a0 FFF7FEFF 		bl	VL53L0X_GetSequenceStepEnables
 2167              	.LVL381:
 771:Api\core\src/vl53l0x_api_core.c **** 					&SchedulerSequenceSteps);
 772:Api\core\src/vl53l0x_api_core.c **** 			PreRangeTimeOutMClks = 0;
 773:Api\core\src/vl53l0x_api_core.c **** 			if (SchedulerSequenceSteps.PreRangeOn) {
 2168              		.loc 1 773 0
 2169 00a4 E378     		ldrb	r3, [r4, #3]
 2170 00a6 002B     		cmp	r3, #0
 2171 00a8 13D0     		beq	.L89
 774:Api\core\src/vl53l0x_api_core.c **** 
 775:Api\core\src/vl53l0x_api_core.c **** 				/* Retrieve PRE-RANGE VCSEL Period */
 776:Api\core\src/vl53l0x_api_core.c **** 				Status = VL53L0X_GetVcselPulsePeriod(Dev,
 2172              		.loc 1 776 0
 2173 00aa 0F22     		movs	r2, #15
 2174 00ac 6A44     		add	r2, r2, sp
 2175 00ae 0021     		movs	r1, #0
 2176 00b0 2800     		movs	r0, r5
 2177 00b2 FFF7FEFF 		bl	VL53L0X_GetVcselPulsePeriod
 2178              	.LVL382:
 2179 00b6 041E     		subs	r4, r0, #0
 2180              	.LVL383:
 777:Api\core\src/vl53l0x_api_core.c **** 					VL53L0X_VCSEL_PERIOD_PRE_RANGE,
 778:Api\core\src/vl53l0x_api_core.c **** 					&CurrentVCSELPulsePeriodPClk);
 779:Api\core\src/vl53l0x_api_core.c **** 
 780:Api\core\src/vl53l0x_api_core.c **** 				/* Retrieve PRE-RANGE Timeout in Macro periods
 781:Api\core\src/vl53l0x_api_core.c **** 				 * (MCLKS) */
 782:Api\core\src/vl53l0x_api_core.c **** 				if (Status == VL53L0X_ERROR_NONE) {
 2181              		.loc 1 782 0
 2182 00b8 0ED1     		bne	.L90
 783:Api\core\src/vl53l0x_api_core.c **** 					Status = VL53L0X_RdWord(Dev, 0x51,
 2183              		.loc 1 783 0
 2184 00ba 03AF     		add	r7, sp, #12
 2185 00bc 3A00     		movs	r2, r7
 2186 00be 5121     		movs	r1, #81
 2187 00c0 2800     		movs	r0, r5
 2188              	.LVL384:
 2189 00c2 FFF7FEFF 		bl	VL53L0X_RdWord
 2190              	.LVL385:
 2191 00c6 0400     		movs	r4, r0
 2192              	.LVL386:
 784:Api\core\src/vl53l0x_api_core.c **** 						&PreRangeEncodedTimeOut);
 785:Api\core\src/vl53l0x_api_core.c **** 					PreRangeTimeOutMClks =
 786:Api\core\src/vl53l0x_api_core.c **** 						VL53L0X_decode_timeout(
ARM GAS  C:\Users\Rajesh\AppData\Local\Temp\ccMJoliC.s 			page 54


 2193              		.loc 1 786 0
 2194 00c8 3888     		ldrh	r0, [r7]
 2195              	.LVL387:
 2196 00ca FFF7FEFF 		bl	VL53L0X_decode_timeout
 2197              	.LVL388:
 785:Api\core\src/vl53l0x_api_core.c **** 						VL53L0X_decode_timeout(
 2198              		.loc 1 785 0
 2199 00ce 87B2     		uxth	r7, r0
 2200              	.LVL389:
 2201 00d0 03E0     		b	.L84
 2202              	.LVL390:
 2203              	.L89:
 772:Api\core\src/vl53l0x_api_core.c **** 			if (SchedulerSequenceSteps.PreRangeOn) {
 2204              		.loc 1 772 0
 2205 00d2 0027     		movs	r7, #0
 691:Api\core\src/vl53l0x_api_core.c **** 	uint8_t CurrentVCSELPulsePeriodPClk;
 2206              		.loc 1 691 0
 2207 00d4 0024     		movs	r4, #0
 2208 00d6 00E0     		b	.L84
 2209              	.LVL391:
 2210              	.L90:
 772:Api\core\src/vl53l0x_api_core.c **** 			if (SchedulerSequenceSteps.PreRangeOn) {
 2211              		.loc 1 772 0
 2212 00d8 0027     		movs	r7, #0
 2213              	.LVL392:
 2214              	.L84:
 787:Api\core\src/vl53l0x_api_core.c **** 							PreRangeEncodedTimeOut);
 788:Api\core\src/vl53l0x_api_core.c **** 				}
 789:Api\core\src/vl53l0x_api_core.c **** 			}
 790:Api\core\src/vl53l0x_api_core.c **** 
 791:Api\core\src/vl53l0x_api_core.c **** 			/* Calculate FINAL RANGE Timeout in Macro Periods
 792:Api\core\src/vl53l0x_api_core.c **** 			 * (MCLKS) and add PRE-RANGE value
 793:Api\core\src/vl53l0x_api_core.c **** 			 */
 794:Api\core\src/vl53l0x_api_core.c **** 			if (Status == VL53L0X_ERROR_NONE) {
 2215              		.loc 1 794 0
 2216 00da 002C     		cmp	r4, #0
 2217 00dc 06D1     		bne	.L85
 795:Api\core\src/vl53l0x_api_core.c **** 
 796:Api\core\src/vl53l0x_api_core.c **** 				Status = VL53L0X_GetVcselPulsePeriod(Dev,
 2218              		.loc 1 796 0
 2219 00de 0F22     		movs	r2, #15
 2220 00e0 6A44     		add	r2, r2, sp
 2221 00e2 0121     		movs	r1, #1
 2222 00e4 2800     		movs	r0, r5
 2223 00e6 FFF7FEFF 		bl	VL53L0X_GetVcselPulsePeriod
 2224              	.LVL393:
 2225 00ea 0400     		movs	r4, r0
 2226              	.LVL394:
 2227              	.L85:
 797:Api\core\src/vl53l0x_api_core.c **** 						VL53L0X_VCSEL_PERIOD_FINAL_RANGE,
 798:Api\core\src/vl53l0x_api_core.c **** 						&CurrentVCSELPulsePeriodPClk);
 799:Api\core\src/vl53l0x_api_core.c **** 			}
 800:Api\core\src/vl53l0x_api_core.c **** 			if (Status == VL53L0X_ERROR_NONE) {
 2228              		.loc 1 800 0
 2229 00ec 002C     		cmp	r4, #0
 2230 00ee 18D1     		bne	.L81
 801:Api\core\src/vl53l0x_api_core.c **** 
ARM GAS  C:\Users\Rajesh\AppData\Local\Temp\ccMJoliC.s 			page 55


 802:Api\core\src/vl53l0x_api_core.c **** 				FinalRangeTimeOutMClks =
 803:Api\core\src/vl53l0x_api_core.c **** 					VL53L0X_calc_timeout_mclks(Dev,
 2231              		.loc 1 803 0
 2232 00f0 0F23     		movs	r3, #15
 2233 00f2 6B44     		add	r3, r3, sp
 2234 00f4 1A78     		ldrb	r2, [r3]
 802:Api\core\src/vl53l0x_api_core.c **** 					VL53L0X_calc_timeout_mclks(Dev,
 2235              		.loc 1 802 0
 2236 00f6 3100     		movs	r1, r6
 2237 00f8 2800     		movs	r0, r5
 2238 00fa FFF7FEFF 		bl	VL53L0X_calc_timeout_mclks
 2239              	.LVL395:
 804:Api\core\src/vl53l0x_api_core.c **** 					TimeOutMicroSecs,
 805:Api\core\src/vl53l0x_api_core.c **** 					(uint8_t) CurrentVCSELPulsePeriodPClk);
 806:Api\core\src/vl53l0x_api_core.c **** 
 807:Api\core\src/vl53l0x_api_core.c **** 				FinalRangeTimeOutMClks += PreRangeTimeOutMClks;
 2240              		.loc 1 807 0
 2241 00fe 3818     		adds	r0, r7, r0
 2242              	.LVL396:
 808:Api\core\src/vl53l0x_api_core.c **** 
 809:Api\core\src/vl53l0x_api_core.c **** 				FinalRangeEncodedTimeOut =
 2243              		.loc 1 809 0
 2244 0100 FFF7FEFF 		bl	VL53L0X_encode_timeout
 2245              	.LVL397:
 810:Api\core\src/vl53l0x_api_core.c **** 				VL53L0X_encode_timeout(FinalRangeTimeOutMClks);
 811:Api\core\src/vl53l0x_api_core.c **** 
 812:Api\core\src/vl53l0x_api_core.c **** 				if (Status == VL53L0X_ERROR_NONE) {
 2246              		.loc 1 812 0
 2247 0104 002C     		cmp	r4, #0
 2248 0106 05D1     		bne	.L86
 813:Api\core\src/vl53l0x_api_core.c **** 					Status = VL53L0X_WrWord(Dev, 0x71,
 2249              		.loc 1 813 0
 2250 0108 0200     		movs	r2, r0
 2251 010a 7121     		movs	r1, #113
 2252 010c 2800     		movs	r0, r5
 2253              	.LVL398:
 2254 010e FFF7FEFF 		bl	VL53L0X_WrWord
 2255              	.LVL399:
 2256 0112 0400     		movs	r4, r0
 2257              	.LVL400:
 2258              	.L86:
 814:Api\core\src/vl53l0x_api_core.c **** 					FinalRangeEncodedTimeOut);
 815:Api\core\src/vl53l0x_api_core.c **** 				}
 816:Api\core\src/vl53l0x_api_core.c **** 
 817:Api\core\src/vl53l0x_api_core.c **** 				if (Status == VL53L0X_ERROR_NONE) {
 2259              		.loc 1 817 0
 2260 0114 002C     		cmp	r4, #0
 2261 0116 04D1     		bne	.L81
 818:Api\core\src/vl53l0x_api_core.c **** 					VL53L0X_SETDEVICESPECIFICPARAMETER(
 2262              		.loc 1 818 0
 2263 0118 DC23     		movs	r3, #220
 2264 011a EE50     		str	r6, [r5, r3]
 2265 011c 01E0     		b	.L81
 2266              	.LVL401:
 2267              	.L88:
 819:Api\core\src/vl53l0x_api_core.c **** 						Dev,
 820:Api\core\src/vl53l0x_api_core.c **** 						FinalRangeTimeoutMicroSecs,
ARM GAS  C:\Users\Rajesh\AppData\Local\Temp\ccMJoliC.s 			page 56


 821:Api\core\src/vl53l0x_api_core.c **** 						TimeOutMicroSecs);
 822:Api\core\src/vl53l0x_api_core.c **** 				}
 823:Api\core\src/vl53l0x_api_core.c **** 			}
 824:Api\core\src/vl53l0x_api_core.c **** 		} else
 825:Api\core\src/vl53l0x_api_core.c **** 			Status = VL53L0X_ERROR_INVALID_PARAMS;
 2268              		.loc 1 825 0
 2269 011e 0424     		movs	r4, #4
 2270 0120 6442     		rsbs	r4, r4, #0
 2271              	.LVL402:
 2272              	.L81:
 826:Api\core\src/vl53l0x_api_core.c **** 
 827:Api\core\src/vl53l0x_api_core.c **** 	}
 828:Api\core\src/vl53l0x_api_core.c **** 	return Status;
 829:Api\core\src/vl53l0x_api_core.c **** }
 2273              		.loc 1 829 0
 2274 0122 2000     		movs	r0, r4
 2275 0124 05B0     		add	sp, sp, #20
 2276              		@ sp needed
 2277              	.LVL403:
 2278              	.LVL404:
 2279              	.LVL405:
 2280 0126 F0BD     		pop	{r4, r5, r6, r7, pc}
 2281              		.cfi_endproc
 2282              	.LFE15:
 2283              		.size	set_sequence_step_timeout, .-set_sequence_step_timeout
 2284              		.section	.text.VL53L0X_set_vcsel_pulse_period,"ax",%progbits
 2285              		.align	2
 2286              		.global	VL53L0X_set_vcsel_pulse_period
 2287              		.code	16
 2288              		.thumb_func
 2289              		.type	VL53L0X_set_vcsel_pulse_period, %function
 2290              	VL53L0X_set_vcsel_pulse_period:
 2291              	.LFB16:
 830:Api\core\src/vl53l0x_api_core.c **** 
 831:Api\core\src/vl53l0x_api_core.c **** VL53L0X_Error VL53L0X_set_vcsel_pulse_period(VL53L0X_DEV Dev,
 832:Api\core\src/vl53l0x_api_core.c **** 	VL53L0X_VcselPeriod VcselPeriodType, uint8_t VCSELPulsePeriodPCLK)
 833:Api\core\src/vl53l0x_api_core.c **** {
 2292              		.loc 1 833 0
 2293              		.cfi_startproc
 2294              		@ args = 0, pretend = 0, frame = 16
 2295              		@ frame_needed = 0, uses_anonymous_args = 0
 2296              	.LVL406:
 2297 0000 F0B5     		push	{r4, r5, r6, r7, lr}
 2298              		.cfi_def_cfa_offset 20
 2299              		.cfi_offset 4, -20
 2300              		.cfi_offset 5, -16
 2301              		.cfi_offset 6, -12
 2302              		.cfi_offset 7, -8
 2303              		.cfi_offset 14, -4
 2304 0002 85B0     		sub	sp, sp, #20
 2305              		.cfi_def_cfa_offset 40
 2306 0004 0400     		movs	r4, r0
 2307 0006 0F00     		movs	r7, r1
 2308 0008 1600     		movs	r6, r2
 2309              	.LVL407:
 834:Api\core\src/vl53l0x_api_core.c **** 	VL53L0X_Error Status = VL53L0X_ERROR_NONE;
 835:Api\core\src/vl53l0x_api_core.c **** 	uint8_t vcsel_period_reg;
ARM GAS  C:\Users\Rajesh\AppData\Local\Temp\ccMJoliC.s 			page 57


 836:Api\core\src/vl53l0x_api_core.c **** 	uint8_t MinPreVcselPeriodPCLK = 12;
 837:Api\core\src/vl53l0x_api_core.c **** 	uint8_t MaxPreVcselPeriodPCLK = 18;
 838:Api\core\src/vl53l0x_api_core.c **** 	uint8_t MinFinalVcselPeriodPCLK = 8;
 839:Api\core\src/vl53l0x_api_core.c **** 	uint8_t MaxFinalVcselPeriodPCLK = 14;
 840:Api\core\src/vl53l0x_api_core.c **** 	uint32_t MeasurementTimingBudgetMicroSeconds;
 841:Api\core\src/vl53l0x_api_core.c **** 	uint32_t FinalRangeTimeoutMicroSeconds;
 842:Api\core\src/vl53l0x_api_core.c **** 	uint32_t PreRangeTimeoutMicroSeconds;
 843:Api\core\src/vl53l0x_api_core.c **** 	uint32_t MsrcTimeoutMicroSeconds;
 844:Api\core\src/vl53l0x_api_core.c **** 	uint8_t PhaseCalInt = 0;
 2310              		.loc 1 844 0
 2311 000a 0022     		movs	r2, #0
 2312              	.LVL408:
 2313 000c 6B46     		mov	r3, sp
 2314 000e DA70     		strb	r2, [r3, #3]
 845:Api\core\src/vl53l0x_api_core.c **** 
 846:Api\core\src/vl53l0x_api_core.c **** 	/* Check if valid clock period requested */
 847:Api\core\src/vl53l0x_api_core.c **** 
 848:Api\core\src/vl53l0x_api_core.c **** 	if ((VCSELPulsePeriodPCLK % 2) != 0) {
 2315              		.loc 1 848 0
 2316 0010 F307     		lsls	r3, r6, #31
 2317 0012 0DD4     		bmi	.L113
 849:Api\core\src/vl53l0x_api_core.c **** 		/* Value must be an even number */
 850:Api\core\src/vl53l0x_api_core.c **** 		Status = VL53L0X_ERROR_INVALID_PARAMS;
 851:Api\core\src/vl53l0x_api_core.c **** 	} else if (VcselPeriodType == VL53L0X_VCSEL_PERIOD_PRE_RANGE &&
 2318              		.loc 1 851 0
 2319 0014 0029     		cmp	r1, #0
 2320 0016 03D1     		bne	.L93
 2321              		.loc 1 851 0 is_stmt 0 discriminator 1
 2322 0018 0B2E     		cmp	r6, #11
 2323 001a 0CD9     		bls	.L114
 852:Api\core\src/vl53l0x_api_core.c **** 		(VCSELPulsePeriodPCLK < MinPreVcselPeriodPCLK ||
 2324              		.loc 1 852 0 is_stmt 1
 2325 001c 122E     		cmp	r6, #18
 2326 001e 0DD8     		bhi	.L115
 2327              	.L93:
 853:Api\core\src/vl53l0x_api_core.c **** 		VCSELPulsePeriodPCLK > MaxPreVcselPeriodPCLK)) {
 854:Api\core\src/vl53l0x_api_core.c **** 		Status = VL53L0X_ERROR_INVALID_PARAMS;
 855:Api\core\src/vl53l0x_api_core.c **** 	} else if (VcselPeriodType == VL53L0X_VCSEL_PERIOD_FINAL_RANGE &&
 2328              		.loc 1 855 0
 2329 0020 012F     		cmp	r7, #1
 2330 0022 0ED1     		bne	.L116
 2331              		.loc 1 855 0 is_stmt 0 discriminator 1
 2332 0024 072E     		cmp	r6, #7
 2333 0026 0ED9     		bls	.L117
 856:Api\core\src/vl53l0x_api_core.c **** 		(VCSELPulsePeriodPCLK < MinFinalVcselPeriodPCLK ||
 2334              		.loc 1 856 0 is_stmt 1
 2335 0028 0E2E     		cmp	r6, #14
 2336 002a 0FD8     		bhi	.L118
 834:Api\core\src/vl53l0x_api_core.c **** 	uint8_t vcsel_period_reg;
 2337              		.loc 1 834 0
 2338 002c 0020     		movs	r0, #0
 2339              	.LVL409:
 2340 002e 0FE0     		b	.L92
 2341              	.LVL410:
 2342              	.L113:
 850:Api\core\src/vl53l0x_api_core.c **** 	} else if (VcselPeriodType == VL53L0X_VCSEL_PERIOD_PRE_RANGE &&
 2343              		.loc 1 850 0
ARM GAS  C:\Users\Rajesh\AppData\Local\Temp\ccMJoliC.s 			page 58


 2344 0030 0420     		movs	r0, #4
 2345              	.LVL411:
 2346 0032 4042     		rsbs	r0, r0, #0
 2347 0034 0CE0     		b	.L92
 2348              	.LVL412:
 2349              	.L114:
 854:Api\core\src/vl53l0x_api_core.c **** 	} else if (VcselPeriodType == VL53L0X_VCSEL_PERIOD_FINAL_RANGE &&
 2350              		.loc 1 854 0
 2351 0036 0420     		movs	r0, #4
 2352              	.LVL413:
 2353 0038 4042     		rsbs	r0, r0, #0
 2354 003a 09E0     		b	.L92
 2355              	.LVL414:
 2356              	.L115:
 2357 003c 0420     		movs	r0, #4
 2358              	.LVL415:
 2359 003e 4042     		rsbs	r0, r0, #0
 2360 0040 06E0     		b	.L92
 2361              	.LVL416:
 2362              	.L116:
 834:Api\core\src/vl53l0x_api_core.c **** 	uint8_t vcsel_period_reg;
 2363              		.loc 1 834 0
 2364 0042 0020     		movs	r0, #0
 2365              	.LVL417:
 2366 0044 04E0     		b	.L92
 2367              	.LVL418:
 2368              	.L117:
 857:Api\core\src/vl53l0x_api_core.c **** 		 VCSELPulsePeriodPCLK > MaxFinalVcselPeriodPCLK)) {
 858:Api\core\src/vl53l0x_api_core.c **** 
 859:Api\core\src/vl53l0x_api_core.c **** 		Status = VL53L0X_ERROR_INVALID_PARAMS;
 2369              		.loc 1 859 0
 2370 0046 0420     		movs	r0, #4
 2371              	.LVL419:
 2372 0048 4042     		rsbs	r0, r0, #0
 2373 004a 01E0     		b	.L92
 2374              	.LVL420:
 2375              	.L118:
 2376 004c 0420     		movs	r0, #4
 2377              	.LVL421:
 2378 004e 4042     		rsbs	r0, r0, #0
 2379              	.L92:
 2380              	.LVL422:
 860:Api\core\src/vl53l0x_api_core.c **** 	}
 861:Api\core\src/vl53l0x_api_core.c **** 
 862:Api\core\src/vl53l0x_api_core.c **** 	/* Apply specific settings for the requested clock period */
 863:Api\core\src/vl53l0x_api_core.c **** 
 864:Api\core\src/vl53l0x_api_core.c **** 	if (Status != VL53L0X_ERROR_NONE)
 2381              		.loc 1 864 0
 2382 0050 0028     		cmp	r0, #0
 2383 0052 00D0     		beq	.LCB2479
 2384 0054 52E1     		b	.L94	@long jump
 2385              	.LCB2479:
 865:Api\core\src/vl53l0x_api_core.c **** 		return Status;
 866:Api\core\src/vl53l0x_api_core.c **** 
 867:Api\core\src/vl53l0x_api_core.c **** 
 868:Api\core\src/vl53l0x_api_core.c **** 	if (VcselPeriodType == VL53L0X_VCSEL_PERIOD_PRE_RANGE) {
 2386              		.loc 1 868 0
ARM GAS  C:\Users\Rajesh\AppData\Local\Temp\ccMJoliC.s 			page 59


 2387 0056 002F     		cmp	r7, #0
 2388 0058 34D1     		bne	.L95
 869:Api\core\src/vl53l0x_api_core.c **** 
 870:Api\core\src/vl53l0x_api_core.c **** 		/* Set phase check limits */
 871:Api\core\src/vl53l0x_api_core.c **** 		if (VCSELPulsePeriodPCLK == 12) {
 2389              		.loc 1 871 0
 2390 005a 0C2E     		cmp	r6, #12
 2391 005c 0AD1     		bne	.L96
 872:Api\core\src/vl53l0x_api_core.c **** 
 873:Api\core\src/vl53l0x_api_core.c **** 			Status = VL53L0X_WrByte(Dev,
 2392              		.loc 1 873 0
 2393 005e 1822     		movs	r2, #24
 2394 0060 5721     		movs	r1, #87
 2395              	.LVL423:
 2396 0062 2000     		movs	r0, r4
 2397              	.LVL424:
 2398 0064 FFF7FEFF 		bl	VL53L0X_WrByte
 2399              	.LVL425:
 874:Api\core\src/vl53l0x_api_core.c **** 				VL53L0X_REG_PRE_RANGE_CONFIG_VALID_PHASE_HIGH,
 875:Api\core\src/vl53l0x_api_core.c **** 				0x18);
 876:Api\core\src/vl53l0x_api_core.c **** 			Status = VL53L0X_WrByte(Dev,
 2400              		.loc 1 876 0
 2401 0068 0822     		movs	r2, #8
 2402 006a 5621     		movs	r1, #86
 2403 006c 2000     		movs	r0, r4
 2404 006e FFF7FEFF 		bl	VL53L0X_WrByte
 2405              	.LVL426:
 2406 0072 EDE0     		b	.L97
 2407              	.LVL427:
 2408              	.L96:
 877:Api\core\src/vl53l0x_api_core.c **** 				VL53L0X_REG_PRE_RANGE_CONFIG_VALID_PHASE_LOW,
 878:Api\core\src/vl53l0x_api_core.c **** 				0x08);
 879:Api\core\src/vl53l0x_api_core.c **** 		} else if (VCSELPulsePeriodPCLK == 14) {
 2409              		.loc 1 879 0
 2410 0074 0E2E     		cmp	r6, #14
 2411 0076 0AD1     		bne	.L98
 880:Api\core\src/vl53l0x_api_core.c **** 
 881:Api\core\src/vl53l0x_api_core.c **** 			Status = VL53L0X_WrByte(Dev,
 2412              		.loc 1 881 0
 2413 0078 3022     		movs	r2, #48
 2414 007a 5721     		movs	r1, #87
 2415              	.LVL428:
 2416 007c 2000     		movs	r0, r4
 2417              	.LVL429:
 2418 007e FFF7FEFF 		bl	VL53L0X_WrByte
 2419              	.LVL430:
 882:Api\core\src/vl53l0x_api_core.c **** 				VL53L0X_REG_PRE_RANGE_CONFIG_VALID_PHASE_HIGH,
 883:Api\core\src/vl53l0x_api_core.c **** 				0x30);
 884:Api\core\src/vl53l0x_api_core.c **** 			Status = VL53L0X_WrByte(Dev,
 2420              		.loc 1 884 0
 2421 0082 0822     		movs	r2, #8
 2422 0084 5621     		movs	r1, #86
 2423 0086 2000     		movs	r0, r4
 2424 0088 FFF7FEFF 		bl	VL53L0X_WrByte
 2425              	.LVL431:
 2426 008c E0E0     		b	.L97
 2427              	.LVL432:
ARM GAS  C:\Users\Rajesh\AppData\Local\Temp\ccMJoliC.s 			page 60


 2428              	.L98:
 885:Api\core\src/vl53l0x_api_core.c **** 				VL53L0X_REG_PRE_RANGE_CONFIG_VALID_PHASE_LOW,
 886:Api\core\src/vl53l0x_api_core.c **** 				0x08);
 887:Api\core\src/vl53l0x_api_core.c **** 		} else if (VCSELPulsePeriodPCLK == 16) {
 2429              		.loc 1 887 0
 2430 008e 102E     		cmp	r6, #16
 2431 0090 0AD1     		bne	.L99
 888:Api\core\src/vl53l0x_api_core.c **** 
 889:Api\core\src/vl53l0x_api_core.c **** 			Status = VL53L0X_WrByte(Dev,
 2432              		.loc 1 889 0
 2433 0092 4022     		movs	r2, #64
 2434 0094 5721     		movs	r1, #87
 2435              	.LVL433:
 2436 0096 2000     		movs	r0, r4
 2437              	.LVL434:
 2438 0098 FFF7FEFF 		bl	VL53L0X_WrByte
 2439              	.LVL435:
 890:Api\core\src/vl53l0x_api_core.c **** 				VL53L0X_REG_PRE_RANGE_CONFIG_VALID_PHASE_HIGH,
 891:Api\core\src/vl53l0x_api_core.c **** 				0x40);
 892:Api\core\src/vl53l0x_api_core.c **** 			Status = VL53L0X_WrByte(Dev,
 2440              		.loc 1 892 0
 2441 009c 0822     		movs	r2, #8
 2442 009e 5621     		movs	r1, #86
 2443 00a0 2000     		movs	r0, r4
 2444 00a2 FFF7FEFF 		bl	VL53L0X_WrByte
 2445              	.LVL436:
 2446 00a6 D3E0     		b	.L97
 2447              	.LVL437:
 2448              	.L99:
 893:Api\core\src/vl53l0x_api_core.c **** 				VL53L0X_REG_PRE_RANGE_CONFIG_VALID_PHASE_LOW,
 894:Api\core\src/vl53l0x_api_core.c **** 				0x08);
 895:Api\core\src/vl53l0x_api_core.c **** 		} else if (VCSELPulsePeriodPCLK == 18) {
 2449              		.loc 1 895 0
 2450 00a8 122E     		cmp	r6, #18
 2451 00aa 00D0     		beq	.LCB2552
 2452 00ac D0E0     		b	.L97	@long jump
 2453              	.LCB2552:
 896:Api\core\src/vl53l0x_api_core.c **** 
 897:Api\core\src/vl53l0x_api_core.c **** 			Status = VL53L0X_WrByte(Dev,
 2454              		.loc 1 897 0
 2455 00ae 5022     		movs	r2, #80
 2456 00b0 5721     		movs	r1, #87
 2457              	.LVL438:
 2458 00b2 2000     		movs	r0, r4
 2459              	.LVL439:
 2460 00b4 FFF7FEFF 		bl	VL53L0X_WrByte
 2461              	.LVL440:
 898:Api\core\src/vl53l0x_api_core.c **** 				VL53L0X_REG_PRE_RANGE_CONFIG_VALID_PHASE_HIGH,
 899:Api\core\src/vl53l0x_api_core.c **** 				0x50);
 900:Api\core\src/vl53l0x_api_core.c **** 			Status = VL53L0X_WrByte(Dev,
 2462              		.loc 1 900 0
 2463 00b8 0822     		movs	r2, #8
 2464 00ba 5621     		movs	r1, #86
 2465 00bc 2000     		movs	r0, r4
 2466 00be FFF7FEFF 		bl	VL53L0X_WrByte
 2467              	.LVL441:
 2468 00c2 C5E0     		b	.L97
ARM GAS  C:\Users\Rajesh\AppData\Local\Temp\ccMJoliC.s 			page 61


 2469              	.LVL442:
 2470              	.L95:
 901:Api\core\src/vl53l0x_api_core.c **** 				VL53L0X_REG_PRE_RANGE_CONFIG_VALID_PHASE_LOW,
 902:Api\core\src/vl53l0x_api_core.c **** 				0x08);
 903:Api\core\src/vl53l0x_api_core.c **** 		}
 904:Api\core\src/vl53l0x_api_core.c **** 	} else if (VcselPeriodType == VL53L0X_VCSEL_PERIOD_FINAL_RANGE) {
 2471              		.loc 1 904 0
 2472 00c4 012F     		cmp	r7, #1
 2473 00c6 00D0     		beq	.LCB2575
 2474 00c8 C2E0     		b	.L97	@long jump
 2475              	.LCB2575:
 905:Api\core\src/vl53l0x_api_core.c **** 
 906:Api\core\src/vl53l0x_api_core.c **** 		if (VCSELPulsePeriodPCLK == 8) {
 2476              		.loc 1 906 0
 2477 00ca 082E     		cmp	r6, #8
 2478 00cc 2ED1     		bne	.L100
 907:Api\core\src/vl53l0x_api_core.c **** 
 908:Api\core\src/vl53l0x_api_core.c **** 			Status = VL53L0X_WrByte(Dev,
 2479              		.loc 1 908 0
 2480 00ce 1022     		movs	r2, #16
 2481 00d0 4821     		movs	r1, #72
 2482              	.LVL443:
 2483 00d2 2000     		movs	r0, r4
 2484              	.LVL444:
 2485 00d4 FFF7FEFF 		bl	VL53L0X_WrByte
 2486              	.LVL445:
 909:Api\core\src/vl53l0x_api_core.c **** 				VL53L0X_REG_FINAL_RANGE_CONFIG_VALID_PHASE_HIGH,
 910:Api\core\src/vl53l0x_api_core.c **** 				0x10);
 911:Api\core\src/vl53l0x_api_core.c **** 			Status = VL53L0X_WrByte(Dev,
 2487              		.loc 1 911 0
 2488 00d8 0822     		movs	r2, #8
 2489 00da 4721     		movs	r1, #71
 2490 00dc 2000     		movs	r0, r4
 2491 00de FFF7FEFF 		bl	VL53L0X_WrByte
 2492              	.LVL446:
 2493 00e2 0500     		movs	r5, r0
 2494              	.LVL447:
 912:Api\core\src/vl53l0x_api_core.c **** 				VL53L0X_REG_FINAL_RANGE_CONFIG_VALID_PHASE_LOW,
 913:Api\core\src/vl53l0x_api_core.c **** 				0x08);
 914:Api\core\src/vl53l0x_api_core.c **** 
 915:Api\core\src/vl53l0x_api_core.c **** 			Status |= VL53L0X_WrByte(Dev,
 2495              		.loc 1 915 0
 2496 00e4 0222     		movs	r2, #2
 2497 00e6 3221     		movs	r1, #50
 2498 00e8 2000     		movs	r0, r4
 2499 00ea FFF7FEFF 		bl	VL53L0X_WrByte
 2500              	.LVL448:
 2501 00ee 2843     		orrs	r0, r5
 2502 00f0 45B2     		sxtb	r5, r0
 2503              	.LVL449:
 916:Api\core\src/vl53l0x_api_core.c **** 				VL53L0X_REG_GLOBAL_CONFIG_VCSEL_WIDTH, 0x02);
 917:Api\core\src/vl53l0x_api_core.c **** 			Status |= VL53L0X_WrByte(Dev,
 2504              		.loc 1 917 0
 2505 00f2 0C22     		movs	r2, #12
 2506 00f4 3021     		movs	r1, #48
 2507 00f6 2000     		movs	r0, r4
 2508 00f8 FFF7FEFF 		bl	VL53L0X_WrByte
ARM GAS  C:\Users\Rajesh\AppData\Local\Temp\ccMJoliC.s 			page 62


 2509              	.LVL450:
 2510 00fc 2843     		orrs	r0, r5
 2511 00fe 45B2     		sxtb	r5, r0
 2512              	.LVL451:
 918:Api\core\src/vl53l0x_api_core.c **** 				VL53L0X_REG_ALGO_PHASECAL_CONFIG_TIMEOUT, 0x0C);
 919:Api\core\src/vl53l0x_api_core.c **** 
 920:Api\core\src/vl53l0x_api_core.c **** 			Status |= VL53L0X_WrByte(Dev, 0xff, 0x01);
 2513              		.loc 1 920 0
 2514 0100 0122     		movs	r2, #1
 2515 0102 FF21     		movs	r1, #255
 2516 0104 2000     		movs	r0, r4
 2517 0106 FFF7FEFF 		bl	VL53L0X_WrByte
 2518              	.LVL452:
 2519 010a 2843     		orrs	r0, r5
 2520 010c 45B2     		sxtb	r5, r0
 2521              	.LVL453:
 921:Api\core\src/vl53l0x_api_core.c **** 			Status |= VL53L0X_WrByte(Dev,
 2522              		.loc 1 921 0
 2523 010e 3022     		movs	r2, #48
 2524 0110 3021     		movs	r1, #48
 2525 0112 2000     		movs	r0, r4
 2526 0114 FFF7FEFF 		bl	VL53L0X_WrByte
 2527              	.LVL454:
 2528 0118 2843     		orrs	r0, r5
 2529 011a 45B2     		sxtb	r5, r0
 2530              	.LVL455:
 922:Api\core\src/vl53l0x_api_core.c **** 				VL53L0X_REG_ALGO_PHASECAL_LIM,
 923:Api\core\src/vl53l0x_api_core.c **** 				0x30);
 924:Api\core\src/vl53l0x_api_core.c **** 			Status |= VL53L0X_WrByte(Dev, 0xff, 0x00);
 2531              		.loc 1 924 0
 2532 011c 0022     		movs	r2, #0
 2533 011e FF21     		movs	r1, #255
 2534 0120 2000     		movs	r0, r4
 2535 0122 FFF7FEFF 		bl	VL53L0X_WrByte
 2536              	.LVL456:
 2537 0126 2843     		orrs	r0, r5
 2538 0128 40B2     		sxtb	r0, r0
 2539              	.LVL457:
 2540 012a 91E0     		b	.L97
 2541              	.LVL458:
 2542              	.L100:
 925:Api\core\src/vl53l0x_api_core.c **** 		} else if (VCSELPulsePeriodPCLK == 10) {
 2543              		.loc 1 925 0
 2544 012c 0A2E     		cmp	r6, #10
 2545 012e 2ED1     		bne	.L101
 926:Api\core\src/vl53l0x_api_core.c **** 
 927:Api\core\src/vl53l0x_api_core.c **** 			Status = VL53L0X_WrByte(Dev,
 2546              		.loc 1 927 0
 2547 0130 2822     		movs	r2, #40
 2548 0132 4821     		movs	r1, #72
 2549              	.LVL459:
 2550 0134 2000     		movs	r0, r4
 2551              	.LVL460:
 2552 0136 FFF7FEFF 		bl	VL53L0X_WrByte
 2553              	.LVL461:
 928:Api\core\src/vl53l0x_api_core.c **** 				VL53L0X_REG_FINAL_RANGE_CONFIG_VALID_PHASE_HIGH,
 929:Api\core\src/vl53l0x_api_core.c **** 				0x28);
ARM GAS  C:\Users\Rajesh\AppData\Local\Temp\ccMJoliC.s 			page 63


 930:Api\core\src/vl53l0x_api_core.c **** 			Status = VL53L0X_WrByte(Dev,
 2554              		.loc 1 930 0
 2555 013a 0822     		movs	r2, #8
 2556 013c 4721     		movs	r1, #71
 2557 013e 2000     		movs	r0, r4
 2558 0140 FFF7FEFF 		bl	VL53L0X_WrByte
 2559              	.LVL462:
 2560 0144 0500     		movs	r5, r0
 2561              	.LVL463:
 931:Api\core\src/vl53l0x_api_core.c **** 				VL53L0X_REG_FINAL_RANGE_CONFIG_VALID_PHASE_LOW,
 932:Api\core\src/vl53l0x_api_core.c **** 				0x08);
 933:Api\core\src/vl53l0x_api_core.c **** 
 934:Api\core\src/vl53l0x_api_core.c **** 			Status |= VL53L0X_WrByte(Dev,
 2562              		.loc 1 934 0
 2563 0146 0322     		movs	r2, #3
 2564 0148 3221     		movs	r1, #50
 2565 014a 2000     		movs	r0, r4
 2566 014c FFF7FEFF 		bl	VL53L0X_WrByte
 2567              	.LVL464:
 2568 0150 2843     		orrs	r0, r5
 2569 0152 45B2     		sxtb	r5, r0
 2570              	.LVL465:
 935:Api\core\src/vl53l0x_api_core.c **** 				VL53L0X_REG_GLOBAL_CONFIG_VCSEL_WIDTH, 0x03);
 936:Api\core\src/vl53l0x_api_core.c **** 			Status |= VL53L0X_WrByte(Dev,
 2571              		.loc 1 936 0
 2572 0154 0922     		movs	r2, #9
 2573 0156 3021     		movs	r1, #48
 2574 0158 2000     		movs	r0, r4
 2575 015a FFF7FEFF 		bl	VL53L0X_WrByte
 2576              	.LVL466:
 2577 015e 2843     		orrs	r0, r5
 2578 0160 45B2     		sxtb	r5, r0
 2579              	.LVL467:
 937:Api\core\src/vl53l0x_api_core.c **** 				VL53L0X_REG_ALGO_PHASECAL_CONFIG_TIMEOUT, 0x09);
 938:Api\core\src/vl53l0x_api_core.c **** 
 939:Api\core\src/vl53l0x_api_core.c **** 			Status |= VL53L0X_WrByte(Dev, 0xff, 0x01);
 2580              		.loc 1 939 0
 2581 0162 0122     		movs	r2, #1
 2582 0164 FF21     		movs	r1, #255
 2583 0166 2000     		movs	r0, r4
 2584 0168 FFF7FEFF 		bl	VL53L0X_WrByte
 2585              	.LVL468:
 2586 016c 2843     		orrs	r0, r5
 2587 016e 45B2     		sxtb	r5, r0
 2588              	.LVL469:
 940:Api\core\src/vl53l0x_api_core.c **** 			Status |= VL53L0X_WrByte(Dev,
 2589              		.loc 1 940 0
 2590 0170 2022     		movs	r2, #32
 2591 0172 3021     		movs	r1, #48
 2592 0174 2000     		movs	r0, r4
 2593 0176 FFF7FEFF 		bl	VL53L0X_WrByte
 2594              	.LVL470:
 2595 017a 2843     		orrs	r0, r5
 2596 017c 45B2     		sxtb	r5, r0
 2597              	.LVL471:
 941:Api\core\src/vl53l0x_api_core.c **** 				VL53L0X_REG_ALGO_PHASECAL_LIM,
 942:Api\core\src/vl53l0x_api_core.c **** 				0x20);
ARM GAS  C:\Users\Rajesh\AppData\Local\Temp\ccMJoliC.s 			page 64


 943:Api\core\src/vl53l0x_api_core.c **** 			Status |= VL53L0X_WrByte(Dev, 0xff, 0x00);
 2598              		.loc 1 943 0
 2599 017e 0022     		movs	r2, #0
 2600 0180 FF21     		movs	r1, #255
 2601 0182 2000     		movs	r0, r4
 2602 0184 FFF7FEFF 		bl	VL53L0X_WrByte
 2603              	.LVL472:
 2604 0188 2843     		orrs	r0, r5
 2605 018a 40B2     		sxtb	r0, r0
 2606              	.LVL473:
 2607 018c 60E0     		b	.L97
 2608              	.LVL474:
 2609              	.L101:
 944:Api\core\src/vl53l0x_api_core.c **** 		} else if (VCSELPulsePeriodPCLK == 12) {
 2610              		.loc 1 944 0
 2611 018e 0C2E     		cmp	r6, #12
 2612 0190 2ED1     		bne	.L102
 945:Api\core\src/vl53l0x_api_core.c **** 
 946:Api\core\src/vl53l0x_api_core.c **** 			Status = VL53L0X_WrByte(Dev,
 2613              		.loc 1 946 0
 2614 0192 3822     		movs	r2, #56
 2615 0194 4821     		movs	r1, #72
 2616              	.LVL475:
 2617 0196 2000     		movs	r0, r4
 2618              	.LVL476:
 2619 0198 FFF7FEFF 		bl	VL53L0X_WrByte
 2620              	.LVL477:
 947:Api\core\src/vl53l0x_api_core.c **** 				VL53L0X_REG_FINAL_RANGE_CONFIG_VALID_PHASE_HIGH,
 948:Api\core\src/vl53l0x_api_core.c **** 				0x38);
 949:Api\core\src/vl53l0x_api_core.c **** 			Status = VL53L0X_WrByte(Dev,
 2621              		.loc 1 949 0
 2622 019c 0822     		movs	r2, #8
 2623 019e 4721     		movs	r1, #71
 2624 01a0 2000     		movs	r0, r4
 2625 01a2 FFF7FEFF 		bl	VL53L0X_WrByte
 2626              	.LVL478:
 2627 01a6 0500     		movs	r5, r0
 2628              	.LVL479:
 950:Api\core\src/vl53l0x_api_core.c **** 				VL53L0X_REG_FINAL_RANGE_CONFIG_VALID_PHASE_LOW,
 951:Api\core\src/vl53l0x_api_core.c **** 				0x08);
 952:Api\core\src/vl53l0x_api_core.c **** 
 953:Api\core\src/vl53l0x_api_core.c **** 			Status |= VL53L0X_WrByte(Dev,
 2629              		.loc 1 953 0
 2630 01a8 0322     		movs	r2, #3
 2631 01aa 3221     		movs	r1, #50
 2632 01ac 2000     		movs	r0, r4
 2633 01ae FFF7FEFF 		bl	VL53L0X_WrByte
 2634              	.LVL480:
 2635 01b2 2843     		orrs	r0, r5
 2636 01b4 45B2     		sxtb	r5, r0
 2637              	.LVL481:
 954:Api\core\src/vl53l0x_api_core.c **** 				VL53L0X_REG_GLOBAL_CONFIG_VCSEL_WIDTH, 0x03);
 955:Api\core\src/vl53l0x_api_core.c **** 			Status |= VL53L0X_WrByte(Dev,
 2638              		.loc 1 955 0
 2639 01b6 0822     		movs	r2, #8
 2640 01b8 3021     		movs	r1, #48
 2641 01ba 2000     		movs	r0, r4
ARM GAS  C:\Users\Rajesh\AppData\Local\Temp\ccMJoliC.s 			page 65


 2642 01bc FFF7FEFF 		bl	VL53L0X_WrByte
 2643              	.LVL482:
 2644 01c0 2843     		orrs	r0, r5
 2645 01c2 45B2     		sxtb	r5, r0
 2646              	.LVL483:
 956:Api\core\src/vl53l0x_api_core.c **** 				VL53L0X_REG_ALGO_PHASECAL_CONFIG_TIMEOUT, 0x08);
 957:Api\core\src/vl53l0x_api_core.c **** 
 958:Api\core\src/vl53l0x_api_core.c **** 			Status |= VL53L0X_WrByte(Dev, 0xff, 0x01);
 2647              		.loc 1 958 0
 2648 01c4 0122     		movs	r2, #1
 2649 01c6 FF21     		movs	r1, #255
 2650 01c8 2000     		movs	r0, r4
 2651 01ca FFF7FEFF 		bl	VL53L0X_WrByte
 2652              	.LVL484:
 2653 01ce 2843     		orrs	r0, r5
 2654 01d0 45B2     		sxtb	r5, r0
 2655              	.LVL485:
 959:Api\core\src/vl53l0x_api_core.c **** 			Status |= VL53L0X_WrByte(Dev,
 2656              		.loc 1 959 0
 2657 01d2 2022     		movs	r2, #32
 2658 01d4 3021     		movs	r1, #48
 2659 01d6 2000     		movs	r0, r4
 2660 01d8 FFF7FEFF 		bl	VL53L0X_WrByte
 2661              	.LVL486:
 2662 01dc 2843     		orrs	r0, r5
 2663 01de 45B2     		sxtb	r5, r0
 2664              	.LVL487:
 960:Api\core\src/vl53l0x_api_core.c **** 				VL53L0X_REG_ALGO_PHASECAL_LIM,
 961:Api\core\src/vl53l0x_api_core.c **** 				0x20);
 962:Api\core\src/vl53l0x_api_core.c **** 			Status |= VL53L0X_WrByte(Dev, 0xff, 0x00);
 2665              		.loc 1 962 0
 2666 01e0 0022     		movs	r2, #0
 2667 01e2 FF21     		movs	r1, #255
 2668 01e4 2000     		movs	r0, r4
 2669 01e6 FFF7FEFF 		bl	VL53L0X_WrByte
 2670              	.LVL488:
 2671 01ea 2843     		orrs	r0, r5
 2672 01ec 40B2     		sxtb	r0, r0
 2673              	.LVL489:
 2674 01ee 2FE0     		b	.L97
 2675              	.LVL490:
 2676              	.L102:
 963:Api\core\src/vl53l0x_api_core.c **** 		} else if (VCSELPulsePeriodPCLK == 14) {
 2677              		.loc 1 963 0
 2678 01f0 0E2E     		cmp	r6, #14
 2679 01f2 2DD1     		bne	.L97
 964:Api\core\src/vl53l0x_api_core.c **** 
 965:Api\core\src/vl53l0x_api_core.c **** 			Status = VL53L0X_WrByte(Dev,
 2680              		.loc 1 965 0
 2681 01f4 4822     		movs	r2, #72
 2682 01f6 4821     		movs	r1, #72
 2683              	.LVL491:
 2684 01f8 2000     		movs	r0, r4
 2685              	.LVL492:
 2686 01fa FFF7FEFF 		bl	VL53L0X_WrByte
 2687              	.LVL493:
 966:Api\core\src/vl53l0x_api_core.c **** 				VL53L0X_REG_FINAL_RANGE_CONFIG_VALID_PHASE_HIGH,
ARM GAS  C:\Users\Rajesh\AppData\Local\Temp\ccMJoliC.s 			page 66


 967:Api\core\src/vl53l0x_api_core.c **** 				0x048);
 968:Api\core\src/vl53l0x_api_core.c **** 			Status = VL53L0X_WrByte(Dev,
 2688              		.loc 1 968 0
 2689 01fe 0822     		movs	r2, #8
 2690 0200 4721     		movs	r1, #71
 2691 0202 2000     		movs	r0, r4
 2692 0204 FFF7FEFF 		bl	VL53L0X_WrByte
 2693              	.LVL494:
 2694 0208 0500     		movs	r5, r0
 2695              	.LVL495:
 969:Api\core\src/vl53l0x_api_core.c **** 				VL53L0X_REG_FINAL_RANGE_CONFIG_VALID_PHASE_LOW,
 970:Api\core\src/vl53l0x_api_core.c **** 				0x08);
 971:Api\core\src/vl53l0x_api_core.c **** 
 972:Api\core\src/vl53l0x_api_core.c **** 			Status |= VL53L0X_WrByte(Dev,
 2696              		.loc 1 972 0
 2697 020a 0322     		movs	r2, #3
 2698 020c 3221     		movs	r1, #50
 2699 020e 2000     		movs	r0, r4
 2700 0210 FFF7FEFF 		bl	VL53L0X_WrByte
 2701              	.LVL496:
 2702 0214 2843     		orrs	r0, r5
 2703 0216 45B2     		sxtb	r5, r0
 2704              	.LVL497:
 973:Api\core\src/vl53l0x_api_core.c **** 				VL53L0X_REG_GLOBAL_CONFIG_VCSEL_WIDTH, 0x03);
 974:Api\core\src/vl53l0x_api_core.c **** 			Status |= VL53L0X_WrByte(Dev,
 2705              		.loc 1 974 0
 2706 0218 0722     		movs	r2, #7
 2707 021a 3021     		movs	r1, #48
 2708 021c 2000     		movs	r0, r4
 2709 021e FFF7FEFF 		bl	VL53L0X_WrByte
 2710              	.LVL498:
 2711 0222 2843     		orrs	r0, r5
 2712 0224 45B2     		sxtb	r5, r0
 2713              	.LVL499:
 975:Api\core\src/vl53l0x_api_core.c **** 				VL53L0X_REG_ALGO_PHASECAL_CONFIG_TIMEOUT, 0x07);
 976:Api\core\src/vl53l0x_api_core.c **** 
 977:Api\core\src/vl53l0x_api_core.c **** 			Status |= VL53L0X_WrByte(Dev, 0xff, 0x01);
 2714              		.loc 1 977 0
 2715 0226 0122     		movs	r2, #1
 2716 0228 FF21     		movs	r1, #255
 2717 022a 2000     		movs	r0, r4
 2718 022c FFF7FEFF 		bl	VL53L0X_WrByte
 2719              	.LVL500:
 2720 0230 2843     		orrs	r0, r5
 2721 0232 45B2     		sxtb	r5, r0
 2722              	.LVL501:
 978:Api\core\src/vl53l0x_api_core.c **** 			Status |= VL53L0X_WrByte(Dev,
 2723              		.loc 1 978 0
 2724 0234 2022     		movs	r2, #32
 2725 0236 3021     		movs	r1, #48
 2726 0238 2000     		movs	r0, r4
 2727 023a FFF7FEFF 		bl	VL53L0X_WrByte
 2728              	.LVL502:
 2729 023e 2843     		orrs	r0, r5
 2730 0240 45B2     		sxtb	r5, r0
 2731              	.LVL503:
 979:Api\core\src/vl53l0x_api_core.c **** 				VL53L0X_REG_ALGO_PHASECAL_LIM,
ARM GAS  C:\Users\Rajesh\AppData\Local\Temp\ccMJoliC.s 			page 67


 980:Api\core\src/vl53l0x_api_core.c **** 				0x20);
 981:Api\core\src/vl53l0x_api_core.c **** 			Status |= VL53L0X_WrByte(Dev, 0xff, 0x00);
 2732              		.loc 1 981 0
 2733 0242 0022     		movs	r2, #0
 2734 0244 FF21     		movs	r1, #255
 2735 0246 2000     		movs	r0, r4
 2736 0248 FFF7FEFF 		bl	VL53L0X_WrByte
 2737              	.LVL504:
 2738 024c 2843     		orrs	r0, r5
 2739 024e 40B2     		sxtb	r0, r0
 2740              	.LVL505:
 2741              	.L97:
 982:Api\core\src/vl53l0x_api_core.c **** 		}
 983:Api\core\src/vl53l0x_api_core.c **** 	}
 984:Api\core\src/vl53l0x_api_core.c **** 
 985:Api\core\src/vl53l0x_api_core.c **** 
 986:Api\core\src/vl53l0x_api_core.c **** 	/* Re-calculate and apply timeouts, in macro periods */
 987:Api\core\src/vl53l0x_api_core.c **** 
 988:Api\core\src/vl53l0x_api_core.c **** 	if (Status == VL53L0X_ERROR_NONE) {
 2742              		.loc 1 988 0
 2743 0250 0028     		cmp	r0, #0
 2744 0252 44D1     		bne	.L103
 989:Api\core\src/vl53l0x_api_core.c **** 		vcsel_period_reg = VL53L0X_encode_vcsel_period((uint8_t)
 2745              		.loc 1 989 0
 2746 0254 3000     		movs	r0, r6
 2747              	.LVL506:
 2748 0256 FFF7FEFF 		bl	VL53L0X_encode_vcsel_period
 2749              	.LVL507:
 2750 025a 0500     		movs	r5, r0
 2751              	.LVL508:
 990:Api\core\src/vl53l0x_api_core.c **** 			VCSELPulsePeriodPCLK);
 991:Api\core\src/vl53l0x_api_core.c **** 
 992:Api\core\src/vl53l0x_api_core.c **** 		/* When the VCSEL period for the pre or final range is changed,
 993:Api\core\src/vl53l0x_api_core.c **** 		* the corresponding timeout must be read from the device using
 994:Api\core\src/vl53l0x_api_core.c **** 		* the current VCSEL period, then the new VCSEL period can be
 995:Api\core\src/vl53l0x_api_core.c **** 		* applied. The timeout then must be written back to the device
 996:Api\core\src/vl53l0x_api_core.c **** 		* using the new VCSEL period.
 997:Api\core\src/vl53l0x_api_core.c **** 		*
 998:Api\core\src/vl53l0x_api_core.c **** 		* For the MSRC timeout, the same applies - this timeout being
 999:Api\core\src/vl53l0x_api_core.c **** 		* dependant on the pre-range vcsel period.
1000:Api\core\src/vl53l0x_api_core.c **** 		*/
1001:Api\core\src/vl53l0x_api_core.c **** 		switch (VcselPeriodType) {
 2752              		.loc 1 1001 0
 2753 025c 002F     		cmp	r7, #0
 2754 025e 02D0     		beq	.L104
 2755 0260 012F     		cmp	r7, #1
 2756 0262 24D0     		beq	.L105
 2757 0264 39E0     		b	.L120
 2758              	.L104:
1002:Api\core\src/vl53l0x_api_core.c **** 		case VL53L0X_VCSEL_PERIOD_PRE_RANGE:
1003:Api\core\src/vl53l0x_api_core.c **** 			Status = get_sequence_step_timeout(Dev,
 2759              		.loc 1 1003 0
 2760 0266 02AA     		add	r2, sp, #8
 2761 0268 0321     		movs	r1, #3
 2762 026a 2000     		movs	r0, r4
 2763 026c FFF7FEFF 		bl	get_sequence_step_timeout
 2764              	.LVL509:
ARM GAS  C:\Users\Rajesh\AppData\Local\Temp\ccMJoliC.s 			page 68


1004:Api\core\src/vl53l0x_api_core.c **** 				VL53L0X_SEQUENCESTEP_PRE_RANGE,
1005:Api\core\src/vl53l0x_api_core.c **** 				&PreRangeTimeoutMicroSeconds);
1006:Api\core\src/vl53l0x_api_core.c **** 
1007:Api\core\src/vl53l0x_api_core.c **** 			if (Status == VL53L0X_ERROR_NONE)
 2765              		.loc 1 1007 0
 2766 0270 0028     		cmp	r0, #0
 2767 0272 04D1     		bne	.L106
1008:Api\core\src/vl53l0x_api_core.c **** 				Status = get_sequence_step_timeout(Dev,
 2768              		.loc 1 1008 0
 2769 0274 01AA     		add	r2, sp, #4
 2770 0276 0221     		movs	r1, #2
 2771 0278 2000     		movs	r0, r4
 2772              	.LVL510:
 2773 027a FFF7FEFF 		bl	get_sequence_step_timeout
 2774              	.LVL511:
 2775              	.L106:
1009:Api\core\src/vl53l0x_api_core.c **** 					VL53L0X_SEQUENCESTEP_MSRC,
1010:Api\core\src/vl53l0x_api_core.c **** 					&MsrcTimeoutMicroSeconds);
1011:Api\core\src/vl53l0x_api_core.c **** 
1012:Api\core\src/vl53l0x_api_core.c **** 			if (Status == VL53L0X_ERROR_NONE)
 2776              		.loc 1 1012 0
 2777 027e 0028     		cmp	r0, #0
 2778 0280 04D1     		bne	.L107
1013:Api\core\src/vl53l0x_api_core.c **** 				Status = VL53L0X_WrByte(Dev,
 2779              		.loc 1 1013 0
 2780 0282 2A00     		movs	r2, r5
 2781 0284 5021     		movs	r1, #80
 2782 0286 2000     		movs	r0, r4
 2783              	.LVL512:
 2784 0288 FFF7FEFF 		bl	VL53L0X_WrByte
 2785              	.LVL513:
 2786              	.L107:
1014:Api\core\src/vl53l0x_api_core.c **** 				VL53L0X_REG_PRE_RANGE_CONFIG_VCSEL_PERIOD,
1015:Api\core\src/vl53l0x_api_core.c **** 					vcsel_period_reg);
1016:Api\core\src/vl53l0x_api_core.c **** 
1017:Api\core\src/vl53l0x_api_core.c **** 
1018:Api\core\src/vl53l0x_api_core.c **** 			if (Status == VL53L0X_ERROR_NONE)
 2787              		.loc 1 1018 0
 2788 028c 0028     		cmp	r0, #0
 2789 028e 04D1     		bne	.L108
1019:Api\core\src/vl53l0x_api_core.c **** 				Status = set_sequence_step_timeout(Dev,
 2790              		.loc 1 1019 0
 2791 0290 029A     		ldr	r2, [sp, #8]
 2792 0292 0321     		movs	r1, #3
 2793 0294 2000     		movs	r0, r4
 2794              	.LVL514:
 2795 0296 FFF7FEFF 		bl	set_sequence_step_timeout
 2796              	.LVL515:
 2797              	.L108:
1020:Api\core\src/vl53l0x_api_core.c **** 					VL53L0X_SEQUENCESTEP_PRE_RANGE,
1021:Api\core\src/vl53l0x_api_core.c **** 					PreRangeTimeoutMicroSeconds);
1022:Api\core\src/vl53l0x_api_core.c **** 
1023:Api\core\src/vl53l0x_api_core.c **** 
1024:Api\core\src/vl53l0x_api_core.c **** 			if (Status == VL53L0X_ERROR_NONE)
 2798              		.loc 1 1024 0
 2799 029a 0028     		cmp	r0, #0
 2800 029c 04D1     		bne	.L109
ARM GAS  C:\Users\Rajesh\AppData\Local\Temp\ccMJoliC.s 			page 69


1025:Api\core\src/vl53l0x_api_core.c **** 				Status = set_sequence_step_timeout(Dev,
 2801              		.loc 1 1025 0
 2802 029e 019A     		ldr	r2, [sp, #4]
 2803 02a0 0221     		movs	r1, #2
 2804 02a2 2000     		movs	r0, r4
 2805              	.LVL516:
 2806 02a4 FFF7FEFF 		bl	set_sequence_step_timeout
 2807              	.LVL517:
 2808              	.L109:
1026:Api\core\src/vl53l0x_api_core.c **** 					VL53L0X_SEQUENCESTEP_MSRC,
1027:Api\core\src/vl53l0x_api_core.c **** 					MsrcTimeoutMicroSeconds);
1028:Api\core\src/vl53l0x_api_core.c **** 
1029:Api\core\src/vl53l0x_api_core.c **** 			VL53L0X_SETDEVICESPECIFICPARAMETER(
 2809              		.loc 1 1029 0
 2810 02a8 E823     		movs	r3, #232
 2811 02aa E654     		strb	r6, [r4, r3]
1030:Api\core\src/vl53l0x_api_core.c **** 				Dev,
1031:Api\core\src/vl53l0x_api_core.c **** 				PreRangeVcselPulsePeriod,
1032:Api\core\src/vl53l0x_api_core.c **** 				VCSELPulsePeriodPCLK);
1033:Api\core\src/vl53l0x_api_core.c **** 			break;
 2812              		.loc 1 1033 0
 2813 02ac 17E0     		b	.L103
 2814              	.LVL518:
 2815              	.L105:
1034:Api\core\src/vl53l0x_api_core.c **** 		case VL53L0X_VCSEL_PERIOD_FINAL_RANGE:
1035:Api\core\src/vl53l0x_api_core.c **** 			Status = get_sequence_step_timeout(Dev,
 2816              		.loc 1 1035 0
 2817 02ae 03AA     		add	r2, sp, #12
 2818 02b0 0421     		movs	r1, #4
 2819 02b2 2000     		movs	r0, r4
 2820 02b4 FFF7FEFF 		bl	get_sequence_step_timeout
 2821              	.LVL519:
1036:Api\core\src/vl53l0x_api_core.c **** 				VL53L0X_SEQUENCESTEP_FINAL_RANGE,
1037:Api\core\src/vl53l0x_api_core.c **** 				&FinalRangeTimeoutMicroSeconds);
1038:Api\core\src/vl53l0x_api_core.c **** 
1039:Api\core\src/vl53l0x_api_core.c **** 			if (Status == VL53L0X_ERROR_NONE)
 2822              		.loc 1 1039 0
 2823 02b8 0028     		cmp	r0, #0
 2824 02ba 04D1     		bne	.L110
1040:Api\core\src/vl53l0x_api_core.c **** 				Status = VL53L0X_WrByte(Dev,
 2825              		.loc 1 1040 0
 2826 02bc 2A00     		movs	r2, r5
 2827 02be 7021     		movs	r1, #112
 2828 02c0 2000     		movs	r0, r4
 2829              	.LVL520:
 2830 02c2 FFF7FEFF 		bl	VL53L0X_WrByte
 2831              	.LVL521:
 2832              	.L110:
1041:Api\core\src/vl53l0x_api_core.c **** 				VL53L0X_REG_FINAL_RANGE_CONFIG_VCSEL_PERIOD,
1042:Api\core\src/vl53l0x_api_core.c **** 					vcsel_period_reg);
1043:Api\core\src/vl53l0x_api_core.c **** 
1044:Api\core\src/vl53l0x_api_core.c **** 
1045:Api\core\src/vl53l0x_api_core.c **** 			if (Status == VL53L0X_ERROR_NONE)
 2833              		.loc 1 1045 0
 2834 02c6 0028     		cmp	r0, #0
 2835 02c8 04D1     		bne	.L111
1046:Api\core\src/vl53l0x_api_core.c **** 				Status = set_sequence_step_timeout(Dev,
ARM GAS  C:\Users\Rajesh\AppData\Local\Temp\ccMJoliC.s 			page 70


 2836              		.loc 1 1046 0
 2837 02ca 039A     		ldr	r2, [sp, #12]
 2838 02cc 0421     		movs	r1, #4
 2839 02ce 2000     		movs	r0, r4
 2840              	.LVL522:
 2841 02d0 FFF7FEFF 		bl	set_sequence_step_timeout
 2842              	.LVL523:
 2843              	.L111:
1047:Api\core\src/vl53l0x_api_core.c **** 					VL53L0X_SEQUENCESTEP_FINAL_RANGE,
1048:Api\core\src/vl53l0x_api_core.c **** 					FinalRangeTimeoutMicroSeconds);
1049:Api\core\src/vl53l0x_api_core.c **** 
1050:Api\core\src/vl53l0x_api_core.c **** 			VL53L0X_SETDEVICESPECIFICPARAMETER(
 2844              		.loc 1 1050 0
 2845 02d4 E023     		movs	r3, #224
 2846 02d6 E654     		strb	r6, [r4, r3]
1051:Api\core\src/vl53l0x_api_core.c **** 				Dev,
1052:Api\core\src/vl53l0x_api_core.c **** 				FinalRangeVcselPulsePeriod,
1053:Api\core\src/vl53l0x_api_core.c **** 				VCSELPulsePeriodPCLK);
1054:Api\core\src/vl53l0x_api_core.c **** 			break;
 2847              		.loc 1 1054 0
 2848 02d8 01E0     		b	.L103
 2849              	.LVL524:
 2850              	.L120:
1055:Api\core\src/vl53l0x_api_core.c **** 		default:
1056:Api\core\src/vl53l0x_api_core.c **** 			Status = VL53L0X_ERROR_INVALID_PARAMS;
 2851              		.loc 1 1056 0
 2852 02da 0420     		movs	r0, #4
 2853 02dc 4042     		rsbs	r0, r0, #0
 2854              	.LVL525:
 2855              	.L103:
1057:Api\core\src/vl53l0x_api_core.c **** 		}
1058:Api\core\src/vl53l0x_api_core.c **** 	}
1059:Api\core\src/vl53l0x_api_core.c **** 
1060:Api\core\src/vl53l0x_api_core.c **** 	/* Finally, the timing budget must be re-applied */
1061:Api\core\src/vl53l0x_api_core.c **** 	if (Status == VL53L0X_ERROR_NONE) {
 2856              		.loc 1 1061 0
 2857 02de 0028     		cmp	r0, #0
 2858 02e0 03D1     		bne	.L112
 2859              	.LVL526:
1062:Api\core\src/vl53l0x_api_core.c **** 		VL53L0X_GETPARAMETERFIELD(Dev,
1063:Api\core\src/vl53l0x_api_core.c **** 			MeasurementTimingBudgetMicroSeconds,
1064:Api\core\src/vl53l0x_api_core.c **** 			MeasurementTimingBudgetMicroSeconds);
1065:Api\core\src/vl53l0x_api_core.c **** 
1066:Api\core\src/vl53l0x_api_core.c **** 		Status = VL53L0X_SetMeasurementTimingBudgetMicroSeconds(Dev,
 2860              		.loc 1 1066 0
 2861 02e2 6169     		ldr	r1, [r4, #20]
 2862 02e4 2000     		movs	r0, r4
 2863              	.LVL527:
 2864 02e6 FFF7FEFF 		bl	VL53L0X_SetMeasurementTimingBudgetMicroSeconds
 2865              	.LVL528:
 2866              	.L112:
1067:Api\core\src/vl53l0x_api_core.c **** 				MeasurementTimingBudgetMicroSeconds);
1068:Api\core\src/vl53l0x_api_core.c **** 	}
1069:Api\core\src/vl53l0x_api_core.c **** 
1070:Api\core\src/vl53l0x_api_core.c **** 	/* Perform the phase calibration. This is needed after changing on
1071:Api\core\src/vl53l0x_api_core.c **** 	 * vcsel period.
1072:Api\core\src/vl53l0x_api_core.c **** 	 * get_data_enable = 0, restore_config = 1 */
ARM GAS  C:\Users\Rajesh\AppData\Local\Temp\ccMJoliC.s 			page 71


1073:Api\core\src/vl53l0x_api_core.c **** 	if (Status == VL53L0X_ERROR_NONE)
 2867              		.loc 1 1073 0
 2868 02ea 0028     		cmp	r0, #0
 2869 02ec 06D1     		bne	.L94
1074:Api\core\src/vl53l0x_api_core.c **** 		Status = VL53L0X_perform_phase_calibration(
 2870              		.loc 1 1074 0
 2871 02ee 0123     		movs	r3, #1
 2872 02f0 0022     		movs	r2, #0
 2873 02f2 6946     		mov	r1, sp
 2874 02f4 0331     		adds	r1, r1, #3
 2875 02f6 2000     		movs	r0, r4
 2876              	.LVL529:
 2877 02f8 FFF7FEFF 		bl	VL53L0X_perform_phase_calibration
 2878              	.LVL530:
 2879              	.L94:
1075:Api\core\src/vl53l0x_api_core.c **** 			Dev, &PhaseCalInt, 0, 1);
1076:Api\core\src/vl53l0x_api_core.c **** 
1077:Api\core\src/vl53l0x_api_core.c **** 	return Status;
1078:Api\core\src/vl53l0x_api_core.c **** }
 2880              		.loc 1 1078 0
 2881 02fc 05B0     		add	sp, sp, #20
 2882              		@ sp needed
 2883              	.LVL531:
 2884 02fe F0BD     		pop	{r4, r5, r6, r7, pc}
 2885              		.cfi_endproc
 2886              	.LFE16:
 2887              		.size	VL53L0X_set_vcsel_pulse_period, .-VL53L0X_set_vcsel_pulse_period
 2888              		.section	.text.VL53L0X_get_vcsel_pulse_period,"ax",%progbits
 2889              		.align	2
 2890              		.global	VL53L0X_get_vcsel_pulse_period
 2891              		.code	16
 2892              		.thumb_func
 2893              		.type	VL53L0X_get_vcsel_pulse_period, %function
 2894              	VL53L0X_get_vcsel_pulse_period:
 2895              	.LFB17:
1079:Api\core\src/vl53l0x_api_core.c **** 
1080:Api\core\src/vl53l0x_api_core.c **** VL53L0X_Error VL53L0X_get_vcsel_pulse_period(VL53L0X_DEV Dev,
1081:Api\core\src/vl53l0x_api_core.c **** 	VL53L0X_VcselPeriod VcselPeriodType, uint8_t *pVCSELPulsePeriodPCLK)
1082:Api\core\src/vl53l0x_api_core.c **** {
 2896              		.loc 1 1082 0
 2897              		.cfi_startproc
 2898              		@ args = 0, pretend = 0, frame = 8
 2899              		@ frame_needed = 0, uses_anonymous_args = 0
 2900              	.LVL532:
 2901 0000 30B5     		push	{r4, r5, lr}
 2902              		.cfi_def_cfa_offset 12
 2903              		.cfi_offset 4, -12
 2904              		.cfi_offset 5, -8
 2905              		.cfi_offset 14, -4
 2906 0002 83B0     		sub	sp, sp, #12
 2907              		.cfi_def_cfa_offset 24
 2908 0004 1500     		movs	r5, r2
 2909              	.LVL533:
1083:Api\core\src/vl53l0x_api_core.c **** 	VL53L0X_Error Status = VL53L0X_ERROR_NONE;
1084:Api\core\src/vl53l0x_api_core.c **** 	uint8_t vcsel_period_reg;
1085:Api\core\src/vl53l0x_api_core.c **** 
1086:Api\core\src/vl53l0x_api_core.c **** 	switch (VcselPeriodType) {
ARM GAS  C:\Users\Rajesh\AppData\Local\Temp\ccMJoliC.s 			page 72


 2910              		.loc 1 1086 0
 2911 0006 0029     		cmp	r1, #0
 2912 0008 02D0     		beq	.L123
 2913 000a 0129     		cmp	r1, #1
 2914 000c 07D0     		beq	.L124
 2915 000e 0DE0     		b	.L127
 2916              	.L123:
1087:Api\core\src/vl53l0x_api_core.c **** 	case VL53L0X_VCSEL_PERIOD_PRE_RANGE:
1088:Api\core\src/vl53l0x_api_core.c **** 		Status = VL53L0X_RdByte(Dev,
 2917              		.loc 1 1088 0
 2918 0010 6B46     		mov	r3, sp
 2919 0012 DA1D     		adds	r2, r3, #7
 2920              	.LVL534:
 2921 0014 5021     		movs	r1, #80
 2922              	.LVL535:
 2923 0016 FFF7FEFF 		bl	VL53L0X_RdByte
 2924              	.LVL536:
 2925 001a 0400     		movs	r4, r0
 2926              	.LVL537:
1089:Api\core\src/vl53l0x_api_core.c **** 			VL53L0X_REG_PRE_RANGE_CONFIG_VCSEL_PERIOD,
1090:Api\core\src/vl53l0x_api_core.c **** 			&vcsel_period_reg);
1091:Api\core\src/vl53l0x_api_core.c **** 	break;
 2927              		.loc 1 1091 0
 2928 001c 08E0     		b	.L122
 2929              	.LVL538:
 2930              	.L124:
1092:Api\core\src/vl53l0x_api_core.c **** 	case VL53L0X_VCSEL_PERIOD_FINAL_RANGE:
1093:Api\core\src/vl53l0x_api_core.c **** 		Status = VL53L0X_RdByte(Dev,
 2931              		.loc 1 1093 0
 2932 001e 6B46     		mov	r3, sp
 2933 0020 DA1D     		adds	r2, r3, #7
 2934              	.LVL539:
 2935 0022 7021     		movs	r1, #112
 2936              	.LVL540:
 2937 0024 FFF7FEFF 		bl	VL53L0X_RdByte
 2938              	.LVL541:
 2939 0028 0400     		movs	r4, r0
 2940              	.LVL542:
1094:Api\core\src/vl53l0x_api_core.c **** 			VL53L0X_REG_FINAL_RANGE_CONFIG_VCSEL_PERIOD,
1095:Api\core\src/vl53l0x_api_core.c **** 			&vcsel_period_reg);
1096:Api\core\src/vl53l0x_api_core.c **** 	break;
 2941              		.loc 1 1096 0
 2942 002a 01E0     		b	.L122
 2943              	.LVL543:
 2944              	.L127:
1097:Api\core\src/vl53l0x_api_core.c **** 	default:
1098:Api\core\src/vl53l0x_api_core.c **** 		Status = VL53L0X_ERROR_INVALID_PARAMS;
 2945              		.loc 1 1098 0
 2946 002c 0424     		movs	r4, #4
 2947 002e 6442     		rsbs	r4, r4, #0
 2948              	.LVL544:
 2949              	.L122:
1099:Api\core\src/vl53l0x_api_core.c **** 	}
1100:Api\core\src/vl53l0x_api_core.c **** 
1101:Api\core\src/vl53l0x_api_core.c **** 	if (Status == VL53L0X_ERROR_NONE)
 2950              		.loc 1 1101 0
 2951 0030 002C     		cmp	r4, #0
ARM GAS  C:\Users\Rajesh\AppData\Local\Temp\ccMJoliC.s 			page 73


 2952 0032 04D1     		bne	.L125
1102:Api\core\src/vl53l0x_api_core.c **** 		*pVCSELPulsePeriodPCLK =
1103:Api\core\src/vl53l0x_api_core.c **** 			VL53L0X_decode_vcsel_period(vcsel_period_reg);
 2953              		.loc 1 1103 0
 2954 0034 6B46     		mov	r3, sp
 2955 0036 D879     		ldrb	r0, [r3, #7]
 2956 0038 FFF7FEFF 		bl	VL53L0X_decode_vcsel_period
 2957              	.LVL545:
1102:Api\core\src/vl53l0x_api_core.c **** 		*pVCSELPulsePeriodPCLK =
 2958              		.loc 1 1102 0
 2959 003c 2870     		strb	r0, [r5]
 2960              	.L125:
1104:Api\core\src/vl53l0x_api_core.c **** 
1105:Api\core\src/vl53l0x_api_core.c **** 	return Status;
1106:Api\core\src/vl53l0x_api_core.c **** }
 2961              		.loc 1 1106 0
 2962 003e 2000     		movs	r0, r4
 2963 0040 03B0     		add	sp, sp, #12
 2964              		@ sp needed
 2965              	.LVL546:
 2966              	.LVL547:
 2967 0042 30BD     		pop	{r4, r5, pc}
 2968              		.cfi_endproc
 2969              	.LFE17:
 2970              		.size	VL53L0X_get_vcsel_pulse_period, .-VL53L0X_get_vcsel_pulse_period
 2971              		.section	.text.VL53L0X_set_measurement_timing_budget_micro_seconds,"ax",%progbits
 2972              		.align	2
 2973              		.global	VL53L0X_set_measurement_timing_budget_micro_seconds
 2974              		.code	16
 2975              		.thumb_func
 2976              		.type	VL53L0X_set_measurement_timing_budget_micro_seconds, %function
 2977              	VL53L0X_set_measurement_timing_budget_micro_seconds:
 2978              	.LFB18:
1107:Api\core\src/vl53l0x_api_core.c **** 
1108:Api\core\src/vl53l0x_api_core.c **** 
1109:Api\core\src/vl53l0x_api_core.c **** 
1110:Api\core\src/vl53l0x_api_core.c **** VL53L0X_Error VL53L0X_set_measurement_timing_budget_micro_seconds(VL53L0X_DEV Dev,
1111:Api\core\src/vl53l0x_api_core.c **** 		uint32_t MeasurementTimingBudgetMicroSeconds)
1112:Api\core\src/vl53l0x_api_core.c **** {
 2979              		.loc 1 1112 0
 2980              		.cfi_startproc
 2981              		@ args = 0, pretend = 0, frame = 16
 2982              		@ frame_needed = 0, uses_anonymous_args = 0
 2983              	.LVL548:
 2984 0000 70B5     		push	{r4, r5, r6, lr}
 2985              		.cfi_def_cfa_offset 16
 2986              		.cfi_offset 4, -16
 2987              		.cfi_offset 5, -12
 2988              		.cfi_offset 6, -8
 2989              		.cfi_offset 14, -4
 2990 0002 84B0     		sub	sp, sp, #16
 2991              		.cfi_def_cfa_offset 32
 2992 0004 0500     		movs	r5, r0
 2993 0006 0C00     		movs	r4, r1
 2994              	.LVL549:
1113:Api\core\src/vl53l0x_api_core.c **** 	VL53L0X_Error Status = VL53L0X_ERROR_NONE;
1114:Api\core\src/vl53l0x_api_core.c **** 	uint32_t FinalRangeTimingBudgetMicroSeconds;
ARM GAS  C:\Users\Rajesh\AppData\Local\Temp\ccMJoliC.s 			page 74


1115:Api\core\src/vl53l0x_api_core.c **** 	VL53L0X_SchedulerSequenceSteps_t SchedulerSequenceSteps;
1116:Api\core\src/vl53l0x_api_core.c **** 	uint32_t MsrcDccTccTimeoutMicroSeconds	= 2000;
 2995              		.loc 1 1116 0
 2996 0008 FA23     		movs	r3, #250
 2997 000a DB00     		lsls	r3, r3, #3
 2998 000c 0193     		str	r3, [sp, #4]
 2999              	.LVL550:
1117:Api\core\src/vl53l0x_api_core.c **** 	uint32_t StartOverheadMicroSeconds		= 1910;
1118:Api\core\src/vl53l0x_api_core.c **** 	uint32_t EndOverheadMicroSeconds		= 960;
1119:Api\core\src/vl53l0x_api_core.c **** 	uint32_t MsrcOverheadMicroSeconds		= 660;
1120:Api\core\src/vl53l0x_api_core.c **** 	uint32_t TccOverheadMicroSeconds		= 590;
1121:Api\core\src/vl53l0x_api_core.c **** 	uint32_t DssOverheadMicroSeconds		= 690;
1122:Api\core\src/vl53l0x_api_core.c **** 	uint32_t PreRangeOverheadMicroSeconds	= 660;
1123:Api\core\src/vl53l0x_api_core.c **** 	uint32_t FinalRangeOverheadMicroSeconds = 550;
1124:Api\core\src/vl53l0x_api_core.c **** 	uint32_t PreRangeTimeoutMicroSeconds	= 0;
 3000              		.loc 1 1124 0
 3001 000e 0023     		movs	r3, #0
 3002 0010 0093     		str	r3, [sp]
 3003              	.LVL551:
1125:Api\core\src/vl53l0x_api_core.c **** 	uint32_t cMinTimingBudgetMicroSeconds	= 20000;
1126:Api\core\src/vl53l0x_api_core.c **** 	uint32_t SubTimeout = 0;
1127:Api\core\src/vl53l0x_api_core.c **** 
1128:Api\core\src/vl53l0x_api_core.c **** 	LOG_FUNCTION_START("");
1129:Api\core\src/vl53l0x_api_core.c **** 
1130:Api\core\src/vl53l0x_api_core.c **** 	if (MeasurementTimingBudgetMicroSeconds
 3004              		.loc 1 1130 0
 3005 0012 3A4B     		ldr	r3, .L145
 3006 0014 9942     		cmp	r1, r3
 3007 0016 6CD9     		bls	.L135
1131:Api\core\src/vl53l0x_api_core.c **** 			< cMinTimingBudgetMicroSeconds) {
1132:Api\core\src/vl53l0x_api_core.c **** 		Status = VL53L0X_ERROR_INVALID_PARAMS;
1133:Api\core\src/vl53l0x_api_core.c **** 		return Status;
1134:Api\core\src/vl53l0x_api_core.c **** 	}
1135:Api\core\src/vl53l0x_api_core.c **** 
1136:Api\core\src/vl53l0x_api_core.c **** 	FinalRangeTimingBudgetMicroSeconds =
 3008              		.loc 1 1136 0
 3009 0018 394B     		ldr	r3, .L145+4
 3010 001a CE18     		adds	r6, r1, r3
 3011              	.LVL552:
1137:Api\core\src/vl53l0x_api_core.c **** 		MeasurementTimingBudgetMicroSeconds -
1138:Api\core\src/vl53l0x_api_core.c **** 		(StartOverheadMicroSeconds + EndOverheadMicroSeconds);
1139:Api\core\src/vl53l0x_api_core.c **** 
1140:Api\core\src/vl53l0x_api_core.c **** 	Status = VL53L0X_GetSequenceStepEnables(Dev, &SchedulerSequenceSteps);
 3012              		.loc 1 1140 0
 3013 001c 02A9     		add	r1, sp, #8
 3014              	.LVL553:
 3015 001e FFF7FEFF 		bl	VL53L0X_GetSequenceStepEnables
 3016              	.LVL554:
1141:Api\core\src/vl53l0x_api_core.c **** 
1142:Api\core\src/vl53l0x_api_core.c **** 	if (Status == VL53L0X_ERROR_NONE &&
 3017              		.loc 1 1142 0
 3018 0022 0028     		cmp	r0, #0
 3019 0024 41D1     		bne	.L130
1143:Api\core\src/vl53l0x_api_core.c **** 		(SchedulerSequenceSteps.TccOn  ||
 3020              		.loc 1 1143 0 discriminator 1
 3021 0026 02AB     		add	r3, sp, #8
 3022 0028 1B78     		ldrb	r3, [r3]
ARM GAS  C:\Users\Rajesh\AppData\Local\Temp\ccMJoliC.s 			page 75


1142:Api\core\src/vl53l0x_api_core.c **** 		(SchedulerSequenceSteps.TccOn  ||
 3023              		.loc 1 1142 0 discriminator 1
 3024 002a 002B     		cmp	r3, #0
 3025 002c 07D1     		bne	.L131
1144:Api\core\src/vl53l0x_api_core.c **** 		SchedulerSequenceSteps.MsrcOn ||
 3026              		.loc 1 1144 0
 3027 002e 02AB     		add	r3, sp, #8
 3028 0030 5B78     		ldrb	r3, [r3, #1]
1143:Api\core\src/vl53l0x_api_core.c **** 		(SchedulerSequenceSteps.TccOn  ||
 3029              		.loc 1 1143 0
 3030 0032 002B     		cmp	r3, #0
 3031 0034 03D1     		bne	.L131
1145:Api\core\src/vl53l0x_api_core.c **** 		SchedulerSequenceSteps.DssOn)) {
 3032              		.loc 1 1145 0
 3033 0036 02AB     		add	r3, sp, #8
 3034 0038 9B78     		ldrb	r3, [r3, #2]
1144:Api\core\src/vl53l0x_api_core.c **** 		SchedulerSequenceSteps.MsrcOn ||
 3035              		.loc 1 1144 0
 3036 003a 002B     		cmp	r3, #0
 3037 003c 35D0     		beq	.L130
 3038              	.L131:
1146:Api\core\src/vl53l0x_api_core.c **** 
1147:Api\core\src/vl53l0x_api_core.c **** 		/* TCC, MSRC and DSS all share the same timeout */
1148:Api\core\src/vl53l0x_api_core.c **** 		Status = get_sequence_step_timeout(Dev,
 3039              		.loc 1 1148 0
 3040 003e 01AA     		add	r2, sp, #4
 3041 0040 0221     		movs	r1, #2
 3042 0042 2800     		movs	r0, r5
 3043              	.LVL555:
 3044 0044 FFF7FEFF 		bl	get_sequence_step_timeout
 3045              	.LVL556:
1149:Api\core\src/vl53l0x_api_core.c **** 					VL53L0X_SEQUENCESTEP_MSRC,
1150:Api\core\src/vl53l0x_api_core.c **** 					&MsrcDccTccTimeoutMicroSeconds);
1151:Api\core\src/vl53l0x_api_core.c **** 
1152:Api\core\src/vl53l0x_api_core.c **** 		/* Subtract the TCC, MSRC and DSS timeouts if they are
1153:Api\core\src/vl53l0x_api_core.c **** 		 * enabled. */
1154:Api\core\src/vl53l0x_api_core.c **** 
1155:Api\core\src/vl53l0x_api_core.c **** 		if (Status != VL53L0X_ERROR_NONE)
 3046              		.loc 1 1155 0
 3047 0048 0028     		cmp	r0, #0
 3048 004a 55D1     		bne	.L136
1156:Api\core\src/vl53l0x_api_core.c **** 			return Status;
1157:Api\core\src/vl53l0x_api_core.c **** 
1158:Api\core\src/vl53l0x_api_core.c **** 		/* TCC */
1159:Api\core\src/vl53l0x_api_core.c **** 		if (SchedulerSequenceSteps.TccOn) {
 3049              		.loc 1 1159 0
 3050 004c 02AB     		add	r3, sp, #8
 3051 004e 1B78     		ldrb	r3, [r3]
 3052 0050 002B     		cmp	r3, #0
 3053 0052 09D0     		beq	.L132
1160:Api\core\src/vl53l0x_api_core.c **** 
1161:Api\core\src/vl53l0x_api_core.c **** 			SubTimeout = MsrcDccTccTimeoutMicroSeconds
 3054              		.loc 1 1161 0
 3055 0054 019B     		ldr	r3, [sp, #4]
 3056 0056 2B4A     		ldr	r2, .L145+8
 3057 0058 9446     		mov	ip, r2
 3058 005a 6344     		add	r3, r3, ip
ARM GAS  C:\Users\Rajesh\AppData\Local\Temp\ccMJoliC.s 			page 76


 3059              	.LVL557:
1162:Api\core\src/vl53l0x_api_core.c **** 				+ TccOverheadMicroSeconds;
1163:Api\core\src/vl53l0x_api_core.c **** 
1164:Api\core\src/vl53l0x_api_core.c **** 			if (SubTimeout <
 3060              		.loc 1 1164 0
 3061 005c 9E42     		cmp	r6, r3
 3062 005e 01D9     		bls	.L137
1165:Api\core\src/vl53l0x_api_core.c **** 				FinalRangeTimingBudgetMicroSeconds) {
1166:Api\core\src/vl53l0x_api_core.c **** 				FinalRangeTimingBudgetMicroSeconds -=
 3063              		.loc 1 1166 0
 3064 0060 F61A     		subs	r6, r6, r3
 3065              	.LVL558:
 3066 0062 01E0     		b	.L132
 3067              	.L137:
1167:Api\core\src/vl53l0x_api_core.c **** 							SubTimeout;
1168:Api\core\src/vl53l0x_api_core.c **** 			} else {
1169:Api\core\src/vl53l0x_api_core.c **** 				/* Requested timeout too big. */
1170:Api\core\src/vl53l0x_api_core.c **** 				Status = VL53L0X_ERROR_INVALID_PARAMS;
 3068              		.loc 1 1170 0
 3069 0064 0420     		movs	r0, #4
 3070              	.LVL559:
 3071 0066 4042     		rsbs	r0, r0, #0
 3072              	.LVL560:
 3073              	.L132:
1171:Api\core\src/vl53l0x_api_core.c **** 			}
1172:Api\core\src/vl53l0x_api_core.c **** 		}
1173:Api\core\src/vl53l0x_api_core.c **** 
1174:Api\core\src/vl53l0x_api_core.c **** 		if (Status != VL53L0X_ERROR_NONE) {
 3074              		.loc 1 1174 0
 3075 0068 0028     		cmp	r0, #0
 3076 006a 45D1     		bne	.L129
1175:Api\core\src/vl53l0x_api_core.c **** 			LOG_FUNCTION_END(Status);
1176:Api\core\src/vl53l0x_api_core.c **** 			return Status;
1177:Api\core\src/vl53l0x_api_core.c **** 		}
1178:Api\core\src/vl53l0x_api_core.c **** 
1179:Api\core\src/vl53l0x_api_core.c **** 		/* DSS */
1180:Api\core\src/vl53l0x_api_core.c **** 		if (SchedulerSequenceSteps.DssOn) {
 3077              		.loc 1 1180 0
 3078 006c 02AB     		add	r3, sp, #8
 3079 006e 9B78     		ldrb	r3, [r3, #2]
 3080 0070 002B     		cmp	r3, #0
 3081 0072 08D0     		beq	.L133
1181:Api\core\src/vl53l0x_api_core.c **** 
1182:Api\core\src/vl53l0x_api_core.c **** 			SubTimeout = 2 * (MsrcDccTccTimeoutMicroSeconds +
 3082              		.loc 1 1182 0
 3083 0074 019B     		ldr	r3, [sp, #4]
 3084 0076 244A     		ldr	r2, .L145+12
 3085 0078 9446     		mov	ip, r2
 3086 007a 6344     		add	r3, r3, ip
 3087 007c 5B00     		lsls	r3, r3, #1
 3088              	.LVL561:
1183:Api\core\src/vl53l0x_api_core.c **** 				DssOverheadMicroSeconds);
1184:Api\core\src/vl53l0x_api_core.c **** 
1185:Api\core\src/vl53l0x_api_core.c **** 			if (SubTimeout < FinalRangeTimingBudgetMicroSeconds) {
 3089              		.loc 1 1185 0
 3090 007e 9E42     		cmp	r6, r3
 3091 0080 0ED9     		bls	.L139
ARM GAS  C:\Users\Rajesh\AppData\Local\Temp\ccMJoliC.s 			page 77


1186:Api\core\src/vl53l0x_api_core.c **** 				FinalRangeTimingBudgetMicroSeconds
1187:Api\core\src/vl53l0x_api_core.c **** 							-= SubTimeout;
 3092              		.loc 1 1187 0
 3093 0082 F61A     		subs	r6, r6, r3
 3094              	.LVL562:
 3095 0084 11E0     		b	.L130
 3096              	.LVL563:
 3097              	.L133:
1188:Api\core\src/vl53l0x_api_core.c **** 			} else {
1189:Api\core\src/vl53l0x_api_core.c **** 				/* Requested timeout too big. */
1190:Api\core\src/vl53l0x_api_core.c **** 				Status = VL53L0X_ERROR_INVALID_PARAMS;
1191:Api\core\src/vl53l0x_api_core.c **** 			}
1192:Api\core\src/vl53l0x_api_core.c **** 		} else if (SchedulerSequenceSteps.MsrcOn) {
 3098              		.loc 1 1192 0
 3099 0086 02AB     		add	r3, sp, #8
 3100 0088 5B78     		ldrb	r3, [r3, #1]
 3101 008a 002B     		cmp	r3, #0
 3102 008c 0DD0     		beq	.L130
1193:Api\core\src/vl53l0x_api_core.c **** 			/* MSRC */
1194:Api\core\src/vl53l0x_api_core.c **** 			SubTimeout = MsrcDccTccTimeoutMicroSeconds +
 3103              		.loc 1 1194 0
 3104 008e 019B     		ldr	r3, [sp, #4]
 3105 0090 A522     		movs	r2, #165
 3106 0092 9200     		lsls	r2, r2, #2
 3107 0094 9446     		mov	ip, r2
 3108 0096 6344     		add	r3, r3, ip
 3109              	.LVL564:
1195:Api\core\src/vl53l0x_api_core.c **** 						MsrcOverheadMicroSeconds;
1196:Api\core\src/vl53l0x_api_core.c **** 
1197:Api\core\src/vl53l0x_api_core.c **** 			if (SubTimeout < FinalRangeTimingBudgetMicroSeconds) {
 3110              		.loc 1 1197 0
 3111 0098 9E42     		cmp	r6, r3
 3112 009a 04D9     		bls	.L140
1198:Api\core\src/vl53l0x_api_core.c **** 				FinalRangeTimingBudgetMicroSeconds
1199:Api\core\src/vl53l0x_api_core.c **** 							-= SubTimeout;
 3113              		.loc 1 1199 0
 3114 009c F61A     		subs	r6, r6, r3
 3115              	.LVL565:
 3116 009e 04E0     		b	.L130
 3117              	.L139:
1190:Api\core\src/vl53l0x_api_core.c **** 			}
 3118              		.loc 1 1190 0
 3119 00a0 0420     		movs	r0, #4
 3120              	.LVL566:
 3121 00a2 4042     		rsbs	r0, r0, #0
 3122 00a4 01E0     		b	.L130
 3123              	.LVL567:
 3124              	.L140:
1200:Api\core\src/vl53l0x_api_core.c **** 			} else {
1201:Api\core\src/vl53l0x_api_core.c **** 				/* Requested timeout too big. */
1202:Api\core\src/vl53l0x_api_core.c **** 				Status = VL53L0X_ERROR_INVALID_PARAMS;
 3125              		.loc 1 1202 0
 3126 00a6 0420     		movs	r0, #4
 3127              	.LVL568:
 3128 00a8 4042     		rsbs	r0, r0, #0
 3129              	.LVL569:
 3130              	.L130:
ARM GAS  C:\Users\Rajesh\AppData\Local\Temp\ccMJoliC.s 			page 78


1203:Api\core\src/vl53l0x_api_core.c **** 			}
1204:Api\core\src/vl53l0x_api_core.c **** 		}
1205:Api\core\src/vl53l0x_api_core.c **** 
1206:Api\core\src/vl53l0x_api_core.c **** 	}
1207:Api\core\src/vl53l0x_api_core.c **** 
1208:Api\core\src/vl53l0x_api_core.c **** 	if (Status != VL53L0X_ERROR_NONE) {
 3131              		.loc 1 1208 0
 3132 00aa 0028     		cmp	r0, #0
 3133 00ac 24D1     		bne	.L129
1209:Api\core\src/vl53l0x_api_core.c **** 		LOG_FUNCTION_END(Status);
1210:Api\core\src/vl53l0x_api_core.c **** 		return Status;
1211:Api\core\src/vl53l0x_api_core.c **** 	}
1212:Api\core\src/vl53l0x_api_core.c **** 
1213:Api\core\src/vl53l0x_api_core.c **** 	if (SchedulerSequenceSteps.PreRangeOn) {
 3134              		.loc 1 1213 0
 3135 00ae 02AB     		add	r3, sp, #8
 3136 00b0 DB78     		ldrb	r3, [r3, #3]
 3137 00b2 002B     		cmp	r3, #0
 3138 00b4 0FD0     		beq	.L134
1214:Api\core\src/vl53l0x_api_core.c **** 
1215:Api\core\src/vl53l0x_api_core.c **** 		/* Subtract the Pre-range timeout if enabled. */
1216:Api\core\src/vl53l0x_api_core.c **** 
1217:Api\core\src/vl53l0x_api_core.c **** 		Status = get_sequence_step_timeout(Dev,
 3139              		.loc 1 1217 0
 3140 00b6 6A46     		mov	r2, sp
 3141 00b8 0321     		movs	r1, #3
 3142 00ba 2800     		movs	r0, r5
 3143              	.LVL570:
 3144 00bc FFF7FEFF 		bl	get_sequence_step_timeout
 3145              	.LVL571:
1218:Api\core\src/vl53l0x_api_core.c **** 				VL53L0X_SEQUENCESTEP_PRE_RANGE,
1219:Api\core\src/vl53l0x_api_core.c **** 				&PreRangeTimeoutMicroSeconds);
1220:Api\core\src/vl53l0x_api_core.c **** 
1221:Api\core\src/vl53l0x_api_core.c **** 		SubTimeout = PreRangeTimeoutMicroSeconds +
 3146              		.loc 1 1221 0
 3147 00c0 009B     		ldr	r3, [sp]
 3148 00c2 A522     		movs	r2, #165
 3149 00c4 9200     		lsls	r2, r2, #2
 3150 00c6 9446     		mov	ip, r2
 3151 00c8 6344     		add	r3, r3, ip
 3152              	.LVL572:
1222:Api\core\src/vl53l0x_api_core.c **** 				PreRangeOverheadMicroSeconds;
1223:Api\core\src/vl53l0x_api_core.c **** 
1224:Api\core\src/vl53l0x_api_core.c **** 		if (SubTimeout < FinalRangeTimingBudgetMicroSeconds) {
 3153              		.loc 1 1224 0
 3154 00ca 9E42     		cmp	r6, r3
 3155 00cc 01D9     		bls	.L142
1225:Api\core\src/vl53l0x_api_core.c **** 			FinalRangeTimingBudgetMicroSeconds -= SubTimeout;
 3156              		.loc 1 1225 0
 3157 00ce F61A     		subs	r6, r6, r3
 3158              	.LVL573:
 3159 00d0 01E0     		b	.L134
 3160              	.L142:
1226:Api\core\src/vl53l0x_api_core.c **** 		} else {
1227:Api\core\src/vl53l0x_api_core.c **** 			/* Requested timeout too big. */
1228:Api\core\src/vl53l0x_api_core.c **** 			Status = VL53L0X_ERROR_INVALID_PARAMS;
 3161              		.loc 1 1228 0
ARM GAS  C:\Users\Rajesh\AppData\Local\Temp\ccMJoliC.s 			page 79


 3162 00d2 0420     		movs	r0, #4
 3163              	.LVL574:
 3164 00d4 4042     		rsbs	r0, r0, #0
 3165              	.LVL575:
 3166              	.L134:
1229:Api\core\src/vl53l0x_api_core.c **** 		}
1230:Api\core\src/vl53l0x_api_core.c **** 	}
1231:Api\core\src/vl53l0x_api_core.c **** 
1232:Api\core\src/vl53l0x_api_core.c **** 
1233:Api\core\src/vl53l0x_api_core.c **** 	if (Status == VL53L0X_ERROR_NONE &&
 3167              		.loc 1 1233 0
 3168 00d6 0028     		cmp	r0, #0
 3169 00d8 0ED1     		bne	.L129
1234:Api\core\src/vl53l0x_api_core.c **** 		SchedulerSequenceSteps.FinalRangeOn) {
 3170              		.loc 1 1234 0 discriminator 1
 3171 00da 02AB     		add	r3, sp, #8
 3172 00dc 1B79     		ldrb	r3, [r3, #4]
1233:Api\core\src/vl53l0x_api_core.c **** 		SchedulerSequenceSteps.FinalRangeOn) {
 3173              		.loc 1 1233 0 discriminator 1
 3174 00de 002B     		cmp	r3, #0
 3175 00e0 0AD0     		beq	.L129
1235:Api\core\src/vl53l0x_api_core.c **** 
1236:Api\core\src/vl53l0x_api_core.c **** 		FinalRangeTimingBudgetMicroSeconds -=
 3176              		.loc 1 1236 0
 3177 00e2 0A4B     		ldr	r3, .L145+16
 3178 00e4 F218     		adds	r2, r6, r3
 3179              	.LVL576:
1237:Api\core\src/vl53l0x_api_core.c **** 				FinalRangeOverheadMicroSeconds;
1238:Api\core\src/vl53l0x_api_core.c **** 
1239:Api\core\src/vl53l0x_api_core.c **** 		/* Final Range Timeout
1240:Api\core\src/vl53l0x_api_core.c **** 		 * Note that the final range timeout is determined by the timing
1241:Api\core\src/vl53l0x_api_core.c **** 		 * budget and the sum of all other timeouts within the sequence.
1242:Api\core\src/vl53l0x_api_core.c **** 		 * If there is no room for the final range timeout, then an error
1243:Api\core\src/vl53l0x_api_core.c **** 		 * will be set. Otherwise the remaining time will be applied to
1244:Api\core\src/vl53l0x_api_core.c **** 		 * the final range.
1245:Api\core\src/vl53l0x_api_core.c **** 		 */
1246:Api\core\src/vl53l0x_api_core.c **** 		Status = set_sequence_step_timeout(Dev,
 3180              		.loc 1 1246 0
 3181 00e6 0421     		movs	r1, #4
 3182 00e8 2800     		movs	r0, r5
 3183              	.LVL577:
 3184 00ea FFF7FEFF 		bl	set_sequence_step_timeout
 3185              	.LVL578:
1247:Api\core\src/vl53l0x_api_core.c **** 			VL53L0X_SEQUENCESTEP_FINAL_RANGE,
1248:Api\core\src/vl53l0x_api_core.c **** 			FinalRangeTimingBudgetMicroSeconds);
1249:Api\core\src/vl53l0x_api_core.c **** 
1250:Api\core\src/vl53l0x_api_core.c **** 		VL53L0X_SETPARAMETERFIELD(Dev,
 3186              		.loc 1 1250 0
 3187 00ee 6C61     		str	r4, [r5, #20]
 3188 00f0 02E0     		b	.L129
 3189              	.LVL579:
 3190              	.L135:
1133:Api\core\src/vl53l0x_api_core.c **** 	}
 3191              		.loc 1 1133 0
 3192 00f2 0420     		movs	r0, #4
 3193              	.LVL580:
 3194 00f4 4042     		rsbs	r0, r0, #0
ARM GAS  C:\Users\Rajesh\AppData\Local\Temp\ccMJoliC.s 			page 80


 3195 00f6 FFE7     		b	.L129
 3196              	.LVL581:
 3197              	.L136:
 3198              	.L129:
1251:Api\core\src/vl53l0x_api_core.c **** 			MeasurementTimingBudgetMicroSeconds,
1252:Api\core\src/vl53l0x_api_core.c **** 			MeasurementTimingBudgetMicroSeconds);
1253:Api\core\src/vl53l0x_api_core.c **** 	}
1254:Api\core\src/vl53l0x_api_core.c **** 
1255:Api\core\src/vl53l0x_api_core.c **** 	LOG_FUNCTION_END(Status);
1256:Api\core\src/vl53l0x_api_core.c **** 
1257:Api\core\src/vl53l0x_api_core.c **** 	return Status;
1258:Api\core\src/vl53l0x_api_core.c **** }
 3199              		.loc 1 1258 0
 3200 00f8 04B0     		add	sp, sp, #16
 3201              		@ sp needed
 3202              	.LVL582:
 3203              	.LVL583:
 3204 00fa 70BD     		pop	{r4, r5, r6, pc}
 3205              	.L146:
 3206              		.align	2
 3207              	.L145:
 3208 00fc 1F4E0000 		.word	19999
 3209 0100 CAF4FFFF 		.word	-2870
 3210 0104 4E020000 		.word	590
 3211 0108 B2020000 		.word	690
 3212 010c DAFDFFFF 		.word	-550
 3213              		.cfi_endproc
 3214              	.LFE18:
 3215              		.size	VL53L0X_set_measurement_timing_budget_micro_seconds, .-VL53L0X_set_measurement_timing_budget
 3216              		.section	.text.VL53L0X_get_measurement_timing_budget_micro_seconds,"ax",%progbits
 3217              		.align	2
 3218              		.global	VL53L0X_get_measurement_timing_budget_micro_seconds
 3219              		.code	16
 3220              		.thumb_func
 3221              		.type	VL53L0X_get_measurement_timing_budget_micro_seconds, %function
 3222              	VL53L0X_get_measurement_timing_budget_micro_seconds:
 3223              	.LFB19:
1259:Api\core\src/vl53l0x_api_core.c **** 
1260:Api\core\src/vl53l0x_api_core.c **** VL53L0X_Error VL53L0X_get_measurement_timing_budget_micro_seconds(VL53L0X_DEV Dev,
1261:Api\core\src/vl53l0x_api_core.c **** 		uint32_t *pMeasurementTimingBudgetMicroSeconds)
1262:Api\core\src/vl53l0x_api_core.c **** {
 3224              		.loc 1 1262 0
 3225              		.cfi_startproc
 3226              		@ args = 0, pretend = 0, frame = 24
 3227              		@ frame_needed = 0, uses_anonymous_args = 0
 3228              	.LVL584:
 3229 0000 30B5     		push	{r4, r5, lr}
 3230              		.cfi_def_cfa_offset 12
 3231              		.cfi_offset 4, -12
 3232              		.cfi_offset 5, -8
 3233              		.cfi_offset 14, -4
 3234 0002 87B0     		sub	sp, sp, #28
 3235              		.cfi_def_cfa_offset 40
 3236 0004 0500     		movs	r5, r0
 3237 0006 0C00     		movs	r4, r1
 3238              	.LVL585:
1263:Api\core\src/vl53l0x_api_core.c **** 	VL53L0X_Error Status = VL53L0X_ERROR_NONE;
ARM GAS  C:\Users\Rajesh\AppData\Local\Temp\ccMJoliC.s 			page 81


1264:Api\core\src/vl53l0x_api_core.c **** 	VL53L0X_SchedulerSequenceSteps_t SchedulerSequenceSteps;
1265:Api\core\src/vl53l0x_api_core.c **** 	uint32_t FinalRangeTimeoutMicroSeconds;
1266:Api\core\src/vl53l0x_api_core.c **** 	uint32_t MsrcDccTccTimeoutMicroSeconds	= 2000;
 3239              		.loc 1 1266 0
 3240 0008 FA23     		movs	r3, #250
 3241 000a DB00     		lsls	r3, r3, #3
 3242 000c 0293     		str	r3, [sp, #8]
 3243              	.LVL586:
1267:Api\core\src/vl53l0x_api_core.c **** 	uint32_t StartOverheadMicroSeconds		= 1910;
1268:Api\core\src/vl53l0x_api_core.c **** 	uint32_t EndOverheadMicroSeconds		= 960;
1269:Api\core\src/vl53l0x_api_core.c **** 	uint32_t MsrcOverheadMicroSeconds		= 660;
1270:Api\core\src/vl53l0x_api_core.c **** 	uint32_t TccOverheadMicroSeconds		= 590;
1271:Api\core\src/vl53l0x_api_core.c **** 	uint32_t DssOverheadMicroSeconds		= 690;
1272:Api\core\src/vl53l0x_api_core.c **** 	uint32_t PreRangeOverheadMicroSeconds	= 660;
1273:Api\core\src/vl53l0x_api_core.c **** 	uint32_t FinalRangeOverheadMicroSeconds = 550;
1274:Api\core\src/vl53l0x_api_core.c **** 	uint32_t PreRangeTimeoutMicroSeconds	= 0;
 3244              		.loc 1 1274 0
 3245 000e 0023     		movs	r3, #0
 3246 0010 0193     		str	r3, [sp, #4]
1275:Api\core\src/vl53l0x_api_core.c **** 
1276:Api\core\src/vl53l0x_api_core.c **** 	LOG_FUNCTION_START("");
1277:Api\core\src/vl53l0x_api_core.c **** 
1278:Api\core\src/vl53l0x_api_core.c **** 	/* Start and end overhead times always present */
1279:Api\core\src/vl53l0x_api_core.c **** 	*pMeasurementTimingBudgetMicroSeconds
1280:Api\core\src/vl53l0x_api_core.c **** 		= StartOverheadMicroSeconds + EndOverheadMicroSeconds;
 3247              		.loc 1 1280 0
 3248 0012 374B     		ldr	r3, .L155
 3249 0014 0B60     		str	r3, [r1]
1281:Api\core\src/vl53l0x_api_core.c **** 
1282:Api\core\src/vl53l0x_api_core.c **** 	Status = VL53L0X_GetSequenceStepEnables(Dev, &SchedulerSequenceSteps);
 3250              		.loc 1 1282 0
 3251 0016 04A9     		add	r1, sp, #16
 3252              	.LVL587:
 3253 0018 FFF7FEFF 		bl	VL53L0X_GetSequenceStepEnables
 3254              	.LVL588:
1283:Api\core\src/vl53l0x_api_core.c **** 
1284:Api\core\src/vl53l0x_api_core.c **** 	if (Status != VL53L0X_ERROR_NONE) {
 3255              		.loc 1 1284 0
 3256 001c 0028     		cmp	r0, #0
 3257 001e 64D1     		bne	.L148
1285:Api\core\src/vl53l0x_api_core.c **** 		LOG_FUNCTION_END(Status);
1286:Api\core\src/vl53l0x_api_core.c **** 		return Status;
1287:Api\core\src/vl53l0x_api_core.c **** 	}
1288:Api\core\src/vl53l0x_api_core.c **** 
1289:Api\core\src/vl53l0x_api_core.c **** 
1290:Api\core\src/vl53l0x_api_core.c **** 	if (SchedulerSequenceSteps.TccOn  ||
 3258              		.loc 1 1290 0
 3259 0020 04AB     		add	r3, sp, #16
 3260 0022 1B78     		ldrb	r3, [r3]
 3261 0024 002B     		cmp	r3, #0
 3262 0026 07D1     		bne	.L149
1291:Api\core\src/vl53l0x_api_core.c **** 		SchedulerSequenceSteps.MsrcOn ||
 3263              		.loc 1 1291 0 discriminator 1
 3264 0028 04AB     		add	r3, sp, #16
 3265 002a 5B78     		ldrb	r3, [r3, #1]
1290:Api\core\src/vl53l0x_api_core.c **** 		SchedulerSequenceSteps.MsrcOn ||
 3266              		.loc 1 1290 0 discriminator 1
ARM GAS  C:\Users\Rajesh\AppData\Local\Temp\ccMJoliC.s 			page 82


 3267 002c 002B     		cmp	r3, #0
 3268 002e 03D1     		bne	.L149
1292:Api\core\src/vl53l0x_api_core.c **** 		SchedulerSequenceSteps.DssOn) {
 3269              		.loc 1 1292 0
 3270 0030 04AB     		add	r3, sp, #16
 3271 0032 9B78     		ldrb	r3, [r3, #2]
1291:Api\core\src/vl53l0x_api_core.c **** 		SchedulerSequenceSteps.MsrcOn ||
 3272              		.loc 1 1291 0
 3273 0034 002B     		cmp	r3, #0
 3274 0036 2DD0     		beq	.L150
 3275              	.L149:
1293:Api\core\src/vl53l0x_api_core.c **** 
1294:Api\core\src/vl53l0x_api_core.c **** 		Status = get_sequence_step_timeout(Dev,
 3276              		.loc 1 1294 0
 3277 0038 02AA     		add	r2, sp, #8
 3278 003a 0221     		movs	r1, #2
 3279 003c 2800     		movs	r0, r5
 3280              	.LVL589:
 3281 003e FFF7FEFF 		bl	get_sequence_step_timeout
 3282              	.LVL590:
1295:Api\core\src/vl53l0x_api_core.c **** 				VL53L0X_SEQUENCESTEP_MSRC,
1296:Api\core\src/vl53l0x_api_core.c **** 				&MsrcDccTccTimeoutMicroSeconds);
1297:Api\core\src/vl53l0x_api_core.c **** 
1298:Api\core\src/vl53l0x_api_core.c **** 		if (Status == VL53L0X_ERROR_NONE) {
 3283              		.loc 1 1298 0
 3284 0042 0028     		cmp	r0, #0
 3285 0044 26D1     		bne	.L150
1299:Api\core\src/vl53l0x_api_core.c **** 			if (SchedulerSequenceSteps.TccOn) {
 3286              		.loc 1 1299 0
 3287 0046 04AB     		add	r3, sp, #16
 3288 0048 1B78     		ldrb	r3, [r3]
 3289 004a 002B     		cmp	r3, #0
 3290 004c 07D0     		beq	.L151
1300:Api\core\src/vl53l0x_api_core.c **** 				*pMeasurementTimingBudgetMicroSeconds +=
1301:Api\core\src/vl53l0x_api_core.c **** 					MsrcDccTccTimeoutMicroSeconds +
 3291              		.loc 1 1301 0
 3292 004e 029B     		ldr	r3, [sp, #8]
 3293 0050 284A     		ldr	r2, .L155+4
 3294 0052 9446     		mov	ip, r2
 3295 0054 6344     		add	r3, r3, ip
1300:Api\core\src/vl53l0x_api_core.c **** 				*pMeasurementTimingBudgetMicroSeconds +=
 3296              		.loc 1 1300 0
 3297 0056 2268     		ldr	r2, [r4]
 3298 0058 9446     		mov	ip, r2
 3299 005a 6344     		add	r3, r3, ip
 3300 005c 2360     		str	r3, [r4]
 3301              	.L151:
1302:Api\core\src/vl53l0x_api_core.c **** 					TccOverheadMicroSeconds;
1303:Api\core\src/vl53l0x_api_core.c **** 			}
1304:Api\core\src/vl53l0x_api_core.c **** 
1305:Api\core\src/vl53l0x_api_core.c **** 			if (SchedulerSequenceSteps.DssOn) {
 3302              		.loc 1 1305 0
 3303 005e 04AB     		add	r3, sp, #16
 3304 0060 9B78     		ldrb	r3, [r3, #2]
 3305 0062 002B     		cmp	r3, #0
 3306 0064 09D0     		beq	.L152
1306:Api\core\src/vl53l0x_api_core.c **** 				*pMeasurementTimingBudgetMicroSeconds +=
ARM GAS  C:\Users\Rajesh\AppData\Local\Temp\ccMJoliC.s 			page 83


1307:Api\core\src/vl53l0x_api_core.c **** 				2 * (MsrcDccTccTimeoutMicroSeconds +
 3307              		.loc 1 1307 0
 3308 0066 029B     		ldr	r3, [sp, #8]
 3309 0068 234A     		ldr	r2, .L155+8
 3310 006a 9446     		mov	ip, r2
 3311 006c 6344     		add	r3, r3, ip
 3312 006e 5B00     		lsls	r3, r3, #1
1306:Api\core\src/vl53l0x_api_core.c **** 				*pMeasurementTimingBudgetMicroSeconds +=
 3313              		.loc 1 1306 0
 3314 0070 2268     		ldr	r2, [r4]
 3315 0072 9446     		mov	ip, r2
 3316 0074 6344     		add	r3, r3, ip
 3317 0076 2360     		str	r3, [r4]
 3318 0078 0CE0     		b	.L150
 3319              	.L152:
1308:Api\core\src/vl53l0x_api_core.c **** 					DssOverheadMicroSeconds);
1309:Api\core\src/vl53l0x_api_core.c **** 			} else if (SchedulerSequenceSteps.MsrcOn) {
 3320              		.loc 1 1309 0
 3321 007a 04AB     		add	r3, sp, #16
 3322 007c 5B78     		ldrb	r3, [r3, #1]
 3323 007e 002B     		cmp	r3, #0
 3324 0080 08D0     		beq	.L150
1310:Api\core\src/vl53l0x_api_core.c **** 				*pMeasurementTimingBudgetMicroSeconds +=
1311:Api\core\src/vl53l0x_api_core.c **** 					MsrcDccTccTimeoutMicroSeconds +
 3325              		.loc 1 1311 0
 3326 0082 029B     		ldr	r3, [sp, #8]
 3327 0084 A522     		movs	r2, #165
 3328 0086 9200     		lsls	r2, r2, #2
 3329 0088 9446     		mov	ip, r2
 3330 008a 6344     		add	r3, r3, ip
1310:Api\core\src/vl53l0x_api_core.c **** 				*pMeasurementTimingBudgetMicroSeconds +=
 3331              		.loc 1 1310 0
 3332 008c 2268     		ldr	r2, [r4]
 3333 008e 9446     		mov	ip, r2
 3334 0090 6344     		add	r3, r3, ip
 3335 0092 2360     		str	r3, [r4]
 3336              	.LVL591:
 3337              	.L150:
1312:Api\core\src/vl53l0x_api_core.c **** 					MsrcOverheadMicroSeconds;
1313:Api\core\src/vl53l0x_api_core.c **** 			}
1314:Api\core\src/vl53l0x_api_core.c **** 		}
1315:Api\core\src/vl53l0x_api_core.c **** 	}
1316:Api\core\src/vl53l0x_api_core.c **** 
1317:Api\core\src/vl53l0x_api_core.c **** 	if (Status == VL53L0X_ERROR_NONE) {
 3338              		.loc 1 1317 0
 3339 0094 0028     		cmp	r0, #0
 3340 0096 11D1     		bne	.L153
1318:Api\core\src/vl53l0x_api_core.c **** 		if (SchedulerSequenceSteps.PreRangeOn) {
 3341              		.loc 1 1318 0
 3342 0098 04AB     		add	r3, sp, #16
 3343 009a DB78     		ldrb	r3, [r3, #3]
 3344 009c 002B     		cmp	r3, #0
 3345 009e 0DD0     		beq	.L153
1319:Api\core\src/vl53l0x_api_core.c **** 			Status = get_sequence_step_timeout(Dev,
 3346              		.loc 1 1319 0
 3347 00a0 01AA     		add	r2, sp, #4
 3348 00a2 0321     		movs	r1, #3
ARM GAS  C:\Users\Rajesh\AppData\Local\Temp\ccMJoliC.s 			page 84


 3349 00a4 2800     		movs	r0, r5
 3350              	.LVL592:
 3351 00a6 FFF7FEFF 		bl	get_sequence_step_timeout
 3352              	.LVL593:
1320:Api\core\src/vl53l0x_api_core.c **** 				VL53L0X_SEQUENCESTEP_PRE_RANGE,
1321:Api\core\src/vl53l0x_api_core.c **** 				&PreRangeTimeoutMicroSeconds);
1322:Api\core\src/vl53l0x_api_core.c **** 			*pMeasurementTimingBudgetMicroSeconds +=
1323:Api\core\src/vl53l0x_api_core.c **** 				PreRangeTimeoutMicroSeconds +
 3353              		.loc 1 1323 0
 3354 00aa 019B     		ldr	r3, [sp, #4]
 3355 00ac A522     		movs	r2, #165
 3356 00ae 9200     		lsls	r2, r2, #2
 3357 00b0 9446     		mov	ip, r2
 3358 00b2 6344     		add	r3, r3, ip
1322:Api\core\src/vl53l0x_api_core.c **** 				PreRangeTimeoutMicroSeconds +
 3359              		.loc 1 1322 0
 3360 00b4 2268     		ldr	r2, [r4]
 3361 00b6 9446     		mov	ip, r2
 3362 00b8 6344     		add	r3, r3, ip
 3363 00ba 2360     		str	r3, [r4]
 3364              	.LVL594:
 3365              	.L153:
1324:Api\core\src/vl53l0x_api_core.c **** 				PreRangeOverheadMicroSeconds;
1325:Api\core\src/vl53l0x_api_core.c **** 		}
1326:Api\core\src/vl53l0x_api_core.c **** 	}
1327:Api\core\src/vl53l0x_api_core.c **** 
1328:Api\core\src/vl53l0x_api_core.c **** 	if (Status == VL53L0X_ERROR_NONE) {
 3366              		.loc 1 1328 0
 3367 00bc 0028     		cmp	r0, #0
 3368 00be 10D1     		bne	.L154
1329:Api\core\src/vl53l0x_api_core.c **** 		if (SchedulerSequenceSteps.FinalRangeOn) {
 3369              		.loc 1 1329 0
 3370 00c0 04AB     		add	r3, sp, #16
 3371 00c2 1B79     		ldrb	r3, [r3, #4]
 3372 00c4 002B     		cmp	r3, #0
 3373 00c6 0CD0     		beq	.L154
1330:Api\core\src/vl53l0x_api_core.c **** 			Status = get_sequence_step_timeout(Dev,
 3374              		.loc 1 1330 0
 3375 00c8 03AA     		add	r2, sp, #12
 3376 00ca 0421     		movs	r1, #4
 3377 00cc 2800     		movs	r0, r5
 3378              	.LVL595:
 3379 00ce FFF7FEFF 		bl	get_sequence_step_timeout
 3380              	.LVL596:
1331:Api\core\src/vl53l0x_api_core.c **** 					VL53L0X_SEQUENCESTEP_FINAL_RANGE,
1332:Api\core\src/vl53l0x_api_core.c **** 					&FinalRangeTimeoutMicroSeconds);
1333:Api\core\src/vl53l0x_api_core.c **** 			*pMeasurementTimingBudgetMicroSeconds +=
1334:Api\core\src/vl53l0x_api_core.c **** 				(FinalRangeTimeoutMicroSeconds +
 3381              		.loc 1 1334 0
 3382 00d2 039B     		ldr	r3, [sp, #12]
 3383 00d4 094A     		ldr	r2, .L155+12
 3384 00d6 9446     		mov	ip, r2
 3385 00d8 6344     		add	r3, r3, ip
1333:Api\core\src/vl53l0x_api_core.c **** 				(FinalRangeTimeoutMicroSeconds +
 3386              		.loc 1 1333 0
 3387 00da 2268     		ldr	r2, [r4]
 3388 00dc 9446     		mov	ip, r2
ARM GAS  C:\Users\Rajesh\AppData\Local\Temp\ccMJoliC.s 			page 85


 3389 00de 6344     		add	r3, r3, ip
 3390 00e0 2360     		str	r3, [r4]
 3391              	.LVL597:
 3392              	.L154:
1335:Api\core\src/vl53l0x_api_core.c **** 				FinalRangeOverheadMicroSeconds);
1336:Api\core\src/vl53l0x_api_core.c **** 		}
1337:Api\core\src/vl53l0x_api_core.c **** 	}
1338:Api\core\src/vl53l0x_api_core.c **** 
1339:Api\core\src/vl53l0x_api_core.c **** 	if (Status == VL53L0X_ERROR_NONE) {
 3393              		.loc 1 1339 0
 3394 00e2 0028     		cmp	r0, #0
 3395 00e4 01D1     		bne	.L148
1340:Api\core\src/vl53l0x_api_core.c **** 		VL53L0X_SETPARAMETERFIELD(Dev,
 3396              		.loc 1 1340 0
 3397 00e6 2368     		ldr	r3, [r4]
 3398 00e8 6B61     		str	r3, [r5, #20]
 3399              	.LVL598:
 3400              	.L148:
1341:Api\core\src/vl53l0x_api_core.c **** 			MeasurementTimingBudgetMicroSeconds,
1342:Api\core\src/vl53l0x_api_core.c **** 			*pMeasurementTimingBudgetMicroSeconds);
1343:Api\core\src/vl53l0x_api_core.c **** 	}
1344:Api\core\src/vl53l0x_api_core.c **** 
1345:Api\core\src/vl53l0x_api_core.c **** 	LOG_FUNCTION_END(Status);
1346:Api\core\src/vl53l0x_api_core.c **** 	return Status;
1347:Api\core\src/vl53l0x_api_core.c **** }
 3401              		.loc 1 1347 0
 3402 00ea 07B0     		add	sp, sp, #28
 3403              		@ sp needed
 3404              	.LVL599:
 3405              	.LVL600:
 3406 00ec 30BD     		pop	{r4, r5, pc}
 3407              	.L156:
 3408 00ee C046     		.align	2
 3409              	.L155:
 3410 00f0 360B0000 		.word	2870
 3411 00f4 4E020000 		.word	590
 3412 00f8 B2020000 		.word	690
 3413 00fc 26020000 		.word	550
 3414              		.cfi_endproc
 3415              	.LFE19:
 3416              		.size	VL53L0X_get_measurement_timing_budget_micro_seconds, .-VL53L0X_get_measurement_timing_budget
 3417              		.section	.text.VL53L0X_load_tuning_settings,"ax",%progbits
 3418              		.align	2
 3419              		.global	VL53L0X_load_tuning_settings
 3420              		.code	16
 3421              		.thumb_func
 3422              		.type	VL53L0X_load_tuning_settings, %function
 3423              	VL53L0X_load_tuning_settings:
 3424              	.LFB20:
1348:Api\core\src/vl53l0x_api_core.c **** 
1349:Api\core\src/vl53l0x_api_core.c **** 
1350:Api\core\src/vl53l0x_api_core.c **** 
1351:Api\core\src/vl53l0x_api_core.c **** VL53L0X_Error VL53L0X_load_tuning_settings(VL53L0X_DEV Dev,
1352:Api\core\src/vl53l0x_api_core.c **** 		uint8_t *pTuningSettingBuffer)
1353:Api\core\src/vl53l0x_api_core.c **** {
 3425              		.loc 1 1353 0
 3426              		.cfi_startproc
ARM GAS  C:\Users\Rajesh\AppData\Local\Temp\ccMJoliC.s 			page 86


 3427              		@ args = 0, pretend = 0, frame = 8
 3428              		@ frame_needed = 0, uses_anonymous_args = 0
 3429              	.LVL601:
 3430 0000 F0B5     		push	{r4, r5, r6, r7, lr}
 3431              		.cfi_def_cfa_offset 20
 3432              		.cfi_offset 4, -20
 3433              		.cfi_offset 5, -16
 3434              		.cfi_offset 6, -12
 3435              		.cfi_offset 7, -8
 3436              		.cfi_offset 14, -4
 3437 0002 83B0     		sub	sp, sp, #12
 3438              		.cfi_def_cfa_offset 32
 3439 0004 0500     		movs	r5, r0
 3440 0006 0E00     		movs	r6, r1
 3441              	.LVL602:
1354:Api\core\src/vl53l0x_api_core.c **** 	VL53L0X_Error Status = VL53L0X_ERROR_NONE;
1355:Api\core\src/vl53l0x_api_core.c **** 	int i;
1356:Api\core\src/vl53l0x_api_core.c **** 	int Index;
1357:Api\core\src/vl53l0x_api_core.c **** 	uint8_t msb;
1358:Api\core\src/vl53l0x_api_core.c **** 	uint8_t lsb;
1359:Api\core\src/vl53l0x_api_core.c **** 	uint8_t SelectParam;
1360:Api\core\src/vl53l0x_api_core.c **** 	uint8_t NumberOfWrites;
1361:Api\core\src/vl53l0x_api_core.c **** 	uint8_t Address;
1362:Api\core\src/vl53l0x_api_core.c **** 	uint8_t localBuffer[4]; /* max */
1363:Api\core\src/vl53l0x_api_core.c **** 	uint16_t Temp16;
1364:Api\core\src/vl53l0x_api_core.c **** 
1365:Api\core\src/vl53l0x_api_core.c **** 	LOG_FUNCTION_START("");
1366:Api\core\src/vl53l0x_api_core.c **** 
1367:Api\core\src/vl53l0x_api_core.c **** 	Index = 0;
 3442              		.loc 1 1367 0
 3443 0008 0024     		movs	r4, #0
1354:Api\core\src/vl53l0x_api_core.c **** 	VL53L0X_Error Status = VL53L0X_ERROR_NONE;
 3444              		.loc 1 1354 0
 3445 000a 0020     		movs	r0, #0
 3446              	.LVL603:
1368:Api\core\src/vl53l0x_api_core.c **** 
1369:Api\core\src/vl53l0x_api_core.c **** 	while ((*(pTuningSettingBuffer + Index) != 0) &&
 3447              		.loc 1 1369 0
 3448 000c 4EE0     		b	.L158
 3449              	.LVL604:
 3450              	.L168:
1370:Api\core\src/vl53l0x_api_core.c **** 			(Status == VL53L0X_ERROR_NONE)) {
1371:Api\core\src/vl53l0x_api_core.c **** 		NumberOfWrites = *(pTuningSettingBuffer + Index);
1372:Api\core\src/vl53l0x_api_core.c **** 		Index++;
 3451              		.loc 1 1372 0
 3452 000e 621C     		adds	r2, r4, #1
 3453              	.LVL605:
1373:Api\core\src/vl53l0x_api_core.c **** 		if (NumberOfWrites == 0xFF) {
 3454              		.loc 1 1373 0
 3455 0010 FF2B     		cmp	r3, #255
 3456 0012 32D1     		bne	.L159
1374:Api\core\src/vl53l0x_api_core.c **** 			/* internal parameters */
1375:Api\core\src/vl53l0x_api_core.c **** 			SelectParam = *(pTuningSettingBuffer + Index);
 3457              		.loc 1 1375 0
 3458 0014 B35C     		ldrb	r3, [r6, r2]
 3459              	.LVL606:
1376:Api\core\src/vl53l0x_api_core.c **** 			Index++;
ARM GAS  C:\Users\Rajesh\AppData\Local\Temp\ccMJoliC.s 			page 87


 3460              		.loc 1 1376 0
 3461 0016 A21C     		adds	r2, r4, #2
 3462              	.LVL607:
1377:Api\core\src/vl53l0x_api_core.c **** 			switch (SelectParam) {
 3463              		.loc 1 1377 0
 3464 0018 012B     		cmp	r3, #1
 3465 001a 10D0     		beq	.L161
 3466 001c 002B     		cmp	r3, #0
 3467 001e 04D0     		beq	.L162
 3468 0020 022B     		cmp	r3, #2
 3469 0022 16D0     		beq	.L163
 3470 0024 032B     		cmp	r3, #3
 3471 0026 1ED0     		beq	.L164
 3472 0028 39E0     		b	.L171
 3473              	.L162:
1378:Api\core\src/vl53l0x_api_core.c **** 			case 0: /* uint16_t SigmaEstRefArray -> 2 bytes */
1379:Api\core\src/vl53l0x_api_core.c **** 				msb = *(pTuningSettingBuffer + Index);
 3474              		.loc 1 1379 0
 3475 002a B35C     		ldrb	r3, [r6, r2]
 3476              	.LVL608:
1380:Api\core\src/vl53l0x_api_core.c **** 				Index++;
 3477              		.loc 1 1380 0
 3478 002c E21C     		adds	r2, r4, #3
 3479              	.LVL609:
1381:Api\core\src/vl53l0x_api_core.c **** 				lsb = *(pTuningSettingBuffer + Index);
1382:Api\core\src/vl53l0x_api_core.c **** 				Index++;
1383:Api\core\src/vl53l0x_api_core.c **** 				Temp16 = VL53L0X_MAKEUINT16(lsb, msb);
 3480              		.loc 1 1383 0
 3481 002e 1B02     		lsls	r3, r3, #8
 3482              	.LVL610:
 3483 0030 B25C     		ldrb	r2, [r6, r2]
 3484 0032 0434     		adds	r4, r4, #4
 3485              	.LVL611:
 3486 0034 9B18     		adds	r3, r3, r2
 3487              	.LVL612:
1384:Api\core\src/vl53l0x_api_core.c **** 				PALDevDataSet(Dev, SigmaEstRefArray, Temp16);
 3488              		.loc 1 1384 0
 3489 0036 9A22     		movs	r2, #154
 3490 0038 5200     		lsls	r2, r2, #1
 3491 003a AB52     		strh	r3, [r5, r2]
 3492              	.LVL613:
1385:Api\core\src/vl53l0x_api_core.c **** 				break;
 3493              		.loc 1 1385 0
 3494 003c 36E0     		b	.L158
 3495              	.LVL614:
 3496              	.L161:
1386:Api\core\src/vl53l0x_api_core.c **** 			case 1: /* uint16_t SigmaEstEffPulseWidth -> 2 bytes */
1387:Api\core\src/vl53l0x_api_core.c **** 				msb = *(pTuningSettingBuffer + Index);
 3497              		.loc 1 1387 0
 3498 003e B35C     		ldrb	r3, [r6, r2]
 3499              	.LVL615:
1388:Api\core\src/vl53l0x_api_core.c **** 				Index++;
 3500              		.loc 1 1388 0
 3501 0040 E21C     		adds	r2, r4, #3
 3502              	.LVL616:
1389:Api\core\src/vl53l0x_api_core.c **** 				lsb = *(pTuningSettingBuffer + Index);
1390:Api\core\src/vl53l0x_api_core.c **** 				Index++;
ARM GAS  C:\Users\Rajesh\AppData\Local\Temp\ccMJoliC.s 			page 88


1391:Api\core\src/vl53l0x_api_core.c **** 				Temp16 = VL53L0X_MAKEUINT16(lsb, msb);
 3503              		.loc 1 1391 0
 3504 0042 1B02     		lsls	r3, r3, #8
 3505              	.LVL617:
 3506 0044 B25C     		ldrb	r2, [r6, r2]
 3507 0046 0434     		adds	r4, r4, #4
 3508              	.LVL618:
 3509 0048 9B18     		adds	r3, r3, r2
 3510              	.LVL619:
1392:Api\core\src/vl53l0x_api_core.c **** 				PALDevDataSet(Dev, SigmaEstEffPulseWidth,
 3511              		.loc 1 1392 0
 3512 004a 9B22     		movs	r2, #155
 3513 004c 5200     		lsls	r2, r2, #1
 3514 004e AB52     		strh	r3, [r5, r2]
 3515              	.LVL620:
1393:Api\core\src/vl53l0x_api_core.c **** 					Temp16);
1394:Api\core\src/vl53l0x_api_core.c **** 				break;
 3516              		.loc 1 1394 0
 3517 0050 2CE0     		b	.L158
 3518              	.LVL621:
 3519              	.L163:
1395:Api\core\src/vl53l0x_api_core.c **** 			case 2: /* uint16_t SigmaEstEffAmbWidth -> 2 bytes */
1396:Api\core\src/vl53l0x_api_core.c **** 				msb = *(pTuningSettingBuffer + Index);
 3520              		.loc 1 1396 0
 3521 0052 B35C     		ldrb	r3, [r6, r2]
 3522              	.LVL622:
1397:Api\core\src/vl53l0x_api_core.c **** 				Index++;
 3523              		.loc 1 1397 0
 3524 0054 E21C     		adds	r2, r4, #3
 3525              	.LVL623:
1398:Api\core\src/vl53l0x_api_core.c **** 				lsb = *(pTuningSettingBuffer + Index);
1399:Api\core\src/vl53l0x_api_core.c **** 				Index++;
1400:Api\core\src/vl53l0x_api_core.c **** 				Temp16 = VL53L0X_MAKEUINT16(lsb, msb);
 3526              		.loc 1 1400 0
 3527 0056 1B02     		lsls	r3, r3, #8
 3528              	.LVL624:
 3529 0058 B25C     		ldrb	r2, [r6, r2]
 3530 005a 0434     		adds	r4, r4, #4
 3531              	.LVL625:
 3532 005c 9B18     		adds	r3, r3, r2
 3533              	.LVL626:
1401:Api\core\src/vl53l0x_api_core.c **** 				PALDevDataSet(Dev, SigmaEstEffAmbWidth, Temp16);
 3534              		.loc 1 1401 0
 3535 005e 9C22     		movs	r2, #156
 3536 0060 5200     		lsls	r2, r2, #1
 3537 0062 AB52     		strh	r3, [r5, r2]
 3538              	.LVL627:
1402:Api\core\src/vl53l0x_api_core.c **** 				break;
 3539              		.loc 1 1402 0
 3540 0064 22E0     		b	.L158
 3541              	.LVL628:
 3542              	.L164:
1403:Api\core\src/vl53l0x_api_core.c **** 			case 3: /* uint16_t targetRefRate -> 2 bytes */
1404:Api\core\src/vl53l0x_api_core.c **** 				msb = *(pTuningSettingBuffer + Index);
 3543              		.loc 1 1404 0
 3544 0066 B35C     		ldrb	r3, [r6, r2]
 3545              	.LVL629:
ARM GAS  C:\Users\Rajesh\AppData\Local\Temp\ccMJoliC.s 			page 89


1405:Api\core\src/vl53l0x_api_core.c **** 				Index++;
 3546              		.loc 1 1405 0
 3547 0068 E21C     		adds	r2, r4, #3
 3548              	.LVL630:
1406:Api\core\src/vl53l0x_api_core.c **** 				lsb = *(pTuningSettingBuffer + Index);
1407:Api\core\src/vl53l0x_api_core.c **** 				Index++;
1408:Api\core\src/vl53l0x_api_core.c **** 				Temp16 = VL53L0X_MAKEUINT16(lsb, msb);
 3549              		.loc 1 1408 0
 3550 006a 1B02     		lsls	r3, r3, #8
 3551              	.LVL631:
 3552 006c B25C     		ldrb	r2, [r6, r2]
 3553 006e 0434     		adds	r4, r4, #4
 3554              	.LVL632:
 3555 0070 9B18     		adds	r3, r3, r2
 3556              	.LVL633:
1409:Api\core\src/vl53l0x_api_core.c **** 				PALDevDataSet(Dev, targetRefRate, Temp16);
 3557              		.loc 1 1409 0
 3558 0072 9E22     		movs	r2, #158
 3559 0074 5200     		lsls	r2, r2, #1
 3560 0076 AB52     		strh	r3, [r5, r2]
 3561              	.LVL634:
1410:Api\core\src/vl53l0x_api_core.c **** 				break;
 3562              		.loc 1 1410 0
 3563 0078 18E0     		b	.L158
 3564              	.LVL635:
 3565              	.L159:
1411:Api\core\src/vl53l0x_api_core.c **** 			default: /* invalid parameter */
1412:Api\core\src/vl53l0x_api_core.c **** 				Status = VL53L0X_ERROR_INVALID_PARAMS;
1413:Api\core\src/vl53l0x_api_core.c **** 			}
1414:Api\core\src/vl53l0x_api_core.c **** 
1415:Api\core\src/vl53l0x_api_core.c **** 		} else if (NumberOfWrites <= 4) {
 3566              		.loc 1 1415 0
 3567 007a 042B     		cmp	r3, #4
 3568 007c 13D8     		bhi	.L170
1416:Api\core\src/vl53l0x_api_core.c **** 			Address = *(pTuningSettingBuffer + Index);
 3569              		.loc 1 1416 0
 3570 007e B15C     		ldrb	r1, [r6, r2]
 3571              	.LVL636:
1417:Api\core\src/vl53l0x_api_core.c **** 			Index++;
 3572              		.loc 1 1417 0
 3573 0080 0234     		adds	r4, r4, #2
 3574              	.LVL637:
1418:Api\core\src/vl53l0x_api_core.c **** 
1419:Api\core\src/vl53l0x_api_core.c **** 			for (i = 0; i < NumberOfWrites; i++) {
 3575              		.loc 1 1419 0
 3576 0082 0022     		movs	r2, #0
 3577 0084 04E0     		b	.L165
 3578              	.LVL638:
 3579              	.L166:
1420:Api\core\src/vl53l0x_api_core.c **** 				localBuffer[i] = *(pTuningSettingBuffer +
 3580              		.loc 1 1420 0 discriminator 3
 3581 0086 375D     		ldrb	r7, [r6, r4]
 3582 0088 01A8     		add	r0, sp, #4
 3583 008a 8754     		strb	r7, [r0, r2]
1421:Api\core\src/vl53l0x_api_core.c **** 							Index);
1422:Api\core\src/vl53l0x_api_core.c **** 				Index++;
 3584              		.loc 1 1422 0 discriminator 3
ARM GAS  C:\Users\Rajesh\AppData\Local\Temp\ccMJoliC.s 			page 90


 3585 008c 0134     		adds	r4, r4, #1
 3586              	.LVL639:
1419:Api\core\src/vl53l0x_api_core.c **** 				localBuffer[i] = *(pTuningSettingBuffer +
 3587              		.loc 1 1419 0 discriminator 3
 3588 008e 0132     		adds	r2, r2, #1
 3589              	.LVL640:
 3590              	.L165:
1419:Api\core\src/vl53l0x_api_core.c **** 				localBuffer[i] = *(pTuningSettingBuffer +
 3591              		.loc 1 1419 0 is_stmt 0 discriminator 1
 3592 0090 9A42     		cmp	r2, r3
 3593 0092 F8DB     		blt	.L166
1423:Api\core\src/vl53l0x_api_core.c **** 			}
1424:Api\core\src/vl53l0x_api_core.c **** 
1425:Api\core\src/vl53l0x_api_core.c **** 			Status = VL53L0X_WriteMulti(Dev, Address, localBuffer,
 3594              		.loc 1 1425 0 is_stmt 1
 3595 0094 01AA     		add	r2, sp, #4
 3596              	.LVL641:
 3597 0096 2800     		movs	r0, r5
 3598 0098 FFF7FEFF 		bl	VL53L0X_WriteMulti
 3599              	.LVL642:
 3600 009c 06E0     		b	.L158
 3601              	.LVL643:
 3602              	.L171:
1376:Api\core\src/vl53l0x_api_core.c **** 			switch (SelectParam) {
 3603              		.loc 1 1376 0
 3604 009e 1400     		movs	r4, r2
1412:Api\core\src/vl53l0x_api_core.c **** 			}
 3605              		.loc 1 1412 0
 3606 00a0 0420     		movs	r0, #4
 3607              	.LVL644:
 3608 00a2 4042     		rsbs	r0, r0, #0
 3609 00a4 02E0     		b	.L158
 3610              	.LVL645:
 3611              	.L170:
1372:Api\core\src/vl53l0x_api_core.c **** 		if (NumberOfWrites == 0xFF) {
 3612              		.loc 1 1372 0
 3613 00a6 1400     		movs	r4, r2
1426:Api\core\src/vl53l0x_api_core.c **** 					NumberOfWrites);
1427:Api\core\src/vl53l0x_api_core.c **** 
1428:Api\core\src/vl53l0x_api_core.c **** 		} else {
1429:Api\core\src/vl53l0x_api_core.c **** 			Status = VL53L0X_ERROR_INVALID_PARAMS;
 3614              		.loc 1 1429 0
 3615 00a8 0420     		movs	r0, #4
 3616              	.LVL646:
 3617 00aa 4042     		rsbs	r0, r0, #0
 3618              	.LVL647:
 3619              	.L158:
1369:Api\core\src/vl53l0x_api_core.c **** 			(Status == VL53L0X_ERROR_NONE)) {
 3620              		.loc 1 1369 0
 3621 00ac 335D     		ldrb	r3, [r6, r4]
 3622 00ae 002B     		cmp	r3, #0
 3623 00b0 01D0     		beq	.L167
1369:Api\core\src/vl53l0x_api_core.c **** 			(Status == VL53L0X_ERROR_NONE)) {
 3624              		.loc 1 1369 0 is_stmt 0 discriminator 1
 3625 00b2 0028     		cmp	r0, #0
 3626 00b4 ABD0     		beq	.L168
 3627              	.L167:
ARM GAS  C:\Users\Rajesh\AppData\Local\Temp\ccMJoliC.s 			page 91


1430:Api\core\src/vl53l0x_api_core.c **** 		}
1431:Api\core\src/vl53l0x_api_core.c **** 	}
1432:Api\core\src/vl53l0x_api_core.c **** 
1433:Api\core\src/vl53l0x_api_core.c **** 	LOG_FUNCTION_END(Status);
1434:Api\core\src/vl53l0x_api_core.c **** 	return Status;
1435:Api\core\src/vl53l0x_api_core.c **** }
 3628              		.loc 1 1435 0 is_stmt 1
 3629 00b6 03B0     		add	sp, sp, #12
 3630              		@ sp needed
 3631              	.LVL648:
 3632              	.LVL649:
 3633              	.LVL650:
 3634 00b8 F0BD     		pop	{r4, r5, r6, r7, pc}
 3635              		.cfi_endproc
 3636              	.LFE20:
 3637              		.size	VL53L0X_load_tuning_settings, .-VL53L0X_load_tuning_settings
 3638 00ba C046     		.section	.text.VL53L0X_get_total_xtalk_rate,"ax",%progbits
 3639              		.align	2
 3640              		.global	VL53L0X_get_total_xtalk_rate
 3641              		.code	16
 3642              		.thumb_func
 3643              		.type	VL53L0X_get_total_xtalk_rate, %function
 3644              	VL53L0X_get_total_xtalk_rate:
 3645              	.LFB21:
1436:Api\core\src/vl53l0x_api_core.c **** 
1437:Api\core\src/vl53l0x_api_core.c **** VL53L0X_Error VL53L0X_get_total_xtalk_rate(VL53L0X_DEV Dev,
1438:Api\core\src/vl53l0x_api_core.c **** 	VL53L0X_RangingMeasurementData_t *pRangingMeasurementData,
1439:Api\core\src/vl53l0x_api_core.c **** 	FixPoint1616_t *ptotal_xtalk_rate_mcps)
1440:Api\core\src/vl53l0x_api_core.c **** {
 3646              		.loc 1 1440 0
 3647              		.cfi_startproc
 3648              		@ args = 0, pretend = 0, frame = 8
 3649              		@ frame_needed = 0, uses_anonymous_args = 0
 3650              	.LVL651:
 3651 0000 70B5     		push	{r4, r5, r6, lr}
 3652              		.cfi_def_cfa_offset 16
 3653              		.cfi_offset 4, -16
 3654              		.cfi_offset 5, -12
 3655              		.cfi_offset 6, -8
 3656              		.cfi_offset 14, -4
 3657 0002 82B0     		sub	sp, sp, #8
 3658              		.cfi_def_cfa_offset 24
 3659 0004 0500     		movs	r5, r0
 3660 0006 0E00     		movs	r6, r1
 3661 0008 1400     		movs	r4, r2
 3662              	.LVL652:
1441:Api\core\src/vl53l0x_api_core.c **** 	VL53L0X_Error Status = VL53L0X_ERROR_NONE;
1442:Api\core\src/vl53l0x_api_core.c **** 
1443:Api\core\src/vl53l0x_api_core.c **** 	uint8_t xtalkCompEnable;
1444:Api\core\src/vl53l0x_api_core.c **** 	FixPoint1616_t totalXtalkMegaCps;
1445:Api\core\src/vl53l0x_api_core.c **** 	FixPoint1616_t xtalkPerSpadMegaCps;
1446:Api\core\src/vl53l0x_api_core.c **** 
1447:Api\core\src/vl53l0x_api_core.c **** 	*ptotal_xtalk_rate_mcps = 0;
 3663              		.loc 1 1447 0
 3664 000a 0023     		movs	r3, #0
 3665 000c 1360     		str	r3, [r2]
1448:Api\core\src/vl53l0x_api_core.c **** 
ARM GAS  C:\Users\Rajesh\AppData\Local\Temp\ccMJoliC.s 			page 92


1449:Api\core\src/vl53l0x_api_core.c **** 	Status = VL53L0X_GetXTalkCompensationEnable(Dev, &xtalkCompEnable);
 3666              		.loc 1 1449 0
 3667 000e 6B46     		mov	r3, sp
 3668 0010 D91D     		adds	r1, r3, #7
 3669              	.LVL653:
 3670 0012 FFF7FEFF 		bl	VL53L0X_GetXTalkCompensationEnable
 3671              	.LVL654:
1450:Api\core\src/vl53l0x_api_core.c **** 	if (Status == VL53L0X_ERROR_NONE) {
 3672              		.loc 1 1450 0
 3673 0016 0028     		cmp	r0, #0
 3674 0018 0AD1     		bne	.L173
1451:Api\core\src/vl53l0x_api_core.c **** 
1452:Api\core\src/vl53l0x_api_core.c **** 		if (xtalkCompEnable) {
 3675              		.loc 1 1452 0
 3676 001a 6B46     		mov	r3, sp
 3677 001c 0733     		adds	r3, r3, #7
 3678 001e 1B78     		ldrb	r3, [r3]
 3679 0020 002B     		cmp	r3, #0
 3680 0022 05D0     		beq	.L173
1453:Api\core\src/vl53l0x_api_core.c **** 
1454:Api\core\src/vl53l0x_api_core.c **** 			VL53L0X_GETPARAMETERFIELD(
 3681              		.loc 1 1454 0
 3682 0024 2A6A     		ldr	r2, [r5, #32]
 3683              	.LVL655:
1455:Api\core\src/vl53l0x_api_core.c **** 				Dev,
1456:Api\core\src/vl53l0x_api_core.c **** 				XTalkCompensationRateMegaCps,
1457:Api\core\src/vl53l0x_api_core.c **** 				xtalkPerSpadMegaCps);
1458:Api\core\src/vl53l0x_api_core.c **** 
1459:Api\core\src/vl53l0x_api_core.c **** 			/* FixPoint1616 * FixPoint 8:8 = FixPoint0824 */
1460:Api\core\src/vl53l0x_api_core.c **** 			totalXtalkMegaCps =
1461:Api\core\src/vl53l0x_api_core.c **** 				pRangingMeasurementData->EffectiveSpadRtnCount *
 3684              		.loc 1 1461 0
 3685 0026 B38A     		ldrh	r3, [r6, #20]
1460:Api\core\src/vl53l0x_api_core.c **** 				pRangingMeasurementData->EffectiveSpadRtnCount *
 3686              		.loc 1 1460 0
 3687 0028 5343     		muls	r3, r2
 3688              	.LVL656:
1462:Api\core\src/vl53l0x_api_core.c **** 				xtalkPerSpadMegaCps;
1463:Api\core\src/vl53l0x_api_core.c **** 
1464:Api\core\src/vl53l0x_api_core.c **** 			/* FixPoint0824 >> 8 = FixPoint1616 */
1465:Api\core\src/vl53l0x_api_core.c **** 			*ptotal_xtalk_rate_mcps =
1466:Api\core\src/vl53l0x_api_core.c **** 				(totalXtalkMegaCps + 0x80) >> 8;
 3689              		.loc 1 1466 0
 3690 002a 8033     		adds	r3, r3, #128
 3691              	.LVL657:
 3692 002c 1B0A     		lsrs	r3, r3, #8
 3693              	.LVL658:
1465:Api\core\src/vl53l0x_api_core.c **** 				(totalXtalkMegaCps + 0x80) >> 8;
 3694              		.loc 1 1465 0
 3695 002e 2360     		str	r3, [r4]
 3696              	.LVL659:
 3697              	.L173:
1467:Api\core\src/vl53l0x_api_core.c **** 		}
1468:Api\core\src/vl53l0x_api_core.c **** 	}
1469:Api\core\src/vl53l0x_api_core.c **** 
1470:Api\core\src/vl53l0x_api_core.c **** 	return Status;
1471:Api\core\src/vl53l0x_api_core.c **** }
ARM GAS  C:\Users\Rajesh\AppData\Local\Temp\ccMJoliC.s 			page 93


 3698              		.loc 1 1471 0
 3699 0030 02B0     		add	sp, sp, #8
 3700              		@ sp needed
 3701              	.LVL660:
 3702              	.LVL661:
 3703              	.LVL662:
 3704 0032 70BD     		pop	{r4, r5, r6, pc}
 3705              		.cfi_endproc
 3706              	.LFE21:
 3707              		.size	VL53L0X_get_total_xtalk_rate, .-VL53L0X_get_total_xtalk_rate
 3708              		.section	.text.VL53L0X_get_total_signal_rate,"ax",%progbits
 3709              		.align	2
 3710              		.global	VL53L0X_get_total_signal_rate
 3711              		.code	16
 3712              		.thumb_func
 3713              		.type	VL53L0X_get_total_signal_rate, %function
 3714              	VL53L0X_get_total_signal_rate:
 3715              	.LFB22:
1472:Api\core\src/vl53l0x_api_core.c **** 
1473:Api\core\src/vl53l0x_api_core.c **** VL53L0X_Error VL53L0X_get_total_signal_rate(VL53L0X_DEV Dev,
1474:Api\core\src/vl53l0x_api_core.c **** 	VL53L0X_RangingMeasurementData_t *pRangingMeasurementData,
1475:Api\core\src/vl53l0x_api_core.c **** 	FixPoint1616_t *ptotal_signal_rate_mcps)
1476:Api\core\src/vl53l0x_api_core.c **** {
 3716              		.loc 1 1476 0
 3717              		.cfi_startproc
 3718              		@ args = 0, pretend = 0, frame = 8
 3719              		@ frame_needed = 0, uses_anonymous_args = 0
 3720              	.LVL663:
 3721 0000 10B5     		push	{r4, lr}
 3722              		.cfi_def_cfa_offset 8
 3723              		.cfi_offset 4, -8
 3724              		.cfi_offset 14, -4
 3725 0002 82B0     		sub	sp, sp, #8
 3726              		.cfi_def_cfa_offset 16
 3727 0004 1400     		movs	r4, r2
 3728              	.LVL664:
1477:Api\core\src/vl53l0x_api_core.c **** 	VL53L0X_Error Status = VL53L0X_ERROR_NONE;
1478:Api\core\src/vl53l0x_api_core.c **** 	FixPoint1616_t totalXtalkMegaCps;
1479:Api\core\src/vl53l0x_api_core.c **** 
1480:Api\core\src/vl53l0x_api_core.c **** 	LOG_FUNCTION_START("");
1481:Api\core\src/vl53l0x_api_core.c **** 
1482:Api\core\src/vl53l0x_api_core.c **** 	*ptotal_signal_rate_mcps =
 3729              		.loc 1 1482 0
 3730 0006 CB68     		ldr	r3, [r1, #12]
 3731 0008 1360     		str	r3, [r2]
1483:Api\core\src/vl53l0x_api_core.c **** 		pRangingMeasurementData->SignalRateRtnMegaCps;
1484:Api\core\src/vl53l0x_api_core.c **** 
1485:Api\core\src/vl53l0x_api_core.c **** 	Status = VL53L0X_get_total_xtalk_rate(
 3732              		.loc 1 1485 0
 3733 000a 01AA     		add	r2, sp, #4
 3734              	.LVL665:
 3735 000c FFF7FEFF 		bl	VL53L0X_get_total_xtalk_rate
 3736              	.LVL666:
1486:Api\core\src/vl53l0x_api_core.c **** 		Dev, pRangingMeasurementData, &totalXtalkMegaCps);
1487:Api\core\src/vl53l0x_api_core.c **** 
1488:Api\core\src/vl53l0x_api_core.c **** 	if (Status == VL53L0X_ERROR_NONE)
 3737              		.loc 1 1488 0
ARM GAS  C:\Users\Rajesh\AppData\Local\Temp\ccMJoliC.s 			page 94


 3738 0010 0028     		cmp	r0, #0
 3739 0012 04D1     		bne	.L175
1489:Api\core\src/vl53l0x_api_core.c **** 		*ptotal_signal_rate_mcps += totalXtalkMegaCps;
 3740              		.loc 1 1489 0
 3741 0014 2368     		ldr	r3, [r4]
 3742 0016 019A     		ldr	r2, [sp, #4]
 3743 0018 9446     		mov	ip, r2
 3744 001a 6344     		add	r3, r3, ip
 3745 001c 2360     		str	r3, [r4]
 3746              	.L175:
1490:Api\core\src/vl53l0x_api_core.c **** 
1491:Api\core\src/vl53l0x_api_core.c **** 	return Status;
1492:Api\core\src/vl53l0x_api_core.c **** }
 3747              		.loc 1 1492 0
 3748 001e 02B0     		add	sp, sp, #8
 3749              		@ sp needed
 3750              	.LVL667:
 3751 0020 10BD     		pop	{r4, pc}
 3752              		.cfi_endproc
 3753              	.LFE22:
 3754              		.size	VL53L0X_get_total_signal_rate, .-VL53L0X_get_total_signal_rate
 3755 0022 C046     		.section	.text.VL53L0X_calc_dmax,"ax",%progbits
 3756              		.align	2
 3757              		.global	VL53L0X_calc_dmax
 3758              		.code	16
 3759              		.thumb_func
 3760              		.type	VL53L0X_calc_dmax, %function
 3761              	VL53L0X_calc_dmax:
 3762              	.LFB23:
1493:Api\core\src/vl53l0x_api_core.c **** 
1494:Api\core\src/vl53l0x_api_core.c **** VL53L0X_Error VL53L0X_calc_dmax(
1495:Api\core\src/vl53l0x_api_core.c **** 	VL53L0X_DEV Dev,
1496:Api\core\src/vl53l0x_api_core.c **** 	FixPoint1616_t totalSignalRate_mcps,
1497:Api\core\src/vl53l0x_api_core.c **** 	FixPoint1616_t totalCorrSignalRate_mcps,
1498:Api\core\src/vl53l0x_api_core.c **** 	FixPoint1616_t pwMult,
1499:Api\core\src/vl53l0x_api_core.c **** 	uint32_t sigmaEstimateP1,
1500:Api\core\src/vl53l0x_api_core.c **** 	FixPoint1616_t sigmaEstimateP2,
1501:Api\core\src/vl53l0x_api_core.c **** 	uint32_t peakVcselDuration_us,
1502:Api\core\src/vl53l0x_api_core.c **** 	uint32_t *pdmax_mm)
1503:Api\core\src/vl53l0x_api_core.c **** {
 3763              		.loc 1 1503 0
 3764              		.cfi_startproc
 3765              		@ args = 16, pretend = 0, frame = 8
 3766              		@ frame_needed = 0, uses_anonymous_args = 0
 3767              	.LVL668:
 3768 0000 F0B5     		push	{r4, r5, r6, r7, lr}
 3769              		.cfi_def_cfa_offset 20
 3770              		.cfi_offset 4, -20
 3771              		.cfi_offset 5, -16
 3772              		.cfi_offset 6, -12
 3773              		.cfi_offset 7, -8
 3774              		.cfi_offset 14, -4
 3775 0002 83B0     		sub	sp, sp, #12
 3776              		.cfi_def_cfa_offset 32
 3777 0004 1C00     		movs	r4, r3
 3778 0006 0B9D     		ldr	r5, [sp, #44]
 3779              	.LVL669:
ARM GAS  C:\Users\Rajesh\AppData\Local\Temp\ccMJoliC.s 			page 95


1504:Api\core\src/vl53l0x_api_core.c **** 	const uint32_t cSigmaLimit		= 18;
1505:Api\core\src/vl53l0x_api_core.c **** 	const FixPoint1616_t cSignalLimit	= 0x4000; /* 0.25 */
1506:Api\core\src/vl53l0x_api_core.c **** 	const FixPoint1616_t cSigmaEstRef	= 0x00000042; /* 0.001 */
1507:Api\core\src/vl53l0x_api_core.c **** 	const uint32_t cAmbEffWidthSigmaEst_ns = 6;
1508:Api\core\src/vl53l0x_api_core.c **** 	const uint32_t cAmbEffWidthDMax_ns	   = 7;
1509:Api\core\src/vl53l0x_api_core.c **** 	uint32_t dmaxCalRange_mm;
1510:Api\core\src/vl53l0x_api_core.c **** 	FixPoint1616_t dmaxCalSignalRateRtn_mcps;
1511:Api\core\src/vl53l0x_api_core.c **** 	FixPoint1616_t minSignalNeeded;
1512:Api\core\src/vl53l0x_api_core.c **** 	FixPoint1616_t minSignalNeeded_p1;
1513:Api\core\src/vl53l0x_api_core.c **** 	FixPoint1616_t minSignalNeeded_p2;
1514:Api\core\src/vl53l0x_api_core.c **** 	FixPoint1616_t minSignalNeeded_p3;
1515:Api\core\src/vl53l0x_api_core.c **** 	FixPoint1616_t minSignalNeeded_p4;
1516:Api\core\src/vl53l0x_api_core.c **** 	FixPoint1616_t sigmaLimitTmp;
1517:Api\core\src/vl53l0x_api_core.c **** 	FixPoint1616_t sigmaEstSqTmp;
1518:Api\core\src/vl53l0x_api_core.c **** 	FixPoint1616_t signalLimitTmp;
1519:Api\core\src/vl53l0x_api_core.c **** 	FixPoint1616_t SignalAt0mm;
1520:Api\core\src/vl53l0x_api_core.c **** 	FixPoint1616_t dmaxDark;
1521:Api\core\src/vl53l0x_api_core.c **** 	FixPoint1616_t dmaxAmbient;
1522:Api\core\src/vl53l0x_api_core.c **** 	FixPoint1616_t dmaxDarkTmp;
1523:Api\core\src/vl53l0x_api_core.c **** 	FixPoint1616_t sigmaEstP2Tmp;
1524:Api\core\src/vl53l0x_api_core.c **** 	uint32_t signalRateTemp_mcps;
1525:Api\core\src/vl53l0x_api_core.c **** 
1526:Api\core\src/vl53l0x_api_core.c **** 	VL53L0X_Error Status = VL53L0X_ERROR_NONE;
1527:Api\core\src/vl53l0x_api_core.c **** 
1528:Api\core\src/vl53l0x_api_core.c **** 	LOG_FUNCTION_START("");
1529:Api\core\src/vl53l0x_api_core.c **** 
1530:Api\core\src/vl53l0x_api_core.c **** 	dmaxCalRange_mm =
1531:Api\core\src/vl53l0x_api_core.c **** 		PALDevDataGet(Dev, DmaxCalRangeMilliMeter);
 3780              		.loc 1 1531 0
 3781 0008 AA23     		movs	r3, #170
 3782              	.LVL670:
 3783 000a 5B00     		lsls	r3, r3, #1
 3784 000c C75A     		ldrh	r7, [r0, r3]
 3785              	.LVL671:
1532:Api\core\src/vl53l0x_api_core.c **** 
1533:Api\core\src/vl53l0x_api_core.c **** 	dmaxCalSignalRateRtn_mcps =
 3786              		.loc 1 1533 0
 3787 000e 0433     		adds	r3, r3, #4
 3788 0010 C358     		ldr	r3, [r0, r3]
 3789              	.LVL672:
1534:Api\core\src/vl53l0x_api_core.c **** 		PALDevDataGet(Dev, DmaxCalSignalRateRtnMegaCps);
1535:Api\core\src/vl53l0x_api_core.c **** 
1536:Api\core\src/vl53l0x_api_core.c **** 	/* uint32 * FixPoint1616 = FixPoint1616 */
1537:Api\core\src/vl53l0x_api_core.c **** 	SignalAt0mm = dmaxCalRange_mm * dmaxCalSignalRateRtn_mcps;
 3790              		.loc 1 1537 0
 3791 0012 7B43     		muls	r3, r7
 3792              	.LVL673:
1538:Api\core\src/vl53l0x_api_core.c **** 
1539:Api\core\src/vl53l0x_api_core.c **** 	/* FixPoint1616 >> 8 = FixPoint2408 */
1540:Api\core\src/vl53l0x_api_core.c **** 	SignalAt0mm = (SignalAt0mm + 0x80) >> 8;
 3793              		.loc 1 1540 0
 3794 0014 8033     		adds	r3, r3, #128
 3795              	.LVL674:
 3796 0016 1E0A     		lsrs	r6, r3, #8
 3797              	.LVL675:
1541:Api\core\src/vl53l0x_api_core.c **** 	SignalAt0mm *= dmaxCalRange_mm;
 3798              		.loc 1 1541 0
ARM GAS  C:\Users\Rajesh\AppData\Local\Temp\ccMJoliC.s 			page 96


 3799 0018 7E43     		muls	r6, r7
 3800              	.LVL676:
1542:Api\core\src/vl53l0x_api_core.c **** 
1543:Api\core\src/vl53l0x_api_core.c **** 	minSignalNeeded_p1 = 0;
1544:Api\core\src/vl53l0x_api_core.c **** 	if (totalCorrSignalRate_mcps > 0) {
 3801              		.loc 1 1544 0
 3802 001a 002A     		cmp	r2, #0
 3803 001c 0DD0     		beq	.L181
1545:Api\core\src/vl53l0x_api_core.c **** 
1546:Api\core\src/vl53l0x_api_core.c **** 		/* Shift by 10 bits to increase resolution prior to the
1547:Api\core\src/vl53l0x_api_core.c **** 		 * division */
1548:Api\core\src/vl53l0x_api_core.c **** 		signalRateTemp_mcps = totalSignalRate_mcps << 10;
 3804              		.loc 1 1548 0
 3805 001e 8902     		lsls	r1, r1, #10
 3806              	.LVL677:
1549:Api\core\src/vl53l0x_api_core.c **** 
1550:Api\core\src/vl53l0x_api_core.c **** 		/* Add rounding value prior to division */
1551:Api\core\src/vl53l0x_api_core.c **** 		minSignalNeeded_p1 = signalRateTemp_mcps +
1552:Api\core\src/vl53l0x_api_core.c **** 			(totalCorrSignalRate_mcps/2);
 3807              		.loc 1 1552 0
 3808 0020 5008     		lsrs	r0, r2, #1
 3809              	.LVL678:
1551:Api\core\src/vl53l0x_api_core.c **** 			(totalCorrSignalRate_mcps/2);
 3810              		.loc 1 1551 0
 3811 0022 0818     		adds	r0, r1, r0
 3812              	.LVL679:
1553:Api\core\src/vl53l0x_api_core.c **** 
1554:Api\core\src/vl53l0x_api_core.c **** 		/* FixPoint0626/FixPoint1616 = FixPoint2210 */
1555:Api\core\src/vl53l0x_api_core.c **** 		minSignalNeeded_p1 /= totalCorrSignalRate_mcps;
 3813              		.loc 1 1555 0
 3814 0024 1100     		movs	r1, r2
 3815              	.LVL680:
 3816 0026 FFF7FEFF 		bl	__aeabi_uidiv
 3817              	.LVL681:
1556:Api\core\src/vl53l0x_api_core.c **** 
1557:Api\core\src/vl53l0x_api_core.c **** 		/* Apply a factored version of the speed of light.
1558:Api\core\src/vl53l0x_api_core.c **** 		 Correction to be applied at the end */
1559:Api\core\src/vl53l0x_api_core.c **** 		minSignalNeeded_p1 *= 3;
 3818              		.loc 1 1559 0
 3819 002a 4700     		lsls	r7, r0, #1
 3820              	.LVL682:
 3821 002c 3818     		adds	r0, r7, r0
 3822              	.LVL683:
1560:Api\core\src/vl53l0x_api_core.c **** 
1561:Api\core\src/vl53l0x_api_core.c **** 		/* FixPoint2210 * FixPoint2210 = FixPoint1220 */
1562:Api\core\src/vl53l0x_api_core.c **** 		minSignalNeeded_p1 *= minSignalNeeded_p1;
 3823              		.loc 1 1562 0
 3824 002e 4043     		muls	r0, r0
 3825              	.LVL684:
1563:Api\core\src/vl53l0x_api_core.c **** 
1564:Api\core\src/vl53l0x_api_core.c **** 		/* FixPoint1220 >> 16 = FixPoint2804 */
1565:Api\core\src/vl53l0x_api_core.c **** 		minSignalNeeded_p1 = (minSignalNeeded_p1 + 0x8000) >> 16;
 3826              		.loc 1 1565 0
 3827 0030 8023     		movs	r3, #128
 3828 0032 1B02     		lsls	r3, r3, #8
 3829 0034 C718     		adds	r7, r0, r3
 3830 0036 3F0C     		lsrs	r7, r7, #16
ARM GAS  C:\Users\Rajesh\AppData\Local\Temp\ccMJoliC.s 			page 97


 3831              	.LVL685:
 3832 0038 00E0     		b	.L177
 3833              	.LVL686:
 3834              	.L181:
1543:Api\core\src/vl53l0x_api_core.c **** 	if (totalCorrSignalRate_mcps > 0) {
 3835              		.loc 1 1543 0
 3836 003a 0027     		movs	r7, #0
 3837              	.LVL687:
 3838              	.L177:
1566:Api\core\src/vl53l0x_api_core.c **** 	}
1567:Api\core\src/vl53l0x_api_core.c **** 
1568:Api\core\src/vl53l0x_api_core.c **** 	minSignalNeeded_p2 = pwMult * sigmaEstimateP1;
 3839              		.loc 1 1568 0
 3840 003c 089B     		ldr	r3, [sp, #32]
 3841 003e 6343     		muls	r3, r4
 3842              	.LVL688:
1569:Api\core\src/vl53l0x_api_core.c **** 
1570:Api\core\src/vl53l0x_api_core.c **** 	/* FixPoint1616 >> 16 =	 uint32 */
1571:Api\core\src/vl53l0x_api_core.c **** 	minSignalNeeded_p2 = (minSignalNeeded_p2 + 0x8000) >> 16;
 3843              		.loc 1 1571 0
 3844 0040 8022     		movs	r2, #128
 3845 0042 1202     		lsls	r2, r2, #8
 3846 0044 9446     		mov	ip, r2
 3847 0046 6344     		add	r3, r3, ip
 3848              	.LVL689:
 3849 0048 1B0C     		lsrs	r3, r3, #16
 3850              	.LVL690:
1572:Api\core\src/vl53l0x_api_core.c **** 
1573:Api\core\src/vl53l0x_api_core.c **** 	/* uint32 * uint32	=  uint32 */
1574:Api\core\src/vl53l0x_api_core.c **** 	minSignalNeeded_p2 *= minSignalNeeded_p2;
 3851              		.loc 1 1574 0
 3852 004a 5B43     		muls	r3, r3
 3853              	.LVL691:
 3854 004c 1C00     		movs	r4, r3
 3855              	.LVL692:
1575:Api\core\src/vl53l0x_api_core.c **** 
1576:Api\core\src/vl53l0x_api_core.c **** 	/* Check sigmaEstimateP2
1577:Api\core\src/vl53l0x_api_core.c **** 	 * If this value is too high there is not enough signal rate
1578:Api\core\src/vl53l0x_api_core.c **** 	 * to calculate dmax value so set a suitable value to ensure
1579:Api\core\src/vl53l0x_api_core.c **** 	 * a very small dmax.
1580:Api\core\src/vl53l0x_api_core.c **** 	 */
1581:Api\core\src/vl53l0x_api_core.c **** 	sigmaEstP2Tmp = (sigmaEstimateP2 + 0x8000) >> 16;
 3856              		.loc 1 1581 0
 3857 004e 099B     		ldr	r3, [sp, #36]
 3858              	.LVL693:
 3859 0050 6344     		add	r3, r3, ip
 3860 0052 180C     		lsrs	r0, r3, #16
 3861              	.LVL694:
1582:Api\core\src/vl53l0x_api_core.c **** 	sigmaEstP2Tmp = (sigmaEstP2Tmp + cAmbEffWidthSigmaEst_ns/2)/
 3862              		.loc 1 1582 0
 3863 0054 0330     		adds	r0, r0, #3
 3864              	.LVL695:
 3865 0056 0621     		movs	r1, #6
 3866 0058 FFF7FEFF 		bl	__aeabi_uidiv
 3867              	.LVL696:
1583:Api\core\src/vl53l0x_api_core.c **** 		cAmbEffWidthSigmaEst_ns;
1584:Api\core\src/vl53l0x_api_core.c **** 	sigmaEstP2Tmp *= cAmbEffWidthDMax_ns;
ARM GAS  C:\Users\Rajesh\AppData\Local\Temp\ccMJoliC.s 			page 98


 3868              		.loc 1 1584 0
 3869 005c C300     		lsls	r3, r0, #3
 3870 005e 181A     		subs	r0, r3, r0
 3871              	.LVL697:
1585:Api\core\src/vl53l0x_api_core.c **** 
1586:Api\core\src/vl53l0x_api_core.c **** 	if (sigmaEstP2Tmp > 0xffff) {
 3872              		.loc 1 1586 0
 3873 0060 254B     		ldr	r3, .L184
 3874 0062 9842     		cmp	r0, r3
 3875 0064 0DD8     		bhi	.L182
1587:Api\core\src/vl53l0x_api_core.c **** 		minSignalNeeded_p3 = 0xfff00000;
1588:Api\core\src/vl53l0x_api_core.c **** 	} else {
1589:Api\core\src/vl53l0x_api_core.c **** 
1590:Api\core\src/vl53l0x_api_core.c **** 		/* DMAX uses a different ambient width from sigma, so apply
1591:Api\core\src/vl53l0x_api_core.c **** 		 * correction.
1592:Api\core\src/vl53l0x_api_core.c **** 		 * Perform division before multiplication to prevent overflow.
1593:Api\core\src/vl53l0x_api_core.c **** 		 */
1594:Api\core\src/vl53l0x_api_core.c **** 		sigmaEstimateP2 = (sigmaEstimateP2 + cAmbEffWidthSigmaEst_ns/2)/
 3876              		.loc 1 1594 0
 3877 0066 099B     		ldr	r3, [sp, #36]
 3878 0068 D81C     		adds	r0, r3, #3
 3879              	.LVL698:
 3880 006a 0621     		movs	r1, #6
 3881 006c FFF7FEFF 		bl	__aeabi_uidiv
 3882              	.LVL699:
1595:Api\core\src/vl53l0x_api_core.c **** 			cAmbEffWidthSigmaEst_ns;
1596:Api\core\src/vl53l0x_api_core.c **** 		sigmaEstimateP2 *= cAmbEffWidthDMax_ns;
 3883              		.loc 1 1596 0
 3884 0070 C300     		lsls	r3, r0, #3
 3885 0072 1B1A     		subs	r3, r3, r0
 3886              	.LVL700:
1597:Api\core\src/vl53l0x_api_core.c **** 
1598:Api\core\src/vl53l0x_api_core.c **** 		/* FixPoint1616 >> 16 = uint32 */
1599:Api\core\src/vl53l0x_api_core.c **** 		minSignalNeeded_p3 = (sigmaEstimateP2 + 0x8000) >> 16;
 3887              		.loc 1 1599 0
 3888 0074 8022     		movs	r2, #128
 3889 0076 1202     		lsls	r2, r2, #8
 3890 0078 9446     		mov	ip, r2
 3891 007a 6344     		add	r3, r3, ip
 3892              	.LVL701:
 3893 007c 1B0C     		lsrs	r3, r3, #16
 3894              	.LVL702:
1600:Api\core\src/vl53l0x_api_core.c **** 
1601:Api\core\src/vl53l0x_api_core.c **** 		minSignalNeeded_p3 *= minSignalNeeded_p3;
 3895              		.loc 1 1601 0
 3896 007e 5B43     		muls	r3, r3
 3897              	.LVL703:
 3898 0080 00E0     		b	.L178
 3899              	.LVL704:
 3900              	.L182:
1587:Api\core\src/vl53l0x_api_core.c **** 	} else {
 3901              		.loc 1 1587 0
 3902 0082 1E4B     		ldr	r3, .L184+4
 3903              	.LVL705:
 3904              	.L178:
1602:Api\core\src/vl53l0x_api_core.c **** 
1603:Api\core\src/vl53l0x_api_core.c **** 	}
ARM GAS  C:\Users\Rajesh\AppData\Local\Temp\ccMJoliC.s 			page 99


1604:Api\core\src/vl53l0x_api_core.c **** 
1605:Api\core\src/vl53l0x_api_core.c **** 	/* FixPoint1814 / uint32 = FixPoint1814 */
1606:Api\core\src/vl53l0x_api_core.c **** 	sigmaLimitTmp = ((cSigmaLimit << 14) + 500) / 1000;
1607:Api\core\src/vl53l0x_api_core.c **** 
1608:Api\core\src/vl53l0x_api_core.c **** 	/* FixPoint1814 * FixPoint1814 = FixPoint3628 := FixPoint0428 */
1609:Api\core\src/vl53l0x_api_core.c **** 	sigmaLimitTmp *= sigmaLimitTmp;
1610:Api\core\src/vl53l0x_api_core.c **** 
1611:Api\core\src/vl53l0x_api_core.c **** 	/* FixPoint1616 * FixPoint1616 = FixPoint3232 */
1612:Api\core\src/vl53l0x_api_core.c **** 	sigmaEstSqTmp = cSigmaEstRef * cSigmaEstRef;
1613:Api\core\src/vl53l0x_api_core.c **** 
1614:Api\core\src/vl53l0x_api_core.c **** 	/* FixPoint3232 >> 4 = FixPoint0428 */
1615:Api\core\src/vl53l0x_api_core.c **** 	sigmaEstSqTmp = (sigmaEstSqTmp + 0x08) >> 4;
1616:Api\core\src/vl53l0x_api_core.c **** 
1617:Api\core\src/vl53l0x_api_core.c **** 	/* FixPoint0428 - FixPoint0428	= FixPoint0428 */
1618:Api\core\src/vl53l0x_api_core.c **** 	sigmaLimitTmp -=  sigmaEstSqTmp;
1619:Api\core\src/vl53l0x_api_core.c **** 
1620:Api\core\src/vl53l0x_api_core.c **** 	/* uint32_t * FixPoint0428 = FixPoint0428 */
1621:Api\core\src/vl53l0x_api_core.c **** 	minSignalNeeded_p4 = 4 * 12 * sigmaLimitTmp;
1622:Api\core\src/vl53l0x_api_core.c **** 
1623:Api\core\src/vl53l0x_api_core.c **** 	/* FixPoint0428 >> 14 = FixPoint1814 */
1624:Api\core\src/vl53l0x_api_core.c **** 	minSignalNeeded_p4 = (minSignalNeeded_p4 + 0x2000) >> 14;
1625:Api\core\src/vl53l0x_api_core.c **** 
1626:Api\core\src/vl53l0x_api_core.c **** 	/* uint32 + uint32 = uint32 */
1627:Api\core\src/vl53l0x_api_core.c **** 	minSignalNeeded = (minSignalNeeded_p2 + minSignalNeeded_p3);
 3905              		.loc 1 1627 0
 3906 0084 1B19     		adds	r3, r3, r4
 3907              	.LVL706:
1628:Api\core\src/vl53l0x_api_core.c **** 
1629:Api\core\src/vl53l0x_api_core.c **** 	/* uint32 / uint32 = uint32 */
1630:Api\core\src/vl53l0x_api_core.c **** 	minSignalNeeded += (peakVcselDuration_us/2);
 3908              		.loc 1 1630 0
 3909 0086 0A9A     		ldr	r2, [sp, #40]
 3910 0088 5208     		lsrs	r2, r2, #1
 3911 008a 9818     		adds	r0, r3, r2
 3912              	.LVL707:
1631:Api\core\src/vl53l0x_api_core.c **** 	minSignalNeeded /= peakVcselDuration_us;
 3913              		.loc 1 1631 0
 3914 008c 0A99     		ldr	r1, [sp, #40]
 3915 008e FFF7FEFF 		bl	__aeabi_uidiv
 3916              	.LVL708:
1632:Api\core\src/vl53l0x_api_core.c **** 
1633:Api\core\src/vl53l0x_api_core.c **** 	/* uint32 << 14 = FixPoint1814 */
1634:Api\core\src/vl53l0x_api_core.c **** 	minSignalNeeded <<= 14;
 3917              		.loc 1 1634 0
 3918 0092 8003     		lsls	r0, r0, #14
 3919              	.LVL709:
1635:Api\core\src/vl53l0x_api_core.c **** 
1636:Api\core\src/vl53l0x_api_core.c **** 	/* FixPoint1814 / FixPoint1814 = uint32 */
1637:Api\core\src/vl53l0x_api_core.c **** 	minSignalNeeded += (minSignalNeeded_p4/2);
 3920              		.loc 1 1637 0
 3921 0094 7F30     		adds	r0, r0, #127
 3922              	.LVL710:
1638:Api\core\src/vl53l0x_api_core.c **** 	minSignalNeeded /= minSignalNeeded_p4;
 3923              		.loc 1 1638 0
 3924 0096 FE21     		movs	r1, #254
 3925 0098 FFF7FEFF 		bl	__aeabi_uidiv
 3926              	.LVL711:
ARM GAS  C:\Users\Rajesh\AppData\Local\Temp\ccMJoliC.s 			page 100


1639:Api\core\src/vl53l0x_api_core.c **** 
1640:Api\core\src/vl53l0x_api_core.c **** 	/* FixPoint3200 * FixPoint2804 := FixPoint2804*/
1641:Api\core\src/vl53l0x_api_core.c **** 	minSignalNeeded *= minSignalNeeded_p1;
 3927              		.loc 1 1641 0
 3928 009c 4743     		muls	r7, r0
 3929              	.LVL712:
1642:Api\core\src/vl53l0x_api_core.c **** 
1643:Api\core\src/vl53l0x_api_core.c **** 	/* Apply correction by dividing by 1000000.
1644:Api\core\src/vl53l0x_api_core.c **** 	 * This assumes 10E16 on the numerator of the equation
1645:Api\core\src/vl53l0x_api_core.c **** 	 * and 10E-22 on the denominator.
1646:Api\core\src/vl53l0x_api_core.c **** 	 * We do this because 32bit fix point calculation can't
1647:Api\core\src/vl53l0x_api_core.c **** 	 * handle the larger and smaller elements of this equation,
1648:Api\core\src/vl53l0x_api_core.c **** 	 * i.e. speed of light and pulse widths.
1649:Api\core\src/vl53l0x_api_core.c **** 	 */
1650:Api\core\src/vl53l0x_api_core.c **** 	minSignalNeeded = (minSignalNeeded + 500) / 1000;
 3930              		.loc 1 1650 0
 3931 009e 3800     		movs	r0, r7
 3932 00a0 F530     		adds	r0, r0, #245
 3933 00a2 FF30     		adds	r0, r0, #255
 3934 00a4 FA21     		movs	r1, #250
 3935 00a6 8900     		lsls	r1, r1, #2
 3936 00a8 FFF7FEFF 		bl	__aeabi_uidiv
 3937              	.LVL713:
1651:Api\core\src/vl53l0x_api_core.c **** 	minSignalNeeded <<= 4;
 3938              		.loc 1 1651 0
 3939 00ac 0001     		lsls	r0, r0, #4
 3940              	.LVL714:
1652:Api\core\src/vl53l0x_api_core.c **** 
1653:Api\core\src/vl53l0x_api_core.c **** 	minSignalNeeded = (minSignalNeeded + 500) / 1000;
 3941              		.loc 1 1653 0
 3942 00ae F530     		adds	r0, r0, #245
 3943              	.LVL715:
 3944 00b0 FF30     		adds	r0, r0, #255
 3945              	.LVL716:
 3946 00b2 FA21     		movs	r1, #250
 3947 00b4 8900     		lsls	r1, r1, #2
 3948 00b6 0190     		str	r0, [sp, #4]
 3949 00b8 FFF7FEFF 		bl	__aeabi_uidiv
 3950              	.LVL717:
 3951 00bc 0700     		movs	r7, r0
 3952              	.LVL718:
1654:Api\core\src/vl53l0x_api_core.c **** 
1655:Api\core\src/vl53l0x_api_core.c **** 	/* FixPoint1616 >> 8 = FixPoint2408 */
1656:Api\core\src/vl53l0x_api_core.c **** 	signalLimitTmp = (cSignalLimit + 0x80) >> 8;
1657:Api\core\src/vl53l0x_api_core.c **** 
1658:Api\core\src/vl53l0x_api_core.c **** 	/* FixPoint2408/FixPoint2408 = uint32 */
1659:Api\core\src/vl53l0x_api_core.c **** 	if (signalLimitTmp != 0)
1660:Api\core\src/vl53l0x_api_core.c **** 		dmaxDarkTmp = (SignalAt0mm + (signalLimitTmp / 2))
 3953              		.loc 1 1660 0
 3954 00be 3300     		movs	r3, r6
 3955 00c0 2033     		adds	r3, r3, #32
 3956 00c2 9809     		lsrs	r0, r3, #6
 3957              	.LVL719:
1661:Api\core\src/vl53l0x_api_core.c **** 			/ signalLimitTmp;
1662:Api\core\src/vl53l0x_api_core.c **** 	else
1663:Api\core\src/vl53l0x_api_core.c **** 		dmaxDarkTmp = 0;
1664:Api\core\src/vl53l0x_api_core.c **** 
ARM GAS  C:\Users\Rajesh\AppData\Local\Temp\ccMJoliC.s 			page 101


1665:Api\core\src/vl53l0x_api_core.c **** 	dmaxDark = VL53L0X_isqrt(dmaxDarkTmp);
 3958              		.loc 1 1665 0
 3959 00c4 FFF7FEFF 		bl	VL53L0X_isqrt
 3960              	.LVL720:
 3961 00c8 0400     		movs	r4, r0
 3962              	.LVL721:
1666:Api\core\src/vl53l0x_api_core.c **** 
1667:Api\core\src/vl53l0x_api_core.c **** 	/* FixPoint2408/FixPoint2408 = uint32 */
1668:Api\core\src/vl53l0x_api_core.c **** 	if (minSignalNeeded != 0)
 3963              		.loc 1 1668 0
 3964 00ca 002F     		cmp	r7, #0
 3965 00cc 09D0     		beq	.L183
1669:Api\core\src/vl53l0x_api_core.c **** 		dmaxAmbient = (SignalAt0mm + minSignalNeeded/2)
 3966              		.loc 1 1669 0
 3967 00ce FA21     		movs	r1, #250
 3968 00d0 C900     		lsls	r1, r1, #3
 3969 00d2 0198     		ldr	r0, [sp, #4]
 3970              	.LVL722:
 3971 00d4 FFF7FEFF 		bl	__aeabi_uidiv
 3972              	.LVL723:
 3973 00d8 3018     		adds	r0, r6, r0
 3974 00da 3900     		movs	r1, r7
 3975 00dc FFF7FEFF 		bl	__aeabi_uidiv
 3976              	.LVL724:
 3977 00e0 00E0     		b	.L179
 3978              	.LVL725:
 3979              	.L183:
1670:Api\core\src/vl53l0x_api_core.c **** 			/ minSignalNeeded;
1671:Api\core\src/vl53l0x_api_core.c **** 	else
1672:Api\core\src/vl53l0x_api_core.c **** 		dmaxAmbient = 0;
 3980              		.loc 1 1672 0
 3981 00e2 0020     		movs	r0, #0
 3982              	.LVL726:
 3983              	.L179:
1673:Api\core\src/vl53l0x_api_core.c **** 
1674:Api\core\src/vl53l0x_api_core.c **** 	dmaxAmbient = VL53L0X_isqrt(dmaxAmbient);
 3984              		.loc 1 1674 0
 3985 00e4 FFF7FEFF 		bl	VL53L0X_isqrt
 3986              	.LVL727:
1675:Api\core\src/vl53l0x_api_core.c **** 
1676:Api\core\src/vl53l0x_api_core.c **** 	*pdmax_mm = dmaxDark;
 3987              		.loc 1 1676 0
 3988 00e8 2C60     		str	r4, [r5]
1677:Api\core\src/vl53l0x_api_core.c **** 	if (dmaxDark > dmaxAmbient)
 3989              		.loc 1 1677 0
 3990 00ea 8442     		cmp	r4, r0
 3991 00ec 00D9     		bls	.L180
1678:Api\core\src/vl53l0x_api_core.c **** 		*pdmax_mm = dmaxAmbient;
 3992              		.loc 1 1678 0
 3993 00ee 2860     		str	r0, [r5]
 3994              	.L180:
1679:Api\core\src/vl53l0x_api_core.c **** 
1680:Api\core\src/vl53l0x_api_core.c **** 	LOG_FUNCTION_END(Status);
1681:Api\core\src/vl53l0x_api_core.c **** 
1682:Api\core\src/vl53l0x_api_core.c **** 	return Status;
1683:Api\core\src/vl53l0x_api_core.c **** }
 3995              		.loc 1 1683 0
ARM GAS  C:\Users\Rajesh\AppData\Local\Temp\ccMJoliC.s 			page 102


 3996 00f0 0020     		movs	r0, #0
 3997              	.LVL728:
 3998 00f2 03B0     		add	sp, sp, #12
 3999              		@ sp needed
 4000              	.LVL729:
 4001              	.LVL730:
 4002              	.LVL731:
 4003 00f4 F0BD     		pop	{r4, r5, r6, r7, pc}
 4004              	.L185:
 4005 00f6 C046     		.align	2
 4006              	.L184:
 4007 00f8 FFFF0000 		.word	65535
 4008 00fc 0000F0FF 		.word	-1048576
 4009              		.cfi_endproc
 4010              	.LFE23:
 4011              		.size	VL53L0X_calc_dmax, .-VL53L0X_calc_dmax
 4012              		.section	.text.VL53L0X_calc_sigma_estimate,"ax",%progbits
 4013              		.align	2
 4014              		.global	VL53L0X_calc_sigma_estimate
 4015              		.code	16
 4016              		.thumb_func
 4017              		.type	VL53L0X_calc_sigma_estimate, %function
 4018              	VL53L0X_calc_sigma_estimate:
 4019              	.LFB24:
1684:Api\core\src/vl53l0x_api_core.c **** 
1685:Api\core\src/vl53l0x_api_core.c **** 
1686:Api\core\src/vl53l0x_api_core.c **** VL53L0X_Error VL53L0X_calc_sigma_estimate(VL53L0X_DEV Dev,
1687:Api\core\src/vl53l0x_api_core.c **** 	VL53L0X_RangingMeasurementData_t *pRangingMeasurementData,
1688:Api\core\src/vl53l0x_api_core.c **** 	FixPoint1616_t *pSigmaEstimate,
1689:Api\core\src/vl53l0x_api_core.c **** 	uint32_t *pDmax_mm)
1690:Api\core\src/vl53l0x_api_core.c **** {
 4020              		.loc 1 1690 0
 4021              		.cfi_startproc
 4022              		@ args = 0, pretend = 0, frame = 40
 4023              		@ frame_needed = 0, uses_anonymous_args = 0
 4024              	.LVL732:
 4025 0000 F0B5     		push	{r4, r5, r6, r7, lr}
 4026              		.cfi_def_cfa_offset 20
 4027              		.cfi_offset 4, -20
 4028              		.cfi_offset 5, -16
 4029              		.cfi_offset 6, -12
 4030              		.cfi_offset 7, -8
 4031              		.cfi_offset 14, -4
 4032 0002 5F46     		mov	r7, fp
 4033 0004 5646     		mov	r6, r10
 4034 0006 4D46     		mov	r5, r9
 4035 0008 4446     		mov	r4, r8
 4036 000a F0B4     		push	{r4, r5, r6, r7}
 4037              		.cfi_def_cfa_offset 36
 4038              		.cfi_offset 8, -36
 4039              		.cfi_offset 9, -32
 4040              		.cfi_offset 10, -28
 4041              		.cfi_offset 11, -24
 4042 000c 8FB0     		sub	sp, sp, #60
 4043              		.cfi_def_cfa_offset 96
 4044 000e 0500     		movs	r5, r0
 4045 0010 8946     		mov	r9, r1
ARM GAS  C:\Users\Rajesh\AppData\Local\Temp\ccMJoliC.s 			page 103


 4046 0012 0592     		str	r2, [sp, #20]
 4047 0014 0693     		str	r3, [sp, #24]
 4048              	.LVL733:
1691:Api\core\src/vl53l0x_api_core.c **** 	/* Expressed in 100ths of a ns, i.e. centi-ns */
1692:Api\core\src/vl53l0x_api_core.c **** 	const uint32_t cPulseEffectiveWidth_centi_ns   = 800;
1693:Api\core\src/vl53l0x_api_core.c **** 	/* Expressed in 100ths of a ns, i.e. centi-ns */
1694:Api\core\src/vl53l0x_api_core.c **** 	const uint32_t cAmbientEffectiveWidth_centi_ns = 600;
1695:Api\core\src/vl53l0x_api_core.c **** 	const FixPoint1616_t cDfltFinalRangeIntegrationTimeMilliSecs	= 0x00190000; /* 25ms */
1696:Api\core\src/vl53l0x_api_core.c **** 	const uint32_t cVcselPulseWidth_ps	= 4700; /* pico secs */
1697:Api\core\src/vl53l0x_api_core.c **** 	const FixPoint1616_t cSigmaEstMax	= 0x028F87AE;
1698:Api\core\src/vl53l0x_api_core.c **** 	const FixPoint1616_t cSigmaEstRtnMax	= 0xF000;
1699:Api\core\src/vl53l0x_api_core.c **** 	const FixPoint1616_t cAmbToSignalRatioMax = 0xF0000000/
1700:Api\core\src/vl53l0x_api_core.c **** 		cAmbientEffectiveWidth_centi_ns;
1701:Api\core\src/vl53l0x_api_core.c **** 	/* Time Of Flight per mm (6.6 pico secs) */
1702:Api\core\src/vl53l0x_api_core.c **** 	const FixPoint1616_t cTOF_per_mm_ps		= 0x0006999A;
1703:Api\core\src/vl53l0x_api_core.c **** 	const uint32_t c16BitRoundingParam		= 0x00008000;
1704:Api\core\src/vl53l0x_api_core.c **** 	const FixPoint1616_t cMaxXTalk_kcps		= 0x00320000;
1705:Api\core\src/vl53l0x_api_core.c **** 	const uint32_t cPllPeriod_ps			= 1655;
1706:Api\core\src/vl53l0x_api_core.c **** 
1707:Api\core\src/vl53l0x_api_core.c **** 	uint32_t vcselTotalEventsRtn;
1708:Api\core\src/vl53l0x_api_core.c **** 	uint32_t finalRangeTimeoutMicroSecs;
1709:Api\core\src/vl53l0x_api_core.c **** 	uint32_t preRangeTimeoutMicroSecs;
1710:Api\core\src/vl53l0x_api_core.c **** 	uint32_t finalRangeIntegrationTimeMilliSecs;
1711:Api\core\src/vl53l0x_api_core.c **** 	FixPoint1616_t sigmaEstimateP1;
1712:Api\core\src/vl53l0x_api_core.c **** 	FixPoint1616_t sigmaEstimateP2;
1713:Api\core\src/vl53l0x_api_core.c **** 	FixPoint1616_t sigmaEstimateP3;
1714:Api\core\src/vl53l0x_api_core.c **** 	FixPoint1616_t deltaT_ps;
1715:Api\core\src/vl53l0x_api_core.c **** 	FixPoint1616_t pwMult;
1716:Api\core\src/vl53l0x_api_core.c **** 	FixPoint1616_t sigmaEstRtn;
1717:Api\core\src/vl53l0x_api_core.c **** 	FixPoint1616_t sigmaEstimate;
1718:Api\core\src/vl53l0x_api_core.c **** 	FixPoint1616_t xTalkCorrection;
1719:Api\core\src/vl53l0x_api_core.c **** 	FixPoint1616_t ambientRate_kcps;
1720:Api\core\src/vl53l0x_api_core.c **** 	FixPoint1616_t peakSignalRate_kcps;
1721:Api\core\src/vl53l0x_api_core.c **** 	FixPoint1616_t xTalkCompRate_mcps;
1722:Api\core\src/vl53l0x_api_core.c **** 	uint32_t xTalkCompRate_kcps;
1723:Api\core\src/vl53l0x_api_core.c **** 	VL53L0X_Error Status = VL53L0X_ERROR_NONE;
1724:Api\core\src/vl53l0x_api_core.c **** 	FixPoint1616_t diff1_mcps;
1725:Api\core\src/vl53l0x_api_core.c **** 	FixPoint1616_t diff2_mcps;
1726:Api\core\src/vl53l0x_api_core.c **** 	FixPoint1616_t sqr1;
1727:Api\core\src/vl53l0x_api_core.c **** 	FixPoint1616_t sqr2;
1728:Api\core\src/vl53l0x_api_core.c **** 	FixPoint1616_t sqrSum;
1729:Api\core\src/vl53l0x_api_core.c **** 	FixPoint1616_t sqrtResult_centi_ns;
1730:Api\core\src/vl53l0x_api_core.c **** 	FixPoint1616_t sqrtResult;
1731:Api\core\src/vl53l0x_api_core.c **** 	FixPoint1616_t totalSignalRate_mcps;
1732:Api\core\src/vl53l0x_api_core.c **** 	FixPoint1616_t correctedSignalRate_mcps;
1733:Api\core\src/vl53l0x_api_core.c **** 	FixPoint1616_t sigmaEstRef;
1734:Api\core\src/vl53l0x_api_core.c **** 	uint32_t vcselWidth;
1735:Api\core\src/vl53l0x_api_core.c **** 	uint32_t finalRangeMacroPCLKS;
1736:Api\core\src/vl53l0x_api_core.c **** 	uint32_t preRangeMacroPCLKS;
1737:Api\core\src/vl53l0x_api_core.c **** 	uint32_t peakVcselDuration_us;
1738:Api\core\src/vl53l0x_api_core.c **** 	uint8_t finalRangeVcselPCLKS;
1739:Api\core\src/vl53l0x_api_core.c **** 	uint8_t preRangeVcselPCLKS;
1740:Api\core\src/vl53l0x_api_core.c **** 	/*! \addtogroup calc_sigma_estimate
1741:Api\core\src/vl53l0x_api_core.c **** 	 * @{
1742:Api\core\src/vl53l0x_api_core.c **** 	 *
1743:Api\core\src/vl53l0x_api_core.c **** 	 * Estimates the range sigma
1744:Api\core\src/vl53l0x_api_core.c **** 	 */
ARM GAS  C:\Users\Rajesh\AppData\Local\Temp\ccMJoliC.s 			page 104


1745:Api\core\src/vl53l0x_api_core.c **** 
1746:Api\core\src/vl53l0x_api_core.c **** 	LOG_FUNCTION_START("");
1747:Api\core\src/vl53l0x_api_core.c **** 
1748:Api\core\src/vl53l0x_api_core.c **** 	VL53L0X_GETPARAMETERFIELD(Dev, XTalkCompensationRateMegaCps,
 4049              		.loc 1 1748 0
 4050 0016 036A     		ldr	r3, [r0, #32]
 4051              	.LVL734:
 4052 0018 0D93     		str	r3, [sp, #52]
1749:Api\core\src/vl53l0x_api_core.c **** 			xTalkCompRate_mcps);
1750:Api\core\src/vl53l0x_api_core.c **** 
1751:Api\core\src/vl53l0x_api_core.c **** 	/*
1752:Api\core\src/vl53l0x_api_core.c **** 	 * We work in kcps rather than mcps as this helps keep within the
1753:Api\core\src/vl53l0x_api_core.c **** 	 * confines of the 32 Fix1616 type.
1754:Api\core\src/vl53l0x_api_core.c **** 	 */
1755:Api\core\src/vl53l0x_api_core.c **** 
1756:Api\core\src/vl53l0x_api_core.c **** 	ambientRate_kcps =
1757:Api\core\src/vl53l0x_api_core.c **** 		(pRangingMeasurementData->AmbientRateRtnMegaCps * 1000) >> 16;
 4053              		.loc 1 1757 0
 4054 001a FA24     		movs	r4, #250
 4055 001c A400     		lsls	r4, r4, #2
 4056 001e 0F69     		ldr	r7, [r1, #16]
 4057 0020 6743     		muls	r7, r4
1756:Api\core\src/vl53l0x_api_core.c **** 		(pRangingMeasurementData->AmbientRateRtnMegaCps * 1000) >> 16;
 4058              		.loc 1 1756 0
 4059 0022 3F0C     		lsrs	r7, r7, #16
 4060              	.LVL735:
1758:Api\core\src/vl53l0x_api_core.c **** 
1759:Api\core\src/vl53l0x_api_core.c **** 	correctedSignalRate_mcps =
 4061              		.loc 1 1759 0
 4062 0024 CB68     		ldr	r3, [r1, #12]
 4063 0026 0793     		str	r3, [sp, #28]
 4064              	.LVL736:
1760:Api\core\src/vl53l0x_api_core.c **** 		pRangingMeasurementData->SignalRateRtnMegaCps;
1761:Api\core\src/vl53l0x_api_core.c **** 
1762:Api\core\src/vl53l0x_api_core.c **** 
1763:Api\core\src/vl53l0x_api_core.c **** 	Status = VL53L0X_get_total_signal_rate(
 4065              		.loc 1 1763 0
 4066 0028 0CAA     		add	r2, sp, #48
 4067              	.LVL737:
 4068 002a FFF7FEFF 		bl	VL53L0X_get_total_signal_rate
 4069              	.LVL738:
1764:Api\core\src/vl53l0x_api_core.c **** 		Dev, pRangingMeasurementData, &totalSignalRate_mcps);
1765:Api\core\src/vl53l0x_api_core.c **** 	Status = VL53L0X_get_total_xtalk_rate(
 4070              		.loc 1 1765 0
 4071 002e 0DAA     		add	r2, sp, #52
 4072 0030 4946     		mov	r1, r9
 4073 0032 2800     		movs	r0, r5
 4074 0034 FFF7FEFF 		bl	VL53L0X_get_total_xtalk_rate
 4075              	.LVL739:
 4076 0038 0600     		movs	r6, r0
 4077              	.LVL740:
1766:Api\core\src/vl53l0x_api_core.c **** 		Dev, pRangingMeasurementData, &xTalkCompRate_mcps);
1767:Api\core\src/vl53l0x_api_core.c **** 
1768:Api\core\src/vl53l0x_api_core.c **** 
1769:Api\core\src/vl53l0x_api_core.c **** 	/* Signal rate measurement provided by device is the
1770:Api\core\src/vl53l0x_api_core.c **** 	 * peak signal rate, not average.
1771:Api\core\src/vl53l0x_api_core.c **** 	 */
ARM GAS  C:\Users\Rajesh\AppData\Local\Temp\ccMJoliC.s 			page 105


1772:Api\core\src/vl53l0x_api_core.c **** 	peakSignalRate_kcps = (totalSignalRate_mcps * 1000);
 4078              		.loc 1 1772 0
 4079 003a 0C9B     		ldr	r3, [sp, #48]
 4080 003c 9846     		mov	r8, r3
 4081 003e 6343     		muls	r3, r4
 4082              	.LVL741:
1773:Api\core\src/vl53l0x_api_core.c **** 	peakSignalRate_kcps = (peakSignalRate_kcps + 0x8000) >> 16;
 4083              		.loc 1 1773 0
 4084 0040 8022     		movs	r2, #128
 4085 0042 1202     		lsls	r2, r2, #8
 4086 0044 9446     		mov	ip, r2
 4087 0046 6344     		add	r3, r3, ip
 4088              	.LVL742:
 4089 0048 1B0C     		lsrs	r3, r3, #16
 4090              	.LVL743:
 4091 004a 9B46     		mov	fp, r3
 4092              	.LVL744:
1774:Api\core\src/vl53l0x_api_core.c **** 
1775:Api\core\src/vl53l0x_api_core.c **** 	xTalkCompRate_kcps = xTalkCompRate_mcps * 1000;
 4093              		.loc 1 1775 0
 4094 004c 0D9B     		ldr	r3, [sp, #52]
 4095              	.LVL745:
 4096 004e 5C43     		muls	r4, r3
 4097              	.LVL746:
1776:Api\core\src/vl53l0x_api_core.c **** 
1777:Api\core\src/vl53l0x_api_core.c **** 	if (xTalkCompRate_kcps > cMaxXTalk_kcps)
 4098              		.loc 1 1777 0
 4099 0050 C823     		movs	r3, #200
 4100 0052 9B03     		lsls	r3, r3, #14
 4101 0054 9C42     		cmp	r4, r3
 4102 0056 00D9     		bls	.L187
1778:Api\core\src/vl53l0x_api_core.c **** 		xTalkCompRate_kcps = cMaxXTalk_kcps;
 4103              		.loc 1 1778 0
 4104 0058 1C00     		movs	r4, r3
 4105              	.LVL747:
 4106              	.L187:
1779:Api\core\src/vl53l0x_api_core.c **** 
1780:Api\core\src/vl53l0x_api_core.c **** 	if (Status == VL53L0X_ERROR_NONE) {
 4107              		.loc 1 1780 0
 4108 005a 002E     		cmp	r6, #0
 4109 005c 38D1     		bne	.L188
1781:Api\core\src/vl53l0x_api_core.c **** 
1782:Api\core\src/vl53l0x_api_core.c **** 		/* Calculate final range macro periods */
1783:Api\core\src/vl53l0x_api_core.c **** 		finalRangeTimeoutMicroSecs = VL53L0X_GETDEVICESPECIFICPARAMETER(
 4110              		.loc 1 1783 0
 4111 005e DC23     		movs	r3, #220
 4112 0060 EB58     		ldr	r3, [r5, r3]
 4113 0062 1900     		movs	r1, r3
 4114 0064 0993     		str	r3, [sp, #36]
 4115              	.LVL748:
1784:Api\core\src/vl53l0x_api_core.c **** 			Dev, FinalRangeTimeoutMicroSecs);
1785:Api\core\src/vl53l0x_api_core.c **** 
1786:Api\core\src/vl53l0x_api_core.c **** 		finalRangeVcselPCLKS = VL53L0X_GETDEVICESPECIFICPARAMETER(
 4116              		.loc 1 1786 0
 4117 0066 E023     		movs	r3, #224
 4118 0068 EB5C     		ldrb	r3, [r5, r3]
 4119 006a 9A46     		mov	r10, r3
ARM GAS  C:\Users\Rajesh\AppData\Local\Temp\ccMJoliC.s 			page 106


 4120              	.LVL749:
1787:Api\core\src/vl53l0x_api_core.c **** 			Dev, FinalRangeVcselPulsePeriod);
1788:Api\core\src/vl53l0x_api_core.c **** 
1789:Api\core\src/vl53l0x_api_core.c **** 		finalRangeMacroPCLKS = VL53L0X_calc_timeout_mclks(
 4121              		.loc 1 1789 0
 4122 006c 1A00     		movs	r2, r3
 4123 006e 2800     		movs	r0, r5
 4124              	.LVL750:
 4125 0070 FFF7FEFF 		bl	VL53L0X_calc_timeout_mclks
 4126              	.LVL751:
 4127 0074 0890     		str	r0, [sp, #32]
 4128              	.LVL752:
1790:Api\core\src/vl53l0x_api_core.c **** 			Dev, finalRangeTimeoutMicroSecs, finalRangeVcselPCLKS);
1791:Api\core\src/vl53l0x_api_core.c **** 
1792:Api\core\src/vl53l0x_api_core.c **** 		/* Calculate pre-range macro periods */
1793:Api\core\src/vl53l0x_api_core.c **** 		preRangeTimeoutMicroSecs = VL53L0X_GETDEVICESPECIFICPARAMETER(
 4129              		.loc 1 1793 0
 4130 0076 E423     		movs	r3, #228
 4131 0078 EB58     		ldr	r3, [r5, r3]
 4132 007a 1900     		movs	r1, r3
 4133 007c 0A93     		str	r3, [sp, #40]
 4134              	.LVL753:
1794:Api\core\src/vl53l0x_api_core.c **** 			Dev, PreRangeTimeoutMicroSecs);
1795:Api\core\src/vl53l0x_api_core.c **** 
1796:Api\core\src/vl53l0x_api_core.c **** 		preRangeVcselPCLKS = VL53L0X_GETDEVICESPECIFICPARAMETER(
 4135              		.loc 1 1796 0
 4136 007e E823     		movs	r3, #232
 4137 0080 EA5C     		ldrb	r2, [r5, r3]
 4138              	.LVL754:
1797:Api\core\src/vl53l0x_api_core.c **** 			Dev, PreRangeVcselPulsePeriod);
1798:Api\core\src/vl53l0x_api_core.c **** 
1799:Api\core\src/vl53l0x_api_core.c **** 		preRangeMacroPCLKS = VL53L0X_calc_timeout_mclks(
 4139              		.loc 1 1799 0
 4140 0082 2800     		movs	r0, r5
 4141              	.LVL755:
 4142 0084 FFF7FEFF 		bl	VL53L0X_calc_timeout_mclks
 4143              	.LVL756:
1800:Api\core\src/vl53l0x_api_core.c **** 			Dev, preRangeTimeoutMicroSecs, preRangeVcselPCLKS);
1801:Api\core\src/vl53l0x_api_core.c **** 
1802:Api\core\src/vl53l0x_api_core.c **** 		vcselWidth = 3;
1803:Api\core\src/vl53l0x_api_core.c **** 		if (finalRangeVcselPCLKS == 8)
 4144              		.loc 1 1803 0
 4145 0088 5346     		mov	r3, r10
 4146 008a 082B     		cmp	r3, #8
 4147 008c 01D0     		beq	.L198
1802:Api\core\src/vl53l0x_api_core.c **** 		if (finalRangeVcselPCLKS == 8)
 4148              		.loc 1 1802 0
 4149 008e 0323     		movs	r3, #3
 4150 0090 00E0     		b	.L189
 4151              	.LVL757:
 4152              	.L198:
1804:Api\core\src/vl53l0x_api_core.c **** 			vcselWidth = 2;
 4153              		.loc 1 1804 0
 4154 0092 0223     		movs	r3, #2
 4155              	.LVL758:
 4156              	.L189:
1805:Api\core\src/vl53l0x_api_core.c **** 
ARM GAS  C:\Users\Rajesh\AppData\Local\Temp\ccMJoliC.s 			page 107


1806:Api\core\src/vl53l0x_api_core.c **** 
1807:Api\core\src/vl53l0x_api_core.c **** 		peakVcselDuration_us = vcselWidth * 2048 *
1808:Api\core\src/vl53l0x_api_core.c **** 			(preRangeMacroPCLKS + finalRangeMacroPCLKS);
 4157              		.loc 1 1808 0
 4158 0094 089A     		ldr	r2, [sp, #32]
 4159 0096 9446     		mov	ip, r2
 4160 0098 6044     		add	r0, r0, ip
 4161              	.LVL759:
1807:Api\core\src/vl53l0x_api_core.c **** 			(preRangeMacroPCLKS + finalRangeMacroPCLKS);
 4162              		.loc 1 1807 0
 4163 009a 5843     		muls	r0, r3
 4164 009c C002     		lsls	r0, r0, #11
 4165              	.LVL760:
1809:Api\core\src/vl53l0x_api_core.c **** 		peakVcselDuration_us = (peakVcselDuration_us + 500)/1000;
 4166              		.loc 1 1809 0
 4167 009e F530     		adds	r0, r0, #245
 4168              	.LVL761:
 4169 00a0 FF30     		adds	r0, r0, #255
 4170              	.LVL762:
 4171 00a2 FA21     		movs	r1, #250
 4172 00a4 8900     		lsls	r1, r1, #2
 4173 00a6 FFF7FEFF 		bl	__aeabi_uidiv
 4174              	.LVL763:
1810:Api\core\src/vl53l0x_api_core.c **** 		peakVcselDuration_us *= cPllPeriod_ps;
 4175              		.loc 1 1810 0
 4176 00aa 794B     		ldr	r3, .L206
 4177 00ac 5843     		muls	r0, r3
 4178              	.LVL764:
1811:Api\core\src/vl53l0x_api_core.c **** 		peakVcselDuration_us = (peakVcselDuration_us + 500)/1000;
 4179              		.loc 1 1811 0
 4180 00ae F530     		adds	r0, r0, #245
 4181              	.LVL765:
 4182 00b0 FF30     		adds	r0, r0, #255
 4183              	.LVL766:
 4184 00b2 FA21     		movs	r1, #250
 4185 00b4 8900     		lsls	r1, r1, #2
 4186 00b6 FFF7FEFF 		bl	__aeabi_uidiv
 4187              	.LVL767:
 4188 00ba 0200     		movs	r2, r0
 4189 00bc 0B90     		str	r0, [sp, #44]
 4190              	.LVL768:
1812:Api\core\src/vl53l0x_api_core.c **** 
1813:Api\core\src/vl53l0x_api_core.c **** 		/* Fix1616 >> 8 = Fix2408 */
1814:Api\core\src/vl53l0x_api_core.c **** 		totalSignalRate_mcps = (totalSignalRate_mcps + 0x80) >> 8;
 4191              		.loc 1 1814 0
 4192 00be 4346     		mov	r3, r8
 4193 00c0 8033     		adds	r3, r3, #128
 4194 00c2 1B0A     		lsrs	r3, r3, #8
1815:Api\core\src/vl53l0x_api_core.c **** 
1816:Api\core\src/vl53l0x_api_core.c **** 		/* Fix2408 * uint32 = Fix2408 */
1817:Api\core\src/vl53l0x_api_core.c **** 		vcselTotalEventsRtn = totalSignalRate_mcps *
 4195              		.loc 1 1817 0
 4196 00c4 5A43     		muls	r2, r3
 4197              	.LVL769:
1818:Api\core\src/vl53l0x_api_core.c **** 			peakVcselDuration_us;
1819:Api\core\src/vl53l0x_api_core.c **** 
1820:Api\core\src/vl53l0x_api_core.c **** 		/* Fix2408 >> 8 = uint32 */
ARM GAS  C:\Users\Rajesh\AppData\Local\Temp\ccMJoliC.s 			page 108


1821:Api\core\src/vl53l0x_api_core.c **** 		vcselTotalEventsRtn = (vcselTotalEventsRtn + 0x80) >> 8;
 4198              		.loc 1 1821 0
 4199 00c6 8032     		adds	r2, r2, #128
 4200              	.LVL770:
 4201 00c8 120A     		lsrs	r2, r2, #8
 4202              	.LVL771:
 4203 00ca 9246     		mov	r10, r2
 4204              	.LVL772:
1822:Api\core\src/vl53l0x_api_core.c **** 
1823:Api\core\src/vl53l0x_api_core.c **** 		/* Fix2408 << 8 = Fix1616 = */
1824:Api\core\src/vl53l0x_api_core.c **** 		totalSignalRate_mcps <<= 8;
 4205              		.loc 1 1824 0
 4206 00cc 1B02     		lsls	r3, r3, #8
 4207 00ce 0C93     		str	r3, [sp, #48]
 4208              	.LVL773:
 4209              	.L188:
1825:Api\core\src/vl53l0x_api_core.c **** 	}
1826:Api\core\src/vl53l0x_api_core.c **** 
1827:Api\core\src/vl53l0x_api_core.c **** 	if (Status != VL53L0X_ERROR_NONE) {
 4210              		.loc 1 1827 0
 4211 00d0 002E     		cmp	r6, #0
 4212 00d2 00D0     		beq	.LCB4535
 4213 00d4 D4E0     		b	.L190	@long jump
 4214              	.LCB4535:
1828:Api\core\src/vl53l0x_api_core.c **** 		LOG_FUNCTION_END(Status);
1829:Api\core\src/vl53l0x_api_core.c **** 		return Status;
1830:Api\core\src/vl53l0x_api_core.c **** 	}
1831:Api\core\src/vl53l0x_api_core.c **** 
1832:Api\core\src/vl53l0x_api_core.c **** 	if (peakSignalRate_kcps == 0) {
 4215              		.loc 1 1832 0
 4216 00d6 5B46     		mov	r3, fp
 4217 00d8 002B     		cmp	r3, #0
 4218 00da 09D1     		bne	.L191
 4219              	.LVL774:
1833:Api\core\src/vl53l0x_api_core.c **** 		*pSigmaEstimate = cSigmaEstMax;
 4220              		.loc 1 1833 0
 4221 00dc 6D4B     		ldr	r3, .L206+4
 4222              	.LVL775:
 4223 00de 059A     		ldr	r2, [sp, #20]
 4224 00e0 1360     		str	r3, [r2]
1834:Api\core\src/vl53l0x_api_core.c **** 		PALDevDataSet(Dev, SigmaEstimate, cSigmaEstMax);
 4225              		.loc 1 1834 0
 4226 00e2 A022     		movs	r2, #160
 4227 00e4 5200     		lsls	r2, r2, #1
 4228 00e6 AB50     		str	r3, [r5, r2]
1835:Api\core\src/vl53l0x_api_core.c **** 		*pDmax_mm = 0;
 4229              		.loc 1 1835 0
 4230 00e8 0023     		movs	r3, #0
 4231 00ea 069A     		ldr	r2, [sp, #24]
 4232 00ec 1360     		str	r3, [r2]
 4233 00ee C7E0     		b	.L190
 4234              	.LVL776:
 4235              	.L191:
1836:Api\core\src/vl53l0x_api_core.c **** 	} else {
1837:Api\core\src/vl53l0x_api_core.c **** 		if (vcselTotalEventsRtn < 1)
 4236              		.loc 1 1837 0
 4237 00f0 5346     		mov	r3, r10
ARM GAS  C:\Users\Rajesh\AppData\Local\Temp\ccMJoliC.s 			page 109


 4238              	.LVL777:
 4239 00f2 002B     		cmp	r3, #0
 4240 00f4 01D1     		bne	.L192
 4241              	.LVL778:
1838:Api\core\src/vl53l0x_api_core.c **** 			vcselTotalEventsRtn = 1;
 4242              		.loc 1 1838 0
 4243 00f6 0133     		adds	r3, r3, #1
 4244              	.LVL779:
 4245 00f8 9A46     		mov	r10, r3
 4246              	.LVL780:
 4247              	.L192:
1839:Api\core\src/vl53l0x_api_core.c **** 
1840:Api\core\src/vl53l0x_api_core.c **** 		sigmaEstimateP1 = cPulseEffectiveWidth_centi_ns;
1841:Api\core\src/vl53l0x_api_core.c **** 
1842:Api\core\src/vl53l0x_api_core.c **** 		/* ((FixPoint1616 << 16)* uint32)/uint32 = FixPoint1616 */
1843:Api\core\src/vl53l0x_api_core.c **** 		sigmaEstimateP2 = (ambientRate_kcps << 16)/peakSignalRate_kcps;
 4248              		.loc 1 1843 0
 4249 00fa 3804     		lsls	r0, r7, #16
 4250 00fc 5946     		mov	r1, fp
 4251 00fe FFF7FEFF 		bl	__aeabi_uidiv
 4252              	.LVL781:
1844:Api\core\src/vl53l0x_api_core.c **** 		if (sigmaEstimateP2 > cAmbToSignalRatioMax) {
 4253              		.loc 1 1844 0
 4254 0102 654B     		ldr	r3, .L206+8
 4255 0104 9842     		cmp	r0, r3
 4256 0106 00D9     		bls	.L193
1845:Api\core\src/vl53l0x_api_core.c **** 			/* Clip to prevent overflow. Will ensure safe
1846:Api\core\src/vl53l0x_api_core.c **** 			 * max result. */
1847:Api\core\src/vl53l0x_api_core.c **** 			sigmaEstimateP2 = cAmbToSignalRatioMax;
 4257              		.loc 1 1847 0
 4258 0108 1800     		movs	r0, r3
 4259              	.LVL782:
 4260              	.L193:
1848:Api\core\src/vl53l0x_api_core.c **** 		}
1849:Api\core\src/vl53l0x_api_core.c **** 		sigmaEstimateP2 *= cAmbientEffectiveWidth_centi_ns;
 4261              		.loc 1 1849 0
 4262 010a 9623     		movs	r3, #150
 4263 010c 9B00     		lsls	r3, r3, #2
 4264 010e 4343     		muls	r3, r0
 4265 0110 0893     		str	r3, [sp, #32]
 4266              	.LVL783:
1850:Api\core\src/vl53l0x_api_core.c **** 
1851:Api\core\src/vl53l0x_api_core.c **** 		sigmaEstimateP3 = 2 * VL53L0X_isqrt(vcselTotalEventsRtn * 12);
 4267              		.loc 1 1851 0
 4268 0112 5346     		mov	r3, r10
 4269              	.LVL784:
 4270 0114 5800     		lsls	r0, r3, #1
 4271 0116 5044     		add	r0, r0, r10
 4272 0118 8000     		lsls	r0, r0, #2
 4273 011a FFF7FEFF 		bl	VL53L0X_isqrt
 4274              	.LVL785:
 4275 011e 4300     		lsls	r3, r0, #1
 4276 0120 9846     		mov	r8, r3
 4277              	.LVL786:
1852:Api\core\src/vl53l0x_api_core.c **** 
1853:Api\core\src/vl53l0x_api_core.c **** 		/* uint32 * FixPoint1616 = FixPoint1616 */
1854:Api\core\src/vl53l0x_api_core.c **** 		deltaT_ps = pRangingMeasurementData->RangeMilliMeter *
ARM GAS  C:\Users\Rajesh\AppData\Local\Temp\ccMJoliC.s 			page 110


 4278              		.loc 1 1854 0
 4279 0122 4B46     		mov	r3, r9
 4280              	.LVL787:
 4281 0124 1B89     		ldrh	r3, [r3, #8]
 4282 0126 5D4F     		ldr	r7, .L206+12
 4283              	.LVL788:
 4284 0128 5F43     		muls	r7, r3
 4285              	.LVL789:
1855:Api\core\src/vl53l0x_api_core.c **** 					cTOF_per_mm_ps;
1856:Api\core\src/vl53l0x_api_core.c **** 
1857:Api\core\src/vl53l0x_api_core.c **** 		/*
1858:Api\core\src/vl53l0x_api_core.c **** 		 * vcselRate - xtalkCompRate
1859:Api\core\src/vl53l0x_api_core.c **** 		 * (uint32 << 16) - FixPoint1616 = FixPoint1616.
1860:Api\core\src/vl53l0x_api_core.c **** 		 * Divide result by 1000 to convert to mcps.
1861:Api\core\src/vl53l0x_api_core.c **** 		 * 500 is added to ensure rounding when integer division
1862:Api\core\src/vl53l0x_api_core.c **** 		 * truncates.
1863:Api\core\src/vl53l0x_api_core.c **** 		 */
1864:Api\core\src/vl53l0x_api_core.c **** 		diff1_mcps = (((peakSignalRate_kcps << 16) -
 4286              		.loc 1 1864 0
 4287 012a 5B46     		mov	r3, fp
 4288 012c 1E04     		lsls	r6, r3, #16
 4289              	.LVL790:
1865:Api\core\src/vl53l0x_api_core.c **** 			2 * xTalkCompRate_kcps) + 500)/1000;
 4290              		.loc 1 1865 0
 4291 012e 6400     		lsls	r4, r4, #1
 4292              	.LVL791:
1864:Api\core\src/vl53l0x_api_core.c **** 			2 * xTalkCompRate_kcps) + 500)/1000;
 4293              		.loc 1 1864 0
 4294 0130 301B     		subs	r0, r6, r4
 4295              		.loc 1 1865 0
 4296 0132 F530     		adds	r0, r0, #245
 4297 0134 FF30     		adds	r0, r0, #255
1864:Api\core\src/vl53l0x_api_core.c **** 			2 * xTalkCompRate_kcps) + 500)/1000;
 4298              		.loc 1 1864 0
 4299 0136 FA21     		movs	r1, #250
 4300 0138 8900     		lsls	r1, r1, #2
 4301 013a FFF7FEFF 		bl	__aeabi_uidiv
 4302              	.LVL792:
 4303 013e 0400     		movs	r4, r0
 4304              	.LVL793:
1866:Api\core\src/vl53l0x_api_core.c **** 
1867:Api\core\src/vl53l0x_api_core.c **** 		/* vcselRate + xtalkCompRate */
1868:Api\core\src/vl53l0x_api_core.c **** 		diff2_mcps = ((peakSignalRate_kcps << 16) + 500)/1000;
 4305              		.loc 1 1868 0
 4306 0140 3000     		movs	r0, r6
 4307              	.LVL794:
 4308 0142 F530     		adds	r0, r0, #245
 4309 0144 FF30     		adds	r0, r0, #255
 4310 0146 FA21     		movs	r1, #250
 4311 0148 8900     		lsls	r1, r1, #2
 4312 014a FFF7FEFF 		bl	__aeabi_uidiv
 4313              	.LVL795:
 4314 014e 0100     		movs	r1, r0
 4315              	.LVL796:
1869:Api\core\src/vl53l0x_api_core.c **** 
1870:Api\core\src/vl53l0x_api_core.c **** 		/* Shift by 8 bits to increase resolution prior to the
1871:Api\core\src/vl53l0x_api_core.c **** 		 * division */
ARM GAS  C:\Users\Rajesh\AppData\Local\Temp\ccMJoliC.s 			page 111


1872:Api\core\src/vl53l0x_api_core.c **** 		diff1_mcps <<= 8;
 4316              		.loc 1 1872 0
 4317 0150 2002     		lsls	r0, r4, #8
 4318              	.LVL797:
1873:Api\core\src/vl53l0x_api_core.c **** 
1874:Api\core\src/vl53l0x_api_core.c **** 		/* FixPoint0824/FixPoint1616 = FixPoint2408 */
1875:Api\core\src/vl53l0x_api_core.c **** 		xTalkCorrection	 = abs(diff1_mcps/diff2_mcps);
 4319              		.loc 1 1875 0
 4320 0152 FFF7FEFF 		bl	__aeabi_uidiv
 4321              	.LVL798:
 4322 0156 C317     		asrs	r3, r0, #31
 4323 0158 C418     		adds	r4, r0, r3
 4324              	.LVL799:
 4325 015a 5C40     		eors	r4, r3
 4326              	.LVL800:
1876:Api\core\src/vl53l0x_api_core.c **** 
1877:Api\core\src/vl53l0x_api_core.c **** 		/* FixPoint2408 << 8 = FixPoint1616 */
1878:Api\core\src/vl53l0x_api_core.c **** 		xTalkCorrection <<= 8;
 4327              		.loc 1 1878 0
 4328 015c 2402     		lsls	r4, r4, #8
 4329              	.LVL801:
1879:Api\core\src/vl53l0x_api_core.c **** 
1880:Api\core\src/vl53l0x_api_core.c **** 		if(pRangingMeasurementData->RangeStatus != 0){
 4330              		.loc 1 1880 0
 4331 015e 4B46     		mov	r3, r9
 4332 0160 1B7E     		ldrb	r3, [r3, #24]
 4333 0162 002B     		cmp	r3, #0
 4334 0164 15D1     		bne	.L201
1881:Api\core\src/vl53l0x_api_core.c **** 			pwMult = 1 << 16;
1882:Api\core\src/vl53l0x_api_core.c **** 		} else {
1883:Api\core\src/vl53l0x_api_core.c **** 			/* FixPoint1616/uint32 = FixPoint1616 */
1884:Api\core\src/vl53l0x_api_core.c **** 			pwMult = deltaT_ps/cVcselPulseWidth_ps; /* smaller than 1.0f */
 4335              		.loc 1 1884 0
 4336 0166 4E49     		ldr	r1, .L206+16
 4337 0168 3800     		movs	r0, r7
 4338 016a FFF7FEFF 		bl	__aeabi_uidiv
 4339              	.LVL802:
1885:Api\core\src/vl53l0x_api_core.c **** 
1886:Api\core\src/vl53l0x_api_core.c **** 			/*
1887:Api\core\src/vl53l0x_api_core.c **** 			 * FixPoint1616 * FixPoint1616 = FixPoint3232, however both
1888:Api\core\src/vl53l0x_api_core.c **** 			 * values are small enough such that32 bits will not be
1889:Api\core\src/vl53l0x_api_core.c **** 			 * exceeded.
1890:Api\core\src/vl53l0x_api_core.c **** 			 */
1891:Api\core\src/vl53l0x_api_core.c **** 			pwMult *= ((1 << 16) - xTalkCorrection);
 4340              		.loc 1 1891 0
 4341 016e 8023     		movs	r3, #128
 4342 0170 5B02     		lsls	r3, r3, #9
 4343 0172 1C1B     		subs	r4, r3, r4
 4344              	.LVL803:
 4345 0174 4443     		muls	r4, r0
 4346 0176 2700     		movs	r7, r4
 4347              	.LVL804:
1892:Api\core\src/vl53l0x_api_core.c **** 
1893:Api\core\src/vl53l0x_api_core.c **** 			/* (FixPoint3232 >> 16) = FixPoint1616 */
1894:Api\core\src/vl53l0x_api_core.c **** 			pwMult =  (pwMult + c16BitRoundingParam) >> 16;
 4348              		.loc 1 1894 0
 4349 0178 8023     		movs	r3, #128
ARM GAS  C:\Users\Rajesh\AppData\Local\Temp\ccMJoliC.s 			page 112


 4350 017a 1B02     		lsls	r3, r3, #8
 4351 017c 9C46     		mov	ip, r3
 4352 017e 6744     		add	r7, r7, ip
 4353 0180 3F0C     		lsrs	r7, r7, #16
 4354              	.LVL805:
1895:Api\core\src/vl53l0x_api_core.c **** 
1896:Api\core\src/vl53l0x_api_core.c **** 			/* FixPoint1616 + FixPoint1616 = FixPoint1616 */
1897:Api\core\src/vl53l0x_api_core.c **** 			pwMult += (1 << 16);
 4355              		.loc 1 1897 0
 4356 0182 8023     		movs	r3, #128
 4357 0184 5B02     		lsls	r3, r3, #9
 4358 0186 9C46     		mov	ip, r3
 4359 0188 6744     		add	r7, r7, ip
 4360              	.LVL806:
1898:Api\core\src/vl53l0x_api_core.c **** 
1899:Api\core\src/vl53l0x_api_core.c **** 			/*
1900:Api\core\src/vl53l0x_api_core.c **** 			 * At this point the value will be 1.xx, therefore if we square
1901:Api\core\src/vl53l0x_api_core.c **** 			 * the value this will exceed 32 bits. To address this perform
1902:Api\core\src/vl53l0x_api_core.c **** 			 * a single shift to the right before the multiplication.
1903:Api\core\src/vl53l0x_api_core.c **** 			 */
1904:Api\core\src/vl53l0x_api_core.c **** 			pwMult >>= 1;
 4361              		.loc 1 1904 0
 4362 018a 7F08     		lsrs	r7, r7, #1
 4363              	.LVL807:
1905:Api\core\src/vl53l0x_api_core.c **** 			/* FixPoint1715 * FixPoint1715 = FixPoint3430 */
1906:Api\core\src/vl53l0x_api_core.c **** 			pwMult = pwMult * pwMult;
 4364              		.loc 1 1906 0
 4365 018c 7F43     		muls	r7, r7
 4366              	.LVL808:
1907:Api\core\src/vl53l0x_api_core.c **** 
1908:Api\core\src/vl53l0x_api_core.c **** 			/* (FixPoint3430 >> 14) = Fix1616 */
1909:Api\core\src/vl53l0x_api_core.c **** 			pwMult >>= 14;
 4367              		.loc 1 1909 0
 4368 018e BF0B     		lsrs	r7, r7, #14
 4369              	.LVL809:
 4370 0190 01E0     		b	.L194
 4371              	.LVL810:
 4372              	.L201:
1881:Api\core\src/vl53l0x_api_core.c **** 		} else {
 4373              		.loc 1 1881 0
 4374 0192 8027     		movs	r7, #128
 4375              	.LVL811:
 4376 0194 7F02     		lsls	r7, r7, #9
 4377              	.LVL812:
 4378              	.L194:
1910:Api\core\src/vl53l0x_api_core.c **** 		}
1911:Api\core\src/vl53l0x_api_core.c **** 
1912:Api\core\src/vl53l0x_api_core.c **** 		/* FixPoint1616 * uint32 = FixPoint1616 */
1913:Api\core\src/vl53l0x_api_core.c **** 		sqr1 = pwMult * sigmaEstimateP1;
 4379              		.loc 1 1913 0
 4380 0196 C820     		movs	r0, #200
 4381 0198 8000     		lsls	r0, r0, #2
 4382 019a 7843     		muls	r0, r7
 4383              	.LVL813:
1914:Api\core\src/vl53l0x_api_core.c **** 
1915:Api\core\src/vl53l0x_api_core.c **** 		/* (FixPoint1616 >> 16) = FixPoint3200 */
1916:Api\core\src/vl53l0x_api_core.c **** 		sqr1 = (sqr1 + 0x8000) >> 16;
ARM GAS  C:\Users\Rajesh\AppData\Local\Temp\ccMJoliC.s 			page 113


 4384              		.loc 1 1916 0
 4385 019c 8023     		movs	r3, #128
 4386 019e 1B02     		lsls	r3, r3, #8
 4387 01a0 9C46     		mov	ip, r3
 4388 01a2 6044     		add	r0, r0, ip
 4389              	.LVL814:
 4390 01a4 000C     		lsrs	r0, r0, #16
 4391              	.LVL815:
1917:Api\core\src/vl53l0x_api_core.c **** 
1918:Api\core\src/vl53l0x_api_core.c **** 		/* FixPoint3200 * FixPoint3200 = FixPoint6400 */
1919:Api\core\src/vl53l0x_api_core.c **** 		sqr1 *= sqr1;
 4392              		.loc 1 1919 0
 4393 01a6 4043     		muls	r0, r0
 4394              	.LVL816:
1920:Api\core\src/vl53l0x_api_core.c **** 
1921:Api\core\src/vl53l0x_api_core.c **** 		sqr2 = sigmaEstimateP2;
1922:Api\core\src/vl53l0x_api_core.c **** 
1923:Api\core\src/vl53l0x_api_core.c **** 		/* (FixPoint1616 >> 16) = FixPoint3200 */
1924:Api\core\src/vl53l0x_api_core.c **** 		sqr2 = (sqr2 + 0x8000) >> 16;
 4395              		.loc 1 1924 0
 4396 01a8 089B     		ldr	r3, [sp, #32]
 4397 01aa 6344     		add	r3, r3, ip
 4398 01ac 1B0C     		lsrs	r3, r3, #16
 4399              	.LVL817:
1925:Api\core\src/vl53l0x_api_core.c **** 
1926:Api\core\src/vl53l0x_api_core.c **** 		/* FixPoint3200 * FixPoint3200 = FixPoint6400 */
1927:Api\core\src/vl53l0x_api_core.c **** 		sqr2 *= sqr2;
 4400              		.loc 1 1927 0
 4401 01ae 5B43     		muls	r3, r3
 4402              	.LVL818:
1928:Api\core\src/vl53l0x_api_core.c **** 
1929:Api\core\src/vl53l0x_api_core.c **** 		/* FixPoint64000 + FixPoint6400 = FixPoint6400 */
1930:Api\core\src/vl53l0x_api_core.c **** 		sqrSum = sqr1 + sqr2;
 4403              		.loc 1 1930 0
 4404 01b0 C018     		adds	r0, r0, r3
 4405              	.LVL819:
1931:Api\core\src/vl53l0x_api_core.c **** 
1932:Api\core\src/vl53l0x_api_core.c **** 		/* SQRT(FixPoin6400) = FixPoint3200 */
1933:Api\core\src/vl53l0x_api_core.c **** 		sqrtResult_centi_ns = VL53L0X_isqrt(sqrSum);
 4406              		.loc 1 1933 0
 4407 01b2 FFF7FEFF 		bl	VL53L0X_isqrt
 4408              	.LVL820:
1934:Api\core\src/vl53l0x_api_core.c **** 
1935:Api\core\src/vl53l0x_api_core.c **** 		/* (FixPoint3200 << 16) = FixPoint1616 */
1936:Api\core\src/vl53l0x_api_core.c **** 		sqrtResult_centi_ns <<= 16;
 4409              		.loc 1 1936 0
 4410 01b6 0004     		lsls	r0, r0, #16
 4411              	.LVL821:
1937:Api\core\src/vl53l0x_api_core.c **** 
1938:Api\core\src/vl53l0x_api_core.c **** 		/*
1939:Api\core\src/vl53l0x_api_core.c **** 		 * Note that the Speed Of Light is expressed in um per 1E-10
1940:Api\core\src/vl53l0x_api_core.c **** 		 * seconds (2997) Therefore to get mm/ns we have to divide by
1941:Api\core\src/vl53l0x_api_core.c **** 		 * 10000
1942:Api\core\src/vl53l0x_api_core.c **** 		 */
1943:Api\core\src/vl53l0x_api_core.c **** 		sigmaEstRtn = (((sqrtResult_centi_ns+50)/100) /
 4412              		.loc 1 1943 0
 4413 01b8 3230     		adds	r0, r0, #50
ARM GAS  C:\Users\Rajesh\AppData\Local\Temp\ccMJoliC.s 			page 114


 4414              	.LVL822:
 4415 01ba 6421     		movs	r1, #100
 4416 01bc FFF7FEFF 		bl	__aeabi_uidiv
 4417              	.LVL823:
 4418 01c0 4146     		mov	r1, r8
 4419 01c2 FFF7FEFF 		bl	__aeabi_uidiv
 4420              	.LVL824:
1944:Api\core\src/vl53l0x_api_core.c **** 				sigmaEstimateP3);
1945:Api\core\src/vl53l0x_api_core.c **** 		sigmaEstRtn		 *= VL53L0X_SPEED_OF_LIGHT_IN_AIR;
 4421              		.loc 1 1945 0
 4422 01c6 374B     		ldr	r3, .L206+20
 4423 01c8 5843     		muls	r0, r3
 4424              	.LVL825:
1946:Api\core\src/vl53l0x_api_core.c **** 
1947:Api\core\src/vl53l0x_api_core.c **** 		/* Add 5000 before dividing by 10000 to ensure rounding. */
1948:Api\core\src/vl53l0x_api_core.c **** 		sigmaEstRtn		 += 5000;
 4425              		.loc 1 1948 0
 4426 01ca 374B     		ldr	r3, .L206+24
 4427 01cc 9C46     		mov	ip, r3
 4428 01ce 6044     		add	r0, r0, ip
 4429              	.LVL826:
1949:Api\core\src/vl53l0x_api_core.c **** 		sigmaEstRtn		 /= 10000;
 4430              		.loc 1 1949 0
 4431 01d0 3649     		ldr	r1, .L206+28
 4432 01d2 FFF7FEFF 		bl	__aeabi_uidiv
 4433              	.LVL827:
 4434 01d6 0600     		movs	r6, r0
 4435              	.LVL828:
1950:Api\core\src/vl53l0x_api_core.c **** 
1951:Api\core\src/vl53l0x_api_core.c **** 		if (sigmaEstRtn > cSigmaEstRtnMax) {
 4436              		.loc 1 1951 0
 4437 01d8 F023     		movs	r3, #240
 4438 01da 1B02     		lsls	r3, r3, #8
 4439 01dc 9842     		cmp	r0, r3
 4440 01de 00D9     		bls	.L195
1952:Api\core\src/vl53l0x_api_core.c **** 			/* Clip to prevent overflow. Will ensure safe
1953:Api\core\src/vl53l0x_api_core.c **** 			 * max result. */
1954:Api\core\src/vl53l0x_api_core.c **** 			sigmaEstRtn = cSigmaEstRtnMax;
 4441              		.loc 1 1954 0
 4442 01e0 1E00     		movs	r6, r3
 4443              	.L195:
 4444              	.LVL829:
1955:Api\core\src/vl53l0x_api_core.c **** 		}
1956:Api\core\src/vl53l0x_api_core.c **** 		finalRangeIntegrationTimeMilliSecs =
1957:Api\core\src/vl53l0x_api_core.c **** 			(finalRangeTimeoutMicroSecs + preRangeTimeoutMicroSecs + 500)/1000;
 4445              		.loc 1 1957 0
 4446 01e2 099B     		ldr	r3, [sp, #36]
 4447 01e4 0A9A     		ldr	r2, [sp, #40]
 4448 01e6 9446     		mov	ip, r2
 4449 01e8 6344     		add	r3, r3, ip
 4450 01ea 1C00     		movs	r4, r3
 4451 01ec F534     		adds	r4, r4, #245
 4452 01ee FF34     		adds	r4, r4, #255
1956:Api\core\src/vl53l0x_api_core.c **** 			(finalRangeTimeoutMicroSecs + preRangeTimeoutMicroSecs + 500)/1000;
 4453              		.loc 1 1956 0
 4454 01f0 FA21     		movs	r1, #250
 4455 01f2 8900     		lsls	r1, r1, #2
ARM GAS  C:\Users\Rajesh\AppData\Local\Temp\ccMJoliC.s 			page 115


 4456 01f4 2000     		movs	r0, r4
 4457 01f6 FFF7FEFF 		bl	__aeabi_uidiv
 4458              	.LVL830:
 4459 01fa 0990     		str	r0, [sp, #36]
 4460              	.LVL831:
1958:Api\core\src/vl53l0x_api_core.c **** 
1959:Api\core\src/vl53l0x_api_core.c **** 		/* sigmaEstRef = 1mm * 25ms/final range integration time (inc pre-range)
1960:Api\core\src/vl53l0x_api_core.c **** 		 * sqrt(FixPoint1616/int) = FixPoint2408)
1961:Api\core\src/vl53l0x_api_core.c **** 		 */
1962:Api\core\src/vl53l0x_api_core.c **** 		sigmaEstRef =
1963:Api\core\src/vl53l0x_api_core.c **** 			VL53L0X_isqrt((cDfltFinalRangeIntegrationTimeMilliSecs +
1964:Api\core\src/vl53l0x_api_core.c **** 				finalRangeIntegrationTimeMilliSecs/2)/
 4461              		.loc 1 1964 0
 4462 01fc FA21     		movs	r1, #250
 4463 01fe C900     		lsls	r1, r1, #3
 4464 0200 2000     		movs	r0, r4
 4465              	.LVL832:
 4466 0202 FFF7FEFF 		bl	__aeabi_uidiv
 4467              	.LVL833:
1963:Api\core\src/vl53l0x_api_core.c **** 				finalRangeIntegrationTimeMilliSecs/2)/
 4468              		.loc 1 1963 0
 4469 0206 C823     		movs	r3, #200
 4470              	.LVL834:
 4471 0208 5B03     		lsls	r3, r3, #13
 4472              	.LVL835:
 4473 020a 9C46     		mov	ip, r3
 4474 020c 6044     		add	r0, r0, ip
 4475 020e 0999     		ldr	r1, [sp, #36]
 4476 0210 FFF7FEFF 		bl	__aeabi_uidiv
 4477              	.LVL836:
1962:Api\core\src/vl53l0x_api_core.c **** 			VL53L0X_isqrt((cDfltFinalRangeIntegrationTimeMilliSecs +
 4478              		.loc 1 1962 0
 4479 0214 FFF7FEFF 		bl	VL53L0X_isqrt
 4480              	.LVL837:
1965:Api\core\src/vl53l0x_api_core.c **** 				finalRangeIntegrationTimeMilliSecs);
1966:Api\core\src/vl53l0x_api_core.c **** 
1967:Api\core\src/vl53l0x_api_core.c **** 		/* FixPoint2408 << 8 = FixPoint1616 */
1968:Api\core\src/vl53l0x_api_core.c **** 		sigmaEstRef <<= 8;
 4481              		.loc 1 1968 0
 4482 0218 0002     		lsls	r0, r0, #8
 4483              	.LVL838:
1969:Api\core\src/vl53l0x_api_core.c **** 		sigmaEstRef = (sigmaEstRef + 500)/1000;
 4484              		.loc 1 1969 0
 4485 021a F530     		adds	r0, r0, #245
 4486              	.LVL839:
 4487 021c FF30     		adds	r0, r0, #255
 4488              	.LVL840:
 4489 021e FA21     		movs	r1, #250
 4490 0220 8900     		lsls	r1, r1, #2
 4491 0222 FFF7FEFF 		bl	__aeabi_uidiv
 4492              	.LVL841:
1970:Api\core\src/vl53l0x_api_core.c **** 
1971:Api\core\src/vl53l0x_api_core.c **** 		/* FixPoint1616 * FixPoint1616 = FixPoint3232 */
1972:Api\core\src/vl53l0x_api_core.c **** 		sqr1 = sigmaEstRtn * sigmaEstRtn;
 4493              		.loc 1 1972 0
 4494 0226 3300     		movs	r3, r6
 4495 0228 7343     		muls	r3, r6
ARM GAS  C:\Users\Rajesh\AppData\Local\Temp\ccMJoliC.s 			page 116


 4496              	.LVL842:
1973:Api\core\src/vl53l0x_api_core.c **** 		/* FixPoint1616 * FixPoint1616 = FixPoint3232 */
1974:Api\core\src/vl53l0x_api_core.c **** 		sqr2 = sigmaEstRef * sigmaEstRef;
 4497              		.loc 1 1974 0
 4498 022a 4043     		muls	r0, r0
 4499              	.LVL843:
1975:Api\core\src/vl53l0x_api_core.c **** 
1976:Api\core\src/vl53l0x_api_core.c **** 		/* sqrt(FixPoint3232) = FixPoint1616 */
1977:Api\core\src/vl53l0x_api_core.c **** 		sqrtResult = VL53L0X_isqrt((sqr1 + sqr2));
 4500              		.loc 1 1977 0
 4501 022c 1818     		adds	r0, r3, r0
 4502              	.LVL844:
 4503 022e FFF7FEFF 		bl	VL53L0X_isqrt
 4504              	.LVL845:
1978:Api\core\src/vl53l0x_api_core.c **** 		/*
1979:Api\core\src/vl53l0x_api_core.c **** 		 * Note that the Shift by 4 bits increases resolution prior to
1980:Api\core\src/vl53l0x_api_core.c **** 		 * the sqrt, therefore the result must be shifted by 2 bits to
1981:Api\core\src/vl53l0x_api_core.c **** 		 * the right to revert back to the FixPoint1616 format.
1982:Api\core\src/vl53l0x_api_core.c **** 		 */
1983:Api\core\src/vl53l0x_api_core.c **** 
1984:Api\core\src/vl53l0x_api_core.c **** 		sigmaEstimate	 = 1000 * sqrtResult;
 4505              		.loc 1 1984 0
 4506 0232 FA23     		movs	r3, #250
 4507 0234 9B00     		lsls	r3, r3, #2
 4508 0236 5843     		muls	r0, r3
 4509              	.LVL846:
1985:Api\core\src/vl53l0x_api_core.c **** 
1986:Api\core\src/vl53l0x_api_core.c **** 		if ((peakSignalRate_kcps < 1) || (vcselTotalEventsRtn < 1) ||
 4510              		.loc 1 1986 0
 4511 0238 5B46     		mov	r3, fp
 4512 023a 002B     		cmp	r3, #0
 4513 023c 06D0     		beq	.L203
 4514              	.LVL847:
 4515              		.loc 1 1986 0 is_stmt 0 discriminator 1
 4516 023e 5346     		mov	r3, r10
 4517              	.LVL848:
 4518 0240 002B     		cmp	r3, #0
 4519 0242 05D0     		beq	.L204
 4520              	.LVL849:
 4521              		.loc 1 1986 0 discriminator 2
 4522 0244 134B     		ldr	r3, .L206+4
 4523              	.LVL850:
 4524 0246 9842     		cmp	r0, r3
 4525 0248 04D8     		bhi	.L205
 4526 024a 04E0     		b	.L196
 4527              	.LVL851:
 4528              	.L203:
1987:Api\core\src/vl53l0x_api_core.c **** 				(sigmaEstimate > cSigmaEstMax)) {
1988:Api\core\src/vl53l0x_api_core.c **** 				sigmaEstimate = cSigmaEstMax;
 4529              		.loc 1 1988 0 is_stmt 1
 4530 024c 1148     		ldr	r0, .L206+4
 4531              	.LVL852:
 4532 024e 02E0     		b	.L196
 4533              	.LVL853:
 4534              	.L204:
 4535 0250 1048     		ldr	r0, .L206+4
 4536              	.LVL854:
ARM GAS  C:\Users\Rajesh\AppData\Local\Temp\ccMJoliC.s 			page 117


 4537 0252 00E0     		b	.L196
 4538              	.LVL855:
 4539              	.L205:
 4540 0254 0F48     		ldr	r0, .L206+4
 4541              	.LVL856:
 4542              	.L196:
1989:Api\core\src/vl53l0x_api_core.c **** 		}
1990:Api\core\src/vl53l0x_api_core.c **** 
1991:Api\core\src/vl53l0x_api_core.c **** 		*pSigmaEstimate = (uint32_t)(sigmaEstimate);
 4543              		.loc 1 1991 0
 4544 0256 059B     		ldr	r3, [sp, #20]
 4545 0258 1860     		str	r0, [r3]
1992:Api\core\src/vl53l0x_api_core.c **** 		PALDevDataSet(Dev, SigmaEstimate, *pSigmaEstimate);
 4546              		.loc 1 1992 0
 4547 025a A023     		movs	r3, #160
 4548 025c 5B00     		lsls	r3, r3, #1
 4549 025e E850     		str	r0, [r5, r3]
1993:Api\core\src/vl53l0x_api_core.c **** 		Status = VL53L0X_calc_dmax(
 4550              		.loc 1 1993 0
 4551 0260 069B     		ldr	r3, [sp, #24]
 4552 0262 0393     		str	r3, [sp, #12]
 4553 0264 0B9B     		ldr	r3, [sp, #44]
 4554 0266 0293     		str	r3, [sp, #8]
 4555 0268 089B     		ldr	r3, [sp, #32]
 4556 026a 0193     		str	r3, [sp, #4]
 4557 026c C823     		movs	r3, #200
 4558              	.LVL857:
 4559 026e 9B00     		lsls	r3, r3, #2
 4560              	.LVL858:
 4561 0270 0093     		str	r3, [sp]
 4562 0272 3B00     		movs	r3, r7
 4563 0274 079A     		ldr	r2, [sp, #28]
 4564 0276 0C99     		ldr	r1, [sp, #48]
 4565 0278 2800     		movs	r0, r5
 4566              	.LVL859:
 4567 027a FFF7FEFF 		bl	VL53L0X_calc_dmax
 4568              	.LVL860:
 4569 027e 0600     		movs	r6, r0
 4570              	.LVL861:
 4571              	.L190:
1994:Api\core\src/vl53l0x_api_core.c **** 			Dev,
1995:Api\core\src/vl53l0x_api_core.c **** 			totalSignalRate_mcps,
1996:Api\core\src/vl53l0x_api_core.c **** 			correctedSignalRate_mcps,
1997:Api\core\src/vl53l0x_api_core.c **** 			pwMult,
1998:Api\core\src/vl53l0x_api_core.c **** 			sigmaEstimateP1,
1999:Api\core\src/vl53l0x_api_core.c **** 			sigmaEstimateP2,
2000:Api\core\src/vl53l0x_api_core.c **** 			peakVcselDuration_us,
2001:Api\core\src/vl53l0x_api_core.c **** 			pDmax_mm);
2002:Api\core\src/vl53l0x_api_core.c **** 	}
2003:Api\core\src/vl53l0x_api_core.c **** 
2004:Api\core\src/vl53l0x_api_core.c **** 	LOG_FUNCTION_END(Status);
2005:Api\core\src/vl53l0x_api_core.c **** 	return Status;
2006:Api\core\src/vl53l0x_api_core.c **** }
 4572              		.loc 1 2006 0
 4573 0280 3000     		movs	r0, r6
 4574 0282 0FB0     		add	sp, sp, #60
 4575              		@ sp needed
ARM GAS  C:\Users\Rajesh\AppData\Local\Temp\ccMJoliC.s 			page 118


 4576              	.LVL862:
 4577              	.LVL863:
 4578              	.LVL864:
 4579              	.LVL865:
 4580 0284 3CBC     		pop	{r2, r3, r4, r5}
 4581 0286 9046     		mov	r8, r2
 4582 0288 9946     		mov	r9, r3
 4583 028a A246     		mov	r10, r4
 4584 028c AB46     		mov	fp, r5
 4585 028e F0BD     		pop	{r4, r5, r6, r7, pc}
 4586              	.L207:
 4587              		.align	2
 4588              	.L206:
 4589 0290 77060000 		.word	1655
 4590 0294 AE878F02 		.word	42960814
 4591 0298 66666600 		.word	6710886
 4592 029c 9A990600 		.word	432538
 4593 02a0 5C120000 		.word	4700
 4594 02a4 B50B0000 		.word	2997
 4595 02a8 88130000 		.word	5000
 4596 02ac 10270000 		.word	10000
 4597              		.cfi_endproc
 4598              	.LFE24:
 4599              		.size	VL53L0X_calc_sigma_estimate, .-VL53L0X_calc_sigma_estimate
 4600              		.section	.text.VL53L0X_get_pal_range_status,"ax",%progbits
 4601              		.align	2
 4602              		.global	VL53L0X_get_pal_range_status
 4603              		.code	16
 4604              		.thumb_func
 4605              		.type	VL53L0X_get_pal_range_status, %function
 4606              	VL53L0X_get_pal_range_status:
 4607              	.LFB25:
2007:Api\core\src/vl53l0x_api_core.c **** 
2008:Api\core\src/vl53l0x_api_core.c **** VL53L0X_Error VL53L0X_get_pal_range_status(VL53L0X_DEV Dev,
2009:Api\core\src/vl53l0x_api_core.c **** 		uint8_t DeviceRangeStatus,
2010:Api\core\src/vl53l0x_api_core.c **** 		FixPoint1616_t SignalRate,
2011:Api\core\src/vl53l0x_api_core.c **** 		uint16_t EffectiveSpadRtnCount,
2012:Api\core\src/vl53l0x_api_core.c **** 		VL53L0X_RangingMeasurementData_t *pRangingMeasurementData,
2013:Api\core\src/vl53l0x_api_core.c **** 		uint8_t *pPalRangeStatus)
2014:Api\core\src/vl53l0x_api_core.c **** {
 4608              		.loc 1 2014 0
 4609              		.cfi_startproc
 4610              		@ args = 8, pretend = 0, frame = 40
 4611              		@ frame_needed = 0, uses_anonymous_args = 0
 4612              	.LVL866:
 4613 0000 F0B5     		push	{r4, r5, r6, r7, lr}
 4614              		.cfi_def_cfa_offset 20
 4615              		.cfi_offset 4, -20
 4616              		.cfi_offset 5, -16
 4617              		.cfi_offset 6, -12
 4618              		.cfi_offset 7, -8
 4619              		.cfi_offset 14, -4
 4620 0002 5746     		mov	r7, r10
 4621 0004 4E46     		mov	r6, r9
 4622 0006 C0B4     		push	{r6, r7}
 4623              		.cfi_def_cfa_offset 28
 4624              		.cfi_offset 9, -28
ARM GAS  C:\Users\Rajesh\AppData\Local\Temp\ccMJoliC.s 			page 119


 4625              		.cfi_offset 10, -24
 4626 0008 8BB0     		sub	sp, sp, #44
 4627              		.cfi_def_cfa_offset 72
 4628 000a 0400     		movs	r4, r0
 4629 000c 0192     		str	r2, [sp, #4]
 4630 000e 1D00     		movs	r5, r3
 4631              	.LVL867:
2015:Api\core\src/vl53l0x_api_core.c **** 	VL53L0X_Error Status = VL53L0X_ERROR_NONE;
2016:Api\core\src/vl53l0x_api_core.c **** 	uint8_t NoneFlag;
2017:Api\core\src/vl53l0x_api_core.c **** 	uint8_t SigmaLimitflag = 0;
2018:Api\core\src/vl53l0x_api_core.c **** 	uint8_t SignalRefClipflag = 0;
2019:Api\core\src/vl53l0x_api_core.c **** 	uint8_t RangeIgnoreThresholdflag = 0;
2020:Api\core\src/vl53l0x_api_core.c **** 	uint8_t SigmaLimitCheckEnable = 0;
 4632              		.loc 1 2020 0
 4633 0010 0023     		movs	r3, #0
 4634              	.LVL868:
 4635 0012 1F22     		movs	r2, #31
 4636              	.LVL869:
 4637 0014 02A8     		add	r0, sp, #8
 4638              	.LVL870:
 4639 0016 8446     		mov	ip, r0
 4640 0018 6244     		add	r2, r2, ip
 4641 001a 1370     		strb	r3, [r2]
2021:Api\core\src/vl53l0x_api_core.c **** 	uint8_t SignalRateFinalRangeLimitCheckEnable = 0;
 4642              		.loc 1 2021 0
 4643 001c 1E22     		movs	r2, #30
 4644 001e 6244     		add	r2, r2, ip
 4645 0020 1370     		strb	r3, [r2]
2022:Api\core\src/vl53l0x_api_core.c **** 	uint8_t SignalRefClipLimitCheckEnable = 0;
 4646              		.loc 1 2022 0
 4647 0022 1D22     		movs	r2, #29
 4648 0024 6244     		add	r2, r2, ip
 4649 0026 1370     		strb	r3, [r2]
2023:Api\core\src/vl53l0x_api_core.c **** 	uint8_t RangeIgnoreThresholdLimitCheckEnable = 0;
 4650              		.loc 1 2023 0
 4651 0028 09AA     		add	r2, sp, #36
 4652 002a 1370     		strb	r3, [r2]
 4653              	.LVL871:
2024:Api\core\src/vl53l0x_api_core.c **** 	FixPoint1616_t SigmaEstimate;
2025:Api\core\src/vl53l0x_api_core.c **** 	FixPoint1616_t SigmaLimitValue;
2026:Api\core\src/vl53l0x_api_core.c **** 	FixPoint1616_t SignalRefClipValue;
2027:Api\core\src/vl53l0x_api_core.c **** 	FixPoint1616_t RangeIgnoreThresholdValue;
2028:Api\core\src/vl53l0x_api_core.c **** 	FixPoint1616_t SignalRatePerSpad;
2029:Api\core\src/vl53l0x_api_core.c **** 	uint8_t DeviceRangeStatusInternal = 0;
2030:Api\core\src/vl53l0x_api_core.c **** 	uint16_t tmpWord = 0;
 4654              		.loc 1 2030 0
 4655 002c 0A22     		movs	r2, #10
 4656 002e 6244     		add	r2, r2, ip
 4657 0030 1380     		strh	r3, [r2]
2031:Api\core\src/vl53l0x_api_core.c **** 	uint8_t Temp8;
2032:Api\core\src/vl53l0x_api_core.c **** 	uint32_t Dmax_mm = 0;
 4658              		.loc 1 2032 0
 4659 0032 0393     		str	r3, [sp, #12]
2033:Api\core\src/vl53l0x_api_core.c **** 	FixPoint1616_t LastSignalRefMcps;
2034:Api\core\src/vl53l0x_api_core.c **** 
2035:Api\core\src/vl53l0x_api_core.c **** 	LOG_FUNCTION_START("");
2036:Api\core\src/vl53l0x_api_core.c **** 
ARM GAS  C:\Users\Rajesh\AppData\Local\Temp\ccMJoliC.s 			page 120


2037:Api\core\src/vl53l0x_api_core.c **** 
2038:Api\core\src/vl53l0x_api_core.c **** 	/*
2039:Api\core\src/vl53l0x_api_core.c **** 	 * VL53L0X has a good ranging when the value of the
2040:Api\core\src/vl53l0x_api_core.c **** 	 * DeviceRangeStatus = 11. This function will replace the value 0 with
2041:Api\core\src/vl53l0x_api_core.c **** 	 * the value 11 in the DeviceRangeStatus.
2042:Api\core\src/vl53l0x_api_core.c **** 	 * In addition, the SigmaEstimator is not included in the VL53L0X
2043:Api\core\src/vl53l0x_api_core.c **** 	 * DeviceRangeStatus, this will be added in the PalRangeStatus.
2044:Api\core\src/vl53l0x_api_core.c **** 	 */
2045:Api\core\src/vl53l0x_api_core.c **** 
2046:Api\core\src/vl53l0x_api_core.c **** 	DeviceRangeStatusInternal = ((DeviceRangeStatus & 0x78) >> 3);
 4660              		.loc 1 2046 0
 4661 0034 C910     		asrs	r1, r1, #3
 4662              	.LVL872:
 4663 0036 0F27     		movs	r7, #15
 4664 0038 0F40     		ands	r7, r1
 4665              	.LVL873:
2047:Api\core\src/vl53l0x_api_core.c **** 
2048:Api\core\src/vl53l0x_api_core.c **** 	if (DeviceRangeStatusInternal == 0 ||
 4666              		.loc 1 2048 0
 4667 003a 0ED0     		beq	.L236
 4668              		.loc 1 2048 0 is_stmt 0 discriminator 1
 4669 003c 052F     		cmp	r7, #5
 4670 003e 0FD0     		beq	.L237
2049:Api\core\src/vl53l0x_api_core.c **** 		DeviceRangeStatusInternal == 5 ||
 4671              		.loc 1 2049 0 is_stmt 1
 4672 0040 072F     		cmp	r7, #7
 4673 0042 10D0     		beq	.L238
2050:Api\core\src/vl53l0x_api_core.c **** 		DeviceRangeStatusInternal == 7 ||
 4674              		.loc 1 2050 0
 4675 0044 0C2F     		cmp	r7, #12
 4676 0046 11D0     		beq	.L239
2051:Api\core\src/vl53l0x_api_core.c **** 		DeviceRangeStatusInternal == 12 ||
 4677              		.loc 1 2051 0
 4678 0048 0D2F     		cmp	r7, #13
 4679 004a 12D0     		beq	.L240
2052:Api\core\src/vl53l0x_api_core.c **** 		DeviceRangeStatusInternal == 13 ||
 4680              		.loc 1 2052 0
 4681 004c 0E2F     		cmp	r7, #14
 4682 004e 13D0     		beq	.L241
2053:Api\core\src/vl53l0x_api_core.c **** 		DeviceRangeStatusInternal == 14 ||
 4683              		.loc 1 2053 0
 4684 0050 0F2F     		cmp	r7, #15
 4685 0052 14D1     		bne	.L242
2054:Api\core\src/vl53l0x_api_core.c **** 		DeviceRangeStatusInternal == 15
2055:Api\core\src/vl53l0x_api_core.c **** 			) {
2056:Api\core\src/vl53l0x_api_core.c **** 		NoneFlag = 1;
 4686              		.loc 1 2056 0
 4687 0054 0133     		adds	r3, r3, #1
 4688 0056 9A46     		mov	r10, r3
 4689 0058 13E0     		b	.L209
 4690              	.L236:
 4691 005a 0123     		movs	r3, #1
 4692 005c 9A46     		mov	r10, r3
 4693 005e 10E0     		b	.L209
 4694              	.L237:
 4695 0060 0123     		movs	r3, #1
 4696 0062 9A46     		mov	r10, r3
ARM GAS  C:\Users\Rajesh\AppData\Local\Temp\ccMJoliC.s 			page 121


 4697 0064 0DE0     		b	.L209
 4698              	.L238:
 4699 0066 0123     		movs	r3, #1
 4700 0068 9A46     		mov	r10, r3
 4701 006a 0AE0     		b	.L209
 4702              	.L239:
 4703 006c 0123     		movs	r3, #1
 4704 006e 9A46     		mov	r10, r3
 4705 0070 07E0     		b	.L209
 4706              	.L240:
 4707 0072 0123     		movs	r3, #1
 4708 0074 9A46     		mov	r10, r3
 4709 0076 04E0     		b	.L209
 4710              	.L241:
 4711 0078 0123     		movs	r3, #1
 4712 007a 9A46     		mov	r10, r3
 4713 007c 01E0     		b	.L209
 4714              	.L242:
2057:Api\core\src/vl53l0x_api_core.c **** 	} else {
2058:Api\core\src/vl53l0x_api_core.c **** 		NoneFlag = 0;
 4715              		.loc 1 2058 0
 4716 007e 0023     		movs	r3, #0
 4717 0080 9A46     		mov	r10, r3
 4718              	.L209:
 4719              	.LVL874:
2059:Api\core\src/vl53l0x_api_core.c **** 	}
2060:Api\core\src/vl53l0x_api_core.c **** 
2061:Api\core\src/vl53l0x_api_core.c **** 	/*
2062:Api\core\src/vl53l0x_api_core.c **** 	 * Check if Sigma limit is enabled, if yes then do comparison with limit
2063:Api\core\src/vl53l0x_api_core.c **** 	 * value and put the result back into pPalRangeStatus.
2064:Api\core\src/vl53l0x_api_core.c **** 	 */
2065:Api\core\src/vl53l0x_api_core.c **** 	if (Status == VL53L0X_ERROR_NONE)
2066:Api\core\src/vl53l0x_api_core.c **** 		Status =  VL53L0X_GetLimitCheckEnable(Dev,
 4720              		.loc 1 2066 0
 4721 0082 1F26     		movs	r6, #31
 4722 0084 02AB     		add	r3, sp, #8
 4723 0086 9C46     		mov	ip, r3
 4724 0088 6644     		add	r6, r6, ip
 4725 008a 3200     		movs	r2, r6
 4726 008c 0021     		movs	r1, #0
 4727 008e 2000     		movs	r0, r4
 4728 0090 FFF7FEFF 		bl	VL53L0X_GetLimitCheckEnable
 4729              	.LVL875:
2067:Api\core\src/vl53l0x_api_core.c **** 			VL53L0X_CHECKENABLE_SIGMA_FINAL_RANGE,
2068:Api\core\src/vl53l0x_api_core.c **** 			&SigmaLimitCheckEnable);
2069:Api\core\src/vl53l0x_api_core.c **** 
2070:Api\core\src/vl53l0x_api_core.c **** 	if ((SigmaLimitCheckEnable != 0) && (Status == VL53L0X_ERROR_NONE)) {
 4730              		.loc 1 2070 0
 4731 0094 3378     		ldrb	r3, [r6]
 4732 0096 002B     		cmp	r3, #0
 4733 0098 1CD0     		beq	.L243
 4734              		.loc 1 2070 0 is_stmt 0 discriminator 1
 4735 009a 0028     		cmp	r0, #0
 4736 009c 1DD1     		bne	.L244
2071:Api\core\src/vl53l0x_api_core.c **** 		/*
2072:Api\core\src/vl53l0x_api_core.c **** 		* compute the Sigma and check with limit
2073:Api\core\src/vl53l0x_api_core.c **** 		*/
ARM GAS  C:\Users\Rajesh\AppData\Local\Temp\ccMJoliC.s 			page 122


2074:Api\core\src/vl53l0x_api_core.c **** 		Status = VL53L0X_calc_sigma_estimate(
 4737              		.loc 1 2074 0 is_stmt 1
 4738 009e 03AB     		add	r3, sp, #12
 4739 00a0 08AA     		add	r2, sp, #32
 4740 00a2 1299     		ldr	r1, [sp, #72]
 4741 00a4 2000     		movs	r0, r4
 4742              	.LVL876:
 4743 00a6 FFF7FEFF 		bl	VL53L0X_calc_sigma_estimate
 4744              	.LVL877:
2075:Api\core\src/vl53l0x_api_core.c **** 			Dev,
2076:Api\core\src/vl53l0x_api_core.c **** 			pRangingMeasurementData,
2077:Api\core\src/vl53l0x_api_core.c **** 			&SigmaEstimate,
2078:Api\core\src/vl53l0x_api_core.c **** 			&Dmax_mm);
2079:Api\core\src/vl53l0x_api_core.c **** 		if (Status == VL53L0X_ERROR_NONE)
 4745              		.loc 1 2079 0
 4746 00aa 0028     		cmp	r0, #0
 4747 00ac 02D1     		bne	.L211
2080:Api\core\src/vl53l0x_api_core.c **** 			pRangingMeasurementData->RangeDMaxMilliMeter = Dmax_mm;
 4748              		.loc 1 2080 0
 4749 00ae 039B     		ldr	r3, [sp, #12]
 4750 00b0 129A     		ldr	r2, [sp, #72]
 4751 00b2 5381     		strh	r3, [r2, #10]
 4752              	.L211:
2081:Api\core\src/vl53l0x_api_core.c **** 
2082:Api\core\src/vl53l0x_api_core.c **** 		if (Status == VL53L0X_ERROR_NONE) {
 4753              		.loc 1 2082 0
 4754 00b4 0028     		cmp	r0, #0
 4755 00b6 13D1     		bne	.L245
2083:Api\core\src/vl53l0x_api_core.c **** 			Status = VL53L0X_GetLimitCheckValue(Dev,
 4756              		.loc 1 2083 0
 4757 00b8 07AA     		add	r2, sp, #28
 4758 00ba 0021     		movs	r1, #0
 4759 00bc 2000     		movs	r0, r4
 4760              	.LVL878:
 4761 00be FFF7FEFF 		bl	VL53L0X_GetLimitCheckValue
 4762              	.LVL879:
2084:Api\core\src/vl53l0x_api_core.c **** 				VL53L0X_CHECKENABLE_SIGMA_FINAL_RANGE,
2085:Api\core\src/vl53l0x_api_core.c **** 				&SigmaLimitValue);
2086:Api\core\src/vl53l0x_api_core.c **** 
2087:Api\core\src/vl53l0x_api_core.c **** 			if ((SigmaLimitValue > 0) &&
 4763              		.loc 1 2087 0
 4764 00c2 079B     		ldr	r3, [sp, #28]
 4765 00c4 002B     		cmp	r3, #0
 4766 00c6 0ED0     		beq	.L246
 4767              		.loc 1 2087 0 is_stmt 0 discriminator 1
 4768 00c8 089A     		ldr	r2, [sp, #32]
 4769 00ca 9342     		cmp	r3, r2
 4770 00cc 0ED3     		bcc	.L247
2017:Api\core\src/vl53l0x_api_core.c **** 	uint8_t SignalRefClipflag = 0;
 4771              		.loc 1 2017 0 is_stmt 1
 4772 00ce 0023     		movs	r3, #0
 4773 00d0 9946     		mov	r9, r3
 4774 00d2 0DE0     		b	.L210
 4775              	.L243:
 4776 00d4 0023     		movs	r3, #0
 4777 00d6 9946     		mov	r9, r3
 4778 00d8 0AE0     		b	.L210
ARM GAS  C:\Users\Rajesh\AppData\Local\Temp\ccMJoliC.s 			page 123


 4779              	.L244:
 4780 00da 0023     		movs	r3, #0
 4781 00dc 9946     		mov	r9, r3
 4782 00de 07E0     		b	.L210
 4783              	.L245:
 4784 00e0 0023     		movs	r3, #0
 4785 00e2 9946     		mov	r9, r3
 4786 00e4 04E0     		b	.L210
 4787              	.L246:
 4788 00e6 0023     		movs	r3, #0
 4789 00e8 9946     		mov	r9, r3
 4790 00ea 01E0     		b	.L210
 4791              	.L247:
2088:Api\core\src/vl53l0x_api_core.c **** 				(SigmaEstimate > SigmaLimitValue))
2089:Api\core\src/vl53l0x_api_core.c **** 					/* Limit Fail */
2090:Api\core\src/vl53l0x_api_core.c **** 					SigmaLimitflag = 1;
 4792              		.loc 1 2090 0
 4793 00ec 0123     		movs	r3, #1
 4794 00ee 9946     		mov	r9, r3
 4795              	.LVL880:
 4796              	.L210:
2091:Api\core\src/vl53l0x_api_core.c **** 		}
2092:Api\core\src/vl53l0x_api_core.c **** 	}
2093:Api\core\src/vl53l0x_api_core.c **** 
2094:Api\core\src/vl53l0x_api_core.c **** 	/*
2095:Api\core\src/vl53l0x_api_core.c **** 	 * Check if Signal ref clip limit is enabled, if yes then do comparison
2096:Api\core\src/vl53l0x_api_core.c **** 	 * with limit value and put the result back into pPalRangeStatus.
2097:Api\core\src/vl53l0x_api_core.c **** 	 */
2098:Api\core\src/vl53l0x_api_core.c **** 	if (Status == VL53L0X_ERROR_NONE)
 4797              		.loc 1 2098 0
 4798 00f0 0028     		cmp	r0, #0
 4799 00f2 07D1     		bne	.L212
2099:Api\core\src/vl53l0x_api_core.c **** 		Status =  VL53L0X_GetLimitCheckEnable(Dev,
 4800              		.loc 1 2099 0
 4801 00f4 1D22     		movs	r2, #29
 4802 00f6 02AB     		add	r3, sp, #8
 4803 00f8 9C46     		mov	ip, r3
 4804 00fa 6244     		add	r2, r2, ip
 4805 00fc 0221     		movs	r1, #2
 4806 00fe 2000     		movs	r0, r4
 4807              	.LVL881:
 4808 0100 FFF7FEFF 		bl	VL53L0X_GetLimitCheckEnable
 4809              	.LVL882:
 4810              	.L212:
2100:Api\core\src/vl53l0x_api_core.c **** 				VL53L0X_CHECKENABLE_SIGNAL_REF_CLIP,
2101:Api\core\src/vl53l0x_api_core.c **** 				&SignalRefClipLimitCheckEnable);
2102:Api\core\src/vl53l0x_api_core.c **** 
2103:Api\core\src/vl53l0x_api_core.c **** 	if ((SignalRefClipLimitCheckEnable != 0) &&
 4811              		.loc 1 2103 0
 4812 0104 1D23     		movs	r3, #29
 4813 0106 02AA     		add	r2, sp, #8
 4814 0108 9446     		mov	ip, r2
 4815 010a 6344     		add	r3, r3, ip
 4816 010c 1B78     		ldrb	r3, [r3]
 4817 010e 002B     		cmp	r3, #0
 4818 0110 2ED0     		beq	.L248
 4819              		.loc 1 2103 0 is_stmt 0 discriminator 1
ARM GAS  C:\Users\Rajesh\AppData\Local\Temp\ccMJoliC.s 			page 124


 4820 0112 0028     		cmp	r0, #0
 4821 0114 2ED1     		bne	.L249
2104:Api\core\src/vl53l0x_api_core.c **** 			(Status == VL53L0X_ERROR_NONE)) {
2105:Api\core\src/vl53l0x_api_core.c **** 
2106:Api\core\src/vl53l0x_api_core.c **** 		Status = VL53L0X_GetLimitCheckValue(Dev,
 4822              		.loc 1 2106 0 is_stmt 1
 4823 0116 06AA     		add	r2, sp, #24
 4824 0118 0221     		movs	r1, #2
 4825 011a 2000     		movs	r0, r4
 4826              	.LVL883:
 4827 011c FFF7FEFF 		bl	VL53L0X_GetLimitCheckValue
 4828              	.LVL884:
2107:Api\core\src/vl53l0x_api_core.c **** 				VL53L0X_CHECKENABLE_SIGNAL_REF_CLIP,
2108:Api\core\src/vl53l0x_api_core.c **** 				&SignalRefClipValue);
2109:Api\core\src/vl53l0x_api_core.c **** 
2110:Api\core\src/vl53l0x_api_core.c **** 		/* Read LastSignalRefMcps from device */
2111:Api\core\src/vl53l0x_api_core.c **** 		if (Status == VL53L0X_ERROR_NONE)
 4829              		.loc 1 2111 0
 4830 0120 0028     		cmp	r0, #0
 4831 0122 04D1     		bne	.L214
2112:Api\core\src/vl53l0x_api_core.c **** 			Status = VL53L0X_WrByte(Dev, 0xFF, 0x01);
 4832              		.loc 1 2112 0
 4833 0124 0122     		movs	r2, #1
 4834 0126 FF21     		movs	r1, #255
 4835 0128 2000     		movs	r0, r4
 4836              	.LVL885:
 4837 012a FFF7FEFF 		bl	VL53L0X_WrByte
 4838              	.LVL886:
 4839              	.L214:
2113:Api\core\src/vl53l0x_api_core.c **** 
2114:Api\core\src/vl53l0x_api_core.c **** 		if (Status == VL53L0X_ERROR_NONE)
 4840              		.loc 1 2114 0
 4841 012e 0028     		cmp	r0, #0
 4842 0130 07D1     		bne	.L215
2115:Api\core\src/vl53l0x_api_core.c **** 			Status = VL53L0X_RdWord(Dev,
 4843              		.loc 1 2115 0
 4844 0132 0A22     		movs	r2, #10
 4845 0134 02AB     		add	r3, sp, #8
 4846 0136 9C46     		mov	ip, r3
 4847 0138 6244     		add	r2, r2, ip
 4848 013a B621     		movs	r1, #182
 4849 013c 2000     		movs	r0, r4
 4850              	.LVL887:
 4851 013e FFF7FEFF 		bl	VL53L0X_RdWord
 4852              	.LVL888:
 4853              	.L215:
2116:Api\core\src/vl53l0x_api_core.c **** 				VL53L0X_REG_RESULT_PEAK_SIGNAL_RATE_REF,
2117:Api\core\src/vl53l0x_api_core.c **** 				&tmpWord);
2118:Api\core\src/vl53l0x_api_core.c **** 
2119:Api\core\src/vl53l0x_api_core.c **** 		if (Status == VL53L0X_ERROR_NONE)
 4854              		.loc 1 2119 0
 4855 0142 0028     		cmp	r0, #0
 4856 0144 04D1     		bne	.L216
2120:Api\core\src/vl53l0x_api_core.c **** 			Status = VL53L0X_WrByte(Dev, 0xFF, 0x00);
 4857              		.loc 1 2120 0
 4858 0146 0022     		movs	r2, #0
 4859 0148 FF21     		movs	r1, #255
ARM GAS  C:\Users\Rajesh\AppData\Local\Temp\ccMJoliC.s 			page 125


 4860 014a 2000     		movs	r0, r4
 4861              	.LVL889:
 4862 014c FFF7FEFF 		bl	VL53L0X_WrByte
 4863              	.LVL890:
 4864              	.L216:
2121:Api\core\src/vl53l0x_api_core.c **** 
2122:Api\core\src/vl53l0x_api_core.c **** 		LastSignalRefMcps = VL53L0X_FIXPOINT97TOFIXPOINT1616(tmpWord);
 4865              		.loc 1 2122 0
 4866 0150 0A23     		movs	r3, #10
 4867 0152 02AA     		add	r2, sp, #8
 4868 0154 9446     		mov	ip, r2
 4869 0156 6344     		add	r3, r3, ip
 4870 0158 1B88     		ldrh	r3, [r3]
 4871 015a 5B02     		lsls	r3, r3, #9
 4872              	.LVL891:
2123:Api\core\src/vl53l0x_api_core.c **** 		PALDevDataSet(Dev, LastSignalRefMcps, LastSignalRefMcps);
 4873              		.loc 1 2123 0
 4874 015c A422     		movs	r2, #164
 4875 015e 5200     		lsls	r2, r2, #1
 4876 0160 A350     		str	r3, [r4, r2]
2124:Api\core\src/vl53l0x_api_core.c **** 
2125:Api\core\src/vl53l0x_api_core.c **** 		if ((SignalRefClipValue > 0) &&
 4877              		.loc 1 2125 0
 4878 0162 069A     		ldr	r2, [sp, #24]
 4879 0164 002A     		cmp	r2, #0
 4880 0166 07D0     		beq	.L250
 4881              		.loc 1 2125 0 is_stmt 0 discriminator 1
 4882 0168 9342     		cmp	r3, r2
 4883 016a 07D8     		bhi	.L251
2018:Api\core\src/vl53l0x_api_core.c **** 	uint8_t RangeIgnoreThresholdflag = 0;
 4884              		.loc 1 2018 0 is_stmt 1
 4885 016c 0026     		movs	r6, #0
 4886 016e 06E0     		b	.L213
 4887              	.LVL892:
 4888              	.L248:
 4889 0170 0026     		movs	r6, #0
 4890 0172 04E0     		b	.L213
 4891              	.L249:
 4892 0174 0026     		movs	r6, #0
 4893 0176 02E0     		b	.L213
 4894              	.LVL893:
 4895              	.L250:
 4896 0178 0026     		movs	r6, #0
 4897 017a 00E0     		b	.L213
 4898              	.L251:
2126:Api\core\src/vl53l0x_api_core.c **** 				(LastSignalRefMcps > SignalRefClipValue)) {
2127:Api\core\src/vl53l0x_api_core.c **** 			/* Limit Fail */
2128:Api\core\src/vl53l0x_api_core.c **** 			SignalRefClipflag = 1;
 4899              		.loc 1 2128 0
 4900 017c 0126     		movs	r6, #1
 4901              	.LVL894:
 4902              	.L213:
2129:Api\core\src/vl53l0x_api_core.c **** 		}
2130:Api\core\src/vl53l0x_api_core.c **** 	}
2131:Api\core\src/vl53l0x_api_core.c **** 
2132:Api\core\src/vl53l0x_api_core.c **** 	/*
2133:Api\core\src/vl53l0x_api_core.c **** 	 * Check if Signal ref clip limit is enabled, if yes then do comparison
ARM GAS  C:\Users\Rajesh\AppData\Local\Temp\ccMJoliC.s 			page 126


2134:Api\core\src/vl53l0x_api_core.c **** 	 * with limit value and put the result back into pPalRangeStatus.
2135:Api\core\src/vl53l0x_api_core.c **** 	 * EffectiveSpadRtnCount has a format 8.8
2136:Api\core\src/vl53l0x_api_core.c **** 	 * If (Return signal rate < (1.5 x Xtalk x number of Spads)) : FAIL
2137:Api\core\src/vl53l0x_api_core.c **** 	 */
2138:Api\core\src/vl53l0x_api_core.c **** 	if (Status == VL53L0X_ERROR_NONE)
 4903              		.loc 1 2138 0
 4904 017e 0028     		cmp	r0, #0
 4905 0180 04D1     		bne	.L217
2139:Api\core\src/vl53l0x_api_core.c **** 		Status =  VL53L0X_GetLimitCheckEnable(Dev,
 4906              		.loc 1 2139 0
 4907 0182 09AA     		add	r2, sp, #36
 4908 0184 0321     		movs	r1, #3
 4909 0186 2000     		movs	r0, r4
 4910              	.LVL895:
 4911 0188 FFF7FEFF 		bl	VL53L0X_GetLimitCheckEnable
 4912              	.LVL896:
 4913              	.L217:
2140:Api\core\src/vl53l0x_api_core.c **** 				VL53L0X_CHECKENABLE_RANGE_IGNORE_THRESHOLD,
2141:Api\core\src/vl53l0x_api_core.c **** 				&RangeIgnoreThresholdLimitCheckEnable);
2142:Api\core\src/vl53l0x_api_core.c **** 
2143:Api\core\src/vl53l0x_api_core.c **** 	if ((RangeIgnoreThresholdLimitCheckEnable != 0) &&
 4914              		.loc 1 2143 0
 4915 018c 09AB     		add	r3, sp, #36
 4916 018e 1B78     		ldrb	r3, [r3]
 4917 0190 002B     		cmp	r3, #0
 4918 0192 17D0     		beq	.L252
 4919              		.loc 1 2143 0 is_stmt 0 discriminator 1
 4920 0194 0028     		cmp	r0, #0
 4921 0196 17D1     		bne	.L253
2144:Api\core\src/vl53l0x_api_core.c **** 			(Status == VL53L0X_ERROR_NONE)) {
2145:Api\core\src/vl53l0x_api_core.c **** 
2146:Api\core\src/vl53l0x_api_core.c **** 		/* Compute the signal rate per spad */
2147:Api\core\src/vl53l0x_api_core.c **** 		if (EffectiveSpadRtnCount == 0) {
 4922              		.loc 1 2147 0 is_stmt 1
 4923 0198 002D     		cmp	r5, #0
 4924 019a 06D0     		beq	.L254
2148:Api\core\src/vl53l0x_api_core.c **** 			SignalRatePerSpad = 0;
2149:Api\core\src/vl53l0x_api_core.c **** 		} else {
2150:Api\core\src/vl53l0x_api_core.c **** 			SignalRatePerSpad = (FixPoint1616_t)((256 * SignalRate)
 4925              		.loc 1 2150 0
 4926 019c 019B     		ldr	r3, [sp, #4]
 4927 019e 1802     		lsls	r0, r3, #8
 4928              	.LVL897:
 4929 01a0 2900     		movs	r1, r5
 4930 01a2 FFF7FEFF 		bl	__aeabi_uidiv
 4931              	.LVL898:
 4932 01a6 0500     		movs	r5, r0
 4933              	.LVL899:
 4934 01a8 00E0     		b	.L219
 4935              	.LVL900:
 4936              	.L254:
2148:Api\core\src/vl53l0x_api_core.c **** 			SignalRatePerSpad = 0;
 4937              		.loc 1 2148 0
 4938 01aa 0025     		movs	r5, #0
 4939              	.LVL901:
 4940              	.L219:
2151:Api\core\src/vl53l0x_api_core.c **** 				/ EffectiveSpadRtnCount);
ARM GAS  C:\Users\Rajesh\AppData\Local\Temp\ccMJoliC.s 			page 127


2152:Api\core\src/vl53l0x_api_core.c **** 		}
2153:Api\core\src/vl53l0x_api_core.c **** 
2154:Api\core\src/vl53l0x_api_core.c **** 		Status = VL53L0X_GetLimitCheckValue(Dev,
 4941              		.loc 1 2154 0
 4942 01ac 05AA     		add	r2, sp, #20
 4943 01ae 0321     		movs	r1, #3
 4944 01b0 2000     		movs	r0, r4
 4945 01b2 FFF7FEFF 		bl	VL53L0X_GetLimitCheckValue
 4946              	.LVL902:
2155:Api\core\src/vl53l0x_api_core.c **** 				VL53L0X_CHECKENABLE_RANGE_IGNORE_THRESHOLD,
2156:Api\core\src/vl53l0x_api_core.c **** 				&RangeIgnoreThresholdValue);
2157:Api\core\src/vl53l0x_api_core.c **** 
2158:Api\core\src/vl53l0x_api_core.c **** 		if ((RangeIgnoreThresholdValue > 0) &&
 4947              		.loc 1 2158 0
 4948 01b6 059B     		ldr	r3, [sp, #20]
 4949 01b8 002B     		cmp	r3, #0
 4950 01ba 07D0     		beq	.L255
 4951              		.loc 1 2158 0 is_stmt 0 discriminator 1
 4952 01bc 9D42     		cmp	r5, r3
 4953 01be 07D3     		bcc	.L256
2019:Api\core\src/vl53l0x_api_core.c **** 	uint8_t SigmaLimitCheckEnable = 0;
 4954              		.loc 1 2019 0 is_stmt 1
 4955 01c0 0025     		movs	r5, #0
 4956              	.LVL903:
 4957 01c2 06E0     		b	.L218
 4958              	.L252:
 4959 01c4 0025     		movs	r5, #0
 4960 01c6 04E0     		b	.L218
 4961              	.L253:
 4962 01c8 0025     		movs	r5, #0
 4963 01ca 02E0     		b	.L218
 4964              	.LVL904:
 4965              	.L255:
 4966 01cc 0025     		movs	r5, #0
 4967              	.LVL905:
 4968 01ce 00E0     		b	.L218
 4969              	.LVL906:
 4970              	.L256:
2159:Api\core\src/vl53l0x_api_core.c **** 			(SignalRatePerSpad < RangeIgnoreThresholdValue)) {
2160:Api\core\src/vl53l0x_api_core.c **** 			/* Limit Fail add 2^6 to range status */
2161:Api\core\src/vl53l0x_api_core.c **** 			RangeIgnoreThresholdflag = 1;
 4971              		.loc 1 2161 0
 4972 01d0 0125     		movs	r5, #1
 4973              	.LVL907:
 4974              	.L218:
2162:Api\core\src/vl53l0x_api_core.c **** 		}
2163:Api\core\src/vl53l0x_api_core.c **** 	}
2164:Api\core\src/vl53l0x_api_core.c **** 
2165:Api\core\src/vl53l0x_api_core.c **** 	if (Status == VL53L0X_ERROR_NONE) {
 4975              		.loc 1 2165 0
 4976 01d2 0028     		cmp	r0, #0
 4977 01d4 31D1     		bne	.L220
2166:Api\core\src/vl53l0x_api_core.c **** 		if (NoneFlag == 1) {
 4978              		.loc 1 2166 0
 4979 01d6 5346     		mov	r3, r10
 4980 01d8 012B     		cmp	r3, #1
 4981 01da 03D1     		bne	.L221
ARM GAS  C:\Users\Rajesh\AppData\Local\Temp\ccMJoliC.s 			page 128


2167:Api\core\src/vl53l0x_api_core.c **** 			*pPalRangeStatus = 255;	 /* NONE */
 4982              		.loc 1 2167 0
 4983 01dc FE33     		adds	r3, r3, #254
 4984 01de 139A     		ldr	r2, [sp, #76]
 4985 01e0 1370     		strb	r3, [r2]
 4986 01e2 2AE0     		b	.L220
 4987              	.L221:
2168:Api\core\src/vl53l0x_api_core.c **** 		} else if (DeviceRangeStatusInternal == 1 ||
2169:Api\core\src/vl53l0x_api_core.c **** 					DeviceRangeStatusInternal == 2 ||
 4988              		.loc 1 2169 0
 4989 01e4 7B1E     		subs	r3, r7, #1
 4990 01e6 DBB2     		uxtb	r3, r3
2168:Api\core\src/vl53l0x_api_core.c **** 		} else if (DeviceRangeStatusInternal == 1 ||
 4991              		.loc 1 2168 0
 4992 01e8 022B     		cmp	r3, #2
 4993 01ea 03D8     		bhi	.L222
2170:Api\core\src/vl53l0x_api_core.c **** 					DeviceRangeStatusInternal == 3) {
2171:Api\core\src/vl53l0x_api_core.c **** 			*pPalRangeStatus = 5; /* HW fail */
 4994              		.loc 1 2171 0
 4995 01ec 0523     		movs	r3, #5
 4996 01ee 139A     		ldr	r2, [sp, #76]
 4997 01f0 1370     		strb	r3, [r2]
 4998 01f2 22E0     		b	.L220
 4999              	.L222:
2172:Api\core\src/vl53l0x_api_core.c **** 		} else if (DeviceRangeStatusInternal == 6 ||
 5000              		.loc 1 2172 0
 5001 01f4 062F     		cmp	r7, #6
 5002 01f6 01D0     		beq	.L223
 5003              		.loc 1 2172 0 is_stmt 0 discriminator 1
 5004 01f8 092F     		cmp	r7, #9
 5005 01fa 03D1     		bne	.L224
 5006              	.L223:
2173:Api\core\src/vl53l0x_api_core.c **** 					DeviceRangeStatusInternal == 9) {
2174:Api\core\src/vl53l0x_api_core.c **** 			*pPalRangeStatus = 4;  /* Phase fail */
 5007              		.loc 1 2174 0 is_stmt 1
 5008 01fc 0423     		movs	r3, #4
 5009 01fe 139A     		ldr	r2, [sp, #76]
 5010 0200 1370     		strb	r3, [r2]
 5011 0202 1AE0     		b	.L220
 5012              	.L224:
2175:Api\core\src/vl53l0x_api_core.c **** 		} else if (DeviceRangeStatusInternal == 8 ||
 5013              		.loc 1 2175 0
 5014 0204 082F     		cmp	r7, #8
 5015 0206 03D0     		beq	.L225
 5016              		.loc 1 2175 0 is_stmt 0 discriminator 1
 5017 0208 0A2F     		cmp	r7, #10
 5018 020a 01D0     		beq	.L225
2176:Api\core\src/vl53l0x_api_core.c **** 					DeviceRangeStatusInternal == 10 ||
 5019              		.loc 1 2176 0 is_stmt 1
 5020 020c 012E     		cmp	r6, #1
 5021 020e 03D1     		bne	.L226
 5022              	.L225:
2177:Api\core\src/vl53l0x_api_core.c **** 					SignalRefClipflag == 1) {
2178:Api\core\src/vl53l0x_api_core.c **** 			*pPalRangeStatus = 3;  /* Min range */
 5023              		.loc 1 2178 0
 5024 0210 0323     		movs	r3, #3
 5025 0212 139A     		ldr	r2, [sp, #76]
ARM GAS  C:\Users\Rajesh\AppData\Local\Temp\ccMJoliC.s 			page 129


 5026 0214 1370     		strb	r3, [r2]
 5027 0216 10E0     		b	.L220
 5028              	.L226:
2179:Api\core\src/vl53l0x_api_core.c **** 		} else if (DeviceRangeStatusInternal == 4 ||
 5029              		.loc 1 2179 0
 5030 0218 042F     		cmp	r7, #4
 5031 021a 01D0     		beq	.L227
 5032              		.loc 1 2179 0 is_stmt 0 discriminator 1
 5033 021c 012D     		cmp	r5, #1
 5034 021e 03D1     		bne	.L228
 5035              	.L227:
2180:Api\core\src/vl53l0x_api_core.c **** 					RangeIgnoreThresholdflag == 1) {
2181:Api\core\src/vl53l0x_api_core.c **** 			*pPalRangeStatus = 2;  /* Signal Fail */
 5036              		.loc 1 2181 0 is_stmt 1
 5037 0220 0223     		movs	r3, #2
 5038 0222 139A     		ldr	r2, [sp, #76]
 5039 0224 1370     		strb	r3, [r2]
 5040 0226 08E0     		b	.L220
 5041              	.L228:
2182:Api\core\src/vl53l0x_api_core.c **** 		} else if (SigmaLimitflag == 1) {
 5042              		.loc 1 2182 0
 5043 0228 4B46     		mov	r3, r9
 5044 022a 012B     		cmp	r3, #1
 5045 022c 02D1     		bne	.L229
2183:Api\core\src/vl53l0x_api_core.c **** 			*pPalRangeStatus = 1;  /* Sigma	 Fail */
 5046              		.loc 1 2183 0
 5047 022e 139A     		ldr	r2, [sp, #76]
 5048 0230 1370     		strb	r3, [r2]
 5049 0232 02E0     		b	.L220
 5050              	.L229:
2184:Api\core\src/vl53l0x_api_core.c **** 		} else {
2185:Api\core\src/vl53l0x_api_core.c **** 			*pPalRangeStatus = 0; /* Range Valid */
 5051              		.loc 1 2185 0
 5052 0234 0023     		movs	r3, #0
 5053 0236 139A     		ldr	r2, [sp, #76]
 5054 0238 1370     		strb	r3, [r2]
 5055              	.L220:
2186:Api\core\src/vl53l0x_api_core.c **** 		}
2187:Api\core\src/vl53l0x_api_core.c **** 	}
2188:Api\core\src/vl53l0x_api_core.c **** 
2189:Api\core\src/vl53l0x_api_core.c **** 	/* DMAX only relevant during range error */
2190:Api\core\src/vl53l0x_api_core.c **** 	if (*pPalRangeStatus == 0)
 5056              		.loc 1 2190 0
 5057 023a 139B     		ldr	r3, [sp, #76]
 5058 023c 1B78     		ldrb	r3, [r3]
 5059 023e 002B     		cmp	r3, #0
 5060 0240 01D1     		bne	.L230
2191:Api\core\src/vl53l0x_api_core.c **** 		pRangingMeasurementData->RangeDMaxMilliMeter = 0;
 5061              		.loc 1 2191 0
 5062 0242 129A     		ldr	r2, [sp, #72]
 5063 0244 5381     		strh	r3, [r2, #10]
 5064              	.L230:
2192:Api\core\src/vl53l0x_api_core.c **** 
2193:Api\core\src/vl53l0x_api_core.c **** 	/* fill the Limit Check Status */
2194:Api\core\src/vl53l0x_api_core.c **** 
2195:Api\core\src/vl53l0x_api_core.c **** 	Status =  VL53L0X_GetLimitCheckEnable(Dev,
 5065              		.loc 1 2195 0
ARM GAS  C:\Users\Rajesh\AppData\Local\Temp\ccMJoliC.s 			page 130


 5066 0246 1E22     		movs	r2, #30
 5067 0248 02AB     		add	r3, sp, #8
 5068 024a 9C46     		mov	ip, r3
 5069 024c 6244     		add	r2, r2, ip
 5070 024e 0121     		movs	r1, #1
 5071 0250 2000     		movs	r0, r4
 5072              	.LVL908:
 5073 0252 FFF7FEFF 		bl	VL53L0X_GetLimitCheckEnable
 5074              	.LVL909:
2196:Api\core\src/vl53l0x_api_core.c **** 			VL53L0X_CHECKENABLE_SIGNAL_RATE_FINAL_RANGE,
2197:Api\core\src/vl53l0x_api_core.c **** 			&SignalRateFinalRangeLimitCheckEnable);
2198:Api\core\src/vl53l0x_api_core.c **** 
2199:Api\core\src/vl53l0x_api_core.c **** 	if (Status == VL53L0X_ERROR_NONE) {
 5075              		.loc 1 2199 0
 5076 0256 0028     		cmp	r0, #0
 5077 0258 3DD1     		bne	.L231
2200:Api\core\src/vl53l0x_api_core.c **** 		if ((SigmaLimitCheckEnable == 0) || (SigmaLimitflag == 1))
 5078              		.loc 1 2200 0
 5079 025a 1F23     		movs	r3, #31
 5080 025c 02AA     		add	r2, sp, #8
 5081 025e 9446     		mov	ip, r2
 5082 0260 6344     		add	r3, r3, ip
 5083 0262 1B78     		ldrb	r3, [r3]
 5084 0264 002B     		cmp	r3, #0
 5085 0266 04D0     		beq	.L257
 5086              		.loc 1 2200 0 is_stmt 0 discriminator 1
 5087 0268 4B46     		mov	r3, r9
 5088 026a 012B     		cmp	r3, #1
 5089 026c 03D1     		bne	.L258
2201:Api\core\src/vl53l0x_api_core.c **** 			Temp8 = 1;
 5090              		.loc 1 2201 0 is_stmt 1
 5091 026e 0122     		movs	r2, #1
 5092 0270 02E0     		b	.L232
 5093              	.L257:
 5094 0272 0122     		movs	r2, #1
 5095 0274 00E0     		b	.L232
 5096              	.L258:
2202:Api\core\src/vl53l0x_api_core.c **** 		else
2203:Api\core\src/vl53l0x_api_core.c **** 			Temp8 = 0;
 5097              		.loc 1 2203 0
 5098 0276 0022     		movs	r2, #0
 5099              	.L232:
 5100              	.LVL910:
2204:Api\core\src/vl53l0x_api_core.c **** 		VL53L0X_SETARRAYPARAMETERFIELD(Dev, LimitChecksStatus,
 5101              		.loc 1 2204 0
 5102 0278 2E23     		movs	r3, #46
 5103 027a E254     		strb	r2, [r4, r3]
2205:Api\core\src/vl53l0x_api_core.c **** 				VL53L0X_CHECKENABLE_SIGMA_FINAL_RANGE, Temp8);
2206:Api\core\src/vl53l0x_api_core.c **** 
2207:Api\core\src/vl53l0x_api_core.c **** 		if ((DeviceRangeStatusInternal == 4) ||
 5104              		.loc 1 2207 0
 5105 027c 042F     		cmp	r7, #4
 5106 027e 08D0     		beq	.L259
2208:Api\core\src/vl53l0x_api_core.c **** 				(SignalRateFinalRangeLimitCheckEnable == 0))
 5107              		.loc 1 2208 0 discriminator 1
 5108 0280 103B     		subs	r3, r3, #16
 5109 0282 02AA     		add	r2, sp, #8
ARM GAS  C:\Users\Rajesh\AppData\Local\Temp\ccMJoliC.s 			page 131


 5110              	.LVL911:
 5111 0284 9446     		mov	ip, r2
 5112 0286 6344     		add	r3, r3, ip
 5113 0288 1B78     		ldrb	r3, [r3]
2207:Api\core\src/vl53l0x_api_core.c **** 				(SignalRateFinalRangeLimitCheckEnable == 0))
 5114              		.loc 1 2207 0 discriminator 1
 5115 028a 002B     		cmp	r3, #0
 5116 028c 03D1     		bne	.L260
2209:Api\core\src/vl53l0x_api_core.c **** 			Temp8 = 1;
 5117              		.loc 1 2209 0
 5118 028e 0122     		movs	r2, #1
 5119 0290 02E0     		b	.L233
 5120              	.LVL912:
 5121              	.L259:
 5122 0292 0122     		movs	r2, #1
 5123              	.LVL913:
 5124 0294 00E0     		b	.L233
 5125              	.LVL914:
 5126              	.L260:
2210:Api\core\src/vl53l0x_api_core.c **** 		else
2211:Api\core\src/vl53l0x_api_core.c **** 			Temp8 = 0;
 5127              		.loc 1 2211 0
 5128 0296 0022     		movs	r2, #0
 5129              	.L233:
 5130              	.LVL915:
2212:Api\core\src/vl53l0x_api_core.c **** 		VL53L0X_SETARRAYPARAMETERFIELD(Dev, LimitChecksStatus,
 5131              		.loc 1 2212 0
 5132 0298 2F23     		movs	r3, #47
 5133 029a E254     		strb	r2, [r4, r3]
2213:Api\core\src/vl53l0x_api_core.c **** 				VL53L0X_CHECKENABLE_SIGNAL_RATE_FINAL_RANGE,
2214:Api\core\src/vl53l0x_api_core.c **** 				Temp8);
2215:Api\core\src/vl53l0x_api_core.c **** 
2216:Api\core\src/vl53l0x_api_core.c **** 		if ((SignalRefClipLimitCheckEnable == 0) ||
 5134              		.loc 1 2216 0
 5135 029c 123B     		subs	r3, r3, #18
 5136 029e 02AA     		add	r2, sp, #8
 5137              	.LVL916:
 5138 02a0 9446     		mov	ip, r2
 5139 02a2 6344     		add	r3, r3, ip
 5140 02a4 1B78     		ldrb	r3, [r3]
 5141 02a6 002B     		cmp	r3, #0
 5142 02a8 03D0     		beq	.L261
 5143              		.loc 1 2216 0 is_stmt 0 discriminator 1
 5144 02aa 012E     		cmp	r6, #1
 5145 02ac 03D1     		bne	.L262
2217:Api\core\src/vl53l0x_api_core.c **** 					(SignalRefClipflag == 1))
2218:Api\core\src/vl53l0x_api_core.c **** 			Temp8 = 1;
 5146              		.loc 1 2218 0 is_stmt 1
 5147 02ae 0122     		movs	r2, #1
 5148 02b0 02E0     		b	.L234
 5149              	.L261:
 5150 02b2 0122     		movs	r2, #1
 5151 02b4 00E0     		b	.L234
 5152              	.L262:
2219:Api\core\src/vl53l0x_api_core.c **** 		else
2220:Api\core\src/vl53l0x_api_core.c **** 			Temp8 = 0;
 5153              		.loc 1 2220 0
ARM GAS  C:\Users\Rajesh\AppData\Local\Temp\ccMJoliC.s 			page 132


 5154 02b6 0022     		movs	r2, #0
 5155              	.L234:
 5156              	.LVL917:
2221:Api\core\src/vl53l0x_api_core.c **** 
2222:Api\core\src/vl53l0x_api_core.c **** 		VL53L0X_SETARRAYPARAMETERFIELD(Dev, LimitChecksStatus,
 5157              		.loc 1 2222 0
 5158 02b8 3023     		movs	r3, #48
 5159 02ba E254     		strb	r2, [r4, r3]
2223:Api\core\src/vl53l0x_api_core.c **** 				VL53L0X_CHECKENABLE_SIGNAL_REF_CLIP, Temp8);
2224:Api\core\src/vl53l0x_api_core.c **** 
2225:Api\core\src/vl53l0x_api_core.c **** 		if ((RangeIgnoreThresholdLimitCheckEnable == 0) ||
 5160              		.loc 1 2225 0
 5161 02bc 09AB     		add	r3, sp, #36
 5162 02be 1B78     		ldrb	r3, [r3]
 5163 02c0 002B     		cmp	r3, #0
 5164 02c2 03D0     		beq	.L263
 5165              		.loc 1 2225 0 is_stmt 0 discriminator 1
 5166 02c4 012D     		cmp	r5, #1
 5167 02c6 03D1     		bne	.L264
2226:Api\core\src/vl53l0x_api_core.c **** 				(RangeIgnoreThresholdflag == 1))
2227:Api\core\src/vl53l0x_api_core.c **** 			Temp8 = 1;
 5168              		.loc 1 2227 0 is_stmt 1
 5169 02c8 0122     		movs	r2, #1
 5170              	.LVL918:
 5171 02ca 02E0     		b	.L235
 5172              	.LVL919:
 5173              	.L263:
 5174 02cc 0122     		movs	r2, #1
 5175              	.LVL920:
 5176 02ce 00E0     		b	.L235
 5177              	.LVL921:
 5178              	.L264:
2228:Api\core\src/vl53l0x_api_core.c **** 		else
2229:Api\core\src/vl53l0x_api_core.c **** 			Temp8 = 0;
 5179              		.loc 1 2229 0
 5180 02d0 0022     		movs	r2, #0
 5181              	.LVL922:
 5182              	.L235:
2230:Api\core\src/vl53l0x_api_core.c **** 
2231:Api\core\src/vl53l0x_api_core.c **** 		VL53L0X_SETARRAYPARAMETERFIELD(Dev, LimitChecksStatus,
 5183              		.loc 1 2231 0
 5184 02d2 3123     		movs	r3, #49
 5185 02d4 E254     		strb	r2, [r4, r3]
 5186              	.LVL923:
 5187              	.L231:
2232:Api\core\src/vl53l0x_api_core.c **** 				VL53L0X_CHECKENABLE_RANGE_IGNORE_THRESHOLD,
2233:Api\core\src/vl53l0x_api_core.c **** 				Temp8);
2234:Api\core\src/vl53l0x_api_core.c **** 	}
2235:Api\core\src/vl53l0x_api_core.c **** 
2236:Api\core\src/vl53l0x_api_core.c **** 	LOG_FUNCTION_END(Status);
2237:Api\core\src/vl53l0x_api_core.c **** 	return Status;
2238:Api\core\src/vl53l0x_api_core.c **** 
2239:Api\core\src/vl53l0x_api_core.c **** }
 5188              		.loc 1 2239 0
 5189 02d6 0BB0     		add	sp, sp, #44
 5190              		@ sp needed
 5191              	.LVL924:
ARM GAS  C:\Users\Rajesh\AppData\Local\Temp\ccMJoliC.s 			page 133


 5192              	.LVL925:
 5193              	.LVL926:
 5194              	.LVL927:
 5195              	.LVL928:
 5196              	.LVL929:
 5197 02d8 0CBC     		pop	{r2, r3}
 5198 02da 9146     		mov	r9, r2
 5199 02dc 9A46     		mov	r10, r3
 5200 02de F0BD     		pop	{r4, r5, r6, r7, pc}
 5201              		.cfi_endproc
 5202              	.LFE25:
 5203              		.size	VL53L0X_get_pal_range_status, .-VL53L0X_get_pal_range_status
 5204              		.text
 5205              	.Letext0:
 5206              		.file 2 "c:\\program files (x86)\\cypress\\psoc creator\\4.2\\psoc creator\\import\\gnu\\arm\\5.4.
 5207              		.file 3 "c:\\program files (x86)\\cypress\\psoc creator\\4.2\\psoc creator\\import\\gnu\\arm\\5.4.
 5208              		.file 4 ".\\Api\\platform\\inc/vl53l0x_types.h"
 5209              		.file 5 ".\\Api\\core\\inc/vl53l0x_device.h"
 5210              		.file 6 ".\\Api\\core\\inc/vl53l0x_def.h"
 5211              		.file 7 ".\\Api\\platform\\inc/vl53l0x_platform.h"
 5212              		.file 8 ".\\Api\\core\\inc/vl53l0x_api.h"
 5213              		.file 9 "c:\\program files (x86)\\cypress\\psoc creator\\4.2\\psoc creator\\import\\gnu\\arm\\5.4.
 5214              		.file 10 ".\\Api\\core\\inc/vl53l0x_api_calibration.h"
 5215              		.section	.debug_info,"",%progbits
 5216              	.Ldebug_info0:
 5217 0000 312F0000 		.4byte	0x2f31
 5218 0004 0400     		.2byte	0x4
 5219 0006 00000000 		.4byte	.Ldebug_abbrev0
 5220 000a 04       		.byte	0x4
 5221 000b 01       		.uleb128 0x1
 5222 000c 41070000 		.4byte	.LASF341
 5223 0010 0C       		.byte	0xc
 5224 0011 7B000000 		.4byte	.LASF342
 5225 0015 A1100000 		.4byte	.LASF343
 5226 0019 00000000 		.4byte	.Ldebug_ranges0+0
 5227 001d 00000000 		.4byte	0
 5228 0021 00000000 		.4byte	.Ldebug_line0
 5229 0025 02       		.uleb128 0x2
 5230 0026 A00E0000 		.4byte	.LASF0
 5231 002a 02       		.byte	0x2
 5232 002b 1B       		.byte	0x1b
 5233 002c 30000000 		.4byte	0x30
 5234 0030 03       		.uleb128 0x3
 5235 0031 01       		.byte	0x1
 5236 0032 06       		.byte	0x6
 5237 0033 EA160000 		.4byte	.LASF2
 5238 0037 02       		.uleb128 0x2
 5239 0038 A4120000 		.4byte	.LASF1
 5240 003c 02       		.byte	0x2
 5241 003d 1D       		.byte	0x1d
 5242 003e 42000000 		.4byte	0x42
 5243 0042 03       		.uleb128 0x3
 5244 0043 01       		.byte	0x1
 5245 0044 08       		.byte	0x8
 5246 0045 8D140000 		.4byte	.LASF3
 5247 0049 02       		.uleb128 0x2
 5248 004a 0B0D0000 		.4byte	.LASF4
ARM GAS  C:\Users\Rajesh\AppData\Local\Temp\ccMJoliC.s 			page 134


 5249 004e 02       		.byte	0x2
 5250 004f 29       		.byte	0x29
 5251 0050 54000000 		.4byte	0x54
 5252 0054 03       		.uleb128 0x3
 5253 0055 02       		.byte	0x2
 5254 0056 05       		.byte	0x5
 5255 0057 EA100000 		.4byte	.LASF5
 5256 005b 02       		.uleb128 0x2
 5257 005c BC060000 		.4byte	.LASF6
 5258 0060 02       		.byte	0x2
 5259 0061 2B       		.byte	0x2b
 5260 0062 66000000 		.4byte	0x66
 5261 0066 03       		.uleb128 0x3
 5262 0067 02       		.byte	0x2
 5263 0068 07       		.byte	0x7
 5264 0069 26170000 		.4byte	.LASF7
 5265 006d 02       		.uleb128 0x2
 5266 006e 95020000 		.4byte	.LASF8
 5267 0072 02       		.byte	0x2
 5268 0073 3F       		.byte	0x3f
 5269 0074 78000000 		.4byte	0x78
 5270 0078 03       		.uleb128 0x3
 5271 0079 04       		.byte	0x4
 5272 007a 05       		.byte	0x5
 5273 007b 2B110000 		.4byte	.LASF9
 5274 007f 02       		.uleb128 0x2
 5275 0080 C1140000 		.4byte	.LASF10
 5276 0084 02       		.byte	0x2
 5277 0085 41       		.byte	0x41
 5278 0086 8A000000 		.4byte	0x8a
 5279 008a 03       		.uleb128 0x3
 5280 008b 04       		.byte	0x4
 5281 008c 07       		.byte	0x7
 5282 008d A3130000 		.4byte	.LASF11
 5283 0091 03       		.uleb128 0x3
 5284 0092 08       		.byte	0x8
 5285 0093 05       		.byte	0x5
 5286 0094 710C0000 		.4byte	.LASF12
 5287 0098 02       		.uleb128 0x2
 5288 0099 2C090000 		.4byte	.LASF13
 5289 009d 02       		.byte	0x2
 5290 009e 5B       		.byte	0x5b
 5291 009f A3000000 		.4byte	0xa3
 5292 00a3 03       		.uleb128 0x3
 5293 00a4 08       		.byte	0x8
 5294 00a5 07       		.byte	0x7
 5295 00a6 12060000 		.4byte	.LASF14
 5296 00aa 04       		.uleb128 0x4
 5297 00ab 04       		.byte	0x4
 5298 00ac 05       		.byte	0x5
 5299 00ad 696E7400 		.ascii	"int\000"
 5300 00b1 03       		.uleb128 0x3
 5301 00b2 04       		.byte	0x4
 5302 00b3 07       		.byte	0x7
 5303 00b4 DF010000 		.4byte	.LASF15
 5304 00b8 02       		.uleb128 0x2
 5305 00b9 ED040000 		.4byte	.LASF16
ARM GAS  C:\Users\Rajesh\AppData\Local\Temp\ccMJoliC.s 			page 135


 5306 00bd 03       		.byte	0x3
 5307 00be 14       		.byte	0x14
 5308 00bf 25000000 		.4byte	0x25
 5309 00c3 02       		.uleb128 0x2
 5310 00c4 D50B0000 		.4byte	.LASF17
 5311 00c8 03       		.byte	0x3
 5312 00c9 18       		.byte	0x18
 5313 00ca 37000000 		.4byte	0x37
 5314 00ce 02       		.uleb128 0x2
 5315 00cf DA050000 		.4byte	.LASF18
 5316 00d3 03       		.byte	0x3
 5317 00d4 20       		.byte	0x20
 5318 00d5 49000000 		.4byte	0x49
 5319 00d9 02       		.uleb128 0x2
 5320 00da 8C0F0000 		.4byte	.LASF19
 5321 00de 03       		.byte	0x3
 5322 00df 24       		.byte	0x24
 5323 00e0 5B000000 		.4byte	0x5b
 5324 00e4 02       		.uleb128 0x2
 5325 00e5 1E140000 		.4byte	.LASF20
 5326 00e9 03       		.byte	0x3
 5327 00ea 2C       		.byte	0x2c
 5328 00eb 6D000000 		.4byte	0x6d
 5329 00ef 02       		.uleb128 0x2
 5330 00f0 E4040000 		.4byte	.LASF21
 5331 00f4 03       		.byte	0x3
 5332 00f5 30       		.byte	0x30
 5333 00f6 7F000000 		.4byte	0x7f
 5334 00fa 02       		.uleb128 0x2
 5335 00fb F0110000 		.4byte	.LASF22
 5336 00ff 03       		.byte	0x3
 5337 0100 3C       		.byte	0x3c
 5338 0101 98000000 		.4byte	0x98
 5339 0105 03       		.uleb128 0x3
 5340 0106 08       		.byte	0x8
 5341 0107 04       		.byte	0x4
 5342 0108 670F0000 		.4byte	.LASF23
 5343 010c 02       		.uleb128 0x2
 5344 010d B2040000 		.4byte	.LASF24
 5345 0111 04       		.byte	0x4
 5346 0112 6D       		.byte	0x6d
 5347 0113 EF000000 		.4byte	0xef
 5348 0117 02       		.uleb128 0x2
 5349 0118 AF050000 		.4byte	.LASF25
 5350 011c 05       		.byte	0x5
 5351 011d 36       		.byte	0x36
 5352 011e C3000000 		.4byte	0xc3
 5353 0122 02       		.uleb128 0x2
 5354 0123 DD0B0000 		.4byte	.LASF26
 5355 0127 05       		.byte	0x5
 5356 0128 64       		.byte	0x64
 5357 0129 C3000000 		.4byte	0xc3
 5358 012d 05       		.uleb128 0x5
 5359 012e 44010000 		.4byte	0x144
 5360 0132 3D010000 		.4byte	0x13d
 5361 0136 06       		.uleb128 0x6
 5362 0137 3D010000 		.4byte	0x13d
ARM GAS  C:\Users\Rajesh\AppData\Local\Temp\ccMJoliC.s 			page 136


 5363 013b 1F       		.byte	0x1f
 5364 013c 00       		.byte	0
 5365 013d 03       		.uleb128 0x3
 5366 013e 04       		.byte	0x4
 5367 013f 07       		.byte	0x7
 5368 0140 73130000 		.4byte	.LASF27
 5369 0144 03       		.uleb128 0x3
 5370 0145 01       		.byte	0x1
 5371 0146 08       		.byte	0x8
 5372 0147 9C0A0000 		.4byte	.LASF28
 5373 014b 02       		.uleb128 0x2
 5374 014c CD120000 		.4byte	.LASF29
 5375 0150 06       		.byte	0x6
 5376 0151 83       		.byte	0x83
 5377 0152 B8000000 		.4byte	0xb8
 5378 0156 02       		.uleb128 0x2
 5379 0157 A00C0000 		.4byte	.LASF30
 5380 015b 06       		.byte	0x6
 5381 015c B5       		.byte	0xb5
 5382 015d C3000000 		.4byte	0xc3
 5383 0161 02       		.uleb128 0x2
 5384 0162 320C0000 		.4byte	.LASF31
 5385 0166 06       		.byte	0x6
 5386 0167 C7       		.byte	0xc7
 5387 0168 C3000000 		.4byte	0xc3
 5388 016c 02       		.uleb128 0x2
 5389 016d 44020000 		.4byte	.LASF32
 5390 0171 06       		.byte	0x6
 5391 0172 DA       		.byte	0xda
 5392 0173 C3000000 		.4byte	0xc3
 5393 0177 07       		.uleb128 0x7
 5394 0178 40       		.byte	0x40
 5395 0179 06       		.byte	0x6
 5396 017a EA       		.byte	0xea
 5397 017b 13020000 		.4byte	0x213
 5398 017f 08       		.uleb128 0x8
 5399 0180 0B0F0000 		.4byte	.LASF33
 5400 0184 06       		.byte	0x6
 5401 0185 EB       		.byte	0xeb
 5402 0186 56010000 		.4byte	0x156
 5403 018a 00       		.byte	0
 5404 018b 08       		.uleb128 0x8
 5405 018c C9000000 		.4byte	.LASF34
 5406 0190 06       		.byte	0x6
 5407 0191 ED       		.byte	0xed
 5408 0192 61010000 		.4byte	0x161
 5409 0196 01       		.byte	0x1
 5410 0197 08       		.uleb128 0x8
 5411 0198 EF0A0000 		.4byte	.LASF35
 5412 019c 06       		.byte	0x6
 5413 019d F0       		.byte	0xf0
 5414 019e EF000000 		.4byte	0xef
 5415 01a2 04       		.byte	0x4
 5416 01a3 08       		.uleb128 0x8
 5417 01a4 72080000 		.4byte	.LASF36
 5418 01a8 06       		.byte	0x6
 5419 01a9 F2       		.byte	0xf2
ARM GAS  C:\Users\Rajesh\AppData\Local\Temp\ccMJoliC.s 			page 137


 5420 01aa EF000000 		.4byte	0xef
 5421 01ae 08       		.byte	0x8
 5422 01af 08       		.uleb128 0x8
 5423 01b0 16010000 		.4byte	.LASF37
 5424 01b4 06       		.byte	0x6
 5425 01b5 F5       		.byte	0xf5
 5426 01b6 C3000000 		.4byte	0xc3
 5427 01ba 0C       		.byte	0xc
 5428 01bb 08       		.uleb128 0x8
 5429 01bc EC010000 		.4byte	.LASF38
 5430 01c0 06       		.byte	0x6
 5431 01c1 F7       		.byte	0xf7
 5432 01c2 D9000000 		.4byte	0xd9
 5433 01c6 0E       		.byte	0xe
 5434 01c7 08       		.uleb128 0x8
 5435 01c8 330F0000 		.4byte	.LASF39
 5436 01cc 06       		.byte	0x6
 5437 01cd F9       		.byte	0xf9
 5438 01ce 0C010000 		.4byte	0x10c
 5439 01d2 10       		.byte	0x10
 5440 01d3 08       		.uleb128 0x8
 5441 01d4 7C090000 		.4byte	.LASF40
 5442 01d8 06       		.byte	0x6
 5443 01d9 FC       		.byte	0xfc
 5444 01da E4000000 		.4byte	0xe4
 5445 01de 14       		.byte	0x14
 5446 01df 08       		.uleb128 0x8
 5447 01e0 61020000 		.4byte	.LASF41
 5448 01e4 06       		.byte	0x6
 5449 01e5 FF       		.byte	0xff
 5450 01e6 13020000 		.4byte	0x213
 5451 01ea 18       		.byte	0x18
 5452 01eb 09       		.uleb128 0x9
 5453 01ec C5030000 		.4byte	.LASF42
 5454 01f0 06       		.byte	0x6
 5455 01f1 0101     		.2byte	0x101
 5456 01f3 13020000 		.4byte	0x213
 5457 01f7 1E       		.byte	0x1e
 5458 01f8 09       		.uleb128 0x9
 5459 01f9 D2080000 		.4byte	.LASF43
 5460 01fd 06       		.byte	0x6
 5461 01fe 0401     		.2byte	0x104
 5462 0200 23020000 		.4byte	0x223
 5463 0204 24       		.byte	0x24
 5464 0205 09       		.uleb128 0x9
 5465 0206 95030000 		.4byte	.LASF44
 5466 020a 06       		.byte	0x6
 5467 020b 0701     		.2byte	0x107
 5468 020d C3000000 		.4byte	0xc3
 5469 0211 3C       		.byte	0x3c
 5470 0212 00       		.byte	0
 5471 0213 05       		.uleb128 0x5
 5472 0214 C3000000 		.4byte	0xc3
 5473 0218 23020000 		.4byte	0x223
 5474 021c 06       		.uleb128 0x6
 5475 021d 3D010000 		.4byte	0x13d
 5476 0221 05       		.byte	0x5
ARM GAS  C:\Users\Rajesh\AppData\Local\Temp\ccMJoliC.s 			page 138


 5477 0222 00       		.byte	0
 5478 0223 05       		.uleb128 0x5
 5479 0224 0C010000 		.4byte	0x10c
 5480 0228 33020000 		.4byte	0x233
 5481 022c 06       		.uleb128 0x6
 5482 022d 3D010000 		.4byte	0x13d
 5483 0231 05       		.byte	0x5
 5484 0232 00       		.byte	0
 5485 0233 0A       		.uleb128 0xa
 5486 0234 8E050000 		.4byte	.LASF45
 5487 0238 06       		.byte	0x6
 5488 0239 0901     		.2byte	0x109
 5489 023b 77010000 		.4byte	0x177
 5490 023f 0A       		.uleb128 0xa
 5491 0240 640E0000 		.4byte	.LASF46
 5492 0244 06       		.byte	0x6
 5493 0245 1101     		.2byte	0x111
 5494 0247 C3000000 		.4byte	0xc3
 5495 024b 0B       		.uleb128 0xb
 5496 024c 08       		.byte	0x8
 5497 024d 06       		.byte	0x6
 5498 024e 2701     		.2byte	0x127
 5499 0250 6F020000 		.4byte	0x26f
 5500 0254 09       		.uleb128 0x9
 5501 0255 29060000 		.4byte	.LASF47
 5502 0259 06       		.byte	0x6
 5503 025a 2801     		.2byte	0x128
 5504 025c E4000000 		.4byte	0xe4
 5505 0260 00       		.byte	0
 5506 0261 09       		.uleb128 0x9
 5507 0262 DC0D0000 		.4byte	.LASF48
 5508 0266 06       		.byte	0x6
 5509 0267 2A01     		.2byte	0x12a
 5510 0269 E4000000 		.4byte	0xe4
 5511 026d 04       		.byte	0x4
 5512 026e 00       		.byte	0
 5513 026f 0A       		.uleb128 0xa
 5514 0270 8D0E0000 		.4byte	.LASF49
 5515 0274 06       		.byte	0x6
 5516 0275 2C01     		.2byte	0x12c
 5517 0277 4B020000 		.4byte	0x24b
 5518 027b 0B       		.uleb128 0xb
 5519 027c 1C       		.byte	0x1c
 5520 027d 06       		.byte	0x6
 5521 027e 3201     		.2byte	0x132
 5522 0280 07030000 		.4byte	0x307
 5523 0284 09       		.uleb128 0x9
 5524 0285 1B190000 		.4byte	.LASF50
 5525 0289 06       		.byte	0x6
 5526 028a 3301     		.2byte	0x133
 5527 028c EF000000 		.4byte	0xef
 5528 0290 00       		.byte	0
 5529 0291 09       		.uleb128 0x9
 5530 0292 760A0000 		.4byte	.LASF51
 5531 0296 06       		.byte	0x6
 5532 0297 3401     		.2byte	0x134
 5533 0299 EF000000 		.4byte	0xef
ARM GAS  C:\Users\Rajesh\AppData\Local\Temp\ccMJoliC.s 			page 139


 5534 029d 04       		.byte	0x4
 5535 029e 09       		.uleb128 0x9
 5536 029f 8B170000 		.4byte	.LASF52
 5537 02a3 06       		.byte	0x6
 5538 02a4 3901     		.2byte	0x139
 5539 02a6 D9000000 		.4byte	0xd9
 5540 02aa 08       		.byte	0x8
 5541 02ab 09       		.uleb128 0x9
 5542 02ac F7030000 		.4byte	.LASF53
 5543 02b0 06       		.byte	0x6
 5544 02b1 3B01     		.2byte	0x13b
 5545 02b3 D9000000 		.4byte	0xd9
 5546 02b7 0A       		.byte	0xa
 5547 02b8 09       		.uleb128 0x9
 5548 02b9 9B000000 		.4byte	.LASF54
 5549 02bd 06       		.byte	0x6
 5550 02be 4001     		.2byte	0x140
 5551 02c0 0C010000 		.4byte	0x10c
 5552 02c4 0C       		.byte	0xc
 5553 02c5 09       		.uleb128 0x9
 5554 02c6 7F020000 		.4byte	.LASF55
 5555 02ca 06       		.byte	0x6
 5556 02cb 4401     		.2byte	0x144
 5557 02cd 0C010000 		.4byte	0x10c
 5558 02d1 10       		.byte	0x10
 5559 02d2 09       		.uleb128 0x9
 5560 02d3 22080000 		.4byte	.LASF56
 5561 02d7 06       		.byte	0x6
 5562 02d8 4901     		.2byte	0x149
 5563 02da D9000000 		.4byte	0xd9
 5564 02de 14       		.byte	0x14
 5565 02df 09       		.uleb128 0x9
 5566 02e0 2F120000 		.4byte	.LASF57
 5567 02e4 06       		.byte	0x6
 5568 02e5 4D01     		.2byte	0x14d
 5569 02e7 C3000000 		.4byte	0xc3
 5570 02eb 16       		.byte	0x16
 5571 02ec 09       		.uleb128 0x9
 5572 02ed 04180000 		.4byte	.LASF58
 5573 02f1 06       		.byte	0x6
 5574 02f2 5001     		.2byte	0x150
 5575 02f4 C3000000 		.4byte	0xc3
 5576 02f8 17       		.byte	0x17
 5577 02f9 09       		.uleb128 0x9
 5578 02fa 5C0C0000 		.4byte	.LASF59
 5579 02fe 06       		.byte	0x6
 5580 02ff 5301     		.2byte	0x153
 5581 0301 C3000000 		.4byte	0xc3
 5582 0305 18       		.byte	0x18
 5583 0306 00       		.byte	0
 5584 0307 0A       		.uleb128 0xa
 5585 0308 B00F0000 		.4byte	.LASF60
 5586 030c 06       		.byte	0x6
 5587 030d 5701     		.2byte	0x157
 5588 030f 7B020000 		.4byte	0x27b
 5589 0313 0B       		.uleb128 0xb
 5590 0314 68       		.byte	0x68
ARM GAS  C:\Users\Rajesh\AppData\Local\Temp\ccMJoliC.s 			page 140


 5591 0315 06       		.byte	0x6
 5592 0316 6001     		.2byte	0x160
 5593 0318 6B030000 		.4byte	0x36b
 5594 031c 09       		.uleb128 0x9
 5595 031d C4080000 		.4byte	.LASF61
 5596 0321 06       		.byte	0x6
 5597 0322 6201     		.2byte	0x162
 5598 0324 6B030000 		.4byte	0x36b
 5599 0328 00       		.byte	0
 5600 0329 09       		.uleb128 0x9
 5601 032a 3E050000 		.4byte	.LASF62
 5602 032e 06       		.byte	0x6
 5603 032f 6401     		.2byte	0x164
 5604 0331 C3000000 		.4byte	0xc3
 5605 0335 60       		.byte	0x60
 5606 0336 09       		.uleb128 0x9
 5607 0337 680C0000 		.4byte	.LASF63
 5608 033b 06       		.byte	0x6
 5609 033c 6601     		.2byte	0x166
 5610 033e C3000000 		.4byte	0xc3
 5611 0342 61       		.byte	0x61
 5612 0343 09       		.uleb128 0x9
 5613 0344 800B0000 		.4byte	.LASF64
 5614 0348 06       		.byte	0x6
 5615 0349 6701     		.2byte	0x167
 5616 034b C3000000 		.4byte	0xc3
 5617 034f 62       		.byte	0x62
 5618 0350 09       		.uleb128 0x9
 5619 0351 9B140000 		.4byte	.LASF65
 5620 0355 06       		.byte	0x6
 5621 0356 6801     		.2byte	0x168
 5622 0358 C3000000 		.4byte	0xc3
 5623 035c 63       		.byte	0x63
 5624 035d 09       		.uleb128 0x9
 5625 035e 73020000 		.4byte	.LASF66
 5626 0362 06       		.byte	0x6
 5627 0363 6B01     		.2byte	0x16b
 5628 0365 17010000 		.4byte	0x117
 5629 0369 64       		.byte	0x64
 5630 036a 00       		.byte	0
 5631 036b 05       		.uleb128 0x5
 5632 036c EF000000 		.4byte	0xef
 5633 0370 7B030000 		.4byte	0x37b
 5634 0374 06       		.uleb128 0x6
 5635 0375 3D010000 		.4byte	0x13d
 5636 0379 17       		.byte	0x17
 5637 037a 00       		.byte	0
 5638 037b 0A       		.uleb128 0xa
 5639 037c 3C190000 		.4byte	.LASF67
 5640 0380 06       		.byte	0x6
 5641 0381 6E01     		.2byte	0x16e
 5642 0383 13030000 		.4byte	0x313
 5643 0387 0B       		.uleb128 0xb
 5644 0388 0C       		.byte	0xc
 5645 0389 06       		.byte	0x6
 5646 038a 7601     		.2byte	0x176
 5647 038c AB030000 		.4byte	0x3ab
ARM GAS  C:\Users\Rajesh\AppData\Local\Temp\ccMJoliC.s 			page 141


 5648 0390 09       		.uleb128 0x9
 5649 0391 18070000 		.4byte	.LASF68
 5650 0395 06       		.byte	0x6
 5651 0396 7701     		.2byte	0x177
 5652 0398 13020000 		.4byte	0x213
 5653 039c 00       		.byte	0
 5654 039d 09       		.uleb128 0x9
 5655 039e BE120000 		.4byte	.LASF69
 5656 03a2 06       		.byte	0x6
 5657 03a3 7901     		.2byte	0x179
 5658 03a5 13020000 		.4byte	0x213
 5659 03a9 06       		.byte	0x6
 5660 03aa 00       		.byte	0
 5661 03ab 0A       		.uleb128 0xa
 5662 03ac A60B0000 		.4byte	.LASF70
 5663 03b0 06       		.byte	0x6
 5664 03b1 7B01     		.2byte	0x17b
 5665 03b3 87030000 		.4byte	0x387
 5666 03b7 0B       		.uleb128 0xb
 5667 03b8 50       		.byte	0x50
 5668 03b9 06       		.byte	0x6
 5669 03ba 7D01     		.2byte	0x17d
 5670 03bc C5040000 		.4byte	0x4c5
 5671 03c0 09       		.uleb128 0x9
 5672 03c1 AC060000 		.4byte	.LASF71
 5673 03c5 06       		.byte	0x6
 5674 03c6 7E01     		.2byte	0x17e
 5675 03c8 0C010000 		.4byte	0x10c
 5676 03cc 00       		.byte	0
 5677 03cd 09       		.uleb128 0x9
 5678 03ce 3C180000 		.4byte	.LASF72
 5679 03d2 06       		.byte	0x6
 5680 03d3 8001     		.2byte	0x180
 5681 03d5 D9000000 		.4byte	0xd9
 5682 03d9 04       		.byte	0x4
 5683 03da 09       		.uleb128 0x9
 5684 03db FB150000 		.4byte	.LASF73
 5685 03df 06       		.byte	0x6
 5686 03e0 8301     		.2byte	0x183
 5687 03e2 22010000 		.4byte	0x122
 5688 03e6 06       		.byte	0x6
 5689 03e7 09       		.uleb128 0x9
 5690 03e8 06120000 		.4byte	.LASF74
 5691 03ec 06       		.byte	0x6
 5692 03ed 8601     		.2byte	0x186
 5693 03ef EF000000 		.4byte	0xef
 5694 03f3 08       		.byte	0x8
 5695 03f4 09       		.uleb128 0x9
 5696 03f5 E8140000 		.4byte	.LASF75
 5697 03f9 06       		.byte	0x6
 5698 03fa 8801     		.2byte	0x188
 5699 03fc C3000000 		.4byte	0xc3
 5700 0400 0C       		.byte	0xc
 5701 0401 09       		.uleb128 0x9
 5702 0402 A8140000 		.4byte	.LASF76
 5703 0406 06       		.byte	0x6
 5704 0407 8A01     		.2byte	0x18a
ARM GAS  C:\Users\Rajesh\AppData\Local\Temp\ccMJoliC.s 			page 142


 5705 0409 EF000000 		.4byte	0xef
 5706 040d 10       		.byte	0x10
 5707 040e 09       		.uleb128 0x9
 5708 040f 3E010000 		.4byte	.LASF77
 5709 0413 06       		.byte	0x6
 5710 0414 8C01     		.2byte	0x18c
 5711 0416 C3000000 		.4byte	0xc3
 5712 041a 14       		.byte	0x14
 5713 041b 09       		.uleb128 0x9
 5714 041c E0170000 		.4byte	.LASF78
 5715 0420 06       		.byte	0x6
 5716 0421 8F01     		.2byte	0x18f
 5717 0423 D9000000 		.4byte	0xd9
 5718 0427 16       		.byte	0x16
 5719 0428 09       		.uleb128 0x9
 5720 0429 F6090000 		.4byte	.LASF79
 5721 042d 06       		.byte	0x6
 5722 042e 9101     		.2byte	0x191
 5723 0430 D9000000 		.4byte	0xd9
 5724 0434 18       		.byte	0x18
 5725 0435 09       		.uleb128 0x9
 5726 0436 6D140000 		.4byte	.LASF80
 5727 043a 06       		.byte	0x6
 5728 043b 9401     		.2byte	0x194
 5729 043d D9000000 		.4byte	0xd9
 5730 0441 1A       		.byte	0x1a
 5731 0442 09       		.uleb128 0x9
 5732 0443 D80A0000 		.4byte	.LASF81
 5733 0447 06       		.byte	0x6
 5734 0448 9901     		.2byte	0x199
 5735 044a C3000000 		.4byte	0xc3
 5736 044e 1C       		.byte	0x1c
 5737 044f 09       		.uleb128 0x9
 5738 0450 BB080000 		.4byte	.LASF82
 5739 0454 06       		.byte	0x6
 5740 0455 9B01     		.2byte	0x19b
 5741 0457 C3000000 		.4byte	0xc3
 5742 045b 1D       		.byte	0x1d
 5743 045c 09       		.uleb128 0x9
 5744 045d 15040000 		.4byte	.LASF83
 5745 0461 06       		.byte	0x6
 5746 0462 9C01     		.2byte	0x19c
 5747 0464 C3000000 		.4byte	0xc3
 5748 0468 1E       		.byte	0x1e
 5749 0469 09       		.uleb128 0x9
 5750 046a 57020000 		.4byte	.LASF84
 5751 046e 06       		.byte	0x6
 5752 046f 9D01     		.2byte	0x19d
 5753 0471 2D010000 		.4byte	0x12d
 5754 0475 1F       		.byte	0x1f
 5755 0476 09       		.uleb128 0x9
 5756 0477 95080000 		.4byte	.LASF85
 5757 047b 06       		.byte	0x6
 5758 047c 9F01     		.2byte	0x19f
 5759 047e C3000000 		.4byte	0xc3
 5760 0482 3F       		.byte	0x3f
 5761 0483 09       		.uleb128 0x9
ARM GAS  C:\Users\Rajesh\AppData\Local\Temp\ccMJoliC.s 			page 143


 5762 0484 D8100000 		.4byte	.LASF86
 5763 0488 06       		.byte	0x6
 5764 0489 A001     		.2byte	0x1a0
 5765 048b C3000000 		.4byte	0xc3
 5766 048f 40       		.byte	0x40
 5767 0490 09       		.uleb128 0x9
 5768 0491 C90C0000 		.4byte	.LASF87
 5769 0495 06       		.byte	0x6
 5770 0496 A101     		.2byte	0x1a1
 5771 0498 C3000000 		.4byte	0xc3
 5772 049c 41       		.byte	0x41
 5773 049d 09       		.uleb128 0x9
 5774 049e 47110000 		.4byte	.LASF88
 5775 04a2 06       		.byte	0x6
 5776 04a3 A201     		.2byte	0x1a2
 5777 04a5 EF000000 		.4byte	0xef
 5778 04a9 44       		.byte	0x44
 5779 04aa 09       		.uleb128 0x9
 5780 04ab B0000000 		.4byte	.LASF89
 5781 04af 06       		.byte	0x6
 5782 04b0 A301     		.2byte	0x1a3
 5783 04b2 EF000000 		.4byte	0xef
 5784 04b6 48       		.byte	0x48
 5785 04b7 09       		.uleb128 0x9
 5786 04b8 9B190000 		.4byte	.LASF90
 5787 04bc 06       		.byte	0x6
 5788 04bd A401     		.2byte	0x1a4
 5789 04bf 0C010000 		.4byte	0x10c
 5790 04c3 4C       		.byte	0x4c
 5791 04c4 00       		.byte	0
 5792 04c5 0A       		.uleb128 0xa
 5793 04c6 C1040000 		.4byte	.LASF91
 5794 04ca 06       		.byte	0x6
 5795 04cb A701     		.2byte	0x1a7
 5796 04cd B7030000 		.4byte	0x3b7
 5797 04d1 0C       		.uleb128 0xc
 5798 04d2 5C01     		.2byte	0x15c
 5799 04d4 06       		.byte	0x6
 5800 04d5 B101     		.2byte	0x1b1
 5801 04d7 33060000 		.4byte	0x633
 5802 04db 09       		.uleb128 0x9
 5803 04dc 6D0A0000 		.4byte	.LASF92
 5804 04e0 06       		.byte	0x6
 5805 04e1 B201     		.2byte	0x1b2
 5806 04e3 6F020000 		.4byte	0x26f
 5807 04e7 00       		.byte	0
 5808 04e8 09       		.uleb128 0x9
 5809 04e9 3D040000 		.4byte	.LASF93
 5810 04ed 06       		.byte	0x6
 5811 04ee B401     		.2byte	0x1b4
 5812 04f0 E4000000 		.4byte	0xe4
 5813 04f4 08       		.byte	0x8
 5814 04f5 09       		.uleb128 0x9
 5815 04f6 EB050000 		.4byte	.LASF94
 5816 04fa 06       		.byte	0x6
 5817 04fb B601     		.2byte	0x1b6
 5818 04fd E4000000 		.4byte	0xe4
ARM GAS  C:\Users\Rajesh\AppData\Local\Temp\ccMJoliC.s 			page 144


 5819 0501 0C       		.byte	0xc
 5820 0502 09       		.uleb128 0x9
 5821 0503 91130000 		.4byte	.LASF95
 5822 0507 06       		.byte	0x6
 5823 0508 B801     		.2byte	0x1b8
 5824 050a 33020000 		.4byte	0x233
 5825 050e 10       		.byte	0x10
 5826 050f 09       		.uleb128 0x9
 5827 0510 3D0B0000 		.4byte	.LASF96
 5828 0514 06       		.byte	0x6
 5829 0515 BA01     		.2byte	0x1ba
 5830 0517 07030000 		.4byte	0x307
 5831 051b 50       		.byte	0x50
 5832 051c 09       		.uleb128 0x9
 5833 051d 11170000 		.4byte	.LASF97
 5834 0521 06       		.byte	0x6
 5835 0522 BC01     		.2byte	0x1bc
 5836 0524 7B030000 		.4byte	0x37b
 5837 0528 6C       		.byte	0x6c
 5838 0529 09       		.uleb128 0x9
 5839 052a CF130000 		.4byte	.LASF98
 5840 052e 06       		.byte	0x6
 5841 052f BE01     		.2byte	0x1be
 5842 0531 C5040000 		.4byte	0x4c5
 5843 0535 D4       		.byte	0xd4
 5844 0536 0D       		.uleb128 0xd
 5845 0537 69080000 		.4byte	.LASF99
 5846 053b 06       		.byte	0x6
 5847 053c C001     		.2byte	0x1c0
 5848 053e AB030000 		.4byte	0x3ab
 5849 0542 2401     		.2byte	0x124
 5850 0544 0D       		.uleb128 0xd
 5851 0545 37100000 		.4byte	.LASF100
 5852 0549 06       		.byte	0x6
 5853 054a C201     		.2byte	0x1c2
 5854 054c C3000000 		.4byte	0xc3
 5855 0550 3001     		.2byte	0x130
 5856 0552 0D       		.uleb128 0xd
 5857 0553 55170000 		.4byte	.LASF101
 5858 0557 06       		.byte	0x6
 5859 0558 C401     		.2byte	0x1c4
 5860 055a C3000000 		.4byte	0xc3
 5861 055e 3101     		.2byte	0x131
 5862 0560 0D       		.uleb128 0xd
 5863 0561 12190000 		.4byte	.LASF102
 5864 0565 06       		.byte	0x6
 5865 0566 C601     		.2byte	0x1c6
 5866 0568 3F020000 		.4byte	0x23f
 5867 056c 3201     		.2byte	0x132
 5868 056e 0D       		.uleb128 0xd
 5869 056f AB030000 		.4byte	.LASF103
 5870 0573 06       		.byte	0x6
 5871 0574 C801     		.2byte	0x1c8
 5872 0576 6C010000 		.4byte	0x16c
 5873 057a 3301     		.2byte	0x133
 5874 057c 0D       		.uleb128 0xd
 5875 057d E0170000 		.4byte	.LASF78
ARM GAS  C:\Users\Rajesh\AppData\Local\Temp\ccMJoliC.s 			page 145


 5876 0581 06       		.byte	0x6
 5877 0582 CA01     		.2byte	0x1ca
 5878 0584 D9000000 		.4byte	0xd9
 5879 0588 3401     		.2byte	0x134
 5880 058a 0D       		.uleb128 0xd
 5881 058b F6090000 		.4byte	.LASF79
 5882 058f 06       		.byte	0x6
 5883 0590 CC01     		.2byte	0x1cc
 5884 0592 D9000000 		.4byte	0xd9
 5885 0596 3601     		.2byte	0x136
 5886 0598 0D       		.uleb128 0xd
 5887 0599 6D140000 		.4byte	.LASF80
 5888 059d 06       		.byte	0x6
 5889 059e CF01     		.2byte	0x1cf
 5890 05a0 D9000000 		.4byte	0xd9
 5891 05a4 3801     		.2byte	0x138
 5892 05a6 0D       		.uleb128 0xd
 5893 05a7 600A0000 		.4byte	.LASF104
 5894 05ab 06       		.byte	0x6
 5895 05ac D201     		.2byte	0x1d2
 5896 05ae C3000000 		.4byte	0xc3
 5897 05b2 3A01     		.2byte	0x13a
 5898 05b4 0D       		.uleb128 0xd
 5899 05b5 C3050000 		.4byte	.LASF105
 5900 05b9 06       		.byte	0x6
 5901 05ba D401     		.2byte	0x1d4
 5902 05bc D9000000 		.4byte	0xd9
 5903 05c0 3C01     		.2byte	0x13c
 5904 05c2 0D       		.uleb128 0xd
 5905 05c3 BE170000 		.4byte	.LASF106
 5906 05c7 06       		.byte	0x6
 5907 05c8 D601     		.2byte	0x1d6
 5908 05ca 0C010000 		.4byte	0x10c
 5909 05ce 4001     		.2byte	0x140
 5910 05d0 0D       		.uleb128 0xd
 5911 05d1 54110000 		.4byte	.LASF107
 5912 05d5 06       		.byte	0x6
 5913 05d6 D901     		.2byte	0x1d9
 5914 05d8 0C010000 		.4byte	0x10c
 5915 05dc 4401     		.2byte	0x144
 5916 05de 0D       		.uleb128 0xd
 5917 05df DE110000 		.4byte	.LASF108
 5918 05e3 06       		.byte	0x6
 5919 05e4 DB01     		.2byte	0x1db
 5920 05e6 0C010000 		.4byte	0x10c
 5921 05ea 4801     		.2byte	0x148
 5922 05ec 0D       		.uleb128 0xd
 5923 05ed F1130000 		.4byte	.LASF109
 5924 05f1 06       		.byte	0x6
 5925 05f2 DD01     		.2byte	0x1dd
 5926 05f4 33060000 		.4byte	0x633
 5927 05f8 4C01     		.2byte	0x14c
 5928 05fa 0D       		.uleb128 0xd
 5929 05fb 27070000 		.4byte	.LASF110
 5930 05ff 06       		.byte	0x6
 5931 0600 DF01     		.2byte	0x1df
 5932 0602 C3000000 		.4byte	0xc3
ARM GAS  C:\Users\Rajesh\AppData\Local\Temp\ccMJoliC.s 			page 146


 5933 0606 5001     		.2byte	0x150
 5934 0608 0D       		.uleb128 0xd
 5935 0609 DB070000 		.4byte	.LASF111
 5936 060d 06       		.byte	0x6
 5937 060e E101     		.2byte	0x1e1
 5938 0610 D9000000 		.4byte	0xd9
 5939 0614 5201     		.2byte	0x152
 5940 0616 0D       		.uleb128 0xd
 5941 0617 B2090000 		.4byte	.LASF112
 5942 061b 06       		.byte	0x6
 5943 061c E301     		.2byte	0x1e3
 5944 061e D9000000 		.4byte	0xd9
 5945 0622 5401     		.2byte	0x154
 5946 0624 0D       		.uleb128 0xd
 5947 0625 CC140000 		.4byte	.LASF113
 5948 0629 06       		.byte	0x6
 5949 062a E501     		.2byte	0x1e5
 5950 062c 0C010000 		.4byte	0x10c
 5951 0630 5801     		.2byte	0x158
 5952 0632 00       		.byte	0
 5953 0633 0E       		.uleb128 0xe
 5954 0634 04       		.byte	0x4
 5955 0635 C3000000 		.4byte	0xc3
 5956 0639 0A       		.uleb128 0xa
 5957 063a 17150000 		.4byte	.LASF114
 5958 063e 06       		.byte	0x6
 5959 063f E801     		.2byte	0x1e8
 5960 0641 D1040000 		.4byte	0x4d1
 5961 0645 0A       		.uleb128 0xa
 5962 0646 D6160000 		.4byte	.LASF115
 5963 064a 06       		.byte	0x6
 5964 064b FE01     		.2byte	0x1fe
 5965 064d C3000000 		.4byte	0xc3
 5966 0651 0B       		.uleb128 0xb
 5967 0652 05       		.byte	0x5
 5968 0653 06       		.byte	0x6
 5969 0654 0D02     		.2byte	0x20d
 5970 0656 9C060000 		.4byte	0x69c
 5971 065a 09       		.uleb128 0x9
 5972 065b 0B090000 		.4byte	.LASF116
 5973 065f 06       		.byte	0x6
 5974 0660 0E02     		.2byte	0x20e
 5975 0662 C3000000 		.4byte	0xc3
 5976 0666 00       		.byte	0
 5977 0667 09       		.uleb128 0x9
 5978 0668 F1170000 		.4byte	.LASF117
 5979 066c 06       		.byte	0x6
 5980 066d 0F02     		.2byte	0x20f
 5981 066f C3000000 		.4byte	0xc3
 5982 0673 01       		.byte	0x1
 5983 0674 09       		.uleb128 0x9
 5984 0675 C30C0000 		.4byte	.LASF118
 5985 0679 06       		.byte	0x6
 5986 067a 1002     		.2byte	0x210
 5987 067c C3000000 		.4byte	0xc3
 5988 0680 02       		.byte	0x2
 5989 0681 09       		.uleb128 0x9
ARM GAS  C:\Users\Rajesh\AppData\Local\Temp\ccMJoliC.s 			page 147


 5990 0682 950C0000 		.4byte	.LASF119
 5991 0686 06       		.byte	0x6
 5992 0687 1102     		.2byte	0x211
 5993 0689 C3000000 		.4byte	0xc3
 5994 068d 03       		.byte	0x3
 5995 068e 09       		.uleb128 0x9
 5996 068f DD0C0000 		.4byte	.LASF120
 5997 0693 06       		.byte	0x6
 5998 0694 1202     		.2byte	0x212
 5999 0696 C3000000 		.4byte	0xc3
 6000 069a 04       		.byte	0x4
 6001 069b 00       		.byte	0
 6002 069c 0A       		.uleb128 0xa
 6003 069d A90E0000 		.4byte	.LASF121
 6004 06a1 06       		.byte	0x6
 6005 06a2 1302     		.2byte	0x213
 6006 06a4 51060000 		.4byte	0x651
 6007 06a8 0A       		.uleb128 0xa
 6008 06a9 500F0000 		.4byte	.LASF122
 6009 06ad 06       		.byte	0x6
 6010 06ae 1C02     		.2byte	0x21c
 6011 06b0 C3000000 		.4byte	0xc3
 6012 06b4 0E       		.uleb128 0xe
 6013 06b5 04       		.byte	0x4
 6014 06b6 44010000 		.4byte	0x144
 6015 06ba 0F       		.uleb128 0xf
 6016 06bb 6001     		.2byte	0x160
 6017 06bd 07       		.byte	0x7
 6018 06be 3A       		.byte	0x3a
 6019 06bf F7060000 		.4byte	0x6f7
 6020 06c3 08       		.uleb128 0x8
 6021 06c4 5F190000 		.4byte	.LASF123
 6022 06c8 07       		.byte	0x7
 6023 06c9 3B       		.byte	0x3b
 6024 06ca 39060000 		.4byte	0x639
 6025 06ce 00       		.byte	0
 6026 06cf 10       		.uleb128 0x10
 6027 06d0 000F0000 		.4byte	.LASF124
 6028 06d4 07       		.byte	0x7
 6029 06d5 3E       		.byte	0x3e
 6030 06d6 C3000000 		.4byte	0xc3
 6031 06da 5C01     		.2byte	0x15c
 6032 06dc 10       		.uleb128 0x10
 6033 06dd 07130000 		.4byte	.LASF125
 6034 06e1 07       		.byte	0x7
 6035 06e2 3F       		.byte	0x3f
 6036 06e3 C3000000 		.4byte	0xc3
 6037 06e7 5D01     		.2byte	0x15d
 6038 06e9 10       		.uleb128 0x10
 6039 06ea FB080000 		.4byte	.LASF126
 6040 06ee 07       		.byte	0x7
 6041 06ef 40       		.byte	0x40
 6042 06f0 D9000000 		.4byte	0xd9
 6043 06f4 5E01     		.2byte	0x15e
 6044 06f6 00       		.byte	0
 6045 06f7 02       		.uleb128 0x2
 6046 06f8 63030000 		.4byte	.LASF127
ARM GAS  C:\Users\Rajesh\AppData\Local\Temp\ccMJoliC.s 			page 148


 6047 06fc 07       		.byte	0x7
 6048 06fd 42       		.byte	0x42
 6049 06fe BA060000 		.4byte	0x6ba
 6050 0702 02       		.uleb128 0x2
 6051 0703 BD000000 		.4byte	.LASF128
 6052 0707 07       		.byte	0x7
 6053 0708 49       		.byte	0x49
 6054 0709 0D070000 		.4byte	0x70d
 6055 070d 0E       		.uleb128 0xe
 6056 070e 04       		.byte	0x4
 6057 070f F7060000 		.4byte	0x6f7
 6058 0713 11       		.uleb128 0x11
 6059 0714 E8020000 		.4byte	.LASF136
 6060 0718 01       		.byte	0x1
 6061 0719 2C       		.byte	0x2c
 6062 071a 4B010000 		.4byte	0x14b
 6063 071e 00000000 		.4byte	.LFB1
 6064 0722 22000000 		.4byte	.LFE1-.LFB1
 6065 0726 01       		.uleb128 0x1
 6066 0727 9C       		.byte	0x9c
 6067 0728 91070000 		.4byte	0x791
 6068 072c 12       		.uleb128 0x12
 6069 072d 930B0000 		.4byte	.LASF129
 6070 0731 01       		.byte	0x1
 6071 0732 2C       		.byte	0x2c
 6072 0733 33060000 		.4byte	0x633
 6073 0737 00000000 		.4byte	.LLST0
 6074 073b 13       		.uleb128 0x13
 6075 073c D70D0000 		.4byte	.LASF130
 6076 0740 01       		.byte	0x1
 6077 0741 2C       		.byte	0x2c
 6078 0742 EF000000 		.4byte	0xef
 6079 0746 01       		.uleb128 0x1
 6080 0747 51       		.byte	0x51
 6081 0748 14       		.uleb128 0x14
 6082 0749 20020000 		.4byte	.LASF131
 6083 074d 01       		.byte	0x1
 6084 074e 2E       		.byte	0x2e
 6085 074f 4B010000 		.4byte	0x14b
 6086 0753 00       		.byte	0
 6087 0754 15       		.uleb128 0x15
 6088 0755 E2050000 		.4byte	.LASF132
 6089 0759 01       		.byte	0x1
 6090 075a 2F       		.byte	0x2f
 6091 075b C3000000 		.4byte	0xc3
 6092 075f 21000000 		.4byte	.LLST1
 6093 0763 15       		.uleb128 0x15
 6094 0764 CF070000 		.4byte	.LASF133
 6095 0768 01       		.byte	0x1
 6096 0769 30       		.byte	0x30
 6097 076a EF000000 		.4byte	0xef
 6098 076e 34000000 		.4byte	.LLST2
 6099 0772 15       		.uleb128 0x15
 6100 0773 CE0B0000 		.4byte	.LASF134
 6101 0777 01       		.byte	0x1
 6102 0778 31       		.byte	0x31
 6103 0779 EF000000 		.4byte	0xef
ARM GAS  C:\Users\Rajesh\AppData\Local\Temp\ccMJoliC.s 			page 149


 6104 077d 58000000 		.4byte	.LLST3
 6105 0781 15       		.uleb128 0x15
 6106 0782 A9050000 		.4byte	.LASF135
 6107 0786 01       		.byte	0x1
 6108 0787 32       		.byte	0x32
 6109 0788 EF000000 		.4byte	0xef
 6110 078c 7A000000 		.4byte	.LLST4
 6111 0790 00       		.byte	0
 6112 0791 11       		.uleb128 0x11
 6113 0792 7C180000 		.4byte	.LASF137
 6114 0796 01       		.byte	0x1
 6115 0797 3D       		.byte	0x3d
 6116 0798 4B010000 		.4byte	0x14b
 6117 079c 00000000 		.4byte	.LFB2
 6118 07a0 44000000 		.4byte	.LFE2-.LFB2
 6119 07a4 01       		.uleb128 0x1
 6120 07a5 9C       		.byte	0x9c
 6121 07a6 10080000 		.4byte	0x810
 6122 07aa 16       		.uleb128 0x16
 6123 07ab 44657600 		.ascii	"Dev\000"
 6124 07af 01       		.byte	0x1
 6125 07b0 3D       		.byte	0x3d
 6126 07b1 02070000 		.4byte	0x702
 6127 07b5 99000000 		.4byte	.LLST5
 6128 07b9 15       		.uleb128 0x15
 6129 07ba 20020000 		.4byte	.LASF131
 6130 07be 01       		.byte	0x1
 6131 07bf 3F       		.byte	0x3f
 6132 07c0 4B010000 		.4byte	0x14b
 6133 07c4 C5000000 		.4byte	.LLST6
 6134 07c8 17       		.uleb128 0x17
 6135 07c9 31050000 		.4byte	.LASF138
 6136 07cd 01       		.byte	0x1
 6137 07ce 40       		.byte	0x40
 6138 07cf C3000000 		.4byte	0xc3
 6139 07d3 02       		.uleb128 0x2
 6140 07d4 91       		.byte	0x91
 6141 07d5 6F       		.sleb128 -17
 6142 07d6 15       		.uleb128 0x15
 6143 07d7 060C0000 		.4byte	.LASF139
 6144 07db 01       		.byte	0x1
 6145 07dc 41       		.byte	0x41
 6146 07dd EF000000 		.4byte	0xef
 6147 07e1 FA000000 		.4byte	.LLST7
 6148 07e5 18       		.uleb128 0x18
 6149 07e6 18000000 		.4byte	.LVL14
 6150 07ea 7D2E0000 		.4byte	0x2e7d
 6151 07ee FF070000 		.4byte	0x7ff
 6152 07f2 19       		.uleb128 0x19
 6153 07f3 01       		.uleb128 0x1
 6154 07f4 50       		.byte	0x50
 6155 07f5 02       		.uleb128 0x2
 6156 07f6 75       		.byte	0x75
 6157 07f7 00       		.sleb128 0
 6158 07f8 19       		.uleb128 0x19
 6159 07f9 01       		.uleb128 0x1
 6160 07fa 51       		.byte	0x51
ARM GAS  C:\Users\Rajesh\AppData\Local\Temp\ccMJoliC.s 			page 150


 6161 07fb 02       		.uleb128 0x2
 6162 07fc 7D       		.byte	0x7d
 6163 07fd 07       		.sleb128 7
 6164 07fe 00       		.byte	0
 6165 07ff 1A       		.uleb128 0x1a
 6166 0800 34000000 		.4byte	.LVL17
 6167 0804 892E0000 		.4byte	0x2e89
 6168 0808 19       		.uleb128 0x19
 6169 0809 01       		.uleb128 0x1
 6170 080a 50       		.byte	0x50
 6171 080b 02       		.uleb128 0x2
 6172 080c 75       		.byte	0x75
 6173 080d 00       		.sleb128 0
 6174 080e 00       		.byte	0
 6175 080f 00       		.byte	0
 6176 0810 11       		.uleb128 0x11
 6177 0811 BB110000 		.4byte	.LASF140
 6178 0815 01       		.byte	0x1
 6179 0816 5E       		.byte	0x5e
 6180 0817 C3000000 		.4byte	0xc3
 6181 081b 00000000 		.4byte	.LFB3
 6182 081f 08000000 		.4byte	.LFE3-.LFB3
 6183 0823 01       		.uleb128 0x1
 6184 0824 9C       		.byte	0x9c
 6185 0825 48080000 		.4byte	0x848
 6186 0829 12       		.uleb128 0x12
 6187 082a 41000000 		.4byte	.LASF141
 6188 082e 01       		.byte	0x1
 6189 082f 5E       		.byte	0x5e
 6190 0830 C3000000 		.4byte	0xc3
 6191 0834 19010000 		.4byte	.LLST8
 6192 0838 15       		.uleb128 0x15
 6193 0839 CA0E0000 		.4byte	.LASF142
 6194 083d 01       		.byte	0x1
 6195 083e 65       		.byte	0x65
 6196 083f C3000000 		.4byte	0xc3
 6197 0843 3A010000 		.4byte	.LLST9
 6198 0847 00       		.byte	0
 6199 0848 11       		.uleb128 0x11
 6200 0849 6B150000 		.4byte	.LASF143
 6201 084d 01       		.byte	0x1
 6202 084e 6C       		.byte	0x6c
 6203 084f C3000000 		.4byte	0xc3
 6204 0853 00000000 		.4byte	.LFB4
 6205 0857 08000000 		.4byte	.LFE4-.LFB4
 6206 085b 01       		.uleb128 0x1
 6207 085c 9C       		.byte	0x9c
 6208 085d 80080000 		.4byte	0x880
 6209 0861 12       		.uleb128 0x12
 6210 0862 CA0E0000 		.4byte	.LASF142
 6211 0866 01       		.byte	0x1
 6212 0867 6C       		.byte	0x6c
 6213 0868 C3000000 		.4byte	0xc3
 6214 086c 59010000 		.4byte	.LLST10
 6215 0870 15       		.uleb128 0x15
 6216 0871 41000000 		.4byte	.LASF141
 6217 0875 01       		.byte	0x1
ARM GAS  C:\Users\Rajesh\AppData\Local\Temp\ccMJoliC.s 			page 151


 6218 0876 73       		.byte	0x73
 6219 0877 C3000000 		.4byte	0xc3
 6220 087b 7A010000 		.4byte	.LLST11
 6221 087f 00       		.byte	0
 6222 0880 11       		.uleb128 0x11
 6223 0881 2B0E0000 		.4byte	.LASF144
 6224 0885 01       		.byte	0x1
 6225 0886 7B       		.byte	0x7b
 6226 0887 EF000000 		.4byte	0xef
 6227 088b 00000000 		.4byte	.LFB5
 6228 088f 2A000000 		.4byte	.LFE5-.LFB5
 6229 0893 01       		.uleb128 0x1
 6230 0894 9C       		.byte	0x9c
 6231 0895 C7080000 		.4byte	0x8c7
 6232 0899 16       		.uleb128 0x16
 6233 089a 6E756D00 		.ascii	"num\000"
 6234 089e 01       		.byte	0x1
 6235 089f 7B       		.byte	0x7b
 6236 08a0 EF000000 		.4byte	0xef
 6237 08a4 99010000 		.4byte	.LLST12
 6238 08a8 1B       		.uleb128 0x1b
 6239 08a9 72657300 		.ascii	"res\000"
 6240 08ad 01       		.byte	0x1
 6241 08ae 83       		.byte	0x83
 6242 08af EF000000 		.4byte	0xef
 6243 08b3 B7010000 		.4byte	.LLST13
 6244 08b7 1B       		.uleb128 0x1b
 6245 08b8 62697400 		.ascii	"bit\000"
 6246 08bc 01       		.byte	0x1
 6247 08bd 84       		.byte	0x84
 6248 08be EF000000 		.4byte	0xef
 6249 08c2 E1010000 		.4byte	.LLST14
 6250 08c6 00       		.byte	0
 6251 08c7 11       		.uleb128 0x11
 6252 08c8 64190000 		.4byte	.LASF145
 6253 08cc 01       		.byte	0x1
 6254 08cd 9B       		.byte	0x9b
 6255 08ce EF000000 		.4byte	0xef
 6256 08d2 00000000 		.4byte	.LFB6
 6257 08d6 24000000 		.4byte	.LFE6-.LFB6
 6258 08da 01       		.uleb128 0x1
 6259 08db 9C       		.byte	0x9c
 6260 08dc 27090000 		.4byte	0x927
 6261 08e0 16       		.uleb128 0x16
 6262 08e1 6100     		.ascii	"a\000"
 6263 08e3 01       		.byte	0x1
 6264 08e4 9B       		.byte	0x9b
 6265 08e5 EF000000 		.4byte	0xef
 6266 08e9 02020000 		.4byte	.LLST15
 6267 08ed 16       		.uleb128 0x16
 6268 08ee 6200     		.ascii	"b\000"
 6269 08f0 01       		.byte	0x1
 6270 08f1 9B       		.byte	0x9b
 6271 08f2 EF000000 		.4byte	0xef
 6272 08f6 55020000 		.4byte	.LLST16
 6273 08fa 1B       		.uleb128 0x1b
 6274 08fb 72657300 		.ascii	"res\000"
ARM GAS  C:\Users\Rajesh\AppData\Local\Temp\ccMJoliC.s 			page 152


 6275 08ff 01       		.byte	0x1
 6276 0900 A7       		.byte	0xa7
 6277 0901 EF000000 		.4byte	0xef
 6278 0905 8F020000 		.4byte	.LLST17
 6279 0909 1A       		.uleb128 0x1a
 6280 090a 16000000 		.4byte	.LVL44
 6281 090e 80080000 		.4byte	0x880
 6282 0912 19       		.uleb128 0x19
 6283 0913 01       		.uleb128 0x1
 6284 0914 50       		.byte	0x50
 6285 0915 0F       		.uleb128 0xf
 6286 0916 F3       		.byte	0xf3
 6287 0917 01       		.uleb128 0x1
 6288 0918 50       		.byte	0x50
 6289 0919 F3       		.byte	0xf3
 6290 091a 01       		.uleb128 0x1
 6291 091b 50       		.byte	0x50
 6292 091c 1E       		.byte	0x1e
 6293 091d F3       		.byte	0xf3
 6294 091e 01       		.uleb128 0x1
 6295 091f 51       		.byte	0x51
 6296 0920 F3       		.byte	0xf3
 6297 0921 01       		.uleb128 0x1
 6298 0922 51       		.byte	0x51
 6299 0923 1E       		.byte	0x1e
 6300 0924 22       		.byte	0x22
 6301 0925 00       		.byte	0
 6302 0926 00       		.byte	0
 6303 0927 11       		.uleb128 0x11
 6304 0928 11090000 		.4byte	.LASF146
 6305 092c 01       		.byte	0x1
 6306 092d B2       		.byte	0xb2
 6307 092e 4B010000 		.4byte	0x14b
 6308 0932 00000000 		.4byte	.LFB7
 6309 0936 58000000 		.4byte	.LFE7-.LFB7
 6310 093a 01       		.uleb128 0x1
 6311 093b 9C       		.byte	0x9c
 6312 093c D6090000 		.4byte	0x9d6
 6313 0940 16       		.uleb128 0x16
 6314 0941 44657600 		.ascii	"Dev\000"
 6315 0945 01       		.byte	0x1
 6316 0946 B2       		.byte	0xb2
 6317 0947 02070000 		.4byte	0x702
 6318 094b C5020000 		.4byte	.LLST18
 6319 094f 15       		.uleb128 0x15
 6320 0950 20020000 		.4byte	.LASF131
 6321 0954 01       		.byte	0x1
 6322 0955 B4       		.byte	0xb4
 6323 0956 4B010000 		.4byte	0x14b
 6324 095a F1020000 		.4byte	.LLST19
 6325 095e 17       		.uleb128 0x17
 6326 095f 64000000 		.4byte	.LASF147
 6327 0963 01       		.byte	0x1
 6328 0964 B5       		.byte	0xb5
 6329 0965 C3000000 		.4byte	0xc3
 6330 0969 02       		.uleb128 0x2
 6331 096a 91       		.byte	0x91
ARM GAS  C:\Users\Rajesh\AppData\Local\Temp\ccMJoliC.s 			page 153


 6332 096b 67       		.sleb128 -25
 6333 096c 15       		.uleb128 0x15
 6334 096d 060C0000 		.4byte	.LASF139
 6335 0971 01       		.byte	0x1
 6336 0972 B6       		.byte	0xb6
 6337 0973 EF000000 		.4byte	0xef
 6338 0977 31030000 		.4byte	.LLST20
 6339 097b 18       		.uleb128 0x18
 6340 097c 0E000000 		.4byte	.LVL51
 6341 0980 942E0000 		.4byte	0x2e94
 6342 0984 9A090000 		.4byte	0x99a
 6343 0988 19       		.uleb128 0x19
 6344 0989 01       		.uleb128 0x1
 6345 098a 50       		.byte	0x50
 6346 098b 02       		.uleb128 0x2
 6347 098c 75       		.byte	0x75
 6348 098d 00       		.sleb128 0
 6349 098e 19       		.uleb128 0x19
 6350 098f 01       		.uleb128 0x1
 6351 0990 51       		.byte	0x51
 6352 0991 02       		.uleb128 0x2
 6353 0992 09       		.byte	0x9
 6354 0993 83       		.byte	0x83
 6355 0994 19       		.uleb128 0x19
 6356 0995 01       		.uleb128 0x1
 6357 0996 52       		.byte	0x52
 6358 0997 01       		.uleb128 0x1
 6359 0998 30       		.byte	0x30
 6360 0999 00       		.byte	0
 6361 099a 18       		.uleb128 0x18
 6362 099b 22000000 		.4byte	.LVL54
 6363 099f 9F2E0000 		.4byte	0x2e9f
 6364 09a3 BA090000 		.4byte	0x9ba
 6365 09a7 19       		.uleb128 0x19
 6366 09a8 01       		.uleb128 0x1
 6367 09a9 50       		.byte	0x50
 6368 09aa 02       		.uleb128 0x2
 6369 09ab 75       		.byte	0x75
 6370 09ac 00       		.sleb128 0
 6371 09ad 19       		.uleb128 0x19
 6372 09ae 01       		.uleb128 0x1
 6373 09af 51       		.byte	0x51
 6374 09b0 02       		.uleb128 0x2
 6375 09b1 09       		.byte	0x9
 6376 09b2 83       		.byte	0x83
 6377 09b3 19       		.uleb128 0x19
 6378 09b4 01       		.uleb128 0x1
 6379 09b5 52       		.byte	0x52
 6380 09b6 02       		.uleb128 0x2
 6381 09b7 76       		.byte	0x76
 6382 09b8 00       		.sleb128 0
 6383 09b9 00       		.byte	0
 6384 09ba 1A       		.uleb128 0x1a
 6385 09bb 4A000000 		.4byte	.LVL58
 6386 09bf 942E0000 		.4byte	0x2e94
 6387 09c3 19       		.uleb128 0x19
 6388 09c4 01       		.uleb128 0x1
ARM GAS  C:\Users\Rajesh\AppData\Local\Temp\ccMJoliC.s 			page 154


 6389 09c5 50       		.byte	0x50
 6390 09c6 02       		.uleb128 0x2
 6391 09c7 75       		.byte	0x75
 6392 09c8 00       		.sleb128 0
 6393 09c9 19       		.uleb128 0x19
 6394 09ca 01       		.uleb128 0x1
 6395 09cb 51       		.byte	0x51
 6396 09cc 02       		.uleb128 0x2
 6397 09cd 09       		.byte	0x9
 6398 09ce 83       		.byte	0x83
 6399 09cf 19       		.uleb128 0x19
 6400 09d0 01       		.uleb128 0x1
 6401 09d1 52       		.byte	0x52
 6402 09d2 01       		.uleb128 0x1
 6403 09d3 31       		.byte	0x31
 6404 09d4 00       		.byte	0
 6405 09d5 00       		.byte	0
 6406 09d6 11       		.uleb128 0x11
 6407 09d7 0B100000 		.4byte	.LASF148
 6408 09db 01       		.byte	0x1
 6409 09dc D3       		.byte	0xd3
 6410 09dd 4B010000 		.4byte	0x14b
 6411 09e1 00000000 		.4byte	.LFB8
 6412 09e5 D0050000 		.4byte	.LFE8-.LFB8
 6413 09e9 01       		.uleb128 0x1
 6414 09ea 9C       		.byte	0x9c
 6415 09eb 4B120000 		.4byte	0x124b
 6416 09ef 16       		.uleb128 0x16
 6417 09f0 44657600 		.ascii	"Dev\000"
 6418 09f4 01       		.byte	0x1
 6419 09f5 D3       		.byte	0xd3
 6420 09f6 02070000 		.4byte	0x702
 6421 09fa 44030000 		.4byte	.LLST21
 6422 09fe 12       		.uleb128 0x12
 6423 09ff D7110000 		.4byte	.LASF149
 6424 0a03 01       		.byte	0x1
 6425 0a04 D3       		.byte	0xd3
 6426 0a05 C3000000 		.4byte	0xc3
 6427 0a09 86030000 		.4byte	.LLST22
 6428 0a0d 15       		.uleb128 0x15
 6429 0a0e 20020000 		.4byte	.LASF131
 6430 0a12 01       		.byte	0x1
 6431 0a13 D6       		.byte	0xd6
 6432 0a14 4B010000 		.4byte	0x14b
 6433 0a18 C0030000 		.4byte	.LLST23
 6434 0a1c 15       		.uleb128 0x15
 6435 0a1d 4A140000 		.4byte	.LASF150
 6436 0a21 01       		.byte	0x1
 6437 0a22 D7       		.byte	0xd7
 6438 0a23 C3000000 		.4byte	0xc3
 6439 0a27 F3040000 		.4byte	.LLST24
 6440 0a2b 17       		.uleb128 0x17
 6441 0a2c 9E110000 		.4byte	.LASF151
 6442 0a30 01       		.byte	0x1
 6443 0a31 D8       		.byte	0xd8
 6444 0a32 EF000000 		.4byte	0xef
 6445 0a36 02       		.uleb128 0x2
ARM GAS  C:\Users\Rajesh\AppData\Local\Temp\ccMJoliC.s 			page 155


 6446 0a37 91       		.byte	0x91
 6447 0a38 50       		.sleb128 -48
 6448 0a39 17       		.uleb128 0x17
 6449 0a3a BB080000 		.4byte	.LASF82
 6450 0a3e 01       		.byte	0x1
 6451 0a3f D9       		.byte	0xd9
 6452 0a40 C3000000 		.4byte	0xc3
 6453 0a44 02       		.uleb128 0x2
 6454 0a45 91       		.byte	0x91
 6455 0a46 4F       		.sleb128 -49
 6456 0a47 17       		.uleb128 0x17
 6457 0a48 15040000 		.4byte	.LASF83
 6458 0a4c 01       		.byte	0x1
 6459 0a4d DA       		.byte	0xda
 6460 0a4e C3000000 		.4byte	0xc3
 6461 0a52 02       		.uleb128 0x2
 6462 0a53 91       		.byte	0x91
 6463 0a54 4E       		.sleb128 -50
 6464 0a55 15       		.uleb128 0x15
 6465 0a56 95080000 		.4byte	.LASF85
 6466 0a5a 01       		.byte	0x1
 6467 0a5b DB       		.byte	0xdb
 6468 0a5c C3000000 		.4byte	0xc3
 6469 0a60 06050000 		.4byte	.LLST25
 6470 0a64 15       		.uleb128 0x15
 6471 0a65 D8100000 		.4byte	.LASF86
 6472 0a69 01       		.byte	0x1
 6473 0a6a DC       		.byte	0xdc
 6474 0a6b C3000000 		.4byte	0xc3
 6475 0a6f 53050000 		.4byte	.LLST26
 6476 0a73 17       		.uleb128 0x17
 6477 0a74 47110000 		.4byte	.LASF88
 6478 0a78 01       		.byte	0x1
 6479 0a79 DD       		.byte	0xdd
 6480 0a7a EF000000 		.4byte	0xef
 6481 0a7e 02       		.uleb128 0x2
 6482 0a7f 91       		.byte	0x91
 6483 0a80 48       		.sleb128 -56
 6484 0a81 17       		.uleb128 0x17
 6485 0a82 B0000000 		.4byte	.LASF89
 6486 0a86 01       		.byte	0x1
 6487 0a87 DE       		.byte	0xde
 6488 0a88 EF000000 		.4byte	0xef
 6489 0a8c 02       		.uleb128 0x2
 6490 0a8d 91       		.byte	0x91
 6491 0a8e 44       		.sleb128 -60
 6492 0a8f 15       		.uleb128 0x15
 6493 0a90 A8080000 		.4byte	.LASF152
 6494 0a94 01       		.byte	0x1
 6495 0a95 DF       		.byte	0xdf
 6496 0a96 EF000000 		.4byte	0xef
 6497 0a9a B0050000 		.4byte	.LLST27
 6498 0a9e 15       		.uleb128 0x15
 6499 0a9f 520E0000 		.4byte	.LASF153
 6500 0aa3 01       		.byte	0x1
 6501 0aa4 E0       		.byte	0xe0
 6502 0aa5 CE000000 		.4byte	0xce
ARM GAS  C:\Users\Rajesh\AppData\Local\Temp\ccMJoliC.s 			page 156


 6503 0aa9 DB050000 		.4byte	.LLST28
 6504 0aad 1C       		.uleb128 0x1c
 6505 0aae 51080000 		.4byte	.LASF154
 6506 0ab2 01       		.byte	0x1
 6507 0ab3 E1       		.byte	0xe1
 6508 0ab4 EF000000 		.4byte	0xef
 6509 0ab8 0019     		.2byte	0x1900
 6510 0aba 15       		.uleb128 0x15
 6511 0abb 730F0000 		.4byte	.LASF155
 6512 0abf 01       		.byte	0x1
 6513 0ac0 E2       		.byte	0xe2
 6514 0ac1 EF000000 		.4byte	0xef
 6515 0ac5 1C060000 		.4byte	.LLST29
 6516 0ac9 15       		.uleb128 0x15
 6517 0aca 1E040000 		.4byte	.LASF156
 6518 0ace 01       		.byte	0x1
 6519 0acf E3       		.byte	0xe3
 6520 0ad0 EF000000 		.4byte	0xef
 6521 0ad4 82060000 		.4byte	.LLST30
 6522 0ad8 17       		.uleb128 0x17
 6523 0ad9 57020000 		.4byte	.LASF84
 6524 0add 01       		.byte	0x1
 6525 0ade E4       		.byte	0xe4
 6526 0adf 4B120000 		.4byte	0x124b
 6527 0ae3 03       		.uleb128 0x3
 6528 0ae4 91       		.byte	0x91
 6529 0ae5 B07F     		.sleb128 -80
 6530 0ae7 17       		.uleb128 0x17
 6531 0ae8 980B0000 		.4byte	.LASF157
 6532 0aec 01       		.byte	0x1
 6533 0aed E5       		.byte	0xe5
 6534 0aee B4060000 		.4byte	0x6b4
 6535 0af2 01       		.uleb128 0x1
 6536 0af3 50       		.byte	0x50
 6537 0af4 15       		.uleb128 0x15
 6538 0af5 D80A0000 		.4byte	.LASF81
 6539 0af9 01       		.byte	0x1
 6540 0afa E6       		.byte	0xe6
 6541 0afb C3000000 		.4byte	0xc3
 6542 0aff EB060000 		.4byte	.LLST31
 6543 0b03 15       		.uleb128 0x15
 6544 0b04 D6060000 		.4byte	.LASF158
 6545 0b08 01       		.byte	0x1
 6546 0b09 E7       		.byte	0xe7
 6547 0b0a 0C010000 		.4byte	0x10c
 6548 0b0e 35070000 		.4byte	.LLST32
 6549 0b12 17       		.uleb128 0x17
 6550 0b13 8A0A0000 		.4byte	.LASF159
 6551 0b17 01       		.byte	0x1
 6552 0b18 E8       		.byte	0xe8
 6553 0b19 13020000 		.4byte	0x213
 6554 0b1d 03       		.uleb128 0x3
 6555 0b1e 91       		.byte	0x91
 6556 0b1f A87F     		.sleb128 -88
 6557 0b21 1B       		.uleb128 0x1b
 6558 0b22 6900     		.ascii	"i\000"
 6559 0b24 01       		.byte	0x1
ARM GAS  C:\Users\Rajesh\AppData\Local\Temp\ccMJoliC.s 			page 157


 6560 0b25 E9       		.byte	0xe9
 6561 0b26 AA000000 		.4byte	0xaa
 6562 0b2a 7D070000 		.4byte	.LLST33
 6563 0b2e 18       		.uleb128 0x18
 6564 0b2f 2C000000 		.4byte	.LVL66
 6565 0b33 942E0000 		.4byte	0x2e94
 6566 0b37 4D0B0000 		.4byte	0xb4d
 6567 0b3b 19       		.uleb128 0x19
 6568 0b3c 01       		.uleb128 0x1
 6569 0b3d 50       		.byte	0x50
 6570 0b3e 02       		.uleb128 0x2
 6571 0b3f 74       		.byte	0x74
 6572 0b40 00       		.sleb128 0
 6573 0b41 19       		.uleb128 0x19
 6574 0b42 01       		.uleb128 0x1
 6575 0b43 51       		.byte	0x51
 6576 0b44 02       		.uleb128 0x2
 6577 0b45 09       		.byte	0x9
 6578 0b46 80       		.byte	0x80
 6579 0b47 19       		.uleb128 0x19
 6580 0b48 01       		.uleb128 0x1
 6581 0b49 52       		.byte	0x52
 6582 0b4a 01       		.uleb128 0x1
 6583 0b4b 31       		.byte	0x31
 6584 0b4c 00       		.byte	0
 6585 0b4d 18       		.uleb128 0x18
 6586 0b4e 38000000 		.4byte	.LVL68
 6587 0b52 942E0000 		.4byte	0x2e94
 6588 0b56 6C0B0000 		.4byte	0xb6c
 6589 0b5a 19       		.uleb128 0x19
 6590 0b5b 01       		.uleb128 0x1
 6591 0b5c 50       		.byte	0x50
 6592 0b5d 02       		.uleb128 0x2
 6593 0b5e 74       		.byte	0x74
 6594 0b5f 00       		.sleb128 0
 6595 0b60 19       		.uleb128 0x19
 6596 0b61 01       		.uleb128 0x1
 6597 0b62 51       		.byte	0x51
 6598 0b63 02       		.uleb128 0x2
 6599 0b64 09       		.byte	0x9
 6600 0b65 FF       		.byte	0xff
 6601 0b66 19       		.uleb128 0x19
 6602 0b67 01       		.uleb128 0x1
 6603 0b68 52       		.byte	0x52
 6604 0b69 01       		.uleb128 0x1
 6605 0b6a 31       		.byte	0x31
 6606 0b6b 00       		.byte	0
 6607 0b6c 18       		.uleb128 0x18
 6608 0b6d 46000000 		.4byte	.LVL70
 6609 0b71 942E0000 		.4byte	0x2e94
 6610 0b75 8A0B0000 		.4byte	0xb8a
 6611 0b79 19       		.uleb128 0x19
 6612 0b7a 01       		.uleb128 0x1
 6613 0b7b 50       		.byte	0x50
 6614 0b7c 02       		.uleb128 0x2
 6615 0b7d 74       		.byte	0x74
 6616 0b7e 00       		.sleb128 0
ARM GAS  C:\Users\Rajesh\AppData\Local\Temp\ccMJoliC.s 			page 158


 6617 0b7f 19       		.uleb128 0x19
 6618 0b80 01       		.uleb128 0x1
 6619 0b81 51       		.byte	0x51
 6620 0b82 01       		.uleb128 0x1
 6621 0b83 30       		.byte	0x30
 6622 0b84 19       		.uleb128 0x19
 6623 0b85 01       		.uleb128 0x1
 6624 0b86 52       		.byte	0x52
 6625 0b87 01       		.uleb128 0x1
 6626 0b88 30       		.byte	0x30
 6627 0b89 00       		.byte	0
 6628 0b8a 18       		.uleb128 0x18
 6629 0b8b 54000000 		.4byte	.LVL72
 6630 0b8f 942E0000 		.4byte	0x2e94
 6631 0b93 A90B0000 		.4byte	0xba9
 6632 0b97 19       		.uleb128 0x19
 6633 0b98 01       		.uleb128 0x1
 6634 0b99 50       		.byte	0x50
 6635 0b9a 02       		.uleb128 0x2
 6636 0b9b 74       		.byte	0x74
 6637 0b9c 00       		.sleb128 0
 6638 0b9d 19       		.uleb128 0x19
 6639 0b9e 01       		.uleb128 0x1
 6640 0b9f 51       		.byte	0x51
 6641 0ba0 02       		.uleb128 0x2
 6642 0ba1 09       		.byte	0x9
 6643 0ba2 FF       		.byte	0xff
 6644 0ba3 19       		.uleb128 0x19
 6645 0ba4 01       		.uleb128 0x1
 6646 0ba5 52       		.byte	0x52
 6647 0ba6 01       		.uleb128 0x1
 6648 0ba7 36       		.byte	0x36
 6649 0ba8 00       		.byte	0
 6650 0ba9 18       		.uleb128 0x18
 6651 0baa 6A000000 		.4byte	.LVL74
 6652 0bae 9F2E0000 		.4byte	0x2e9f
 6653 0bb2 C90B0000 		.4byte	0xbc9
 6654 0bb6 19       		.uleb128 0x19
 6655 0bb7 01       		.uleb128 0x1
 6656 0bb8 50       		.byte	0x50
 6657 0bb9 02       		.uleb128 0x2
 6658 0bba 74       		.byte	0x74
 6659 0bbb 00       		.sleb128 0
 6660 0bbc 19       		.uleb128 0x19
 6661 0bbd 01       		.uleb128 0x1
 6662 0bbe 51       		.byte	0x51
 6663 0bbf 02       		.uleb128 0x2
 6664 0bc0 09       		.byte	0x9
 6665 0bc1 83       		.byte	0x83
 6666 0bc2 19       		.uleb128 0x19
 6667 0bc3 01       		.uleb128 0x1
 6668 0bc4 52       		.byte	0x52
 6669 0bc5 02       		.uleb128 0x2
 6670 0bc6 77       		.byte	0x77
 6671 0bc7 00       		.sleb128 0
 6672 0bc8 00       		.byte	0
 6673 0bc9 18       		.uleb128 0x18
ARM GAS  C:\Users\Rajesh\AppData\Local\Temp\ccMJoliC.s 			page 159


 6674 0bca 7E000000 		.4byte	.LVL77
 6675 0bce 942E0000 		.4byte	0x2e94
 6676 0bd2 E30B0000 		.4byte	0xbe3
 6677 0bd6 19       		.uleb128 0x19
 6678 0bd7 01       		.uleb128 0x1
 6679 0bd8 50       		.byte	0x50
 6680 0bd9 02       		.uleb128 0x2
 6681 0bda 74       		.byte	0x74
 6682 0bdb 00       		.sleb128 0
 6683 0bdc 19       		.uleb128 0x19
 6684 0bdd 01       		.uleb128 0x1
 6685 0bde 51       		.byte	0x51
 6686 0bdf 02       		.uleb128 0x2
 6687 0be0 09       		.byte	0x9
 6688 0be1 83       		.byte	0x83
 6689 0be2 00       		.byte	0
 6690 0be3 18       		.uleb128 0x18
 6691 0be4 8C000000 		.4byte	.LVL79
 6692 0be8 942E0000 		.4byte	0x2e94
 6693 0bec 020C0000 		.4byte	0xc02
 6694 0bf0 19       		.uleb128 0x19
 6695 0bf1 01       		.uleb128 0x1
 6696 0bf2 50       		.byte	0x50
 6697 0bf3 02       		.uleb128 0x2
 6698 0bf4 74       		.byte	0x74
 6699 0bf5 00       		.sleb128 0
 6700 0bf6 19       		.uleb128 0x19
 6701 0bf7 01       		.uleb128 0x1
 6702 0bf8 51       		.byte	0x51
 6703 0bf9 02       		.uleb128 0x2
 6704 0bfa 09       		.byte	0x9
 6705 0bfb FF       		.byte	0xff
 6706 0bfc 19       		.uleb128 0x19
 6707 0bfd 01       		.uleb128 0x1
 6708 0bfe 52       		.byte	0x52
 6709 0bff 01       		.uleb128 0x1
 6710 0c00 37       		.byte	0x37
 6711 0c01 00       		.byte	0
 6712 0c02 18       		.uleb128 0x18
 6713 0c03 9A000000 		.4byte	.LVL81
 6714 0c07 942E0000 		.4byte	0x2e94
 6715 0c0b 210C0000 		.4byte	0xc21
 6716 0c0f 19       		.uleb128 0x19
 6717 0c10 01       		.uleb128 0x1
 6718 0c11 50       		.byte	0x50
 6719 0c12 02       		.uleb128 0x2
 6720 0c13 74       		.byte	0x74
 6721 0c14 00       		.sleb128 0
 6722 0c15 19       		.uleb128 0x19
 6723 0c16 01       		.uleb128 0x1
 6724 0c17 51       		.byte	0x51
 6725 0c18 02       		.uleb128 0x2
 6726 0c19 09       		.byte	0x9
 6727 0c1a 81       		.byte	0x81
 6728 0c1b 19       		.uleb128 0x19
 6729 0c1c 01       		.uleb128 0x1
 6730 0c1d 52       		.byte	0x52
ARM GAS  C:\Users\Rajesh\AppData\Local\Temp\ccMJoliC.s 			page 160


 6731 0c1e 01       		.uleb128 0x1
 6732 0c1f 31       		.byte	0x31
 6733 0c20 00       		.byte	0
 6734 0c21 18       		.uleb128 0x18
 6735 0c22 A4000000 		.4byte	.LVL83
 6736 0c26 892E0000 		.4byte	0x2e89
 6737 0c2a 350C0000 		.4byte	0xc35
 6738 0c2e 19       		.uleb128 0x19
 6739 0c2f 01       		.uleb128 0x1
 6740 0c30 50       		.byte	0x50
 6741 0c31 02       		.uleb128 0x2
 6742 0c32 74       		.byte	0x74
 6743 0c33 00       		.sleb128 0
 6744 0c34 00       		.byte	0
 6745 0c35 18       		.uleb128 0x18
 6746 0c36 B2000000 		.4byte	.LVL85
 6747 0c3a 942E0000 		.4byte	0x2e94
 6748 0c3e 540C0000 		.4byte	0xc54
 6749 0c42 19       		.uleb128 0x19
 6750 0c43 01       		.uleb128 0x1
 6751 0c44 50       		.byte	0x50
 6752 0c45 02       		.uleb128 0x2
 6753 0c46 74       		.byte	0x74
 6754 0c47 00       		.sleb128 0
 6755 0c48 19       		.uleb128 0x19
 6756 0c49 01       		.uleb128 0x1
 6757 0c4a 51       		.byte	0x51
 6758 0c4b 02       		.uleb128 0x2
 6759 0c4c 09       		.byte	0x9
 6760 0c4d 80       		.byte	0x80
 6761 0c4e 19       		.uleb128 0x19
 6762 0c4f 01       		.uleb128 0x1
 6763 0c50 52       		.byte	0x52
 6764 0c51 01       		.uleb128 0x1
 6765 0c52 31       		.byte	0x31
 6766 0c53 00       		.byte	0
 6767 0c54 18       		.uleb128 0x18
 6768 0c55 CC000000 		.4byte	.LVL88
 6769 0c59 942E0000 		.4byte	0x2e94
 6770 0c5d 740C0000 		.4byte	0xc74
 6771 0c61 19       		.uleb128 0x19
 6772 0c62 01       		.uleb128 0x1
 6773 0c63 50       		.byte	0x50
 6774 0c64 02       		.uleb128 0x2
 6775 0c65 74       		.byte	0x74
 6776 0c66 00       		.sleb128 0
 6777 0c67 19       		.uleb128 0x19
 6778 0c68 01       		.uleb128 0x1
 6779 0c69 51       		.byte	0x51
 6780 0c6a 02       		.uleb128 0x2
 6781 0c6b 09       		.byte	0x9
 6782 0c6c 94       		.byte	0x94
 6783 0c6d 19       		.uleb128 0x19
 6784 0c6e 01       		.uleb128 0x1
 6785 0c6f 52       		.byte	0x52
 6786 0c70 02       		.uleb128 0x2
 6787 0c71 08       		.byte	0x8
ARM GAS  C:\Users\Rajesh\AppData\Local\Temp\ccMJoliC.s 			page 161


 6788 0c72 6B       		.byte	0x6b
 6789 0c73 00       		.byte	0
 6790 0c74 18       		.uleb128 0x18
 6791 0c75 D8000000 		.4byte	.LVL90
 6792 0c79 27090000 		.4byte	0x927
 6793 0c7d 880C0000 		.4byte	0xc88
 6794 0c81 19       		.uleb128 0x19
 6795 0c82 01       		.uleb128 0x1
 6796 0c83 50       		.byte	0x50
 6797 0c84 02       		.uleb128 0x2
 6798 0c85 74       		.byte	0x74
 6799 0c86 00       		.sleb128 0
 6800 0c87 00       		.byte	0
 6801 0c88 18       		.uleb128 0x18
 6802 0c89 E6000000 		.4byte	.LVL92
 6803 0c8d AA2E0000 		.4byte	0x2eaa
 6804 0c91 A80C0000 		.4byte	0xca8
 6805 0c95 19       		.uleb128 0x19
 6806 0c96 01       		.uleb128 0x1
 6807 0c97 50       		.byte	0x50
 6808 0c98 02       		.uleb128 0x2
 6809 0c99 74       		.byte	0x74
 6810 0c9a 00       		.sleb128 0
 6811 0c9b 19       		.uleb128 0x19
 6812 0c9c 01       		.uleb128 0x1
 6813 0c9d 51       		.byte	0x51
 6814 0c9e 02       		.uleb128 0x2
 6815 0c9f 09       		.byte	0x9
 6816 0ca0 90       		.byte	0x90
 6817 0ca1 19       		.uleb128 0x19
 6818 0ca2 01       		.uleb128 0x1
 6819 0ca3 52       		.byte	0x52
 6820 0ca4 02       		.uleb128 0x2
 6821 0ca5 91       		.byte	0x91
 6822 0ca6 50       		.sleb128 -48
 6823 0ca7 00       		.byte	0
 6824 0ca8 18       		.uleb128 0x18
 6825 0ca9 06010000 		.4byte	.LVL97
 6826 0cad 942E0000 		.4byte	0x2e94
 6827 0cb1 C80C0000 		.4byte	0xcc8
 6828 0cb5 19       		.uleb128 0x19
 6829 0cb6 01       		.uleb128 0x1
 6830 0cb7 50       		.byte	0x50
 6831 0cb8 02       		.uleb128 0x2
 6832 0cb9 74       		.byte	0x74
 6833 0cba 00       		.sleb128 0
 6834 0cbb 19       		.uleb128 0x19
 6835 0cbc 01       		.uleb128 0x1
 6836 0cbd 51       		.byte	0x51
 6837 0cbe 02       		.uleb128 0x2
 6838 0cbf 09       		.byte	0x9
 6839 0cc0 94       		.byte	0x94
 6840 0cc1 19       		.uleb128 0x19
 6841 0cc2 01       		.uleb128 0x1
 6842 0cc3 52       		.byte	0x52
 6843 0cc4 02       		.uleb128 0x2
 6844 0cc5 08       		.byte	0x8
ARM GAS  C:\Users\Rajesh\AppData\Local\Temp\ccMJoliC.s 			page 162


 6845 0cc6 24       		.byte	0x24
 6846 0cc7 00       		.byte	0
 6847 0cc8 18       		.uleb128 0x18
 6848 0cc9 10010000 		.4byte	.LVL99
 6849 0ccd 27090000 		.4byte	0x927
 6850 0cd1 DC0C0000 		.4byte	0xcdc
 6851 0cd5 19       		.uleb128 0x19
 6852 0cd6 01       		.uleb128 0x1
 6853 0cd7 50       		.byte	0x50
 6854 0cd8 02       		.uleb128 0x2
 6855 0cd9 74       		.byte	0x74
 6856 0cda 00       		.sleb128 0
 6857 0cdb 00       		.byte	0
 6858 0cdc 18       		.uleb128 0x18
 6859 0cdd 1E010000 		.4byte	.LVL101
 6860 0ce1 AA2E0000 		.4byte	0x2eaa
 6861 0ce5 FC0C0000 		.4byte	0xcfc
 6862 0ce9 19       		.uleb128 0x19
 6863 0cea 01       		.uleb128 0x1
 6864 0ceb 50       		.byte	0x50
 6865 0cec 02       		.uleb128 0x2
 6866 0ced 74       		.byte	0x74
 6867 0cee 00       		.sleb128 0
 6868 0cef 19       		.uleb128 0x19
 6869 0cf0 01       		.uleb128 0x1
 6870 0cf1 51       		.byte	0x51
 6871 0cf2 02       		.uleb128 0x2
 6872 0cf3 09       		.byte	0x9
 6873 0cf4 90       		.byte	0x90
 6874 0cf5 19       		.uleb128 0x19
 6875 0cf6 01       		.uleb128 0x1
 6876 0cf7 52       		.byte	0x52
 6877 0cf8 02       		.uleb128 0x2
 6878 0cf9 91       		.byte	0x91
 6879 0cfa 50       		.sleb128 -48
 6880 0cfb 00       		.byte	0
 6881 0cfc 18       		.uleb128 0x18
 6882 0cfd 3E010000 		.4byte	.LVL104
 6883 0d01 942E0000 		.4byte	0x2e94
 6884 0d05 1C0D0000 		.4byte	0xd1c
 6885 0d09 19       		.uleb128 0x19
 6886 0d0a 01       		.uleb128 0x1
 6887 0d0b 50       		.byte	0x50
 6888 0d0c 02       		.uleb128 0x2
 6889 0d0d 74       		.byte	0x74
 6890 0d0e 00       		.sleb128 0
 6891 0d0f 19       		.uleb128 0x19
 6892 0d10 01       		.uleb128 0x1
 6893 0d11 51       		.byte	0x51
 6894 0d12 02       		.uleb128 0x2
 6895 0d13 09       		.byte	0x9
 6896 0d14 94       		.byte	0x94
 6897 0d15 19       		.uleb128 0x19
 6898 0d16 01       		.uleb128 0x1
 6899 0d17 52       		.byte	0x52
 6900 0d18 02       		.uleb128 0x2
 6901 0d19 08       		.byte	0x8
ARM GAS  C:\Users\Rajesh\AppData\Local\Temp\ccMJoliC.s 			page 163


 6902 0d1a 25       		.byte	0x25
 6903 0d1b 00       		.byte	0
 6904 0d1c 18       		.uleb128 0x18
 6905 0d1d 48010000 		.4byte	.LVL106
 6906 0d21 27090000 		.4byte	0x927
 6907 0d25 300D0000 		.4byte	0xd30
 6908 0d29 19       		.uleb128 0x19
 6909 0d2a 01       		.uleb128 0x1
 6910 0d2b 50       		.byte	0x50
 6911 0d2c 02       		.uleb128 0x2
 6912 0d2d 74       		.byte	0x74
 6913 0d2e 00       		.sleb128 0
 6914 0d2f 00       		.byte	0
 6915 0d30 18       		.uleb128 0x18
 6916 0d31 56010000 		.4byte	.LVL108
 6917 0d35 AA2E0000 		.4byte	0x2eaa
 6918 0d39 500D0000 		.4byte	0xd50
 6919 0d3d 19       		.uleb128 0x19
 6920 0d3e 01       		.uleb128 0x1
 6921 0d3f 50       		.byte	0x50
 6922 0d40 02       		.uleb128 0x2
 6923 0d41 74       		.byte	0x74
 6924 0d42 00       		.sleb128 0
 6925 0d43 19       		.uleb128 0x19
 6926 0d44 01       		.uleb128 0x1
 6927 0d45 51       		.byte	0x51
 6928 0d46 02       		.uleb128 0x2
 6929 0d47 09       		.byte	0x9
 6930 0d48 90       		.byte	0x90
 6931 0d49 19       		.uleb128 0x19
 6932 0d4a 01       		.uleb128 0x1
 6933 0d4b 52       		.byte	0x52
 6934 0d4c 02       		.uleb128 0x2
 6935 0d4d 91       		.byte	0x91
 6936 0d4e 50       		.sleb128 -48
 6937 0d4f 00       		.byte	0
 6938 0d50 18       		.uleb128 0x18
 6939 0d51 90010000 		.4byte	.LVL113
 6940 0d55 942E0000 		.4byte	0x2e94
 6941 0d59 6F0D0000 		.4byte	0xd6f
 6942 0d5d 19       		.uleb128 0x19
 6943 0d5e 01       		.uleb128 0x1
 6944 0d5f 50       		.byte	0x50
 6945 0d60 02       		.uleb128 0x2
 6946 0d61 74       		.byte	0x74
 6947 0d62 00       		.sleb128 0
 6948 0d63 19       		.uleb128 0x19
 6949 0d64 01       		.uleb128 0x1
 6950 0d65 51       		.byte	0x51
 6951 0d66 02       		.uleb128 0x2
 6952 0d67 09       		.byte	0x9
 6953 0d68 94       		.byte	0x94
 6954 0d69 19       		.uleb128 0x19
 6955 0d6a 01       		.uleb128 0x1
 6956 0d6b 52       		.byte	0x52
 6957 0d6c 01       		.uleb128 0x1
 6958 0d6d 32       		.byte	0x32
ARM GAS  C:\Users\Rajesh\AppData\Local\Temp\ccMJoliC.s 			page 164


 6959 0d6e 00       		.byte	0
 6960 0d6f 18       		.uleb128 0x18
 6961 0d70 9C010000 		.4byte	.LVL115
 6962 0d74 27090000 		.4byte	0x927
 6963 0d78 830D0000 		.4byte	0xd83
 6964 0d7c 19       		.uleb128 0x19
 6965 0d7d 01       		.uleb128 0x1
 6966 0d7e 50       		.byte	0x50
 6967 0d7f 02       		.uleb128 0x2
 6968 0d80 74       		.byte	0x74
 6969 0d81 00       		.sleb128 0
 6970 0d82 00       		.byte	0
 6971 0d83 18       		.uleb128 0x18
 6972 0d84 B0010000 		.4byte	.LVL117
 6973 0d88 9F2E0000 		.4byte	0x2e9f
 6974 0d8c A30D0000 		.4byte	0xda3
 6975 0d90 19       		.uleb128 0x19
 6976 0d91 01       		.uleb128 0x1
 6977 0d92 50       		.byte	0x50
 6978 0d93 02       		.uleb128 0x2
 6979 0d94 74       		.byte	0x74
 6980 0d95 00       		.sleb128 0
 6981 0d96 19       		.uleb128 0x19
 6982 0d97 01       		.uleb128 0x1
 6983 0d98 51       		.byte	0x51
 6984 0d99 02       		.uleb128 0x2
 6985 0d9a 09       		.byte	0x9
 6986 0d9b 90       		.byte	0x90
 6987 0d9c 19       		.uleb128 0x19
 6988 0d9d 01       		.uleb128 0x1
 6989 0d9e 52       		.byte	0x52
 6990 0d9f 02       		.uleb128 0x2
 6991 0da0 91       		.byte	0x91
 6992 0da1 4F       		.sleb128 -49
 6993 0da2 00       		.byte	0
 6994 0da3 18       		.uleb128 0x18
 6995 0da4 BE010000 		.4byte	.LVL119
 6996 0da8 942E0000 		.4byte	0x2e94
 6997 0dac C30D0000 		.4byte	0xdc3
 6998 0db0 19       		.uleb128 0x19
 6999 0db1 01       		.uleb128 0x1
 7000 0db2 50       		.byte	0x50
 7001 0db3 02       		.uleb128 0x2
 7002 0db4 74       		.byte	0x74
 7003 0db5 00       		.sleb128 0
 7004 0db6 19       		.uleb128 0x19
 7005 0db7 01       		.uleb128 0x1
 7006 0db8 51       		.byte	0x51
 7007 0db9 02       		.uleb128 0x2
 7008 0dba 09       		.byte	0x9
 7009 0dbb 94       		.byte	0x94
 7010 0dbc 19       		.uleb128 0x19
 7011 0dbd 01       		.uleb128 0x1
 7012 0dbe 52       		.byte	0x52
 7013 0dbf 02       		.uleb128 0x2
 7014 0dc0 08       		.byte	0x8
 7015 0dc1 7B       		.byte	0x7b
ARM GAS  C:\Users\Rajesh\AppData\Local\Temp\ccMJoliC.s 			page 165


 7016 0dc2 00       		.byte	0
 7017 0dc3 18       		.uleb128 0x18
 7018 0dc4 C8010000 		.4byte	.LVL121
 7019 0dc8 27090000 		.4byte	0x927
 7020 0dcc D70D0000 		.4byte	0xdd7
 7021 0dd0 19       		.uleb128 0x19
 7022 0dd1 01       		.uleb128 0x1
 7023 0dd2 50       		.byte	0x50
 7024 0dd3 02       		.uleb128 0x2
 7025 0dd4 74       		.byte	0x74
 7026 0dd5 00       		.sleb128 0
 7027 0dd6 00       		.byte	0
 7028 0dd7 18       		.uleb128 0x18
 7029 0dd8 DC010000 		.4byte	.LVL123
 7030 0ddc 9F2E0000 		.4byte	0x2e9f
 7031 0de0 F70D0000 		.4byte	0xdf7
 7032 0de4 19       		.uleb128 0x19
 7033 0de5 01       		.uleb128 0x1
 7034 0de6 50       		.byte	0x50
 7035 0de7 02       		.uleb128 0x2
 7036 0de8 74       		.byte	0x74
 7037 0de9 00       		.sleb128 0
 7038 0dea 19       		.uleb128 0x19
 7039 0deb 01       		.uleb128 0x1
 7040 0dec 51       		.byte	0x51
 7041 0ded 02       		.uleb128 0x2
 7042 0dee 09       		.byte	0x9
 7043 0def 90       		.byte	0x90
 7044 0df0 19       		.uleb128 0x19
 7045 0df1 01       		.uleb128 0x1
 7046 0df2 52       		.byte	0x52
 7047 0df3 02       		.uleb128 0x2
 7048 0df4 91       		.byte	0x91
 7049 0df5 4E       		.sleb128 -50
 7050 0df6 00       		.byte	0
 7051 0df7 18       		.uleb128 0x18
 7052 0df8 EA010000 		.4byte	.LVL125
 7053 0dfc 942E0000 		.4byte	0x2e94
 7054 0e00 170E0000 		.4byte	0xe17
 7055 0e04 19       		.uleb128 0x19
 7056 0e05 01       		.uleb128 0x1
 7057 0e06 50       		.byte	0x50
 7058 0e07 02       		.uleb128 0x2
 7059 0e08 74       		.byte	0x74
 7060 0e09 00       		.sleb128 0
 7061 0e0a 19       		.uleb128 0x19
 7062 0e0b 01       		.uleb128 0x1
 7063 0e0c 51       		.byte	0x51
 7064 0e0d 02       		.uleb128 0x2
 7065 0e0e 09       		.byte	0x9
 7066 0e0f 94       		.byte	0x94
 7067 0e10 19       		.uleb128 0x19
 7068 0e11 01       		.uleb128 0x1
 7069 0e12 52       		.byte	0x52
 7070 0e13 02       		.uleb128 0x2
 7071 0e14 08       		.byte	0x8
 7072 0e15 77       		.byte	0x77
ARM GAS  C:\Users\Rajesh\AppData\Local\Temp\ccMJoliC.s 			page 166


 7073 0e16 00       		.byte	0
 7074 0e17 18       		.uleb128 0x18
 7075 0e18 F4010000 		.4byte	.LVL127
 7076 0e1c 27090000 		.4byte	0x927
 7077 0e20 2B0E0000 		.4byte	0xe2b
 7078 0e24 19       		.uleb128 0x19
 7079 0e25 01       		.uleb128 0x1
 7080 0e26 50       		.byte	0x50
 7081 0e27 02       		.uleb128 0x2
 7082 0e28 74       		.byte	0x74
 7083 0e29 00       		.sleb128 0
 7084 0e2a 00       		.byte	0
 7085 0e2b 18       		.uleb128 0x18
 7086 0e2c 02020000 		.4byte	.LVL129
 7087 0e30 AA2E0000 		.4byte	0x2eaa
 7088 0e34 4B0E0000 		.4byte	0xe4b
 7089 0e38 19       		.uleb128 0x19
 7090 0e39 01       		.uleb128 0x1
 7091 0e3a 50       		.byte	0x50
 7092 0e3b 02       		.uleb128 0x2
 7093 0e3c 74       		.byte	0x74
 7094 0e3d 00       		.sleb128 0
 7095 0e3e 19       		.uleb128 0x19
 7096 0e3f 01       		.uleb128 0x1
 7097 0e40 51       		.byte	0x51
 7098 0e41 02       		.uleb128 0x2
 7099 0e42 09       		.byte	0x9
 7100 0e43 90       		.byte	0x90
 7101 0e44 19       		.uleb128 0x19
 7102 0e45 01       		.uleb128 0x1
 7103 0e46 52       		.byte	0x52
 7104 0e47 02       		.uleb128 0x2
 7105 0e48 91       		.byte	0x91
 7106 0e49 50       		.sleb128 -48
 7107 0e4a 00       		.byte	0
 7108 0e4b 18       		.uleb128 0x18
 7109 0e4c 3E020000 		.4byte	.LVL132
 7110 0e50 942E0000 		.4byte	0x2e94
 7111 0e54 6B0E0000 		.4byte	0xe6b
 7112 0e58 19       		.uleb128 0x19
 7113 0e59 01       		.uleb128 0x1
 7114 0e5a 50       		.byte	0x50
 7115 0e5b 02       		.uleb128 0x2
 7116 0e5c 74       		.byte	0x74
 7117 0e5d 00       		.sleb128 0
 7118 0e5e 19       		.uleb128 0x19
 7119 0e5f 01       		.uleb128 0x1
 7120 0e60 51       		.byte	0x51
 7121 0e61 02       		.uleb128 0x2
 7122 0e62 09       		.byte	0x9
 7123 0e63 94       		.byte	0x94
 7124 0e64 19       		.uleb128 0x19
 7125 0e65 01       		.uleb128 0x1
 7126 0e66 52       		.byte	0x52
 7127 0e67 02       		.uleb128 0x2
 7128 0e68 08       		.byte	0x8
 7129 0e69 78       		.byte	0x78
ARM GAS  C:\Users\Rajesh\AppData\Local\Temp\ccMJoliC.s 			page 167


 7130 0e6a 00       		.byte	0
 7131 0e6b 18       		.uleb128 0x18
 7132 0e6c 4C020000 		.4byte	.LVL134
 7133 0e70 27090000 		.4byte	0x927
 7134 0e74 7F0E0000 		.4byte	0xe7f
 7135 0e78 19       		.uleb128 0x19
 7136 0e79 01       		.uleb128 0x1
 7137 0e7a 50       		.byte	0x50
 7138 0e7b 02       		.uleb128 0x2
 7139 0e7c 74       		.byte	0x74
 7140 0e7d 00       		.sleb128 0
 7141 0e7e 00       		.byte	0
 7142 0e7f 18       		.uleb128 0x18
 7143 0e80 5E020000 		.4byte	.LVL136
 7144 0e84 AA2E0000 		.4byte	0x2eaa
 7145 0e88 9F0E0000 		.4byte	0xe9f
 7146 0e8c 19       		.uleb128 0x19
 7147 0e8d 01       		.uleb128 0x1
 7148 0e8e 50       		.byte	0x50
 7149 0e8f 02       		.uleb128 0x2
 7150 0e90 74       		.byte	0x74
 7151 0e91 00       		.sleb128 0
 7152 0e92 19       		.uleb128 0x19
 7153 0e93 01       		.uleb128 0x1
 7154 0e94 51       		.byte	0x51
 7155 0e95 02       		.uleb128 0x2
 7156 0e96 09       		.byte	0x9
 7157 0e97 90       		.byte	0x90
 7158 0e98 19       		.uleb128 0x19
 7159 0e99 01       		.uleb128 0x1
 7160 0e9a 52       		.byte	0x52
 7161 0e9b 02       		.uleb128 0x2
 7162 0e9c 91       		.byte	0x91
 7163 0e9d 50       		.sleb128 -48
 7164 0e9e 00       		.byte	0
 7165 0e9f 18       		.uleb128 0x18
 7166 0ea0 A6020000 		.4byte	.LVL138
 7167 0ea4 942E0000 		.4byte	0x2e94
 7168 0ea8 BF0E0000 		.4byte	0xebf
 7169 0eac 19       		.uleb128 0x19
 7170 0ead 01       		.uleb128 0x1
 7171 0eae 50       		.byte	0x50
 7172 0eaf 02       		.uleb128 0x2
 7173 0eb0 74       		.byte	0x74
 7174 0eb1 00       		.sleb128 0
 7175 0eb2 19       		.uleb128 0x19
 7176 0eb3 01       		.uleb128 0x1
 7177 0eb4 51       		.byte	0x51
 7178 0eb5 02       		.uleb128 0x2
 7179 0eb6 09       		.byte	0x9
 7180 0eb7 94       		.byte	0x94
 7181 0eb8 19       		.uleb128 0x19
 7182 0eb9 01       		.uleb128 0x1
 7183 0eba 52       		.byte	0x52
 7184 0ebb 02       		.uleb128 0x2
 7185 0ebc 08       		.byte	0x8
 7186 0ebd 79       		.byte	0x79
ARM GAS  C:\Users\Rajesh\AppData\Local\Temp\ccMJoliC.s 			page 168


 7187 0ebe 00       		.byte	0
 7188 0ebf 18       		.uleb128 0x18
 7189 0ec0 B4020000 		.4byte	.LVL140
 7190 0ec4 27090000 		.4byte	0x927
 7191 0ec8 D30E0000 		.4byte	0xed3
 7192 0ecc 19       		.uleb128 0x19
 7193 0ecd 01       		.uleb128 0x1
 7194 0ece 50       		.byte	0x50
 7195 0ecf 02       		.uleb128 0x2
 7196 0ed0 74       		.byte	0x74
 7197 0ed1 00       		.sleb128 0
 7198 0ed2 00       		.byte	0
 7199 0ed3 18       		.uleb128 0x18
 7200 0ed4 C6020000 		.4byte	.LVL142
 7201 0ed8 AA2E0000 		.4byte	0x2eaa
 7202 0edc F30E0000 		.4byte	0xef3
 7203 0ee0 19       		.uleb128 0x19
 7204 0ee1 01       		.uleb128 0x1
 7205 0ee2 50       		.byte	0x50
 7206 0ee3 02       		.uleb128 0x2
 7207 0ee4 74       		.byte	0x74
 7208 0ee5 00       		.sleb128 0
 7209 0ee6 19       		.uleb128 0x19
 7210 0ee7 01       		.uleb128 0x1
 7211 0ee8 51       		.byte	0x51
 7212 0ee9 02       		.uleb128 0x2
 7213 0eea 09       		.byte	0x9
 7214 0eeb 90       		.byte	0x90
 7215 0eec 19       		.uleb128 0x19
 7216 0eed 01       		.uleb128 0x1
 7217 0eee 52       		.byte	0x52
 7218 0eef 02       		.uleb128 0x2
 7219 0ef0 91       		.byte	0x91
 7220 0ef1 50       		.sleb128 -48
 7221 0ef2 00       		.byte	0
 7222 0ef3 18       		.uleb128 0x18
 7223 0ef4 08030000 		.4byte	.LVL144
 7224 0ef8 942E0000 		.4byte	0x2e94
 7225 0efc 130F0000 		.4byte	0xf13
 7226 0f00 19       		.uleb128 0x19
 7227 0f01 01       		.uleb128 0x1
 7228 0f02 50       		.byte	0x50
 7229 0f03 02       		.uleb128 0x2
 7230 0f04 74       		.byte	0x74
 7231 0f05 00       		.sleb128 0
 7232 0f06 19       		.uleb128 0x19
 7233 0f07 01       		.uleb128 0x1
 7234 0f08 51       		.byte	0x51
 7235 0f09 02       		.uleb128 0x2
 7236 0f0a 09       		.byte	0x9
 7237 0f0b 94       		.byte	0x94
 7238 0f0c 19       		.uleb128 0x19
 7239 0f0d 01       		.uleb128 0x1
 7240 0f0e 52       		.byte	0x52
 7241 0f0f 02       		.uleb128 0x2
 7242 0f10 08       		.byte	0x8
 7243 0f11 7A       		.byte	0x7a
ARM GAS  C:\Users\Rajesh\AppData\Local\Temp\ccMJoliC.s 			page 169


 7244 0f12 00       		.byte	0
 7245 0f13 18       		.uleb128 0x18
 7246 0f14 16030000 		.4byte	.LVL146
 7247 0f18 27090000 		.4byte	0x927
 7248 0f1c 270F0000 		.4byte	0xf27
 7249 0f20 19       		.uleb128 0x19
 7250 0f21 01       		.uleb128 0x1
 7251 0f22 50       		.byte	0x50
 7252 0f23 02       		.uleb128 0x2
 7253 0f24 74       		.byte	0x74
 7254 0f25 00       		.sleb128 0
 7255 0f26 00       		.byte	0
 7256 0f27 18       		.uleb128 0x18
 7257 0f28 28030000 		.4byte	.LVL148
 7258 0f2c AA2E0000 		.4byte	0x2eaa
 7259 0f30 470F0000 		.4byte	0xf47
 7260 0f34 19       		.uleb128 0x19
 7261 0f35 01       		.uleb128 0x1
 7262 0f36 50       		.byte	0x50
 7263 0f37 02       		.uleb128 0x2
 7264 0f38 74       		.byte	0x74
 7265 0f39 00       		.sleb128 0
 7266 0f3a 19       		.uleb128 0x19
 7267 0f3b 01       		.uleb128 0x1
 7268 0f3c 51       		.byte	0x51
 7269 0f3d 02       		.uleb128 0x2
 7270 0f3e 09       		.byte	0x9
 7271 0f3f 90       		.byte	0x90
 7272 0f40 19       		.uleb128 0x19
 7273 0f41 01       		.uleb128 0x1
 7274 0f42 52       		.byte	0x52
 7275 0f43 02       		.uleb128 0x2
 7276 0f44 91       		.byte	0x91
 7277 0f45 50       		.sleb128 -48
 7278 0f46 00       		.byte	0
 7279 0f47 18       		.uleb128 0x18
 7280 0f48 74030000 		.4byte	.LVL150
 7281 0f4c 942E0000 		.4byte	0x2e94
 7282 0f50 670F0000 		.4byte	0xf67
 7283 0f54 19       		.uleb128 0x19
 7284 0f55 01       		.uleb128 0x1
 7285 0f56 50       		.byte	0x50
 7286 0f57 02       		.uleb128 0x2
 7287 0f58 74       		.byte	0x74
 7288 0f59 00       		.sleb128 0
 7289 0f5a 19       		.uleb128 0x19
 7290 0f5b 01       		.uleb128 0x1
 7291 0f5c 51       		.byte	0x51
 7292 0f5d 02       		.uleb128 0x2
 7293 0f5e 09       		.byte	0x9
 7294 0f5f 94       		.byte	0x94
 7295 0f60 19       		.uleb128 0x19
 7296 0f61 01       		.uleb128 0x1
 7297 0f62 52       		.byte	0x52
 7298 0f63 02       		.uleb128 0x2
 7299 0f64 08       		.byte	0x8
 7300 0f65 7B       		.byte	0x7b
ARM GAS  C:\Users\Rajesh\AppData\Local\Temp\ccMJoliC.s 			page 170


 7301 0f66 00       		.byte	0
 7302 0f67 18       		.uleb128 0x18
 7303 0f68 80030000 		.4byte	.LVL152
 7304 0f6c 27090000 		.4byte	0x927
 7305 0f70 7B0F0000 		.4byte	0xf7b
 7306 0f74 19       		.uleb128 0x19
 7307 0f75 01       		.uleb128 0x1
 7308 0f76 50       		.byte	0x50
 7309 0f77 02       		.uleb128 0x2
 7310 0f78 74       		.byte	0x74
 7311 0f79 00       		.sleb128 0
 7312 0f7a 00       		.byte	0
 7313 0f7b 18       		.uleb128 0x18
 7314 0f7c 8E030000 		.4byte	.LVL154
 7315 0f80 AA2E0000 		.4byte	0x2eaa
 7316 0f84 9B0F0000 		.4byte	0xf9b
 7317 0f88 19       		.uleb128 0x19
 7318 0f89 01       		.uleb128 0x1
 7319 0f8a 50       		.byte	0x50
 7320 0f8b 02       		.uleb128 0x2
 7321 0f8c 74       		.byte	0x74
 7322 0f8d 00       		.sleb128 0
 7323 0f8e 19       		.uleb128 0x19
 7324 0f8f 01       		.uleb128 0x1
 7325 0f90 51       		.byte	0x51
 7326 0f91 02       		.uleb128 0x2
 7327 0f92 09       		.byte	0x9
 7328 0f93 90       		.byte	0x90
 7329 0f94 19       		.uleb128 0x19
 7330 0f95 01       		.uleb128 0x1
 7331 0f96 52       		.byte	0x52
 7332 0f97 02       		.uleb128 0x2
 7333 0f98 91       		.byte	0x91
 7334 0f99 48       		.sleb128 -56
 7335 0f9a 00       		.byte	0
 7336 0f9b 18       		.uleb128 0x18
 7337 0f9c 9C030000 		.4byte	.LVL156
 7338 0fa0 942E0000 		.4byte	0x2e94
 7339 0fa4 BB0F0000 		.4byte	0xfbb
 7340 0fa8 19       		.uleb128 0x19
 7341 0fa9 01       		.uleb128 0x1
 7342 0faa 50       		.byte	0x50
 7343 0fab 02       		.uleb128 0x2
 7344 0fac 74       		.byte	0x74
 7345 0fad 00       		.sleb128 0
 7346 0fae 19       		.uleb128 0x19
 7347 0faf 01       		.uleb128 0x1
 7348 0fb0 51       		.byte	0x51
 7349 0fb1 02       		.uleb128 0x2
 7350 0fb2 09       		.byte	0x9
 7351 0fb3 94       		.byte	0x94
 7352 0fb4 19       		.uleb128 0x19
 7353 0fb5 01       		.uleb128 0x1
 7354 0fb6 52       		.byte	0x52
 7355 0fb7 02       		.uleb128 0x2
 7356 0fb8 08       		.byte	0x8
 7357 0fb9 7C       		.byte	0x7c
ARM GAS  C:\Users\Rajesh\AppData\Local\Temp\ccMJoliC.s 			page 171


 7358 0fba 00       		.byte	0
 7359 0fbb 18       		.uleb128 0x18
 7360 0fbc A6030000 		.4byte	.LVL158
 7361 0fc0 27090000 		.4byte	0x927
 7362 0fc4 CF0F0000 		.4byte	0xfcf
 7363 0fc8 19       		.uleb128 0x19
 7364 0fc9 01       		.uleb128 0x1
 7365 0fca 50       		.byte	0x50
 7366 0fcb 02       		.uleb128 0x2
 7367 0fcc 74       		.byte	0x74
 7368 0fcd 00       		.sleb128 0
 7369 0fce 00       		.byte	0
 7370 0fcf 18       		.uleb128 0x18
 7371 0fd0 B4030000 		.4byte	.LVL160
 7372 0fd4 AA2E0000 		.4byte	0x2eaa
 7373 0fd8 EF0F0000 		.4byte	0xfef
 7374 0fdc 19       		.uleb128 0x19
 7375 0fdd 01       		.uleb128 0x1
 7376 0fde 50       		.byte	0x50
 7377 0fdf 02       		.uleb128 0x2
 7378 0fe0 74       		.byte	0x74
 7379 0fe1 00       		.sleb128 0
 7380 0fe2 19       		.uleb128 0x19
 7381 0fe3 01       		.uleb128 0x1
 7382 0fe4 51       		.byte	0x51
 7383 0fe5 02       		.uleb128 0x2
 7384 0fe6 09       		.byte	0x9
 7385 0fe7 90       		.byte	0x90
 7386 0fe8 19       		.uleb128 0x19
 7387 0fe9 01       		.uleb128 0x1
 7388 0fea 52       		.byte	0x52
 7389 0feb 02       		.uleb128 0x2
 7390 0fec 91       		.byte	0x91
 7391 0fed 44       		.sleb128 -60
 7392 0fee 00       		.byte	0
 7393 0fef 18       		.uleb128 0x18
 7394 0ff0 C2030000 		.4byte	.LVL162
 7395 0ff4 942E0000 		.4byte	0x2e94
 7396 0ff8 0F100000 		.4byte	0x100f
 7397 0ffc 19       		.uleb128 0x19
 7398 0ffd 01       		.uleb128 0x1
 7399 0ffe 50       		.byte	0x50
 7400 0fff 02       		.uleb128 0x2
 7401 1000 74       		.byte	0x74
 7402 1001 00       		.sleb128 0
 7403 1002 19       		.uleb128 0x19
 7404 1003 01       		.uleb128 0x1
 7405 1004 51       		.byte	0x51
 7406 1005 02       		.uleb128 0x2
 7407 1006 09       		.byte	0x9
 7408 1007 94       		.byte	0x94
 7409 1008 19       		.uleb128 0x19
 7410 1009 01       		.uleb128 0x1
 7411 100a 52       		.byte	0x52
 7412 100b 02       		.uleb128 0x2
 7413 100c 08       		.byte	0x8
 7414 100d 73       		.byte	0x73
ARM GAS  C:\Users\Rajesh\AppData\Local\Temp\ccMJoliC.s 			page 172


 7415 100e 00       		.byte	0
 7416 100f 18       		.uleb128 0x18
 7417 1010 CC030000 		.4byte	.LVL164
 7418 1014 27090000 		.4byte	0x927
 7419 1018 23100000 		.4byte	0x1023
 7420 101c 19       		.uleb128 0x19
 7421 101d 01       		.uleb128 0x1
 7422 101e 50       		.byte	0x50
 7423 101f 02       		.uleb128 0x2
 7424 1020 74       		.byte	0x74
 7425 1021 00       		.sleb128 0
 7426 1022 00       		.byte	0
 7427 1023 18       		.uleb128 0x18
 7428 1024 DA030000 		.4byte	.LVL166
 7429 1028 AA2E0000 		.4byte	0x2eaa
 7430 102c 43100000 		.4byte	0x1043
 7431 1030 19       		.uleb128 0x19
 7432 1031 01       		.uleb128 0x1
 7433 1032 50       		.byte	0x50
 7434 1033 02       		.uleb128 0x2
 7435 1034 74       		.byte	0x74
 7436 1035 00       		.sleb128 0
 7437 1036 19       		.uleb128 0x19
 7438 1037 01       		.uleb128 0x1
 7439 1038 51       		.byte	0x51
 7440 1039 02       		.uleb128 0x2
 7441 103a 09       		.byte	0x9
 7442 103b 90       		.byte	0x90
 7443 103c 19       		.uleb128 0x19
 7444 103d 01       		.uleb128 0x1
 7445 103e 52       		.byte	0x52
 7446 103f 02       		.uleb128 0x2
 7447 1040 91       		.byte	0x91
 7448 1041 50       		.sleb128 -48
 7449 1042 00       		.byte	0
 7450 1043 18       		.uleb128 0x18
 7451 1044 EE030000 		.4byte	.LVL170
 7452 1048 942E0000 		.4byte	0x2e94
 7453 104c 63100000 		.4byte	0x1063
 7454 1050 19       		.uleb128 0x19
 7455 1051 01       		.uleb128 0x1
 7456 1052 50       		.byte	0x50
 7457 1053 02       		.uleb128 0x2
 7458 1054 74       		.byte	0x74
 7459 1055 00       		.sleb128 0
 7460 1056 19       		.uleb128 0x19
 7461 1057 01       		.uleb128 0x1
 7462 1058 51       		.byte	0x51
 7463 1059 02       		.uleb128 0x2
 7464 105a 09       		.byte	0x9
 7465 105b 94       		.byte	0x94
 7466 105c 19       		.uleb128 0x19
 7467 105d 01       		.uleb128 0x1
 7468 105e 52       		.byte	0x52
 7469 105f 02       		.uleb128 0x2
 7470 1060 08       		.byte	0x8
 7471 1061 74       		.byte	0x74
ARM GAS  C:\Users\Rajesh\AppData\Local\Temp\ccMJoliC.s 			page 173


 7472 1062 00       		.byte	0
 7473 1063 18       		.uleb128 0x18
 7474 1064 F8030000 		.4byte	.LVL172
 7475 1068 27090000 		.4byte	0x927
 7476 106c 77100000 		.4byte	0x1077
 7477 1070 19       		.uleb128 0x19
 7478 1071 01       		.uleb128 0x1
 7479 1072 50       		.byte	0x50
 7480 1073 02       		.uleb128 0x2
 7481 1074 74       		.byte	0x74
 7482 1075 00       		.sleb128 0
 7483 1076 00       		.byte	0
 7484 1077 18       		.uleb128 0x18
 7485 1078 06040000 		.4byte	.LVL174
 7486 107c AA2E0000 		.4byte	0x2eaa
 7487 1080 97100000 		.4byte	0x1097
 7488 1084 19       		.uleb128 0x19
 7489 1085 01       		.uleb128 0x1
 7490 1086 50       		.byte	0x50
 7491 1087 02       		.uleb128 0x2
 7492 1088 74       		.byte	0x74
 7493 1089 00       		.sleb128 0
 7494 108a 19       		.uleb128 0x19
 7495 108b 01       		.uleb128 0x1
 7496 108c 51       		.byte	0x51
 7497 108d 02       		.uleb128 0x2
 7498 108e 09       		.byte	0x9
 7499 108f 90       		.byte	0x90
 7500 1090 19       		.uleb128 0x19
 7501 1091 01       		.uleb128 0x1
 7502 1092 52       		.byte	0x52
 7503 1093 02       		.uleb128 0x2
 7504 1094 91       		.byte	0x91
 7505 1095 50       		.sleb128 -48
 7506 1096 00       		.byte	0
 7507 1097 18       		.uleb128 0x18
 7508 1098 1C040000 		.4byte	.LVL179
 7509 109c 942E0000 		.4byte	0x2e94
 7510 10a0 B7100000 		.4byte	0x10b7
 7511 10a4 19       		.uleb128 0x19
 7512 10a5 01       		.uleb128 0x1
 7513 10a6 50       		.byte	0x50
 7514 10a7 02       		.uleb128 0x2
 7515 10a8 74       		.byte	0x74
 7516 10a9 00       		.sleb128 0
 7517 10aa 19       		.uleb128 0x19
 7518 10ab 01       		.uleb128 0x1
 7519 10ac 51       		.byte	0x51
 7520 10ad 02       		.uleb128 0x2
 7521 10ae 09       		.byte	0x9
 7522 10af 94       		.byte	0x94
 7523 10b0 19       		.uleb128 0x19
 7524 10b1 01       		.uleb128 0x1
 7525 10b2 52       		.byte	0x52
 7526 10b3 02       		.uleb128 0x2
 7527 10b4 08       		.byte	0x8
 7528 10b5 75       		.byte	0x75
ARM GAS  C:\Users\Rajesh\AppData\Local\Temp\ccMJoliC.s 			page 174


 7529 10b6 00       		.byte	0
 7530 10b7 18       		.uleb128 0x18
 7531 10b8 26040000 		.4byte	.LVL181
 7532 10bc 27090000 		.4byte	0x927
 7533 10c0 CB100000 		.4byte	0x10cb
 7534 10c4 19       		.uleb128 0x19
 7535 10c5 01       		.uleb128 0x1
 7536 10c6 50       		.byte	0x50
 7537 10c7 02       		.uleb128 0x2
 7538 10c8 74       		.byte	0x74
 7539 10c9 00       		.sleb128 0
 7540 10ca 00       		.byte	0
 7541 10cb 18       		.uleb128 0x18
 7542 10cc 34040000 		.4byte	.LVL183
 7543 10d0 AA2E0000 		.4byte	0x2eaa
 7544 10d4 EB100000 		.4byte	0x10eb
 7545 10d8 19       		.uleb128 0x19
 7546 10d9 01       		.uleb128 0x1
 7547 10da 50       		.byte	0x50
 7548 10db 02       		.uleb128 0x2
 7549 10dc 74       		.byte	0x74
 7550 10dd 00       		.sleb128 0
 7551 10de 19       		.uleb128 0x19
 7552 10df 01       		.uleb128 0x1
 7553 10e0 51       		.byte	0x51
 7554 10e1 02       		.uleb128 0x2
 7555 10e2 09       		.byte	0x9
 7556 10e3 90       		.byte	0x90
 7557 10e4 19       		.uleb128 0x19
 7558 10e5 01       		.uleb128 0x1
 7559 10e6 52       		.byte	0x52
 7560 10e7 02       		.uleb128 0x2
 7561 10e8 91       		.byte	0x91
 7562 10e9 50       		.sleb128 -48
 7563 10ea 00       		.byte	0
 7564 10eb 18       		.uleb128 0x18
 7565 10ec 48040000 		.4byte	.LVL188
 7566 10f0 942E0000 		.4byte	0x2e94
 7567 10f4 0B110000 		.4byte	0x110b
 7568 10f8 19       		.uleb128 0x19
 7569 10f9 01       		.uleb128 0x1
 7570 10fa 50       		.byte	0x50
 7571 10fb 02       		.uleb128 0x2
 7572 10fc 74       		.byte	0x74
 7573 10fd 00       		.sleb128 0
 7574 10fe 19       		.uleb128 0x19
 7575 10ff 01       		.uleb128 0x1
 7576 1100 51       		.byte	0x51
 7577 1101 02       		.uleb128 0x2
 7578 1102 09       		.byte	0x9
 7579 1103 94       		.byte	0x94
 7580 1104 19       		.uleb128 0x19
 7581 1105 01       		.uleb128 0x1
 7582 1106 52       		.byte	0x52
 7583 1107 02       		.uleb128 0x2
 7584 1108 08       		.byte	0x8
 7585 1109 76       		.byte	0x76
ARM GAS  C:\Users\Rajesh\AppData\Local\Temp\ccMJoliC.s 			page 175


 7586 110a 00       		.byte	0
 7587 110b 18       		.uleb128 0x18
 7588 110c 52040000 		.4byte	.LVL191
 7589 1110 27090000 		.4byte	0x927
 7590 1114 1F110000 		.4byte	0x111f
 7591 1118 19       		.uleb128 0x19
 7592 1119 01       		.uleb128 0x1
 7593 111a 50       		.byte	0x50
 7594 111b 02       		.uleb128 0x2
 7595 111c 74       		.byte	0x74
 7596 111d 00       		.sleb128 0
 7597 111e 00       		.byte	0
 7598 111f 18       		.uleb128 0x18
 7599 1120 60040000 		.4byte	.LVL194
 7600 1124 AA2E0000 		.4byte	0x2eaa
 7601 1128 3F110000 		.4byte	0x113f
 7602 112c 19       		.uleb128 0x19
 7603 112d 01       		.uleb128 0x1
 7604 112e 50       		.byte	0x50
 7605 112f 02       		.uleb128 0x2
 7606 1130 74       		.byte	0x74
 7607 1131 00       		.sleb128 0
 7608 1132 19       		.uleb128 0x19
 7609 1133 01       		.uleb128 0x1
 7610 1134 51       		.byte	0x51
 7611 1135 02       		.uleb128 0x2
 7612 1136 09       		.byte	0x9
 7613 1137 90       		.byte	0x90
 7614 1138 19       		.uleb128 0x19
 7615 1139 01       		.uleb128 0x1
 7616 113a 52       		.byte	0x52
 7617 113b 02       		.uleb128 0x2
 7618 113c 91       		.byte	0x91
 7619 113d 50       		.sleb128 -48
 7620 113e 00       		.byte	0
 7621 113f 18       		.uleb128 0x18
 7622 1140 86040000 		.4byte	.LVL200
 7623 1144 942E0000 		.4byte	0x2e94
 7624 1148 5E110000 		.4byte	0x115e
 7625 114c 19       		.uleb128 0x19
 7626 114d 01       		.uleb128 0x1
 7627 114e 50       		.byte	0x50
 7628 114f 02       		.uleb128 0x2
 7629 1150 74       		.byte	0x74
 7630 1151 00       		.sleb128 0
 7631 1152 19       		.uleb128 0x19
 7632 1153 01       		.uleb128 0x1
 7633 1154 51       		.byte	0x51
 7634 1155 02       		.uleb128 0x2
 7635 1156 09       		.byte	0x9
 7636 1157 81       		.byte	0x81
 7637 1158 19       		.uleb128 0x19
 7638 1159 01       		.uleb128 0x1
 7639 115a 52       		.byte	0x52
 7640 115b 01       		.uleb128 0x1
 7641 115c 30       		.byte	0x30
 7642 115d 00       		.byte	0
ARM GAS  C:\Users\Rajesh\AppData\Local\Temp\ccMJoliC.s 			page 176


 7643 115e 18       		.uleb128 0x18
 7644 115f 96040000 		.4byte	.LVL202
 7645 1163 942E0000 		.4byte	0x2e94
 7646 1167 7D110000 		.4byte	0x117d
 7647 116b 19       		.uleb128 0x19
 7648 116c 01       		.uleb128 0x1
 7649 116d 50       		.byte	0x50
 7650 116e 02       		.uleb128 0x2
 7651 116f 74       		.byte	0x74
 7652 1170 00       		.sleb128 0
 7653 1171 19       		.uleb128 0x19
 7654 1172 01       		.uleb128 0x1
 7655 1173 51       		.byte	0x51
 7656 1174 02       		.uleb128 0x2
 7657 1175 09       		.byte	0x9
 7658 1176 FF       		.byte	0xff
 7659 1177 19       		.uleb128 0x19
 7660 1178 01       		.uleb128 0x1
 7661 1179 52       		.byte	0x52
 7662 117a 01       		.uleb128 0x1
 7663 117b 36       		.byte	0x36
 7664 117c 00       		.byte	0
 7665 117d 18       		.uleb128 0x18
 7666 117e AE040000 		.4byte	.LVL205
 7667 1182 9F2E0000 		.4byte	0x2e9f
 7668 1186 9D110000 		.4byte	0x119d
 7669 118a 19       		.uleb128 0x19
 7670 118b 01       		.uleb128 0x1
 7671 118c 50       		.byte	0x50
 7672 118d 02       		.uleb128 0x2
 7673 118e 74       		.byte	0x74
 7674 118f 00       		.sleb128 0
 7675 1190 19       		.uleb128 0x19
 7676 1191 01       		.uleb128 0x1
 7677 1192 51       		.byte	0x51
 7678 1193 02       		.uleb128 0x2
 7679 1194 09       		.byte	0x9
 7680 1195 83       		.byte	0x83
 7681 1196 19       		.uleb128 0x19
 7682 1197 01       		.uleb128 0x1
 7683 1198 52       		.byte	0x52
 7684 1199 02       		.uleb128 0x2
 7685 119a 7B       		.byte	0x7b
 7686 119b 00       		.sleb128 0
 7687 119c 00       		.byte	0
 7688 119d 18       		.uleb128 0x18
 7689 119e C2040000 		.4byte	.LVL208
 7690 11a2 942E0000 		.4byte	0x2e94
 7691 11a6 B7110000 		.4byte	0x11b7
 7692 11aa 19       		.uleb128 0x19
 7693 11ab 01       		.uleb128 0x1
 7694 11ac 50       		.byte	0x50
 7695 11ad 02       		.uleb128 0x2
 7696 11ae 74       		.byte	0x74
 7697 11af 00       		.sleb128 0
 7698 11b0 19       		.uleb128 0x19
 7699 11b1 01       		.uleb128 0x1
ARM GAS  C:\Users\Rajesh\AppData\Local\Temp\ccMJoliC.s 			page 177


 7700 11b2 51       		.byte	0x51
 7701 11b3 02       		.uleb128 0x2
 7702 11b4 09       		.byte	0x9
 7703 11b5 83       		.byte	0x83
 7704 11b6 00       		.byte	0
 7705 11b7 18       		.uleb128 0x18
 7706 11b8 D0040000 		.4byte	.LVL211
 7707 11bc 942E0000 		.4byte	0x2e94
 7708 11c0 D6110000 		.4byte	0x11d6
 7709 11c4 19       		.uleb128 0x19
 7710 11c5 01       		.uleb128 0x1
 7711 11c6 50       		.byte	0x50
 7712 11c7 02       		.uleb128 0x2
 7713 11c8 74       		.byte	0x74
 7714 11c9 00       		.sleb128 0
 7715 11ca 19       		.uleb128 0x19
 7716 11cb 01       		.uleb128 0x1
 7717 11cc 51       		.byte	0x51
 7718 11cd 02       		.uleb128 0x2
 7719 11ce 09       		.byte	0x9
 7720 11cf FF       		.byte	0xff
 7721 11d0 19       		.uleb128 0x19
 7722 11d1 01       		.uleb128 0x1
 7723 11d2 52       		.byte	0x52
 7724 11d3 01       		.uleb128 0x1
 7725 11d4 31       		.byte	0x31
 7726 11d5 00       		.byte	0
 7727 11d6 18       		.uleb128 0x18
 7728 11d7 DE040000 		.4byte	.LVL214
 7729 11db 942E0000 		.4byte	0x2e94
 7730 11df F4110000 		.4byte	0x11f4
 7731 11e3 19       		.uleb128 0x19
 7732 11e4 01       		.uleb128 0x1
 7733 11e5 50       		.byte	0x50
 7734 11e6 02       		.uleb128 0x2
 7735 11e7 74       		.byte	0x74
 7736 11e8 00       		.sleb128 0
 7737 11e9 19       		.uleb128 0x19
 7738 11ea 01       		.uleb128 0x1
 7739 11eb 51       		.byte	0x51
 7740 11ec 01       		.uleb128 0x1
 7741 11ed 30       		.byte	0x30
 7742 11ee 19       		.uleb128 0x19
 7743 11ef 01       		.uleb128 0x1
 7744 11f0 52       		.byte	0x52
 7745 11f1 01       		.uleb128 0x1
 7746 11f2 31       		.byte	0x31
 7747 11f3 00       		.byte	0
 7748 11f4 18       		.uleb128 0x18
 7749 11f5 EC040000 		.4byte	.LVL217
 7750 11f9 942E0000 		.4byte	0x2e94
 7751 11fd 13120000 		.4byte	0x1213
 7752 1201 19       		.uleb128 0x19
 7753 1202 01       		.uleb128 0x1
 7754 1203 50       		.byte	0x50
 7755 1204 02       		.uleb128 0x2
 7756 1205 74       		.byte	0x74
ARM GAS  C:\Users\Rajesh\AppData\Local\Temp\ccMJoliC.s 			page 178


 7757 1206 00       		.sleb128 0
 7758 1207 19       		.uleb128 0x19
 7759 1208 01       		.uleb128 0x1
 7760 1209 51       		.byte	0x51
 7761 120a 02       		.uleb128 0x2
 7762 120b 09       		.byte	0x9
 7763 120c FF       		.byte	0xff
 7764 120d 19       		.uleb128 0x19
 7765 120e 01       		.uleb128 0x1
 7766 120f 52       		.byte	0x52
 7767 1210 01       		.uleb128 0x1
 7768 1211 30       		.byte	0x30
 7769 1212 00       		.byte	0
 7770 1213 18       		.uleb128 0x18
 7771 1214 FA040000 		.4byte	.LVL220
 7772 1218 942E0000 		.4byte	0x2e94
 7773 121c 32120000 		.4byte	0x1232
 7774 1220 19       		.uleb128 0x19
 7775 1221 01       		.uleb128 0x1
 7776 1222 50       		.byte	0x50
 7777 1223 02       		.uleb128 0x2
 7778 1224 74       		.byte	0x74
 7779 1225 00       		.sleb128 0
 7780 1226 19       		.uleb128 0x19
 7781 1227 01       		.uleb128 0x1
 7782 1228 51       		.byte	0x51
 7783 1229 02       		.uleb128 0x2
 7784 122a 09       		.byte	0x9
 7785 122b 80       		.byte	0x80
 7786 122c 19       		.uleb128 0x19
 7787 122d 01       		.uleb128 0x1
 7788 122e 52       		.byte	0x52
 7789 122f 01       		.uleb128 0x1
 7790 1230 30       		.byte	0x30
 7791 1231 00       		.byte	0
 7792 1232 1A       		.uleb128 0x1a
 7793 1233 72050000 		.4byte	.LVL232
 7794 1237 B52E0000 		.4byte	0x2eb5
 7795 123b 19       		.uleb128 0x19
 7796 123c 01       		.uleb128 0x1
 7797 123d 50       		.byte	0x50
 7798 123e 03       		.uleb128 0x3
 7799 123f 74       		.byte	0x74
 7800 1240 F301     		.sleb128 243
 7801 1242 19       		.uleb128 0x19
 7802 1243 01       		.uleb128 0x1
 7803 1244 51       		.byte	0x51
 7804 1245 03       		.uleb128 0x3
 7805 1246 91       		.byte	0x91
 7806 1247 B07F     		.sleb128 -80
 7807 1249 00       		.byte	0
 7808 124a 00       		.byte	0
 7809 124b 05       		.uleb128 0x5
 7810 124c 44010000 		.4byte	0x144
 7811 1250 5B120000 		.4byte	0x125b
 7812 1254 06       		.uleb128 0x6
 7813 1255 3D010000 		.4byte	0x13d
ARM GAS  C:\Users\Rajesh\AppData\Local\Temp\ccMJoliC.s 			page 179


 7814 1259 12       		.byte	0x12
 7815 125a 00       		.byte	0
 7816 125b 1D       		.uleb128 0x1d
 7817 125c 37160000 		.4byte	.LASF160
 7818 1260 01       		.byte	0x1
 7819 1261 DE01     		.2byte	0x1de
 7820 1263 EF000000 		.4byte	0xef
 7821 1267 00000000 		.4byte	.LFB9
 7822 126b 10000000 		.4byte	.LFE9-.LFB9
 7823 126f 01       		.uleb128 0x1
 7824 1270 9C       		.byte	0x9c
 7825 1271 C0120000 		.4byte	0x12c0
 7826 1275 1E       		.uleb128 0x1e
 7827 1276 44657600 		.ascii	"Dev\000"
 7828 127a 01       		.byte	0x1
 7829 127b DE01     		.2byte	0x1de
 7830 127d 02070000 		.4byte	0x702
 7831 1281 9C070000 		.4byte	.LLST34
 7832 1285 1F       		.uleb128 0x1f
 7833 1286 CA0E0000 		.4byte	.LASF142
 7834 128a 01       		.byte	0x1
 7835 128b DE01     		.2byte	0x1de
 7836 128d C3000000 		.4byte	0xc3
 7837 1291 BD070000 		.4byte	.LLST35
 7838 1295 20       		.uleb128 0x20
 7839 1296 31030000 		.4byte	.LASF161
 7840 129a 01       		.byte	0x1
 7841 129b E001     		.2byte	0x1e0
 7842 129d FA000000 		.4byte	0xfa
 7843 12a1 7706     		.2byte	0x677
 7844 12a3 20       		.uleb128 0x20
 7845 12a4 5A040000 		.4byte	.LASF162
 7846 12a8 01       		.byte	0x1
 7847 12a9 E101     		.2byte	0x1e1
 7848 12ab EF000000 		.4byte	0xef
 7849 12af 0009     		.2byte	0x900
 7850 12b1 21       		.uleb128 0x21
 7851 12b2 B5030000 		.4byte	.LASF163
 7852 12b6 01       		.byte	0x1
 7853 12b7 E201     		.2byte	0x1e2
 7854 12b9 EF000000 		.4byte	0xef
 7855 12bd 01       		.uleb128 0x1
 7856 12be 50       		.byte	0x50
 7857 12bf 00       		.byte	0
 7858 12c0 1D       		.uleb128 0x1d
 7859 12c1 65090000 		.4byte	.LASF164
 7860 12c5 01       		.byte	0x1
 7861 12c6 F301     		.2byte	0x1f3
 7862 12c8 D9000000 		.4byte	0xd9
 7863 12cc 00000000 		.4byte	.LFB10
 7864 12d0 2A000000 		.4byte	.LFE10-.LFB10
 7865 12d4 01       		.uleb128 0x1
 7866 12d5 9C       		.byte	0x9c
 7867 12d6 1B130000 		.4byte	0x131b
 7868 12da 1F       		.uleb128 0x1f
 7869 12db FE160000 		.4byte	.LASF165
 7870 12df 01       		.byte	0x1
ARM GAS  C:\Users\Rajesh\AppData\Local\Temp\ccMJoliC.s 			page 180


 7871 12e0 F301     		.2byte	0x1f3
 7872 12e2 EF000000 		.4byte	0xef
 7873 12e6 DE070000 		.4byte	.LLST36
 7874 12ea 22       		.uleb128 0x22
 7875 12eb 3F030000 		.4byte	.LASF166
 7876 12ef 01       		.byte	0x1
 7877 12f0 F901     		.2byte	0x1f9
 7878 12f2 D9000000 		.4byte	0xd9
 7879 12f6 25080000 		.4byte	.LLST37
 7880 12fa 22       		.uleb128 0x22
 7881 12fb 8B0B0000 		.4byte	.LASF167
 7882 12ff 01       		.byte	0x1
 7883 1300 FA01     		.2byte	0x1fa
 7884 1302 EF000000 		.4byte	0xef
 7885 1306 5B080000 		.4byte	.LLST38
 7886 130a 22       		.uleb128 0x22
 7887 130b 00000000 		.4byte	.LASF168
 7888 130f 01       		.byte	0x1
 7889 1310 FB01     		.2byte	0x1fb
 7890 1312 D9000000 		.4byte	0xd9
 7891 1316 86080000 		.4byte	.LLST39
 7892 131a 00       		.byte	0
 7893 131b 1D       		.uleb128 0x1d
 7894 131c 4F180000 		.4byte	.LASF169
 7895 1320 01       		.byte	0x1
 7896 1321 0D02     		.2byte	0x20d
 7897 1323 EF000000 		.4byte	0xef
 7898 1327 00000000 		.4byte	.LFB11
 7899 132b 0E000000 		.4byte	.LFE11-.LFB11
 7900 132f 01       		.uleb128 0x1
 7901 1330 9C       		.byte	0x9c
 7902 1331 56130000 		.4byte	0x1356
 7903 1335 1F       		.uleb128 0x1f
 7904 1336 3F030000 		.4byte	.LASF166
 7905 133a 01       		.byte	0x1
 7906 133b 0D02     		.2byte	0x20d
 7907 133d D9000000 		.4byte	0xd9
 7908 1341 BC080000 		.4byte	.LLST40
 7909 1345 22       		.uleb128 0x22
 7910 1346 FE160000 		.4byte	.LASF165
 7911 134a 01       		.byte	0x1
 7912 134b 1302     		.2byte	0x213
 7913 134d EF000000 		.4byte	0xef
 7914 1351 DD080000 		.4byte	.LLST41
 7915 1355 00       		.byte	0
 7916 1356 23       		.uleb128 0x23
 7917 1357 73050000 		.4byte	.LASF170
 7918 135b 01       		.byte	0x1
 7919 135c 1D02     		.2byte	0x21d
 7920 135e EF000000 		.4byte	0xef
 7921 1362 00000000 		.4byte	.LFB12
 7922 1366 34000000 		.4byte	.LFE12-.LFB12
 7923 136a 01       		.uleb128 0x1
 7924 136b 9C       		.byte	0x9c
 7925 136c E2130000 		.4byte	0x13e2
 7926 1370 1E       		.uleb128 0x1e
 7927 1371 44657600 		.ascii	"Dev\000"
ARM GAS  C:\Users\Rajesh\AppData\Local\Temp\ccMJoliC.s 			page 181


 7928 1375 01       		.byte	0x1
 7929 1376 1D02     		.2byte	0x21d
 7930 1378 02070000 		.4byte	0x702
 7931 137c FC080000 		.4byte	.LLST42
 7932 1380 1F       		.uleb128 0x1f
 7933 1381 F2060000 		.4byte	.LASF171
 7934 1385 01       		.byte	0x1
 7935 1386 1E02     		.2byte	0x21e
 7936 1388 EF000000 		.4byte	0xef
 7937 138c 1D090000 		.4byte	.LLST43
 7938 1390 1F       		.uleb128 0x1f
 7939 1391 CA0E0000 		.4byte	.LASF142
 7940 1395 01       		.byte	0x1
 7941 1396 1F02     		.2byte	0x21f
 7942 1398 C3000000 		.4byte	0xc3
 7943 139c 49090000 		.4byte	.LLST44
 7944 13a0 22       		.uleb128 0x22
 7945 13a1 B5030000 		.4byte	.LASF163
 7946 13a5 01       		.byte	0x1
 7947 13a6 2102     		.2byte	0x221
 7948 13a8 EF000000 		.4byte	0xef
 7949 13ac 6A090000 		.4byte	.LLST45
 7950 13b0 22       		.uleb128 0x22
 7951 13b1 6B000000 		.4byte	.LASF172
 7952 13b5 01       		.byte	0x1
 7953 13b6 2202     		.2byte	0x222
 7954 13b8 EF000000 		.4byte	0xef
 7955 13bc A7090000 		.4byte	.LLST46
 7956 13c0 22       		.uleb128 0x22
 7957 13c1 6D040000 		.4byte	.LASF173
 7958 13c5 01       		.byte	0x1
 7959 13c6 2302     		.2byte	0x223
 7960 13c8 EF000000 		.4byte	0xef
 7961 13cc C5090000 		.4byte	.LLST47
 7962 13d0 1A       		.uleb128 0x1a
 7963 13d1 0A000000 		.4byte	.LVL271
 7964 13d5 5B120000 		.4byte	0x125b
 7965 13d9 19       		.uleb128 0x19
 7966 13da 01       		.uleb128 0x1
 7967 13db 50       		.byte	0x50
 7968 13dc 03       		.uleb128 0x3
 7969 13dd F3       		.byte	0xf3
 7970 13de 01       		.uleb128 0x1
 7971 13df 50       		.byte	0x50
 7972 13e0 00       		.byte	0
 7973 13e1 00       		.byte	0
 7974 13e2 23       		.uleb128 0x23
 7975 13e3 99160000 		.4byte	.LASF174
 7976 13e7 01       		.byte	0x1
 7977 13e8 3002     		.2byte	0x230
 7978 13ea EF000000 		.4byte	0xef
 7979 13ee 00000000 		.4byte	.LFB13
 7980 13f2 26000000 		.4byte	.LFE13-.LFB13
 7981 13f6 01       		.uleb128 0x1
 7982 13f7 9C       		.byte	0x9c
 7983 13f8 6E140000 		.4byte	0x146e
 7984 13fc 1E       		.uleb128 0x1e
ARM GAS  C:\Users\Rajesh\AppData\Local\Temp\ccMJoliC.s 			page 182


 7985 13fd 44657600 		.ascii	"Dev\000"
 7986 1401 01       		.byte	0x1
 7987 1402 3002     		.2byte	0x230
 7988 1404 02070000 		.4byte	0x702
 7989 1408 E4090000 		.4byte	.LLST48
 7990 140c 1F       		.uleb128 0x1f
 7991 140d 6D040000 		.4byte	.LASF173
 7992 1411 01       		.byte	0x1
 7993 1412 3102     		.2byte	0x231
 7994 1414 D9000000 		.4byte	0xd9
 7995 1418 050A0000 		.4byte	.LLST49
 7996 141c 1F       		.uleb128 0x1f
 7997 141d CA0E0000 		.4byte	.LASF142
 7998 1421 01       		.byte	0x1
 7999 1422 3202     		.2byte	0x232
 8000 1424 C3000000 		.4byte	0xc3
 8001 1428 260A0000 		.4byte	.LLST50
 8002 142c 22       		.uleb128 0x22
 8003 142d B5030000 		.4byte	.LASF163
 8004 1431 01       		.byte	0x1
 8005 1432 3402     		.2byte	0x234
 8006 1434 EF000000 		.4byte	0xef
 8007 1438 470A0000 		.4byte	.LLST51
 8008 143c 22       		.uleb128 0x22
 8009 143d 6B000000 		.4byte	.LASF172
 8010 1441 01       		.byte	0x1
 8011 1442 3502     		.2byte	0x235
 8012 1444 EF000000 		.4byte	0xef
 8013 1448 760A0000 		.4byte	.LLST52
 8014 144c 22       		.uleb128 0x22
 8015 144d 38080000 		.4byte	.LASF175
 8016 1451 01       		.byte	0x1
 8017 1452 3602     		.2byte	0x236
 8018 1454 EF000000 		.4byte	0xef
 8019 1458 890A0000 		.4byte	.LLST53
 8020 145c 1A       		.uleb128 0x1a
 8021 145d 0A000000 		.4byte	.LVL285
 8022 1461 5B120000 		.4byte	0x125b
 8023 1465 19       		.uleb128 0x19
 8024 1466 01       		.uleb128 0x1
 8025 1467 50       		.byte	0x50
 8026 1468 03       		.uleb128 0x3
 8027 1469 F3       		.byte	0xf3
 8028 146a 01       		.uleb128 0x1
 8029 146b 50       		.byte	0x50
 8030 146c 00       		.byte	0
 8031 146d 00       		.byte	0
 8032 146e 1D       		.uleb128 0x1d
 8033 146f CE020000 		.4byte	.LASF176
 8034 1473 01       		.byte	0x1
 8035 1474 4202     		.2byte	0x242
 8036 1476 4B010000 		.4byte	0x14b
 8037 147a 00000000 		.4byte	.LFB14
 8038 147e 36010000 		.4byte	.LFE14-.LFB14
 8039 1482 01       		.uleb128 0x1
 8040 1483 9C       		.byte	0x9c
 8041 1484 D9160000 		.4byte	0x16d9
ARM GAS  C:\Users\Rajesh\AppData\Local\Temp\ccMJoliC.s 			page 183


 8042 1488 1E       		.uleb128 0x1e
 8043 1489 44657600 		.ascii	"Dev\000"
 8044 148d 01       		.byte	0x1
 8045 148e 4202     		.2byte	0x242
 8046 1490 02070000 		.4byte	0x702
 8047 1494 A80A0000 		.4byte	.LLST54
 8048 1498 1F       		.uleb128 0x1f
 8049 1499 C7060000 		.4byte	.LASF177
 8050 149d 01       		.byte	0x1
 8051 149e 4302     		.2byte	0x243
 8052 14a0 A8060000 		.4byte	0x6a8
 8053 14a4 160B0000 		.4byte	.LLST55
 8054 14a8 1F       		.uleb128 0x1f
 8055 14a9 61130000 		.4byte	.LASF178
 8056 14ad 01       		.byte	0x1
 8057 14ae 4402     		.2byte	0x244
 8058 14b0 D9160000 		.4byte	0x16d9
 8059 14b4 820B0000 		.4byte	.LLST56
 8060 14b8 22       		.uleb128 0x22
 8061 14b9 20020000 		.4byte	.LASF131
 8062 14bd 01       		.byte	0x1
 8063 14be 4602     		.2byte	0x246
 8064 14c0 4B010000 		.4byte	0x14b
 8065 14c4 AE0B0000 		.4byte	.LLST57
 8066 14c8 21       		.uleb128 0x21
 8067 14c9 DA090000 		.4byte	.LASF179
 8068 14cd 01       		.byte	0x1
 8069 14ce 4702     		.2byte	0x247
 8070 14d0 C3000000 		.4byte	0xc3
 8071 14d4 02       		.uleb128 0x2
 8072 14d5 91       		.byte	0x91
 8073 14d6 67       		.sleb128 -25
 8074 14d7 21       		.uleb128 0x21
 8075 14d8 63110000 		.4byte	.LASF180
 8076 14dc 01       		.byte	0x1
 8077 14dd 4802     		.2byte	0x248
 8078 14df C3000000 		.4byte	0xc3
 8079 14e3 02       		.uleb128 0x2
 8080 14e4 91       		.byte	0x91
 8081 14e5 66       		.sleb128 -26
 8082 14e6 22       		.uleb128 0x22
 8083 14e7 4F030000 		.4byte	.LASF181
 8084 14eb 01       		.byte	0x1
 8085 14ec 4902     		.2byte	0x249
 8086 14ee EF000000 		.4byte	0xef
 8087 14f2 AD0C0000 		.4byte	.LLST58
 8088 14f6 21       		.uleb128 0x21
 8089 14f7 08000000 		.4byte	.LASF182
 8090 14fb 01       		.byte	0x1
 8091 14fc 4A02     		.2byte	0x24a
 8092 14fe D9000000 		.4byte	0xd9
 8093 1502 02       		.uleb128 0x2
 8094 1503 91       		.byte	0x91
 8095 1504 64       		.sleb128 -28
 8096 1505 22       		.uleb128 0x22
 8097 1506 90100000 		.4byte	.LASF183
 8098 150a 01       		.byte	0x1
ARM GAS  C:\Users\Rajesh\AppData\Local\Temp\ccMJoliC.s 			page 184


 8099 150b 4B02     		.2byte	0x24b
 8100 150d D9000000 		.4byte	0xd9
 8101 1511 2A0D0000 		.4byte	.LLST59
 8102 1515 22       		.uleb128 0x22
 8103 1516 500D0000 		.4byte	.LASF184
 8104 151a 01       		.byte	0x1
 8105 151b 4C02     		.2byte	0x24c
 8106 151d D9000000 		.4byte	0xd9
 8107 1521 3D0D0000 		.4byte	.LLST60
 8108 1525 22       		.uleb128 0x22
 8109 1526 25190000 		.4byte	.LASF185
 8110 152a 01       		.byte	0x1
 8111 152b 4D02     		.2byte	0x24d
 8112 152d D9000000 		.4byte	0xd9
 8113 1531 7E0D0000 		.4byte	.LLST61
 8114 1535 21       		.uleb128 0x21
 8115 1536 D7000000 		.4byte	.LASF186
 8116 153a 01       		.byte	0x1
 8117 153b 4E02     		.2byte	0x24e
 8118 153d D9000000 		.4byte	0xd9
 8119 1541 02       		.uleb128 0x2
 8120 1542 91       		.byte	0x91
 8121 1543 62       		.sleb128 -30
 8122 1544 21       		.uleb128 0x21
 8123 1545 82160000 		.4byte	.LASF187
 8124 1549 01       		.byte	0x1
 8125 154a 4F02     		.2byte	0x24f
 8126 154c 9C060000 		.4byte	0x69c
 8127 1550 02       		.uleb128 0x2
 8128 1551 91       		.byte	0x91
 8129 1552 5C       		.sleb128 -36
 8130 1553 18       		.uleb128 0x18
 8131 1554 26000000 		.4byte	.LVL297
 8132 1558 C02E0000 		.4byte	0x2ec0
 8133 155c 72150000 		.4byte	0x1572
 8134 1560 19       		.uleb128 0x19
 8135 1561 01       		.uleb128 0x1
 8136 1562 50       		.byte	0x50
 8137 1563 02       		.uleb128 0x2
 8138 1564 75       		.byte	0x75
 8139 1565 00       		.sleb128 0
 8140 1566 19       		.uleb128 0x19
 8141 1567 01       		.uleb128 0x1
 8142 1568 51       		.byte	0x51
 8143 1569 01       		.uleb128 0x1
 8144 156a 30       		.byte	0x30
 8145 156b 19       		.uleb128 0x19
 8146 156c 01       		.uleb128 0x1
 8147 156d 52       		.byte	0x52
 8148 156e 02       		.uleb128 0x2
 8149 156f 91       		.byte	0x91
 8150 1570 67       		.sleb128 -25
 8151 1571 00       		.byte	0
 8152 1572 18       		.uleb128 0x18
 8153 1573 36000000 		.4byte	.LVL300
 8154 1577 9F2E0000 		.4byte	0x2e9f
 8155 157b 92150000 		.4byte	0x1592
ARM GAS  C:\Users\Rajesh\AppData\Local\Temp\ccMJoliC.s 			page 185


 8156 157f 19       		.uleb128 0x19
 8157 1580 01       		.uleb128 0x1
 8158 1581 50       		.byte	0x50
 8159 1582 02       		.uleb128 0x2
 8160 1583 75       		.byte	0x75
 8161 1584 00       		.sleb128 0
 8162 1585 19       		.uleb128 0x19
 8163 1586 01       		.uleb128 0x1
 8164 1587 51       		.byte	0x51
 8165 1588 02       		.uleb128 0x2
 8166 1589 08       		.byte	0x8
 8167 158a 46       		.byte	0x46
 8168 158b 19       		.uleb128 0x19
 8169 158c 01       		.uleb128 0x1
 8170 158d 52       		.byte	0x52
 8171 158e 02       		.uleb128 0x2
 8172 158f 91       		.byte	0x91
 8173 1590 66       		.sleb128 -26
 8174 1591 00       		.byte	0
 8175 1592 24       		.uleb128 0x24
 8176 1593 42000000 		.4byte	.LVL302
 8177 1597 1B130000 		.4byte	0x131b
 8178 159b 18       		.uleb128 0x18
 8179 159c 50000000 		.4byte	.LVL304
 8180 15a0 E2130000 		.4byte	0x13e2
 8181 15a4 AF150000 		.4byte	0x15af
 8182 15a8 19       		.uleb128 0x19
 8183 15a9 01       		.uleb128 0x1
 8184 15aa 50       		.byte	0x50
 8185 15ab 02       		.uleb128 0x2
 8186 15ac 75       		.byte	0x75
 8187 15ad 00       		.sleb128 0
 8188 15ae 00       		.byte	0
 8189 15af 18       		.uleb128 0x18
 8190 15b0 60000000 		.4byte	.LVL307
 8191 15b4 C02E0000 		.4byte	0x2ec0
 8192 15b8 C8150000 		.4byte	0x15c8
 8193 15bc 19       		.uleb128 0x19
 8194 15bd 01       		.uleb128 0x1
 8195 15be 51       		.byte	0x51
 8196 15bf 01       		.uleb128 0x1
 8197 15c0 30       		.byte	0x30
 8198 15c1 19       		.uleb128 0x19
 8199 15c2 01       		.uleb128 0x1
 8200 15c3 52       		.byte	0x52
 8201 15c4 02       		.uleb128 0x2
 8202 15c5 91       		.byte	0x91
 8203 15c6 67       		.sleb128 -25
 8204 15c7 00       		.byte	0
 8205 15c8 18       		.uleb128 0x18
 8206 15c9 70000000 		.4byte	.LVL310
 8207 15cd C02E0000 		.4byte	0x2ec0
 8208 15d1 E7150000 		.4byte	0x15e7
 8209 15d5 19       		.uleb128 0x19
 8210 15d6 01       		.uleb128 0x1
 8211 15d7 50       		.byte	0x50
 8212 15d8 02       		.uleb128 0x2
ARM GAS  C:\Users\Rajesh\AppData\Local\Temp\ccMJoliC.s 			page 186


 8213 15d9 75       		.byte	0x75
 8214 15da 00       		.sleb128 0
 8215 15db 19       		.uleb128 0x19
 8216 15dc 01       		.uleb128 0x1
 8217 15dd 51       		.byte	0x51
 8218 15de 01       		.uleb128 0x1
 8219 15df 30       		.byte	0x30
 8220 15e0 19       		.uleb128 0x19
 8221 15e1 01       		.uleb128 0x1
 8222 15e2 52       		.byte	0x52
 8223 15e3 02       		.uleb128 0x2
 8224 15e4 91       		.byte	0x91
 8225 15e5 67       		.sleb128 -25
 8226 15e6 00       		.byte	0
 8227 15e7 18       		.uleb128 0x18
 8228 15e8 7E000000 		.4byte	.LVL313
 8229 15ec CC2E0000 		.4byte	0x2ecc
 8230 15f0 07160000 		.4byte	0x1607
 8231 15f4 19       		.uleb128 0x19
 8232 15f5 01       		.uleb128 0x1
 8233 15f6 50       		.byte	0x50
 8234 15f7 02       		.uleb128 0x2
 8235 15f8 75       		.byte	0x75
 8236 15f9 00       		.sleb128 0
 8237 15fa 19       		.uleb128 0x19
 8238 15fb 01       		.uleb128 0x1
 8239 15fc 51       		.byte	0x51
 8240 15fd 02       		.uleb128 0x2
 8241 15fe 08       		.byte	0x8
 8242 15ff 51       		.byte	0x51
 8243 1600 19       		.uleb128 0x19
 8244 1601 01       		.uleb128 0x1
 8245 1602 52       		.byte	0x52
 8246 1603 02       		.uleb128 0x2
 8247 1604 91       		.byte	0x91
 8248 1605 64       		.sleb128 -28
 8249 1606 00       		.byte	0
 8250 1607 24       		.uleb128 0x24
 8251 1608 88000000 		.4byte	.LVL315
 8252 160c 1B130000 		.4byte	0x131b
 8253 1610 18       		.uleb128 0x18
 8254 1611 96000000 		.4byte	.LVL317
 8255 1615 E2130000 		.4byte	0x13e2
 8256 1619 24160000 		.4byte	0x1624
 8257 161d 19       		.uleb128 0x19
 8258 161e 01       		.uleb128 0x1
 8259 161f 50       		.byte	0x50
 8260 1620 02       		.uleb128 0x2
 8261 1621 75       		.byte	0x75
 8262 1622 00       		.sleb128 0
 8263 1623 00       		.byte	0
 8264 1624 18       		.uleb128 0x18
 8265 1625 A4000000 		.4byte	.LVL320
 8266 1629 D72E0000 		.4byte	0x2ed7
 8267 162d 38160000 		.4byte	0x1638
 8268 1631 19       		.uleb128 0x19
 8269 1632 01       		.uleb128 0x1
ARM GAS  C:\Users\Rajesh\AppData\Local\Temp\ccMJoliC.s 			page 187


 8270 1633 51       		.byte	0x51
 8271 1634 02       		.uleb128 0x2
 8272 1635 74       		.byte	0x74
 8273 1636 00       		.sleb128 0
 8274 1637 00       		.byte	0
 8275 1638 18       		.uleb128 0x18
 8276 1639 B6000000 		.4byte	.LVL321
 8277 163d C02E0000 		.4byte	0x2ec0
 8278 1641 57160000 		.4byte	0x1657
 8279 1645 19       		.uleb128 0x19
 8280 1646 01       		.uleb128 0x1
 8281 1647 50       		.byte	0x50
 8282 1648 02       		.uleb128 0x2
 8283 1649 75       		.byte	0x75
 8284 164a 00       		.sleb128 0
 8285 164b 19       		.uleb128 0x19
 8286 164c 01       		.uleb128 0x1
 8287 164d 51       		.byte	0x51
 8288 164e 01       		.uleb128 0x1
 8289 164f 30       		.byte	0x30
 8290 1650 19       		.uleb128 0x19
 8291 1651 01       		.uleb128 0x1
 8292 1652 52       		.byte	0x52
 8293 1653 02       		.uleb128 0x2
 8294 1654 91       		.byte	0x91
 8295 1655 67       		.sleb128 -25
 8296 1656 00       		.byte	0
 8297 1657 18       		.uleb128 0x18
 8298 1658 C6000000 		.4byte	.LVL324
 8299 165c CC2E0000 		.4byte	0x2ecc
 8300 1660 77160000 		.4byte	0x1677
 8301 1664 19       		.uleb128 0x19
 8302 1665 01       		.uleb128 0x1
 8303 1666 50       		.byte	0x50
 8304 1667 02       		.uleb128 0x2
 8305 1668 75       		.byte	0x75
 8306 1669 00       		.sleb128 0
 8307 166a 19       		.uleb128 0x19
 8308 166b 01       		.uleb128 0x1
 8309 166c 51       		.byte	0x51
 8310 166d 02       		.uleb128 0x2
 8311 166e 08       		.byte	0x8
 8312 166f 51       		.byte	0x51
 8313 1670 19       		.uleb128 0x19
 8314 1671 01       		.uleb128 0x1
 8315 1672 52       		.byte	0x52
 8316 1673 02       		.uleb128 0x2
 8317 1674 77       		.byte	0x77
 8318 1675 00       		.sleb128 0
 8319 1676 00       		.byte	0
 8320 1677 24       		.uleb128 0x24
 8321 1678 CE000000 		.4byte	.LVL327
 8322 167c 1B130000 		.4byte	0x131b
 8323 1680 18       		.uleb128 0x18
 8324 1681 EA000000 		.4byte	.LVL332
 8325 1685 C02E0000 		.4byte	0x2ec0
 8326 1689 9F160000 		.4byte	0x169f
ARM GAS  C:\Users\Rajesh\AppData\Local\Temp\ccMJoliC.s 			page 188


 8327 168d 19       		.uleb128 0x19
 8328 168e 01       		.uleb128 0x1
 8329 168f 50       		.byte	0x50
 8330 1690 02       		.uleb128 0x2
 8331 1691 75       		.byte	0x75
 8332 1692 00       		.sleb128 0
 8333 1693 19       		.uleb128 0x19
 8334 1694 01       		.uleb128 0x1
 8335 1695 51       		.byte	0x51
 8336 1696 01       		.uleb128 0x1
 8337 1697 31       		.byte	0x31
 8338 1698 19       		.uleb128 0x19
 8339 1699 01       		.uleb128 0x1
 8340 169a 52       		.byte	0x52
 8341 169b 02       		.uleb128 0x2
 8342 169c 91       		.byte	0x91
 8343 169d 67       		.sleb128 -25
 8344 169e 00       		.byte	0
 8345 169f 18       		.uleb128 0x18
 8346 16a0 00010000 		.4byte	.LVL334
 8347 16a4 CC2E0000 		.4byte	0x2ecc
 8348 16a8 BF160000 		.4byte	0x16bf
 8349 16ac 19       		.uleb128 0x19
 8350 16ad 01       		.uleb128 0x1
 8351 16ae 50       		.byte	0x50
 8352 16af 02       		.uleb128 0x2
 8353 16b0 75       		.byte	0x75
 8354 16b1 00       		.sleb128 0
 8355 16b2 19       		.uleb128 0x19
 8356 16b3 01       		.uleb128 0x1
 8357 16b4 51       		.byte	0x51
 8358 16b5 02       		.uleb128 0x2
 8359 16b6 08       		.byte	0x8
 8360 16b7 71       		.byte	0x71
 8361 16b8 19       		.uleb128 0x19
 8362 16b9 01       		.uleb128 0x1
 8363 16ba 52       		.byte	0x52
 8364 16bb 02       		.uleb128 0x2
 8365 16bc 78       		.byte	0x78
 8366 16bd 00       		.sleb128 0
 8367 16be 00       		.byte	0
 8368 16bf 24       		.uleb128 0x24
 8369 16c0 0A010000 		.4byte	.LVL337
 8370 16c4 1B130000 		.4byte	0x131b
 8371 16c8 1A       		.uleb128 0x1a
 8372 16c9 20010000 		.4byte	.LVL343
 8373 16cd E2130000 		.4byte	0x13e2
 8374 16d1 19       		.uleb128 0x19
 8375 16d2 01       		.uleb128 0x1
 8376 16d3 50       		.byte	0x50
 8377 16d4 02       		.uleb128 0x2
 8378 16d5 75       		.byte	0x75
 8379 16d6 00       		.sleb128 0
 8380 16d7 00       		.byte	0
 8381 16d8 00       		.byte	0
 8382 16d9 0E       		.uleb128 0xe
 8383 16da 04       		.byte	0x4
ARM GAS  C:\Users\Rajesh\AppData\Local\Temp\ccMJoliC.s 			page 189


 8384 16db EF000000 		.4byte	0xef
 8385 16df 1D       		.uleb128 0x1d
 8386 16e0 F0000000 		.4byte	.LASF188
 8387 16e4 01       		.byte	0x1
 8388 16e5 AF02     		.2byte	0x2af
 8389 16e7 4B010000 		.4byte	0x14b
 8390 16eb 00000000 		.4byte	.LFB15
 8391 16ef 28010000 		.4byte	.LFE15-.LFB15
 8392 16f3 01       		.uleb128 0x1
 8393 16f4 9C       		.byte	0x9c
 8394 16f5 1A190000 		.4byte	0x191a
 8395 16f9 1E       		.uleb128 0x1e
 8396 16fa 44657600 		.ascii	"Dev\000"
 8397 16fe 01       		.byte	0x1
 8398 16ff AF02     		.2byte	0x2af
 8399 1701 02070000 		.4byte	0x702
 8400 1705 CB0D0000 		.4byte	.LLST62
 8401 1709 1F       		.uleb128 0x1f
 8402 170a C7060000 		.4byte	.LASF177
 8403 170e 01       		.byte	0x1
 8404 170f B002     		.2byte	0x2b0
 8405 1711 A8060000 		.4byte	0x6a8
 8406 1715 390E0000 		.4byte	.LLST63
 8407 1719 1F       		.uleb128 0x1f
 8408 171a 7B190000 		.4byte	.LASF189
 8409 171e 01       		.byte	0x1
 8410 171f B102     		.2byte	0x2b1
 8411 1721 EF000000 		.4byte	0xef
 8412 1725 A50E0000 		.4byte	.LLST64
 8413 1729 22       		.uleb128 0x22
 8414 172a 20020000 		.4byte	.LASF131
 8415 172e 01       		.byte	0x1
 8416 172f B302     		.2byte	0x2b3
 8417 1731 4B010000 		.4byte	0x14b
 8418 1735 130F0000 		.4byte	.LLST65
 8419 1739 21       		.uleb128 0x21
 8420 173a DA090000 		.4byte	.LASF179
 8421 173e 01       		.byte	0x1
 8422 173f B402     		.2byte	0x2b4
 8423 1741 C3000000 		.4byte	0xc3
 8424 1745 02       		.uleb128 0x2
 8425 1746 91       		.byte	0x91
 8426 1747 67       		.sleb128 -25
 8427 1748 22       		.uleb128 0x22
 8428 1749 0F080000 		.4byte	.LASF190
 8429 174d 01       		.byte	0x1
 8430 174e B502     		.2byte	0x2b5
 8431 1750 C3000000 		.4byte	0xc3
 8432 1754 DB0F0000 		.4byte	.LLST66
 8433 1758 21       		.uleb128 0x21
 8434 1759 08000000 		.4byte	.LASF182
 8435 175d 01       		.byte	0x1
 8436 175e B602     		.2byte	0x2b6
 8437 1760 D9000000 		.4byte	0xd9
 8438 1764 02       		.uleb128 0x2
 8439 1765 91       		.byte	0x91
 8440 1766 64       		.sleb128 -28
ARM GAS  C:\Users\Rajesh\AppData\Local\Temp\ccMJoliC.s 			page 190


 8441 1767 22       		.uleb128 0x22
 8442 1768 500D0000 		.4byte	.LASF184
 8443 176c 01       		.byte	0x1
 8444 176d B702     		.2byte	0x2b7
 8445 176f D9000000 		.4byte	0xd9
 8446 1773 F90F0000 		.4byte	.LLST67
 8447 1777 22       		.uleb128 0x22
 8448 1778 66180000 		.4byte	.LASF191
 8449 177c 01       		.byte	0x1
 8450 177d B802     		.2byte	0x2b8
 8451 177f D9000000 		.4byte	0xd9
 8452 1783 3A100000 		.4byte	.LLST68
 8453 1787 22       		.uleb128 0x22
 8454 1788 25190000 		.4byte	.LASF185
 8455 178c 01       		.byte	0x1
 8456 178d B902     		.2byte	0x2b9
 8457 178f EF000000 		.4byte	0xef
 8458 1793 4D100000 		.4byte	.LLST69
 8459 1797 22       		.uleb128 0x22
 8460 1798 D7000000 		.4byte	.LASF186
 8461 179c 01       		.byte	0x1
 8462 179d BA02     		.2byte	0x2ba
 8463 179f D9000000 		.4byte	0xd9
 8464 17a3 60100000 		.4byte	.LLST70
 8465 17a7 21       		.uleb128 0x21
 8466 17a8 82160000 		.4byte	.LASF187
 8467 17ac 01       		.byte	0x1
 8468 17ad BB02     		.2byte	0x2bb
 8469 17af 9C060000 		.4byte	0x69c
 8470 17b3 02       		.uleb128 0x2
 8471 17b4 91       		.byte	0x91
 8472 17b5 5C       		.sleb128 -36
 8473 17b6 18       		.uleb128 0x18
 8474 17b7 16000000 		.4byte	.LVL357
 8475 17bb C02E0000 		.4byte	0x2ec0
 8476 17bf D5170000 		.4byte	0x17d5
 8477 17c3 19       		.uleb128 0x19
 8478 17c4 01       		.uleb128 0x1
 8479 17c5 50       		.byte	0x50
 8480 17c6 02       		.uleb128 0x2
 8481 17c7 75       		.byte	0x75
 8482 17c8 00       		.sleb128 0
 8483 17c9 19       		.uleb128 0x19
 8484 17ca 01       		.uleb128 0x1
 8485 17cb 51       		.byte	0x51
 8486 17cc 01       		.uleb128 0x1
 8487 17cd 30       		.byte	0x30
 8488 17ce 19       		.uleb128 0x19
 8489 17cf 01       		.uleb128 0x1
 8490 17d0 52       		.byte	0x52
 8491 17d1 02       		.uleb128 0x2
 8492 17d2 91       		.byte	0x91
 8493 17d3 67       		.sleb128 -25
 8494 17d4 00       		.byte	0
 8495 17d5 18       		.uleb128 0x18
 8496 17d6 28000000 		.4byte	.LVL360
 8497 17da 56130000 		.4byte	0x1356
ARM GAS  C:\Users\Rajesh\AppData\Local\Temp\ccMJoliC.s 			page 191


 8498 17de EF170000 		.4byte	0x17ef
 8499 17e2 19       		.uleb128 0x19
 8500 17e3 01       		.uleb128 0x1
 8501 17e4 50       		.byte	0x50
 8502 17e5 02       		.uleb128 0x2
 8503 17e6 75       		.byte	0x75
 8504 17e7 00       		.sleb128 0
 8505 17e8 19       		.uleb128 0x19
 8506 17e9 01       		.uleb128 0x1
 8507 17ea 51       		.byte	0x51
 8508 17eb 02       		.uleb128 0x2
 8509 17ec 76       		.byte	0x76
 8510 17ed 00       		.sleb128 0
 8511 17ee 00       		.byte	0
 8512 17ef 18       		.uleb128 0x18
 8513 17f0 4E000000 		.4byte	.LVL366
 8514 17f4 942E0000 		.4byte	0x2e94
 8515 17f8 0F180000 		.4byte	0x180f
 8516 17fc 19       		.uleb128 0x19
 8517 17fd 01       		.uleb128 0x1
 8518 17fe 50       		.byte	0x50
 8519 17ff 02       		.uleb128 0x2
 8520 1800 75       		.byte	0x75
 8521 1801 00       		.sleb128 0
 8522 1802 19       		.uleb128 0x19
 8523 1803 01       		.uleb128 0x1
 8524 1804 51       		.byte	0x51
 8525 1805 02       		.uleb128 0x2
 8526 1806 08       		.byte	0x8
 8527 1807 46       		.byte	0x46
 8528 1808 19       		.uleb128 0x19
 8529 1809 01       		.uleb128 0x1
 8530 180a 52       		.byte	0x52
 8531 180b 02       		.uleb128 0x2
 8532 180c 77       		.byte	0x77
 8533 180d 00       		.sleb128 0
 8534 180e 00       		.byte	0
 8535 180f 18       		.uleb128 0x18
 8536 1810 62000000 		.4byte	.LVL371
 8537 1814 C02E0000 		.4byte	0x2ec0
 8538 1818 28180000 		.4byte	0x1828
 8539 181c 19       		.uleb128 0x19
 8540 181d 01       		.uleb128 0x1
 8541 181e 51       		.byte	0x51
 8542 181f 01       		.uleb128 0x1
 8543 1820 30       		.byte	0x30
 8544 1821 19       		.uleb128 0x19
 8545 1822 01       		.uleb128 0x1
 8546 1823 52       		.byte	0x52
 8547 1824 02       		.uleb128 0x2
 8548 1825 77       		.byte	0x77
 8549 1826 00       		.sleb128 0
 8550 1827 00       		.byte	0
 8551 1828 18       		.uleb128 0x18
 8552 1829 6E000000 		.4byte	.LVL374
 8553 182d 56130000 		.4byte	0x1356
 8554 1831 42180000 		.4byte	0x1842
ARM GAS  C:\Users\Rajesh\AppData\Local\Temp\ccMJoliC.s 			page 192


 8555 1835 19       		.uleb128 0x19
 8556 1836 01       		.uleb128 0x1
 8557 1837 50       		.byte	0x50
 8558 1838 02       		.uleb128 0x2
 8559 1839 75       		.byte	0x75
 8560 183a 00       		.sleb128 0
 8561 183b 19       		.uleb128 0x19
 8562 183c 01       		.uleb128 0x1
 8563 183d 51       		.byte	0x51
 8564 183e 02       		.uleb128 0x2
 8565 183f 76       		.byte	0x76
 8566 1840 00       		.sleb128 0
 8567 1841 00       		.byte	0
 8568 1842 24       		.uleb128 0x24
 8569 1843 76000000 		.4byte	.LVL376
 8570 1847 C0120000 		.4byte	0x12c0
 8571 184b 18       		.uleb128 0x18
 8572 184c 8C000000 		.4byte	.LVL377
 8573 1850 E32E0000 		.4byte	0x2ee3
 8574 1854 65180000 		.4byte	0x1865
 8575 1858 19       		.uleb128 0x19
 8576 1859 01       		.uleb128 0x1
 8577 185a 50       		.byte	0x50
 8578 185b 02       		.uleb128 0x2
 8579 185c 75       		.byte	0x75
 8580 185d 00       		.sleb128 0
 8581 185e 19       		.uleb128 0x19
 8582 185f 01       		.uleb128 0x1
 8583 1860 51       		.byte	0x51
 8584 1861 02       		.uleb128 0x2
 8585 1862 08       		.byte	0x8
 8586 1863 51       		.byte	0x51
 8587 1864 00       		.byte	0
 8588 1865 18       		.uleb128 0x18
 8589 1866 A4000000 		.4byte	.LVL381
 8590 186a D72E0000 		.4byte	0x2ed7
 8591 186e 79180000 		.4byte	0x1879
 8592 1872 19       		.uleb128 0x19
 8593 1873 01       		.uleb128 0x1
 8594 1874 51       		.byte	0x51
 8595 1875 02       		.uleb128 0x2
 8596 1876 74       		.byte	0x74
 8597 1877 00       		.sleb128 0
 8598 1878 00       		.byte	0
 8599 1879 18       		.uleb128 0x18
 8600 187a B6000000 		.4byte	.LVL382
 8601 187e C02E0000 		.4byte	0x2ec0
 8602 1882 98180000 		.4byte	0x1898
 8603 1886 19       		.uleb128 0x19
 8604 1887 01       		.uleb128 0x1
 8605 1888 50       		.byte	0x50
 8606 1889 02       		.uleb128 0x2
 8607 188a 75       		.byte	0x75
 8608 188b 00       		.sleb128 0
 8609 188c 19       		.uleb128 0x19
 8610 188d 01       		.uleb128 0x1
 8611 188e 51       		.byte	0x51
ARM GAS  C:\Users\Rajesh\AppData\Local\Temp\ccMJoliC.s 			page 193


 8612 188f 01       		.uleb128 0x1
 8613 1890 30       		.byte	0x30
 8614 1891 19       		.uleb128 0x19
 8615 1892 01       		.uleb128 0x1
 8616 1893 52       		.byte	0x52
 8617 1894 02       		.uleb128 0x2
 8618 1895 91       		.byte	0x91
 8619 1896 67       		.sleb128 -25
 8620 1897 00       		.byte	0
 8621 1898 18       		.uleb128 0x18
 8622 1899 C6000000 		.4byte	.LVL385
 8623 189d CC2E0000 		.4byte	0x2ecc
 8624 18a1 B8180000 		.4byte	0x18b8
 8625 18a5 19       		.uleb128 0x19
 8626 18a6 01       		.uleb128 0x1
 8627 18a7 50       		.byte	0x50
 8628 18a8 02       		.uleb128 0x2
 8629 18a9 75       		.byte	0x75
 8630 18aa 00       		.sleb128 0
 8631 18ab 19       		.uleb128 0x19
 8632 18ac 01       		.uleb128 0x1
 8633 18ad 51       		.byte	0x51
 8634 18ae 02       		.uleb128 0x2
 8635 18af 08       		.byte	0x8
 8636 18b0 51       		.byte	0x51
 8637 18b1 19       		.uleb128 0x19
 8638 18b2 01       		.uleb128 0x1
 8639 18b3 52       		.byte	0x52
 8640 18b4 02       		.uleb128 0x2
 8641 18b5 77       		.byte	0x77
 8642 18b6 00       		.sleb128 0
 8643 18b7 00       		.byte	0
 8644 18b8 24       		.uleb128 0x24
 8645 18b9 CE000000 		.4byte	.LVL388
 8646 18bd 1B130000 		.4byte	0x131b
 8647 18c1 18       		.uleb128 0x18
 8648 18c2 EA000000 		.4byte	.LVL393
 8649 18c6 C02E0000 		.4byte	0x2ec0
 8650 18ca E0180000 		.4byte	0x18e0
 8651 18ce 19       		.uleb128 0x19
 8652 18cf 01       		.uleb128 0x1
 8653 18d0 50       		.byte	0x50
 8654 18d1 02       		.uleb128 0x2
 8655 18d2 75       		.byte	0x75
 8656 18d3 00       		.sleb128 0
 8657 18d4 19       		.uleb128 0x19
 8658 18d5 01       		.uleb128 0x1
 8659 18d6 51       		.byte	0x51
 8660 18d7 01       		.uleb128 0x1
 8661 18d8 31       		.byte	0x31
 8662 18d9 19       		.uleb128 0x19
 8663 18da 01       		.uleb128 0x1
 8664 18db 52       		.byte	0x52
 8665 18dc 02       		.uleb128 0x2
 8666 18dd 91       		.byte	0x91
 8667 18de 67       		.sleb128 -25
 8668 18df 00       		.byte	0
ARM GAS  C:\Users\Rajesh\AppData\Local\Temp\ccMJoliC.s 			page 194


 8669 18e0 18       		.uleb128 0x18
 8670 18e1 FE000000 		.4byte	.LVL395
 8671 18e5 56130000 		.4byte	0x1356
 8672 18e9 FA180000 		.4byte	0x18fa
 8673 18ed 19       		.uleb128 0x19
 8674 18ee 01       		.uleb128 0x1
 8675 18ef 50       		.byte	0x50
 8676 18f0 02       		.uleb128 0x2
 8677 18f1 75       		.byte	0x75
 8678 18f2 00       		.sleb128 0
 8679 18f3 19       		.uleb128 0x19
 8680 18f4 01       		.uleb128 0x1
 8681 18f5 51       		.byte	0x51
 8682 18f6 02       		.uleb128 0x2
 8683 18f7 76       		.byte	0x76
 8684 18f8 00       		.sleb128 0
 8685 18f9 00       		.byte	0
 8686 18fa 24       		.uleb128 0x24
 8687 18fb 04010000 		.4byte	.LVL397
 8688 18ff C0120000 		.4byte	0x12c0
 8689 1903 1A       		.uleb128 0x1a
 8690 1904 12010000 		.4byte	.LVL399
 8691 1908 E32E0000 		.4byte	0x2ee3
 8692 190c 19       		.uleb128 0x19
 8693 190d 01       		.uleb128 0x1
 8694 190e 50       		.byte	0x50
 8695 190f 02       		.uleb128 0x2
 8696 1910 75       		.byte	0x75
 8697 1911 00       		.sleb128 0
 8698 1912 19       		.uleb128 0x19
 8699 1913 01       		.uleb128 0x1
 8700 1914 51       		.byte	0x51
 8701 1915 02       		.uleb128 0x2
 8702 1916 08       		.byte	0x8
 8703 1917 71       		.byte	0x71
 8704 1918 00       		.byte	0
 8705 1919 00       		.byte	0
 8706 191a 1D       		.uleb128 0x1d
 8707 191b AF020000 		.4byte	.LASF192
 8708 191f 01       		.byte	0x1
 8709 1920 3F03     		.2byte	0x33f
 8710 1922 4B010000 		.4byte	0x14b
 8711 1926 00000000 		.4byte	.LFB16
 8712 192a 00030000 		.4byte	.LFE16-.LFB16
 8713 192e 01       		.uleb128 0x1
 8714 192f 9C       		.byte	0x9c
 8715 1930 9B1F0000 		.4byte	0x1f9b
 8716 1934 1E       		.uleb128 0x1e
 8717 1935 44657600 		.ascii	"Dev\000"
 8718 1939 01       		.byte	0x1
 8719 193a 3F03     		.2byte	0x33f
 8720 193c 02070000 		.4byte	0x702
 8721 1940 73100000 		.4byte	.LLST71
 8722 1944 1F       		.uleb128 0x1f
 8723 1945 AE120000 		.4byte	.LASF193
 8724 1949 01       		.byte	0x1
 8725 194a 4003     		.2byte	0x340
ARM GAS  C:\Users\Rajesh\AppData\Local\Temp\ccMJoliC.s 			page 195


 8726 194c 45060000 		.4byte	0x645
 8727 1950 23110000 		.4byte	.LLST72
 8728 1954 1F       		.uleb128 0x1f
 8729 1955 130B0000 		.4byte	.LASF194
 8730 1959 01       		.byte	0x1
 8731 195a 4003     		.2byte	0x340
 8732 195c C3000000 		.4byte	0xc3
 8733 1960 F3110000 		.4byte	.LLST73
 8734 1964 22       		.uleb128 0x22
 8735 1965 20020000 		.4byte	.LASF131
 8736 1969 01       		.byte	0x1
 8737 196a 4203     		.2byte	0x342
 8738 196c 4B010000 		.4byte	0x14b
 8739 1970 14120000 		.4byte	.LLST74
 8740 1974 22       		.uleb128 0x22
 8741 1975 41000000 		.4byte	.LASF141
 8742 1979 01       		.byte	0x1
 8743 197a 4303     		.2byte	0x343
 8744 197c C3000000 		.4byte	0xc3
 8745 1980 25130000 		.4byte	.LLST75
 8746 1984 25       		.uleb128 0x25
 8747 1985 36130000 		.4byte	.LASF195
 8748 1989 01       		.byte	0x1
 8749 198a 4403     		.2byte	0x344
 8750 198c C3000000 		.4byte	0xc3
 8751 1990 0C       		.byte	0xc
 8752 1991 25       		.uleb128 0x25
 8753 1992 7F0C0000 		.4byte	.LASF196
 8754 1996 01       		.byte	0x1
 8755 1997 4503     		.2byte	0x345
 8756 1999 C3000000 		.4byte	0xc3
 8757 199d 12       		.byte	0x12
 8758 199e 25       		.uleb128 0x25
 8759 199f 4C050000 		.4byte	.LASF197
 8760 19a3 01       		.byte	0x1
 8761 19a4 4603     		.2byte	0x346
 8762 19a6 C3000000 		.4byte	0xc3
 8763 19aa 08       		.byte	0x8
 8764 19ab 25       		.uleb128 0x25
 8765 19ac 12130000 		.4byte	.LASF198
 8766 19b0 01       		.byte	0x1
 8767 19b1 4703     		.2byte	0x347
 8768 19b3 C3000000 		.4byte	0xc3
 8769 19b7 0E       		.byte	0xe
 8770 19b8 22       		.uleb128 0x22
 8771 19b9 EF0A0000 		.4byte	.LASF35
 8772 19bd 01       		.byte	0x1
 8773 19be 4803     		.2byte	0x348
 8774 19c0 EF000000 		.4byte	0xef
 8775 19c4 38130000 		.4byte	.LLST76
 8776 19c8 21       		.uleb128 0x21
 8777 19c9 47090000 		.4byte	.LASF199
 8778 19cd 01       		.byte	0x1
 8779 19ce 4903     		.2byte	0x349
 8780 19d0 EF000000 		.4byte	0xef
 8781 19d4 02       		.uleb128 0x2
 8782 19d5 91       		.byte	0x91
ARM GAS  C:\Users\Rajesh\AppData\Local\Temp\ccMJoliC.s 			page 196


 8783 19d6 64       		.sleb128 -28
 8784 19d7 21       		.uleb128 0x21
 8785 19d8 53120000 		.4byte	.LASF200
 8786 19dc 01       		.byte	0x1
 8787 19dd 4A03     		.2byte	0x34a
 8788 19df EF000000 		.4byte	0xef
 8789 19e3 02       		.uleb128 0x2
 8790 19e4 91       		.byte	0x91
 8791 19e5 60       		.sleb128 -32
 8792 19e6 21       		.uleb128 0x21
 8793 19e7 11160000 		.4byte	.LASF201
 8794 19eb 01       		.byte	0x1
 8795 19ec 4B03     		.2byte	0x34b
 8796 19ee EF000000 		.4byte	0xef
 8797 19f2 02       		.uleb128 0x2
 8798 19f3 91       		.byte	0x91
 8799 19f4 5C       		.sleb128 -36
 8800 19f5 21       		.uleb128 0x21
 8801 19f6 B1160000 		.4byte	.LASF202
 8802 19fa 01       		.byte	0x1
 8803 19fb 4C03     		.2byte	0x34c
 8804 19fd C3000000 		.4byte	0xc3
 8805 1a01 02       		.uleb128 0x2
 8806 1a02 91       		.byte	0x91
 8807 1a03 5B       		.sleb128 -37
 8808 1a04 18       		.uleb128 0x18
 8809 1a05 68000000 		.4byte	.LVL425
 8810 1a09 942E0000 		.4byte	0x2e94
 8811 1a0d 231A0000 		.4byte	0x1a23
 8812 1a11 19       		.uleb128 0x19
 8813 1a12 01       		.uleb128 0x1
 8814 1a13 50       		.byte	0x50
 8815 1a14 02       		.uleb128 0x2
 8816 1a15 74       		.byte	0x74
 8817 1a16 00       		.sleb128 0
 8818 1a17 19       		.uleb128 0x19
 8819 1a18 01       		.uleb128 0x1
 8820 1a19 51       		.byte	0x51
 8821 1a1a 02       		.uleb128 0x2
 8822 1a1b 08       		.byte	0x8
 8823 1a1c 57       		.byte	0x57
 8824 1a1d 19       		.uleb128 0x19
 8825 1a1e 01       		.uleb128 0x1
 8826 1a1f 52       		.byte	0x52
 8827 1a20 01       		.uleb128 0x1
 8828 1a21 48       		.byte	0x48
 8829 1a22 00       		.byte	0
 8830 1a23 18       		.uleb128 0x18
 8831 1a24 72000000 		.4byte	.LVL426
 8832 1a28 942E0000 		.4byte	0x2e94
 8833 1a2c 421A0000 		.4byte	0x1a42
 8834 1a30 19       		.uleb128 0x19
 8835 1a31 01       		.uleb128 0x1
 8836 1a32 50       		.byte	0x50
 8837 1a33 02       		.uleb128 0x2
 8838 1a34 74       		.byte	0x74
 8839 1a35 00       		.sleb128 0
ARM GAS  C:\Users\Rajesh\AppData\Local\Temp\ccMJoliC.s 			page 197


 8840 1a36 19       		.uleb128 0x19
 8841 1a37 01       		.uleb128 0x1
 8842 1a38 51       		.byte	0x51
 8843 1a39 02       		.uleb128 0x2
 8844 1a3a 08       		.byte	0x8
 8845 1a3b 56       		.byte	0x56
 8846 1a3c 19       		.uleb128 0x19
 8847 1a3d 01       		.uleb128 0x1
 8848 1a3e 52       		.byte	0x52
 8849 1a3f 01       		.uleb128 0x1
 8850 1a40 38       		.byte	0x38
 8851 1a41 00       		.byte	0
 8852 1a42 18       		.uleb128 0x18
 8853 1a43 82000000 		.4byte	.LVL430
 8854 1a47 942E0000 		.4byte	0x2e94
 8855 1a4b 621A0000 		.4byte	0x1a62
 8856 1a4f 19       		.uleb128 0x19
 8857 1a50 01       		.uleb128 0x1
 8858 1a51 50       		.byte	0x50
 8859 1a52 02       		.uleb128 0x2
 8860 1a53 74       		.byte	0x74
 8861 1a54 00       		.sleb128 0
 8862 1a55 19       		.uleb128 0x19
 8863 1a56 01       		.uleb128 0x1
 8864 1a57 51       		.byte	0x51
 8865 1a58 02       		.uleb128 0x2
 8866 1a59 08       		.byte	0x8
 8867 1a5a 57       		.byte	0x57
 8868 1a5b 19       		.uleb128 0x19
 8869 1a5c 01       		.uleb128 0x1
 8870 1a5d 52       		.byte	0x52
 8871 1a5e 02       		.uleb128 0x2
 8872 1a5f 08       		.byte	0x8
 8873 1a60 30       		.byte	0x30
 8874 1a61 00       		.byte	0
 8875 1a62 18       		.uleb128 0x18
 8876 1a63 8C000000 		.4byte	.LVL431
 8877 1a67 942E0000 		.4byte	0x2e94
 8878 1a6b 811A0000 		.4byte	0x1a81
 8879 1a6f 19       		.uleb128 0x19
 8880 1a70 01       		.uleb128 0x1
 8881 1a71 50       		.byte	0x50
 8882 1a72 02       		.uleb128 0x2
 8883 1a73 74       		.byte	0x74
 8884 1a74 00       		.sleb128 0
 8885 1a75 19       		.uleb128 0x19
 8886 1a76 01       		.uleb128 0x1
 8887 1a77 51       		.byte	0x51
 8888 1a78 02       		.uleb128 0x2
 8889 1a79 08       		.byte	0x8
 8890 1a7a 56       		.byte	0x56
 8891 1a7b 19       		.uleb128 0x19
 8892 1a7c 01       		.uleb128 0x1
 8893 1a7d 52       		.byte	0x52
 8894 1a7e 01       		.uleb128 0x1
 8895 1a7f 38       		.byte	0x38
 8896 1a80 00       		.byte	0
ARM GAS  C:\Users\Rajesh\AppData\Local\Temp\ccMJoliC.s 			page 198


 8897 1a81 18       		.uleb128 0x18
 8898 1a82 9C000000 		.4byte	.LVL435
 8899 1a86 942E0000 		.4byte	0x2e94
 8900 1a8a A11A0000 		.4byte	0x1aa1
 8901 1a8e 19       		.uleb128 0x19
 8902 1a8f 01       		.uleb128 0x1
 8903 1a90 50       		.byte	0x50
 8904 1a91 02       		.uleb128 0x2
 8905 1a92 74       		.byte	0x74
 8906 1a93 00       		.sleb128 0
 8907 1a94 19       		.uleb128 0x19
 8908 1a95 01       		.uleb128 0x1
 8909 1a96 51       		.byte	0x51
 8910 1a97 02       		.uleb128 0x2
 8911 1a98 08       		.byte	0x8
 8912 1a99 57       		.byte	0x57
 8913 1a9a 19       		.uleb128 0x19
 8914 1a9b 01       		.uleb128 0x1
 8915 1a9c 52       		.byte	0x52
 8916 1a9d 02       		.uleb128 0x2
 8917 1a9e 08       		.byte	0x8
 8918 1a9f 40       		.byte	0x40
 8919 1aa0 00       		.byte	0
 8920 1aa1 18       		.uleb128 0x18
 8921 1aa2 A6000000 		.4byte	.LVL436
 8922 1aa6 942E0000 		.4byte	0x2e94
 8923 1aaa C01A0000 		.4byte	0x1ac0
 8924 1aae 19       		.uleb128 0x19
 8925 1aaf 01       		.uleb128 0x1
 8926 1ab0 50       		.byte	0x50
 8927 1ab1 02       		.uleb128 0x2
 8928 1ab2 74       		.byte	0x74
 8929 1ab3 00       		.sleb128 0
 8930 1ab4 19       		.uleb128 0x19
 8931 1ab5 01       		.uleb128 0x1
 8932 1ab6 51       		.byte	0x51
 8933 1ab7 02       		.uleb128 0x2
 8934 1ab8 08       		.byte	0x8
 8935 1ab9 56       		.byte	0x56
 8936 1aba 19       		.uleb128 0x19
 8937 1abb 01       		.uleb128 0x1
 8938 1abc 52       		.byte	0x52
 8939 1abd 01       		.uleb128 0x1
 8940 1abe 38       		.byte	0x38
 8941 1abf 00       		.byte	0
 8942 1ac0 18       		.uleb128 0x18
 8943 1ac1 B8000000 		.4byte	.LVL440
 8944 1ac5 942E0000 		.4byte	0x2e94
 8945 1ac9 E01A0000 		.4byte	0x1ae0
 8946 1acd 19       		.uleb128 0x19
 8947 1ace 01       		.uleb128 0x1
 8948 1acf 50       		.byte	0x50
 8949 1ad0 02       		.uleb128 0x2
 8950 1ad1 74       		.byte	0x74
 8951 1ad2 00       		.sleb128 0
 8952 1ad3 19       		.uleb128 0x19
 8953 1ad4 01       		.uleb128 0x1
ARM GAS  C:\Users\Rajesh\AppData\Local\Temp\ccMJoliC.s 			page 199


 8954 1ad5 51       		.byte	0x51
 8955 1ad6 02       		.uleb128 0x2
 8956 1ad7 08       		.byte	0x8
 8957 1ad8 57       		.byte	0x57
 8958 1ad9 19       		.uleb128 0x19
 8959 1ada 01       		.uleb128 0x1
 8960 1adb 52       		.byte	0x52
 8961 1adc 02       		.uleb128 0x2
 8962 1add 08       		.byte	0x8
 8963 1ade 50       		.byte	0x50
 8964 1adf 00       		.byte	0
 8965 1ae0 18       		.uleb128 0x18
 8966 1ae1 C2000000 		.4byte	.LVL441
 8967 1ae5 942E0000 		.4byte	0x2e94
 8968 1ae9 FF1A0000 		.4byte	0x1aff
 8969 1aed 19       		.uleb128 0x19
 8970 1aee 01       		.uleb128 0x1
 8971 1aef 50       		.byte	0x50
 8972 1af0 02       		.uleb128 0x2
 8973 1af1 74       		.byte	0x74
 8974 1af2 00       		.sleb128 0
 8975 1af3 19       		.uleb128 0x19
 8976 1af4 01       		.uleb128 0x1
 8977 1af5 51       		.byte	0x51
 8978 1af6 02       		.uleb128 0x2
 8979 1af7 08       		.byte	0x8
 8980 1af8 56       		.byte	0x56
 8981 1af9 19       		.uleb128 0x19
 8982 1afa 01       		.uleb128 0x1
 8983 1afb 52       		.byte	0x52
 8984 1afc 01       		.uleb128 0x1
 8985 1afd 38       		.byte	0x38
 8986 1afe 00       		.byte	0
 8987 1aff 18       		.uleb128 0x18
 8988 1b00 D8000000 		.4byte	.LVL445
 8989 1b04 942E0000 		.4byte	0x2e94
 8990 1b08 1E1B0000 		.4byte	0x1b1e
 8991 1b0c 19       		.uleb128 0x19
 8992 1b0d 01       		.uleb128 0x1
 8993 1b0e 50       		.byte	0x50
 8994 1b0f 02       		.uleb128 0x2
 8995 1b10 74       		.byte	0x74
 8996 1b11 00       		.sleb128 0
 8997 1b12 19       		.uleb128 0x19
 8998 1b13 01       		.uleb128 0x1
 8999 1b14 51       		.byte	0x51
 9000 1b15 02       		.uleb128 0x2
 9001 1b16 08       		.byte	0x8
 9002 1b17 48       		.byte	0x48
 9003 1b18 19       		.uleb128 0x19
 9004 1b19 01       		.uleb128 0x1
 9005 1b1a 52       		.byte	0x52
 9006 1b1b 01       		.uleb128 0x1
 9007 1b1c 40       		.byte	0x40
 9008 1b1d 00       		.byte	0
 9009 1b1e 18       		.uleb128 0x18
 9010 1b1f E2000000 		.4byte	.LVL446
ARM GAS  C:\Users\Rajesh\AppData\Local\Temp\ccMJoliC.s 			page 200


 9011 1b23 942E0000 		.4byte	0x2e94
 9012 1b27 3D1B0000 		.4byte	0x1b3d
 9013 1b2b 19       		.uleb128 0x19
 9014 1b2c 01       		.uleb128 0x1
 9015 1b2d 50       		.byte	0x50
 9016 1b2e 02       		.uleb128 0x2
 9017 1b2f 74       		.byte	0x74
 9018 1b30 00       		.sleb128 0
 9019 1b31 19       		.uleb128 0x19
 9020 1b32 01       		.uleb128 0x1
 9021 1b33 51       		.byte	0x51
 9022 1b34 02       		.uleb128 0x2
 9023 1b35 08       		.byte	0x8
 9024 1b36 47       		.byte	0x47
 9025 1b37 19       		.uleb128 0x19
 9026 1b38 01       		.uleb128 0x1
 9027 1b39 52       		.byte	0x52
 9028 1b3a 01       		.uleb128 0x1
 9029 1b3b 38       		.byte	0x38
 9030 1b3c 00       		.byte	0
 9031 1b3d 18       		.uleb128 0x18
 9032 1b3e EE000000 		.4byte	.LVL448
 9033 1b42 942E0000 		.4byte	0x2e94
 9034 1b46 5C1B0000 		.4byte	0x1b5c
 9035 1b4a 19       		.uleb128 0x19
 9036 1b4b 01       		.uleb128 0x1
 9037 1b4c 50       		.byte	0x50
 9038 1b4d 02       		.uleb128 0x2
 9039 1b4e 74       		.byte	0x74
 9040 1b4f 00       		.sleb128 0
 9041 1b50 19       		.uleb128 0x19
 9042 1b51 01       		.uleb128 0x1
 9043 1b52 51       		.byte	0x51
 9044 1b53 02       		.uleb128 0x2
 9045 1b54 08       		.byte	0x8
 9046 1b55 32       		.byte	0x32
 9047 1b56 19       		.uleb128 0x19
 9048 1b57 01       		.uleb128 0x1
 9049 1b58 52       		.byte	0x52
 9050 1b59 01       		.uleb128 0x1
 9051 1b5a 32       		.byte	0x32
 9052 1b5b 00       		.byte	0
 9053 1b5c 18       		.uleb128 0x18
 9054 1b5d FC000000 		.4byte	.LVL450
 9055 1b61 942E0000 		.4byte	0x2e94
 9056 1b65 7B1B0000 		.4byte	0x1b7b
 9057 1b69 19       		.uleb128 0x19
 9058 1b6a 01       		.uleb128 0x1
 9059 1b6b 50       		.byte	0x50
 9060 1b6c 02       		.uleb128 0x2
 9061 1b6d 74       		.byte	0x74
 9062 1b6e 00       		.sleb128 0
 9063 1b6f 19       		.uleb128 0x19
 9064 1b70 01       		.uleb128 0x1
 9065 1b71 51       		.byte	0x51
 9066 1b72 02       		.uleb128 0x2
 9067 1b73 08       		.byte	0x8
ARM GAS  C:\Users\Rajesh\AppData\Local\Temp\ccMJoliC.s 			page 201


 9068 1b74 30       		.byte	0x30
 9069 1b75 19       		.uleb128 0x19
 9070 1b76 01       		.uleb128 0x1
 9071 1b77 52       		.byte	0x52
 9072 1b78 01       		.uleb128 0x1
 9073 1b79 3C       		.byte	0x3c
 9074 1b7a 00       		.byte	0
 9075 1b7b 18       		.uleb128 0x18
 9076 1b7c 0A010000 		.4byte	.LVL452
 9077 1b80 942E0000 		.4byte	0x2e94
 9078 1b84 9A1B0000 		.4byte	0x1b9a
 9079 1b88 19       		.uleb128 0x19
 9080 1b89 01       		.uleb128 0x1
 9081 1b8a 50       		.byte	0x50
 9082 1b8b 02       		.uleb128 0x2
 9083 1b8c 74       		.byte	0x74
 9084 1b8d 00       		.sleb128 0
 9085 1b8e 19       		.uleb128 0x19
 9086 1b8f 01       		.uleb128 0x1
 9087 1b90 51       		.byte	0x51
 9088 1b91 02       		.uleb128 0x2
 9089 1b92 09       		.byte	0x9
 9090 1b93 FF       		.byte	0xff
 9091 1b94 19       		.uleb128 0x19
 9092 1b95 01       		.uleb128 0x1
 9093 1b96 52       		.byte	0x52
 9094 1b97 01       		.uleb128 0x1
 9095 1b98 31       		.byte	0x31
 9096 1b99 00       		.byte	0
 9097 1b9a 18       		.uleb128 0x18
 9098 1b9b 18010000 		.4byte	.LVL454
 9099 1b9f 942E0000 		.4byte	0x2e94
 9100 1ba3 BA1B0000 		.4byte	0x1bba
 9101 1ba7 19       		.uleb128 0x19
 9102 1ba8 01       		.uleb128 0x1
 9103 1ba9 50       		.byte	0x50
 9104 1baa 02       		.uleb128 0x2
 9105 1bab 74       		.byte	0x74
 9106 1bac 00       		.sleb128 0
 9107 1bad 19       		.uleb128 0x19
 9108 1bae 01       		.uleb128 0x1
 9109 1baf 51       		.byte	0x51
 9110 1bb0 02       		.uleb128 0x2
 9111 1bb1 08       		.byte	0x8
 9112 1bb2 30       		.byte	0x30
 9113 1bb3 19       		.uleb128 0x19
 9114 1bb4 01       		.uleb128 0x1
 9115 1bb5 52       		.byte	0x52
 9116 1bb6 02       		.uleb128 0x2
 9117 1bb7 08       		.byte	0x8
 9118 1bb8 30       		.byte	0x30
 9119 1bb9 00       		.byte	0
 9120 1bba 18       		.uleb128 0x18
 9121 1bbb 26010000 		.4byte	.LVL456
 9122 1bbf 942E0000 		.4byte	0x2e94
 9123 1bc3 D91B0000 		.4byte	0x1bd9
 9124 1bc7 19       		.uleb128 0x19
ARM GAS  C:\Users\Rajesh\AppData\Local\Temp\ccMJoliC.s 			page 202


 9125 1bc8 01       		.uleb128 0x1
 9126 1bc9 50       		.byte	0x50
 9127 1bca 02       		.uleb128 0x2
 9128 1bcb 74       		.byte	0x74
 9129 1bcc 00       		.sleb128 0
 9130 1bcd 19       		.uleb128 0x19
 9131 1bce 01       		.uleb128 0x1
 9132 1bcf 51       		.byte	0x51
 9133 1bd0 02       		.uleb128 0x2
 9134 1bd1 09       		.byte	0x9
 9135 1bd2 FF       		.byte	0xff
 9136 1bd3 19       		.uleb128 0x19
 9137 1bd4 01       		.uleb128 0x1
 9138 1bd5 52       		.byte	0x52
 9139 1bd6 01       		.uleb128 0x1
 9140 1bd7 30       		.byte	0x30
 9141 1bd8 00       		.byte	0
 9142 1bd9 18       		.uleb128 0x18
 9143 1bda 3A010000 		.4byte	.LVL461
 9144 1bde 942E0000 		.4byte	0x2e94
 9145 1be2 F91B0000 		.4byte	0x1bf9
 9146 1be6 19       		.uleb128 0x19
 9147 1be7 01       		.uleb128 0x1
 9148 1be8 50       		.byte	0x50
 9149 1be9 02       		.uleb128 0x2
 9150 1bea 74       		.byte	0x74
 9151 1beb 00       		.sleb128 0
 9152 1bec 19       		.uleb128 0x19
 9153 1bed 01       		.uleb128 0x1
 9154 1bee 51       		.byte	0x51
 9155 1bef 02       		.uleb128 0x2
 9156 1bf0 08       		.byte	0x8
 9157 1bf1 48       		.byte	0x48
 9158 1bf2 19       		.uleb128 0x19
 9159 1bf3 01       		.uleb128 0x1
 9160 1bf4 52       		.byte	0x52
 9161 1bf5 02       		.uleb128 0x2
 9162 1bf6 08       		.byte	0x8
 9163 1bf7 28       		.byte	0x28
 9164 1bf8 00       		.byte	0
 9165 1bf9 18       		.uleb128 0x18
 9166 1bfa 44010000 		.4byte	.LVL462
 9167 1bfe 942E0000 		.4byte	0x2e94
 9168 1c02 181C0000 		.4byte	0x1c18
 9169 1c06 19       		.uleb128 0x19
 9170 1c07 01       		.uleb128 0x1
 9171 1c08 50       		.byte	0x50
 9172 1c09 02       		.uleb128 0x2
 9173 1c0a 74       		.byte	0x74
 9174 1c0b 00       		.sleb128 0
 9175 1c0c 19       		.uleb128 0x19
 9176 1c0d 01       		.uleb128 0x1
 9177 1c0e 51       		.byte	0x51
 9178 1c0f 02       		.uleb128 0x2
 9179 1c10 08       		.byte	0x8
 9180 1c11 47       		.byte	0x47
 9181 1c12 19       		.uleb128 0x19
ARM GAS  C:\Users\Rajesh\AppData\Local\Temp\ccMJoliC.s 			page 203


 9182 1c13 01       		.uleb128 0x1
 9183 1c14 52       		.byte	0x52
 9184 1c15 01       		.uleb128 0x1
 9185 1c16 38       		.byte	0x38
 9186 1c17 00       		.byte	0
 9187 1c18 18       		.uleb128 0x18
 9188 1c19 50010000 		.4byte	.LVL464
 9189 1c1d 942E0000 		.4byte	0x2e94
 9190 1c21 371C0000 		.4byte	0x1c37
 9191 1c25 19       		.uleb128 0x19
 9192 1c26 01       		.uleb128 0x1
 9193 1c27 50       		.byte	0x50
 9194 1c28 02       		.uleb128 0x2
 9195 1c29 74       		.byte	0x74
 9196 1c2a 00       		.sleb128 0
 9197 1c2b 19       		.uleb128 0x19
 9198 1c2c 01       		.uleb128 0x1
 9199 1c2d 51       		.byte	0x51
 9200 1c2e 02       		.uleb128 0x2
 9201 1c2f 08       		.byte	0x8
 9202 1c30 32       		.byte	0x32
 9203 1c31 19       		.uleb128 0x19
 9204 1c32 01       		.uleb128 0x1
 9205 1c33 52       		.byte	0x52
 9206 1c34 01       		.uleb128 0x1
 9207 1c35 33       		.byte	0x33
 9208 1c36 00       		.byte	0
 9209 1c37 18       		.uleb128 0x18
 9210 1c38 5E010000 		.4byte	.LVL466
 9211 1c3c 942E0000 		.4byte	0x2e94
 9212 1c40 561C0000 		.4byte	0x1c56
 9213 1c44 19       		.uleb128 0x19
 9214 1c45 01       		.uleb128 0x1
 9215 1c46 50       		.byte	0x50
 9216 1c47 02       		.uleb128 0x2
 9217 1c48 74       		.byte	0x74
 9218 1c49 00       		.sleb128 0
 9219 1c4a 19       		.uleb128 0x19
 9220 1c4b 01       		.uleb128 0x1
 9221 1c4c 51       		.byte	0x51
 9222 1c4d 02       		.uleb128 0x2
 9223 1c4e 08       		.byte	0x8
 9224 1c4f 30       		.byte	0x30
 9225 1c50 19       		.uleb128 0x19
 9226 1c51 01       		.uleb128 0x1
 9227 1c52 52       		.byte	0x52
 9228 1c53 01       		.uleb128 0x1
 9229 1c54 39       		.byte	0x39
 9230 1c55 00       		.byte	0
 9231 1c56 18       		.uleb128 0x18
 9232 1c57 6C010000 		.4byte	.LVL468
 9233 1c5b 942E0000 		.4byte	0x2e94
 9234 1c5f 751C0000 		.4byte	0x1c75
 9235 1c63 19       		.uleb128 0x19
 9236 1c64 01       		.uleb128 0x1
 9237 1c65 50       		.byte	0x50
 9238 1c66 02       		.uleb128 0x2
ARM GAS  C:\Users\Rajesh\AppData\Local\Temp\ccMJoliC.s 			page 204


 9239 1c67 74       		.byte	0x74
 9240 1c68 00       		.sleb128 0
 9241 1c69 19       		.uleb128 0x19
 9242 1c6a 01       		.uleb128 0x1
 9243 1c6b 51       		.byte	0x51
 9244 1c6c 02       		.uleb128 0x2
 9245 1c6d 09       		.byte	0x9
 9246 1c6e FF       		.byte	0xff
 9247 1c6f 19       		.uleb128 0x19
 9248 1c70 01       		.uleb128 0x1
 9249 1c71 52       		.byte	0x52
 9250 1c72 01       		.uleb128 0x1
 9251 1c73 31       		.byte	0x31
 9252 1c74 00       		.byte	0
 9253 1c75 18       		.uleb128 0x18
 9254 1c76 7A010000 		.4byte	.LVL470
 9255 1c7a 942E0000 		.4byte	0x2e94
 9256 1c7e 951C0000 		.4byte	0x1c95
 9257 1c82 19       		.uleb128 0x19
 9258 1c83 01       		.uleb128 0x1
 9259 1c84 50       		.byte	0x50
 9260 1c85 02       		.uleb128 0x2
 9261 1c86 74       		.byte	0x74
 9262 1c87 00       		.sleb128 0
 9263 1c88 19       		.uleb128 0x19
 9264 1c89 01       		.uleb128 0x1
 9265 1c8a 51       		.byte	0x51
 9266 1c8b 02       		.uleb128 0x2
 9267 1c8c 08       		.byte	0x8
 9268 1c8d 30       		.byte	0x30
 9269 1c8e 19       		.uleb128 0x19
 9270 1c8f 01       		.uleb128 0x1
 9271 1c90 52       		.byte	0x52
 9272 1c91 02       		.uleb128 0x2
 9273 1c92 08       		.byte	0x8
 9274 1c93 20       		.byte	0x20
 9275 1c94 00       		.byte	0
 9276 1c95 18       		.uleb128 0x18
 9277 1c96 88010000 		.4byte	.LVL472
 9278 1c9a 942E0000 		.4byte	0x2e94
 9279 1c9e B41C0000 		.4byte	0x1cb4
 9280 1ca2 19       		.uleb128 0x19
 9281 1ca3 01       		.uleb128 0x1
 9282 1ca4 50       		.byte	0x50
 9283 1ca5 02       		.uleb128 0x2
 9284 1ca6 74       		.byte	0x74
 9285 1ca7 00       		.sleb128 0
 9286 1ca8 19       		.uleb128 0x19
 9287 1ca9 01       		.uleb128 0x1
 9288 1caa 51       		.byte	0x51
 9289 1cab 02       		.uleb128 0x2
 9290 1cac 09       		.byte	0x9
 9291 1cad FF       		.byte	0xff
 9292 1cae 19       		.uleb128 0x19
 9293 1caf 01       		.uleb128 0x1
 9294 1cb0 52       		.byte	0x52
 9295 1cb1 01       		.uleb128 0x1
ARM GAS  C:\Users\Rajesh\AppData\Local\Temp\ccMJoliC.s 			page 205


 9296 1cb2 30       		.byte	0x30
 9297 1cb3 00       		.byte	0
 9298 1cb4 18       		.uleb128 0x18
 9299 1cb5 9C010000 		.4byte	.LVL477
 9300 1cb9 942E0000 		.4byte	0x2e94
 9301 1cbd D41C0000 		.4byte	0x1cd4
 9302 1cc1 19       		.uleb128 0x19
 9303 1cc2 01       		.uleb128 0x1
 9304 1cc3 50       		.byte	0x50
 9305 1cc4 02       		.uleb128 0x2
 9306 1cc5 74       		.byte	0x74
 9307 1cc6 00       		.sleb128 0
 9308 1cc7 19       		.uleb128 0x19
 9309 1cc8 01       		.uleb128 0x1
 9310 1cc9 51       		.byte	0x51
 9311 1cca 02       		.uleb128 0x2
 9312 1ccb 08       		.byte	0x8
 9313 1ccc 48       		.byte	0x48
 9314 1ccd 19       		.uleb128 0x19
 9315 1cce 01       		.uleb128 0x1
 9316 1ccf 52       		.byte	0x52
 9317 1cd0 02       		.uleb128 0x2
 9318 1cd1 08       		.byte	0x8
 9319 1cd2 38       		.byte	0x38
 9320 1cd3 00       		.byte	0
 9321 1cd4 18       		.uleb128 0x18
 9322 1cd5 A6010000 		.4byte	.LVL478
 9323 1cd9 942E0000 		.4byte	0x2e94
 9324 1cdd F31C0000 		.4byte	0x1cf3
 9325 1ce1 19       		.uleb128 0x19
 9326 1ce2 01       		.uleb128 0x1
 9327 1ce3 50       		.byte	0x50
 9328 1ce4 02       		.uleb128 0x2
 9329 1ce5 74       		.byte	0x74
 9330 1ce6 00       		.sleb128 0
 9331 1ce7 19       		.uleb128 0x19
 9332 1ce8 01       		.uleb128 0x1
 9333 1ce9 51       		.byte	0x51
 9334 1cea 02       		.uleb128 0x2
 9335 1ceb 08       		.byte	0x8
 9336 1cec 47       		.byte	0x47
 9337 1ced 19       		.uleb128 0x19
 9338 1cee 01       		.uleb128 0x1
 9339 1cef 52       		.byte	0x52
 9340 1cf0 01       		.uleb128 0x1
 9341 1cf1 38       		.byte	0x38
 9342 1cf2 00       		.byte	0
 9343 1cf3 18       		.uleb128 0x18
 9344 1cf4 B2010000 		.4byte	.LVL480
 9345 1cf8 942E0000 		.4byte	0x2e94
 9346 1cfc 121D0000 		.4byte	0x1d12
 9347 1d00 19       		.uleb128 0x19
 9348 1d01 01       		.uleb128 0x1
 9349 1d02 50       		.byte	0x50
 9350 1d03 02       		.uleb128 0x2
 9351 1d04 74       		.byte	0x74
 9352 1d05 00       		.sleb128 0
ARM GAS  C:\Users\Rajesh\AppData\Local\Temp\ccMJoliC.s 			page 206


 9353 1d06 19       		.uleb128 0x19
 9354 1d07 01       		.uleb128 0x1
 9355 1d08 51       		.byte	0x51
 9356 1d09 02       		.uleb128 0x2
 9357 1d0a 08       		.byte	0x8
 9358 1d0b 32       		.byte	0x32
 9359 1d0c 19       		.uleb128 0x19
 9360 1d0d 01       		.uleb128 0x1
 9361 1d0e 52       		.byte	0x52
 9362 1d0f 01       		.uleb128 0x1
 9363 1d10 33       		.byte	0x33
 9364 1d11 00       		.byte	0
 9365 1d12 18       		.uleb128 0x18
 9366 1d13 C0010000 		.4byte	.LVL482
 9367 1d17 942E0000 		.4byte	0x2e94
 9368 1d1b 311D0000 		.4byte	0x1d31
 9369 1d1f 19       		.uleb128 0x19
 9370 1d20 01       		.uleb128 0x1
 9371 1d21 50       		.byte	0x50
 9372 1d22 02       		.uleb128 0x2
 9373 1d23 74       		.byte	0x74
 9374 1d24 00       		.sleb128 0
 9375 1d25 19       		.uleb128 0x19
 9376 1d26 01       		.uleb128 0x1
 9377 1d27 51       		.byte	0x51
 9378 1d28 02       		.uleb128 0x2
 9379 1d29 08       		.byte	0x8
 9380 1d2a 30       		.byte	0x30
 9381 1d2b 19       		.uleb128 0x19
 9382 1d2c 01       		.uleb128 0x1
 9383 1d2d 52       		.byte	0x52
 9384 1d2e 01       		.uleb128 0x1
 9385 1d2f 38       		.byte	0x38
 9386 1d30 00       		.byte	0
 9387 1d31 18       		.uleb128 0x18
 9388 1d32 CE010000 		.4byte	.LVL484
 9389 1d36 942E0000 		.4byte	0x2e94
 9390 1d3a 501D0000 		.4byte	0x1d50
 9391 1d3e 19       		.uleb128 0x19
 9392 1d3f 01       		.uleb128 0x1
 9393 1d40 50       		.byte	0x50
 9394 1d41 02       		.uleb128 0x2
 9395 1d42 74       		.byte	0x74
 9396 1d43 00       		.sleb128 0
 9397 1d44 19       		.uleb128 0x19
 9398 1d45 01       		.uleb128 0x1
 9399 1d46 51       		.byte	0x51
 9400 1d47 02       		.uleb128 0x2
 9401 1d48 09       		.byte	0x9
 9402 1d49 FF       		.byte	0xff
 9403 1d4a 19       		.uleb128 0x19
 9404 1d4b 01       		.uleb128 0x1
 9405 1d4c 52       		.byte	0x52
 9406 1d4d 01       		.uleb128 0x1
 9407 1d4e 31       		.byte	0x31
 9408 1d4f 00       		.byte	0
 9409 1d50 18       		.uleb128 0x18
ARM GAS  C:\Users\Rajesh\AppData\Local\Temp\ccMJoliC.s 			page 207


 9410 1d51 DC010000 		.4byte	.LVL486
 9411 1d55 942E0000 		.4byte	0x2e94
 9412 1d59 701D0000 		.4byte	0x1d70
 9413 1d5d 19       		.uleb128 0x19
 9414 1d5e 01       		.uleb128 0x1
 9415 1d5f 50       		.byte	0x50
 9416 1d60 02       		.uleb128 0x2
 9417 1d61 74       		.byte	0x74
 9418 1d62 00       		.sleb128 0
 9419 1d63 19       		.uleb128 0x19
 9420 1d64 01       		.uleb128 0x1
 9421 1d65 51       		.byte	0x51
 9422 1d66 02       		.uleb128 0x2
 9423 1d67 08       		.byte	0x8
 9424 1d68 30       		.byte	0x30
 9425 1d69 19       		.uleb128 0x19
 9426 1d6a 01       		.uleb128 0x1
 9427 1d6b 52       		.byte	0x52
 9428 1d6c 02       		.uleb128 0x2
 9429 1d6d 08       		.byte	0x8
 9430 1d6e 20       		.byte	0x20
 9431 1d6f 00       		.byte	0
 9432 1d70 18       		.uleb128 0x18
 9433 1d71 EA010000 		.4byte	.LVL488
 9434 1d75 942E0000 		.4byte	0x2e94
 9435 1d79 8F1D0000 		.4byte	0x1d8f
 9436 1d7d 19       		.uleb128 0x19
 9437 1d7e 01       		.uleb128 0x1
 9438 1d7f 50       		.byte	0x50
 9439 1d80 02       		.uleb128 0x2
 9440 1d81 74       		.byte	0x74
 9441 1d82 00       		.sleb128 0
 9442 1d83 19       		.uleb128 0x19
 9443 1d84 01       		.uleb128 0x1
 9444 1d85 51       		.byte	0x51
 9445 1d86 02       		.uleb128 0x2
 9446 1d87 09       		.byte	0x9
 9447 1d88 FF       		.byte	0xff
 9448 1d89 19       		.uleb128 0x19
 9449 1d8a 01       		.uleb128 0x1
 9450 1d8b 52       		.byte	0x52
 9451 1d8c 01       		.uleb128 0x1
 9452 1d8d 30       		.byte	0x30
 9453 1d8e 00       		.byte	0
 9454 1d8f 18       		.uleb128 0x18
 9455 1d90 FE010000 		.4byte	.LVL493
 9456 1d94 942E0000 		.4byte	0x2e94
 9457 1d98 AF1D0000 		.4byte	0x1daf
 9458 1d9c 19       		.uleb128 0x19
 9459 1d9d 01       		.uleb128 0x1
 9460 1d9e 50       		.byte	0x50
 9461 1d9f 02       		.uleb128 0x2
 9462 1da0 74       		.byte	0x74
 9463 1da1 00       		.sleb128 0
 9464 1da2 19       		.uleb128 0x19
 9465 1da3 01       		.uleb128 0x1
 9466 1da4 51       		.byte	0x51
ARM GAS  C:\Users\Rajesh\AppData\Local\Temp\ccMJoliC.s 			page 208


 9467 1da5 02       		.uleb128 0x2
 9468 1da6 08       		.byte	0x8
 9469 1da7 48       		.byte	0x48
 9470 1da8 19       		.uleb128 0x19
 9471 1da9 01       		.uleb128 0x1
 9472 1daa 52       		.byte	0x52
 9473 1dab 02       		.uleb128 0x2
 9474 1dac 08       		.byte	0x8
 9475 1dad 48       		.byte	0x48
 9476 1dae 00       		.byte	0
 9477 1daf 18       		.uleb128 0x18
 9478 1db0 08020000 		.4byte	.LVL494
 9479 1db4 942E0000 		.4byte	0x2e94
 9480 1db8 CE1D0000 		.4byte	0x1dce
 9481 1dbc 19       		.uleb128 0x19
 9482 1dbd 01       		.uleb128 0x1
 9483 1dbe 50       		.byte	0x50
 9484 1dbf 02       		.uleb128 0x2
 9485 1dc0 74       		.byte	0x74
 9486 1dc1 00       		.sleb128 0
 9487 1dc2 19       		.uleb128 0x19
 9488 1dc3 01       		.uleb128 0x1
 9489 1dc4 51       		.byte	0x51
 9490 1dc5 02       		.uleb128 0x2
 9491 1dc6 08       		.byte	0x8
 9492 1dc7 47       		.byte	0x47
 9493 1dc8 19       		.uleb128 0x19
 9494 1dc9 01       		.uleb128 0x1
 9495 1dca 52       		.byte	0x52
 9496 1dcb 01       		.uleb128 0x1
 9497 1dcc 38       		.byte	0x38
 9498 1dcd 00       		.byte	0
 9499 1dce 18       		.uleb128 0x18
 9500 1dcf 14020000 		.4byte	.LVL496
 9501 1dd3 942E0000 		.4byte	0x2e94
 9502 1dd7 ED1D0000 		.4byte	0x1ded
 9503 1ddb 19       		.uleb128 0x19
 9504 1ddc 01       		.uleb128 0x1
 9505 1ddd 50       		.byte	0x50
 9506 1dde 02       		.uleb128 0x2
 9507 1ddf 74       		.byte	0x74
 9508 1de0 00       		.sleb128 0
 9509 1de1 19       		.uleb128 0x19
 9510 1de2 01       		.uleb128 0x1
 9511 1de3 51       		.byte	0x51
 9512 1de4 02       		.uleb128 0x2
 9513 1de5 08       		.byte	0x8
 9514 1de6 32       		.byte	0x32
 9515 1de7 19       		.uleb128 0x19
 9516 1de8 01       		.uleb128 0x1
 9517 1de9 52       		.byte	0x52
 9518 1dea 01       		.uleb128 0x1
 9519 1deb 33       		.byte	0x33
 9520 1dec 00       		.byte	0
 9521 1ded 18       		.uleb128 0x18
 9522 1dee 22020000 		.4byte	.LVL498
 9523 1df2 942E0000 		.4byte	0x2e94
ARM GAS  C:\Users\Rajesh\AppData\Local\Temp\ccMJoliC.s 			page 209


 9524 1df6 0C1E0000 		.4byte	0x1e0c
 9525 1dfa 19       		.uleb128 0x19
 9526 1dfb 01       		.uleb128 0x1
 9527 1dfc 50       		.byte	0x50
 9528 1dfd 02       		.uleb128 0x2
 9529 1dfe 74       		.byte	0x74
 9530 1dff 00       		.sleb128 0
 9531 1e00 19       		.uleb128 0x19
 9532 1e01 01       		.uleb128 0x1
 9533 1e02 51       		.byte	0x51
 9534 1e03 02       		.uleb128 0x2
 9535 1e04 08       		.byte	0x8
 9536 1e05 30       		.byte	0x30
 9537 1e06 19       		.uleb128 0x19
 9538 1e07 01       		.uleb128 0x1
 9539 1e08 52       		.byte	0x52
 9540 1e09 01       		.uleb128 0x1
 9541 1e0a 37       		.byte	0x37
 9542 1e0b 00       		.byte	0
 9543 1e0c 18       		.uleb128 0x18
 9544 1e0d 30020000 		.4byte	.LVL500
 9545 1e11 942E0000 		.4byte	0x2e94
 9546 1e15 2B1E0000 		.4byte	0x1e2b
 9547 1e19 19       		.uleb128 0x19
 9548 1e1a 01       		.uleb128 0x1
 9549 1e1b 50       		.byte	0x50
 9550 1e1c 02       		.uleb128 0x2
 9551 1e1d 74       		.byte	0x74
 9552 1e1e 00       		.sleb128 0
 9553 1e1f 19       		.uleb128 0x19
 9554 1e20 01       		.uleb128 0x1
 9555 1e21 51       		.byte	0x51
 9556 1e22 02       		.uleb128 0x2
 9557 1e23 09       		.byte	0x9
 9558 1e24 FF       		.byte	0xff
 9559 1e25 19       		.uleb128 0x19
 9560 1e26 01       		.uleb128 0x1
 9561 1e27 52       		.byte	0x52
 9562 1e28 01       		.uleb128 0x1
 9563 1e29 31       		.byte	0x31
 9564 1e2a 00       		.byte	0
 9565 1e2b 18       		.uleb128 0x18
 9566 1e2c 3E020000 		.4byte	.LVL502
 9567 1e30 942E0000 		.4byte	0x2e94
 9568 1e34 4B1E0000 		.4byte	0x1e4b
 9569 1e38 19       		.uleb128 0x19
 9570 1e39 01       		.uleb128 0x1
 9571 1e3a 50       		.byte	0x50
 9572 1e3b 02       		.uleb128 0x2
 9573 1e3c 74       		.byte	0x74
 9574 1e3d 00       		.sleb128 0
 9575 1e3e 19       		.uleb128 0x19
 9576 1e3f 01       		.uleb128 0x1
 9577 1e40 51       		.byte	0x51
 9578 1e41 02       		.uleb128 0x2
 9579 1e42 08       		.byte	0x8
 9580 1e43 30       		.byte	0x30
ARM GAS  C:\Users\Rajesh\AppData\Local\Temp\ccMJoliC.s 			page 210


 9581 1e44 19       		.uleb128 0x19
 9582 1e45 01       		.uleb128 0x1
 9583 1e46 52       		.byte	0x52
 9584 1e47 02       		.uleb128 0x2
 9585 1e48 08       		.byte	0x8
 9586 1e49 20       		.byte	0x20
 9587 1e4a 00       		.byte	0
 9588 1e4b 18       		.uleb128 0x18
 9589 1e4c 4C020000 		.4byte	.LVL504
 9590 1e50 942E0000 		.4byte	0x2e94
 9591 1e54 6A1E0000 		.4byte	0x1e6a
 9592 1e58 19       		.uleb128 0x19
 9593 1e59 01       		.uleb128 0x1
 9594 1e5a 50       		.byte	0x50
 9595 1e5b 02       		.uleb128 0x2
 9596 1e5c 74       		.byte	0x74
 9597 1e5d 00       		.sleb128 0
 9598 1e5e 19       		.uleb128 0x19
 9599 1e5f 01       		.uleb128 0x1
 9600 1e60 51       		.byte	0x51
 9601 1e61 02       		.uleb128 0x2
 9602 1e62 09       		.byte	0x9
 9603 1e63 FF       		.byte	0xff
 9604 1e64 19       		.uleb128 0x19
 9605 1e65 01       		.uleb128 0x1
 9606 1e66 52       		.byte	0x52
 9607 1e67 01       		.uleb128 0x1
 9608 1e68 30       		.byte	0x30
 9609 1e69 00       		.byte	0
 9610 1e6a 18       		.uleb128 0x18
 9611 1e6b 5A020000 		.4byte	.LVL507
 9612 1e6f 48080000 		.4byte	0x848
 9613 1e73 7E1E0000 		.4byte	0x1e7e
 9614 1e77 19       		.uleb128 0x19
 9615 1e78 01       		.uleb128 0x1
 9616 1e79 50       		.byte	0x50
 9617 1e7a 02       		.uleb128 0x2
 9618 1e7b 76       		.byte	0x76
 9619 1e7c 00       		.sleb128 0
 9620 1e7d 00       		.byte	0
 9621 1e7e 18       		.uleb128 0x18
 9622 1e7f 70020000 		.4byte	.LVL509
 9623 1e83 6E140000 		.4byte	0x146e
 9624 1e87 9D1E0000 		.4byte	0x1e9d
 9625 1e8b 19       		.uleb128 0x19
 9626 1e8c 01       		.uleb128 0x1
 9627 1e8d 50       		.byte	0x50
 9628 1e8e 02       		.uleb128 0x2
 9629 1e8f 74       		.byte	0x74
 9630 1e90 00       		.sleb128 0
 9631 1e91 19       		.uleb128 0x19
 9632 1e92 01       		.uleb128 0x1
 9633 1e93 51       		.byte	0x51
 9634 1e94 01       		.uleb128 0x1
 9635 1e95 33       		.byte	0x33
 9636 1e96 19       		.uleb128 0x19
 9637 1e97 01       		.uleb128 0x1
ARM GAS  C:\Users\Rajesh\AppData\Local\Temp\ccMJoliC.s 			page 211


 9638 1e98 52       		.byte	0x52
 9639 1e99 02       		.uleb128 0x2
 9640 1e9a 91       		.byte	0x91
 9641 1e9b 60       		.sleb128 -32
 9642 1e9c 00       		.byte	0
 9643 1e9d 18       		.uleb128 0x18
 9644 1e9e 7E020000 		.4byte	.LVL511
 9645 1ea2 6E140000 		.4byte	0x146e
 9646 1ea6 BC1E0000 		.4byte	0x1ebc
 9647 1eaa 19       		.uleb128 0x19
 9648 1eab 01       		.uleb128 0x1
 9649 1eac 50       		.byte	0x50
 9650 1ead 02       		.uleb128 0x2
 9651 1eae 74       		.byte	0x74
 9652 1eaf 00       		.sleb128 0
 9653 1eb0 19       		.uleb128 0x19
 9654 1eb1 01       		.uleb128 0x1
 9655 1eb2 51       		.byte	0x51
 9656 1eb3 01       		.uleb128 0x1
 9657 1eb4 32       		.byte	0x32
 9658 1eb5 19       		.uleb128 0x19
 9659 1eb6 01       		.uleb128 0x1
 9660 1eb7 52       		.byte	0x52
 9661 1eb8 02       		.uleb128 0x2
 9662 1eb9 91       		.byte	0x91
 9663 1eba 5C       		.sleb128 -36
 9664 1ebb 00       		.byte	0
 9665 1ebc 18       		.uleb128 0x18
 9666 1ebd 8C020000 		.4byte	.LVL513
 9667 1ec1 942E0000 		.4byte	0x2e94
 9668 1ec5 DC1E0000 		.4byte	0x1edc
 9669 1ec9 19       		.uleb128 0x19
 9670 1eca 01       		.uleb128 0x1
 9671 1ecb 50       		.byte	0x50
 9672 1ecc 02       		.uleb128 0x2
 9673 1ecd 74       		.byte	0x74
 9674 1ece 00       		.sleb128 0
 9675 1ecf 19       		.uleb128 0x19
 9676 1ed0 01       		.uleb128 0x1
 9677 1ed1 51       		.byte	0x51
 9678 1ed2 02       		.uleb128 0x2
 9679 1ed3 08       		.byte	0x8
 9680 1ed4 50       		.byte	0x50
 9681 1ed5 19       		.uleb128 0x19
 9682 1ed6 01       		.uleb128 0x1
 9683 1ed7 52       		.byte	0x52
 9684 1ed8 02       		.uleb128 0x2
 9685 1ed9 75       		.byte	0x75
 9686 1eda 00       		.sleb128 0
 9687 1edb 00       		.byte	0
 9688 1edc 18       		.uleb128 0x18
 9689 1edd 9A020000 		.4byte	.LVL515
 9690 1ee1 DF160000 		.4byte	0x16df
 9691 1ee5 F51E0000 		.4byte	0x1ef5
 9692 1ee9 19       		.uleb128 0x19
 9693 1eea 01       		.uleb128 0x1
 9694 1eeb 50       		.byte	0x50
ARM GAS  C:\Users\Rajesh\AppData\Local\Temp\ccMJoliC.s 			page 212


 9695 1eec 02       		.uleb128 0x2
 9696 1eed 74       		.byte	0x74
 9697 1eee 00       		.sleb128 0
 9698 1eef 19       		.uleb128 0x19
 9699 1ef0 01       		.uleb128 0x1
 9700 1ef1 51       		.byte	0x51
 9701 1ef2 01       		.uleb128 0x1
 9702 1ef3 33       		.byte	0x33
 9703 1ef4 00       		.byte	0
 9704 1ef5 18       		.uleb128 0x18
 9705 1ef6 A8020000 		.4byte	.LVL517
 9706 1efa DF160000 		.4byte	0x16df
 9707 1efe 0E1F0000 		.4byte	0x1f0e
 9708 1f02 19       		.uleb128 0x19
 9709 1f03 01       		.uleb128 0x1
 9710 1f04 50       		.byte	0x50
 9711 1f05 02       		.uleb128 0x2
 9712 1f06 74       		.byte	0x74
 9713 1f07 00       		.sleb128 0
 9714 1f08 19       		.uleb128 0x19
 9715 1f09 01       		.uleb128 0x1
 9716 1f0a 51       		.byte	0x51
 9717 1f0b 01       		.uleb128 0x1
 9718 1f0c 32       		.byte	0x32
 9719 1f0d 00       		.byte	0
 9720 1f0e 18       		.uleb128 0x18
 9721 1f0f B8020000 		.4byte	.LVL519
 9722 1f13 6E140000 		.4byte	0x146e
 9723 1f17 2D1F0000 		.4byte	0x1f2d
 9724 1f1b 19       		.uleb128 0x19
 9725 1f1c 01       		.uleb128 0x1
 9726 1f1d 50       		.byte	0x50
 9727 1f1e 02       		.uleb128 0x2
 9728 1f1f 74       		.byte	0x74
 9729 1f20 00       		.sleb128 0
 9730 1f21 19       		.uleb128 0x19
 9731 1f22 01       		.uleb128 0x1
 9732 1f23 51       		.byte	0x51
 9733 1f24 01       		.uleb128 0x1
 9734 1f25 34       		.byte	0x34
 9735 1f26 19       		.uleb128 0x19
 9736 1f27 01       		.uleb128 0x1
 9737 1f28 52       		.byte	0x52
 9738 1f29 02       		.uleb128 0x2
 9739 1f2a 91       		.byte	0x91
 9740 1f2b 64       		.sleb128 -28
 9741 1f2c 00       		.byte	0
 9742 1f2d 18       		.uleb128 0x18
 9743 1f2e C6020000 		.4byte	.LVL521
 9744 1f32 942E0000 		.4byte	0x2e94
 9745 1f36 4D1F0000 		.4byte	0x1f4d
 9746 1f3a 19       		.uleb128 0x19
 9747 1f3b 01       		.uleb128 0x1
 9748 1f3c 50       		.byte	0x50
 9749 1f3d 02       		.uleb128 0x2
 9750 1f3e 74       		.byte	0x74
 9751 1f3f 00       		.sleb128 0
ARM GAS  C:\Users\Rajesh\AppData\Local\Temp\ccMJoliC.s 			page 213


 9752 1f40 19       		.uleb128 0x19
 9753 1f41 01       		.uleb128 0x1
 9754 1f42 51       		.byte	0x51
 9755 1f43 02       		.uleb128 0x2
 9756 1f44 08       		.byte	0x8
 9757 1f45 70       		.byte	0x70
 9758 1f46 19       		.uleb128 0x19
 9759 1f47 01       		.uleb128 0x1
 9760 1f48 52       		.byte	0x52
 9761 1f49 02       		.uleb128 0x2
 9762 1f4a 75       		.byte	0x75
 9763 1f4b 00       		.sleb128 0
 9764 1f4c 00       		.byte	0
 9765 1f4d 18       		.uleb128 0x18
 9766 1f4e D4020000 		.4byte	.LVL523
 9767 1f52 DF160000 		.4byte	0x16df
 9768 1f56 661F0000 		.4byte	0x1f66
 9769 1f5a 19       		.uleb128 0x19
 9770 1f5b 01       		.uleb128 0x1
 9771 1f5c 50       		.byte	0x50
 9772 1f5d 02       		.uleb128 0x2
 9773 1f5e 74       		.byte	0x74
 9774 1f5f 00       		.sleb128 0
 9775 1f60 19       		.uleb128 0x19
 9776 1f61 01       		.uleb128 0x1
 9777 1f62 51       		.byte	0x51
 9778 1f63 01       		.uleb128 0x1
 9779 1f64 34       		.byte	0x34
 9780 1f65 00       		.byte	0
 9781 1f66 18       		.uleb128 0x18
 9782 1f67 EA020000 		.4byte	.LVL528
 9783 1f6b EE2E0000 		.4byte	0x2eee
 9784 1f6f 7A1F0000 		.4byte	0x1f7a
 9785 1f73 19       		.uleb128 0x19
 9786 1f74 01       		.uleb128 0x1
 9787 1f75 50       		.byte	0x50
 9788 1f76 02       		.uleb128 0x2
 9789 1f77 74       		.byte	0x74
 9790 1f78 00       		.sleb128 0
 9791 1f79 00       		.byte	0
 9792 1f7a 1A       		.uleb128 0x1a
 9793 1f7b FC020000 		.4byte	.LVL530
 9794 1f7f FA2E0000 		.4byte	0x2efa
 9795 1f83 19       		.uleb128 0x19
 9796 1f84 01       		.uleb128 0x1
 9797 1f85 50       		.byte	0x50
 9798 1f86 02       		.uleb128 0x2
 9799 1f87 74       		.byte	0x74
 9800 1f88 00       		.sleb128 0
 9801 1f89 19       		.uleb128 0x19
 9802 1f8a 01       		.uleb128 0x1
 9803 1f8b 51       		.byte	0x51
 9804 1f8c 02       		.uleb128 0x2
 9805 1f8d 7D       		.byte	0x7d
 9806 1f8e 03       		.sleb128 3
 9807 1f8f 19       		.uleb128 0x19
 9808 1f90 01       		.uleb128 0x1
ARM GAS  C:\Users\Rajesh\AppData\Local\Temp\ccMJoliC.s 			page 214


 9809 1f91 52       		.byte	0x52
 9810 1f92 01       		.uleb128 0x1
 9811 1f93 30       		.byte	0x30
 9812 1f94 19       		.uleb128 0x19
 9813 1f95 01       		.uleb128 0x1
 9814 1f96 53       		.byte	0x53
 9815 1f97 01       		.uleb128 0x1
 9816 1f98 31       		.byte	0x31
 9817 1f99 00       		.byte	0
 9818 1f9a 00       		.byte	0
 9819 1f9b 1D       		.uleb128 0x1d
 9820 1f9c 12050000 		.4byte	.LASF203
 9821 1fa0 01       		.byte	0x1
 9822 1fa1 3804     		.2byte	0x438
 9823 1fa3 4B010000 		.4byte	0x14b
 9824 1fa7 00000000 		.4byte	.LFB17
 9825 1fab 44000000 		.4byte	.LFE17-.LFB17
 9826 1faf 01       		.uleb128 0x1
 9827 1fb0 9C       		.byte	0x9c
 9828 1fb1 42200000 		.4byte	0x2042
 9829 1fb5 1E       		.uleb128 0x1e
 9830 1fb6 44657600 		.ascii	"Dev\000"
 9831 1fba 01       		.byte	0x1
 9832 1fbb 3804     		.2byte	0x438
 9833 1fbd 02070000 		.4byte	0x702
 9834 1fc1 4C130000 		.4byte	.LLST77
 9835 1fc5 1F       		.uleb128 0x1f
 9836 1fc6 AE120000 		.4byte	.LASF193
 9837 1fca 01       		.byte	0x1
 9838 1fcb 3904     		.2byte	0x439
 9839 1fcd 45060000 		.4byte	0x645
 9840 1fd1 9F130000 		.4byte	.LLST78
 9841 1fd5 1F       		.uleb128 0x1f
 9842 1fd6 15110000 		.4byte	.LASF204
 9843 1fda 01       		.byte	0x1
 9844 1fdb 3904     		.2byte	0x439
 9845 1fdd 33060000 		.4byte	0x633
 9846 1fe1 F2130000 		.4byte	.LLST79
 9847 1fe5 22       		.uleb128 0x22
 9848 1fe6 20020000 		.4byte	.LASF131
 9849 1fea 01       		.byte	0x1
 9850 1feb 3B04     		.2byte	0x43b
 9851 1fed 4B010000 		.4byte	0x14b
 9852 1ff1 4A140000 		.4byte	.LLST80
 9853 1ff5 21       		.uleb128 0x21
 9854 1ff6 41000000 		.4byte	.LASF141
 9855 1ffa 01       		.byte	0x1
 9856 1ffb 3C04     		.2byte	0x43c
 9857 1ffd C3000000 		.4byte	0xc3
 9858 2001 02       		.uleb128 0x2
 9859 2002 91       		.byte	0x91
 9860 2003 6F       		.sleb128 -17
 9861 2004 18       		.uleb128 0x18
 9862 2005 1A000000 		.4byte	.LVL536
 9863 2009 9F2E0000 		.4byte	0x2e9f
 9864 200d 1E200000 		.4byte	0x201e
 9865 2011 19       		.uleb128 0x19
ARM GAS  C:\Users\Rajesh\AppData\Local\Temp\ccMJoliC.s 			page 215


 9866 2012 01       		.uleb128 0x1
 9867 2013 51       		.byte	0x51
 9868 2014 02       		.uleb128 0x2
 9869 2015 08       		.byte	0x8
 9870 2016 50       		.byte	0x50
 9871 2017 19       		.uleb128 0x19
 9872 2018 01       		.uleb128 0x1
 9873 2019 52       		.byte	0x52
 9874 201a 02       		.uleb128 0x2
 9875 201b 7D       		.byte	0x7d
 9876 201c 07       		.sleb128 7
 9877 201d 00       		.byte	0
 9878 201e 18       		.uleb128 0x18
 9879 201f 28000000 		.4byte	.LVL541
 9880 2023 9F2E0000 		.4byte	0x2e9f
 9881 2027 38200000 		.4byte	0x2038
 9882 202b 19       		.uleb128 0x19
 9883 202c 01       		.uleb128 0x1
 9884 202d 51       		.byte	0x51
 9885 202e 02       		.uleb128 0x2
 9886 202f 08       		.byte	0x8
 9887 2030 70       		.byte	0x70
 9888 2031 19       		.uleb128 0x19
 9889 2032 01       		.uleb128 0x1
 9890 2033 52       		.byte	0x52
 9891 2034 02       		.uleb128 0x2
 9892 2035 7D       		.byte	0x7d
 9893 2036 07       		.sleb128 7
 9894 2037 00       		.byte	0
 9895 2038 24       		.uleb128 0x24
 9896 2039 3C000000 		.4byte	.LVL545
 9897 203d 10080000 		.4byte	0x810
 9898 2041 00       		.byte	0
 9899 2042 1D       		.uleb128 0x1d
 9900 2043 A2150000 		.4byte	.LASF205
 9901 2047 01       		.byte	0x1
 9902 2048 5604     		.2byte	0x456
 9903 204a 4B010000 		.4byte	0x14b
 9904 204e 00000000 		.4byte	.LFB18
 9905 2052 10010000 		.4byte	.LFE18-.LFB18
 9906 2056 01       		.uleb128 0x1
 9907 2057 9C       		.byte	0x9c
 9908 2058 BE210000 		.4byte	0x21be
 9909 205c 1E       		.uleb128 0x1e
 9910 205d 44657600 		.ascii	"Dev\000"
 9911 2061 01       		.byte	0x1
 9912 2062 5604     		.2byte	0x456
 9913 2064 02070000 		.4byte	0x702
 9914 2068 97140000 		.4byte	.LLST81
 9915 206c 1F       		.uleb128 0x1f
 9916 206d EF0A0000 		.4byte	.LASF35
 9917 2071 01       		.byte	0x1
 9918 2072 5704     		.2byte	0x457
 9919 2074 EF000000 		.4byte	0xef
 9920 2078 D9140000 		.4byte	.LLST82
 9921 207c 22       		.uleb128 0x22
 9922 207d 20020000 		.4byte	.LASF131
ARM GAS  C:\Users\Rajesh\AppData\Local\Temp\ccMJoliC.s 			page 216


 9923 2081 01       		.byte	0x1
 9924 2082 5904     		.2byte	0x459
 9925 2084 4B010000 		.4byte	0x14b
 9926 2088 1B150000 		.4byte	.LLST83
 9927 208c 22       		.uleb128 0x22
 9928 208d DD0E0000 		.4byte	.LASF206
 9929 2091 01       		.byte	0x1
 9930 2092 5A04     		.2byte	0x45a
 9931 2094 EF000000 		.4byte	0xef
 9932 2098 93150000 		.4byte	.LLST84
 9933 209c 21       		.uleb128 0x21
 9934 209d 82160000 		.4byte	.LASF187
 9935 20a1 01       		.byte	0x1
 9936 20a2 5B04     		.2byte	0x45b
 9937 20a4 9C060000 		.4byte	0x69c
 9938 20a8 02       		.uleb128 0x2
 9939 20a9 91       		.byte	0x91
 9940 20aa 68       		.sleb128 -24
 9941 20ab 21       		.uleb128 0x21
 9942 20ac 620B0000 		.4byte	.LASF207
 9943 20b0 01       		.byte	0x1
 9944 20b1 5C04     		.2byte	0x45c
 9945 20b3 EF000000 		.4byte	0xef
 9946 20b7 02       		.uleb128 0x2
 9947 20b8 91       		.byte	0x91
 9948 20b9 64       		.sleb128 -28
 9949 20ba 20       		.uleb128 0x20
 9950 20bb DB120000 		.4byte	.LASF208
 9951 20bf 01       		.byte	0x1
 9952 20c0 5D04     		.2byte	0x45d
 9953 20c2 EF000000 		.4byte	0xef
 9954 20c6 7607     		.2byte	0x776
 9955 20c8 20       		.uleb128 0x20
 9956 20c9 9E010000 		.4byte	.LASF209
 9957 20cd 01       		.byte	0x1
 9958 20ce 5E04     		.2byte	0x45e
 9959 20d0 EF000000 		.4byte	0xef
 9960 20d4 C003     		.2byte	0x3c0
 9961 20d6 20       		.uleb128 0x20
 9962 20d7 BD160000 		.4byte	.LASF210
 9963 20db 01       		.byte	0x1
 9964 20dc 5F04     		.2byte	0x45f
 9965 20de EF000000 		.4byte	0xef
 9966 20e2 9402     		.2byte	0x294
 9967 20e4 20       		.uleb128 0x20
 9968 20e5 8B060000 		.4byte	.LASF211
 9969 20e9 01       		.byte	0x1
 9970 20ea 6004     		.2byte	0x460
 9971 20ec EF000000 		.4byte	0xef
 9972 20f0 4E02     		.2byte	0x24e
 9973 20f2 20       		.uleb128 0x20
 9974 20f3 480A0000 		.4byte	.LASF212
 9975 20f7 01       		.byte	0x1
 9976 20f8 6104     		.2byte	0x461
 9977 20fa EF000000 		.4byte	0xef
 9978 20fe B202     		.2byte	0x2b2
 9979 2100 20       		.uleb128 0x20
ARM GAS  C:\Users\Rajesh\AppData\Local\Temp\ccMJoliC.s 			page 217


 9980 2101 0E0E0000 		.4byte	.LASF213
 9981 2105 01       		.byte	0x1
 9982 2106 6204     		.2byte	0x462
 9983 2108 EF000000 		.4byte	0xef
 9984 210c 9402     		.2byte	0x294
 9985 210e 20       		.uleb128 0x20
 9986 210f A10A0000 		.4byte	.LASF214
 9987 2113 01       		.byte	0x1
 9988 2114 6304     		.2byte	0x463
 9989 2116 EF000000 		.4byte	0xef
 9990 211a 2602     		.2byte	0x226
 9991 211c 21       		.uleb128 0x21
 9992 211d 53120000 		.4byte	.LASF200
 9993 2121 01       		.byte	0x1
 9994 2122 6404     		.2byte	0x464
 9995 2124 EF000000 		.4byte	0xef
 9996 2128 02       		.uleb128 0x2
 9997 2129 91       		.byte	0x91
 9998 212a 60       		.sleb128 -32
 9999 212b 20       		.uleb128 0x20
 10000 212c 36120000 		.4byte	.LASF215
 10001 2130 01       		.byte	0x1
 10002 2131 6504     		.2byte	0x465
 10003 2133 EF000000 		.4byte	0xef
 10004 2137 204E     		.2byte	0x4e20
 10005 2139 22       		.uleb128 0x22
 10006 213a 720E0000 		.4byte	.LASF216
 10007 213e 01       		.byte	0x1
 10008 213f 6604     		.2byte	0x466
 10009 2141 EF000000 		.4byte	0xef
 10010 2145 BF150000 		.4byte	.LLST85
 10011 2149 18       		.uleb128 0x18
 10012 214a 22000000 		.4byte	.LVL554
 10013 214e D72E0000 		.4byte	0x2ed7
 10014 2152 63210000 		.4byte	0x2163
 10015 2156 19       		.uleb128 0x19
 10016 2157 01       		.uleb128 0x1
 10017 2158 50       		.byte	0x50
 10018 2159 02       		.uleb128 0x2
 10019 215a 75       		.byte	0x75
 10020 215b 00       		.sleb128 0
 10021 215c 19       		.uleb128 0x19
 10022 215d 01       		.uleb128 0x1
 10023 215e 51       		.byte	0x51
 10024 215f 02       		.uleb128 0x2
 10025 2160 91       		.byte	0x91
 10026 2161 68       		.sleb128 -24
 10027 2162 00       		.byte	0
 10028 2163 18       		.uleb128 0x18
 10029 2164 48000000 		.4byte	.LVL556
 10030 2168 6E140000 		.4byte	0x146e
 10031 216c 82210000 		.4byte	0x2182
 10032 2170 19       		.uleb128 0x19
 10033 2171 01       		.uleb128 0x1
 10034 2172 50       		.byte	0x50
 10035 2173 02       		.uleb128 0x2
 10036 2174 75       		.byte	0x75
ARM GAS  C:\Users\Rajesh\AppData\Local\Temp\ccMJoliC.s 			page 218


 10037 2175 00       		.sleb128 0
 10038 2176 19       		.uleb128 0x19
 10039 2177 01       		.uleb128 0x1
 10040 2178 51       		.byte	0x51
 10041 2179 01       		.uleb128 0x1
 10042 217a 32       		.byte	0x32
 10043 217b 19       		.uleb128 0x19
 10044 217c 01       		.uleb128 0x1
 10045 217d 52       		.byte	0x52
 10046 217e 02       		.uleb128 0x2
 10047 217f 91       		.byte	0x91
 10048 2180 64       		.sleb128 -28
 10049 2181 00       		.byte	0
 10050 2182 18       		.uleb128 0x18
 10051 2183 C0000000 		.4byte	.LVL571
 10052 2187 6E140000 		.4byte	0x146e
 10053 218b A1210000 		.4byte	0x21a1
 10054 218f 19       		.uleb128 0x19
 10055 2190 01       		.uleb128 0x1
 10056 2191 50       		.byte	0x50
 10057 2192 02       		.uleb128 0x2
 10058 2193 75       		.byte	0x75
 10059 2194 00       		.sleb128 0
 10060 2195 19       		.uleb128 0x19
 10061 2196 01       		.uleb128 0x1
 10062 2197 51       		.byte	0x51
 10063 2198 01       		.uleb128 0x1
 10064 2199 33       		.byte	0x33
 10065 219a 19       		.uleb128 0x19
 10066 219b 01       		.uleb128 0x1
 10067 219c 52       		.byte	0x52
 10068 219d 02       		.uleb128 0x2
 10069 219e 7D       		.byte	0x7d
 10070 219f 00       		.sleb128 0
 10071 21a0 00       		.byte	0
 10072 21a1 1A       		.uleb128 0x1a
 10073 21a2 EE000000 		.4byte	.LVL578
 10074 21a6 DF160000 		.4byte	0x16df
 10075 21aa 19       		.uleb128 0x19
 10076 21ab 01       		.uleb128 0x1
 10077 21ac 50       		.byte	0x50
 10078 21ad 02       		.uleb128 0x2
 10079 21ae 75       		.byte	0x75
 10080 21af 00       		.sleb128 0
 10081 21b0 19       		.uleb128 0x19
 10082 21b1 01       		.uleb128 0x1
 10083 21b2 51       		.byte	0x51
 10084 21b3 01       		.uleb128 0x1
 10085 21b4 34       		.byte	0x34
 10086 21b5 19       		.uleb128 0x19
 10087 21b6 01       		.uleb128 0x1
 10088 21b7 52       		.byte	0x52
 10089 21b8 03       		.uleb128 0x3
 10090 21b9 76       		.byte	0x76
 10091 21ba DA7B     		.sleb128 -550
 10092 21bc 00       		.byte	0
 10093 21bd 00       		.byte	0
ARM GAS  C:\Users\Rajesh\AppData\Local\Temp\ccMJoliC.s 			page 219


 10094 21be 1D       		.uleb128 0x1d
 10095 21bf 940D0000 		.4byte	.LASF217
 10096 21c3 01       		.byte	0x1
 10097 21c4 EC04     		.2byte	0x4ec
 10098 21c6 4B010000 		.4byte	0x14b
 10099 21ca 00000000 		.4byte	.LFB19
 10100 21ce 00010000 		.4byte	.LFE19-.LFB19
 10101 21d2 01       		.uleb128 0x1
 10102 21d3 9C       		.byte	0x9c
 10103 21d4 1A230000 		.4byte	0x231a
 10104 21d8 1E       		.uleb128 0x1e
 10105 21d9 44657600 		.ascii	"Dev\000"
 10106 21dd 01       		.byte	0x1
 10107 21de EC04     		.2byte	0x4ec
 10108 21e0 02070000 		.4byte	0x702
 10109 21e4 0B160000 		.4byte	.LLST86
 10110 21e8 1F       		.uleb128 0x1f
 10111 21e9 46100000 		.4byte	.LASF218
 10112 21ed 01       		.byte	0x1
 10113 21ee ED04     		.2byte	0x4ed
 10114 21f0 D9160000 		.4byte	0x16d9
 10115 21f4 37160000 		.4byte	.LLST87
 10116 21f8 22       		.uleb128 0x22
 10117 21f9 20020000 		.4byte	.LASF131
 10118 21fd 01       		.byte	0x1
 10119 21fe EF04     		.2byte	0x4ef
 10120 2200 4B010000 		.4byte	0x14b
 10121 2204 63160000 		.4byte	.LLST88
 10122 2208 21       		.uleb128 0x21
 10123 2209 82160000 		.4byte	.LASF187
 10124 220d 01       		.byte	0x1
 10125 220e F004     		.2byte	0x4f0
 10126 2210 9C060000 		.4byte	0x69c
 10127 2214 02       		.uleb128 0x2
 10128 2215 91       		.byte	0x91
 10129 2216 68       		.sleb128 -24
 10130 2217 21       		.uleb128 0x21
 10131 2218 47090000 		.4byte	.LASF199
 10132 221c 01       		.byte	0x1
 10133 221d F104     		.2byte	0x4f1
 10134 221f EF000000 		.4byte	0xef
 10135 2223 02       		.uleb128 0x2
 10136 2224 91       		.byte	0x91
 10137 2225 64       		.sleb128 -28
 10138 2226 21       		.uleb128 0x21
 10139 2227 620B0000 		.4byte	.LASF207
 10140 222b 01       		.byte	0x1
 10141 222c F204     		.2byte	0x4f2
 10142 222e EF000000 		.4byte	0xef
 10143 2232 02       		.uleb128 0x2
 10144 2233 91       		.byte	0x91
 10145 2234 60       		.sleb128 -32
 10146 2235 20       		.uleb128 0x20
 10147 2236 DB120000 		.4byte	.LASF208
 10148 223a 01       		.byte	0x1
 10149 223b F304     		.2byte	0x4f3
 10150 223d EF000000 		.4byte	0xef
ARM GAS  C:\Users\Rajesh\AppData\Local\Temp\ccMJoliC.s 			page 220


 10151 2241 7607     		.2byte	0x776
 10152 2243 20       		.uleb128 0x20
 10153 2244 9E010000 		.4byte	.LASF209
 10154 2248 01       		.byte	0x1
 10155 2249 F404     		.2byte	0x4f4
 10156 224b EF000000 		.4byte	0xef
 10157 224f C003     		.2byte	0x3c0
 10158 2251 20       		.uleb128 0x20
 10159 2252 BD160000 		.4byte	.LASF210
 10160 2256 01       		.byte	0x1
 10161 2257 F504     		.2byte	0x4f5
 10162 2259 EF000000 		.4byte	0xef
 10163 225d 9402     		.2byte	0x294
 10164 225f 20       		.uleb128 0x20
 10165 2260 8B060000 		.4byte	.LASF211
 10166 2264 01       		.byte	0x1
 10167 2265 F604     		.2byte	0x4f6
 10168 2267 EF000000 		.4byte	0xef
 10169 226b 4E02     		.2byte	0x24e
 10170 226d 20       		.uleb128 0x20
 10171 226e 480A0000 		.4byte	.LASF212
 10172 2272 01       		.byte	0x1
 10173 2273 F704     		.2byte	0x4f7
 10174 2275 EF000000 		.4byte	0xef
 10175 2279 B202     		.2byte	0x2b2
 10176 227b 20       		.uleb128 0x20
 10177 227c 0E0E0000 		.4byte	.LASF213
 10178 2280 01       		.byte	0x1
 10179 2281 F804     		.2byte	0x4f8
 10180 2283 EF000000 		.4byte	0xef
 10181 2287 9402     		.2byte	0x294
 10182 2289 20       		.uleb128 0x20
 10183 228a A10A0000 		.4byte	.LASF214
 10184 228e 01       		.byte	0x1
 10185 228f F904     		.2byte	0x4f9
 10186 2291 EF000000 		.4byte	0xef
 10187 2295 2602     		.2byte	0x226
 10188 2297 21       		.uleb128 0x21
 10189 2298 53120000 		.4byte	.LASF200
 10190 229c 01       		.byte	0x1
 10191 229d FA04     		.2byte	0x4fa
 10192 229f EF000000 		.4byte	0xef
 10193 22a3 02       		.uleb128 0x2
 10194 22a4 91       		.byte	0x91
 10195 22a5 5C       		.sleb128 -36
 10196 22a6 18       		.uleb128 0x18
 10197 22a7 1C000000 		.4byte	.LVL588
 10198 22ab D72E0000 		.4byte	0x2ed7
 10199 22af C0220000 		.4byte	0x22c0
 10200 22b3 19       		.uleb128 0x19
 10201 22b4 01       		.uleb128 0x1
 10202 22b5 50       		.byte	0x50
 10203 22b6 02       		.uleb128 0x2
 10204 22b7 75       		.byte	0x75
 10205 22b8 00       		.sleb128 0
 10206 22b9 19       		.uleb128 0x19
 10207 22ba 01       		.uleb128 0x1
ARM GAS  C:\Users\Rajesh\AppData\Local\Temp\ccMJoliC.s 			page 221


 10208 22bb 51       		.byte	0x51
 10209 22bc 02       		.uleb128 0x2
 10210 22bd 91       		.byte	0x91
 10211 22be 68       		.sleb128 -24
 10212 22bf 00       		.byte	0
 10213 22c0 18       		.uleb128 0x18
 10214 22c1 42000000 		.4byte	.LVL590
 10215 22c5 6E140000 		.4byte	0x146e
 10216 22c9 DF220000 		.4byte	0x22df
 10217 22cd 19       		.uleb128 0x19
 10218 22ce 01       		.uleb128 0x1
 10219 22cf 50       		.byte	0x50
 10220 22d0 02       		.uleb128 0x2
 10221 22d1 75       		.byte	0x75
 10222 22d2 00       		.sleb128 0
 10223 22d3 19       		.uleb128 0x19
 10224 22d4 01       		.uleb128 0x1
 10225 22d5 51       		.byte	0x51
 10226 22d6 01       		.uleb128 0x1
 10227 22d7 32       		.byte	0x32
 10228 22d8 19       		.uleb128 0x19
 10229 22d9 01       		.uleb128 0x1
 10230 22da 52       		.byte	0x52
 10231 22db 02       		.uleb128 0x2
 10232 22dc 91       		.byte	0x91
 10233 22dd 60       		.sleb128 -32
 10234 22de 00       		.byte	0
 10235 22df 18       		.uleb128 0x18
 10236 22e0 AA000000 		.4byte	.LVL593
 10237 22e4 6E140000 		.4byte	0x146e
 10238 22e8 FE220000 		.4byte	0x22fe
 10239 22ec 19       		.uleb128 0x19
 10240 22ed 01       		.uleb128 0x1
 10241 22ee 50       		.byte	0x50
 10242 22ef 02       		.uleb128 0x2
 10243 22f0 75       		.byte	0x75
 10244 22f1 00       		.sleb128 0
 10245 22f2 19       		.uleb128 0x19
 10246 22f3 01       		.uleb128 0x1
 10247 22f4 51       		.byte	0x51
 10248 22f5 01       		.uleb128 0x1
 10249 22f6 33       		.byte	0x33
 10250 22f7 19       		.uleb128 0x19
 10251 22f8 01       		.uleb128 0x1
 10252 22f9 52       		.byte	0x52
 10253 22fa 02       		.uleb128 0x2
 10254 22fb 91       		.byte	0x91
 10255 22fc 5C       		.sleb128 -36
 10256 22fd 00       		.byte	0
 10257 22fe 1A       		.uleb128 0x1a
 10258 22ff D2000000 		.4byte	.LVL596
 10259 2303 6E140000 		.4byte	0x146e
 10260 2307 19       		.uleb128 0x19
 10261 2308 01       		.uleb128 0x1
 10262 2309 50       		.byte	0x50
 10263 230a 02       		.uleb128 0x2
 10264 230b 75       		.byte	0x75
ARM GAS  C:\Users\Rajesh\AppData\Local\Temp\ccMJoliC.s 			page 222


 10265 230c 00       		.sleb128 0
 10266 230d 19       		.uleb128 0x19
 10267 230e 01       		.uleb128 0x1
 10268 230f 51       		.byte	0x51
 10269 2310 01       		.uleb128 0x1
 10270 2311 34       		.byte	0x34
 10271 2312 19       		.uleb128 0x19
 10272 2313 01       		.uleb128 0x1
 10273 2314 52       		.byte	0x52
 10274 2315 02       		.uleb128 0x2
 10275 2316 91       		.byte	0x91
 10276 2317 64       		.sleb128 -28
 10277 2318 00       		.byte	0
 10278 2319 00       		.byte	0
 10279 231a 1D       		.uleb128 0x1d
 10280 231b 27020000 		.4byte	.LASF219
 10281 231f 01       		.byte	0x1
 10282 2320 4705     		.2byte	0x547
 10283 2322 4B010000 		.4byte	0x14b
 10284 2326 00000000 		.4byte	.LFB20
 10285 232a BA000000 		.4byte	.LFE20-.LFB20
 10286 232e 01       		.uleb128 0x1
 10287 232f 9C       		.byte	0x9c
 10288 2330 04240000 		.4byte	0x2404
 10289 2334 1E       		.uleb128 0x1e
 10290 2335 44657600 		.ascii	"Dev\000"
 10291 2339 01       		.byte	0x1
 10292 233a 4705     		.2byte	0x547
 10293 233c 02070000 		.4byte	0x702
 10294 2340 A3160000 		.4byte	.LLST89
 10295 2344 1F       		.uleb128 0x1f
 10296 2345 B90B0000 		.4byte	.LASF220
 10297 2349 01       		.byte	0x1
 10298 234a 4805     		.2byte	0x548
 10299 234c 33060000 		.4byte	0x633
 10300 2350 CF160000 		.4byte	.LLST90
 10301 2354 22       		.uleb128 0x22
 10302 2355 20020000 		.4byte	.LASF131
 10303 2359 01       		.byte	0x1
 10304 235a 4A05     		.2byte	0x54a
 10305 235c 4B010000 		.4byte	0x14b
 10306 2360 FB160000 		.4byte	.LLST91
 10307 2364 26       		.uleb128 0x26
 10308 2365 6900     		.ascii	"i\000"
 10309 2367 01       		.byte	0x1
 10310 2368 4B05     		.2byte	0x54b
 10311 236a AA000000 		.4byte	0xaa
 10312 236e 3B170000 		.4byte	.LLST92
 10313 2372 22       		.uleb128 0x22
 10314 2373 D4090000 		.4byte	.LASF221
 10315 2377 01       		.byte	0x1
 10316 2378 4C05     		.2byte	0x54c
 10317 237a AA000000 		.4byte	0xaa
 10318 237e 5A170000 		.4byte	.LLST93
 10319 2382 26       		.uleb128 0x26
 10320 2383 6D736200 		.ascii	"msb\000"
 10321 2387 01       		.byte	0x1
ARM GAS  C:\Users\Rajesh\AppData\Local\Temp\ccMJoliC.s 			page 223


 10322 2388 4D05     		.2byte	0x54d
 10323 238a C3000000 		.4byte	0xc3
 10324 238e 31180000 		.4byte	.LLST94
 10325 2392 27       		.uleb128 0x27
 10326 2393 6C736200 		.ascii	"lsb\000"
 10327 2397 01       		.byte	0x1
 10328 2398 4E05     		.2byte	0x54e
 10329 239a C3000000 		.4byte	0xc3
 10330 239e 22       		.uleb128 0x22
 10331 239f 7F060000 		.4byte	.LASF222
 10332 23a3 01       		.byte	0x1
 10333 23a4 4F05     		.2byte	0x54f
 10334 23a6 C3000000 		.4byte	0xc3
 10335 23aa ED180000 		.4byte	.LLST95
 10336 23ae 22       		.uleb128 0x22
 10337 23af B40C0000 		.4byte	.LASF223
 10338 23b3 01       		.byte	0x1
 10339 23b4 5005     		.2byte	0x550
 10340 23b6 C3000000 		.4byte	0xc3
 10341 23ba B4190000 		.4byte	.LLST96
 10342 23be 22       		.uleb128 0x22
 10343 23bf 34180000 		.4byte	.LASF224
 10344 23c3 01       		.byte	0x1
 10345 23c4 5105     		.2byte	0x551
 10346 23c6 C3000000 		.4byte	0xc3
 10347 23ca DD190000 		.4byte	.LLST97
 10348 23ce 21       		.uleb128 0x21
 10349 23cf EA0C0000 		.4byte	.LASF225
 10350 23d3 01       		.byte	0x1
 10351 23d4 5205     		.2byte	0x552
 10352 23d6 04240000 		.4byte	0x2404
 10353 23da 02       		.uleb128 0x2
 10354 23db 91       		.byte	0x91
 10355 23dc 64       		.sleb128 -28
 10356 23dd 22       		.uleb128 0x22
 10357 23de 00130000 		.4byte	.LASF226
 10358 23e2 01       		.byte	0x1
 10359 23e3 5305     		.2byte	0x553
 10360 23e5 D9000000 		.4byte	0xd9
 10361 23e9 F0190000 		.4byte	.LLST98
 10362 23ed 1A       		.uleb128 0x1a
 10363 23ee 9C000000 		.4byte	.LVL642
 10364 23f2 052F0000 		.4byte	0x2f05
 10365 23f6 19       		.uleb128 0x19
 10366 23f7 01       		.uleb128 0x1
 10367 23f8 50       		.byte	0x50
 10368 23f9 02       		.uleb128 0x2
 10369 23fa 75       		.byte	0x75
 10370 23fb 00       		.sleb128 0
 10371 23fc 19       		.uleb128 0x19
 10372 23fd 01       		.uleb128 0x1
 10373 23fe 52       		.byte	0x52
 10374 23ff 02       		.uleb128 0x2
 10375 2400 91       		.byte	0x91
 10376 2401 64       		.sleb128 -28
 10377 2402 00       		.byte	0
 10378 2403 00       		.byte	0
ARM GAS  C:\Users\Rajesh\AppData\Local\Temp\ccMJoliC.s 			page 224


 10379 2404 05       		.uleb128 0x5
 10380 2405 C3000000 		.4byte	0xc3
 10381 2409 14240000 		.4byte	0x2414
 10382 240d 06       		.uleb128 0x6
 10383 240e 3D010000 		.4byte	0x13d
 10384 2412 03       		.byte	0x3
 10385 2413 00       		.byte	0
 10386 2414 1D       		.uleb128 0x1d
 10387 2415 160F0000 		.4byte	.LASF227
 10388 2419 01       		.byte	0x1
 10389 241a 9D05     		.2byte	0x59d
 10390 241c 4B010000 		.4byte	0x14b
 10391 2420 00000000 		.4byte	.LFB21
 10392 2424 34000000 		.4byte	.LFE21-.LFB21
 10393 2428 01       		.uleb128 0x1
 10394 2429 9C       		.byte	0x9c
 10395 242a B4240000 		.4byte	0x24b4
 10396 242e 1E       		.uleb128 0x1e
 10397 242f 44657600 		.ascii	"Dev\000"
 10398 2433 01       		.byte	0x1
 10399 2434 9D05     		.2byte	0x59d
 10400 2436 02070000 		.4byte	0x702
 10401 243a 241A0000 		.4byte	.LLST99
 10402 243e 1F       		.uleb128 0x1f
 10403 243f C00A0000 		.4byte	.LASF228
 10404 2443 01       		.byte	0x1
 10405 2444 9E05     		.2byte	0x59e
 10406 2446 B4240000 		.4byte	0x24b4
 10407 244a 501A0000 		.4byte	.LLST100
 10408 244e 1F       		.uleb128 0x1f
 10409 244f 42150000 		.4byte	.LASF229
 10410 2453 01       		.byte	0x1
 10411 2454 9F05     		.2byte	0x59f
 10412 2456 BA240000 		.4byte	0x24ba
 10413 245a 7C1A0000 		.4byte	.LLST101
 10414 245e 22       		.uleb128 0x22
 10415 245f 20020000 		.4byte	.LASF131
 10416 2463 01       		.byte	0x1
 10417 2464 A105     		.2byte	0x5a1
 10418 2466 4B010000 		.4byte	0x14b
 10419 246a A81A0000 		.4byte	.LLST102
 10420 246e 21       		.uleb128 0x21
 10421 246f 9F020000 		.4byte	.LASF230
 10422 2473 01       		.byte	0x1
 10423 2474 A305     		.2byte	0x5a3
 10424 2476 C3000000 		.4byte	0xc3
 10425 247a 02       		.uleb128 0x2
 10426 247b 91       		.byte	0x91
 10427 247c 6F       		.sleb128 -17
 10428 247d 22       		.uleb128 0x22
 10429 247e 29150000 		.4byte	.LASF231
 10430 2482 01       		.byte	0x1
 10431 2483 A405     		.2byte	0x5a4
 10432 2485 0C010000 		.4byte	0x10c
 10433 2489 C71A0000 		.4byte	.LLST103
 10434 248d 22       		.uleb128 0x22
 10435 248e 03150000 		.4byte	.LASF232
ARM GAS  C:\Users\Rajesh\AppData\Local\Temp\ccMJoliC.s 			page 225


 10436 2492 01       		.byte	0x1
 10437 2493 A505     		.2byte	0x5a5
 10438 2495 0C010000 		.4byte	0x10c
 10439 2499 FE1A0000 		.4byte	.LLST104
 10440 249d 1A       		.uleb128 0x1a
 10441 249e 16000000 		.4byte	.LVL654
 10442 24a2 102F0000 		.4byte	0x2f10
 10443 24a6 19       		.uleb128 0x19
 10444 24a7 01       		.uleb128 0x1
 10445 24a8 50       		.byte	0x50
 10446 24a9 02       		.uleb128 0x2
 10447 24aa 75       		.byte	0x75
 10448 24ab 00       		.sleb128 0
 10449 24ac 19       		.uleb128 0x19
 10450 24ad 01       		.uleb128 0x1
 10451 24ae 51       		.byte	0x51
 10452 24af 02       		.uleb128 0x2
 10453 24b0 7D       		.byte	0x7d
 10454 24b1 07       		.sleb128 7
 10455 24b2 00       		.byte	0
 10456 24b3 00       		.byte	0
 10457 24b4 0E       		.uleb128 0xe
 10458 24b5 04       		.byte	0x4
 10459 24b6 07030000 		.4byte	0x307
 10460 24ba 0E       		.uleb128 0xe
 10461 24bb 04       		.byte	0x4
 10462 24bc 0C010000 		.4byte	0x10c
 10463 24c0 1D       		.uleb128 0x1d
 10464 24c1 150D0000 		.4byte	.LASF233
 10465 24c5 01       		.byte	0x1
 10466 24c6 C105     		.2byte	0x5c1
 10467 24c8 4B010000 		.4byte	0x14b
 10468 24cc 00000000 		.4byte	.LFB22
 10469 24d0 22000000 		.4byte	.LFE22-.LFB22
 10470 24d4 01       		.uleb128 0x1
 10471 24d5 9C       		.byte	0x9c
 10472 24d6 48250000 		.4byte	0x2548
 10473 24da 1E       		.uleb128 0x1e
 10474 24db 44657600 		.ascii	"Dev\000"
 10475 24df 01       		.byte	0x1
 10476 24e0 C105     		.2byte	0x5c1
 10477 24e2 02070000 		.4byte	0x702
 10478 24e6 111B0000 		.4byte	.LLST105
 10479 24ea 1F       		.uleb128 0x1f
 10480 24eb C00A0000 		.4byte	.LASF228
 10481 24ef 01       		.byte	0x1
 10482 24f0 C205     		.2byte	0x5c2
 10483 24f2 B4240000 		.4byte	0x24b4
 10484 24f6 321B0000 		.4byte	.LLST106
 10485 24fa 1F       		.uleb128 0x1f
 10486 24fb 86010000 		.4byte	.LASF234
 10487 24ff 01       		.byte	0x1
 10488 2500 C305     		.2byte	0x5c3
 10489 2502 BA240000 		.4byte	0x24ba
 10490 2506 531B0000 		.4byte	.LLST107
 10491 250a 22       		.uleb128 0x22
 10492 250b 20020000 		.4byte	.LASF131
ARM GAS  C:\Users\Rajesh\AppData\Local\Temp\ccMJoliC.s 			page 226


 10493 250f 01       		.byte	0x1
 10494 2510 C505     		.2byte	0x5c5
 10495 2512 4B010000 		.4byte	0x14b
 10496 2516 7F1B0000 		.4byte	.LLST108
 10497 251a 21       		.uleb128 0x21
 10498 251b 29150000 		.4byte	.LASF231
 10499 251f 01       		.byte	0x1
 10500 2520 C605     		.2byte	0x5c6
 10501 2522 0C010000 		.4byte	0x10c
 10502 2526 02       		.uleb128 0x2
 10503 2527 91       		.byte	0x91
 10504 2528 74       		.sleb128 -12
 10505 2529 1A       		.uleb128 0x1a
 10506 252a 10000000 		.4byte	.LVL666
 10507 252e 14240000 		.4byte	0x2414
 10508 2532 19       		.uleb128 0x19
 10509 2533 01       		.uleb128 0x1
 10510 2534 50       		.byte	0x50
 10511 2535 03       		.uleb128 0x3
 10512 2536 F3       		.byte	0xf3
 10513 2537 01       		.uleb128 0x1
 10514 2538 50       		.byte	0x50
 10515 2539 19       		.uleb128 0x19
 10516 253a 01       		.uleb128 0x1
 10517 253b 51       		.byte	0x51
 10518 253c 03       		.uleb128 0x3
 10519 253d F3       		.byte	0xf3
 10520 253e 01       		.uleb128 0x1
 10521 253f 51       		.byte	0x51
 10522 2540 19       		.uleb128 0x19
 10523 2541 01       		.uleb128 0x1
 10524 2542 52       		.byte	0x52
 10525 2543 02       		.uleb128 0x2
 10526 2544 91       		.byte	0x91
 10527 2545 74       		.sleb128 -12
 10528 2546 00       		.byte	0
 10529 2547 00       		.byte	0
 10530 2548 23       		.uleb128 0x23
 10531 2549 4F140000 		.4byte	.LASF235
 10532 254d 01       		.byte	0x1
 10533 254e D605     		.2byte	0x5d6
 10534 2550 4B010000 		.4byte	0x14b
 10535 2554 00000000 		.4byte	.LFB23
 10536 2558 00010000 		.4byte	.LFE23-.LFB23
 10537 255c 01       		.uleb128 0x1
 10538 255d 9C       		.byte	0x9c
 10539 255e 46270000 		.4byte	0x2746
 10540 2562 1E       		.uleb128 0x1e
 10541 2563 44657600 		.ascii	"Dev\000"
 10542 2567 01       		.byte	0x1
 10543 2568 D705     		.2byte	0x5d7
 10544 256a 02070000 		.4byte	0x702
 10545 256e 9E1B0000 		.4byte	.LLST109
 10546 2572 1F       		.uleb128 0x1f
 10547 2573 1C030000 		.4byte	.LASF236
 10548 2577 01       		.byte	0x1
 10549 2578 D805     		.2byte	0x5d8
ARM GAS  C:\Users\Rajesh\AppData\Local\Temp\ccMJoliC.s 			page 227


 10550 257a 0C010000 		.4byte	0x10c
 10551 257e D81B0000 		.4byte	.LLST110
 10552 2582 1F       		.uleb128 0x1f
 10553 2583 B4190000 		.4byte	.LASF237
 10554 2587 01       		.byte	0x1
 10555 2588 D905     		.2byte	0x5d9
 10556 258a 0C010000 		.4byte	0x10c
 10557 258e 121C0000 		.4byte	.LLST111
 10558 2592 1F       		.uleb128 0x1f
 10559 2593 87150000 		.4byte	.LASF238
 10560 2597 01       		.byte	0x1
 10561 2598 DA05     		.2byte	0x5da
 10562 259a 0C010000 		.4byte	0x10c
 10563 259e 4C1C0000 		.4byte	.LLST112
 10564 25a2 28       		.uleb128 0x28
 10565 25a3 82040000 		.4byte	.LASF239
 10566 25a7 01       		.byte	0x1
 10567 25a8 DB05     		.2byte	0x5db
 10568 25aa EF000000 		.4byte	0xef
 10569 25ae 02       		.uleb128 0x2
 10570 25af 91       		.byte	0x91
 10571 25b0 00       		.sleb128 0
 10572 25b1 1F       		.uleb128 0x1f
 10573 25b2 92040000 		.4byte	.LASF240
 10574 25b6 01       		.byte	0x1
 10575 25b7 DC05     		.2byte	0x5dc
 10576 25b9 0C010000 		.4byte	0x10c
 10577 25bd 781C0000 		.4byte	.LLST113
 10578 25c1 28       		.uleb128 0x28
 10579 25c2 7C130000 		.4byte	.LASF241
 10580 25c6 01       		.byte	0x1
 10581 25c7 DD05     		.2byte	0x5dd
 10582 25c9 EF000000 		.4byte	0xef
 10583 25cd 02       		.uleb128 0x2
 10584 25ce 91       		.byte	0x91
 10585 25cf 08       		.sleb128 8
 10586 25d0 28       		.uleb128 0x28
 10587 25d1 A3060000 		.4byte	.LASF242
 10588 25d5 01       		.byte	0x1
 10589 25d6 DE05     		.2byte	0x5de
 10590 25d8 D9160000 		.4byte	0x16d9
 10591 25dc 02       		.uleb128 0x2
 10592 25dd 91       		.byte	0x91
 10593 25de 0C       		.sleb128 12
 10594 25df 25       		.uleb128 0x25
 10595 25e0 2A130000 		.4byte	.LASF243
 10596 25e4 01       		.byte	0x1
 10597 25e5 E005     		.2byte	0x5e0
 10598 25e7 46270000 		.4byte	0x2746
 10599 25eb 12       		.byte	0x12
 10600 25ec 20       		.uleb128 0x20
 10601 25ed F9110000 		.4byte	.LASF244
 10602 25f1 01       		.byte	0x1
 10603 25f2 E105     		.2byte	0x5e1
 10604 25f4 4B270000 		.4byte	0x274b
 10605 25f8 0040     		.2byte	0x4000
 10606 25fa 25       		.uleb128 0x25
ARM GAS  C:\Users\Rajesh\AppData\Local\Temp\ccMJoliC.s 			page 228


 10607 25fb 010E0000 		.4byte	.LASF245
 10608 25ff 01       		.byte	0x1
 10609 2600 E205     		.2byte	0x5e2
 10610 2602 4B270000 		.4byte	0x274b
 10611 2606 42       		.byte	0x42
 10612 2607 25       		.uleb128 0x25
 10613 2608 6F120000 		.4byte	.LASF246
 10614 260c 01       		.byte	0x1
 10615 260d E305     		.2byte	0x5e3
 10616 260f 46270000 		.4byte	0x2746
 10617 2613 06       		.byte	0x6
 10618 2614 25       		.uleb128 0x25
 10619 2615 04070000 		.4byte	.LASF247
 10620 2619 01       		.byte	0x1
 10621 261a E405     		.2byte	0x5e4
 10622 261c 46270000 		.4byte	0x2746
 10623 2620 07       		.byte	0x7
 10624 2621 22       		.uleb128 0x22
 10625 2622 F4100000 		.4byte	.LASF248
 10626 2626 01       		.byte	0x1
 10627 2627 E505     		.2byte	0x5e5
 10628 2629 EF000000 		.4byte	0xef
 10629 262d CF1C0000 		.4byte	.LLST114
 10630 2631 22       		.uleb128 0x22
 10631 2632 26140000 		.4byte	.LASF249
 10632 2636 01       		.byte	0x1
 10633 2637 E605     		.2byte	0x5e6
 10634 2639 0C010000 		.4byte	0x10c
 10635 263d ED1C0000 		.4byte	.LLST115
 10636 2641 22       		.uleb128 0x22
 10637 2642 B6010000 		.4byte	.LASF250
 10638 2646 01       		.byte	0x1
 10639 2647 E705     		.2byte	0x5e7
 10640 2649 0C010000 		.4byte	0x10c
 10641 264d 2A1D0000 		.4byte	.LLST116
 10642 2651 22       		.uleb128 0x22
 10643 2652 A4180000 		.4byte	.LASF251
 10644 2656 01       		.byte	0x1
 10645 2657 E805     		.2byte	0x5e8
 10646 2659 0C010000 		.4byte	0x10c
 10647 265d B81D0000 		.4byte	.LLST117
 10648 2661 22       		.uleb128 0x22
 10649 2662 B7180000 		.4byte	.LASF252
 10650 2666 01       		.byte	0x1
 10651 2667 E905     		.2byte	0x5e9
 10652 2669 0C010000 		.4byte	0x10c
 10653 266d 1A1E0000 		.4byte	.LLST118
 10654 2671 22       		.uleb128 0x22
 10655 2672 CA180000 		.4byte	.LASF253
 10656 2676 01       		.byte	0x1
 10657 2677 EA05     		.2byte	0x5ea
 10658 2679 0C010000 		.4byte	0x10c
 10659 267d 991E0000 		.4byte	.LLST119
 10660 2681 25       		.uleb128 0x25
 10661 2682 DD180000 		.4byte	.LASF254
 10662 2686 01       		.byte	0x1
 10663 2687 EB05     		.2byte	0x5eb
ARM GAS  C:\Users\Rajesh\AppData\Local\Temp\ccMJoliC.s 			page 229


 10664 2689 0C010000 		.4byte	0x10c
 10665 268d FE       		.byte	0xfe
 10666 268e 29       		.uleb128 0x29
 10667 268f 29160000 		.4byte	.LASF255
 10668 2693 01       		.byte	0x1
 10669 2694 EC05     		.2byte	0x5ec
 10670 2696 0C010000 		.4byte	0x10c
 10671 269a E1520100 		.4byte	0x152e1
 10672 269e 20       		.uleb128 0x20
 10673 269f 330D0000 		.4byte	.LASF256
 10674 26a3 01       		.byte	0x1
 10675 26a4 ED05     		.2byte	0x5ed
 10676 26a6 0C010000 		.4byte	0x10c
 10677 26aa 1001     		.2byte	0x110
 10678 26ac 25       		.uleb128 0x25
 10679 26ad 71030000 		.4byte	.LASF257
 10680 26b1 01       		.byte	0x1
 10681 26b2 EE05     		.2byte	0x5ee
 10682 26b4 0C010000 		.4byte	0x10c
 10683 26b8 40       		.byte	0x40
 10684 26b9 22       		.uleb128 0x22
 10685 26ba 54160000 		.4byte	.LASF258
 10686 26be 01       		.byte	0x1
 10687 26bf EF05     		.2byte	0x5ef
 10688 26c1 0C010000 		.4byte	0x10c
 10689 26c5 B71E0000 		.4byte	.LLST120
 10690 26c9 22       		.uleb128 0x22
 10691 26ca 76110000 		.4byte	.LASF259
 10692 26ce 01       		.byte	0x1
 10693 26cf F005     		.2byte	0x5f0
 10694 26d1 0C010000 		.4byte	0x10c
 10695 26d5 E31E0000 		.4byte	.LLST121
 10696 26d9 22       		.uleb128 0x22
 10697 26da 0A010000 		.4byte	.LASF260
 10698 26de 01       		.byte	0x1
 10699 26df F105     		.2byte	0x5f1
 10700 26e1 0C010000 		.4byte	0x10c
 10701 26e5 171F0000 		.4byte	.LLST122
 10702 26e9 22       		.uleb128 0x22
 10703 26ea F8170000 		.4byte	.LASF261
 10704 26ee 01       		.byte	0x1
 10705 26ef F205     		.2byte	0x5f2
 10706 26f1 0C010000 		.4byte	0x10c
 10707 26f5 401F0000 		.4byte	.LLST123
 10708 26f9 22       		.uleb128 0x22
 10709 26fa 10140000 		.4byte	.LASF262
 10710 26fe 01       		.byte	0x1
 10711 26ff F305     		.2byte	0x5f3
 10712 2701 0C010000 		.4byte	0x10c
 10713 2705 621F0000 		.4byte	.LLST124
 10714 2709 22       		.uleb128 0x22
 10715 270a 6E160000 		.4byte	.LASF263
 10716 270e 01       		.byte	0x1
 10717 270f F405     		.2byte	0x5f4
 10718 2711 EF000000 		.4byte	0xef
 10719 2715 AC1F0000 		.4byte	.LLST125
 10720 2719 25       		.uleb128 0x25
ARM GAS  C:\Users\Rajesh\AppData\Local\Temp\ccMJoliC.s 			page 230


 10721 271a 20020000 		.4byte	.LASF131
 10722 271e 01       		.byte	0x1
 10723 271f F605     		.2byte	0x5f6
 10724 2721 4B010000 		.4byte	0x14b
 10725 2725 00       		.byte	0
 10726 2726 18       		.uleb128 0x18
 10727 2727 C8000000 		.4byte	.LVL720
 10728 272b 80080000 		.4byte	0x880
 10729 272f 3C270000 		.4byte	0x273c
 10730 2733 19       		.uleb128 0x19
 10731 2734 01       		.uleb128 0x1
 10732 2735 50       		.byte	0x50
 10733 2736 04       		.uleb128 0x4
 10734 2737 76       		.byte	0x76
 10735 2738 20       		.sleb128 32
 10736 2739 36       		.byte	0x36
 10737 273a 25       		.byte	0x25
 10738 273b 00       		.byte	0
 10739 273c 24       		.uleb128 0x24
 10740 273d E8000000 		.4byte	.LVL727
 10741 2741 80080000 		.4byte	0x880
 10742 2745 00       		.byte	0
 10743 2746 2A       		.uleb128 0x2a
 10744 2747 EF000000 		.4byte	0xef
 10745 274b 2A       		.uleb128 0x2a
 10746 274c 0C010000 		.4byte	0x10c
 10747 2750 23       		.uleb128 0x23
 10748 2751 39170000 		.4byte	.LASF264
 10749 2755 01       		.byte	0x1
 10750 2756 9606     		.2byte	0x696
 10751 2758 4B010000 		.4byte	0x14b
 10752 275c 00000000 		.4byte	.LFB24
 10753 2760 B0020000 		.4byte	.LFE24-.LFB24
 10754 2764 01       		.uleb128 0x1
 10755 2765 9C       		.byte	0x9c
 10756 2766 842B0000 		.4byte	0x2b84
 10757 276a 1E       		.uleb128 0x1e
 10758 276b 44657600 		.ascii	"Dev\000"
 10759 276f 01       		.byte	0x1
 10760 2770 9606     		.2byte	0x696
 10761 2772 02070000 		.4byte	0x702
 10762 2776 CF1F0000 		.4byte	.LLST126
 10763 277a 1F       		.uleb128 0x1f
 10764 277b C00A0000 		.4byte	.LASF228
 10765 277f 01       		.byte	0x1
 10766 2780 9706     		.2byte	0x697
 10767 2782 B4240000 		.4byte	0x24b4
 10768 2786 FB1F0000 		.4byte	.LLST127
 10769 278a 1F       		.uleb128 0x1f
 10770 278b F0180000 		.4byte	.LASF265
 10771 278f 01       		.byte	0x1
 10772 2790 9806     		.2byte	0x698
 10773 2792 BA240000 		.4byte	0x24ba
 10774 2796 27200000 		.4byte	.LLST128
 10775 279a 1F       		.uleb128 0x1f
 10776 279b D1050000 		.4byte	.LASF266
 10777 279f 01       		.byte	0x1
ARM GAS  C:\Users\Rajesh\AppData\Local\Temp\ccMJoliC.s 			page 231


 10778 27a0 9906     		.2byte	0x699
 10779 27a2 D9160000 		.4byte	0x16d9
 10780 27a6 47200000 		.4byte	.LLST129
 10781 27aa 20       		.uleb128 0x20
 10782 27ab F4040000 		.4byte	.LASF267
 10783 27af 01       		.byte	0x1
 10784 27b0 9C06     		.2byte	0x69c
 10785 27b2 46270000 		.4byte	0x2746
 10786 27b6 2003     		.2byte	0x320
 10787 27b8 20       		.uleb128 0x20
 10788 27b9 D7030000 		.4byte	.LASF268
 10789 27bd 01       		.byte	0x1
 10790 27be 9E06     		.2byte	0x69e
 10791 27c0 46270000 		.4byte	0x2746
 10792 27c4 5802     		.2byte	0x258
 10793 27c6 29       		.uleb128 0x29
 10794 27c7 6C0D0000 		.4byte	.LASF269
 10795 27cb 01       		.byte	0x1
 10796 27cc 9F06     		.2byte	0x69f
 10797 27ce 4B270000 		.4byte	0x274b
 10798 27d2 00001900 		.4byte	0x190000
 10799 27d6 20       		.uleb128 0x20
 10800 27d7 CC170000 		.4byte	.LASF270
 10801 27db 01       		.byte	0x1
 10802 27dc A006     		.2byte	0x6a0
 10803 27de 46270000 		.4byte	0x2746
 10804 27e2 5C12     		.2byte	0x125c
 10805 27e4 29       		.uleb128 0x29
 10806 27e5 EE080000 		.4byte	.LASF271
 10807 27e9 01       		.byte	0x1
 10808 27ea A106     		.2byte	0x6a1
 10809 27ec 4B270000 		.4byte	0x274b
 10810 27f0 AE878F02 		.4byte	0x28f87ae
 10811 27f4 20       		.uleb128 0x20
 10812 27f5 C8100000 		.4byte	.LASF272
 10813 27f9 01       		.byte	0x1
 10814 27fa A206     		.2byte	0x6a2
 10815 27fc 4B270000 		.4byte	0x274b
 10816 2800 00F0     		.2byte	0xf000
 10817 2802 29       		.uleb128 0x29
 10818 2803 280B0000 		.4byte	.LASF273
 10819 2807 01       		.byte	0x1
 10820 2808 A306     		.2byte	0x6a3
 10821 280a 4B270000 		.4byte	0x274b
 10822 280e 66666600 		.4byte	0x666666
 10823 2812 29       		.uleb128 0x29
 10824 2813 64050000 		.4byte	.LASF274
 10825 2817 01       		.byte	0x1
 10826 2818 A606     		.2byte	0x6a6
 10827 281a 4B270000 		.4byte	0x274b
 10828 281e 9A990600 		.4byte	0x6999a
 10829 2822 20       		.uleb128 0x20
 10830 2823 A7110000 		.4byte	.LASF275
 10831 2827 01       		.byte	0x1
 10832 2828 A706     		.2byte	0x6a7
 10833 282a 46270000 		.4byte	0x2746
 10834 282e 0080     		.2byte	0x8000
ARM GAS  C:\Users\Rajesh\AppData\Local\Temp\ccMJoliC.s 			page 232


 10835 2830 29       		.uleb128 0x29
 10836 2831 F70B0000 		.4byte	.LASF276
 10837 2835 01       		.byte	0x1
 10838 2836 A806     		.2byte	0x6a8
 10839 2838 4B270000 		.4byte	0x274b
 10840 283c 00003200 		.4byte	0x320000
 10841 2840 20       		.uleb128 0x20
 10842 2841 60160000 		.4byte	.LASF277
 10843 2845 01       		.byte	0x1
 10844 2846 A906     		.2byte	0x6a9
 10845 2848 46270000 		.4byte	0x2746
 10846 284c 7706     		.2byte	0x677
 10847 284e 22       		.uleb128 0x22
 10848 284f 7F110000 		.4byte	.LASF278
 10849 2853 01       		.byte	0x1
 10850 2854 AB06     		.2byte	0x6ab
 10851 2856 EF000000 		.4byte	0xef
 10852 285a 67200000 		.4byte	.LLST130
 10853 285e 22       		.uleb128 0x22
 10854 285f 64060000 		.4byte	.LASF279
 10855 2863 01       		.byte	0x1
 10856 2864 AC06     		.2byte	0x6ac
 10857 2866 EF000000 		.4byte	0xef
 10858 286a F0200000 		.4byte	.LLST131
 10859 286e 22       		.uleb128 0x22
 10860 286f 0C0A0000 		.4byte	.LASF280
 10861 2873 01       		.byte	0x1
 10862 2874 AD06     		.2byte	0x6ad
 10863 2876 EF000000 		.4byte	0xef
 10864 287a 0F210000 		.4byte	.LLST132
 10865 287e 22       		.uleb128 0x22
 10866 287f 9B170000 		.4byte	.LASF281
 10867 2883 01       		.byte	0x1
 10868 2884 AE06     		.2byte	0x6ae
 10869 2886 EF000000 		.4byte	0xef
 10870 288a 2E210000 		.4byte	.LLST133
 10871 288e 22       		.uleb128 0x22
 10872 288f 82040000 		.4byte	.LASF239
 10873 2893 01       		.byte	0x1
 10874 2894 AF06     		.2byte	0x6af
 10875 2896 0C010000 		.4byte	0x10c
 10876 289a 4D210000 		.4byte	.LLST134
 10877 289e 22       		.uleb128 0x22
 10878 289f 92040000 		.4byte	.LASF240
 10879 28a3 01       		.byte	0x1
 10880 28a4 B006     		.2byte	0x6b0
 10881 28a6 0C010000 		.4byte	0x10c
 10882 28aa 63210000 		.4byte	.LLST135
 10883 28ae 22       		.uleb128 0x22
 10884 28af A2040000 		.4byte	.LASF282
 10885 28b3 01       		.byte	0x1
 10886 28b4 B106     		.2byte	0x6b1
 10887 28b6 0C010000 		.4byte	0x10c
 10888 28ba 8D210000 		.4byte	.LLST136
 10889 28be 22       		.uleb128 0x22
 10890 28bf 40140000 		.4byte	.LASF283
 10891 28c3 01       		.byte	0x1
ARM GAS  C:\Users\Rajesh\AppData\Local\Temp\ccMJoliC.s 			page 233


 10892 28c4 B206     		.2byte	0x6b2
 10893 28c6 0C010000 		.4byte	0x10c
 10894 28ca AB210000 		.4byte	.LLST137
 10895 28ce 22       		.uleb128 0x22
 10896 28cf 87150000 		.4byte	.LASF238
 10897 28d3 01       		.byte	0x1
 10898 28d4 B306     		.2byte	0x6b3
 10899 28d6 0C010000 		.4byte	0x10c
 10900 28da C9210000 		.4byte	.LLST138
 10901 28de 22       		.uleb128 0x22
 10902 28df 61140000 		.4byte	.LASF284
 10903 28e3 01       		.byte	0x1
 10904 28e4 B406     		.2byte	0x6b4
 10905 28e6 0C010000 		.4byte	0x10c
 10906 28ea FD210000 		.4byte	.LLST139
 10907 28ee 22       		.uleb128 0x22
 10908 28ef 21120000 		.4byte	.LASF285
 10909 28f3 01       		.byte	0x1
 10910 28f4 B506     		.2byte	0x6b5
 10911 28f6 0C010000 		.4byte	0x10c
 10912 28fa 26220000 		.4byte	.LLST140
 10913 28fe 22       		.uleb128 0x22
 10914 28ff 2E010000 		.4byte	.LASF286
 10915 2903 01       		.byte	0x1
 10916 2904 B606     		.2byte	0x6b6
 10917 2906 0C010000 		.4byte	0x10c
 10918 290a 4F220000 		.4byte	.LLST141
 10919 290e 22       		.uleb128 0x22
 10920 290f 04110000 		.4byte	.LASF287
 10921 2913 01       		.byte	0x1
 10922 2914 B706     		.2byte	0x6b7
 10923 2916 0C010000 		.4byte	0x10c
 10924 291a 6D220000 		.4byte	.LLST142
 10925 291e 22       		.uleb128 0x22
 10926 291f 4E0B0000 		.4byte	.LASF288
 10927 2923 01       		.byte	0x1
 10928 2924 B806     		.2byte	0x6b8
 10929 2926 0C010000 		.4byte	0x10c
 10930 292a 80220000 		.4byte	.LLST143
 10931 292e 21       		.uleb128 0x21
 10932 292f 350A0000 		.4byte	.LASF289
 10933 2933 01       		.byte	0x1
 10934 2934 B906     		.2byte	0x6b9
 10935 2936 0C010000 		.4byte	0x10c
 10936 293a 02       		.uleb128 0x2
 10937 293b 91       		.byte	0x91
 10938 293c 54       		.sleb128 -44
 10939 293d 22       		.uleb128 0x22
 10940 293e FF180000 		.4byte	.LASF290
 10941 2942 01       		.byte	0x1
 10942 2943 BA06     		.2byte	0x6ba
 10943 2945 EF000000 		.4byte	0xef
 10944 2949 20230000 		.4byte	.LLST144
 10945 294d 22       		.uleb128 0x22
 10946 294e 20020000 		.4byte	.LASF131
 10947 2952 01       		.byte	0x1
 10948 2953 BB06     		.2byte	0x6bb
ARM GAS  C:\Users\Rajesh\AppData\Local\Temp\ccMJoliC.s 			page 234


 10949 2955 4B010000 		.4byte	0x14b
 10950 2959 33230000 		.4byte	.LLST145
 10951 295d 22       		.uleb128 0x22
 10952 295e 85100000 		.4byte	.LASF291
 10953 2962 01       		.byte	0x1
 10954 2963 BC06     		.2byte	0x6bc
 10955 2965 0C010000 		.4byte	0x10c
 10956 2969 5D230000 		.4byte	.LLST146
 10957 296d 22       		.uleb128 0x22
 10958 296e F5120000 		.4byte	.LASF292
 10959 2972 01       		.byte	0x1
 10960 2973 BD06     		.2byte	0x6bd
 10961 2975 0C010000 		.4byte	0x10c
 10962 2979 95230000 		.4byte	.LLST147
 10963 297d 22       		.uleb128 0x22
 10964 297e 0B040000 		.4byte	.LASF293
 10965 2982 01       		.byte	0x1
 10966 2983 BE06     		.2byte	0x6be
 10967 2985 0C010000 		.4byte	0x10c
 10968 2989 B3230000 		.4byte	.LLST148
 10969 298d 22       		.uleb128 0x22
 10970 298e 10040000 		.4byte	.LASF294
 10971 2992 01       		.byte	0x1
 10972 2993 BF06     		.2byte	0x6bf
 10973 2995 0C010000 		.4byte	0x10c
 10974 2999 8B240000 		.4byte	.LLST149
 10975 299d 22       		.uleb128 0x22
 10976 299e 650D0000 		.4byte	.LASF295
 10977 29a2 01       		.byte	0x1
 10978 29a3 C006     		.2byte	0x6c0
 10979 29a5 0C010000 		.4byte	0x10c
 10980 29a9 D3240000 		.4byte	.LLST150
 10981 29ad 22       		.uleb128 0x22
 10982 29ae 8E150000 		.4byte	.LASF296
 10983 29b2 01       		.byte	0x1
 10984 29b3 C106     		.2byte	0x6c1
 10985 29b5 0C010000 		.4byte	0x10c
 10986 29b9 02260000 		.4byte	.LLST151
 10987 29bd 22       		.uleb128 0x22
 10988 29be C9090000 		.4byte	.LASF297
 10989 29c2 01       		.byte	0x1
 10990 29c3 C206     		.2byte	0x6c2
 10991 29c5 0C010000 		.4byte	0x10c
 10992 29c9 22260000 		.4byte	.LLST152
 10993 29cd 21       		.uleb128 0x21
 10994 29ce 1C030000 		.4byte	.LASF236
 10995 29d2 01       		.byte	0x1
 10996 29d3 C306     		.2byte	0x6c3
 10997 29d5 0C010000 		.4byte	0x10c
 10998 29d9 02       		.uleb128 0x2
 10999 29da 91       		.byte	0x91
 11000 29db 50       		.sleb128 -48
 11001 29dc 22       		.uleb128 0x22
 11002 29dd E00F0000 		.4byte	.LASF298
 11003 29e1 01       		.byte	0x1
 11004 29e2 C406     		.2byte	0x6c4
 11005 29e4 0C010000 		.4byte	0x10c
ARM GAS  C:\Users\Rajesh\AppData\Local\Temp\ccMJoliC.s 			page 235


 11006 29e8 35260000 		.4byte	.LLST153
 11007 29ec 22       		.uleb128 0x22
 11008 29ed 81140000 		.4byte	.LASF299
 11009 29f1 01       		.byte	0x1
 11010 29f2 C506     		.2byte	0x6c5
 11011 29f4 0C010000 		.4byte	0x10c
 11012 29f8 55260000 		.4byte	.LLST154
 11013 29fc 22       		.uleb128 0x22
 11014 29fd 93110000 		.4byte	.LASF300
 11015 2a01 01       		.byte	0x1
 11016 2a02 C606     		.2byte	0x6c6
 11017 2a04 EF000000 		.4byte	0xef
 11018 2a08 8F260000 		.4byte	.LLST155
 11019 2a0c 22       		.uleb128 0x22
 11020 2a0d 4C130000 		.4byte	.LASF301
 11021 2a11 01       		.byte	0x1
 11022 2a12 C706     		.2byte	0x6c7
 11023 2a14 EF000000 		.4byte	0xef
 11024 2a18 AE260000 		.4byte	.LLST156
 11025 2a1c 22       		.uleb128 0x22
 11026 2a1d 3F0E0000 		.4byte	.LASF302
 11027 2a21 01       		.byte	0x1
 11028 2a22 C806     		.2byte	0x6c8
 11029 2a24 EF000000 		.4byte	0xef
 11030 2a28 CD260000 		.4byte	.LLST157
 11031 2a2c 22       		.uleb128 0x22
 11032 2a2d 7C130000 		.4byte	.LASF241
 11033 2a31 01       		.byte	0x1
 11034 2a32 C906     		.2byte	0x6c9
 11035 2a34 EF000000 		.4byte	0xef
 11036 2a38 E0260000 		.4byte	.LLST158
 11037 2a3c 22       		.uleb128 0x22
 11038 2a3d 80030000 		.4byte	.LASF303
 11039 2a41 01       		.byte	0x1
 11040 2a42 CA06     		.2byte	0x6ca
 11041 2a44 C3000000 		.4byte	0xc3
 11042 2a48 4D270000 		.4byte	.LLST159
 11043 2a4c 22       		.uleb128 0x22
 11044 2a4d 0D020000 		.4byte	.LASF304
 11045 2a51 01       		.byte	0x1
 11046 2a52 CB06     		.2byte	0x6cb
 11047 2a54 C3000000 		.4byte	0xc3
 11048 2a58 81270000 		.4byte	.LLST160
 11049 2a5c 18       		.uleb128 0x18
 11050 2a5d 2E000000 		.4byte	.LVL738
 11051 2a61 C0240000 		.4byte	0x24c0
 11052 2a65 7C2A0000 		.4byte	0x2a7c
 11053 2a69 19       		.uleb128 0x19
 11054 2a6a 01       		.uleb128 0x1
 11055 2a6b 50       		.byte	0x50
 11056 2a6c 02       		.uleb128 0x2
 11057 2a6d 75       		.byte	0x75
 11058 2a6e 00       		.sleb128 0
 11059 2a6f 19       		.uleb128 0x19
 11060 2a70 01       		.uleb128 0x1
 11061 2a71 51       		.byte	0x51
 11062 2a72 02       		.uleb128 0x2
ARM GAS  C:\Users\Rajesh\AppData\Local\Temp\ccMJoliC.s 			page 236


 11063 2a73 79       		.byte	0x79
 11064 2a74 00       		.sleb128 0
 11065 2a75 19       		.uleb128 0x19
 11066 2a76 01       		.uleb128 0x1
 11067 2a77 52       		.byte	0x52
 11068 2a78 02       		.uleb128 0x2
 11069 2a79 91       		.byte	0x91
 11070 2a7a 50       		.sleb128 -48
 11071 2a7b 00       		.byte	0
 11072 2a7c 18       		.uleb128 0x18
 11073 2a7d 38000000 		.4byte	.LVL739
 11074 2a81 14240000 		.4byte	0x2414
 11075 2a85 9C2A0000 		.4byte	0x2a9c
 11076 2a89 19       		.uleb128 0x19
 11077 2a8a 01       		.uleb128 0x1
 11078 2a8b 50       		.byte	0x50
 11079 2a8c 02       		.uleb128 0x2
 11080 2a8d 75       		.byte	0x75
 11081 2a8e 00       		.sleb128 0
 11082 2a8f 19       		.uleb128 0x19
 11083 2a90 01       		.uleb128 0x1
 11084 2a91 51       		.byte	0x51
 11085 2a92 02       		.uleb128 0x2
 11086 2a93 79       		.byte	0x79
 11087 2a94 00       		.sleb128 0
 11088 2a95 19       		.uleb128 0x19
 11089 2a96 01       		.uleb128 0x1
 11090 2a97 52       		.byte	0x52
 11091 2a98 02       		.uleb128 0x2
 11092 2a99 91       		.byte	0x91
 11093 2a9a 54       		.sleb128 -44
 11094 2a9b 00       		.byte	0
 11095 2a9c 18       		.uleb128 0x18
 11096 2a9d 74000000 		.4byte	.LVL751
 11097 2aa1 56130000 		.4byte	0x1356
 11098 2aa5 BD2A0000 		.4byte	0x2abd
 11099 2aa9 19       		.uleb128 0x19
 11100 2aaa 01       		.uleb128 0x1
 11101 2aab 50       		.byte	0x50
 11102 2aac 02       		.uleb128 0x2
 11103 2aad 75       		.byte	0x75
 11104 2aae 00       		.sleb128 0
 11105 2aaf 19       		.uleb128 0x19
 11106 2ab0 01       		.uleb128 0x1
 11107 2ab1 51       		.byte	0x51
 11108 2ab2 03       		.uleb128 0x3
 11109 2ab3 91       		.byte	0x91
 11110 2ab4 44       		.sleb128 -60
 11111 2ab5 06       		.byte	0x6
 11112 2ab6 19       		.uleb128 0x19
 11113 2ab7 01       		.uleb128 0x1
 11114 2ab8 52       		.byte	0x52
 11115 2ab9 02       		.uleb128 0x2
 11116 2aba 7A       		.byte	0x7a
 11117 2abb 00       		.sleb128 0
 11118 2abc 00       		.byte	0
 11119 2abd 18       		.uleb128 0x18
ARM GAS  C:\Users\Rajesh\AppData\Local\Temp\ccMJoliC.s 			page 237


 11120 2abe 88000000 		.4byte	.LVL756
 11121 2ac2 56130000 		.4byte	0x1356
 11122 2ac6 D82A0000 		.4byte	0x2ad8
 11123 2aca 19       		.uleb128 0x19
 11124 2acb 01       		.uleb128 0x1
 11125 2acc 50       		.byte	0x50
 11126 2acd 02       		.uleb128 0x2
 11127 2ace 75       		.byte	0x75
 11128 2acf 00       		.sleb128 0
 11129 2ad0 19       		.uleb128 0x19
 11130 2ad1 01       		.uleb128 0x1
 11131 2ad2 51       		.byte	0x51
 11132 2ad3 03       		.uleb128 0x3
 11133 2ad4 91       		.byte	0x91
 11134 2ad5 48       		.sleb128 -56
 11135 2ad6 06       		.byte	0x6
 11136 2ad7 00       		.byte	0
 11137 2ad8 18       		.uleb128 0x18
 11138 2ad9 1E010000 		.4byte	.LVL785
 11139 2add 80080000 		.4byte	0x880
 11140 2ae1 F32A0000 		.4byte	0x2af3
 11141 2ae5 19       		.uleb128 0x19
 11142 2ae6 01       		.uleb128 0x1
 11143 2ae7 50       		.byte	0x50
 11144 2ae8 09       		.uleb128 0x9
 11145 2ae9 7A       		.byte	0x7a
 11146 2aea 00       		.sleb128 0
 11147 2aeb 31       		.byte	0x31
 11148 2aec 24       		.byte	0x24
 11149 2aed 7A       		.byte	0x7a
 11150 2aee 00       		.sleb128 0
 11151 2aef 22       		.byte	0x22
 11152 2af0 32       		.byte	0x32
 11153 2af1 24       		.byte	0x24
 11154 2af2 00       		.byte	0
 11155 2af3 18       		.uleb128 0x18
 11156 2af4 B6010000 		.4byte	.LVL820
 11157 2af8 80080000 		.4byte	0x880
 11158 2afc 322B0000 		.4byte	0x2b32
 11159 2b00 19       		.uleb128 0x19
 11160 2b01 01       		.uleb128 0x1
 11161 2b02 50       		.byte	0x50
 11162 2b03 2D       		.uleb128 0x2d
 11163 2b04 77       		.byte	0x77
 11164 2b05 00       		.sleb128 0
 11165 2b06 0A       		.byte	0xa
 11166 2b07 2003     		.2byte	0x320
 11167 2b09 1E       		.byte	0x1e
 11168 2b0a 23       		.byte	0x23
 11169 2b0b 808002   		.uleb128 0x8000
 11170 2b0e 40       		.byte	0x40
 11171 2b0f 25       		.byte	0x25
 11172 2b10 77       		.byte	0x77
 11173 2b11 00       		.sleb128 0
 11174 2b12 0A       		.byte	0xa
 11175 2b13 2003     		.2byte	0x320
 11176 2b15 1E       		.byte	0x1e
ARM GAS  C:\Users\Rajesh\AppData\Local\Temp\ccMJoliC.s 			page 238


 11177 2b16 23       		.byte	0x23
 11178 2b17 808002   		.uleb128 0x8000
 11179 2b1a 40       		.byte	0x40
 11180 2b1b 25       		.byte	0x25
 11181 2b1c 1E       		.byte	0x1e
 11182 2b1d 91       		.byte	0x91
 11183 2b1e 40       		.sleb128 -64
 11184 2b1f 06       		.byte	0x6
 11185 2b20 23       		.byte	0x23
 11186 2b21 808002   		.uleb128 0x8000
 11187 2b24 40       		.byte	0x40
 11188 2b25 25       		.byte	0x25
 11189 2b26 91       		.byte	0x91
 11190 2b27 40       		.sleb128 -64
 11191 2b28 06       		.byte	0x6
 11192 2b29 23       		.byte	0x23
 11193 2b2a 808002   		.uleb128 0x8000
 11194 2b2d 40       		.byte	0x40
 11195 2b2e 25       		.byte	0x25
 11196 2b2f 1E       		.byte	0x1e
 11197 2b30 22       		.byte	0x22
 11198 2b31 00       		.byte	0
 11199 2b32 24       		.uleb128 0x24
 11200 2b33 18020000 		.4byte	.LVL837
 11201 2b37 80080000 		.4byte	0x880
 11202 2b3b 24       		.uleb128 0x24
 11203 2b3c 32020000 		.4byte	.LVL845
 11204 2b40 80080000 		.4byte	0x880
 11205 2b44 1A       		.uleb128 0x1a
 11206 2b45 7E020000 		.4byte	.LVL860
 11207 2b49 48250000 		.4byte	0x2548
 11208 2b4d 19       		.uleb128 0x19
 11209 2b4e 01       		.uleb128 0x1
 11210 2b4f 50       		.byte	0x50
 11211 2b50 02       		.uleb128 0x2
 11212 2b51 75       		.byte	0x75
 11213 2b52 00       		.sleb128 0
 11214 2b53 19       		.uleb128 0x19
 11215 2b54 01       		.uleb128 0x1
 11216 2b55 52       		.byte	0x52
 11217 2b56 04       		.uleb128 0x4
 11218 2b57 91       		.byte	0x91
 11219 2b58 BC7F     		.sleb128 -68
 11220 2b5a 06       		.byte	0x6
 11221 2b5b 19       		.uleb128 0x19
 11222 2b5c 01       		.uleb128 0x1
 11223 2b5d 53       		.byte	0x53
 11224 2b5e 02       		.uleb128 0x2
 11225 2b5f 77       		.byte	0x77
 11226 2b60 00       		.sleb128 0
 11227 2b61 19       		.uleb128 0x19
 11228 2b62 02       		.uleb128 0x2
 11229 2b63 7D       		.byte	0x7d
 11230 2b64 00       		.sleb128 0
 11231 2b65 03       		.uleb128 0x3
 11232 2b66 0A       		.byte	0xa
 11233 2b67 2003     		.2byte	0x320
ARM GAS  C:\Users\Rajesh\AppData\Local\Temp\ccMJoliC.s 			page 239


 11234 2b69 19       		.uleb128 0x19
 11235 2b6a 02       		.uleb128 0x2
 11236 2b6b 7D       		.byte	0x7d
 11237 2b6c 04       		.sleb128 4
 11238 2b6d 03       		.uleb128 0x3
 11239 2b6e 91       		.byte	0x91
 11240 2b6f 40       		.sleb128 -64
 11241 2b70 06       		.byte	0x6
 11242 2b71 19       		.uleb128 0x19
 11243 2b72 02       		.uleb128 0x2
 11244 2b73 7D       		.byte	0x7d
 11245 2b74 08       		.sleb128 8
 11246 2b75 03       		.uleb128 0x3
 11247 2b76 91       		.byte	0x91
 11248 2b77 4C       		.sleb128 -52
 11249 2b78 06       		.byte	0x6
 11250 2b79 19       		.uleb128 0x19
 11251 2b7a 02       		.uleb128 0x2
 11252 2b7b 7D       		.byte	0x7d
 11253 2b7c 0C       		.sleb128 12
 11254 2b7d 04       		.uleb128 0x4
 11255 2b7e 91       		.byte	0x91
 11256 2b7f B87F     		.sleb128 -72
 11257 2b81 06       		.byte	0x6
 11258 2b82 00       		.byte	0
 11259 2b83 00       		.byte	0
 11260 2b84 23       		.uleb128 0x23
 11261 2b85 87120000 		.4byte	.LASF305
 11262 2b89 01       		.byte	0x1
 11263 2b8a D807     		.2byte	0x7d8
 11264 2b8c 4B010000 		.4byte	0x14b
 11265 2b90 00000000 		.4byte	.LFB25
 11266 2b94 E0020000 		.4byte	.LFE25-.LFB25
 11267 2b98 01       		.uleb128 0x1
 11268 2b99 9C       		.byte	0x9c
 11269 2b9a 7D2E0000 		.4byte	0x2e7d
 11270 2b9e 1E       		.uleb128 0x1e
 11271 2b9f 44657600 		.ascii	"Dev\000"
 11272 2ba3 01       		.byte	0x1
 11273 2ba4 D807     		.2byte	0x7d8
 11274 2ba6 02070000 		.4byte	0x702
 11275 2baa 94270000 		.4byte	.LLST161
 11276 2bae 1F       		.uleb128 0x1f
 11277 2baf 52000000 		.4byte	.LASF306
 11278 2bb3 01       		.byte	0x1
 11279 2bb4 D907     		.2byte	0x7d9
 11280 2bb6 C3000000 		.4byte	0xc3
 11281 2bba C0270000 		.4byte	.LLST162
 11282 2bbe 1F       		.uleb128 0x1f
 11283 2bbf E3080000 		.4byte	.LASF307
 11284 2bc3 01       		.byte	0x1
 11285 2bc4 DA07     		.2byte	0x7da
 11286 2bc6 0C010000 		.4byte	0x10c
 11287 2bca E1270000 		.4byte	.LLST163
 11288 2bce 1F       		.uleb128 0x1f
 11289 2bcf 22080000 		.4byte	.LASF56
 11290 2bd3 01       		.byte	0x1
ARM GAS  C:\Users\Rajesh\AppData\Local\Temp\ccMJoliC.s 			page 240


 11291 2bd4 DB07     		.2byte	0x7db
 11292 2bd6 D9000000 		.4byte	0xd9
 11293 2bda 01280000 		.4byte	.LLST164
 11294 2bde 28       		.uleb128 0x28
 11295 2bdf C00A0000 		.4byte	.LASF228
 11296 2be3 01       		.byte	0x1
 11297 2be4 DC07     		.2byte	0x7dc
 11298 2be6 B4240000 		.4byte	0x24b4
 11299 2bea 02       		.uleb128 0x2
 11300 2beb 91       		.byte	0x91
 11301 2bec 00       		.sleb128 0
 11302 2bed 28       		.uleb128 0x28
 11303 2bee 37090000 		.4byte	.LASF308
 11304 2bf2 01       		.byte	0x1
 11305 2bf3 DD07     		.2byte	0x7dd
 11306 2bf5 33060000 		.4byte	0x633
 11307 2bf9 02       		.uleb128 0x2
 11308 2bfa 91       		.byte	0x91
 11309 2bfb 04       		.sleb128 4
 11310 2bfc 22       		.uleb128 0x22
 11311 2bfd 20020000 		.4byte	.LASF131
 11312 2c01 01       		.byte	0x1
 11313 2c02 DF07     		.2byte	0x7df
 11314 2c04 4B010000 		.4byte	0x14b
 11315 2c08 22280000 		.4byte	.LLST165
 11316 2c0c 22       		.uleb128 0x22
 11317 2c0d E8130000 		.4byte	.LASF309
 11318 2c11 01       		.byte	0x1
 11319 2c12 E007     		.2byte	0x7e0
 11320 2c14 C3000000 		.4byte	0xc3
 11321 2c18 BA280000 		.4byte	.LLST166
 11322 2c1c 22       		.uleb128 0x22
 11323 2c1d 8C190000 		.4byte	.LASF310
 11324 2c21 01       		.byte	0x1
 11325 2c22 E107     		.2byte	0x7e1
 11326 2c24 C3000000 		.4byte	0xc3
 11327 2c28 CD280000 		.4byte	.LLST167
 11328 2c2c 22       		.uleb128 0x22
 11329 2c2d F90F0000 		.4byte	.LASF311
 11330 2c31 01       		.byte	0x1
 11331 2c32 E207     		.2byte	0x7e2
 11332 2c34 C3000000 		.4byte	0xc3
 11333 2c38 EC280000 		.4byte	.LLST168
 11334 2c3c 22       		.uleb128 0x22
 11335 2c3d C6010000 		.4byte	.LASF312
 11336 2c41 01       		.byte	0x1
 11337 2c42 E307     		.2byte	0x7e3
 11338 2c44 C3000000 		.4byte	0xc3
 11339 2c48 0B290000 		.4byte	.LLST169
 11340 2c4c 21       		.uleb128 0x21
 11341 2c4d EB0D0000 		.4byte	.LASF313
 11342 2c51 01       		.byte	0x1
 11343 2c52 E407     		.2byte	0x7e4
 11344 2c54 C3000000 		.4byte	0xc3
 11345 2c58 02       		.uleb128 0x2
 11346 2c59 91       		.byte	0x91
 11347 2c5a 5F       		.sleb128 -33
ARM GAS  C:\Users\Rajesh\AppData\Local\Temp\ccMJoliC.s 			page 241


 11348 2c5b 21       		.uleb128 0x21
 11349 2c5c 0D0C0000 		.4byte	.LASF314
 11350 2c60 01       		.byte	0x1
 11351 2c61 E507     		.2byte	0x7e5
 11352 2c63 C3000000 		.4byte	0xc3
 11353 2c67 02       		.uleb128 0x2
 11354 2c68 91       		.byte	0x91
 11355 2c69 5E       		.sleb128 -34
 11356 2c6a 21       		.uleb128 0x21
 11357 2c6b FE020000 		.4byte	.LASF315
 11358 2c6f 01       		.byte	0x1
 11359 2c70 E607     		.2byte	0x7e6
 11360 2c72 C3000000 		.4byte	0xc3
 11361 2c76 02       		.uleb128 0x2
 11362 2c77 91       		.byte	0x91
 11363 2c78 5D       		.sleb128 -35
 11364 2c79 21       		.uleb128 0x21
 11365 2c7a D6150000 		.4byte	.LASF316
 11366 2c7e 01       		.byte	0x1
 11367 2c7f E707     		.2byte	0x7e7
 11368 2c81 C3000000 		.4byte	0xc3
 11369 2c85 02       		.uleb128 0x2
 11370 2c86 91       		.byte	0x91
 11371 2c87 5C       		.sleb128 -36
 11372 2c88 21       		.uleb128 0x21
 11373 2c89 BE170000 		.4byte	.LASF106
 11374 2c8d 01       		.byte	0x1
 11375 2c8e E807     		.2byte	0x7e8
 11376 2c90 0C010000 		.4byte	0x10c
 11377 2c94 02       		.uleb128 0x2
 11378 2c95 91       		.byte	0x91
 11379 2c96 58       		.sleb128 -40
 11380 2c97 21       		.uleb128 0x21
 11381 2c98 250A0000 		.4byte	.LASF317
 11382 2c9c 01       		.byte	0x1
 11383 2c9d E907     		.2byte	0x7e9
 11384 2c9f 0C010000 		.4byte	0x10c
 11385 2ca3 02       		.uleb128 0x2
 11386 2ca4 91       		.byte	0x91
 11387 2ca5 54       		.sleb128 -44
 11388 2ca6 21       		.uleb128 0x21
 11389 2ca7 490C0000 		.4byte	.LASF318
 11390 2cab 01       		.byte	0x1
 11391 2cac EA07     		.2byte	0x7ea
 11392 2cae 0C010000 		.4byte	0x10c
 11393 2cb2 02       		.uleb128 0x2
 11394 2cb3 91       		.byte	0x91
 11395 2cb4 50       		.sleb128 -48
 11396 2cb5 21       		.uleb128 0x21
 11397 2cb6 6B100000 		.4byte	.LASF319
 11398 2cba 01       		.byte	0x1
 11399 2cbb EB07     		.2byte	0x7eb
 11400 2cbd 0C010000 		.4byte	0x10c
 11401 2cc1 02       		.uleb128 0x2
 11402 2cc2 91       		.byte	0x91
 11403 2cc3 4C       		.sleb128 -52
 11404 2cc4 22       		.uleb128 0x22
ARM GAS  C:\Users\Rajesh\AppData\Local\Temp\ccMJoliC.s 			page 242


 11405 2cc5 59150000 		.4byte	.LASF320
 11406 2cc9 01       		.byte	0x1
 11407 2cca EC07     		.2byte	0x7ec
 11408 2ccc 0C010000 		.4byte	0x10c
 11409 2cd0 2A290000 		.4byte	.LLST170
 11410 2cd4 22       		.uleb128 0x22
 11411 2cd5 B5130000 		.4byte	.LASF321
 11412 2cd9 01       		.byte	0x1
 11413 2cda ED07     		.2byte	0x7ed
 11414 2cdc C3000000 		.4byte	0xc3
 11415 2ce0 5E290000 		.4byte	.LLST171
 11416 2ce4 21       		.uleb128 0x21
 11417 2ce5 F6160000 		.4byte	.LASF322
 11418 2ce9 01       		.byte	0x1
 11419 2cea EE07     		.2byte	0x7ee
 11420 2cec D9000000 		.4byte	0xd9
 11421 2cf0 02       		.uleb128 0x2
 11422 2cf1 91       		.byte	0x91
 11423 2cf2 4A       		.sleb128 -54
 11424 2cf3 22       		.uleb128 0x22
 11425 2cf4 390E0000 		.4byte	.LASF323
 11426 2cf8 01       		.byte	0x1
 11427 2cf9 EF07     		.2byte	0x7ef
 11428 2cfb C3000000 		.4byte	0xc3
 11429 2cff 7D290000 		.4byte	.LLST172
 11430 2d03 21       		.uleb128 0x21
 11431 2d04 08140000 		.4byte	.LASF324
 11432 2d08 01       		.byte	0x1
 11433 2d09 F007     		.2byte	0x7f0
 11434 2d0b EF000000 		.4byte	0xef
 11435 2d0f 02       		.uleb128 0x2
 11436 2d10 91       		.byte	0x91
 11437 2d11 44       		.sleb128 -60
 11438 2d12 22       		.uleb128 0x22
 11439 2d13 DE110000 		.4byte	.LASF108
 11440 2d17 01       		.byte	0x1
 11441 2d18 F107     		.2byte	0x7f1
 11442 2d1a 0C010000 		.4byte	0x10c
 11443 2d1e 122A0000 		.4byte	.LLST173
 11444 2d22 18       		.uleb128 0x18
 11445 2d23 94000000 		.4byte	.LVL875
 11446 2d27 1C2F0000 		.4byte	0x2f1c
 11447 2d2b 412D0000 		.4byte	0x2d41
 11448 2d2f 19       		.uleb128 0x19
 11449 2d30 01       		.uleb128 0x1
 11450 2d31 50       		.byte	0x50
 11451 2d32 02       		.uleb128 0x2
 11452 2d33 74       		.byte	0x74
 11453 2d34 00       		.sleb128 0
 11454 2d35 19       		.uleb128 0x19
 11455 2d36 01       		.uleb128 0x1
 11456 2d37 51       		.byte	0x51
 11457 2d38 01       		.uleb128 0x1
 11458 2d39 30       		.byte	0x30
 11459 2d3a 19       		.uleb128 0x19
 11460 2d3b 01       		.uleb128 0x1
 11461 2d3c 52       		.byte	0x52
ARM GAS  C:\Users\Rajesh\AppData\Local\Temp\ccMJoliC.s 			page 243


 11462 2d3d 02       		.uleb128 0x2
 11463 2d3e 76       		.byte	0x76
 11464 2d3f 00       		.sleb128 0
 11465 2d40 00       		.byte	0
 11466 2d41 18       		.uleb128 0x18
 11467 2d42 AA000000 		.4byte	.LVL877
 11468 2d46 50270000 		.4byte	0x2750
 11469 2d4a 682D0000 		.4byte	0x2d68
 11470 2d4e 19       		.uleb128 0x19
 11471 2d4f 01       		.uleb128 0x1
 11472 2d50 50       		.byte	0x50
 11473 2d51 02       		.uleb128 0x2
 11474 2d52 74       		.byte	0x74
 11475 2d53 00       		.sleb128 0
 11476 2d54 19       		.uleb128 0x19
 11477 2d55 01       		.uleb128 0x1
 11478 2d56 51       		.byte	0x51
 11479 2d57 03       		.uleb128 0x3
 11480 2d58 91       		.byte	0x91
 11481 2d59 00       		.sleb128 0
 11482 2d5a 06       		.byte	0x6
 11483 2d5b 19       		.uleb128 0x19
 11484 2d5c 01       		.uleb128 0x1
 11485 2d5d 52       		.byte	0x52
 11486 2d5e 02       		.uleb128 0x2
 11487 2d5f 91       		.byte	0x91
 11488 2d60 58       		.sleb128 -40
 11489 2d61 19       		.uleb128 0x19
 11490 2d62 01       		.uleb128 0x1
 11491 2d63 53       		.byte	0x53
 11492 2d64 02       		.uleb128 0x2
 11493 2d65 91       		.byte	0x91
 11494 2d66 44       		.sleb128 -60
 11495 2d67 00       		.byte	0
 11496 2d68 18       		.uleb128 0x18
 11497 2d69 C2000000 		.4byte	.LVL879
 11498 2d6d 282F0000 		.4byte	0x2f28
 11499 2d71 872D0000 		.4byte	0x2d87
 11500 2d75 19       		.uleb128 0x19
 11501 2d76 01       		.uleb128 0x1
 11502 2d77 50       		.byte	0x50
 11503 2d78 02       		.uleb128 0x2
 11504 2d79 74       		.byte	0x74
 11505 2d7a 00       		.sleb128 0
 11506 2d7b 19       		.uleb128 0x19
 11507 2d7c 01       		.uleb128 0x1
 11508 2d7d 51       		.byte	0x51
 11509 2d7e 01       		.uleb128 0x1
 11510 2d7f 30       		.byte	0x30
 11511 2d80 19       		.uleb128 0x19
 11512 2d81 01       		.uleb128 0x1
 11513 2d82 52       		.byte	0x52
 11514 2d83 02       		.uleb128 0x2
 11515 2d84 91       		.byte	0x91
 11516 2d85 54       		.sleb128 -44
 11517 2d86 00       		.byte	0
 11518 2d87 18       		.uleb128 0x18
ARM GAS  C:\Users\Rajesh\AppData\Local\Temp\ccMJoliC.s 			page 244


 11519 2d88 04010000 		.4byte	.LVL882
 11520 2d8c 1C2F0000 		.4byte	0x2f1c
 11521 2d90 A62D0000 		.4byte	0x2da6
 11522 2d94 19       		.uleb128 0x19
 11523 2d95 01       		.uleb128 0x1
 11524 2d96 50       		.byte	0x50
 11525 2d97 02       		.uleb128 0x2
 11526 2d98 74       		.byte	0x74
 11527 2d99 00       		.sleb128 0
 11528 2d9a 19       		.uleb128 0x19
 11529 2d9b 01       		.uleb128 0x1
 11530 2d9c 51       		.byte	0x51
 11531 2d9d 01       		.uleb128 0x1
 11532 2d9e 32       		.byte	0x32
 11533 2d9f 19       		.uleb128 0x19
 11534 2da0 01       		.uleb128 0x1
 11535 2da1 52       		.byte	0x52
 11536 2da2 02       		.uleb128 0x2
 11537 2da3 91       		.byte	0x91
 11538 2da4 5D       		.sleb128 -35
 11539 2da5 00       		.byte	0
 11540 2da6 18       		.uleb128 0x18
 11541 2da7 20010000 		.4byte	.LVL884
 11542 2dab 282F0000 		.4byte	0x2f28
 11543 2daf C52D0000 		.4byte	0x2dc5
 11544 2db3 19       		.uleb128 0x19
 11545 2db4 01       		.uleb128 0x1
 11546 2db5 50       		.byte	0x50
 11547 2db6 02       		.uleb128 0x2
 11548 2db7 74       		.byte	0x74
 11549 2db8 00       		.sleb128 0
 11550 2db9 19       		.uleb128 0x19
 11551 2dba 01       		.uleb128 0x1
 11552 2dbb 51       		.byte	0x51
 11553 2dbc 01       		.uleb128 0x1
 11554 2dbd 32       		.byte	0x32
 11555 2dbe 19       		.uleb128 0x19
 11556 2dbf 01       		.uleb128 0x1
 11557 2dc0 52       		.byte	0x52
 11558 2dc1 02       		.uleb128 0x2
 11559 2dc2 91       		.byte	0x91
 11560 2dc3 50       		.sleb128 -48
 11561 2dc4 00       		.byte	0
 11562 2dc5 18       		.uleb128 0x18
 11563 2dc6 2E010000 		.4byte	.LVL886
 11564 2dca 942E0000 		.4byte	0x2e94
 11565 2dce E42D0000 		.4byte	0x2de4
 11566 2dd2 19       		.uleb128 0x19
 11567 2dd3 01       		.uleb128 0x1
 11568 2dd4 50       		.byte	0x50
 11569 2dd5 02       		.uleb128 0x2
 11570 2dd6 74       		.byte	0x74
 11571 2dd7 00       		.sleb128 0
 11572 2dd8 19       		.uleb128 0x19
 11573 2dd9 01       		.uleb128 0x1
 11574 2dda 51       		.byte	0x51
 11575 2ddb 02       		.uleb128 0x2
ARM GAS  C:\Users\Rajesh\AppData\Local\Temp\ccMJoliC.s 			page 245


 11576 2ddc 09       		.byte	0x9
 11577 2ddd FF       		.byte	0xff
 11578 2dde 19       		.uleb128 0x19
 11579 2ddf 01       		.uleb128 0x1
 11580 2de0 52       		.byte	0x52
 11581 2de1 01       		.uleb128 0x1
 11582 2de2 31       		.byte	0x31
 11583 2de3 00       		.byte	0
 11584 2de4 18       		.uleb128 0x18
 11585 2de5 42010000 		.4byte	.LVL888
 11586 2de9 CC2E0000 		.4byte	0x2ecc
 11587 2ded 042E0000 		.4byte	0x2e04
 11588 2df1 19       		.uleb128 0x19
 11589 2df2 01       		.uleb128 0x1
 11590 2df3 50       		.byte	0x50
 11591 2df4 02       		.uleb128 0x2
 11592 2df5 74       		.byte	0x74
 11593 2df6 00       		.sleb128 0
 11594 2df7 19       		.uleb128 0x19
 11595 2df8 01       		.uleb128 0x1
 11596 2df9 51       		.byte	0x51
 11597 2dfa 02       		.uleb128 0x2
 11598 2dfb 09       		.byte	0x9
 11599 2dfc B6       		.byte	0xb6
 11600 2dfd 19       		.uleb128 0x19
 11601 2dfe 01       		.uleb128 0x1
 11602 2dff 52       		.byte	0x52
 11603 2e00 02       		.uleb128 0x2
 11604 2e01 91       		.byte	0x91
 11605 2e02 4A       		.sleb128 -54
 11606 2e03 00       		.byte	0
 11607 2e04 18       		.uleb128 0x18
 11608 2e05 50010000 		.4byte	.LVL890
 11609 2e09 942E0000 		.4byte	0x2e94
 11610 2e0d 232E0000 		.4byte	0x2e23
 11611 2e11 19       		.uleb128 0x19
 11612 2e12 01       		.uleb128 0x1
 11613 2e13 50       		.byte	0x50
 11614 2e14 02       		.uleb128 0x2
 11615 2e15 74       		.byte	0x74
 11616 2e16 00       		.sleb128 0
 11617 2e17 19       		.uleb128 0x19
 11618 2e18 01       		.uleb128 0x1
 11619 2e19 51       		.byte	0x51
 11620 2e1a 02       		.uleb128 0x2
 11621 2e1b 09       		.byte	0x9
 11622 2e1c FF       		.byte	0xff
 11623 2e1d 19       		.uleb128 0x19
 11624 2e1e 01       		.uleb128 0x1
 11625 2e1f 52       		.byte	0x52
 11626 2e20 01       		.uleb128 0x1
 11627 2e21 30       		.byte	0x30
 11628 2e22 00       		.byte	0
 11629 2e23 18       		.uleb128 0x18
 11630 2e24 8C010000 		.4byte	.LVL896
 11631 2e28 1C2F0000 		.4byte	0x2f1c
 11632 2e2c 422E0000 		.4byte	0x2e42
ARM GAS  C:\Users\Rajesh\AppData\Local\Temp\ccMJoliC.s 			page 246


 11633 2e30 19       		.uleb128 0x19
 11634 2e31 01       		.uleb128 0x1
 11635 2e32 50       		.byte	0x50
 11636 2e33 02       		.uleb128 0x2
 11637 2e34 74       		.byte	0x74
 11638 2e35 00       		.sleb128 0
 11639 2e36 19       		.uleb128 0x19
 11640 2e37 01       		.uleb128 0x1
 11641 2e38 51       		.byte	0x51
 11642 2e39 01       		.uleb128 0x1
 11643 2e3a 33       		.byte	0x33
 11644 2e3b 19       		.uleb128 0x19
 11645 2e3c 01       		.uleb128 0x1
 11646 2e3d 52       		.byte	0x52
 11647 2e3e 02       		.uleb128 0x2
 11648 2e3f 91       		.byte	0x91
 11649 2e40 5C       		.sleb128 -36
 11650 2e41 00       		.byte	0
 11651 2e42 18       		.uleb128 0x18
 11652 2e43 B6010000 		.4byte	.LVL902
 11653 2e47 282F0000 		.4byte	0x2f28
 11654 2e4b 612E0000 		.4byte	0x2e61
 11655 2e4f 19       		.uleb128 0x19
 11656 2e50 01       		.uleb128 0x1
 11657 2e51 50       		.byte	0x50
 11658 2e52 02       		.uleb128 0x2
 11659 2e53 74       		.byte	0x74
 11660 2e54 00       		.sleb128 0
 11661 2e55 19       		.uleb128 0x19
 11662 2e56 01       		.uleb128 0x1
 11663 2e57 51       		.byte	0x51
 11664 2e58 01       		.uleb128 0x1
 11665 2e59 33       		.byte	0x33
 11666 2e5a 19       		.uleb128 0x19
 11667 2e5b 01       		.uleb128 0x1
 11668 2e5c 52       		.byte	0x52
 11669 2e5d 02       		.uleb128 0x2
 11670 2e5e 91       		.byte	0x91
 11671 2e5f 4C       		.sleb128 -52
 11672 2e60 00       		.byte	0
 11673 2e61 1A       		.uleb128 0x1a
 11674 2e62 56020000 		.4byte	.LVL909
 11675 2e66 1C2F0000 		.4byte	0x2f1c
 11676 2e6a 19       		.uleb128 0x19
 11677 2e6b 01       		.uleb128 0x1
 11678 2e6c 50       		.byte	0x50
 11679 2e6d 02       		.uleb128 0x2
 11680 2e6e 74       		.byte	0x74
 11681 2e6f 00       		.sleb128 0
 11682 2e70 19       		.uleb128 0x19
 11683 2e71 01       		.uleb128 0x1
 11684 2e72 51       		.byte	0x51
 11685 2e73 01       		.uleb128 0x1
 11686 2e74 31       		.byte	0x31
 11687 2e75 19       		.uleb128 0x19
 11688 2e76 01       		.uleb128 0x1
 11689 2e77 52       		.byte	0x52
ARM GAS  C:\Users\Rajesh\AppData\Local\Temp\ccMJoliC.s 			page 247


 11690 2e78 02       		.uleb128 0x2
 11691 2e79 91       		.byte	0x91
 11692 2e7a 5E       		.sleb128 -34
 11693 2e7b 00       		.byte	0
 11694 2e7c 00       		.byte	0
 11695 2e7d 2B       		.uleb128 0x2b
 11696 2e7e 6B170000 		.4byte	.LASF325
 11697 2e82 6B170000 		.4byte	.LASF325
 11698 2e86 08       		.byte	0x8
 11699 2e87 AA05     		.2byte	0x5aa
 11700 2e89 2C       		.uleb128 0x2c
 11701 2e8a F60C0000 		.4byte	.LASF326
 11702 2e8e F60C0000 		.4byte	.LASF326
 11703 2e92 07       		.byte	0x7
 11704 2e93 E6       		.byte	0xe6
 11705 2e94 2C       		.uleb128 0x2c
 11706 2e95 D10F0000 		.4byte	.LASF327
 11707 2e99 D10F0000 		.4byte	.LASF327
 11708 2e9d 07       		.byte	0x7
 11709 2e9e 95       		.byte	0x95
 11710 2e9f 2C       		.uleb128 0x2c
 11711 2ea0 410D0000 		.4byte	.LASF328
 11712 2ea4 410D0000 		.4byte	.LASF328
 11713 2ea8 07       		.byte	0x7
 11714 2ea9 B3       		.byte	0xb3
 11715 2eaa 2C       		.uleb128 0x2c
 11716 2eab 7D0E0000 		.4byte	.LASF329
 11717 2eaf 7D0E0000 		.4byte	.LASF329
 11718 2eb3 07       		.byte	0x7
 11719 2eb4 C7       		.byte	0xc7
 11720 2eb5 2C       		.uleb128 0x2c
 11721 2eb6 3B150000 		.4byte	.LASF330
 11722 2eba 3B150000 		.4byte	.LASF330
 11723 2ebe 09       		.byte	0x9
 11724 2ebf 1E       		.byte	0x1e
 11725 2ec0 2B       		.uleb128 0x2b
 11726 2ec1 F3070000 		.4byte	.LASF331
 11727 2ec5 F3070000 		.4byte	.LASF331
 11728 2ec9 08       		.byte	0x8
 11729 2eca CF02     		.2byte	0x2cf
 11730 2ecc 2C       		.uleb128 0x2c
 11731 2ecd C80D0000 		.4byte	.LASF332
 11732 2ed1 C80D0000 		.4byte	.LASF332
 11733 2ed5 07       		.byte	0x7
 11734 2ed6 BD       		.byte	0xbd
 11735 2ed7 2B       		.uleb128 0x2b
 11736 2ed8 93090000 		.4byte	.LASF333
 11737 2edc 93090000 		.4byte	.LASF333
 11738 2ee0 08       		.byte	0x8
 11739 2ee1 1A03     		.2byte	0x31a
 11740 2ee3 2C       		.uleb128 0x2c
 11741 2ee4 28100000 		.4byte	.LASF334
 11742 2ee8 28100000 		.4byte	.LASF334
 11743 2eec 07       		.byte	0x7
 11744 2eed 9F       		.byte	0x9f
 11745 2eee 2B       		.uleb128 0x2b
 11746 2eef 57010000 		.4byte	.LASF335
ARM GAS  C:\Users\Rajesh\AppData\Local\Temp\ccMJoliC.s 			page 248


 11747 2ef3 57010000 		.4byte	.LASF335
 11748 2ef7 08       		.byte	0x8
 11749 2ef8 A602     		.2byte	0x2a6
 11750 2efa 2C       		.uleb128 0x2c
 11751 2efb 1F000000 		.4byte	.LASF336
 11752 2eff 1F000000 		.4byte	.LASF336
 11753 2f03 0A       		.byte	0xa
 11754 2f04 41       		.byte	0x41
 11755 2f05 2C       		.uleb128 0x2c
 11756 2f06 34110000 		.4byte	.LASF337
 11757 2f0a 34110000 		.4byte	.LASF337
 11758 2f0e 07       		.byte	0x7
 11759 2f0f 80       		.byte	0x80
 11760 2f10 2B       		.uleb128 0x2b
 11761 2f11 41060000 		.4byte	.LASF338
 11762 2f15 41060000 		.4byte	.LASF338
 11763 2f19 08       		.byte	0x8
 11764 2f1a A403     		.2byte	0x3a4
 11765 2f1c 2B       		.uleb128 0x2b
 11766 2f1d 18180000 		.4byte	.LASF339
 11767 2f21 18180000 		.4byte	.LASF339
 11768 2f25 08       		.byte	0x8
 11769 2f26 5A04     		.2byte	0x45a
 11770 2f28 2B       		.uleb128 0x2b
 11771 2f29 950F0000 		.4byte	.LASF340
 11772 2f2d 950F0000 		.4byte	.LASF340
 11773 2f31 08       		.byte	0x8
 11774 2f32 8704     		.2byte	0x487
 11775 2f34 00       		.byte	0
 11776              		.section	.debug_abbrev,"",%progbits
 11777              	.Ldebug_abbrev0:
 11778 0000 01       		.uleb128 0x1
 11779 0001 11       		.uleb128 0x11
 11780 0002 01       		.byte	0x1
 11781 0003 25       		.uleb128 0x25
 11782 0004 0E       		.uleb128 0xe
 11783 0005 13       		.uleb128 0x13
 11784 0006 0B       		.uleb128 0xb
 11785 0007 03       		.uleb128 0x3
 11786 0008 0E       		.uleb128 0xe
 11787 0009 1B       		.uleb128 0x1b
 11788 000a 0E       		.uleb128 0xe
 11789 000b 55       		.uleb128 0x55
 11790 000c 17       		.uleb128 0x17
 11791 000d 11       		.uleb128 0x11
 11792 000e 01       		.uleb128 0x1
 11793 000f 10       		.uleb128 0x10
 11794 0010 17       		.uleb128 0x17
 11795 0011 00       		.byte	0
 11796 0012 00       		.byte	0
 11797 0013 02       		.uleb128 0x2
 11798 0014 16       		.uleb128 0x16
 11799 0015 00       		.byte	0
 11800 0016 03       		.uleb128 0x3
 11801 0017 0E       		.uleb128 0xe
 11802 0018 3A       		.uleb128 0x3a
 11803 0019 0B       		.uleb128 0xb
ARM GAS  C:\Users\Rajesh\AppData\Local\Temp\ccMJoliC.s 			page 249


 11804 001a 3B       		.uleb128 0x3b
 11805 001b 0B       		.uleb128 0xb
 11806 001c 49       		.uleb128 0x49
 11807 001d 13       		.uleb128 0x13
 11808 001e 00       		.byte	0
 11809 001f 00       		.byte	0
 11810 0020 03       		.uleb128 0x3
 11811 0021 24       		.uleb128 0x24
 11812 0022 00       		.byte	0
 11813 0023 0B       		.uleb128 0xb
 11814 0024 0B       		.uleb128 0xb
 11815 0025 3E       		.uleb128 0x3e
 11816 0026 0B       		.uleb128 0xb
 11817 0027 03       		.uleb128 0x3
 11818 0028 0E       		.uleb128 0xe
 11819 0029 00       		.byte	0
 11820 002a 00       		.byte	0
 11821 002b 04       		.uleb128 0x4
 11822 002c 24       		.uleb128 0x24
 11823 002d 00       		.byte	0
 11824 002e 0B       		.uleb128 0xb
 11825 002f 0B       		.uleb128 0xb
 11826 0030 3E       		.uleb128 0x3e
 11827 0031 0B       		.uleb128 0xb
 11828 0032 03       		.uleb128 0x3
 11829 0033 08       		.uleb128 0x8
 11830 0034 00       		.byte	0
 11831 0035 00       		.byte	0
 11832 0036 05       		.uleb128 0x5
 11833 0037 01       		.uleb128 0x1
 11834 0038 01       		.byte	0x1
 11835 0039 49       		.uleb128 0x49
 11836 003a 13       		.uleb128 0x13
 11837 003b 01       		.uleb128 0x1
 11838 003c 13       		.uleb128 0x13
 11839 003d 00       		.byte	0
 11840 003e 00       		.byte	0
 11841 003f 06       		.uleb128 0x6
 11842 0040 21       		.uleb128 0x21
 11843 0041 00       		.byte	0
 11844 0042 49       		.uleb128 0x49
 11845 0043 13       		.uleb128 0x13
 11846 0044 2F       		.uleb128 0x2f
 11847 0045 0B       		.uleb128 0xb
 11848 0046 00       		.byte	0
 11849 0047 00       		.byte	0
 11850 0048 07       		.uleb128 0x7
 11851 0049 13       		.uleb128 0x13
 11852 004a 01       		.byte	0x1
 11853 004b 0B       		.uleb128 0xb
 11854 004c 0B       		.uleb128 0xb
 11855 004d 3A       		.uleb128 0x3a
 11856 004e 0B       		.uleb128 0xb
 11857 004f 3B       		.uleb128 0x3b
 11858 0050 0B       		.uleb128 0xb
 11859 0051 01       		.uleb128 0x1
 11860 0052 13       		.uleb128 0x13
ARM GAS  C:\Users\Rajesh\AppData\Local\Temp\ccMJoliC.s 			page 250


 11861 0053 00       		.byte	0
 11862 0054 00       		.byte	0
 11863 0055 08       		.uleb128 0x8
 11864 0056 0D       		.uleb128 0xd
 11865 0057 00       		.byte	0
 11866 0058 03       		.uleb128 0x3
 11867 0059 0E       		.uleb128 0xe
 11868 005a 3A       		.uleb128 0x3a
 11869 005b 0B       		.uleb128 0xb
 11870 005c 3B       		.uleb128 0x3b
 11871 005d 0B       		.uleb128 0xb
 11872 005e 49       		.uleb128 0x49
 11873 005f 13       		.uleb128 0x13
 11874 0060 38       		.uleb128 0x38
 11875 0061 0B       		.uleb128 0xb
 11876 0062 00       		.byte	0
 11877 0063 00       		.byte	0
 11878 0064 09       		.uleb128 0x9
 11879 0065 0D       		.uleb128 0xd
 11880 0066 00       		.byte	0
 11881 0067 03       		.uleb128 0x3
 11882 0068 0E       		.uleb128 0xe
 11883 0069 3A       		.uleb128 0x3a
 11884 006a 0B       		.uleb128 0xb
 11885 006b 3B       		.uleb128 0x3b
 11886 006c 05       		.uleb128 0x5
 11887 006d 49       		.uleb128 0x49
 11888 006e 13       		.uleb128 0x13
 11889 006f 38       		.uleb128 0x38
 11890 0070 0B       		.uleb128 0xb
 11891 0071 00       		.byte	0
 11892 0072 00       		.byte	0
 11893 0073 0A       		.uleb128 0xa
 11894 0074 16       		.uleb128 0x16
 11895 0075 00       		.byte	0
 11896 0076 03       		.uleb128 0x3
 11897 0077 0E       		.uleb128 0xe
 11898 0078 3A       		.uleb128 0x3a
 11899 0079 0B       		.uleb128 0xb
 11900 007a 3B       		.uleb128 0x3b
 11901 007b 05       		.uleb128 0x5
 11902 007c 49       		.uleb128 0x49
 11903 007d 13       		.uleb128 0x13
 11904 007e 00       		.byte	0
 11905 007f 00       		.byte	0
 11906 0080 0B       		.uleb128 0xb
 11907 0081 13       		.uleb128 0x13
 11908 0082 01       		.byte	0x1
 11909 0083 0B       		.uleb128 0xb
 11910 0084 0B       		.uleb128 0xb
 11911 0085 3A       		.uleb128 0x3a
 11912 0086 0B       		.uleb128 0xb
 11913 0087 3B       		.uleb128 0x3b
 11914 0088 05       		.uleb128 0x5
 11915 0089 01       		.uleb128 0x1
 11916 008a 13       		.uleb128 0x13
 11917 008b 00       		.byte	0
ARM GAS  C:\Users\Rajesh\AppData\Local\Temp\ccMJoliC.s 			page 251


 11918 008c 00       		.byte	0
 11919 008d 0C       		.uleb128 0xc
 11920 008e 13       		.uleb128 0x13
 11921 008f 01       		.byte	0x1
 11922 0090 0B       		.uleb128 0xb
 11923 0091 05       		.uleb128 0x5
 11924 0092 3A       		.uleb128 0x3a
 11925 0093 0B       		.uleb128 0xb
 11926 0094 3B       		.uleb128 0x3b
 11927 0095 05       		.uleb128 0x5
 11928 0096 01       		.uleb128 0x1
 11929 0097 13       		.uleb128 0x13
 11930 0098 00       		.byte	0
 11931 0099 00       		.byte	0
 11932 009a 0D       		.uleb128 0xd
 11933 009b 0D       		.uleb128 0xd
 11934 009c 00       		.byte	0
 11935 009d 03       		.uleb128 0x3
 11936 009e 0E       		.uleb128 0xe
 11937 009f 3A       		.uleb128 0x3a
 11938 00a0 0B       		.uleb128 0xb
 11939 00a1 3B       		.uleb128 0x3b
 11940 00a2 05       		.uleb128 0x5
 11941 00a3 49       		.uleb128 0x49
 11942 00a4 13       		.uleb128 0x13
 11943 00a5 38       		.uleb128 0x38
 11944 00a6 05       		.uleb128 0x5
 11945 00a7 00       		.byte	0
 11946 00a8 00       		.byte	0
 11947 00a9 0E       		.uleb128 0xe
 11948 00aa 0F       		.uleb128 0xf
 11949 00ab 00       		.byte	0
 11950 00ac 0B       		.uleb128 0xb
 11951 00ad 0B       		.uleb128 0xb
 11952 00ae 49       		.uleb128 0x49
 11953 00af 13       		.uleb128 0x13
 11954 00b0 00       		.byte	0
 11955 00b1 00       		.byte	0
 11956 00b2 0F       		.uleb128 0xf
 11957 00b3 13       		.uleb128 0x13
 11958 00b4 01       		.byte	0x1
 11959 00b5 0B       		.uleb128 0xb
 11960 00b6 05       		.uleb128 0x5
 11961 00b7 3A       		.uleb128 0x3a
 11962 00b8 0B       		.uleb128 0xb
 11963 00b9 3B       		.uleb128 0x3b
 11964 00ba 0B       		.uleb128 0xb
 11965 00bb 01       		.uleb128 0x1
 11966 00bc 13       		.uleb128 0x13
 11967 00bd 00       		.byte	0
 11968 00be 00       		.byte	0
 11969 00bf 10       		.uleb128 0x10
 11970 00c0 0D       		.uleb128 0xd
 11971 00c1 00       		.byte	0
 11972 00c2 03       		.uleb128 0x3
 11973 00c3 0E       		.uleb128 0xe
 11974 00c4 3A       		.uleb128 0x3a
ARM GAS  C:\Users\Rajesh\AppData\Local\Temp\ccMJoliC.s 			page 252


 11975 00c5 0B       		.uleb128 0xb
 11976 00c6 3B       		.uleb128 0x3b
 11977 00c7 0B       		.uleb128 0xb
 11978 00c8 49       		.uleb128 0x49
 11979 00c9 13       		.uleb128 0x13
 11980 00ca 38       		.uleb128 0x38
 11981 00cb 05       		.uleb128 0x5
 11982 00cc 00       		.byte	0
 11983 00cd 00       		.byte	0
 11984 00ce 11       		.uleb128 0x11
 11985 00cf 2E       		.uleb128 0x2e
 11986 00d0 01       		.byte	0x1
 11987 00d1 3F       		.uleb128 0x3f
 11988 00d2 19       		.uleb128 0x19
 11989 00d3 03       		.uleb128 0x3
 11990 00d4 0E       		.uleb128 0xe
 11991 00d5 3A       		.uleb128 0x3a
 11992 00d6 0B       		.uleb128 0xb
 11993 00d7 3B       		.uleb128 0x3b
 11994 00d8 0B       		.uleb128 0xb
 11995 00d9 27       		.uleb128 0x27
 11996 00da 19       		.uleb128 0x19
 11997 00db 49       		.uleb128 0x49
 11998 00dc 13       		.uleb128 0x13
 11999 00dd 11       		.uleb128 0x11
 12000 00de 01       		.uleb128 0x1
 12001 00df 12       		.uleb128 0x12
 12002 00e0 06       		.uleb128 0x6
 12003 00e1 40       		.uleb128 0x40
 12004 00e2 18       		.uleb128 0x18
 12005 00e3 9742     		.uleb128 0x2117
 12006 00e5 19       		.uleb128 0x19
 12007 00e6 01       		.uleb128 0x1
 12008 00e7 13       		.uleb128 0x13
 12009 00e8 00       		.byte	0
 12010 00e9 00       		.byte	0
 12011 00ea 12       		.uleb128 0x12
 12012 00eb 05       		.uleb128 0x5
 12013 00ec 00       		.byte	0
 12014 00ed 03       		.uleb128 0x3
 12015 00ee 0E       		.uleb128 0xe
 12016 00ef 3A       		.uleb128 0x3a
 12017 00f0 0B       		.uleb128 0xb
 12018 00f1 3B       		.uleb128 0x3b
 12019 00f2 0B       		.uleb128 0xb
 12020 00f3 49       		.uleb128 0x49
 12021 00f4 13       		.uleb128 0x13
 12022 00f5 02       		.uleb128 0x2
 12023 00f6 17       		.uleb128 0x17
 12024 00f7 00       		.byte	0
 12025 00f8 00       		.byte	0
 12026 00f9 13       		.uleb128 0x13
 12027 00fa 05       		.uleb128 0x5
 12028 00fb 00       		.byte	0
 12029 00fc 03       		.uleb128 0x3
 12030 00fd 0E       		.uleb128 0xe
 12031 00fe 3A       		.uleb128 0x3a
ARM GAS  C:\Users\Rajesh\AppData\Local\Temp\ccMJoliC.s 			page 253


 12032 00ff 0B       		.uleb128 0xb
 12033 0100 3B       		.uleb128 0x3b
 12034 0101 0B       		.uleb128 0xb
 12035 0102 49       		.uleb128 0x49
 12036 0103 13       		.uleb128 0x13
 12037 0104 02       		.uleb128 0x2
 12038 0105 18       		.uleb128 0x18
 12039 0106 00       		.byte	0
 12040 0107 00       		.byte	0
 12041 0108 14       		.uleb128 0x14
 12042 0109 34       		.uleb128 0x34
 12043 010a 00       		.byte	0
 12044 010b 03       		.uleb128 0x3
 12045 010c 0E       		.uleb128 0xe
 12046 010d 3A       		.uleb128 0x3a
 12047 010e 0B       		.uleb128 0xb
 12048 010f 3B       		.uleb128 0x3b
 12049 0110 0B       		.uleb128 0xb
 12050 0111 49       		.uleb128 0x49
 12051 0112 13       		.uleb128 0x13
 12052 0113 1C       		.uleb128 0x1c
 12053 0114 0B       		.uleb128 0xb
 12054 0115 00       		.byte	0
 12055 0116 00       		.byte	0
 12056 0117 15       		.uleb128 0x15
 12057 0118 34       		.uleb128 0x34
 12058 0119 00       		.byte	0
 12059 011a 03       		.uleb128 0x3
 12060 011b 0E       		.uleb128 0xe
 12061 011c 3A       		.uleb128 0x3a
 12062 011d 0B       		.uleb128 0xb
 12063 011e 3B       		.uleb128 0x3b
 12064 011f 0B       		.uleb128 0xb
 12065 0120 49       		.uleb128 0x49
 12066 0121 13       		.uleb128 0x13
 12067 0122 02       		.uleb128 0x2
 12068 0123 17       		.uleb128 0x17
 12069 0124 00       		.byte	0
 12070 0125 00       		.byte	0
 12071 0126 16       		.uleb128 0x16
 12072 0127 05       		.uleb128 0x5
 12073 0128 00       		.byte	0
 12074 0129 03       		.uleb128 0x3
 12075 012a 08       		.uleb128 0x8
 12076 012b 3A       		.uleb128 0x3a
 12077 012c 0B       		.uleb128 0xb
 12078 012d 3B       		.uleb128 0x3b
 12079 012e 0B       		.uleb128 0xb
 12080 012f 49       		.uleb128 0x49
 12081 0130 13       		.uleb128 0x13
 12082 0131 02       		.uleb128 0x2
 12083 0132 17       		.uleb128 0x17
 12084 0133 00       		.byte	0
 12085 0134 00       		.byte	0
 12086 0135 17       		.uleb128 0x17
 12087 0136 34       		.uleb128 0x34
 12088 0137 00       		.byte	0
ARM GAS  C:\Users\Rajesh\AppData\Local\Temp\ccMJoliC.s 			page 254


 12089 0138 03       		.uleb128 0x3
 12090 0139 0E       		.uleb128 0xe
 12091 013a 3A       		.uleb128 0x3a
 12092 013b 0B       		.uleb128 0xb
 12093 013c 3B       		.uleb128 0x3b
 12094 013d 0B       		.uleb128 0xb
 12095 013e 49       		.uleb128 0x49
 12096 013f 13       		.uleb128 0x13
 12097 0140 02       		.uleb128 0x2
 12098 0141 18       		.uleb128 0x18
 12099 0142 00       		.byte	0
 12100 0143 00       		.byte	0
 12101 0144 18       		.uleb128 0x18
 12102 0145 898201   		.uleb128 0x4109
 12103 0148 01       		.byte	0x1
 12104 0149 11       		.uleb128 0x11
 12105 014a 01       		.uleb128 0x1
 12106 014b 31       		.uleb128 0x31
 12107 014c 13       		.uleb128 0x13
 12108 014d 01       		.uleb128 0x1
 12109 014e 13       		.uleb128 0x13
 12110 014f 00       		.byte	0
 12111 0150 00       		.byte	0
 12112 0151 19       		.uleb128 0x19
 12113 0152 8A8201   		.uleb128 0x410a
 12114 0155 00       		.byte	0
 12115 0156 02       		.uleb128 0x2
 12116 0157 18       		.uleb128 0x18
 12117 0158 9142     		.uleb128 0x2111
 12118 015a 18       		.uleb128 0x18
 12119 015b 00       		.byte	0
 12120 015c 00       		.byte	0
 12121 015d 1A       		.uleb128 0x1a
 12122 015e 898201   		.uleb128 0x4109
 12123 0161 01       		.byte	0x1
 12124 0162 11       		.uleb128 0x11
 12125 0163 01       		.uleb128 0x1
 12126 0164 31       		.uleb128 0x31
 12127 0165 13       		.uleb128 0x13
 12128 0166 00       		.byte	0
 12129 0167 00       		.byte	0
 12130 0168 1B       		.uleb128 0x1b
 12131 0169 34       		.uleb128 0x34
 12132 016a 00       		.byte	0
 12133 016b 03       		.uleb128 0x3
 12134 016c 08       		.uleb128 0x8
 12135 016d 3A       		.uleb128 0x3a
 12136 016e 0B       		.uleb128 0xb
 12137 016f 3B       		.uleb128 0x3b
 12138 0170 0B       		.uleb128 0xb
 12139 0171 49       		.uleb128 0x49
 12140 0172 13       		.uleb128 0x13
 12141 0173 02       		.uleb128 0x2
 12142 0174 17       		.uleb128 0x17
 12143 0175 00       		.byte	0
 12144 0176 00       		.byte	0
 12145 0177 1C       		.uleb128 0x1c
ARM GAS  C:\Users\Rajesh\AppData\Local\Temp\ccMJoliC.s 			page 255


 12146 0178 34       		.uleb128 0x34
 12147 0179 00       		.byte	0
 12148 017a 03       		.uleb128 0x3
 12149 017b 0E       		.uleb128 0xe
 12150 017c 3A       		.uleb128 0x3a
 12151 017d 0B       		.uleb128 0xb
 12152 017e 3B       		.uleb128 0x3b
 12153 017f 0B       		.uleb128 0xb
 12154 0180 49       		.uleb128 0x49
 12155 0181 13       		.uleb128 0x13
 12156 0182 1C       		.uleb128 0x1c
 12157 0183 05       		.uleb128 0x5
 12158 0184 00       		.byte	0
 12159 0185 00       		.byte	0
 12160 0186 1D       		.uleb128 0x1d
 12161 0187 2E       		.uleb128 0x2e
 12162 0188 01       		.byte	0x1
 12163 0189 3F       		.uleb128 0x3f
 12164 018a 19       		.uleb128 0x19
 12165 018b 03       		.uleb128 0x3
 12166 018c 0E       		.uleb128 0xe
 12167 018d 3A       		.uleb128 0x3a
 12168 018e 0B       		.uleb128 0xb
 12169 018f 3B       		.uleb128 0x3b
 12170 0190 05       		.uleb128 0x5
 12171 0191 27       		.uleb128 0x27
 12172 0192 19       		.uleb128 0x19
 12173 0193 49       		.uleb128 0x49
 12174 0194 13       		.uleb128 0x13
 12175 0195 11       		.uleb128 0x11
 12176 0196 01       		.uleb128 0x1
 12177 0197 12       		.uleb128 0x12
 12178 0198 06       		.uleb128 0x6
 12179 0199 40       		.uleb128 0x40
 12180 019a 18       		.uleb128 0x18
 12181 019b 9742     		.uleb128 0x2117
 12182 019d 19       		.uleb128 0x19
 12183 019e 01       		.uleb128 0x1
 12184 019f 13       		.uleb128 0x13
 12185 01a0 00       		.byte	0
 12186 01a1 00       		.byte	0
 12187 01a2 1E       		.uleb128 0x1e
 12188 01a3 05       		.uleb128 0x5
 12189 01a4 00       		.byte	0
 12190 01a5 03       		.uleb128 0x3
 12191 01a6 08       		.uleb128 0x8
 12192 01a7 3A       		.uleb128 0x3a
 12193 01a8 0B       		.uleb128 0xb
 12194 01a9 3B       		.uleb128 0x3b
 12195 01aa 05       		.uleb128 0x5
 12196 01ab 49       		.uleb128 0x49
 12197 01ac 13       		.uleb128 0x13
 12198 01ad 02       		.uleb128 0x2
 12199 01ae 17       		.uleb128 0x17
 12200 01af 00       		.byte	0
 12201 01b0 00       		.byte	0
 12202 01b1 1F       		.uleb128 0x1f
ARM GAS  C:\Users\Rajesh\AppData\Local\Temp\ccMJoliC.s 			page 256


 12203 01b2 05       		.uleb128 0x5
 12204 01b3 00       		.byte	0
 12205 01b4 03       		.uleb128 0x3
 12206 01b5 0E       		.uleb128 0xe
 12207 01b6 3A       		.uleb128 0x3a
 12208 01b7 0B       		.uleb128 0xb
 12209 01b8 3B       		.uleb128 0x3b
 12210 01b9 05       		.uleb128 0x5
 12211 01ba 49       		.uleb128 0x49
 12212 01bb 13       		.uleb128 0x13
 12213 01bc 02       		.uleb128 0x2
 12214 01bd 17       		.uleb128 0x17
 12215 01be 00       		.byte	0
 12216 01bf 00       		.byte	0
 12217 01c0 20       		.uleb128 0x20
 12218 01c1 34       		.uleb128 0x34
 12219 01c2 00       		.byte	0
 12220 01c3 03       		.uleb128 0x3
 12221 01c4 0E       		.uleb128 0xe
 12222 01c5 3A       		.uleb128 0x3a
 12223 01c6 0B       		.uleb128 0xb
 12224 01c7 3B       		.uleb128 0x3b
 12225 01c8 05       		.uleb128 0x5
 12226 01c9 49       		.uleb128 0x49
 12227 01ca 13       		.uleb128 0x13
 12228 01cb 1C       		.uleb128 0x1c
 12229 01cc 05       		.uleb128 0x5
 12230 01cd 00       		.byte	0
 12231 01ce 00       		.byte	0
 12232 01cf 21       		.uleb128 0x21
 12233 01d0 34       		.uleb128 0x34
 12234 01d1 00       		.byte	0
 12235 01d2 03       		.uleb128 0x3
 12236 01d3 0E       		.uleb128 0xe
 12237 01d4 3A       		.uleb128 0x3a
 12238 01d5 0B       		.uleb128 0xb
 12239 01d6 3B       		.uleb128 0x3b
 12240 01d7 05       		.uleb128 0x5
 12241 01d8 49       		.uleb128 0x49
 12242 01d9 13       		.uleb128 0x13
 12243 01da 02       		.uleb128 0x2
 12244 01db 18       		.uleb128 0x18
 12245 01dc 00       		.byte	0
 12246 01dd 00       		.byte	0
 12247 01de 22       		.uleb128 0x22
 12248 01df 34       		.uleb128 0x34
 12249 01e0 00       		.byte	0
 12250 01e1 03       		.uleb128 0x3
 12251 01e2 0E       		.uleb128 0xe
 12252 01e3 3A       		.uleb128 0x3a
 12253 01e4 0B       		.uleb128 0xb
 12254 01e5 3B       		.uleb128 0x3b
 12255 01e6 05       		.uleb128 0x5
 12256 01e7 49       		.uleb128 0x49
 12257 01e8 13       		.uleb128 0x13
 12258 01e9 02       		.uleb128 0x2
 12259 01ea 17       		.uleb128 0x17
ARM GAS  C:\Users\Rajesh\AppData\Local\Temp\ccMJoliC.s 			page 257


 12260 01eb 00       		.byte	0
 12261 01ec 00       		.byte	0
 12262 01ed 23       		.uleb128 0x23
 12263 01ee 2E       		.uleb128 0x2e
 12264 01ef 01       		.byte	0x1
 12265 01f0 3F       		.uleb128 0x3f
 12266 01f1 19       		.uleb128 0x19
 12267 01f2 03       		.uleb128 0x3
 12268 01f3 0E       		.uleb128 0xe
 12269 01f4 3A       		.uleb128 0x3a
 12270 01f5 0B       		.uleb128 0xb
 12271 01f6 3B       		.uleb128 0x3b
 12272 01f7 05       		.uleb128 0x5
 12273 01f8 27       		.uleb128 0x27
 12274 01f9 19       		.uleb128 0x19
 12275 01fa 49       		.uleb128 0x49
 12276 01fb 13       		.uleb128 0x13
 12277 01fc 11       		.uleb128 0x11
 12278 01fd 01       		.uleb128 0x1
 12279 01fe 12       		.uleb128 0x12
 12280 01ff 06       		.uleb128 0x6
 12281 0200 40       		.uleb128 0x40
 12282 0201 18       		.uleb128 0x18
 12283 0202 9642     		.uleb128 0x2116
 12284 0204 19       		.uleb128 0x19
 12285 0205 01       		.uleb128 0x1
 12286 0206 13       		.uleb128 0x13
 12287 0207 00       		.byte	0
 12288 0208 00       		.byte	0
 12289 0209 24       		.uleb128 0x24
 12290 020a 898201   		.uleb128 0x4109
 12291 020d 00       		.byte	0
 12292 020e 11       		.uleb128 0x11
 12293 020f 01       		.uleb128 0x1
 12294 0210 31       		.uleb128 0x31
 12295 0211 13       		.uleb128 0x13
 12296 0212 00       		.byte	0
 12297 0213 00       		.byte	0
 12298 0214 25       		.uleb128 0x25
 12299 0215 34       		.uleb128 0x34
 12300 0216 00       		.byte	0
 12301 0217 03       		.uleb128 0x3
 12302 0218 0E       		.uleb128 0xe
 12303 0219 3A       		.uleb128 0x3a
 12304 021a 0B       		.uleb128 0xb
 12305 021b 3B       		.uleb128 0x3b
 12306 021c 05       		.uleb128 0x5
 12307 021d 49       		.uleb128 0x49
 12308 021e 13       		.uleb128 0x13
 12309 021f 1C       		.uleb128 0x1c
 12310 0220 0B       		.uleb128 0xb
 12311 0221 00       		.byte	0
 12312 0222 00       		.byte	0
 12313 0223 26       		.uleb128 0x26
 12314 0224 34       		.uleb128 0x34
 12315 0225 00       		.byte	0
 12316 0226 03       		.uleb128 0x3
ARM GAS  C:\Users\Rajesh\AppData\Local\Temp\ccMJoliC.s 			page 258


 12317 0227 08       		.uleb128 0x8
 12318 0228 3A       		.uleb128 0x3a
 12319 0229 0B       		.uleb128 0xb
 12320 022a 3B       		.uleb128 0x3b
 12321 022b 05       		.uleb128 0x5
 12322 022c 49       		.uleb128 0x49
 12323 022d 13       		.uleb128 0x13
 12324 022e 02       		.uleb128 0x2
 12325 022f 17       		.uleb128 0x17
 12326 0230 00       		.byte	0
 12327 0231 00       		.byte	0
 12328 0232 27       		.uleb128 0x27
 12329 0233 34       		.uleb128 0x34
 12330 0234 00       		.byte	0
 12331 0235 03       		.uleb128 0x3
 12332 0236 08       		.uleb128 0x8
 12333 0237 3A       		.uleb128 0x3a
 12334 0238 0B       		.uleb128 0xb
 12335 0239 3B       		.uleb128 0x3b
 12336 023a 05       		.uleb128 0x5
 12337 023b 49       		.uleb128 0x49
 12338 023c 13       		.uleb128 0x13
 12339 023d 00       		.byte	0
 12340 023e 00       		.byte	0
 12341 023f 28       		.uleb128 0x28
 12342 0240 05       		.uleb128 0x5
 12343 0241 00       		.byte	0
 12344 0242 03       		.uleb128 0x3
 12345 0243 0E       		.uleb128 0xe
 12346 0244 3A       		.uleb128 0x3a
 12347 0245 0B       		.uleb128 0xb
 12348 0246 3B       		.uleb128 0x3b
 12349 0247 05       		.uleb128 0x5
 12350 0248 49       		.uleb128 0x49
 12351 0249 13       		.uleb128 0x13
 12352 024a 02       		.uleb128 0x2
 12353 024b 18       		.uleb128 0x18
 12354 024c 00       		.byte	0
 12355 024d 00       		.byte	0
 12356 024e 29       		.uleb128 0x29
 12357 024f 34       		.uleb128 0x34
 12358 0250 00       		.byte	0
 12359 0251 03       		.uleb128 0x3
 12360 0252 0E       		.uleb128 0xe
 12361 0253 3A       		.uleb128 0x3a
 12362 0254 0B       		.uleb128 0xb
 12363 0255 3B       		.uleb128 0x3b
 12364 0256 05       		.uleb128 0x5
 12365 0257 49       		.uleb128 0x49
 12366 0258 13       		.uleb128 0x13
 12367 0259 1C       		.uleb128 0x1c
 12368 025a 06       		.uleb128 0x6
 12369 025b 00       		.byte	0
 12370 025c 00       		.byte	0
 12371 025d 2A       		.uleb128 0x2a
 12372 025e 26       		.uleb128 0x26
 12373 025f 00       		.byte	0
ARM GAS  C:\Users\Rajesh\AppData\Local\Temp\ccMJoliC.s 			page 259


 12374 0260 49       		.uleb128 0x49
 12375 0261 13       		.uleb128 0x13
 12376 0262 00       		.byte	0
 12377 0263 00       		.byte	0
 12378 0264 2B       		.uleb128 0x2b
 12379 0265 2E       		.uleb128 0x2e
 12380 0266 00       		.byte	0
 12381 0267 3F       		.uleb128 0x3f
 12382 0268 19       		.uleb128 0x19
 12383 0269 3C       		.uleb128 0x3c
 12384 026a 19       		.uleb128 0x19
 12385 026b 6E       		.uleb128 0x6e
 12386 026c 0E       		.uleb128 0xe
 12387 026d 03       		.uleb128 0x3
 12388 026e 0E       		.uleb128 0xe
 12389 026f 3A       		.uleb128 0x3a
 12390 0270 0B       		.uleb128 0xb
 12391 0271 3B       		.uleb128 0x3b
 12392 0272 05       		.uleb128 0x5
 12393 0273 00       		.byte	0
 12394 0274 00       		.byte	0
 12395 0275 2C       		.uleb128 0x2c
 12396 0276 2E       		.uleb128 0x2e
 12397 0277 00       		.byte	0
 12398 0278 3F       		.uleb128 0x3f
 12399 0279 19       		.uleb128 0x19
 12400 027a 3C       		.uleb128 0x3c
 12401 027b 19       		.uleb128 0x19
 12402 027c 6E       		.uleb128 0x6e
 12403 027d 0E       		.uleb128 0xe
 12404 027e 03       		.uleb128 0x3
 12405 027f 0E       		.uleb128 0xe
 12406 0280 3A       		.uleb128 0x3a
 12407 0281 0B       		.uleb128 0xb
 12408 0282 3B       		.uleb128 0x3b
 12409 0283 0B       		.uleb128 0xb
 12410 0284 00       		.byte	0
 12411 0285 00       		.byte	0
 12412 0286 00       		.byte	0
 12413              		.section	.debug_loc,"",%progbits
 12414              	.Ldebug_loc0:
 12415              	.LLST0:
 12416 0000 00000000 		.4byte	.LVL0
 12417 0004 20000000 		.4byte	.LVL8
 12418 0008 0100     		.2byte	0x1
 12419 000a 50       		.byte	0x50
 12420 000b 20000000 		.4byte	.LVL8
 12421 000f 22000000 		.4byte	.LFE1
 12422 0013 0400     		.2byte	0x4
 12423 0015 F3       		.byte	0xf3
 12424 0016 01       		.uleb128 0x1
 12425 0017 50       		.byte	0x50
 12426 0018 9F       		.byte	0x9f
 12427 0019 00000000 		.4byte	0
 12428 001d 00000000 		.4byte	0
 12429              	.LLST1:
 12430 0021 10000000 		.4byte	.LVL5
ARM GAS  C:\Users\Rajesh\AppData\Local\Temp\ccMJoliC.s 			page 260


 12431 0025 1A000000 		.4byte	.LVL7
 12432 0029 0100     		.2byte	0x1
 12433 002b 55       		.byte	0x55
 12434 002c 00000000 		.4byte	0
 12435 0030 00000000 		.4byte	0
 12436              	.LLST2:
 12437 0034 0C000000 		.4byte	.LVL4
 12438 0038 12000000 		.4byte	.LVL6
 12439 003c 0100     		.2byte	0x1
 12440 003e 53       		.byte	0x53
 12441 003f 12000000 		.4byte	.LVL6
 12442 0043 1A000000 		.4byte	.LVL7
 12443 0047 0700     		.2byte	0x7
 12444 0049 72       		.byte	0x72
 12445 004a 00       		.sleb128 0
 12446 004b 20       		.byte	0x20
 12447 004c 71       		.byte	0x71
 12448 004d 00       		.sleb128 0
 12449 004e 22       		.byte	0x22
 12450 004f 9F       		.byte	0x9f
 12451 0050 00000000 		.4byte	0
 12452 0054 00000000 		.4byte	0
 12453              	.LLST3:
 12454 0058 04000000 		.4byte	.LVL2
 12455 005c 20000000 		.4byte	.LVL9
 12456 0060 0100     		.2byte	0x1
 12457 0062 57       		.byte	0x57
 12458 0063 20000000 		.4byte	.LVL9
 12459 0067 22000000 		.4byte	.LFE1
 12460 006b 0500     		.2byte	0x5
 12461 006d 71       		.byte	0x71
 12462 006e 00       		.sleb128 0
 12463 006f 31       		.byte	0x31
 12464 0070 25       		.byte	0x25
 12465 0071 9F       		.byte	0x9f
 12466 0072 00000000 		.4byte	0
 12467 0076 00000000 		.4byte	0
 12468              	.LLST4:
 12469 007a 04000000 		.4byte	.LVL2
 12470 007e 08000000 		.4byte	.LVL3
 12471 0082 0200     		.2byte	0x2
 12472 0084 30       		.byte	0x30
 12473 0085 9F       		.byte	0x9f
 12474 0086 08000000 		.4byte	.LVL3
 12475 008a 22000000 		.4byte	.LFE1
 12476 008e 0100     		.2byte	0x1
 12477 0090 52       		.byte	0x52
 12478 0091 00000000 		.4byte	0
 12479 0095 00000000 		.4byte	0
 12480              	.LLST5:
 12481 0099 00000000 		.4byte	.LVL10
 12482 009d 0E000000 		.4byte	.LVL13
 12483 00a1 0100     		.2byte	0x1
 12484 00a3 50       		.byte	0x50
 12485 00a4 0E000000 		.4byte	.LVL13
 12486 00a8 3C000000 		.4byte	.LVL22
 12487 00ac 0100     		.2byte	0x1
ARM GAS  C:\Users\Rajesh\AppData\Local\Temp\ccMJoliC.s 			page 261


 12488 00ae 55       		.byte	0x55
 12489 00af 3C000000 		.4byte	.LVL22
 12490 00b3 44000000 		.4byte	.LFE2
 12491 00b7 0400     		.2byte	0x4
 12492 00b9 F3       		.byte	0xf3
 12493 00ba 01       		.uleb128 0x1
 12494 00bb 50       		.byte	0x50
 12495 00bc 9F       		.byte	0x9f
 12496 00bd 00000000 		.4byte	0
 12497 00c1 00000000 		.4byte	0
 12498              	.LLST6:
 12499 00c5 06000000 		.4byte	.LVL11
 12500 00c9 0E000000 		.4byte	.LVL13
 12501 00cd 0200     		.2byte	0x2
 12502 00cf 30       		.byte	0x30
 12503 00d0 9F       		.byte	0x9f
 12504 00d1 18000000 		.4byte	.LVL14
 12505 00d5 30000000 		.4byte	.LVL16
 12506 00d9 0100     		.2byte	0x1
 12507 00db 50       		.byte	0x50
 12508 00dc 36000000 		.4byte	.LVL18
 12509 00e0 38000000 		.4byte	.LVL19
 12510 00e4 0100     		.2byte	0x1
 12511 00e6 50       		.byte	0x50
 12512 00e7 3A000000 		.4byte	.LVL20
 12513 00eb 44000000 		.4byte	.LFE2
 12514 00ef 0100     		.2byte	0x1
 12515 00f1 50       		.byte	0x50
 12516 00f2 00000000 		.4byte	0
 12517 00f6 00000000 		.4byte	0
 12518              	.LLST7:
 12519 00fa 0C000000 		.4byte	.LVL12
 12520 00fe 0E000000 		.4byte	.LVL13
 12521 0102 0200     		.2byte	0x2
 12522 0104 30       		.byte	0x30
 12523 0105 9F       		.byte	0x9f
 12524 0106 0E000000 		.4byte	.LVL13
 12525 010a 3C000000 		.4byte	.LVL21
 12526 010e 0100     		.2byte	0x1
 12527 0110 54       		.byte	0x54
 12528 0111 00000000 		.4byte	0
 12529 0115 00000000 		.4byte	0
 12530              	.LLST8:
 12531 0119 00000000 		.4byte	.LVL23
 12532 011d 02000000 		.4byte	.LVL24
 12533 0121 0100     		.2byte	0x1
 12534 0123 50       		.byte	0x50
 12535 0124 02000000 		.4byte	.LVL24
 12536 0128 08000000 		.4byte	.LFE3
 12537 012c 0400     		.2byte	0x4
 12538 012e F3       		.byte	0xf3
 12539 012f 01       		.uleb128 0x1
 12540 0130 50       		.byte	0x50
 12541 0131 9F       		.byte	0x9f
 12542 0132 00000000 		.4byte	0
 12543 0136 00000000 		.4byte	0
 12544              	.LLST9:
ARM GAS  C:\Users\Rajesh\AppData\Local\Temp\ccMJoliC.s 			page 262


 12545 013a 00000000 		.4byte	.LVL23
 12546 013e 06000000 		.4byte	.LVL25
 12547 0142 0200     		.2byte	0x2
 12548 0144 30       		.byte	0x30
 12549 0145 9F       		.byte	0x9f
 12550 0146 06000000 		.4byte	.LVL25
 12551 014a 08000000 		.4byte	.LFE3
 12552 014e 0100     		.2byte	0x1
 12553 0150 50       		.byte	0x50
 12554 0151 00000000 		.4byte	0
 12555 0155 00000000 		.4byte	0
 12556              	.LLST10:
 12557 0159 00000000 		.4byte	.LVL26
 12558 015d 02000000 		.4byte	.LVL27
 12559 0161 0100     		.2byte	0x1
 12560 0163 50       		.byte	0x50
 12561 0164 02000000 		.4byte	.LVL27
 12562 0168 08000000 		.4byte	.LFE4
 12563 016c 0400     		.2byte	0x4
 12564 016e F3       		.byte	0xf3
 12565 016f 01       		.uleb128 0x1
 12566 0170 50       		.byte	0x50
 12567 0171 9F       		.byte	0x9f
 12568 0172 00000000 		.4byte	0
 12569 0176 00000000 		.4byte	0
 12570              	.LLST11:
 12571 017a 00000000 		.4byte	.LVL26
 12572 017e 06000000 		.4byte	.LVL28
 12573 0182 0200     		.2byte	0x2
 12574 0184 30       		.byte	0x30
 12575 0185 9F       		.byte	0x9f
 12576 0186 06000000 		.4byte	.LVL28
 12577 018a 08000000 		.4byte	.LFE4
 12578 018e 0100     		.2byte	0x1
 12579 0190 50       		.byte	0x50
 12580 0191 00000000 		.4byte	0
 12581 0195 00000000 		.4byte	0
 12582              	.LLST12:
 12583 0199 00000000 		.4byte	.LVL29
 12584 019d 10000000 		.4byte	.LVL33
 12585 01a1 0100     		.2byte	0x1
 12586 01a3 50       		.byte	0x50
 12587 01a4 10000000 		.4byte	.LVL33
 12588 01a8 2A000000 		.4byte	.LFE5
 12589 01ac 0100     		.2byte	0x1
 12590 01ae 52       		.byte	0x52
 12591 01af 00000000 		.4byte	0
 12592 01b3 00000000 		.4byte	0
 12593              	.LLST13:
 12594 01b7 02000000 		.4byte	.LVL30
 12595 01bb 12000000 		.4byte	.LVL34
 12596 01bf 0200     		.2byte	0x2
 12597 01c1 30       		.byte	0x30
 12598 01c2 9F       		.byte	0x9f
 12599 01c3 12000000 		.4byte	.LVL34
 12600 01c7 1C000000 		.4byte	.LVL36
 12601 01cb 0100     		.2byte	0x1
ARM GAS  C:\Users\Rajesh\AppData\Local\Temp\ccMJoliC.s 			page 263


 12602 01cd 50       		.byte	0x50
 12603 01ce 1E000000 		.4byte	.LVL37
 12604 01d2 2A000000 		.4byte	.LFE5
 12605 01d6 0100     		.2byte	0x1
 12606 01d8 50       		.byte	0x50
 12607 01d9 00000000 		.4byte	0
 12608 01dd 00000000 		.4byte	0
 12609              	.LLST14:
 12610 01e1 02000000 		.4byte	.LVL30
 12611 01e5 08000000 		.4byte	.LVL31
 12612 01e9 0400     		.2byte	0x4
 12613 01eb 40       		.byte	0x40
 12614 01ec 4A       		.byte	0x4a
 12615 01ed 24       		.byte	0x24
 12616 01ee 9F       		.byte	0x9f
 12617 01ef 08000000 		.4byte	.LVL31
 12618 01f3 2A000000 		.4byte	.LFE5
 12619 01f7 0100     		.2byte	0x1
 12620 01f9 53       		.byte	0x53
 12621 01fa 00000000 		.4byte	0
 12622 01fe 00000000 		.4byte	0
 12623              	.LLST15:
 12624 0202 00000000 		.4byte	.LVL40
 12625 0206 0E000000 		.4byte	.LVL42
 12626 020a 0100     		.2byte	0x1
 12627 020c 50       		.byte	0x50
 12628 020d 0E000000 		.4byte	.LVL42
 12629 0211 18000000 		.4byte	.LVL45
 12630 0215 0400     		.2byte	0x4
 12631 0217 F3       		.byte	0xf3
 12632 0218 01       		.uleb128 0x1
 12633 0219 50       		.byte	0x50
 12634 021a 9F       		.byte	0x9f
 12635 021b 18000000 		.4byte	.LVL45
 12636 021f 1A000000 		.4byte	.LVL46
 12637 0223 0100     		.2byte	0x1
 12638 0225 50       		.byte	0x50
 12639 0226 1A000000 		.4byte	.LVL46
 12640 022a 1C000000 		.4byte	.LVL47
 12641 022e 0400     		.2byte	0x4
 12642 0230 F3       		.byte	0xf3
 12643 0231 01       		.uleb128 0x1
 12644 0232 50       		.byte	0x50
 12645 0233 9F       		.byte	0x9f
 12646 0234 1C000000 		.4byte	.LVL47
 12647 0238 1E000000 		.4byte	.LVL48
 12648 023c 0100     		.2byte	0x1
 12649 023e 50       		.byte	0x50
 12650 023f 1E000000 		.4byte	.LVL48
 12651 0243 24000000 		.4byte	.LFE6
 12652 0247 0400     		.2byte	0x4
 12653 0249 F3       		.byte	0xf3
 12654 024a 01       		.uleb128 0x1
 12655 024b 50       		.byte	0x50
 12656 024c 9F       		.byte	0x9f
 12657 024d 00000000 		.4byte	0
 12658 0251 00000000 		.4byte	0
ARM GAS  C:\Users\Rajesh\AppData\Local\Temp\ccMJoliC.s 			page 264


 12659              	.LLST16:
 12660 0255 00000000 		.4byte	.LVL40
 12661 0259 10000000 		.4byte	.LVL43
 12662 025d 0100     		.2byte	0x1
 12663 025f 51       		.byte	0x51
 12664 0260 10000000 		.4byte	.LVL43
 12665 0264 18000000 		.4byte	.LVL45
 12666 0268 0400     		.2byte	0x4
 12667 026a F3       		.byte	0xf3
 12668 026b 01       		.uleb128 0x1
 12669 026c 51       		.byte	0x51
 12670 026d 9F       		.byte	0x9f
 12671 026e 18000000 		.4byte	.LVL45
 12672 0272 1E000000 		.4byte	.LVL48
 12673 0276 0100     		.2byte	0x1
 12674 0278 51       		.byte	0x51
 12675 0279 1E000000 		.4byte	.LVL48
 12676 027d 24000000 		.4byte	.LFE6
 12677 0281 0400     		.2byte	0x4
 12678 0283 F3       		.byte	0xf3
 12679 0284 01       		.uleb128 0x1
 12680 0285 51       		.byte	0x51
 12681 0286 9F       		.byte	0x9f
 12682 0287 00000000 		.4byte	0
 12683 028b 00000000 		.4byte	0
 12684              	.LLST17:
 12685 028f 02000000 		.4byte	.LVL41
 12686 0293 16000000 		.4byte	.LVL44
 12687 0297 0200     		.2byte	0x2
 12688 0299 30       		.byte	0x30
 12689 029a 9F       		.byte	0x9f
 12690 029b 16000000 		.4byte	.LVL44
 12691 029f 18000000 		.4byte	.LVL45
 12692 02a3 0100     		.2byte	0x1
 12693 02a5 50       		.byte	0x50
 12694 02a6 18000000 		.4byte	.LVL45
 12695 02aa 1E000000 		.4byte	.LVL48
 12696 02ae 0200     		.2byte	0x2
 12697 02b0 30       		.byte	0x30
 12698 02b1 9F       		.byte	0x9f
 12699 02b2 1E000000 		.4byte	.LVL48
 12700 02b6 24000000 		.4byte	.LFE6
 12701 02ba 0100     		.2byte	0x1
 12702 02bc 50       		.byte	0x50
 12703 02bd 00000000 		.4byte	0
 12704 02c1 00000000 		.4byte	0
 12705              	.LLST18:
 12706 02c5 00000000 		.4byte	.LVL49
 12707 02c9 0D000000 		.4byte	.LVL51-1
 12708 02cd 0100     		.2byte	0x1
 12709 02cf 50       		.byte	0x50
 12710 02d0 0D000000 		.4byte	.LVL51-1
 12711 02d4 50000000 		.4byte	.LVL60
 12712 02d8 0100     		.2byte	0x1
 12713 02da 55       		.byte	0x55
 12714 02db 50000000 		.4byte	.LVL60
 12715 02df 58000000 		.4byte	.LFE7
ARM GAS  C:\Users\Rajesh\AppData\Local\Temp\ccMJoliC.s 			page 265


 12716 02e3 0400     		.2byte	0x4
 12717 02e5 F3       		.byte	0xf3
 12718 02e6 01       		.uleb128 0x1
 12719 02e7 50       		.byte	0x50
 12720 02e8 9F       		.byte	0x9f
 12721 02e9 00000000 		.4byte	0
 12722 02ed 00000000 		.4byte	0
 12723              	.LLST19:
 12724 02f1 06000000 		.4byte	.LVL50
 12725 02f5 10000000 		.4byte	.LVL52
 12726 02f9 0200     		.2byte	0x2
 12727 02fb 30       		.byte	0x30
 12728 02fc 9F       		.byte	0x9f
 12729 02fd 10000000 		.4byte	.LVL52
 12730 0301 14000000 		.4byte	.LVL53
 12731 0305 0100     		.2byte	0x1
 12732 0307 50       		.byte	0x50
 12733 0308 24000000 		.4byte	.LVL55
 12734 030c 40000000 		.4byte	.LVL57
 12735 0310 0100     		.2byte	0x1
 12736 0312 50       		.byte	0x50
 12737 0313 40000000 		.4byte	.LVL57
 12738 0317 4E000000 		.4byte	.LVL59
 12739 031b 0100     		.2byte	0x1
 12740 031d 54       		.byte	0x54
 12741 031e 4E000000 		.4byte	.LVL59
 12742 0322 58000000 		.4byte	.LFE7
 12743 0326 0100     		.2byte	0x1
 12744 0328 50       		.byte	0x50
 12745 0329 00000000 		.4byte	0
 12746 032d 00000000 		.4byte	0
 12747              	.LLST20:
 12748 0331 14000000 		.4byte	.LVL53
 12749 0335 40000000 		.4byte	.LVL57
 12750 0339 0100     		.2byte	0x1
 12751 033b 57       		.byte	0x57
 12752 033c 00000000 		.4byte	0
 12753 0340 00000000 		.4byte	0
 12754              	.LLST21:
 12755 0344 00000000 		.4byte	.LVL61
 12756 0348 2B000000 		.4byte	.LVL66-1
 12757 034c 0100     		.2byte	0x1
 12758 034e 50       		.byte	0x50
 12759 034f 2B000000 		.4byte	.LVL66-1
 12760 0353 00050000 		.4byte	.LVL223
 12761 0357 0100     		.2byte	0x1
 12762 0359 54       		.byte	0x54
 12763 035a 00050000 		.4byte	.LVL223
 12764 035e 0C050000 		.4byte	.LVL225
 12765 0362 0100     		.2byte	0x1
 12766 0364 50       		.byte	0x50
 12767 0365 0C050000 		.4byte	.LVL225
 12768 0369 BE050000 		.4byte	.LVL245
 12769 036d 0100     		.2byte	0x1
 12770 036f 54       		.byte	0x54
 12771 0370 BE050000 		.4byte	.LVL245
 12772 0374 D0050000 		.4byte	.LFE8
ARM GAS  C:\Users\Rajesh\AppData\Local\Temp\ccMJoliC.s 			page 266


 12773 0378 0400     		.2byte	0x4
 12774 037a F3       		.byte	0xf3
 12775 037b 01       		.uleb128 0x1
 12776 037c 50       		.byte	0x50
 12777 037d 9F       		.byte	0x9f
 12778 037e 00000000 		.4byte	0
 12779 0382 00000000 		.4byte	0
 12780              	.LLST22:
 12781 0386 00000000 		.4byte	.LVL61
 12782 038a 28000000 		.4byte	.LVL65
 12783 038e 0100     		.2byte	0x1
 12784 0390 51       		.byte	0x51
 12785 0391 28000000 		.4byte	.LVL65
 12786 0395 00050000 		.4byte	.LVL223
 12787 0399 0400     		.2byte	0x4
 12788 039b F3       		.byte	0xf3
 12789 039c 01       		.uleb128 0x1
 12790 039d 51       		.byte	0x51
 12791 039e 9F       		.byte	0x9f
 12792 039f 00050000 		.4byte	.LVL223
 12793 03a3 0C050000 		.4byte	.LVL225
 12794 03a7 0100     		.2byte	0x1
 12795 03a9 51       		.byte	0x51
 12796 03aa 0C050000 		.4byte	.LVL225
 12797 03ae D0050000 		.4byte	.LFE8
 12798 03b2 0400     		.2byte	0x4
 12799 03b4 F3       		.byte	0xf3
 12800 03b5 01       		.uleb128 0x1
 12801 03b6 51       		.byte	0x51
 12802 03b7 9F       		.byte	0x9f
 12803 03b8 00000000 		.4byte	0
 12804 03bc 00000000 		.4byte	0
 12805              	.LLST23:
 12806 03c0 12000000 		.4byte	.LVL62
 12807 03c4 2E000000 		.4byte	.LVL67
 12808 03c8 0200     		.2byte	0x2
 12809 03ca 30       		.byte	0x30
 12810 03cb 9F       		.byte	0x9f
 12811 03cc 2E000000 		.4byte	.LVL67
 12812 03d0 6C000000 		.4byte	.LVL75
 12813 03d4 0100     		.2byte	0x1
 12814 03d6 56       		.byte	0x56
 12815 03d7 6E000000 		.4byte	.LVL76
 12816 03db B4000000 		.4byte	.LVL86
 12817 03df 0100     		.2byte	0x1
 12818 03e1 56       		.byte	0x56
 12819 03e2 B8000000 		.4byte	.LVL87
 12820 03e6 D2000000 		.4byte	.LVL89
 12821 03ea 0100     		.2byte	0x1
 12822 03ec 59       		.byte	0x59
 12823 03ed D2000000 		.4byte	.LVL89
 12824 03f1 E8000000 		.4byte	.LVL93
 12825 03f5 0100     		.2byte	0x1
 12826 03f7 56       		.byte	0x56
 12827 03f8 EA000000 		.4byte	.LVL94
 12828 03fc 20010000 		.4byte	.LVL102
 12829 0400 0100     		.2byte	0x1
ARM GAS  C:\Users\Rajesh\AppData\Local\Temp\ccMJoliC.s 			page 267


 12830 0402 56       		.byte	0x56
 12831 0403 22010000 		.4byte	.LVL103
 12832 0407 58010000 		.4byte	.LVL109
 12833 040b 0100     		.2byte	0x1
 12834 040d 56       		.byte	0x56
 12835 040e 5C010000 		.4byte	.LVL110
 12836 0412 96010000 		.4byte	.LVL114
 12837 0416 0100     		.2byte	0x1
 12838 0418 59       		.byte	0x59
 12839 0419 96010000 		.4byte	.LVL114
 12840 041d 04020000 		.4byte	.LVL130
 12841 0421 0100     		.2byte	0x1
 12842 0423 56       		.byte	0x56
 12843 0424 08020000 		.4byte	.LVL131
 12844 0428 7A030000 		.4byte	.LVL151
 12845 042c 0100     		.2byte	0x1
 12846 042e 59       		.byte	0x59
 12847 042f 7A030000 		.4byte	.LVL151
 12848 0433 DC030000 		.4byte	.LVL167
 12849 0437 0100     		.2byte	0x1
 12850 0439 56       		.byte	0x56
 12851 043a DE030000 		.4byte	.LVL168
 12852 043e 08040000 		.4byte	.LVL175
 12853 0442 0100     		.2byte	0x1
 12854 0444 56       		.byte	0x56
 12855 0445 0A040000 		.4byte	.LVL176
 12856 0449 36040000 		.4byte	.LVL184
 12857 044d 0100     		.2byte	0x1
 12858 044f 56       		.byte	0x56
 12859 0450 38040000 		.4byte	.LVL185
 12860 0454 4A040000 		.4byte	.LVL189
 12861 0458 0100     		.2byte	0x1
 12862 045a 56       		.byte	0x56
 12863 045b 4C040000 		.4byte	.LVL190
 12864 045f 54040000 		.4byte	.LVL192
 12865 0463 0100     		.2byte	0x1
 12866 0465 56       		.byte	0x56
 12867 0466 56040000 		.4byte	.LVL193
 12868 046a 62040000 		.4byte	.LVL195
 12869 046e 0100     		.2byte	0x1
 12870 0470 56       		.byte	0x56
 12871 0471 66040000 		.4byte	.LVL196
 12872 0475 8C040000 		.4byte	.LVL201
 12873 0479 0100     		.2byte	0x1
 12874 047b 59       		.byte	0x59
 12875 047c 8C040000 		.4byte	.LVL201
 12876 0480 98040000 		.4byte	.LVL203
 12877 0484 0100     		.2byte	0x1
 12878 0486 56       		.byte	0x56
 12879 0487 9A040000 		.4byte	.LVL204
 12880 048b B0040000 		.4byte	.LVL206
 12881 048f 0100     		.2byte	0x1
 12882 0491 56       		.byte	0x56
 12883 0492 B2040000 		.4byte	.LVL207
 12884 0496 C4040000 		.4byte	.LVL209
 12885 049a 0100     		.2byte	0x1
 12886 049c 56       		.byte	0x56
ARM GAS  C:\Users\Rajesh\AppData\Local\Temp\ccMJoliC.s 			page 268


 12887 049d C6040000 		.4byte	.LVL210
 12888 04a1 D2040000 		.4byte	.LVL212
 12889 04a5 0100     		.2byte	0x1
 12890 04a7 56       		.byte	0x56
 12891 04a8 D4040000 		.4byte	.LVL213
 12892 04ac E0040000 		.4byte	.LVL215
 12893 04b0 0100     		.2byte	0x1
 12894 04b2 56       		.byte	0x56
 12895 04b3 E2040000 		.4byte	.LVL216
 12896 04b7 EE040000 		.4byte	.LVL218
 12897 04bb 0100     		.2byte	0x1
 12898 04bd 56       		.byte	0x56
 12899 04be F0040000 		.4byte	.LVL219
 12900 04c2 FC040000 		.4byte	.LVL221
 12901 04c6 0100     		.2byte	0x1
 12902 04c8 56       		.byte	0x56
 12903 04c9 FE040000 		.4byte	.LVL222
 12904 04cd 00050000 		.4byte	.LVL223
 12905 04d1 0100     		.2byte	0x1
 12906 04d3 56       		.byte	0x56
 12907 04d4 00050000 		.4byte	.LVL223
 12908 04d8 0C050000 		.4byte	.LVL225
 12909 04dc 0200     		.2byte	0x2
 12910 04de 30       		.byte	0x30
 12911 04df 9F       		.byte	0x9f
 12912 04e0 0C050000 		.4byte	.LVL225
 12913 04e4 BE050000 		.4byte	.LVL246
 12914 04e8 0100     		.2byte	0x1
 12915 04ea 56       		.byte	0x56
 12916 04eb 00000000 		.4byte	0
 12917 04ef 00000000 		.4byte	0
 12918              	.LLST24:
 12919 04f3 B6050000 		.4byte	.LVL242
 12920 04f7 BA050000 		.4byte	.LVL243
 12921 04fb 0100     		.2byte	0x1
 12922 04fd 55       		.byte	0x55
 12923 04fe 00000000 		.4byte	0
 12924 0502 00000000 		.4byte	0
 12925              	.LLST25:
 12926 0506 12000000 		.4byte	.LVL62
 12927 050a F4000000 		.4byte	.LVL95
 12928 050e 0200     		.2byte	0x2
 12929 0510 30       		.byte	0x30
 12930 0511 9F       		.byte	0x9f
 12931 0512 F4000000 		.4byte	.LVL95
 12932 0516 6A010000 		.4byte	.LVL111
 12933 051a 0100     		.2byte	0x1
 12934 051c 5A       		.byte	0x5a
 12935 051d 6A010000 		.4byte	.LVL111
 12936 0521 78010000 		.4byte	.LVL112
 12937 0525 0200     		.2byte	0x2
 12938 0527 30       		.byte	0x30
 12939 0528 9F       		.byte	0x9f
 12940 0529 78010000 		.4byte	.LVL112
 12941 052d 00050000 		.4byte	.LVL223
 12942 0531 0100     		.2byte	0x1
 12943 0533 5A       		.byte	0x5a
ARM GAS  C:\Users\Rajesh\AppData\Local\Temp\ccMJoliC.s 			page 269


 12944 0534 00050000 		.4byte	.LVL223
 12945 0538 0C050000 		.4byte	.LVL225
 12946 053c 0200     		.2byte	0x2
 12947 053e 30       		.byte	0x30
 12948 053f 9F       		.byte	0x9f
 12949 0540 0C050000 		.4byte	.LVL225
 12950 0544 BE050000 		.4byte	.LVL248
 12951 0548 0100     		.2byte	0x1
 12952 054a 5A       		.byte	0x5a
 12953 054b 00000000 		.4byte	0
 12954 054f 00000000 		.4byte	0
 12955              	.LLST26:
 12956 0553 12000000 		.4byte	.LVL62
 12957 0557 FC000000 		.4byte	.LVL96
 12958 055b 0200     		.2byte	0x2
 12959 055d 30       		.byte	0x30
 12960 055e 9F       		.byte	0x9f
 12961 055f FC000000 		.4byte	.LVL96
 12962 0563 6A010000 		.4byte	.LVL111
 12963 0567 0200     		.2byte	0x2
 12964 0569 7D       		.byte	0x7d
 12965 056a 00       		.sleb128 0
 12966 056b 6A010000 		.4byte	.LVL111
 12967 056f 78010000 		.4byte	.LVL112
 12968 0573 0200     		.2byte	0x2
 12969 0575 30       		.byte	0x30
 12970 0576 9F       		.byte	0x9f
 12971 0577 78010000 		.4byte	.LVL112
 12972 057b 00050000 		.4byte	.LVL223
 12973 057f 0200     		.2byte	0x2
 12974 0581 7D       		.byte	0x7d
 12975 0582 00       		.sleb128 0
 12976 0583 00050000 		.4byte	.LVL223
 12977 0587 0C050000 		.4byte	.LVL225
 12978 058b 0200     		.2byte	0x2
 12979 058d 30       		.byte	0x30
 12980 058e 9F       		.byte	0x9f
 12981 058f 0C050000 		.4byte	.LVL225
 12982 0593 BE050000 		.4byte	.LVL244
 12983 0597 0200     		.2byte	0x2
 12984 0599 7D       		.byte	0x7d
 12985 059a 00       		.sleb128 0
 12986 059b BE050000 		.4byte	.LVL244
 12987 059f D0050000 		.4byte	.LFE8
 12988 05a3 0300     		.2byte	0x3
 12989 05a5 91       		.byte	0x91
 12990 05a6 A07F     		.sleb128 -96
 12991 05a8 00000000 		.4byte	0
 12992 05ac 00000000 		.4byte	0
 12993              	.LLST27:
 12994 05b0 18000000 		.4byte	.LVL63
 12995 05b4 9E050000 		.4byte	.LVL235
 12996 05b8 0200     		.2byte	0x2
 12997 05ba 30       		.byte	0x30
 12998 05bb 9F       		.byte	0x9f
 12999 05bc 9E050000 		.4byte	.LVL235
 13000 05c0 A4050000 		.4byte	.LVL236
ARM GAS  C:\Users\Rajesh\AppData\Local\Temp\ccMJoliC.s 			page 270


 13001 05c4 0100     		.2byte	0x1
 13002 05c6 57       		.byte	0x57
 13003 05c7 AC050000 		.4byte	.LVL239
 13004 05cb AE050000 		.4byte	.LVL240
 13005 05cf 0200     		.2byte	0x2
 13006 05d1 30       		.byte	0x30
 13007 05d2 9F       		.byte	0x9f
 13008 05d3 00000000 		.4byte	0
 13009 05d7 00000000 		.4byte	0
 13010              	.LLST28:
 13011 05db 18000000 		.4byte	.LVL63
 13012 05df A6050000 		.4byte	.LVL237
 13013 05e3 0200     		.2byte	0x2
 13014 05e5 30       		.byte	0x30
 13015 05e6 9F       		.byte	0x9f
 13016 05e7 A6050000 		.4byte	.LVL237
 13017 05eb AA050000 		.4byte	.LVL238
 13018 05ef 0100     		.2byte	0x1
 13019 05f1 57       		.byte	0x57
 13020 05f2 AA050000 		.4byte	.LVL238
 13021 05f6 AC050000 		.4byte	.LVL239
 13022 05fa 0100     		.2byte	0x1
 13023 05fc 53       		.byte	0x53
 13024 05fd AC050000 		.4byte	.LVL239
 13025 0601 AE050000 		.4byte	.LVL240
 13026 0605 0200     		.2byte	0x2
 13027 0607 30       		.byte	0x30
 13028 0608 9F       		.byte	0x9f
 13029 0609 AE050000 		.4byte	.LVL240
 13030 060d B0050000 		.4byte	.LVL241
 13031 0611 0100     		.2byte	0x1
 13032 0613 53       		.byte	0x53
 13033 0614 00000000 		.4byte	0
 13034 0618 00000000 		.4byte	0
 13035              	.LLST29:
 13036 061c 18000000 		.4byte	.LVL63
 13037 0620 3E040000 		.4byte	.LVL187
 13038 0624 0200     		.2byte	0x2
 13039 0626 30       		.byte	0x30
 13040 0627 9F       		.byte	0x9f
 13041 0628 3E040000 		.4byte	.LVL187
 13042 062c 6E040000 		.4byte	.LVL198
 13043 0630 0100     		.2byte	0x1
 13044 0632 57       		.byte	0x57
 13045 0633 6E040000 		.4byte	.LVL198
 13046 0637 7C040000 		.4byte	.LVL199
 13047 063b 0200     		.2byte	0x2
 13048 063d 30       		.byte	0x30
 13049 063e 9F       		.byte	0x9f
 13050 063f 7C040000 		.4byte	.LVL199
 13051 0643 00050000 		.4byte	.LVL223
 13052 0647 0100     		.2byte	0x1
 13053 0649 57       		.byte	0x57
 13054 064a 00050000 		.4byte	.LVL223
 13055 064e 0C050000 		.4byte	.LVL225
 13056 0652 0200     		.2byte	0x2
 13057 0654 30       		.byte	0x30
ARM GAS  C:\Users\Rajesh\AppData\Local\Temp\ccMJoliC.s 			page 271


 13058 0655 9F       		.byte	0x9f
 13059 0656 0C050000 		.4byte	.LVL225
 13060 065a 9E050000 		.4byte	.LVL235
 13061 065e 0100     		.2byte	0x1
 13062 0660 57       		.byte	0x57
 13063 0661 9E050000 		.4byte	.LVL235
 13064 0665 A4050000 		.4byte	.LVL236
 13065 0669 0400     		.2byte	0x4
 13066 066b 77       		.byte	0x77
 13067 066c 8032     		.sleb128 6400
 13068 066e 9F       		.byte	0x9f
 13069 066f AC050000 		.4byte	.LVL239
 13070 0673 AE050000 		.4byte	.LVL240
 13071 0677 0100     		.2byte	0x1
 13072 0679 57       		.byte	0x57
 13073 067a 00000000 		.4byte	0
 13074 067e 00000000 		.4byte	0
 13075              	.LLST30:
 13076 0682 18000000 		.4byte	.LVL63
 13077 0686 E4030000 		.4byte	.LVL169
 13078 068a 0200     		.2byte	0x2
 13079 068c 30       		.byte	0x30
 13080 068d 9F       		.byte	0x9f
 13081 068e E4030000 		.4byte	.LVL169
 13082 0692 10040000 		.4byte	.LVL177
 13083 0696 0100     		.2byte	0x1
 13084 0698 57       		.byte	0x57
 13085 0699 12040000 		.4byte	.LVL178
 13086 069d 3C040000 		.4byte	.LVL186
 13087 06a1 0100     		.2byte	0x1
 13088 06a3 57       		.byte	0x57
 13089 06a4 3C040000 		.4byte	.LVL186
 13090 06a8 6E040000 		.4byte	.LVL198
 13091 06ac 0300     		.2byte	0x3
 13092 06ae 91       		.byte	0x91
 13093 06af A47F     		.sleb128 -92
 13094 06b1 6E040000 		.4byte	.LVL198
 13095 06b5 7C040000 		.4byte	.LVL199
 13096 06b9 0200     		.2byte	0x2
 13097 06bb 30       		.byte	0x30
 13098 06bc 9F       		.byte	0x9f
 13099 06bd 7C040000 		.4byte	.LVL199
 13100 06c1 00050000 		.4byte	.LVL223
 13101 06c5 0300     		.2byte	0x3
 13102 06c7 91       		.byte	0x91
 13103 06c8 A47F     		.sleb128 -92
 13104 06ca 00050000 		.4byte	.LVL223
 13105 06ce 0C050000 		.4byte	.LVL225
 13106 06d2 0200     		.2byte	0x2
 13107 06d4 30       		.byte	0x30
 13108 06d5 9F       		.byte	0x9f
 13109 06d6 0C050000 		.4byte	.LVL225
 13110 06da D0050000 		.4byte	.LFE8
 13111 06de 0300     		.2byte	0x3
 13112 06e0 91       		.byte	0x91
 13113 06e1 A47F     		.sleb128 -92
 13114 06e3 00000000 		.4byte	0
ARM GAS  C:\Users\Rajesh\AppData\Local\Temp\ccMJoliC.s 			page 272


 13115 06e7 00000000 		.4byte	0
 13116              	.LLST31:
 13117 06eb 1E000000 		.4byte	.LVL64
 13118 06ef 2B000000 		.4byte	.LVL66-1
 13119 06f3 0100     		.2byte	0x1
 13120 06f5 53       		.byte	0x53
 13121 06f6 2B000000 		.4byte	.LVL66-1
 13122 06fa 00050000 		.4byte	.LVL223
 13123 06fe 0100     		.2byte	0x1
 13124 0700 58       		.byte	0x58
 13125 0701 00050000 		.4byte	.LVL223
 13126 0705 02050000 		.4byte	.LVL224
 13127 0709 0100     		.2byte	0x1
 13128 070b 53       		.byte	0x53
 13129 070c 02050000 		.4byte	.LVL224
 13130 0710 16050000 		.4byte	.LVL226
 13131 0714 0100     		.2byte	0x1
 13132 0716 58       		.byte	0x58
 13133 0717 16050000 		.4byte	.LVL226
 13134 071b 1A050000 		.4byte	.LVL227
 13135 071f 0100     		.2byte	0x1
 13136 0721 53       		.byte	0x53
 13137 0722 1A050000 		.4byte	.LVL227
 13138 0726 BE050000 		.4byte	.LVL247
 13139 072a 0100     		.2byte	0x1
 13140 072c 58       		.byte	0x58
 13141 072d 00000000 		.4byte	0
 13142 0731 00000000 		.4byte	0
 13143              	.LLST32:
 13144 0735 18000000 		.4byte	.LVL63
 13145 0739 8E050000 		.4byte	.LVL233
 13146 073d 0200     		.2byte	0x2
 13147 073f 30       		.byte	0x30
 13148 0740 9F       		.byte	0x9f
 13149 0741 8E050000 		.4byte	.LVL233
 13150 0745 9A050000 		.4byte	.LVL234
 13151 0749 0100     		.2byte	0x1
 13152 074b 53       		.byte	0x53
 13153 074c 9A050000 		.4byte	.LVL234
 13154 0750 AC050000 		.4byte	.LVL239
 13155 0754 0500     		.2byte	0x5
 13156 0756 74       		.byte	0x74
 13157 0757 00       		.sleb128 0
 13158 0758 72       		.byte	0x72
 13159 0759 00       		.sleb128 0
 13160 075a 22       		.byte	0x22
 13161 075b AC050000 		.4byte	.LVL239
 13162 075f AE050000 		.4byte	.LVL240
 13163 0763 0100     		.2byte	0x1
 13164 0765 53       		.byte	0x53
 13165 0766 AE050000 		.4byte	.LVL240
 13166 076a B0050000 		.4byte	.LVL241
 13167 076e 0500     		.2byte	0x5
 13168 0770 74       		.byte	0x74
 13169 0771 00       		.sleb128 0
 13170 0772 72       		.byte	0x72
 13171 0773 00       		.sleb128 0
ARM GAS  C:\Users\Rajesh\AppData\Local\Temp\ccMJoliC.s 			page 273


 13172 0774 22       		.byte	0x22
 13173 0775 00000000 		.4byte	0
 13174 0779 00000000 		.4byte	0
 13175              	.LLST33:
 13176 077d 30050000 		.4byte	.LVL228
 13177 0781 34050000 		.4byte	.LVL229
 13178 0785 0200     		.2byte	0x2
 13179 0787 30       		.byte	0x30
 13180 0788 9F       		.byte	0x9f
 13181 0789 34050000 		.4byte	.LVL229
 13182 078d 46050000 		.4byte	.LVL231
 13183 0791 0100     		.2byte	0x1
 13184 0793 53       		.byte	0x53
 13185 0794 00000000 		.4byte	0
 13186 0798 00000000 		.4byte	0
 13187              	.LLST34:
 13188 079c 00000000 		.4byte	.LVL249
 13189 07a0 06000000 		.4byte	.LVL251
 13190 07a4 0100     		.2byte	0x1
 13191 07a6 50       		.byte	0x50
 13192 07a7 06000000 		.4byte	.LVL251
 13193 07ab 10000000 		.4byte	.LFE9
 13194 07af 0400     		.2byte	0x4
 13195 07b1 F3       		.byte	0xf3
 13196 07b2 01       		.uleb128 0x1
 13197 07b3 50       		.byte	0x50
 13198 07b4 9F       		.byte	0x9f
 13199 07b5 00000000 		.4byte	0
 13200 07b9 00000000 		.4byte	0
 13201              	.LLST35:
 13202 07bd 00000000 		.4byte	.LVL249
 13203 07c1 04000000 		.4byte	.LVL250
 13204 07c5 0100     		.2byte	0x1
 13205 07c7 51       		.byte	0x51
 13206 07c8 04000000 		.4byte	.LVL250
 13207 07cc 10000000 		.4byte	.LFE9
 13208 07d0 0400     		.2byte	0x4
 13209 07d2 F3       		.byte	0xf3
 13210 07d3 01       		.uleb128 0x1
 13211 07d4 51       		.byte	0x51
 13212 07d5 9F       		.byte	0x9f
 13213 07d6 00000000 		.4byte	0
 13214 07da 00000000 		.4byte	0
 13215              	.LLST36:
 13216 07de 00000000 		.4byte	.LVL253
 13217 07e2 06000000 		.4byte	.LVL254
 13218 07e6 0100     		.2byte	0x1
 13219 07e8 50       		.byte	0x50
 13220 07e9 06000000 		.4byte	.LVL254
 13221 07ed 0A000000 		.4byte	.LVL255
 13222 07f1 0300     		.2byte	0x3
 13223 07f3 70       		.byte	0x70
 13224 07f4 01       		.sleb128 1
 13225 07f5 9F       		.byte	0x9f
 13226 07f6 0A000000 		.4byte	.LVL255
 13227 07fa 26000000 		.4byte	.LVL262
 13228 07fe 0400     		.2byte	0x4
ARM GAS  C:\Users\Rajesh\AppData\Local\Temp\ccMJoliC.s 			page 274


 13229 0800 F3       		.byte	0xf3
 13230 0801 01       		.uleb128 0x1
 13231 0802 50       		.byte	0x50
 13232 0803 9F       		.byte	0x9f
 13233 0804 26000000 		.4byte	.LVL262
 13234 0808 28000000 		.4byte	.LVL263
 13235 080c 0100     		.2byte	0x1
 13236 080e 50       		.byte	0x50
 13237 080f 28000000 		.4byte	.LVL263
 13238 0813 2A000000 		.4byte	.LFE10
 13239 0817 0400     		.2byte	0x4
 13240 0819 F3       		.byte	0xf3
 13241 081a 01       		.uleb128 0x1
 13242 081b 50       		.byte	0x50
 13243 081c 9F       		.byte	0x9f
 13244 081d 00000000 		.4byte	0
 13245 0821 00000000 		.4byte	0
 13246              	.LLST37:
 13247 0825 00000000 		.4byte	.LVL253
 13248 0829 24000000 		.4byte	.LVL261
 13249 082d 0200     		.2byte	0x2
 13250 082f 30       		.byte	0x30
 13251 0830 9F       		.byte	0x9f
 13252 0831 24000000 		.4byte	.LVL261
 13253 0835 26000000 		.4byte	.LVL262
 13254 0839 0100     		.2byte	0x1
 13255 083b 50       		.byte	0x50
 13256 083c 26000000 		.4byte	.LVL262
 13257 0840 28000000 		.4byte	.LVL263
 13258 0844 0200     		.2byte	0x2
 13259 0846 30       		.byte	0x30
 13260 0847 9F       		.byte	0x9f
 13261 0848 28000000 		.4byte	.LVL263
 13262 084c 2A000000 		.4byte	.LFE10
 13263 0850 0100     		.2byte	0x1
 13264 0852 50       		.byte	0x50
 13265 0853 00000000 		.4byte	0
 13266 0857 00000000 		.4byte	0
 13267              	.LLST38:
 13268 085b 00000000 		.4byte	.LVL253
 13269 085f 06000000 		.4byte	.LVL254
 13270 0863 0200     		.2byte	0x2
 13271 0865 30       		.byte	0x30
 13272 0866 9F       		.byte	0x9f
 13273 0867 06000000 		.4byte	.LVL254
 13274 086b 20000000 		.4byte	.LVL260
 13275 086f 0100     		.2byte	0x1
 13276 0871 50       		.byte	0x50
 13277 0872 26000000 		.4byte	.LVL262
 13278 0876 28000000 		.4byte	.LVL263
 13279 087a 0200     		.2byte	0x2
 13280 087c 30       		.byte	0x30
 13281 087d 9F       		.byte	0x9f
 13282 087e 00000000 		.4byte	0
 13283 0882 00000000 		.4byte	0
 13284              	.LLST39:
 13285 0886 00000000 		.4byte	.LVL253
ARM GAS  C:\Users\Rajesh\AppData\Local\Temp\ccMJoliC.s 			page 275


 13286 088a 0A000000 		.4byte	.LVL255
 13287 088e 0200     		.2byte	0x2
 13288 0890 30       		.byte	0x30
 13289 0891 9F       		.byte	0x9f
 13290 0892 0A000000 		.4byte	.LVL255
 13291 0896 0E000000 		.4byte	.LVL257
 13292 089a 0100     		.2byte	0x1
 13293 089c 53       		.byte	0x53
 13294 089d 10000000 		.4byte	.LVL258
 13295 08a1 1C000000 		.4byte	.LVL259
 13296 08a5 0100     		.2byte	0x1
 13297 08a7 53       		.byte	0x53
 13298 08a8 26000000 		.4byte	.LVL262
 13299 08ac 28000000 		.4byte	.LVL263
 13300 08b0 0200     		.2byte	0x2
 13301 08b2 30       		.byte	0x30
 13302 08b3 9F       		.byte	0x9f
 13303 08b4 00000000 		.4byte	0
 13304 08b8 00000000 		.4byte	0
 13305              	.LLST40:
 13306 08bc 00000000 		.4byte	.LVL264
 13307 08c0 04000000 		.4byte	.LVL266
 13308 08c4 0100     		.2byte	0x1
 13309 08c6 50       		.byte	0x50
 13310 08c7 04000000 		.4byte	.LVL266
 13311 08cb 0E000000 		.4byte	.LFE11
 13312 08cf 0400     		.2byte	0x4
 13313 08d1 F3       		.byte	0xf3
 13314 08d2 01       		.uleb128 0x1
 13315 08d3 50       		.byte	0x50
 13316 08d4 9F       		.byte	0x9f
 13317 08d5 00000000 		.4byte	0
 13318 08d9 00000000 		.4byte	0
 13319              	.LLST41:
 13320 08dd 02000000 		.4byte	.LVL265
 13321 08e1 0C000000 		.4byte	.LVL267
 13322 08e5 0200     		.2byte	0x2
 13323 08e7 30       		.byte	0x30
 13324 08e8 9F       		.byte	0x9f
 13325 08e9 0C000000 		.4byte	.LVL267
 13326 08ed 0E000000 		.4byte	.LFE11
 13327 08f1 0100     		.2byte	0x1
 13328 08f3 50       		.byte	0x50
 13329 08f4 00000000 		.4byte	0
 13330 08f8 00000000 		.4byte	0
 13331              	.LLST42:
 13332 08fc 00000000 		.4byte	.LVL268
 13333 0900 09000000 		.4byte	.LVL271-1
 13334 0904 0100     		.2byte	0x1
 13335 0906 50       		.byte	0x50
 13336 0907 09000000 		.4byte	.LVL271-1
 13337 090b 34000000 		.4byte	.LFE12
 13338 090f 0400     		.2byte	0x4
 13339 0911 F3       		.byte	0xf3
 13340 0912 01       		.uleb128 0x1
 13341 0913 50       		.byte	0x50
 13342 0914 9F       		.byte	0x9f
ARM GAS  C:\Users\Rajesh\AppData\Local\Temp\ccMJoliC.s 			page 276


 13343 0915 00000000 		.4byte	0
 13344 0919 00000000 		.4byte	0
 13345              	.LLST43:
 13346 091d 00000000 		.4byte	.LVL268
 13347 0921 06000000 		.4byte	.LVL270
 13348 0925 0100     		.2byte	0x1
 13349 0927 51       		.byte	0x51
 13350 0928 06000000 		.4byte	.LVL270
 13351 092c 20000000 		.4byte	.LVL277
 13352 0930 0100     		.2byte	0x1
 13353 0932 56       		.byte	0x56
 13354 0933 20000000 		.4byte	.LVL277
 13355 0937 34000000 		.4byte	.LFE12
 13356 093b 0400     		.2byte	0x4
 13357 093d F3       		.byte	0xf3
 13358 093e 01       		.uleb128 0x1
 13359 093f 51       		.byte	0x51
 13360 0940 9F       		.byte	0x9f
 13361 0941 00000000 		.4byte	0
 13362 0945 00000000 		.4byte	0
 13363              	.LLST44:
 13364 0949 00000000 		.4byte	.LVL268
 13365 094d 09000000 		.4byte	.LVL271-1
 13366 0951 0100     		.2byte	0x1
 13367 0953 52       		.byte	0x52
 13368 0954 09000000 		.4byte	.LVL271-1
 13369 0958 34000000 		.4byte	.LFE12
 13370 095c 0400     		.2byte	0x4
 13371 095e F3       		.byte	0xf3
 13372 095f 01       		.uleb128 0x1
 13373 0960 52       		.byte	0x52
 13374 0961 9F       		.byte	0x9f
 13375 0962 00000000 		.4byte	0
 13376 0966 00000000 		.4byte	0
 13377              	.LLST45:
 13378 096a 0A000000 		.4byte	.LVL271
 13379 096e 0C000000 		.4byte	.LVL272
 13380 0972 0100     		.2byte	0x1
 13381 0974 50       		.byte	0x50
 13382 0975 0C000000 		.4byte	.LVL272
 13383 0979 0E000000 		.4byte	.LVL273
 13384 097d 0400     		.2byte	0x4
 13385 097f 70       		.byte	0x70
 13386 0980 8B7E     		.sleb128 -245
 13387 0982 9F       		.byte	0x9f
 13388 0983 0E000000 		.4byte	.LVL273
 13389 0987 17000000 		.4byte	.LVL274-1
 13390 098b 0400     		.2byte	0x4
 13391 098d 70       		.byte	0x70
 13392 098e 8C7C     		.sleb128 -500
 13393 0990 9F       		.byte	0x9f
 13394 0991 17000000 		.4byte	.LVL274-1
 13395 0995 32000000 		.4byte	.LVL280
 13396 0999 0400     		.2byte	0x4
 13397 099b 74       		.byte	0x74
 13398 099c 8C7C     		.sleb128 -500
 13399 099e 9F       		.byte	0x9f
ARM GAS  C:\Users\Rajesh\AppData\Local\Temp\ccMJoliC.s 			page 277


 13400 099f 00000000 		.4byte	0
 13401 09a3 00000000 		.4byte	0
 13402              	.LLST46:
 13403 09a7 1A000000 		.4byte	.LVL275
 13404 09ab 1C000000 		.4byte	.LVL276
 13405 09af 0100     		.2byte	0x1
 13406 09b1 50       		.byte	0x50
 13407 09b2 1C000000 		.4byte	.LVL276
 13408 09b6 32000000 		.4byte	.LVL281
 13409 09ba 0100     		.2byte	0x1
 13410 09bc 55       		.byte	0x55
 13411 09bd 00000000 		.4byte	0
 13412 09c1 00000000 		.4byte	0
 13413              	.LLST47:
 13414 09c5 04000000 		.4byte	.LVL269
 13415 09c9 32000000 		.4byte	.LVL279
 13416 09cd 0200     		.2byte	0x2
 13417 09cf 30       		.byte	0x30
 13418 09d0 9F       		.byte	0x9f
 13419 09d1 32000000 		.4byte	.LVL279
 13420 09d5 34000000 		.4byte	.LFE12
 13421 09d9 0100     		.2byte	0x1
 13422 09db 50       		.byte	0x50
 13423 09dc 00000000 		.4byte	0
 13424 09e0 00000000 		.4byte	0
 13425              	.LLST48:
 13426 09e4 00000000 		.4byte	.LVL282
 13427 09e8 09000000 		.4byte	.LVL285-1
 13428 09ec 0100     		.2byte	0x1
 13429 09ee 50       		.byte	0x50
 13430 09ef 09000000 		.4byte	.LVL285-1
 13431 09f3 26000000 		.4byte	.LFE13
 13432 09f7 0400     		.2byte	0x4
 13433 09f9 F3       		.byte	0xf3
 13434 09fa 01       		.uleb128 0x1
 13435 09fb 50       		.byte	0x50
 13436 09fc 9F       		.byte	0x9f
 13437 09fd 00000000 		.4byte	0
 13438 0a01 00000000 		.4byte	0
 13439              	.LLST49:
 13440 0a05 00000000 		.4byte	.LVL282
 13441 0a09 06000000 		.4byte	.LVL284
 13442 0a0d 0100     		.2byte	0x1
 13443 0a0f 51       		.byte	0x51
 13444 0a10 06000000 		.4byte	.LVL284
 13445 0a14 26000000 		.4byte	.LFE13
 13446 0a18 0400     		.2byte	0x4
 13447 0a1a F3       		.byte	0xf3
 13448 0a1b 01       		.uleb128 0x1
 13449 0a1c 51       		.byte	0x51
 13450 0a1d 9F       		.byte	0x9f
 13451 0a1e 00000000 		.4byte	0
 13452 0a22 00000000 		.4byte	0
 13453              	.LLST50:
 13454 0a26 00000000 		.4byte	.LVL282
 13455 0a2a 09000000 		.4byte	.LVL285-1
 13456 0a2e 0100     		.2byte	0x1
ARM GAS  C:\Users\Rajesh\AppData\Local\Temp\ccMJoliC.s 			page 278


 13457 0a30 52       		.byte	0x52
 13458 0a31 09000000 		.4byte	.LVL285-1
 13459 0a35 26000000 		.4byte	.LFE13
 13460 0a39 0400     		.2byte	0x4
 13461 0a3b F3       		.byte	0xf3
 13462 0a3c 01       		.uleb128 0x1
 13463 0a3d 52       		.byte	0x52
 13464 0a3e 9F       		.byte	0x9f
 13465 0a3f 00000000 		.4byte	0
 13466 0a43 00000000 		.4byte	0
 13467              	.LLST51:
 13468 0a47 0A000000 		.4byte	.LVL285
 13469 0a4b 0C000000 		.4byte	.LVL286
 13470 0a4f 0100     		.2byte	0x1
 13471 0a51 50       		.byte	0x50
 13472 0a52 0C000000 		.4byte	.LVL286
 13473 0a56 0E000000 		.4byte	.LVL287
 13474 0a5a 0400     		.2byte	0x4
 13475 0a5c 70       		.byte	0x70
 13476 0a5d 8B7E     		.sleb128 -245
 13477 0a5f 9F       		.byte	0x9f
 13478 0a60 0E000000 		.4byte	.LVL287
 13479 0a64 15000000 		.4byte	.LVL288-1
 13480 0a68 0400     		.2byte	0x4
 13481 0a6a 70       		.byte	0x70
 13482 0a6b 8C7C     		.sleb128 -500
 13483 0a6d 9F       		.byte	0x9f
 13484 0a6e 00000000 		.4byte	0
 13485 0a72 00000000 		.4byte	0
 13486              	.LLST52:
 13487 0a76 16000000 		.4byte	.LVL288
 13488 0a7a 18000000 		.4byte	.LVL289
 13489 0a7e 0100     		.2byte	0x1
 13490 0a80 50       		.byte	0x50
 13491 0a81 00000000 		.4byte	0
 13492 0a85 00000000 		.4byte	0
 13493              	.LLST53:
 13494 0a89 04000000 		.4byte	.LVL283
 13495 0a8d 24000000 		.4byte	.LVL290
 13496 0a91 0200     		.2byte	0x2
 13497 0a93 30       		.byte	0x30
 13498 0a94 9F       		.byte	0x9f
 13499 0a95 24000000 		.4byte	.LVL290
 13500 0a99 26000000 		.4byte	.LFE13
 13501 0a9d 0100     		.2byte	0x1
 13502 0a9f 50       		.byte	0x50
 13503 0aa0 00000000 		.4byte	0
 13504 0aa4 00000000 		.4byte	0
 13505              	.LLST54:
 13506 0aa8 00000000 		.4byte	.LVL291
 13507 0aac 25000000 		.4byte	.LVL297-1
 13508 0ab0 0100     		.2byte	0x1
 13509 0ab2 50       		.byte	0x50
 13510 0ab3 25000000 		.4byte	.LVL297-1
 13511 0ab7 52000000 		.4byte	.LVL305
 13512 0abb 0100     		.2byte	0x1
 13513 0abd 55       		.byte	0x55
ARM GAS  C:\Users\Rajesh\AppData\Local\Temp\ccMJoliC.s 			page 279


 13514 0abe 52000000 		.4byte	.LVL305
 13515 0ac2 5F000000 		.4byte	.LVL307-1
 13516 0ac6 0100     		.2byte	0x1
 13517 0ac8 50       		.byte	0x50
 13518 0ac9 5F000000 		.4byte	.LVL307-1
 13519 0acd 98000000 		.4byte	.LVL318
 13520 0ad1 0100     		.2byte	0x1
 13521 0ad3 55       		.byte	0x55
 13522 0ad4 98000000 		.4byte	.LVL318
 13523 0ad8 A3000000 		.4byte	.LVL320-1
 13524 0adc 0100     		.2byte	0x1
 13525 0ade 50       		.byte	0x50
 13526 0adf A3000000 		.4byte	.LVL320-1
 13527 0ae3 26010000 		.4byte	.LVL346
 13528 0ae7 0100     		.2byte	0x1
 13529 0ae9 55       		.byte	0x55
 13530 0aea 26010000 		.4byte	.LVL346
 13531 0aee 28010000 		.4byte	.LVL347
 13532 0af2 0100     		.2byte	0x1
 13533 0af4 50       		.byte	0x50
 13534 0af5 28010000 		.4byte	.LVL347
 13535 0af9 30010000 		.4byte	.LVL351
 13536 0afd 0100     		.2byte	0x1
 13537 0aff 55       		.byte	0x55
 13538 0b00 30010000 		.4byte	.LVL351
 13539 0b04 36010000 		.4byte	.LFE14
 13540 0b08 0400     		.2byte	0x4
 13541 0b0a F3       		.byte	0xf3
 13542 0b0b 01       		.uleb128 0x1
 13543 0b0c 50       		.byte	0x50
 13544 0b0d 9F       		.byte	0x9f
 13545 0b0e 00000000 		.4byte	0
 13546 0b12 00000000 		.4byte	0
 13547              	.LLST55:
 13548 0b16 00000000 		.4byte	.LVL291
 13549 0b1a 22000000 		.4byte	.LVL296
 13550 0b1e 0100     		.2byte	0x1
 13551 0b20 51       		.byte	0x51
 13552 0b21 22000000 		.4byte	.LVL296
 13553 0b25 52000000 		.4byte	.LVL305
 13554 0b29 0400     		.2byte	0x4
 13555 0b2b F3       		.byte	0xf3
 13556 0b2c 01       		.uleb128 0x1
 13557 0b2d 51       		.byte	0x51
 13558 0b2e 9F       		.byte	0x9f
 13559 0b2f 52000000 		.4byte	.LVL305
 13560 0b33 5C000000 		.4byte	.LVL306
 13561 0b37 0100     		.2byte	0x1
 13562 0b39 51       		.byte	0x51
 13563 0b3a 5C000000 		.4byte	.LVL306
 13564 0b3e 98000000 		.4byte	.LVL318
 13565 0b42 0400     		.2byte	0x4
 13566 0b44 F3       		.byte	0xf3
 13567 0b45 01       		.uleb128 0x1
 13568 0b46 51       		.byte	0x51
 13569 0b47 9F       		.byte	0x9f
 13570 0b48 98000000 		.4byte	.LVL318
ARM GAS  C:\Users\Rajesh\AppData\Local\Temp\ccMJoliC.s 			page 280


 13571 0b4c A0000000 		.4byte	.LVL319
 13572 0b50 0100     		.2byte	0x1
 13573 0b52 51       		.byte	0x51
 13574 0b53 A0000000 		.4byte	.LVL319
 13575 0b57 26010000 		.4byte	.LVL346
 13576 0b5b 0400     		.2byte	0x4
 13577 0b5d F3       		.byte	0xf3
 13578 0b5e 01       		.uleb128 0x1
 13579 0b5f 51       		.byte	0x51
 13580 0b60 9F       		.byte	0x9f
 13581 0b61 26010000 		.4byte	.LVL346
 13582 0b65 2A010000 		.4byte	.LVL348
 13583 0b69 0100     		.2byte	0x1
 13584 0b6b 51       		.byte	0x51
 13585 0b6c 2A010000 		.4byte	.LVL348
 13586 0b70 36010000 		.4byte	.LFE14
 13587 0b74 0400     		.2byte	0x4
 13588 0b76 F3       		.byte	0xf3
 13589 0b77 01       		.uleb128 0x1
 13590 0b78 51       		.byte	0x51
 13591 0b79 9F       		.byte	0x9f
 13592 0b7a 00000000 		.4byte	0
 13593 0b7e 00000000 		.4byte	0
 13594              	.LLST56:
 13595 0b82 00000000 		.4byte	.LVL291
 13596 0b86 10000000 		.4byte	.LVL293
 13597 0b8a 0100     		.2byte	0x1
 13598 0b8c 52       		.byte	0x52
 13599 0b8d 10000000 		.4byte	.LVL293
 13600 0b91 30010000 		.4byte	.LVL352
 13601 0b95 0100     		.2byte	0x1
 13602 0b97 56       		.byte	0x56
 13603 0b98 30010000 		.4byte	.LVL352
 13604 0b9c 36010000 		.4byte	.LFE14
 13605 0ba0 0400     		.2byte	0x4
 13606 0ba2 F3       		.byte	0xf3
 13607 0ba3 01       		.uleb128 0x1
 13608 0ba4 52       		.byte	0x52
 13609 0ba5 9F       		.byte	0x9f
 13610 0ba6 00000000 		.4byte	0
 13611 0baa 00000000 		.4byte	0
 13612              	.LLST57:
 13613 0bae 0C000000 		.4byte	.LVL292
 13614 0bb2 28000000 		.4byte	.LVL298
 13615 0bb6 0200     		.2byte	0x2
 13616 0bb8 30       		.byte	0x30
 13617 0bb9 9F       		.byte	0x9f
 13618 0bba 28000000 		.4byte	.LVL298
 13619 0bbe 32000000 		.4byte	.LVL299
 13620 0bc2 0100     		.2byte	0x1
 13621 0bc4 50       		.byte	0x50
 13622 0bc5 32000000 		.4byte	.LVL299
 13623 0bc9 52000000 		.4byte	.LVL305
 13624 0bcd 0100     		.2byte	0x1
 13625 0bcf 54       		.byte	0x54
 13626 0bd0 52000000 		.4byte	.LVL305
 13627 0bd4 62000000 		.4byte	.LVL308
ARM GAS  C:\Users\Rajesh\AppData\Local\Temp\ccMJoliC.s 			page 281


 13628 0bd8 0200     		.2byte	0x2
 13629 0bda 30       		.byte	0x30
 13630 0bdb 9F       		.byte	0x9f
 13631 0bdc 62000000 		.4byte	.LVL308
 13632 0be0 6C000000 		.4byte	.LVL309
 13633 0be4 0100     		.2byte	0x1
 13634 0be6 50       		.byte	0x50
 13635 0be7 6C000000 		.4byte	.LVL309
 13636 0beb 72000000 		.4byte	.LVL311
 13637 0bef 0100     		.2byte	0x1
 13638 0bf1 54       		.byte	0x54
 13639 0bf2 72000000 		.4byte	.LVL311
 13640 0bf6 7A000000 		.4byte	.LVL312
 13641 0bfa 0100     		.2byte	0x1
 13642 0bfc 50       		.byte	0x50
 13643 0bfd 7A000000 		.4byte	.LVL312
 13644 0c01 98000000 		.4byte	.LVL318
 13645 0c05 0100     		.2byte	0x1
 13646 0c07 54       		.byte	0x54
 13647 0c08 98000000 		.4byte	.LVL318
 13648 0c0c B8000000 		.4byte	.LVL322
 13649 0c10 0200     		.2byte	0x2
 13650 0c12 30       		.byte	0x30
 13651 0c13 9F       		.byte	0x9f
 13652 0c14 B8000000 		.4byte	.LVL322
 13653 0c18 C2000000 		.4byte	.LVL323
 13654 0c1c 0100     		.2byte	0x1
 13655 0c1e 50       		.byte	0x50
 13656 0c1f C2000000 		.4byte	.LVL323
 13657 0c23 C8000000 		.4byte	.LVL325
 13658 0c27 0100     		.2byte	0x1
 13659 0c29 54       		.byte	0x54
 13660 0c2a C8000000 		.4byte	.LVL325
 13661 0c2e CA000000 		.4byte	.LVL326
 13662 0c32 0100     		.2byte	0x1
 13663 0c34 50       		.byte	0x50
 13664 0c35 CA000000 		.4byte	.LVL326
 13665 0c39 D2000000 		.4byte	.LVL329
 13666 0c3d 0100     		.2byte	0x1
 13667 0c3f 54       		.byte	0x54
 13668 0c40 D2000000 		.4byte	.LVL329
 13669 0c44 D8000000 		.4byte	.LVL330
 13670 0c48 0200     		.2byte	0x2
 13671 0c4a 30       		.byte	0x30
 13672 0c4b 9F       		.byte	0x9f
 13673 0c4c D8000000 		.4byte	.LVL330
 13674 0c50 DA000000 		.4byte	.LVL331
 13675 0c54 0100     		.2byte	0x1
 13676 0c56 50       		.byte	0x50
 13677 0c57 DA000000 		.4byte	.LVL331
 13678 0c5b 02010000 		.4byte	.LVL335
 13679 0c5f 0100     		.2byte	0x1
 13680 0c61 54       		.byte	0x54
 13681 0c62 02010000 		.4byte	.LVL335
 13682 0c66 06010000 		.4byte	.LVL336
 13683 0c6a 0100     		.2byte	0x1
 13684 0c6c 50       		.byte	0x50
ARM GAS  C:\Users\Rajesh\AppData\Local\Temp\ccMJoliC.s 			page 282


 13685 0c6d 06010000 		.4byte	.LVL336
 13686 0c71 22010000 		.4byte	.LVL344
 13687 0c75 0100     		.2byte	0x1
 13688 0c77 54       		.byte	0x54
 13689 0c78 22010000 		.4byte	.LVL344
 13690 0c7c 24010000 		.4byte	.LVL345
 13691 0c80 0100     		.2byte	0x1
 13692 0c82 50       		.byte	0x50
 13693 0c83 24010000 		.4byte	.LVL345
 13694 0c87 26010000 		.4byte	.LVL346
 13695 0c8b 0100     		.2byte	0x1
 13696 0c8d 54       		.byte	0x54
 13697 0c8e 26010000 		.4byte	.LVL346
 13698 0c92 2A010000 		.4byte	.LVL348
 13699 0c96 0200     		.2byte	0x2
 13700 0c98 30       		.byte	0x30
 13701 0c99 9F       		.byte	0x9f
 13702 0c9a 2A010000 		.4byte	.LVL348
 13703 0c9e 30010000 		.4byte	.LVL350
 13704 0ca2 0100     		.2byte	0x1
 13705 0ca4 54       		.byte	0x54
 13706 0ca5 00000000 		.4byte	0
 13707 0ca9 00000000 		.4byte	0
 13708              	.LLST58:
 13709 0cad 14000000 		.4byte	.LVL294
 13710 0cb1 50000000 		.4byte	.LVL304
 13711 0cb5 0200     		.2byte	0x2
 13712 0cb7 30       		.byte	0x30
 13713 0cb8 9F       		.byte	0x9f
 13714 0cb9 50000000 		.4byte	.LVL304
 13715 0cbd 52000000 		.4byte	.LVL305
 13716 0cc1 0100     		.2byte	0x1
 13717 0cc3 50       		.byte	0x50
 13718 0cc4 52000000 		.4byte	.LVL305
 13719 0cc8 96000000 		.4byte	.LVL317
 13720 0ccc 0200     		.2byte	0x2
 13721 0cce 30       		.byte	0x30
 13722 0ccf 9F       		.byte	0x9f
 13723 0cd0 96000000 		.4byte	.LVL317
 13724 0cd4 98000000 		.4byte	.LVL318
 13725 0cd8 0100     		.2byte	0x1
 13726 0cda 50       		.byte	0x50
 13727 0cdb 98000000 		.4byte	.LVL318
 13728 0cdf 20010000 		.4byte	.LVL343
 13729 0ce3 0200     		.2byte	0x2
 13730 0ce5 30       		.byte	0x30
 13731 0ce6 9F       		.byte	0x9f
 13732 0ce7 20010000 		.4byte	.LVL343
 13733 0ceb 22010000 		.4byte	.LVL344
 13734 0cef 0100     		.2byte	0x1
 13735 0cf1 50       		.byte	0x50
 13736 0cf2 22010000 		.4byte	.LVL344
 13737 0cf6 2A010000 		.4byte	.LVL348
 13738 0cfa 0200     		.2byte	0x2
 13739 0cfc 30       		.byte	0x30
 13740 0cfd 9F       		.byte	0x9f
 13741 0cfe 2A010000 		.4byte	.LVL348
ARM GAS  C:\Users\Rajesh\AppData\Local\Temp\ccMJoliC.s 			page 283


 13742 0d02 2E010000 		.4byte	.LVL349
 13743 0d06 0100     		.2byte	0x1
 13744 0d08 50       		.byte	0x50
 13745 0d09 2E010000 		.4byte	.LVL349
 13746 0d0d 30010000 		.4byte	.LVL352
 13747 0d11 0200     		.2byte	0x2
 13748 0d13 76       		.byte	0x76
 13749 0d14 00       		.sleb128 0
 13750 0d15 30010000 		.4byte	.LVL352
 13751 0d19 36010000 		.4byte	.LFE14
 13752 0d1d 0300     		.2byte	0x3
 13753 0d1f F3       		.byte	0xf3
 13754 0d20 01       		.uleb128 0x1
 13755 0d21 52       		.byte	0x52
 13756 0d22 00000000 		.4byte	0
 13757 0d26 00000000 		.4byte	0
 13758              	.LLST59:
 13759 0d2a 44000000 		.4byte	.LVL303
 13760 0d2e 4F000000 		.4byte	.LVL304-1
 13761 0d32 0100     		.2byte	0x1
 13762 0d34 51       		.byte	0x51
 13763 0d35 00000000 		.4byte	0
 13764 0d39 00000000 		.4byte	0
 13765              	.LLST60:
 13766 0d3d 8A000000 		.4byte	.LVL316
 13767 0d41 95000000 		.4byte	.LVL317-1
 13768 0d45 0100     		.2byte	0x1
 13769 0d47 51       		.byte	0x51
 13770 0d48 A4000000 		.4byte	.LVL320
 13771 0d4c D0000000 		.4byte	.LVL328
 13772 0d50 0200     		.2byte	0x2
 13773 0d52 30       		.byte	0x30
 13774 0d53 9F       		.byte	0x9f
 13775 0d54 D0000000 		.4byte	.LVL328
 13776 0d58 D2000000 		.4byte	.LVL329
 13777 0d5c 0100     		.2byte	0x1
 13778 0d5e 57       		.byte	0x57
 13779 0d5f D2000000 		.4byte	.LVL329
 13780 0d63 DA000000 		.4byte	.LVL331
 13781 0d67 0200     		.2byte	0x2
 13782 0d69 30       		.byte	0x30
 13783 0d6a 9F       		.byte	0x9f
 13784 0d6b DA000000 		.4byte	.LVL331
 13785 0d6f 22010000 		.4byte	.LVL344
 13786 0d73 0100     		.2byte	0x1
 13787 0d75 57       		.byte	0x57
 13788 0d76 00000000 		.4byte	0
 13789 0d7a 00000000 		.4byte	0
 13790              	.LLST61:
 13791 0d7e 18000000 		.4byte	.LVL295
 13792 0d82 0C010000 		.4byte	.LVL338
 13793 0d86 0200     		.2byte	0x2
 13794 0d88 30       		.byte	0x30
 13795 0d89 9F       		.byte	0x9f
 13796 0d8a 0C010000 		.4byte	.LVL338
 13797 0d8e 0E010000 		.4byte	.LVL339
 13798 0d92 0100     		.2byte	0x1
ARM GAS  C:\Users\Rajesh\AppData\Local\Temp\ccMJoliC.s 			page 284


 13799 0d94 51       		.byte	0x51
 13800 0d95 0E010000 		.4byte	.LVL339
 13801 0d99 10010000 		.4byte	.LVL340
 13802 0d9d 0200     		.2byte	0x2
 13803 0d9f 30       		.byte	0x30
 13804 0da0 9F       		.byte	0x9f
 13805 0da1 10010000 		.4byte	.LVL340
 13806 0da5 12010000 		.4byte	.LVL341
 13807 0da9 0100     		.2byte	0x1
 13808 0dab 51       		.byte	0x51
 13809 0dac 14010000 		.4byte	.LVL342
 13810 0db0 1F010000 		.4byte	.LVL343-1
 13811 0db4 0100     		.2byte	0x1
 13812 0db6 51       		.byte	0x51
 13813 0db7 22010000 		.4byte	.LVL344
 13814 0dbb 2A010000 		.4byte	.LVL348
 13815 0dbf 0200     		.2byte	0x2
 13816 0dc1 30       		.byte	0x30
 13817 0dc2 9F       		.byte	0x9f
 13818 0dc3 00000000 		.4byte	0
 13819 0dc7 00000000 		.4byte	0
 13820              	.LLST62:
 13821 0dcb 00000000 		.4byte	.LVL353
 13822 0dcf 15000000 		.4byte	.LVL357-1
 13823 0dd3 0100     		.2byte	0x1
 13824 0dd5 50       		.byte	0x50
 13825 0dd6 15000000 		.4byte	.LVL357-1
 13826 0dda 52000000 		.4byte	.LVL368
 13827 0dde 0100     		.2byte	0x1
 13828 0de0 55       		.byte	0x55
 13829 0de1 52000000 		.4byte	.LVL368
 13830 0de5 61000000 		.4byte	.LVL371-1
 13831 0de9 0100     		.2byte	0x1
 13832 0deb 50       		.byte	0x50
 13833 0dec 61000000 		.4byte	.LVL371-1
 13834 0df0 98000000 		.4byte	.LVL379
 13835 0df4 0100     		.2byte	0x1
 13836 0df6 55       		.byte	0x55
 13837 0df7 98000000 		.4byte	.LVL379
 13838 0dfb A3000000 		.4byte	.LVL381-1
 13839 0dff 0100     		.2byte	0x1
 13840 0e01 50       		.byte	0x50
 13841 0e02 A3000000 		.4byte	.LVL381-1
 13842 0e06 1E010000 		.4byte	.LVL401
 13843 0e0a 0100     		.2byte	0x1
 13844 0e0c 55       		.byte	0x55
 13845 0e0d 1E010000 		.4byte	.LVL401
 13846 0e11 22010000 		.4byte	.LVL402
 13847 0e15 0100     		.2byte	0x1
 13848 0e17 50       		.byte	0x50
 13849 0e18 22010000 		.4byte	.LVL402
 13850 0e1c 26010000 		.4byte	.LVL404
 13851 0e20 0100     		.2byte	0x1
 13852 0e22 55       		.byte	0x55
 13853 0e23 26010000 		.4byte	.LVL404
 13854 0e27 28010000 		.4byte	.LFE15
 13855 0e2b 0400     		.2byte	0x4
ARM GAS  C:\Users\Rajesh\AppData\Local\Temp\ccMJoliC.s 			page 285


 13856 0e2d F3       		.byte	0xf3
 13857 0e2e 01       		.uleb128 0x1
 13858 0e2f 50       		.byte	0x50
 13859 0e30 9F       		.byte	0x9f
 13860 0e31 00000000 		.4byte	0
 13861 0e35 00000000 		.4byte	0
 13862              	.LLST63:
 13863 0e39 00000000 		.4byte	.LVL353
 13864 0e3d 12000000 		.4byte	.LVL356
 13865 0e41 0100     		.2byte	0x1
 13866 0e43 51       		.byte	0x51
 13867 0e44 12000000 		.4byte	.LVL356
 13868 0e48 52000000 		.4byte	.LVL368
 13869 0e4c 0400     		.2byte	0x4
 13870 0e4e F3       		.byte	0xf3
 13871 0e4f 01       		.uleb128 0x1
 13872 0e50 51       		.byte	0x51
 13873 0e51 9F       		.byte	0x9f
 13874 0e52 52000000 		.4byte	.LVL368
 13875 0e56 5E000000 		.4byte	.LVL370
 13876 0e5a 0100     		.2byte	0x1
 13877 0e5c 51       		.byte	0x51
 13878 0e5d 5E000000 		.4byte	.LVL370
 13879 0e61 98000000 		.4byte	.LVL379
 13880 0e65 0400     		.2byte	0x4
 13881 0e67 F3       		.byte	0xf3
 13882 0e68 01       		.uleb128 0x1
 13883 0e69 51       		.byte	0x51
 13884 0e6a 9F       		.byte	0x9f
 13885 0e6b 98000000 		.4byte	.LVL379
 13886 0e6f A0000000 		.4byte	.LVL380
 13887 0e73 0100     		.2byte	0x1
 13888 0e75 51       		.byte	0x51
 13889 0e76 A0000000 		.4byte	.LVL380
 13890 0e7a 1E010000 		.4byte	.LVL401
 13891 0e7e 0400     		.2byte	0x4
 13892 0e80 F3       		.byte	0xf3
 13893 0e81 01       		.uleb128 0x1
 13894 0e82 51       		.byte	0x51
 13895 0e83 9F       		.byte	0x9f
 13896 0e84 1E010000 		.4byte	.LVL401
 13897 0e88 22010000 		.4byte	.LVL402
 13898 0e8c 0100     		.2byte	0x1
 13899 0e8e 51       		.byte	0x51
 13900 0e8f 22010000 		.4byte	.LVL402
 13901 0e93 28010000 		.4byte	.LFE15
 13902 0e97 0400     		.2byte	0x4
 13903 0e99 F3       		.byte	0xf3
 13904 0e9a 01       		.uleb128 0x1
 13905 0e9b 51       		.byte	0x51
 13906 0e9c 9F       		.byte	0x9f
 13907 0e9d 00000000 		.4byte	0
 13908 0ea1 00000000 		.4byte	0
 13909              	.LLST64:
 13910 0ea5 00000000 		.4byte	.LVL353
 13911 0ea9 0E000000 		.4byte	.LVL355
 13912 0ead 0100     		.2byte	0x1
ARM GAS  C:\Users\Rajesh\AppData\Local\Temp\ccMJoliC.s 			page 286


 13913 0eaf 52       		.byte	0x52
 13914 0eb0 0E000000 		.4byte	.LVL355
 13915 0eb4 52000000 		.4byte	.LVL368
 13916 0eb8 0100     		.2byte	0x1
 13917 0eba 56       		.byte	0x56
 13918 0ebb 52000000 		.4byte	.LVL368
 13919 0ebf 5C000000 		.4byte	.LVL369
 13920 0ec3 0100     		.2byte	0x1
 13921 0ec5 52       		.byte	0x52
 13922 0ec6 5C000000 		.4byte	.LVL369
 13923 0eca 98000000 		.4byte	.LVL379
 13924 0ece 0100     		.2byte	0x1
 13925 0ed0 56       		.byte	0x56
 13926 0ed1 98000000 		.4byte	.LVL379
 13927 0ed5 A3000000 		.4byte	.LVL381-1
 13928 0ed9 0100     		.2byte	0x1
 13929 0edb 52       		.byte	0x52
 13930 0edc A3000000 		.4byte	.LVL381-1
 13931 0ee0 1E010000 		.4byte	.LVL401
 13932 0ee4 0100     		.2byte	0x1
 13933 0ee6 56       		.byte	0x56
 13934 0ee7 1E010000 		.4byte	.LVL401
 13935 0eeb 22010000 		.4byte	.LVL402
 13936 0eef 0100     		.2byte	0x1
 13937 0ef1 52       		.byte	0x52
 13938 0ef2 22010000 		.4byte	.LVL402
 13939 0ef6 26010000 		.4byte	.LVL405
 13940 0efa 0100     		.2byte	0x1
 13941 0efc 56       		.byte	0x56
 13942 0efd 26010000 		.4byte	.LVL405
 13943 0f01 28010000 		.4byte	.LFE15
 13944 0f05 0400     		.2byte	0x4
 13945 0f07 F3       		.byte	0xf3
 13946 0f08 01       		.uleb128 0x1
 13947 0f09 52       		.byte	0x52
 13948 0f0a 9F       		.byte	0x9f
 13949 0f0b 00000000 		.4byte	0
 13950 0f0f 00000000 		.4byte	0
 13951              	.LLST65:
 13952 0f13 08000000 		.4byte	.LVL354
 13953 0f17 18000000 		.4byte	.LVL358
 13954 0f1b 0200     		.2byte	0x2
 13955 0f1d 30       		.byte	0x30
 13956 0f1e 9F       		.byte	0x9f
 13957 0f1f 18000000 		.4byte	.LVL358
 13958 0f23 24000000 		.4byte	.LVL359
 13959 0f27 0100     		.2byte	0x1
 13960 0f29 50       		.byte	0x50
 13961 0f2a 24000000 		.4byte	.LVL359
 13962 0f2e 50000000 		.4byte	.LVL367
 13963 0f32 0100     		.2byte	0x1
 13964 0f34 54       		.byte	0x54
 13965 0f35 50000000 		.4byte	.LVL367
 13966 0f39 52000000 		.4byte	.LVL368
 13967 0f3d 0100     		.2byte	0x1
 13968 0f3f 50       		.byte	0x50
 13969 0f40 52000000 		.4byte	.LVL368
ARM GAS  C:\Users\Rajesh\AppData\Local\Temp\ccMJoliC.s 			page 287


 13970 0f44 64000000 		.4byte	.LVL372
 13971 0f48 0200     		.2byte	0x2
 13972 0f4a 30       		.byte	0x30
 13973 0f4b 9F       		.byte	0x9f
 13974 0f4c 64000000 		.4byte	.LVL372
 13975 0f50 6A000000 		.4byte	.LVL373
 13976 0f54 0100     		.2byte	0x1
 13977 0f56 50       		.byte	0x50
 13978 0f57 6A000000 		.4byte	.LVL373
 13979 0f5b 98000000 		.4byte	.LVL379
 13980 0f5f 0100     		.2byte	0x1
 13981 0f61 54       		.byte	0x54
 13982 0f62 98000000 		.4byte	.LVL379
 13983 0f66 B8000000 		.4byte	.LVL383
 13984 0f6a 0200     		.2byte	0x2
 13985 0f6c 30       		.byte	0x30
 13986 0f6d 9F       		.byte	0x9f
 13987 0f6e B8000000 		.4byte	.LVL383
 13988 0f72 C2000000 		.4byte	.LVL384
 13989 0f76 0100     		.2byte	0x1
 13990 0f78 50       		.byte	0x50
 13991 0f79 C2000000 		.4byte	.LVL384
 13992 0f7d C8000000 		.4byte	.LVL386
 13993 0f81 0100     		.2byte	0x1
 13994 0f83 54       		.byte	0x54
 13995 0f84 C8000000 		.4byte	.LVL386
 13996 0f88 CA000000 		.4byte	.LVL387
 13997 0f8c 0100     		.2byte	0x1
 13998 0f8e 50       		.byte	0x50
 13999 0f8f CA000000 		.4byte	.LVL387
 14000 0f93 D2000000 		.4byte	.LVL390
 14001 0f97 0100     		.2byte	0x1
 14002 0f99 54       		.byte	0x54
 14003 0f9a D2000000 		.4byte	.LVL390
 14004 0f9e D8000000 		.4byte	.LVL391
 14005 0fa2 0200     		.2byte	0x2
 14006 0fa4 30       		.byte	0x30
 14007 0fa5 9F       		.byte	0x9f
 14008 0fa6 D8000000 		.4byte	.LVL391
 14009 0faa DA000000 		.4byte	.LVL392
 14010 0fae 0100     		.2byte	0x1
 14011 0fb0 50       		.byte	0x50
 14012 0fb1 DA000000 		.4byte	.LVL392
 14013 0fb5 1E010000 		.4byte	.LVL401
 14014 0fb9 0100     		.2byte	0x1
 14015 0fbb 54       		.byte	0x54
 14016 0fbc 1E010000 		.4byte	.LVL401
 14017 0fc0 22010000 		.4byte	.LVL402
 14018 0fc4 0200     		.2byte	0x2
 14019 0fc6 30       		.byte	0x30
 14020 0fc7 9F       		.byte	0x9f
 14021 0fc8 22010000 		.4byte	.LVL402
 14022 0fcc 26010000 		.4byte	.LVL403
 14023 0fd0 0100     		.2byte	0x1
 14024 0fd2 54       		.byte	0x54
 14025 0fd3 00000000 		.4byte	0
 14026 0fd7 00000000 		.4byte	0
ARM GAS  C:\Users\Rajesh\AppData\Local\Temp\ccMJoliC.s 			page 288


 14027              	.LLST66:
 14028 0fdb 38000000 		.4byte	.LVL362
 14029 0fdf 3A000000 		.4byte	.LVL363
 14030 0fe3 0100     		.2byte	0x1
 14031 0fe5 57       		.byte	0x57
 14032 0fe6 3C000000 		.4byte	.LVL364
 14033 0fea 52000000 		.4byte	.LVL368
 14034 0fee 0100     		.2byte	0x1
 14035 0ff0 57       		.byte	0x57
 14036 0ff1 00000000 		.4byte	0
 14037 0ff5 00000000 		.4byte	0
 14038              	.LLST67:
 14039 0ff9 6E000000 		.4byte	.LVL374
 14040 0ffd 70000000 		.4byte	.LVL375
 14041 1001 0100     		.2byte	0x1
 14042 1003 50       		.byte	0x50
 14043 1004 A4000000 		.4byte	.LVL381
 14044 1008 D0000000 		.4byte	.LVL389
 14045 100c 0200     		.2byte	0x2
 14046 100e 30       		.byte	0x30
 14047 100f 9F       		.byte	0x9f
 14048 1010 D0000000 		.4byte	.LVL389
 14049 1014 D2000000 		.4byte	.LVL390
 14050 1018 0100     		.2byte	0x1
 14051 101a 57       		.byte	0x57
 14052 101b D2000000 		.4byte	.LVL390
 14053 101f DA000000 		.4byte	.LVL392
 14054 1023 0200     		.2byte	0x2
 14055 1025 30       		.byte	0x30
 14056 1026 9F       		.byte	0x9f
 14057 1027 DA000000 		.4byte	.LVL392
 14058 102b 1E010000 		.4byte	.LVL401
 14059 102f 0100     		.2byte	0x1
 14060 1031 57       		.byte	0x57
 14061 1032 00000000 		.4byte	0
 14062 1036 00000000 		.4byte	0
 14063              	.LLST68:
 14064 103a 2A000000 		.4byte	.LVL361
 14065 103e 40000000 		.4byte	.LVL365
 14066 1042 0100     		.2byte	0x1
 14067 1044 52       		.byte	0x52
 14068 1045 00000000 		.4byte	0
 14069 1049 00000000 		.4byte	0
 14070              	.LLST69:
 14071 104d FE000000 		.4byte	.LVL395
 14072 1051 03010000 		.4byte	.LVL397-1
 14073 1055 0100     		.2byte	0x1
 14074 1057 50       		.byte	0x50
 14075 1058 00000000 		.4byte	0
 14076 105c 00000000 		.4byte	0
 14077              	.LLST70:
 14078 1060 04010000 		.4byte	.LVL397
 14079 1064 0E010000 		.4byte	.LVL398
 14080 1068 0100     		.2byte	0x1
 14081 106a 50       		.byte	0x50
 14082 106b 00000000 		.4byte	0
 14083 106f 00000000 		.4byte	0
ARM GAS  C:\Users\Rajesh\AppData\Local\Temp\ccMJoliC.s 			page 289


 14084              	.LLST71:
 14085 1073 00000000 		.4byte	.LVL406
 14086 1077 2E000000 		.4byte	.LVL409
 14087 107b 0100     		.2byte	0x1
 14088 107d 50       		.byte	0x50
 14089 107e 2E000000 		.4byte	.LVL409
 14090 1082 30000000 		.4byte	.LVL410
 14091 1086 0100     		.2byte	0x1
 14092 1088 54       		.byte	0x54
 14093 1089 30000000 		.4byte	.LVL410
 14094 108d 32000000 		.4byte	.LVL411
 14095 1091 0100     		.2byte	0x1
 14096 1093 50       		.byte	0x50
 14097 1094 32000000 		.4byte	.LVL411
 14098 1098 36000000 		.4byte	.LVL412
 14099 109c 0100     		.2byte	0x1
 14100 109e 54       		.byte	0x54
 14101 109f 36000000 		.4byte	.LVL412
 14102 10a3 38000000 		.4byte	.LVL413
 14103 10a7 0100     		.2byte	0x1
 14104 10a9 50       		.byte	0x50
 14105 10aa 38000000 		.4byte	.LVL413
 14106 10ae 3C000000 		.4byte	.LVL414
 14107 10b2 0100     		.2byte	0x1
 14108 10b4 54       		.byte	0x54
 14109 10b5 3C000000 		.4byte	.LVL414
 14110 10b9 3E000000 		.4byte	.LVL415
 14111 10bd 0100     		.2byte	0x1
 14112 10bf 50       		.byte	0x50
 14113 10c0 3E000000 		.4byte	.LVL415
 14114 10c4 42000000 		.4byte	.LVL416
 14115 10c8 0100     		.2byte	0x1
 14116 10ca 54       		.byte	0x54
 14117 10cb 42000000 		.4byte	.LVL416
 14118 10cf 44000000 		.4byte	.LVL417
 14119 10d3 0100     		.2byte	0x1
 14120 10d5 50       		.byte	0x50
 14121 10d6 44000000 		.4byte	.LVL417
 14122 10da 46000000 		.4byte	.LVL418
 14123 10de 0100     		.2byte	0x1
 14124 10e0 54       		.byte	0x54
 14125 10e1 46000000 		.4byte	.LVL418
 14126 10e5 48000000 		.4byte	.LVL419
 14127 10e9 0100     		.2byte	0x1
 14128 10eb 50       		.byte	0x50
 14129 10ec 48000000 		.4byte	.LVL419
 14130 10f0 4C000000 		.4byte	.LVL420
 14131 10f4 0100     		.2byte	0x1
 14132 10f6 54       		.byte	0x54
 14133 10f7 4C000000 		.4byte	.LVL420
 14134 10fb 4E000000 		.4byte	.LVL421
 14135 10ff 0100     		.2byte	0x1
 14136 1101 50       		.byte	0x50
 14137 1102 4E000000 		.4byte	.LVL421
 14138 1106 FE020000 		.4byte	.LVL531
 14139 110a 0100     		.2byte	0x1
 14140 110c 54       		.byte	0x54
ARM GAS  C:\Users\Rajesh\AppData\Local\Temp\ccMJoliC.s 			page 290


 14141 110d FE020000 		.4byte	.LVL531
 14142 1111 00030000 		.4byte	.LFE16
 14143 1115 0400     		.2byte	0x4
 14144 1117 F3       		.byte	0xf3
 14145 1118 01       		.uleb128 0x1
 14146 1119 50       		.byte	0x50
 14147 111a 9F       		.byte	0x9f
 14148 111b 00000000 		.4byte	0
 14149 111f 00000000 		.4byte	0
 14150              	.LLST72:
 14151 1123 00000000 		.4byte	.LVL406
 14152 1127 62000000 		.4byte	.LVL423
 14153 112b 0100     		.2byte	0x1
 14154 112d 51       		.byte	0x51
 14155 112e 62000000 		.4byte	.LVL423
 14156 1132 74000000 		.4byte	.LVL427
 14157 1136 0400     		.2byte	0x4
 14158 1138 F3       		.byte	0xf3
 14159 1139 01       		.uleb128 0x1
 14160 113a 51       		.byte	0x51
 14161 113b 9F       		.byte	0x9f
 14162 113c 74000000 		.4byte	.LVL427
 14163 1140 7C000000 		.4byte	.LVL428
 14164 1144 0100     		.2byte	0x1
 14165 1146 51       		.byte	0x51
 14166 1147 7C000000 		.4byte	.LVL428
 14167 114b 8E000000 		.4byte	.LVL432
 14168 114f 0400     		.2byte	0x4
 14169 1151 F3       		.byte	0xf3
 14170 1152 01       		.uleb128 0x1
 14171 1153 51       		.byte	0x51
 14172 1154 9F       		.byte	0x9f
 14173 1155 8E000000 		.4byte	.LVL432
 14174 1159 96000000 		.4byte	.LVL433
 14175 115d 0100     		.2byte	0x1
 14176 115f 51       		.byte	0x51
 14177 1160 96000000 		.4byte	.LVL433
 14178 1164 A8000000 		.4byte	.LVL437
 14179 1168 0400     		.2byte	0x4
 14180 116a F3       		.byte	0xf3
 14181 116b 01       		.uleb128 0x1
 14182 116c 51       		.byte	0x51
 14183 116d 9F       		.byte	0x9f
 14184 116e A8000000 		.4byte	.LVL437
 14185 1172 B2000000 		.4byte	.LVL438
 14186 1176 0100     		.2byte	0x1
 14187 1178 51       		.byte	0x51
 14188 1179 B2000000 		.4byte	.LVL438
 14189 117d C4000000 		.4byte	.LVL442
 14190 1181 0400     		.2byte	0x4
 14191 1183 F3       		.byte	0xf3
 14192 1184 01       		.uleb128 0x1
 14193 1185 51       		.byte	0x51
 14194 1186 9F       		.byte	0x9f
 14195 1187 C4000000 		.4byte	.LVL442
 14196 118b D2000000 		.4byte	.LVL443
 14197 118f 0100     		.2byte	0x1
ARM GAS  C:\Users\Rajesh\AppData\Local\Temp\ccMJoliC.s 			page 291


 14198 1191 51       		.byte	0x51
 14199 1192 D2000000 		.4byte	.LVL443
 14200 1196 2C010000 		.4byte	.LVL458
 14201 119a 0400     		.2byte	0x4
 14202 119c F3       		.byte	0xf3
 14203 119d 01       		.uleb128 0x1
 14204 119e 51       		.byte	0x51
 14205 119f 9F       		.byte	0x9f
 14206 11a0 2C010000 		.4byte	.LVL458
 14207 11a4 34010000 		.4byte	.LVL459
 14208 11a8 0100     		.2byte	0x1
 14209 11aa 51       		.byte	0x51
 14210 11ab 34010000 		.4byte	.LVL459
 14211 11af 8E010000 		.4byte	.LVL474
 14212 11b3 0400     		.2byte	0x4
 14213 11b5 F3       		.byte	0xf3
 14214 11b6 01       		.uleb128 0x1
 14215 11b7 51       		.byte	0x51
 14216 11b8 9F       		.byte	0x9f
 14217 11b9 8E010000 		.4byte	.LVL474
 14218 11bd 96010000 		.4byte	.LVL475
 14219 11c1 0100     		.2byte	0x1
 14220 11c3 51       		.byte	0x51
 14221 11c4 96010000 		.4byte	.LVL475
 14222 11c8 F0010000 		.4byte	.LVL490
 14223 11cc 0400     		.2byte	0x4
 14224 11ce F3       		.byte	0xf3
 14225 11cf 01       		.uleb128 0x1
 14226 11d0 51       		.byte	0x51
 14227 11d1 9F       		.byte	0x9f
 14228 11d2 F0010000 		.4byte	.LVL490
 14229 11d6 F8010000 		.4byte	.LVL491
 14230 11da 0100     		.2byte	0x1
 14231 11dc 51       		.byte	0x51
 14232 11dd F8010000 		.4byte	.LVL491
 14233 11e1 00030000 		.4byte	.LFE16
 14234 11e5 0400     		.2byte	0x4
 14235 11e7 F3       		.byte	0xf3
 14236 11e8 01       		.uleb128 0x1
 14237 11e9 51       		.byte	0x51
 14238 11ea 9F       		.byte	0x9f
 14239 11eb 00000000 		.4byte	0
 14240 11ef 00000000 		.4byte	0
 14241              	.LLST73:
 14242 11f3 00000000 		.4byte	.LVL406
 14243 11f7 0C000000 		.4byte	.LVL408
 14244 11fb 0100     		.2byte	0x1
 14245 11fd 52       		.byte	0x52
 14246 11fe 0C000000 		.4byte	.LVL408
 14247 1202 00030000 		.4byte	.LFE16
 14248 1206 0400     		.2byte	0x4
 14249 1208 F3       		.byte	0xf3
 14250 1209 01       		.uleb128 0x1
 14251 120a 52       		.byte	0x52
 14252 120b 9F       		.byte	0x9f
 14253 120c 00000000 		.4byte	0
 14254 1210 00000000 		.4byte	0
ARM GAS  C:\Users\Rajesh\AppData\Local\Temp\ccMJoliC.s 			page 292


 14255              	.LLST74:
 14256 1214 0A000000 		.4byte	.LVL407
 14257 1218 50000000 		.4byte	.LVL422
 14258 121c 0200     		.2byte	0x2
 14259 121e 30       		.byte	0x30
 14260 121f 9F       		.byte	0x9f
 14261 1220 50000000 		.4byte	.LVL422
 14262 1224 64000000 		.4byte	.LVL424
 14263 1228 0100     		.2byte	0x1
 14264 122a 50       		.byte	0x50
 14265 122b 72000000 		.4byte	.LVL426
 14266 122f 7E000000 		.4byte	.LVL429
 14267 1233 0100     		.2byte	0x1
 14268 1235 50       		.byte	0x50
 14269 1236 8C000000 		.4byte	.LVL431
 14270 123a 98000000 		.4byte	.LVL434
 14271 123e 0100     		.2byte	0x1
 14272 1240 50       		.byte	0x50
 14273 1241 A6000000 		.4byte	.LVL436
 14274 1245 B4000000 		.4byte	.LVL439
 14275 1249 0100     		.2byte	0x1
 14276 124b 50       		.byte	0x50
 14277 124c C2000000 		.4byte	.LVL441
 14278 1250 D4000000 		.4byte	.LVL444
 14279 1254 0100     		.2byte	0x1
 14280 1256 50       		.byte	0x50
 14281 1257 E4000000 		.4byte	.LVL447
 14282 125b 2A010000 		.4byte	.LVL457
 14283 125f 0100     		.2byte	0x1
 14284 1261 55       		.byte	0x55
 14285 1262 2A010000 		.4byte	.LVL457
 14286 1266 36010000 		.4byte	.LVL460
 14287 126a 0100     		.2byte	0x1
 14288 126c 50       		.byte	0x50
 14289 126d 46010000 		.4byte	.LVL463
 14290 1271 8C010000 		.4byte	.LVL473
 14291 1275 0100     		.2byte	0x1
 14292 1277 55       		.byte	0x55
 14293 1278 8C010000 		.4byte	.LVL473
 14294 127c 98010000 		.4byte	.LVL476
 14295 1280 0100     		.2byte	0x1
 14296 1282 50       		.byte	0x50
 14297 1283 A8010000 		.4byte	.LVL479
 14298 1287 EE010000 		.4byte	.LVL489
 14299 128b 0100     		.2byte	0x1
 14300 128d 55       		.byte	0x55
 14301 128e EE010000 		.4byte	.LVL489
 14302 1292 FA010000 		.4byte	.LVL492
 14303 1296 0100     		.2byte	0x1
 14304 1298 50       		.byte	0x50
 14305 1299 0A020000 		.4byte	.LVL495
 14306 129d 50020000 		.4byte	.LVL505
 14307 12a1 0100     		.2byte	0x1
 14308 12a3 55       		.byte	0x55
 14309 12a4 50020000 		.4byte	.LVL505
 14310 12a8 56020000 		.4byte	.LVL506
 14311 12ac 0100     		.2byte	0x1
ARM GAS  C:\Users\Rajesh\AppData\Local\Temp\ccMJoliC.s 			page 293


 14312 12ae 50       		.byte	0x50
 14313 12af 70020000 		.4byte	.LVL509
 14314 12b3 7A020000 		.4byte	.LVL510
 14315 12b7 0100     		.2byte	0x1
 14316 12b9 50       		.byte	0x50
 14317 12ba 7E020000 		.4byte	.LVL511
 14318 12be 88020000 		.4byte	.LVL512
 14319 12c2 0100     		.2byte	0x1
 14320 12c4 50       		.byte	0x50
 14321 12c5 8C020000 		.4byte	.LVL513
 14322 12c9 96020000 		.4byte	.LVL514
 14323 12cd 0100     		.2byte	0x1
 14324 12cf 50       		.byte	0x50
 14325 12d0 9A020000 		.4byte	.LVL515
 14326 12d4 A4020000 		.4byte	.LVL516
 14327 12d8 0100     		.2byte	0x1
 14328 12da 50       		.byte	0x50
 14329 12db A8020000 		.4byte	.LVL517
 14330 12df AE020000 		.4byte	.LVL518
 14331 12e3 0100     		.2byte	0x1
 14332 12e5 50       		.byte	0x50
 14333 12e6 B8020000 		.4byte	.LVL519
 14334 12ea C2020000 		.4byte	.LVL520
 14335 12ee 0100     		.2byte	0x1
 14336 12f0 50       		.byte	0x50
 14337 12f1 C6020000 		.4byte	.LVL521
 14338 12f5 D0020000 		.4byte	.LVL522
 14339 12f9 0100     		.2byte	0x1
 14340 12fb 50       		.byte	0x50
 14341 12fc D4020000 		.4byte	.LVL523
 14342 1300 DA020000 		.4byte	.LVL524
 14343 1304 0100     		.2byte	0x1
 14344 1306 50       		.byte	0x50
 14345 1307 DE020000 		.4byte	.LVL525
 14346 130b E6020000 		.4byte	.LVL527
 14347 130f 0100     		.2byte	0x1
 14348 1311 50       		.byte	0x50
 14349 1312 EA020000 		.4byte	.LVL528
 14350 1316 F8020000 		.4byte	.LVL529
 14351 131a 0100     		.2byte	0x1
 14352 131c 50       		.byte	0x50
 14353 131d 00000000 		.4byte	0
 14354 1321 00000000 		.4byte	0
 14355              	.LLST75:
 14356 1325 5C020000 		.4byte	.LVL508
 14357 1329 DE020000 		.4byte	.LVL525
 14358 132d 0100     		.2byte	0x1
 14359 132f 55       		.byte	0x55
 14360 1330 00000000 		.4byte	0
 14361 1334 00000000 		.4byte	0
 14362              	.LLST76:
 14363 1338 E2020000 		.4byte	.LVL526
 14364 133c E9020000 		.4byte	.LVL528-1
 14365 1340 0200     		.2byte	0x2
 14366 1342 74       		.byte	0x74
 14367 1343 14       		.sleb128 20
 14368 1344 00000000 		.4byte	0
ARM GAS  C:\Users\Rajesh\AppData\Local\Temp\ccMJoliC.s 			page 294


 14369 1348 00000000 		.4byte	0
 14370              	.LLST77:
 14371 134c 00000000 		.4byte	.LVL532
 14372 1350 19000000 		.4byte	.LVL536-1
 14373 1354 0100     		.2byte	0x1
 14374 1356 50       		.byte	0x50
 14375 1357 19000000 		.4byte	.LVL536-1
 14376 135b 1E000000 		.4byte	.LVL538
 14377 135f 0400     		.2byte	0x4
 14378 1361 F3       		.byte	0xf3
 14379 1362 01       		.uleb128 0x1
 14380 1363 50       		.byte	0x50
 14381 1364 9F       		.byte	0x9f
 14382 1365 1E000000 		.4byte	.LVL538
 14383 1369 27000000 		.4byte	.LVL541-1
 14384 136d 0100     		.2byte	0x1
 14385 136f 50       		.byte	0x50
 14386 1370 27000000 		.4byte	.LVL541-1
 14387 1374 2C000000 		.4byte	.LVL543
 14388 1378 0400     		.2byte	0x4
 14389 137a F3       		.byte	0xf3
 14390 137b 01       		.uleb128 0x1
 14391 137c 50       		.byte	0x50
 14392 137d 9F       		.byte	0x9f
 14393 137e 2C000000 		.4byte	.LVL543
 14394 1382 30000000 		.4byte	.LVL544
 14395 1386 0100     		.2byte	0x1
 14396 1388 50       		.byte	0x50
 14397 1389 30000000 		.4byte	.LVL544
 14398 138d 44000000 		.4byte	.LFE17
 14399 1391 0400     		.2byte	0x4
 14400 1393 F3       		.byte	0xf3
 14401 1394 01       		.uleb128 0x1
 14402 1395 50       		.byte	0x50
 14403 1396 9F       		.byte	0x9f
 14404 1397 00000000 		.4byte	0
 14405 139b 00000000 		.4byte	0
 14406              	.LLST78:
 14407 139f 00000000 		.4byte	.LVL532
 14408 13a3 16000000 		.4byte	.LVL535
 14409 13a7 0100     		.2byte	0x1
 14410 13a9 51       		.byte	0x51
 14411 13aa 16000000 		.4byte	.LVL535
 14412 13ae 1E000000 		.4byte	.LVL538
 14413 13b2 0400     		.2byte	0x4
 14414 13b4 F3       		.byte	0xf3
 14415 13b5 01       		.uleb128 0x1
 14416 13b6 51       		.byte	0x51
 14417 13b7 9F       		.byte	0x9f
 14418 13b8 1E000000 		.4byte	.LVL538
 14419 13bc 24000000 		.4byte	.LVL540
 14420 13c0 0100     		.2byte	0x1
 14421 13c2 51       		.byte	0x51
 14422 13c3 24000000 		.4byte	.LVL540
 14423 13c7 2C000000 		.4byte	.LVL543
 14424 13cb 0400     		.2byte	0x4
 14425 13cd F3       		.byte	0xf3
ARM GAS  C:\Users\Rajesh\AppData\Local\Temp\ccMJoliC.s 			page 295


 14426 13ce 01       		.uleb128 0x1
 14427 13cf 51       		.byte	0x51
 14428 13d0 9F       		.byte	0x9f
 14429 13d1 2C000000 		.4byte	.LVL543
 14430 13d5 30000000 		.4byte	.LVL544
 14431 13d9 0100     		.2byte	0x1
 14432 13db 51       		.byte	0x51
 14433 13dc 30000000 		.4byte	.LVL544
 14434 13e0 44000000 		.4byte	.LFE17
 14435 13e4 0400     		.2byte	0x4
 14436 13e6 F3       		.byte	0xf3
 14437 13e7 01       		.uleb128 0x1
 14438 13e8 51       		.byte	0x51
 14439 13e9 9F       		.byte	0x9f
 14440 13ea 00000000 		.4byte	0
 14441 13ee 00000000 		.4byte	0
 14442              	.LLST79:
 14443 13f2 00000000 		.4byte	.LVL532
 14444 13f6 14000000 		.4byte	.LVL534
 14445 13fa 0100     		.2byte	0x1
 14446 13fc 52       		.byte	0x52
 14447 13fd 14000000 		.4byte	.LVL534
 14448 1401 1E000000 		.4byte	.LVL538
 14449 1405 0100     		.2byte	0x1
 14450 1407 55       		.byte	0x55
 14451 1408 1E000000 		.4byte	.LVL538
 14452 140c 22000000 		.4byte	.LVL539
 14453 1410 0100     		.2byte	0x1
 14454 1412 52       		.byte	0x52
 14455 1413 22000000 		.4byte	.LVL539
 14456 1417 2C000000 		.4byte	.LVL543
 14457 141b 0100     		.2byte	0x1
 14458 141d 55       		.byte	0x55
 14459 141e 2C000000 		.4byte	.LVL543
 14460 1422 30000000 		.4byte	.LVL544
 14461 1426 0100     		.2byte	0x1
 14462 1428 52       		.byte	0x52
 14463 1429 30000000 		.4byte	.LVL544
 14464 142d 42000000 		.4byte	.LVL547
 14465 1431 0100     		.2byte	0x1
 14466 1433 55       		.byte	0x55
 14467 1434 42000000 		.4byte	.LVL547
 14468 1438 44000000 		.4byte	.LFE17
 14469 143c 0400     		.2byte	0x4
 14470 143e F3       		.byte	0xf3
 14471 143f 01       		.uleb128 0x1
 14472 1440 52       		.byte	0x52
 14473 1441 9F       		.byte	0x9f
 14474 1442 00000000 		.4byte	0
 14475 1446 00000000 		.4byte	0
 14476              	.LLST80:
 14477 144a 06000000 		.4byte	.LVL533
 14478 144e 1C000000 		.4byte	.LVL537
 14479 1452 0200     		.2byte	0x2
 14480 1454 30       		.byte	0x30
 14481 1455 9F       		.byte	0x9f
 14482 1456 1C000000 		.4byte	.LVL537
ARM GAS  C:\Users\Rajesh\AppData\Local\Temp\ccMJoliC.s 			page 296


 14483 145a 1E000000 		.4byte	.LVL538
 14484 145e 0100     		.2byte	0x1
 14485 1460 50       		.byte	0x50
 14486 1461 1E000000 		.4byte	.LVL538
 14487 1465 2A000000 		.4byte	.LVL542
 14488 1469 0200     		.2byte	0x2
 14489 146b 30       		.byte	0x30
 14490 146c 9F       		.byte	0x9f
 14491 146d 2A000000 		.4byte	.LVL542
 14492 1471 2C000000 		.4byte	.LVL543
 14493 1475 0100     		.2byte	0x1
 14494 1477 50       		.byte	0x50
 14495 1478 2C000000 		.4byte	.LVL543
 14496 147c 30000000 		.4byte	.LVL544
 14497 1480 0200     		.2byte	0x2
 14498 1482 30       		.byte	0x30
 14499 1483 9F       		.byte	0x9f
 14500 1484 30000000 		.4byte	.LVL544
 14501 1488 42000000 		.4byte	.LVL546
 14502 148c 0100     		.2byte	0x1
 14503 148e 54       		.byte	0x54
 14504 148f 00000000 		.4byte	0
 14505 1493 00000000 		.4byte	0
 14506              	.LLST81:
 14507 1497 00000000 		.4byte	.LVL548
 14508 149b 21000000 		.4byte	.LVL554-1
 14509 149f 0100     		.2byte	0x1
 14510 14a1 50       		.byte	0x50
 14511 14a2 21000000 		.4byte	.LVL554-1
 14512 14a6 F2000000 		.4byte	.LVL579
 14513 14aa 0100     		.2byte	0x1
 14514 14ac 55       		.byte	0x55
 14515 14ad F2000000 		.4byte	.LVL579
 14516 14b1 F4000000 		.4byte	.LVL580
 14517 14b5 0100     		.2byte	0x1
 14518 14b7 50       		.byte	0x50
 14519 14b8 F4000000 		.4byte	.LVL580
 14520 14bc FA000000 		.4byte	.LVL583
 14521 14c0 0100     		.2byte	0x1
 14522 14c2 55       		.byte	0x55
 14523 14c3 FA000000 		.4byte	.LVL583
 14524 14c7 10010000 		.4byte	.LFE18
 14525 14cb 0400     		.2byte	0x4
 14526 14cd F3       		.byte	0xf3
 14527 14ce 01       		.uleb128 0x1
 14528 14cf 50       		.byte	0x50
 14529 14d0 9F       		.byte	0x9f
 14530 14d1 00000000 		.4byte	0
 14531 14d5 00000000 		.4byte	0
 14532              	.LLST82:
 14533 14d9 00000000 		.4byte	.LVL548
 14534 14dd 1E000000 		.4byte	.LVL553
 14535 14e1 0100     		.2byte	0x1
 14536 14e3 51       		.byte	0x51
 14537 14e4 1E000000 		.4byte	.LVL553
 14538 14e8 F2000000 		.4byte	.LVL579
 14539 14ec 0100     		.2byte	0x1
ARM GAS  C:\Users\Rajesh\AppData\Local\Temp\ccMJoliC.s 			page 297


 14540 14ee 54       		.byte	0x54
 14541 14ef F2000000 		.4byte	.LVL579
 14542 14f3 F8000000 		.4byte	.LVL581
 14543 14f7 0100     		.2byte	0x1
 14544 14f9 51       		.byte	0x51
 14545 14fa F8000000 		.4byte	.LVL581
 14546 14fe FA000000 		.4byte	.LVL582
 14547 1502 0100     		.2byte	0x1
 14548 1504 54       		.byte	0x54
 14549 1505 FA000000 		.4byte	.LVL582
 14550 1509 10010000 		.4byte	.LFE18
 14551 150d 0400     		.2byte	0x4
 14552 150f F3       		.byte	0xf3
 14553 1510 01       		.uleb128 0x1
 14554 1511 51       		.byte	0x51
 14555 1512 9F       		.byte	0x9f
 14556 1513 00000000 		.4byte	0
 14557 1517 00000000 		.4byte	0
 14558              	.LLST83:
 14559 151b 08000000 		.4byte	.LVL549
 14560 151f 22000000 		.4byte	.LVL554
 14561 1523 0200     		.2byte	0x2
 14562 1525 30       		.byte	0x30
 14563 1526 9F       		.byte	0x9f
 14564 1527 22000000 		.4byte	.LVL554
 14565 152b 44000000 		.4byte	.LVL555
 14566 152f 0100     		.2byte	0x1
 14567 1531 50       		.byte	0x50
 14568 1532 48000000 		.4byte	.LVL556
 14569 1536 66000000 		.4byte	.LVL559
 14570 153a 0100     		.2byte	0x1
 14571 153c 50       		.byte	0x50
 14572 153d 68000000 		.4byte	.LVL560
 14573 1541 A2000000 		.4byte	.LVL566
 14574 1545 0100     		.2byte	0x1
 14575 1547 50       		.byte	0x50
 14576 1548 A6000000 		.4byte	.LVL567
 14577 154c A8000000 		.4byte	.LVL568
 14578 1550 0100     		.2byte	0x1
 14579 1552 50       		.byte	0x50
 14580 1553 AA000000 		.4byte	.LVL569
 14581 1557 BC000000 		.4byte	.LVL570
 14582 155b 0100     		.2byte	0x1
 14583 155d 50       		.byte	0x50
 14584 155e C0000000 		.4byte	.LVL571
 14585 1562 D4000000 		.4byte	.LVL574
 14586 1566 0100     		.2byte	0x1
 14587 1568 50       		.byte	0x50
 14588 1569 D6000000 		.4byte	.LVL575
 14589 156d EA000000 		.4byte	.LVL577
 14590 1571 0100     		.2byte	0x1
 14591 1573 50       		.byte	0x50
 14592 1574 EE000000 		.4byte	.LVL578
 14593 1578 F2000000 		.4byte	.LVL579
 14594 157c 0100     		.2byte	0x1
 14595 157e 50       		.byte	0x50
 14596 157f F2000000 		.4byte	.LVL579
ARM GAS  C:\Users\Rajesh\AppData\Local\Temp\ccMJoliC.s 			page 298


 14597 1583 F8000000 		.4byte	.LVL581
 14598 1587 0200     		.2byte	0x2
 14599 1589 30       		.byte	0x30
 14600 158a 9F       		.byte	0x9f
 14601 158b 00000000 		.4byte	0
 14602 158f 00000000 		.4byte	0
 14603              	.LLST84:
 14604 1593 1C000000 		.4byte	.LVL552
 14605 1597 E6000000 		.4byte	.LVL576
 14606 159b 0100     		.2byte	0x1
 14607 159d 56       		.byte	0x56
 14608 159e E6000000 		.4byte	.LVL576
 14609 15a2 ED000000 		.4byte	.LVL578-1
 14610 15a6 0100     		.2byte	0x1
 14611 15a8 52       		.byte	0x52
 14612 15a9 ED000000 		.4byte	.LVL578-1
 14613 15ad F2000000 		.4byte	.LVL579
 14614 15b1 0400     		.2byte	0x4
 14615 15b3 76       		.byte	0x76
 14616 15b4 DA7B     		.sleb128 -550
 14617 15b6 9F       		.byte	0x9f
 14618 15b7 00000000 		.4byte	0
 14619 15bb 00000000 		.4byte	0
 14620              	.LLST85:
 14621 15bf 12000000 		.4byte	.LVL551
 14622 15c3 5C000000 		.4byte	.LVL557
 14623 15c7 0200     		.2byte	0x2
 14624 15c9 30       		.byte	0x30
 14625 15ca 9F       		.byte	0x9f
 14626 15cb 5C000000 		.4byte	.LVL557
 14627 15cf 68000000 		.4byte	.LVL560
 14628 15d3 0100     		.2byte	0x1
 14629 15d5 53       		.byte	0x53
 14630 15d6 7E000000 		.4byte	.LVL561
 14631 15da 86000000 		.4byte	.LVL563
 14632 15de 0100     		.2byte	0x1
 14633 15e0 53       		.byte	0x53
 14634 15e1 98000000 		.4byte	.LVL564
 14635 15e5 AA000000 		.4byte	.LVL569
 14636 15e9 0100     		.2byte	0x1
 14637 15eb 53       		.byte	0x53
 14638 15ec CA000000 		.4byte	.LVL572
 14639 15f0 D6000000 		.4byte	.LVL575
 14640 15f4 0100     		.2byte	0x1
 14641 15f6 53       		.byte	0x53
 14642 15f7 F2000000 		.4byte	.LVL579
 14643 15fb F8000000 		.4byte	.LVL581
 14644 15ff 0200     		.2byte	0x2
 14645 1601 30       		.byte	0x30
 14646 1602 9F       		.byte	0x9f
 14647 1603 00000000 		.4byte	0
 14648 1607 00000000 		.4byte	0
 14649              	.LLST86:
 14650 160b 00000000 		.4byte	.LVL584
 14651 160f 1B000000 		.4byte	.LVL588-1
 14652 1613 0100     		.2byte	0x1
 14653 1615 50       		.byte	0x50
ARM GAS  C:\Users\Rajesh\AppData\Local\Temp\ccMJoliC.s 			page 299


 14654 1616 1B000000 		.4byte	.LVL588-1
 14655 161a EC000000 		.4byte	.LVL600
 14656 161e 0100     		.2byte	0x1
 14657 1620 55       		.byte	0x55
 14658 1621 EC000000 		.4byte	.LVL600
 14659 1625 00010000 		.4byte	.LFE19
 14660 1629 0400     		.2byte	0x4
 14661 162b F3       		.byte	0xf3
 14662 162c 01       		.uleb128 0x1
 14663 162d 50       		.byte	0x50
 14664 162e 9F       		.byte	0x9f
 14665 162f 00000000 		.4byte	0
 14666 1633 00000000 		.4byte	0
 14667              	.LLST87:
 14668 1637 00000000 		.4byte	.LVL584
 14669 163b 18000000 		.4byte	.LVL587
 14670 163f 0100     		.2byte	0x1
 14671 1641 51       		.byte	0x51
 14672 1642 18000000 		.4byte	.LVL587
 14673 1646 EC000000 		.4byte	.LVL599
 14674 164a 0100     		.2byte	0x1
 14675 164c 54       		.byte	0x54
 14676 164d EC000000 		.4byte	.LVL599
 14677 1651 00010000 		.4byte	.LFE19
 14678 1655 0400     		.2byte	0x4
 14679 1657 F3       		.byte	0xf3
 14680 1658 01       		.uleb128 0x1
 14681 1659 51       		.byte	0x51
 14682 165a 9F       		.byte	0x9f
 14683 165b 00000000 		.4byte	0
 14684 165f 00000000 		.4byte	0
 14685              	.LLST88:
 14686 1663 08000000 		.4byte	.LVL585
 14687 1667 1C000000 		.4byte	.LVL588
 14688 166b 0200     		.2byte	0x2
 14689 166d 30       		.byte	0x30
 14690 166e 9F       		.byte	0x9f
 14691 166f 1C000000 		.4byte	.LVL588
 14692 1673 3E000000 		.4byte	.LVL589
 14693 1677 0100     		.2byte	0x1
 14694 1679 50       		.byte	0x50
 14695 167a 42000000 		.4byte	.LVL590
 14696 167e A6000000 		.4byte	.LVL592
 14697 1682 0100     		.2byte	0x1
 14698 1684 50       		.byte	0x50
 14699 1685 AA000000 		.4byte	.LVL593
 14700 1689 CE000000 		.4byte	.LVL595
 14701 168d 0100     		.2byte	0x1
 14702 168f 50       		.byte	0x50
 14703 1690 D2000000 		.4byte	.LVL596
 14704 1694 EA000000 		.4byte	.LVL598
 14705 1698 0100     		.2byte	0x1
 14706 169a 50       		.byte	0x50
 14707 169b 00000000 		.4byte	0
 14708 169f 00000000 		.4byte	0
 14709              	.LLST89:
 14710 16a3 00000000 		.4byte	.LVL601
ARM GAS  C:\Users\Rajesh\AppData\Local\Temp\ccMJoliC.s 			page 300


 14711 16a7 0C000000 		.4byte	.LVL603
 14712 16ab 0100     		.2byte	0x1
 14713 16ad 50       		.byte	0x50
 14714 16ae 0C000000 		.4byte	.LVL603
 14715 16b2 B8000000 		.4byte	.LVL649
 14716 16b6 0100     		.2byte	0x1
 14717 16b8 55       		.byte	0x55
 14718 16b9 B8000000 		.4byte	.LVL649
 14719 16bd BA000000 		.4byte	.LFE20
 14720 16c1 0400     		.2byte	0x4
 14721 16c3 F3       		.byte	0xf3
 14722 16c4 01       		.uleb128 0x1
 14723 16c5 50       		.byte	0x50
 14724 16c6 9F       		.byte	0x9f
 14725 16c7 00000000 		.4byte	0
 14726 16cb 00000000 		.4byte	0
 14727              	.LLST90:
 14728 16cf 00000000 		.4byte	.LVL601
 14729 16d3 0E000000 		.4byte	.LVL604
 14730 16d7 0100     		.2byte	0x1
 14731 16d9 51       		.byte	0x51
 14732 16da 0E000000 		.4byte	.LVL604
 14733 16de B8000000 		.4byte	.LVL650
 14734 16e2 0100     		.2byte	0x1
 14735 16e4 56       		.byte	0x56
 14736 16e5 B8000000 		.4byte	.LVL650
 14737 16e9 BA000000 		.4byte	.LFE20
 14738 16ed 0400     		.2byte	0x4
 14739 16ef F3       		.byte	0xf3
 14740 16f0 01       		.uleb128 0x1
 14741 16f1 51       		.byte	0x51
 14742 16f2 9F       		.byte	0x9f
 14743 16f3 00000000 		.4byte	0
 14744 16f7 00000000 		.4byte	0
 14745              	.LLST91:
 14746 16fb 08000000 		.4byte	.LVL602
 14747 16ff 0E000000 		.4byte	.LVL604
 14748 1703 0200     		.2byte	0x2
 14749 1705 30       		.byte	0x30
 14750 1706 9F       		.byte	0x9f
 14751 1707 0E000000 		.4byte	.LVL604
 14752 170b 86000000 		.4byte	.LVL638
 14753 170f 0100     		.2byte	0x1
 14754 1711 50       		.byte	0x50
 14755 1712 9C000000 		.4byte	.LVL642
 14756 1716 A2000000 		.4byte	.LVL644
 14757 171a 0100     		.2byte	0x1
 14758 171c 50       		.byte	0x50
 14759 171d A6000000 		.4byte	.LVL645
 14760 1721 AA000000 		.4byte	.LVL646
 14761 1725 0100     		.2byte	0x1
 14762 1727 50       		.byte	0x50
 14763 1728 AC000000 		.4byte	.LVL647
 14764 172c BA000000 		.4byte	.LFE20
 14765 1730 0100     		.2byte	0x1
 14766 1732 50       		.byte	0x50
 14767 1733 00000000 		.4byte	0
ARM GAS  C:\Users\Rajesh\AppData\Local\Temp\ccMJoliC.s 			page 301


 14768 1737 00000000 		.4byte	0
 14769              	.LLST92:
 14770 173b 82000000 		.4byte	.LVL637
 14771 173f 86000000 		.4byte	.LVL638
 14772 1743 0200     		.2byte	0x2
 14773 1745 30       		.byte	0x30
 14774 1746 9F       		.byte	0x9f
 14775 1747 86000000 		.4byte	.LVL638
 14776 174b 96000000 		.4byte	.LVL641
 14777 174f 0100     		.2byte	0x1
 14778 1751 52       		.byte	0x52
 14779 1752 00000000 		.4byte	0
 14780 1756 00000000 		.4byte	0
 14781              	.LLST93:
 14782 175a 08000000 		.4byte	.LVL602
 14783 175e 0E000000 		.4byte	.LVL604
 14784 1762 0200     		.2byte	0x2
 14785 1764 30       		.byte	0x30
 14786 1765 9F       		.byte	0x9f
 14787 1766 0E000000 		.4byte	.LVL604
 14788 176a 10000000 		.4byte	.LVL605
 14789 176e 0100     		.2byte	0x1
 14790 1770 54       		.byte	0x54
 14791 1771 10000000 		.4byte	.LVL605
 14792 1775 2E000000 		.4byte	.LVL609
 14793 1779 0100     		.2byte	0x1
 14794 177b 52       		.byte	0x52
 14795 177c 2E000000 		.4byte	.LVL609
 14796 1780 34000000 		.4byte	.LVL611
 14797 1784 0100     		.2byte	0x1
 14798 1786 54       		.byte	0x54
 14799 1787 34000000 		.4byte	.LVL611
 14800 178b 3E000000 		.4byte	.LVL614
 14801 178f 0300     		.2byte	0x3
 14802 1791 74       		.byte	0x74
 14803 1792 7C       		.sleb128 -4
 14804 1793 9F       		.byte	0x9f
 14805 1794 3E000000 		.4byte	.LVL614
 14806 1798 42000000 		.4byte	.LVL616
 14807 179c 0100     		.2byte	0x1
 14808 179e 52       		.byte	0x52
 14809 179f 42000000 		.4byte	.LVL616
 14810 17a3 48000000 		.4byte	.LVL618
 14811 17a7 0100     		.2byte	0x1
 14812 17a9 54       		.byte	0x54
 14813 17aa 48000000 		.4byte	.LVL618
 14814 17ae 52000000 		.4byte	.LVL621
 14815 17b2 0300     		.2byte	0x3
 14816 17b4 74       		.byte	0x74
 14817 17b5 7C       		.sleb128 -4
 14818 17b6 9F       		.byte	0x9f
 14819 17b7 52000000 		.4byte	.LVL621
 14820 17bb 56000000 		.4byte	.LVL623
 14821 17bf 0100     		.2byte	0x1
 14822 17c1 52       		.byte	0x52
 14823 17c2 56000000 		.4byte	.LVL623
 14824 17c6 5C000000 		.4byte	.LVL625
ARM GAS  C:\Users\Rajesh\AppData\Local\Temp\ccMJoliC.s 			page 302


 14825 17ca 0100     		.2byte	0x1
 14826 17cc 54       		.byte	0x54
 14827 17cd 5C000000 		.4byte	.LVL625
 14828 17d1 66000000 		.4byte	.LVL628
 14829 17d5 0300     		.2byte	0x3
 14830 17d7 74       		.byte	0x74
 14831 17d8 7C       		.sleb128 -4
 14832 17d9 9F       		.byte	0x9f
 14833 17da 66000000 		.4byte	.LVL628
 14834 17de 6A000000 		.4byte	.LVL630
 14835 17e2 0100     		.2byte	0x1
 14836 17e4 52       		.byte	0x52
 14837 17e5 6A000000 		.4byte	.LVL630
 14838 17e9 70000000 		.4byte	.LVL632
 14839 17ed 0100     		.2byte	0x1
 14840 17ef 54       		.byte	0x54
 14841 17f0 70000000 		.4byte	.LVL632
 14842 17f4 7A000000 		.4byte	.LVL635
 14843 17f8 0300     		.2byte	0x3
 14844 17fa 74       		.byte	0x74
 14845 17fb 7C       		.sleb128 -4
 14846 17fc 9F       		.byte	0x9f
 14847 17fd 7A000000 		.4byte	.LVL635
 14848 1801 82000000 		.4byte	.LVL637
 14849 1805 0100     		.2byte	0x1
 14850 1807 52       		.byte	0x52
 14851 1808 82000000 		.4byte	.LVL637
 14852 180c 9E000000 		.4byte	.LVL643
 14853 1810 0100     		.2byte	0x1
 14854 1812 54       		.byte	0x54
 14855 1813 9E000000 		.4byte	.LVL643
 14856 1817 AC000000 		.4byte	.LVL647
 14857 181b 0100     		.2byte	0x1
 14858 181d 52       		.byte	0x52
 14859 181e AC000000 		.4byte	.LVL647
 14860 1822 B8000000 		.4byte	.LVL648
 14861 1826 0100     		.2byte	0x1
 14862 1828 54       		.byte	0x54
 14863 1829 00000000 		.4byte	0
 14864 182d 00000000 		.4byte	0
 14865              	.LLST94:
 14866 1831 2C000000 		.4byte	.LVL608
 14867 1835 30000000 		.4byte	.LVL610
 14868 1839 0100     		.2byte	0x1
 14869 183b 53       		.byte	0x53
 14870 183c 30000000 		.4byte	.LVL610
 14871 1840 34000000 		.4byte	.LVL611
 14872 1844 0700     		.2byte	0x7
 14873 1846 76       		.byte	0x76
 14874 1847 00       		.sleb128 0
 14875 1848 74       		.byte	0x74
 14876 1849 00       		.sleb128 0
 14877 184a 22       		.byte	0x22
 14878 184b 23       		.byte	0x23
 14879 184c 02       		.uleb128 0x2
 14880 184d 34000000 		.4byte	.LVL611
 14881 1851 3C000000 		.4byte	.LVL613
ARM GAS  C:\Users\Rajesh\AppData\Local\Temp\ccMJoliC.s 			page 303


 14882 1855 0700     		.2byte	0x7
 14883 1857 76       		.byte	0x76
 14884 1858 00       		.sleb128 0
 14885 1859 74       		.byte	0x74
 14886 185a 00       		.sleb128 0
 14887 185b 22       		.byte	0x22
 14888 185c 32       		.byte	0x32
 14889 185d 1C       		.byte	0x1c
 14890 185e 40000000 		.4byte	.LVL615
 14891 1862 44000000 		.4byte	.LVL617
 14892 1866 0100     		.2byte	0x1
 14893 1868 53       		.byte	0x53
 14894 1869 44000000 		.4byte	.LVL617
 14895 186d 48000000 		.4byte	.LVL618
 14896 1871 0700     		.2byte	0x7
 14897 1873 76       		.byte	0x76
 14898 1874 00       		.sleb128 0
 14899 1875 74       		.byte	0x74
 14900 1876 00       		.sleb128 0
 14901 1877 22       		.byte	0x22
 14902 1878 23       		.byte	0x23
 14903 1879 02       		.uleb128 0x2
 14904 187a 48000000 		.4byte	.LVL618
 14905 187e 50000000 		.4byte	.LVL620
 14906 1882 0700     		.2byte	0x7
 14907 1884 76       		.byte	0x76
 14908 1885 00       		.sleb128 0
 14909 1886 74       		.byte	0x74
 14910 1887 00       		.sleb128 0
 14911 1888 22       		.byte	0x22
 14912 1889 32       		.byte	0x32
 14913 188a 1C       		.byte	0x1c
 14914 188b 54000000 		.4byte	.LVL622
 14915 188f 58000000 		.4byte	.LVL624
 14916 1893 0100     		.2byte	0x1
 14917 1895 53       		.byte	0x53
 14918 1896 58000000 		.4byte	.LVL624
 14919 189a 5C000000 		.4byte	.LVL625
 14920 189e 0700     		.2byte	0x7
 14921 18a0 76       		.byte	0x76
 14922 18a1 00       		.sleb128 0
 14923 18a2 74       		.byte	0x74
 14924 18a3 00       		.sleb128 0
 14925 18a4 22       		.byte	0x22
 14926 18a5 23       		.byte	0x23
 14927 18a6 02       		.uleb128 0x2
 14928 18a7 5C000000 		.4byte	.LVL625
 14929 18ab 64000000 		.4byte	.LVL627
 14930 18af 0700     		.2byte	0x7
 14931 18b1 76       		.byte	0x76
 14932 18b2 00       		.sleb128 0
 14933 18b3 74       		.byte	0x74
 14934 18b4 00       		.sleb128 0
 14935 18b5 22       		.byte	0x22
 14936 18b6 32       		.byte	0x32
 14937 18b7 1C       		.byte	0x1c
 14938 18b8 68000000 		.4byte	.LVL629
ARM GAS  C:\Users\Rajesh\AppData\Local\Temp\ccMJoliC.s 			page 304


 14939 18bc 6C000000 		.4byte	.LVL631
 14940 18c0 0100     		.2byte	0x1
 14941 18c2 53       		.byte	0x53
 14942 18c3 6C000000 		.4byte	.LVL631
 14943 18c7 70000000 		.4byte	.LVL632
 14944 18cb 0700     		.2byte	0x7
 14945 18cd 76       		.byte	0x76
 14946 18ce 00       		.sleb128 0
 14947 18cf 74       		.byte	0x74
 14948 18d0 00       		.sleb128 0
 14949 18d1 22       		.byte	0x22
 14950 18d2 23       		.byte	0x23
 14951 18d3 02       		.uleb128 0x2
 14952 18d4 70000000 		.4byte	.LVL632
 14953 18d8 78000000 		.4byte	.LVL634
 14954 18dc 0700     		.2byte	0x7
 14955 18de 76       		.byte	0x76
 14956 18df 00       		.sleb128 0
 14957 18e0 74       		.byte	0x74
 14958 18e1 00       		.sleb128 0
 14959 18e2 22       		.byte	0x22
 14960 18e3 32       		.byte	0x32
 14961 18e4 1C       		.byte	0x1c
 14962 18e5 00000000 		.4byte	0
 14963 18e9 00000000 		.4byte	0
 14964              	.LLST95:
 14965 18ed 16000000 		.4byte	.LVL606
 14966 18f1 2C000000 		.4byte	.LVL608
 14967 18f5 0100     		.2byte	0x1
 14968 18f7 53       		.byte	0x53
 14969 18f8 2C000000 		.4byte	.LVL608
 14970 18fc 34000000 		.4byte	.LVL611
 14971 1900 0700     		.2byte	0x7
 14972 1902 76       		.byte	0x76
 14973 1903 00       		.sleb128 0
 14974 1904 74       		.byte	0x74
 14975 1905 00       		.sleb128 0
 14976 1906 22       		.byte	0x22
 14977 1907 23       		.byte	0x23
 14978 1908 01       		.uleb128 0x1
 14979 1909 34000000 		.4byte	.LVL611
 14980 190d 3C000000 		.4byte	.LVL613
 14981 1911 0700     		.2byte	0x7
 14982 1913 76       		.byte	0x76
 14983 1914 00       		.sleb128 0
 14984 1915 74       		.byte	0x74
 14985 1916 00       		.sleb128 0
 14986 1917 22       		.byte	0x22
 14987 1918 33       		.byte	0x33
 14988 1919 1C       		.byte	0x1c
 14989 191a 3E000000 		.4byte	.LVL614
 14990 191e 40000000 		.4byte	.LVL615
 14991 1922 0100     		.2byte	0x1
 14992 1924 53       		.byte	0x53
 14993 1925 40000000 		.4byte	.LVL615
 14994 1929 48000000 		.4byte	.LVL618
 14995 192d 0700     		.2byte	0x7
ARM GAS  C:\Users\Rajesh\AppData\Local\Temp\ccMJoliC.s 			page 305


 14996 192f 76       		.byte	0x76
 14997 1930 00       		.sleb128 0
 14998 1931 74       		.byte	0x74
 14999 1932 00       		.sleb128 0
 15000 1933 22       		.byte	0x22
 15001 1934 23       		.byte	0x23
 15002 1935 01       		.uleb128 0x1
 15003 1936 48000000 		.4byte	.LVL618
 15004 193a 50000000 		.4byte	.LVL620
 15005 193e 0700     		.2byte	0x7
 15006 1940 76       		.byte	0x76
 15007 1941 00       		.sleb128 0
 15008 1942 74       		.byte	0x74
 15009 1943 00       		.sleb128 0
 15010 1944 22       		.byte	0x22
 15011 1945 33       		.byte	0x33
 15012 1946 1C       		.byte	0x1c
 15013 1947 52000000 		.4byte	.LVL621
 15014 194b 54000000 		.4byte	.LVL622
 15015 194f 0100     		.2byte	0x1
 15016 1951 53       		.byte	0x53
 15017 1952 54000000 		.4byte	.LVL622
 15018 1956 5C000000 		.4byte	.LVL625
 15019 195a 0700     		.2byte	0x7
 15020 195c 76       		.byte	0x76
 15021 195d 00       		.sleb128 0
 15022 195e 74       		.byte	0x74
 15023 195f 00       		.sleb128 0
 15024 1960 22       		.byte	0x22
 15025 1961 23       		.byte	0x23
 15026 1962 01       		.uleb128 0x1
 15027 1963 5C000000 		.4byte	.LVL625
 15028 1967 64000000 		.4byte	.LVL627
 15029 196b 0700     		.2byte	0x7
 15030 196d 76       		.byte	0x76
 15031 196e 00       		.sleb128 0
 15032 196f 74       		.byte	0x74
 15033 1970 00       		.sleb128 0
 15034 1971 22       		.byte	0x22
 15035 1972 33       		.byte	0x33
 15036 1973 1C       		.byte	0x1c
 15037 1974 66000000 		.4byte	.LVL628
 15038 1978 68000000 		.4byte	.LVL629
 15039 197c 0100     		.2byte	0x1
 15040 197e 53       		.byte	0x53
 15041 197f 68000000 		.4byte	.LVL629
 15042 1983 70000000 		.4byte	.LVL632
 15043 1987 0700     		.2byte	0x7
 15044 1989 76       		.byte	0x76
 15045 198a 00       		.sleb128 0
 15046 198b 74       		.byte	0x74
 15047 198c 00       		.sleb128 0
 15048 198d 22       		.byte	0x22
 15049 198e 23       		.byte	0x23
 15050 198f 01       		.uleb128 0x1
 15051 1990 70000000 		.4byte	.LVL632
 15052 1994 78000000 		.4byte	.LVL634
ARM GAS  C:\Users\Rajesh\AppData\Local\Temp\ccMJoliC.s 			page 306


 15053 1998 0700     		.2byte	0x7
 15054 199a 76       		.byte	0x76
 15055 199b 00       		.sleb128 0
 15056 199c 74       		.byte	0x74
 15057 199d 00       		.sleb128 0
 15058 199e 22       		.byte	0x22
 15059 199f 33       		.byte	0x33
 15060 19a0 1C       		.byte	0x1c
 15061 19a1 9E000000 		.4byte	.LVL643
 15062 19a5 A6000000 		.4byte	.LVL645
 15063 19a9 0100     		.2byte	0x1
 15064 19ab 53       		.byte	0x53
 15065 19ac 00000000 		.4byte	0
 15066 19b0 00000000 		.4byte	0
 15067              	.LLST96:
 15068 19b4 0E000000 		.4byte	.LVL604
 15069 19b8 16000000 		.4byte	.LVL606
 15070 19bc 0100     		.2byte	0x1
 15071 19be 53       		.byte	0x53
 15072 19bf 7A000000 		.4byte	.LVL635
 15073 19c3 9B000000 		.4byte	.LVL642-1
 15074 19c7 0100     		.2byte	0x1
 15075 19c9 53       		.byte	0x53
 15076 19ca A6000000 		.4byte	.LVL645
 15077 19ce AC000000 		.4byte	.LVL647
 15078 19d2 0100     		.2byte	0x1
 15079 19d4 53       		.byte	0x53
 15080 19d5 00000000 		.4byte	0
 15081 19d9 00000000 		.4byte	0
 15082              	.LLST97:
 15083 19dd 80000000 		.4byte	.LVL636
 15084 19e1 9B000000 		.4byte	.LVL642-1
 15085 19e5 0100     		.2byte	0x1
 15086 19e7 51       		.byte	0x51
 15087 19e8 00000000 		.4byte	0
 15088 19ec 00000000 		.4byte	0
 15089              	.LLST98:
 15090 19f0 36000000 		.4byte	.LVL612
 15091 19f4 3E000000 		.4byte	.LVL614
 15092 19f8 0100     		.2byte	0x1
 15093 19fa 53       		.byte	0x53
 15094 19fb 4A000000 		.4byte	.LVL619
 15095 19ff 52000000 		.4byte	.LVL621
 15096 1a03 0100     		.2byte	0x1
 15097 1a05 53       		.byte	0x53
 15098 1a06 5E000000 		.4byte	.LVL626
 15099 1a0a 66000000 		.4byte	.LVL628
 15100 1a0e 0100     		.2byte	0x1
 15101 1a10 53       		.byte	0x53
 15102 1a11 72000000 		.4byte	.LVL633
 15103 1a15 7A000000 		.4byte	.LVL635
 15104 1a19 0100     		.2byte	0x1
 15105 1a1b 53       		.byte	0x53
 15106 1a1c 00000000 		.4byte	0
 15107 1a20 00000000 		.4byte	0
 15108              	.LLST99:
 15109 1a24 00000000 		.4byte	.LVL651
ARM GAS  C:\Users\Rajesh\AppData\Local\Temp\ccMJoliC.s 			page 307


 15110 1a28 15000000 		.4byte	.LVL654-1
 15111 1a2c 0100     		.2byte	0x1
 15112 1a2e 50       		.byte	0x50
 15113 1a2f 15000000 		.4byte	.LVL654-1
 15114 1a33 32000000 		.4byte	.LVL661
 15115 1a37 0100     		.2byte	0x1
 15116 1a39 55       		.byte	0x55
 15117 1a3a 32000000 		.4byte	.LVL661
 15118 1a3e 34000000 		.4byte	.LFE21
 15119 1a42 0400     		.2byte	0x4
 15120 1a44 F3       		.byte	0xf3
 15121 1a45 01       		.uleb128 0x1
 15122 1a46 50       		.byte	0x50
 15123 1a47 9F       		.byte	0x9f
 15124 1a48 00000000 		.4byte	0
 15125 1a4c 00000000 		.4byte	0
 15126              	.LLST100:
 15127 1a50 00000000 		.4byte	.LVL651
 15128 1a54 12000000 		.4byte	.LVL653
 15129 1a58 0100     		.2byte	0x1
 15130 1a5a 51       		.byte	0x51
 15131 1a5b 12000000 		.4byte	.LVL653
 15132 1a5f 32000000 		.4byte	.LVL662
 15133 1a63 0100     		.2byte	0x1
 15134 1a65 56       		.byte	0x56
 15135 1a66 32000000 		.4byte	.LVL662
 15136 1a6a 34000000 		.4byte	.LFE21
 15137 1a6e 0400     		.2byte	0x4
 15138 1a70 F3       		.byte	0xf3
 15139 1a71 01       		.uleb128 0x1
 15140 1a72 51       		.byte	0x51
 15141 1a73 9F       		.byte	0x9f
 15142 1a74 00000000 		.4byte	0
 15143 1a78 00000000 		.4byte	0
 15144              	.LLST101:
 15145 1a7c 00000000 		.4byte	.LVL651
 15146 1a80 15000000 		.4byte	.LVL654-1
 15147 1a84 0100     		.2byte	0x1
 15148 1a86 52       		.byte	0x52
 15149 1a87 15000000 		.4byte	.LVL654-1
 15150 1a8b 32000000 		.4byte	.LVL660
 15151 1a8f 0100     		.2byte	0x1
 15152 1a91 54       		.byte	0x54
 15153 1a92 32000000 		.4byte	.LVL660
 15154 1a96 34000000 		.4byte	.LFE21
 15155 1a9a 0400     		.2byte	0x4
 15156 1a9c F3       		.byte	0xf3
 15157 1a9d 01       		.uleb128 0x1
 15158 1a9e 52       		.byte	0x52
 15159 1a9f 9F       		.byte	0x9f
 15160 1aa0 00000000 		.4byte	0
 15161 1aa4 00000000 		.4byte	0
 15162              	.LLST102:
 15163 1aa8 0A000000 		.4byte	.LVL652
 15164 1aac 16000000 		.4byte	.LVL654
 15165 1ab0 0200     		.2byte	0x2
 15166 1ab2 30       		.byte	0x30
ARM GAS  C:\Users\Rajesh\AppData\Local\Temp\ccMJoliC.s 			page 308


 15167 1ab3 9F       		.byte	0x9f
 15168 1ab4 16000000 		.4byte	.LVL654
 15169 1ab8 34000000 		.4byte	.LFE21
 15170 1abc 0100     		.2byte	0x1
 15171 1abe 50       		.byte	0x50
 15172 1abf 00000000 		.4byte	0
 15173 1ac3 00000000 		.4byte	0
 15174              	.LLST103:
 15175 1ac7 2A000000 		.4byte	.LVL656
 15176 1acb 2C000000 		.4byte	.LVL657
 15177 1acf 0100     		.2byte	0x1
 15178 1ad1 53       		.byte	0x53
 15179 1ad2 2C000000 		.4byte	.LVL657
 15180 1ad6 2E000000 		.4byte	.LVL658
 15181 1ada 0400     		.2byte	0x4
 15182 1adc 73       		.byte	0x73
 15183 1add 807F     		.sleb128 -128
 15184 1adf 9F       		.byte	0x9f
 15185 1ae0 2E000000 		.4byte	.LVL658
 15186 1ae4 30000000 		.4byte	.LVL659
 15187 1ae8 0C00     		.2byte	0xc
 15188 1aea 76       		.byte	0x76
 15189 1aeb 14       		.sleb128 20
 15190 1aec 94       		.byte	0x94
 15191 1aed 02       		.byte	0x2
 15192 1aee 0A       		.byte	0xa
 15193 1aef FFFF     		.2byte	0xffff
 15194 1af1 1A       		.byte	0x1a
 15195 1af2 72       		.byte	0x72
 15196 1af3 00       		.sleb128 0
 15197 1af4 1E       		.byte	0x1e
 15198 1af5 9F       		.byte	0x9f
 15199 1af6 00000000 		.4byte	0
 15200 1afa 00000000 		.4byte	0
 15201              	.LLST104:
 15202 1afe 26000000 		.4byte	.LVL655
 15203 1b02 30000000 		.4byte	.LVL659
 15204 1b06 0100     		.2byte	0x1
 15205 1b08 52       		.byte	0x52
 15206 1b09 00000000 		.4byte	0
 15207 1b0d 00000000 		.4byte	0
 15208              	.LLST105:
 15209 1b11 00000000 		.4byte	.LVL663
 15210 1b15 0F000000 		.4byte	.LVL666-1
 15211 1b19 0100     		.2byte	0x1
 15212 1b1b 50       		.byte	0x50
 15213 1b1c 0F000000 		.4byte	.LVL666-1
 15214 1b20 22000000 		.4byte	.LFE22
 15215 1b24 0400     		.2byte	0x4
 15216 1b26 F3       		.byte	0xf3
 15217 1b27 01       		.uleb128 0x1
 15218 1b28 50       		.byte	0x50
 15219 1b29 9F       		.byte	0x9f
 15220 1b2a 00000000 		.4byte	0
 15221 1b2e 00000000 		.4byte	0
 15222              	.LLST106:
 15223 1b32 00000000 		.4byte	.LVL663
ARM GAS  C:\Users\Rajesh\AppData\Local\Temp\ccMJoliC.s 			page 309


 15224 1b36 0F000000 		.4byte	.LVL666-1
 15225 1b3a 0100     		.2byte	0x1
 15226 1b3c 51       		.byte	0x51
 15227 1b3d 0F000000 		.4byte	.LVL666-1
 15228 1b41 22000000 		.4byte	.LFE22
 15229 1b45 0400     		.2byte	0x4
 15230 1b47 F3       		.byte	0xf3
 15231 1b48 01       		.uleb128 0x1
 15232 1b49 51       		.byte	0x51
 15233 1b4a 9F       		.byte	0x9f
 15234 1b4b 00000000 		.4byte	0
 15235 1b4f 00000000 		.4byte	0
 15236              	.LLST107:
 15237 1b53 00000000 		.4byte	.LVL663
 15238 1b57 0C000000 		.4byte	.LVL665
 15239 1b5b 0100     		.2byte	0x1
 15240 1b5d 52       		.byte	0x52
 15241 1b5e 0C000000 		.4byte	.LVL665
 15242 1b62 20000000 		.4byte	.LVL667
 15243 1b66 0100     		.2byte	0x1
 15244 1b68 54       		.byte	0x54
 15245 1b69 20000000 		.4byte	.LVL667
 15246 1b6d 22000000 		.4byte	.LFE22
 15247 1b71 0400     		.2byte	0x4
 15248 1b73 F3       		.byte	0xf3
 15249 1b74 01       		.uleb128 0x1
 15250 1b75 52       		.byte	0x52
 15251 1b76 9F       		.byte	0x9f
 15252 1b77 00000000 		.4byte	0
 15253 1b7b 00000000 		.4byte	0
 15254              	.LLST108:
 15255 1b7f 06000000 		.4byte	.LVL664
 15256 1b83 10000000 		.4byte	.LVL666
 15257 1b87 0200     		.2byte	0x2
 15258 1b89 30       		.byte	0x30
 15259 1b8a 9F       		.byte	0x9f
 15260 1b8b 10000000 		.4byte	.LVL666
 15261 1b8f 22000000 		.4byte	.LFE22
 15262 1b93 0100     		.2byte	0x1
 15263 1b95 50       		.byte	0x50
 15264 1b96 00000000 		.4byte	0
 15265 1b9a 00000000 		.4byte	0
 15266              	.LLST109:
 15267 1b9e 00000000 		.4byte	.LVL668
 15268 1ba2 22000000 		.4byte	.LVL678
 15269 1ba6 0100     		.2byte	0x1
 15270 1ba8 50       		.byte	0x50
 15271 1ba9 22000000 		.4byte	.LVL678
 15272 1bad 3A000000 		.4byte	.LVL686
 15273 1bb1 0400     		.2byte	0x4
 15274 1bb3 F3       		.byte	0xf3
 15275 1bb4 01       		.uleb128 0x1
 15276 1bb5 50       		.byte	0x50
 15277 1bb6 9F       		.byte	0x9f
 15278 1bb7 3A000000 		.4byte	.LVL686
 15279 1bbb 3C000000 		.4byte	.LVL687
 15280 1bbf 0100     		.2byte	0x1
ARM GAS  C:\Users\Rajesh\AppData\Local\Temp\ccMJoliC.s 			page 310


 15281 1bc1 50       		.byte	0x50
 15282 1bc2 3C000000 		.4byte	.LVL687
 15283 1bc6 00010000 		.4byte	.LFE23
 15284 1bca 0400     		.2byte	0x4
 15285 1bcc F3       		.byte	0xf3
 15286 1bcd 01       		.uleb128 0x1
 15287 1bce 50       		.byte	0x50
 15288 1bcf 9F       		.byte	0x9f
 15289 1bd0 00000000 		.4byte	0
 15290 1bd4 00000000 		.4byte	0
 15291              	.LLST110:
 15292 1bd8 00000000 		.4byte	.LVL668
 15293 1bdc 20000000 		.4byte	.LVL677
 15294 1be0 0100     		.2byte	0x1
 15295 1be2 51       		.byte	0x51
 15296 1be3 20000000 		.4byte	.LVL677
 15297 1be7 3A000000 		.4byte	.LVL686
 15298 1beb 0400     		.2byte	0x4
 15299 1bed F3       		.byte	0xf3
 15300 1bee 01       		.uleb128 0x1
 15301 1bef 51       		.byte	0x51
 15302 1bf0 9F       		.byte	0x9f
 15303 1bf1 3A000000 		.4byte	.LVL686
 15304 1bf5 3C000000 		.4byte	.LVL687
 15305 1bf9 0100     		.2byte	0x1
 15306 1bfb 51       		.byte	0x51
 15307 1bfc 3C000000 		.4byte	.LVL687
 15308 1c00 00010000 		.4byte	.LFE23
 15309 1c04 0400     		.2byte	0x4
 15310 1c06 F3       		.byte	0xf3
 15311 1c07 01       		.uleb128 0x1
 15312 1c08 51       		.byte	0x51
 15313 1c09 9F       		.byte	0x9f
 15314 1c0a 00000000 		.4byte	0
 15315 1c0e 00000000 		.4byte	0
 15316              	.LLST111:
 15317 1c12 00000000 		.4byte	.LVL668
 15318 1c16 29000000 		.4byte	.LVL681-1
 15319 1c1a 0100     		.2byte	0x1
 15320 1c1c 52       		.byte	0x52
 15321 1c1d 29000000 		.4byte	.LVL681-1
 15322 1c21 3A000000 		.4byte	.LVL686
 15323 1c25 0400     		.2byte	0x4
 15324 1c27 F3       		.byte	0xf3
 15325 1c28 01       		.uleb128 0x1
 15326 1c29 52       		.byte	0x52
 15327 1c2a 9F       		.byte	0x9f
 15328 1c2b 3A000000 		.4byte	.LVL686
 15329 1c2f 3C000000 		.4byte	.LVL687
 15330 1c33 0100     		.2byte	0x1
 15331 1c35 52       		.byte	0x52
 15332 1c36 3C000000 		.4byte	.LVL687
 15333 1c3a 00010000 		.4byte	.LFE23
 15334 1c3e 0400     		.2byte	0x4
 15335 1c40 F3       		.byte	0xf3
 15336 1c41 01       		.uleb128 0x1
 15337 1c42 52       		.byte	0x52
ARM GAS  C:\Users\Rajesh\AppData\Local\Temp\ccMJoliC.s 			page 311


 15338 1c43 9F       		.byte	0x9f
 15339 1c44 00000000 		.4byte	0
 15340 1c48 00000000 		.4byte	0
 15341              	.LLST112:
 15342 1c4c 00000000 		.4byte	.LVL668
 15343 1c50 0A000000 		.4byte	.LVL670
 15344 1c54 0100     		.2byte	0x1
 15345 1c56 53       		.byte	0x53
 15346 1c57 0A000000 		.4byte	.LVL670
 15347 1c5b 4E000000 		.4byte	.LVL692
 15348 1c5f 0100     		.2byte	0x1
 15349 1c61 54       		.byte	0x54
 15350 1c62 4E000000 		.4byte	.LVL692
 15351 1c66 00010000 		.4byte	.LFE23
 15352 1c6a 0400     		.2byte	0x4
 15353 1c6c F3       		.byte	0xf3
 15354 1c6d 01       		.uleb128 0x1
 15355 1c6e 53       		.byte	0x53
 15356 1c6f 9F       		.byte	0x9f
 15357 1c70 00000000 		.4byte	0
 15358 1c74 00000000 		.4byte	0
 15359              	.LLST113:
 15360 1c78 00000000 		.4byte	.LVL668
 15361 1c7c 70000000 		.4byte	.LVL699
 15362 1c80 0200     		.2byte	0x2
 15363 1c82 91       		.byte	0x91
 15364 1c83 04       		.sleb128 4
 15365 1c84 70000000 		.4byte	.LVL699
 15366 1c88 74000000 		.4byte	.LVL700
 15367 1c8c 0100     		.2byte	0x1
 15368 1c8e 50       		.byte	0x50
 15369 1c8f 74000000 		.4byte	.LVL700
 15370 1c93 7C000000 		.4byte	.LVL701
 15371 1c97 0100     		.2byte	0x1
 15372 1c99 53       		.byte	0x53
 15373 1c9a 7C000000 		.4byte	.LVL701
 15374 1c9e 7E000000 		.4byte	.LVL702
 15375 1ca2 0500     		.2byte	0x5
 15376 1ca4 73       		.byte	0x73
 15377 1ca5 80807E   		.sleb128 -32768
 15378 1ca8 9F       		.byte	0x9f
 15379 1ca9 7E000000 		.4byte	.LVL702
 15380 1cad 82000000 		.4byte	.LVL704
 15381 1cb1 0800     		.2byte	0x8
 15382 1cb3 70       		.byte	0x70
 15383 1cb4 00       		.sleb128 0
 15384 1cb5 33       		.byte	0x33
 15385 1cb6 24       		.byte	0x24
 15386 1cb7 70       		.byte	0x70
 15387 1cb8 00       		.sleb128 0
 15388 1cb9 1C       		.byte	0x1c
 15389 1cba 9F       		.byte	0x9f
 15390 1cbb 82000000 		.4byte	.LVL704
 15391 1cbf 84000000 		.4byte	.LVL705
 15392 1cc3 0200     		.2byte	0x2
 15393 1cc5 91       		.byte	0x91
 15394 1cc6 04       		.sleb128 4
ARM GAS  C:\Users\Rajesh\AppData\Local\Temp\ccMJoliC.s 			page 312


 15395 1cc7 00000000 		.4byte	0
 15396 1ccb 00000000 		.4byte	0
 15397              	.LLST114:
 15398 1ccf 0E000000 		.4byte	.LVL671
 15399 1cd3 2C000000 		.4byte	.LVL682
 15400 1cd7 0100     		.2byte	0x1
 15401 1cd9 57       		.byte	0x57
 15402 1cda 3A000000 		.4byte	.LVL686
 15403 1cde 3C000000 		.4byte	.LVL687
 15404 1ce2 0100     		.2byte	0x1
 15405 1ce4 57       		.byte	0x57
 15406 1ce5 00000000 		.4byte	0
 15407 1ce9 00000000 		.4byte	0
 15408              	.LLST115:
 15409 1ced 12000000 		.4byte	.LVL672
 15410 1cf1 14000000 		.4byte	.LVL673
 15411 1cf5 0100     		.2byte	0x1
 15412 1cf7 53       		.byte	0x53
 15413 1cf8 14000000 		.4byte	.LVL673
 15414 1cfc 22000000 		.4byte	.LVL678
 15415 1d00 0300     		.2byte	0x3
 15416 1d02 70       		.byte	0x70
 15417 1d03 D802     		.sleb128 344
 15418 1d05 22000000 		.4byte	.LVL678
 15419 1d09 29000000 		.4byte	.LVL681-1
 15420 1d0d 0600     		.2byte	0x6
 15421 1d0f F3       		.byte	0xf3
 15422 1d10 01       		.uleb128 0x1
 15423 1d11 50       		.byte	0x50
 15424 1d12 23       		.byte	0x23
 15425 1d13 D802     		.uleb128 0x158
 15426 1d15 3A000000 		.4byte	.LVL686
 15427 1d19 3C000000 		.4byte	.LVL687
 15428 1d1d 0300     		.2byte	0x3
 15429 1d1f 70       		.byte	0x70
 15430 1d20 D802     		.sleb128 344
 15431 1d22 00000000 		.4byte	0
 15432 1d26 00000000 		.4byte	0
 15433              	.LLST116:
 15434 1d2a 86000000 		.4byte	.LVL706
 15435 1d2e 8C000000 		.4byte	.LVL707
 15436 1d32 0100     		.2byte	0x1
 15437 1d34 53       		.byte	0x53
 15438 1d35 8C000000 		.4byte	.LVL707
 15439 1d39 91000000 		.4byte	.LVL708-1
 15440 1d3d 0100     		.2byte	0x1
 15441 1d3f 50       		.byte	0x50
 15442 1d40 92000000 		.4byte	.LVL708
 15443 1d44 9B000000 		.4byte	.LVL711-1
 15444 1d48 0100     		.2byte	0x1
 15445 1d4a 50       		.byte	0x50
 15446 1d4b 9C000000 		.4byte	.LVL711
 15447 1d4f 9E000000 		.4byte	.LVL712
 15448 1d53 0100     		.2byte	0x1
 15449 1d55 50       		.byte	0x50
 15450 1d56 9E000000 		.4byte	.LVL712
 15451 1d5a AC000000 		.4byte	.LVL713
ARM GAS  C:\Users\Rajesh\AppData\Local\Temp\ccMJoliC.s 			page 313


 15452 1d5e 0100     		.2byte	0x1
 15453 1d60 57       		.byte	0x57
 15454 1d61 AC000000 		.4byte	.LVL713
 15455 1d65 B0000000 		.4byte	.LVL715
 15456 1d69 0100     		.2byte	0x1
 15457 1d6b 50       		.byte	0x50
 15458 1d6c B0000000 		.4byte	.LVL715
 15459 1d70 B2000000 		.4byte	.LVL716
 15460 1d74 0400     		.2byte	0x4
 15461 1d76 70       		.byte	0x70
 15462 1d77 8B7E     		.sleb128 -245
 15463 1d79 9F       		.byte	0x9f
 15464 1d7a B2000000 		.4byte	.LVL716
 15465 1d7e BB000000 		.4byte	.LVL717-1
 15466 1d82 0400     		.2byte	0x4
 15467 1d84 70       		.byte	0x70
 15468 1d85 8C7C     		.sleb128 -500
 15469 1d87 9F       		.byte	0x9f
 15470 1d88 BB000000 		.4byte	.LVL717-1
 15471 1d8c BE000000 		.4byte	.LVL718
 15472 1d90 0800     		.2byte	0x8
 15473 1d92 91       		.byte	0x91
 15474 1d93 64       		.sleb128 -28
 15475 1d94 06       		.byte	0x6
 15476 1d95 0A       		.byte	0xa
 15477 1d96 F401     		.2byte	0x1f4
 15478 1d98 1C       		.byte	0x1c
 15479 1d99 9F       		.byte	0x9f
 15480 1d9a BE000000 		.4byte	.LVL718
 15481 1d9e C4000000 		.4byte	.LVL719
 15482 1da2 0100     		.2byte	0x1
 15483 1da4 50       		.byte	0x50
 15484 1da5 C4000000 		.4byte	.LVL719
 15485 1da9 F4000000 		.4byte	.LVL731
 15486 1dad 0100     		.2byte	0x1
 15487 1daf 57       		.byte	0x57
 15488 1db0 00000000 		.4byte	0
 15489 1db4 00000000 		.4byte	0
 15490              	.LLST117:
 15491 1db8 1A000000 		.4byte	.LVL676
 15492 1dbc 24000000 		.4byte	.LVL679
 15493 1dc0 0200     		.2byte	0x2
 15494 1dc2 30       		.byte	0x30
 15495 1dc3 9F       		.byte	0x9f
 15496 1dc4 24000000 		.4byte	.LVL679
 15497 1dc8 29000000 		.4byte	.LVL681-1
 15498 1dcc 0100     		.2byte	0x1
 15499 1dce 50       		.byte	0x50
 15500 1dcf 29000000 		.4byte	.LVL681-1
 15501 1dd3 2A000000 		.4byte	.LVL681
 15502 1dd7 0C00     		.2byte	0xc
 15503 1dd9 F3       		.byte	0xf3
 15504 1dda 01       		.uleb128 0x1
 15505 1ddb 51       		.byte	0x51
 15506 1ddc 3A       		.byte	0x3a
 15507 1ddd 24       		.byte	0x24
 15508 1dde F3       		.byte	0xf3
ARM GAS  C:\Users\Rajesh\AppData\Local\Temp\ccMJoliC.s 			page 314


 15509 1ddf 01       		.uleb128 0x1
 15510 1de0 52       		.byte	0x52
 15511 1de1 31       		.byte	0x31
 15512 1de2 25       		.byte	0x25
 15513 1de3 22       		.byte	0x22
 15514 1de4 9F       		.byte	0x9f
 15515 1de5 2A000000 		.4byte	.LVL681
 15516 1de9 38000000 		.4byte	.LVL685
 15517 1ded 0100     		.2byte	0x1
 15518 1def 50       		.byte	0x50
 15519 1df0 38000000 		.4byte	.LVL685
 15520 1df4 3A000000 		.4byte	.LVL686
 15521 1df8 0100     		.2byte	0x1
 15522 1dfa 57       		.byte	0x57
 15523 1dfb 3A000000 		.4byte	.LVL686
 15524 1dff 3C000000 		.4byte	.LVL687
 15525 1e03 0200     		.2byte	0x2
 15526 1e05 30       		.byte	0x30
 15527 1e06 9F       		.byte	0x9f
 15528 1e07 3C000000 		.4byte	.LVL687
 15529 1e0b 9E000000 		.4byte	.LVL712
 15530 1e0f 0100     		.2byte	0x1
 15531 1e11 57       		.byte	0x57
 15532 1e12 00000000 		.4byte	0
 15533 1e16 00000000 		.4byte	0
 15534              	.LLST118:
 15535 1e1a 40000000 		.4byte	.LVL688
 15536 1e1e 48000000 		.4byte	.LVL689
 15537 1e22 0100     		.2byte	0x1
 15538 1e24 53       		.byte	0x53
 15539 1e25 48000000 		.4byte	.LVL689
 15540 1e29 4A000000 		.4byte	.LVL690
 15541 1e2d 0500     		.2byte	0x5
 15542 1e2f 73       		.byte	0x73
 15543 1e30 80807E   		.sleb128 -32768
 15544 1e33 9F       		.byte	0x9f
 15545 1e34 4A000000 		.4byte	.LVL690
 15546 1e38 4C000000 		.4byte	.LVL691
 15547 1e3c 0100     		.2byte	0x1
 15548 1e3e 53       		.byte	0x53
 15549 1e3f 4C000000 		.4byte	.LVL691
 15550 1e43 4E000000 		.4byte	.LVL692
 15551 1e47 0C00     		.2byte	0xc
 15552 1e49 91       		.byte	0x91
 15553 1e4a 00       		.sleb128 0
 15554 1e4b 06       		.byte	0x6
 15555 1e4c 74       		.byte	0x74
 15556 1e4d 00       		.sleb128 0
 15557 1e4e 1E       		.byte	0x1e
 15558 1e4f 72       		.byte	0x72
 15559 1e50 00       		.sleb128 0
 15560 1e51 22       		.byte	0x22
 15561 1e52 40       		.byte	0x40
 15562 1e53 25       		.byte	0x25
 15563 1e54 9F       		.byte	0x9f
 15564 1e55 4E000000 		.4byte	.LVL692
 15565 1e59 50000000 		.4byte	.LVL693
ARM GAS  C:\Users\Rajesh\AppData\Local\Temp\ccMJoliC.s 			page 315


 15566 1e5d 0100     		.2byte	0x1
 15567 1e5f 53       		.byte	0x53
 15568 1e60 50000000 		.4byte	.LVL693
 15569 1e64 CA000000 		.4byte	.LVL721
 15570 1e68 0100     		.2byte	0x1
 15571 1e6a 54       		.byte	0x54
 15572 1e6b CA000000 		.4byte	.LVL721
 15573 1e6f 00010000 		.4byte	.LFE23
 15574 1e73 1C00     		.2byte	0x1c
 15575 1e75 91       		.byte	0x91
 15576 1e76 00       		.sleb128 0
 15577 1e77 06       		.byte	0x6
 15578 1e78 F3       		.byte	0xf3
 15579 1e79 01       		.uleb128 0x1
 15580 1e7a 53       		.byte	0x53
 15581 1e7b 1E       		.byte	0x1e
 15582 1e7c 23       		.byte	0x23
 15583 1e7d 808002   		.uleb128 0x8000
 15584 1e80 40       		.byte	0x40
 15585 1e81 25       		.byte	0x25
 15586 1e82 91       		.byte	0x91
 15587 1e83 00       		.sleb128 0
 15588 1e84 06       		.byte	0x6
 15589 1e85 F3       		.byte	0xf3
 15590 1e86 01       		.uleb128 0x1
 15591 1e87 53       		.byte	0x53
 15592 1e88 1E       		.byte	0x1e
 15593 1e89 23       		.byte	0x23
 15594 1e8a 808002   		.uleb128 0x8000
 15595 1e8d 40       		.byte	0x40
 15596 1e8e 25       		.byte	0x25
 15597 1e8f 1E       		.byte	0x1e
 15598 1e90 9F       		.byte	0x9f
 15599 1e91 00000000 		.4byte	0
 15600 1e95 00000000 		.4byte	0
 15601              	.LLST119:
 15602 1e99 7E000000 		.4byte	.LVL702
 15603 1e9d 82000000 		.4byte	.LVL704
 15604 1ea1 0100     		.2byte	0x1
 15605 1ea3 53       		.byte	0x53
 15606 1ea4 84000000 		.4byte	.LVL705
 15607 1ea8 86000000 		.4byte	.LVL706
 15608 1eac 0100     		.2byte	0x1
 15609 1eae 53       		.byte	0x53
 15610 1eaf 00000000 		.4byte	0
 15611 1eb3 00000000 		.4byte	0
 15612              	.LLST120:
 15613 1eb7 14000000 		.4byte	.LVL673
 15614 1ebb 16000000 		.4byte	.LVL674
 15615 1ebf 0100     		.2byte	0x1
 15616 1ec1 53       		.byte	0x53
 15617 1ec2 16000000 		.4byte	.LVL674
 15618 1ec6 18000000 		.4byte	.LVL675
 15619 1eca 0400     		.2byte	0x4
 15620 1ecc 73       		.byte	0x73
 15621 1ecd 807F     		.sleb128 -128
 15622 1ecf 9F       		.byte	0x9f
ARM GAS  C:\Users\Rajesh\AppData\Local\Temp\ccMJoliC.s 			page 316


 15623 1ed0 18000000 		.4byte	.LVL675
 15624 1ed4 F4000000 		.4byte	.LVL730
 15625 1ed8 0100     		.2byte	0x1
 15626 1eda 56       		.byte	0x56
 15627 1edb 00000000 		.4byte	0
 15628 1edf 00000000 		.4byte	0
 15629              	.LLST121:
 15630 1ee3 CA000000 		.4byte	.LVL721
 15631 1ee7 D4000000 		.4byte	.LVL722
 15632 1eeb 0100     		.2byte	0x1
 15633 1eed 50       		.byte	0x50
 15634 1eee D4000000 		.4byte	.LVL722
 15635 1ef2 E2000000 		.4byte	.LVL725
 15636 1ef6 0100     		.2byte	0x1
 15637 1ef8 54       		.byte	0x54
 15638 1ef9 E2000000 		.4byte	.LVL725
 15639 1efd E4000000 		.4byte	.LVL726
 15640 1f01 0100     		.2byte	0x1
 15641 1f03 50       		.byte	0x50
 15642 1f04 E4000000 		.4byte	.LVL726
 15643 1f08 F4000000 		.4byte	.LVL729
 15644 1f0c 0100     		.2byte	0x1
 15645 1f0e 54       		.byte	0x54
 15646 1f0f 00000000 		.4byte	0
 15647 1f13 00000000 		.4byte	0
 15648              	.LLST122:
 15649 1f17 E0000000 		.4byte	.LVL724
 15650 1f1b E2000000 		.4byte	.LVL725
 15651 1f1f 0100     		.2byte	0x1
 15652 1f21 50       		.byte	0x50
 15653 1f22 E4000000 		.4byte	.LVL726
 15654 1f26 E7000000 		.4byte	.LVL727-1
 15655 1f2a 0100     		.2byte	0x1
 15656 1f2c 50       		.byte	0x50
 15657 1f2d E8000000 		.4byte	.LVL727
 15658 1f31 F2000000 		.4byte	.LVL728
 15659 1f35 0100     		.2byte	0x1
 15660 1f37 50       		.byte	0x50
 15661 1f38 00000000 		.4byte	0
 15662 1f3c 00000000 		.4byte	0
 15663              	.LLST123:
 15664 1f40 C4000000 		.4byte	.LVL719
 15665 1f44 C7000000 		.4byte	.LVL720-1
 15666 1f48 0100     		.2byte	0x1
 15667 1f4a 50       		.byte	0x50
 15668 1f4b C7000000 		.4byte	.LVL720-1
 15669 1f4f F4000000 		.4byte	.LVL730
 15670 1f53 0500     		.2byte	0x5
 15671 1f55 76       		.byte	0x76
 15672 1f56 20       		.sleb128 32
 15673 1f57 36       		.byte	0x36
 15674 1f58 25       		.byte	0x25
 15675 1f59 9F       		.byte	0x9f
 15676 1f5a 00000000 		.4byte	0
 15677 1f5e 00000000 		.4byte	0
 15678              	.LLST124:
 15679 1f62 54000000 		.4byte	.LVL694
ARM GAS  C:\Users\Rajesh\AppData\Local\Temp\ccMJoliC.s 			page 317


 15680 1f66 56000000 		.4byte	.LVL695
 15681 1f6a 0100     		.2byte	0x1
 15682 1f6c 50       		.byte	0x50
 15683 1f6d 56000000 		.4byte	.LVL695
 15684 1f71 5B000000 		.4byte	.LVL696-1
 15685 1f75 0300     		.2byte	0x3
 15686 1f77 70       		.byte	0x70
 15687 1f78 7D       		.sleb128 -3
 15688 1f79 9F       		.byte	0x9f
 15689 1f7a 5B000000 		.4byte	.LVL696-1
 15690 1f7e 5C000000 		.4byte	.LVL696
 15691 1f82 0A00     		.2byte	0xa
 15692 1f84 91       		.byte	0x91
 15693 1f85 04       		.sleb128 4
 15694 1f86 06       		.byte	0x6
 15695 1f87 23       		.byte	0x23
 15696 1f88 808002   		.uleb128 0x8000
 15697 1f8b 40       		.byte	0x40
 15698 1f8c 25       		.byte	0x25
 15699 1f8d 9F       		.byte	0x9f
 15700 1f8e 5C000000 		.4byte	.LVL696
 15701 1f92 6A000000 		.4byte	.LVL698
 15702 1f96 0100     		.2byte	0x1
 15703 1f98 50       		.byte	0x50
 15704 1f99 82000000 		.4byte	.LVL704
 15705 1f9d 84000000 		.4byte	.LVL705
 15706 1fa1 0100     		.2byte	0x1
 15707 1fa3 50       		.byte	0x50
 15708 1fa4 00000000 		.4byte	0
 15709 1fa8 00000000 		.4byte	0
 15710              	.LLST125:
 15711 1fac 20000000 		.4byte	.LVL677
 15712 1fb0 26000000 		.4byte	.LVL680
 15713 1fb4 0100     		.2byte	0x1
 15714 1fb6 51       		.byte	0x51
 15715 1fb7 26000000 		.4byte	.LVL680
 15716 1fbb 3A000000 		.4byte	.LVL686
 15717 1fbf 0600     		.2byte	0x6
 15718 1fc1 F3       		.byte	0xf3
 15719 1fc2 01       		.uleb128 0x1
 15720 1fc3 51       		.byte	0x51
 15721 1fc4 3A       		.byte	0x3a
 15722 1fc5 24       		.byte	0x24
 15723 1fc6 9F       		.byte	0x9f
 15724 1fc7 00000000 		.4byte	0
 15725 1fcb 00000000 		.4byte	0
 15726              	.LLST126:
 15727 1fcf 00000000 		.4byte	.LVL732
 15728 1fd3 2D000000 		.4byte	.LVL738-1
 15729 1fd7 0100     		.2byte	0x1
 15730 1fd9 50       		.byte	0x50
 15731 1fda 2D000000 		.4byte	.LVL738-1
 15732 1fde 84020000 		.4byte	.LVL862
 15733 1fe2 0100     		.2byte	0x1
 15734 1fe4 55       		.byte	0x55
 15735 1fe5 84020000 		.4byte	.LVL862
 15736 1fe9 B0020000 		.4byte	.LFE24
ARM GAS  C:\Users\Rajesh\AppData\Local\Temp\ccMJoliC.s 			page 318


 15737 1fed 0400     		.2byte	0x4
 15738 1fef F3       		.byte	0xf3
 15739 1ff0 01       		.uleb128 0x1
 15740 1ff1 50       		.byte	0x50
 15741 1ff2 9F       		.byte	0x9f
 15742 1ff3 00000000 		.4byte	0
 15743 1ff7 00000000 		.4byte	0
 15744              	.LLST127:
 15745 1ffb 00000000 		.4byte	.LVL732
 15746 1fff 2D000000 		.4byte	.LVL738-1
 15747 2003 0100     		.2byte	0x1
 15748 2005 51       		.byte	0x51
 15749 2006 2D000000 		.4byte	.LVL738-1
 15750 200a 84020000 		.4byte	.LVL863
 15751 200e 0100     		.2byte	0x1
 15752 2010 59       		.byte	0x59
 15753 2011 84020000 		.4byte	.LVL863
 15754 2015 B0020000 		.4byte	.LFE24
 15755 2019 0400     		.2byte	0x4
 15756 201b F3       		.byte	0xf3
 15757 201c 01       		.uleb128 0x1
 15758 201d 51       		.byte	0x51
 15759 201e 9F       		.byte	0x9f
 15760 201f 00000000 		.4byte	0
 15761 2023 00000000 		.4byte	0
 15762              	.LLST128:
 15763 2027 00000000 		.4byte	.LVL732
 15764 202b 2A000000 		.4byte	.LVL737
 15765 202f 0100     		.2byte	0x1
 15766 2031 52       		.byte	0x52
 15767 2032 2A000000 		.4byte	.LVL737
 15768 2036 B0020000 		.4byte	.LFE24
 15769 203a 0300     		.2byte	0x3
 15770 203c 91       		.byte	0x91
 15771 203d B47F     		.sleb128 -76
 15772 203f 00000000 		.4byte	0
 15773 2043 00000000 		.4byte	0
 15774              	.LLST129:
 15775 2047 00000000 		.4byte	.LVL732
 15776 204b 18000000 		.4byte	.LVL734
 15777 204f 0100     		.2byte	0x1
 15778 2051 53       		.byte	0x53
 15779 2052 18000000 		.4byte	.LVL734
 15780 2056 B0020000 		.4byte	.LFE24
 15781 205a 0300     		.2byte	0x3
 15782 205c 91       		.byte	0x91
 15783 205d B87F     		.sleb128 -72
 15784 205f 00000000 		.4byte	0
 15785 2063 00000000 		.4byte	0
 15786              	.LLST130:
 15787 2067 C6000000 		.4byte	.LVL769
 15788 206b C8000000 		.4byte	.LVL770
 15789 206f 0100     		.2byte	0x1
 15790 2071 52       		.byte	0x52
 15791 2072 C8000000 		.4byte	.LVL770
 15792 2076 CA000000 		.4byte	.LVL771
 15793 207a 0400     		.2byte	0x4
ARM GAS  C:\Users\Rajesh\AppData\Local\Temp\ccMJoliC.s 			page 319


 15794 207c 72       		.byte	0x72
 15795 207d 807F     		.sleb128 -128
 15796 207f 9F       		.byte	0x9f
 15797 2080 CA000000 		.4byte	.LVL771
 15798 2084 CC000000 		.4byte	.LVL772
 15799 2088 0600     		.2byte	0x6
 15800 208a 73       		.byte	0x73
 15801 208b 00       		.sleb128 0
 15802 208c 70       		.byte	0x70
 15803 208d 00       		.sleb128 0
 15804 208e 1E       		.byte	0x1e
 15805 208f 9F       		.byte	0x9f
 15806 2090 CC000000 		.4byte	.LVL772
 15807 2094 D0000000 		.4byte	.LVL773
 15808 2098 0100     		.2byte	0x1
 15809 209a 52       		.byte	0x52
 15810 209b D0000000 		.4byte	.LVL773
 15811 209f F6000000 		.4byte	.LVL778
 15812 20a3 0100     		.2byte	0x1
 15813 20a5 5A       		.byte	0x5a
 15814 20a6 F6000000 		.4byte	.LVL778
 15815 20aa F8000000 		.4byte	.LVL779
 15816 20ae 0100     		.2byte	0x1
 15817 20b0 53       		.byte	0x53
 15818 20b1 F8000000 		.4byte	.LVL779
 15819 20b5 44020000 		.4byte	.LVL849
 15820 20b9 0100     		.2byte	0x1
 15821 20bb 5A       		.byte	0x5a
 15822 20bc 44020000 		.4byte	.LVL849
 15823 20c0 46020000 		.4byte	.LVL850
 15824 20c4 0100     		.2byte	0x1
 15825 20c6 53       		.byte	0x53
 15826 20c7 46020000 		.4byte	.LVL850
 15827 20cb 50020000 		.4byte	.LVL853
 15828 20cf 0100     		.2byte	0x1
 15829 20d1 5A       		.byte	0x5a
 15830 20d2 50020000 		.4byte	.LVL853
 15831 20d6 54020000 		.4byte	.LVL855
 15832 20da 0100     		.2byte	0x1
 15833 20dc 53       		.byte	0x53
 15834 20dd 54020000 		.4byte	.LVL855
 15835 20e1 84020000 		.4byte	.LVL864
 15836 20e5 0100     		.2byte	0x1
 15837 20e7 5A       		.byte	0x5a
 15838 20e8 00000000 		.4byte	0
 15839 20ec 00000000 		.4byte	0
 15840              	.LLST131:
 15841 20f0 66000000 		.4byte	.LVL748
 15842 20f4 73000000 		.4byte	.LVL751-1
 15843 20f8 0100     		.2byte	0x1
 15844 20fa 51       		.byte	0x51
 15845 20fb 73000000 		.4byte	.LVL751-1
 15846 20ff FC010000 		.4byte	.LVL831
 15847 2103 0200     		.2byte	0x2
 15848 2105 91       		.byte	0x91
 15849 2106 44       		.sleb128 -60
 15850 2107 00000000 		.4byte	0
ARM GAS  C:\Users\Rajesh\AppData\Local\Temp\ccMJoliC.s 			page 320


 15851 210b 00000000 		.4byte	0
 15852              	.LLST132:
 15853 210f 7E000000 		.4byte	.LVL753
 15854 2113 87000000 		.4byte	.LVL756-1
 15855 2117 0100     		.2byte	0x1
 15856 2119 51       		.byte	0x51
 15857 211a 87000000 		.4byte	.LVL756-1
 15858 211e B0020000 		.4byte	.LFE24
 15859 2122 0200     		.2byte	0x2
 15860 2124 91       		.byte	0x91
 15861 2125 48       		.sleb128 -56
 15862 2126 00000000 		.4byte	0
 15863 212a 00000000 		.4byte	0
 15864              	.LLST133:
 15865 212e FC010000 		.4byte	.LVL831
 15866 2132 02020000 		.4byte	.LVL832
 15867 2136 0100     		.2byte	0x1
 15868 2138 50       		.byte	0x50
 15869 2139 02020000 		.4byte	.LVL832
 15870 213d 80020000 		.4byte	.LVL861
 15871 2141 0200     		.2byte	0x2
 15872 2143 91       		.byte	0x91
 15873 2144 44       		.sleb128 -60
 15874 2145 00000000 		.4byte	0
 15875 2149 00000000 		.4byte	0
 15876              	.LLST134:
 15877 214d FA000000 		.4byte	.LVL780
 15878 2151 80020000 		.4byte	.LVL861
 15879 2155 0400     		.2byte	0x4
 15880 2157 0A       		.byte	0xa
 15881 2158 2003     		.2byte	0x320
 15882 215a 9F       		.byte	0x9f
 15883 215b 00000000 		.4byte	0
 15884 215f 00000000 		.4byte	0
 15885              	.LLST135:
 15886 2163 02010000 		.4byte	.LVL781
 15887 2167 12010000 		.4byte	.LVL783
 15888 216b 0100     		.2byte	0x1
 15889 216d 50       		.byte	0x50
 15890 216e 12010000 		.4byte	.LVL783
 15891 2172 14010000 		.4byte	.LVL784
 15892 2176 0100     		.2byte	0x1
 15893 2178 53       		.byte	0x53
 15894 2179 14010000 		.4byte	.LVL784
 15895 217d 80020000 		.4byte	.LVL861
 15896 2181 0200     		.2byte	0x2
 15897 2183 91       		.byte	0x91
 15898 2184 40       		.sleb128 -64
 15899 2185 00000000 		.4byte	0
 15900 2189 00000000 		.4byte	0
 15901              	.LLST136:
 15902 218d 22010000 		.4byte	.LVL786
 15903 2191 24010000 		.4byte	.LVL787
 15904 2195 0100     		.2byte	0x1
 15905 2197 53       		.byte	0x53
 15906 2198 24010000 		.4byte	.LVL787
 15907 219c 80020000 		.4byte	.LVL861
ARM GAS  C:\Users\Rajesh\AppData\Local\Temp\ccMJoliC.s 			page 321


 15908 21a0 0100     		.2byte	0x1
 15909 21a2 58       		.byte	0x58
 15910 21a3 00000000 		.4byte	0
 15911 21a7 00000000 		.4byte	0
 15912              	.LLST137:
 15913 21ab 2A010000 		.4byte	.LVL789
 15914 21af 78010000 		.4byte	.LVL804
 15915 21b3 0100     		.2byte	0x1
 15916 21b5 57       		.byte	0x57
 15917 21b6 92010000 		.4byte	.LVL810
 15918 21ba 94010000 		.4byte	.LVL811
 15919 21be 0100     		.2byte	0x1
 15920 21c0 57       		.byte	0x57
 15921 21c1 00000000 		.4byte	0
 15922 21c5 00000000 		.4byte	0
 15923              	.LLST138:
 15924 21c9 6E010000 		.4byte	.LVL802
 15925 21cd 78010000 		.4byte	.LVL804
 15926 21d1 0100     		.2byte	0x1
 15927 21d3 50       		.byte	0x50
 15928 21d4 78010000 		.4byte	.LVL804
 15929 21d8 82010000 		.4byte	.LVL805
 15930 21dc 0100     		.2byte	0x1
 15931 21de 54       		.byte	0x54
 15932 21df 82010000 		.4byte	.LVL805
 15933 21e3 92010000 		.4byte	.LVL810
 15934 21e7 0100     		.2byte	0x1
 15935 21e9 57       		.byte	0x57
 15936 21ea 96010000 		.4byte	.LVL812
 15937 21ee 80020000 		.4byte	.LVL861
 15938 21f2 0100     		.2byte	0x1
 15939 21f4 57       		.byte	0x57
 15940 21f5 00000000 		.4byte	0
 15941 21f9 00000000 		.4byte	0
 15942              	.LLST139:
 15943 21fd C6010000 		.4byte	.LVL824
 15944 2201 D5010000 		.4byte	.LVL827-1
 15945 2205 0100     		.2byte	0x1
 15946 2207 50       		.byte	0x50
 15947 2208 D8010000 		.4byte	.LVL828
 15948 220c E2010000 		.4byte	.LVL829
 15949 2210 0100     		.2byte	0x1
 15950 2212 50       		.byte	0x50
 15951 2213 E2010000 		.4byte	.LVL829
 15952 2217 80020000 		.4byte	.LVL861
 15953 221b 0100     		.2byte	0x1
 15954 221d 56       		.byte	0x56
 15955 221e 00000000 		.4byte	0
 15956 2222 00000000 		.4byte	0
 15957              	.LLST140:
 15958 2226 38020000 		.4byte	.LVL846
 15959 222a 4E020000 		.4byte	.LVL852
 15960 222e 0100     		.2byte	0x1
 15961 2230 50       		.byte	0x50
 15962 2231 50020000 		.4byte	.LVL853
 15963 2235 52020000 		.4byte	.LVL854
 15964 2239 0100     		.2byte	0x1
ARM GAS  C:\Users\Rajesh\AppData\Local\Temp\ccMJoliC.s 			page 322


 15965 223b 50       		.byte	0x50
 15966 223c 54020000 		.4byte	.LVL855
 15967 2240 7A020000 		.4byte	.LVL859
 15968 2244 0100     		.2byte	0x1
 15969 2246 50       		.byte	0x50
 15970 2247 00000000 		.4byte	0
 15971 224b 00000000 		.4byte	0
 15972              	.LLST141:
 15973 224f 5C010000 		.4byte	.LVL800
 15974 2253 74010000 		.4byte	.LVL803
 15975 2257 0100     		.2byte	0x1
 15976 2259 54       		.byte	0x54
 15977 225a 92010000 		.4byte	.LVL810
 15978 225e 96010000 		.4byte	.LVL812
 15979 2262 0100     		.2byte	0x1
 15980 2264 54       		.byte	0x54
 15981 2265 00000000 		.4byte	0
 15982 2269 00000000 		.4byte	0
 15983              	.LLST142:
 15984 226d 24000000 		.4byte	.LVL735
 15985 2271 28010000 		.4byte	.LVL788
 15986 2275 0100     		.2byte	0x1
 15987 2277 57       		.byte	0x57
 15988 2278 00000000 		.4byte	0
 15989 227c 00000000 		.4byte	0
 15990              	.LLST143:
 15991 2280 40000000 		.4byte	.LVL741
 15992 2284 48000000 		.4byte	.LVL742
 15993 2288 0100     		.2byte	0x1
 15994 228a 53       		.byte	0x53
 15995 228b 48000000 		.4byte	.LVL742
 15996 228f 4A000000 		.4byte	.LVL743
 15997 2293 0500     		.2byte	0x5
 15998 2295 73       		.byte	0x73
 15999 2296 80807E   		.sleb128 -32768
 16000 2299 9F       		.byte	0x9f
 16001 229a 4A000000 		.4byte	.LVL743
 16002 229e 4C000000 		.4byte	.LVL744
 16003 22a2 0600     		.2byte	0x6
 16004 22a4 74       		.byte	0x74
 16005 22a5 00       		.sleb128 0
 16006 22a6 78       		.byte	0x78
 16007 22a7 00       		.sleb128 0
 16008 22a8 1E       		.byte	0x1e
 16009 22a9 9F       		.byte	0x9f
 16010 22aa 4C000000 		.4byte	.LVL744
 16011 22ae 4E000000 		.4byte	.LVL745
 16012 22b2 0100     		.2byte	0x1
 16013 22b4 53       		.byte	0x53
 16014 22b5 4E000000 		.4byte	.LVL745
 16015 22b9 DC000000 		.4byte	.LVL774
 16016 22bd 0100     		.2byte	0x1
 16017 22bf 5B       		.byte	0x5b
 16018 22c0 DC000000 		.4byte	.LVL774
 16019 22c4 DE000000 		.4byte	.LVL775
 16020 22c8 0100     		.2byte	0x1
 16021 22ca 53       		.byte	0x53
ARM GAS  C:\Users\Rajesh\AppData\Local\Temp\ccMJoliC.s 			page 323


 16022 22cb DE000000 		.4byte	.LVL775
 16023 22cf F0000000 		.4byte	.LVL776
 16024 22d3 0100     		.2byte	0x1
 16025 22d5 5B       		.byte	0x5b
 16026 22d6 F0000000 		.4byte	.LVL776
 16027 22da F2000000 		.4byte	.LVL777
 16028 22de 0100     		.2byte	0x1
 16029 22e0 53       		.byte	0x53
 16030 22e1 F2000000 		.4byte	.LVL777
 16031 22e5 3E020000 		.4byte	.LVL847
 16032 22e9 0100     		.2byte	0x1
 16033 22eb 5B       		.byte	0x5b
 16034 22ec 3E020000 		.4byte	.LVL847
 16035 22f0 40020000 		.4byte	.LVL848
 16036 22f4 0100     		.2byte	0x1
 16037 22f6 53       		.byte	0x53
 16038 22f7 40020000 		.4byte	.LVL848
 16039 22fb 4C020000 		.4byte	.LVL851
 16040 22ff 0100     		.2byte	0x1
 16041 2301 5B       		.byte	0x5b
 16042 2302 4C020000 		.4byte	.LVL851
 16043 2306 50020000 		.4byte	.LVL853
 16044 230a 0100     		.2byte	0x1
 16045 230c 53       		.byte	0x53
 16046 230d 50020000 		.4byte	.LVL853
 16047 2311 84020000 		.4byte	.LVL865
 16048 2315 0100     		.2byte	0x1
 16049 2317 5B       		.byte	0x5b
 16050 2318 00000000 		.4byte	0
 16051 231c 00000000 		.4byte	0
 16052              	.LLST144:
 16053 2320 50000000 		.4byte	.LVL746
 16054 2324 30010000 		.4byte	.LVL791
 16055 2328 0100     		.2byte	0x1
 16056 232a 54       		.byte	0x54
 16057 232b 00000000 		.4byte	0
 16058 232f 00000000 		.4byte	0
 16059              	.LLST145:
 16060 2333 16000000 		.4byte	.LVL733
 16061 2337 2E000000 		.4byte	.LVL738
 16062 233b 0200     		.2byte	0x2
 16063 233d 30       		.byte	0x30
 16064 233e 9F       		.byte	0x9f
 16065 233f 3A000000 		.4byte	.LVL740
 16066 2343 70000000 		.4byte	.LVL750
 16067 2347 0100     		.2byte	0x1
 16068 2349 50       		.byte	0x50
 16069 234a 70000000 		.4byte	.LVL750
 16070 234e 2E010000 		.4byte	.LVL790
 16071 2352 0100     		.2byte	0x1
 16072 2354 56       		.byte	0x56
 16073 2355 00000000 		.4byte	0
 16074 2359 00000000 		.4byte	0
 16075              	.LLST146:
 16076 235d 40010000 		.4byte	.LVL793
 16077 2361 42010000 		.4byte	.LVL794
 16078 2365 0100     		.2byte	0x1
ARM GAS  C:\Users\Rajesh\AppData\Local\Temp\ccMJoliC.s 			page 324


 16079 2367 50       		.byte	0x50
 16080 2368 42010000 		.4byte	.LVL794
 16081 236c 52010000 		.4byte	.LVL797
 16082 2370 0100     		.2byte	0x1
 16083 2372 54       		.byte	0x54
 16084 2373 52010000 		.4byte	.LVL797
 16085 2377 55010000 		.4byte	.LVL798-1
 16086 237b 0100     		.2byte	0x1
 16087 237d 50       		.byte	0x50
 16088 237e 55010000 		.4byte	.LVL798-1
 16089 2382 5A010000 		.4byte	.LVL799
 16090 2386 0500     		.2byte	0x5
 16091 2388 74       		.byte	0x74
 16092 2389 00       		.sleb128 0
 16093 238a 38       		.byte	0x38
 16094 238b 24       		.byte	0x24
 16095 238c 9F       		.byte	0x9f
 16096 238d 00000000 		.4byte	0
 16097 2391 00000000 		.4byte	0
 16098              	.LLST147:
 16099 2395 50010000 		.4byte	.LVL796
 16100 2399 52010000 		.4byte	.LVL797
 16101 239d 0100     		.2byte	0x1
 16102 239f 50       		.byte	0x50
 16103 23a0 52010000 		.4byte	.LVL797
 16104 23a4 55010000 		.4byte	.LVL798-1
 16105 23a8 0100     		.2byte	0x1
 16106 23aa 51       		.byte	0x51
 16107 23ab 00000000 		.4byte	0
 16108 23af 00000000 		.4byte	0
 16109              	.LLST148:
 16110 23b3 9C010000 		.4byte	.LVL813
 16111 23b7 A4010000 		.4byte	.LVL814
 16112 23bb 0100     		.2byte	0x1
 16113 23bd 50       		.byte	0x50
 16114 23be A4010000 		.4byte	.LVL814
 16115 23c2 A6010000 		.4byte	.LVL815
 16116 23c6 0500     		.2byte	0x5
 16117 23c8 70       		.byte	0x70
 16118 23c9 80807E   		.sleb128 -32768
 16119 23cc 9F       		.byte	0x9f
 16120 23cd A6010000 		.4byte	.LVL815
 16121 23d1 B2010000 		.4byte	.LVL819
 16122 23d5 0100     		.2byte	0x1
 16123 23d7 50       		.byte	0x50
 16124 23d8 B2010000 		.4byte	.LVL819
 16125 23dc B5010000 		.4byte	.LVL820-1
 16126 23e0 1800     		.2byte	0x18
 16127 23e2 77       		.byte	0x77
 16128 23e3 00       		.sleb128 0
 16129 23e4 0A       		.byte	0xa
 16130 23e5 2003     		.2byte	0x320
 16131 23e7 1E       		.byte	0x1e
 16132 23e8 7C       		.byte	0x7c
 16133 23e9 00       		.sleb128 0
 16134 23ea 22       		.byte	0x22
 16135 23eb 40       		.byte	0x40
ARM GAS  C:\Users\Rajesh\AppData\Local\Temp\ccMJoliC.s 			page 325


 16136 23ec 25       		.byte	0x25
 16137 23ed 77       		.byte	0x77
 16138 23ee 00       		.sleb128 0
 16139 23ef 0A       		.byte	0xa
 16140 23f0 2003     		.2byte	0x320
 16141 23f2 1E       		.byte	0x1e
 16142 23f3 7C       		.byte	0x7c
 16143 23f4 00       		.sleb128 0
 16144 23f5 22       		.byte	0x22
 16145 23f6 40       		.byte	0x40
 16146 23f7 25       		.byte	0x25
 16147 23f8 1E       		.byte	0x1e
 16148 23f9 9F       		.byte	0x9f
 16149 23fa B5010000 		.4byte	.LVL820-1
 16150 23fe 08020000 		.4byte	.LVL834
 16151 2402 1A00     		.2byte	0x1a
 16152 2404 77       		.byte	0x77
 16153 2405 00       		.sleb128 0
 16154 2406 0A       		.byte	0xa
 16155 2407 2003     		.2byte	0x320
 16156 2409 1E       		.byte	0x1e
 16157 240a 23       		.byte	0x23
 16158 240b 808002   		.uleb128 0x8000
 16159 240e 40       		.byte	0x40
 16160 240f 25       		.byte	0x25
 16161 2410 77       		.byte	0x77
 16162 2411 00       		.sleb128 0
 16163 2412 0A       		.byte	0xa
 16164 2413 2003     		.2byte	0x320
 16165 2415 1E       		.byte	0x1e
 16166 2416 23       		.byte	0x23
 16167 2417 808002   		.uleb128 0x8000
 16168 241a 40       		.byte	0x40
 16169 241b 25       		.byte	0x25
 16170 241c 1E       		.byte	0x1e
 16171 241d 9F       		.byte	0x9f
 16172 241e 08020000 		.4byte	.LVL834
 16173 2422 0A020000 		.4byte	.LVL835
 16174 2426 1C00     		.2byte	0x1c
 16175 2428 73       		.byte	0x73
 16176 2429 00       		.sleb128 0
 16177 242a 32       		.byte	0x32
 16178 242b 24       		.byte	0x24
 16179 242c 77       		.byte	0x77
 16180 242d 00       		.sleb128 0
 16181 242e 1E       		.byte	0x1e
 16182 242f 23       		.byte	0x23
 16183 2430 808002   		.uleb128 0x8000
 16184 2433 40       		.byte	0x40
 16185 2434 25       		.byte	0x25
 16186 2435 73       		.byte	0x73
 16187 2436 00       		.sleb128 0
 16188 2437 32       		.byte	0x32
 16189 2438 24       		.byte	0x24
 16190 2439 77       		.byte	0x77
 16191 243a 00       		.sleb128 0
 16192 243b 1E       		.byte	0x1e
ARM GAS  C:\Users\Rajesh\AppData\Local\Temp\ccMJoliC.s 			page 326


 16193 243c 23       		.byte	0x23
 16194 243d 808002   		.uleb128 0x8000
 16195 2440 40       		.byte	0x40
 16196 2441 25       		.byte	0x25
 16197 2442 1E       		.byte	0x1e
 16198 2443 9F       		.byte	0x9f
 16199 2444 0A020000 		.4byte	.LVL835
 16200 2448 2A020000 		.4byte	.LVL842
 16201 244c 1A00     		.2byte	0x1a
 16202 244e 77       		.byte	0x77
 16203 244f 00       		.sleb128 0
 16204 2450 0A       		.byte	0xa
 16205 2451 2003     		.2byte	0x320
 16206 2453 1E       		.byte	0x1e
 16207 2454 23       		.byte	0x23
 16208 2455 808002   		.uleb128 0x8000
 16209 2458 40       		.byte	0x40
 16210 2459 25       		.byte	0x25
 16211 245a 77       		.byte	0x77
 16212 245b 00       		.sleb128 0
 16213 245c 0A       		.byte	0xa
 16214 245d 2003     		.2byte	0x320
 16215 245f 1E       		.byte	0x1e
 16216 2460 23       		.byte	0x23
 16217 2461 808002   		.uleb128 0x8000
 16218 2464 40       		.byte	0x40
 16219 2465 25       		.byte	0x25
 16220 2466 1E       		.byte	0x1e
 16221 2467 9F       		.byte	0x9f
 16222 2468 2A020000 		.4byte	.LVL842
 16223 246c 31020000 		.4byte	.LVL845-1
 16224 2470 0100     		.2byte	0x1
 16225 2472 53       		.byte	0x53
 16226 2473 31020000 		.4byte	.LVL845-1
 16227 2477 80020000 		.4byte	.LVL861
 16228 247b 0600     		.2byte	0x6
 16229 247d 76       		.byte	0x76
 16230 247e 00       		.sleb128 0
 16231 247f 76       		.byte	0x76
 16232 2480 00       		.sleb128 0
 16233 2481 1E       		.byte	0x1e
 16234 2482 9F       		.byte	0x9f
 16235 2483 00000000 		.4byte	0
 16236 2487 00000000 		.4byte	0
 16237              	.LLST149:
 16238 248b A8010000 		.4byte	.LVL816
 16239 248f AE010000 		.4byte	.LVL817
 16240 2493 0200     		.2byte	0x2
 16241 2495 91       		.byte	0x91
 16242 2496 40       		.sleb128 -64
 16243 2497 AE010000 		.4byte	.LVL817
 16244 249b B5010000 		.4byte	.LVL820-1
 16245 249f 0100     		.2byte	0x1
 16246 24a1 53       		.byte	0x53
 16247 24a2 B5010000 		.4byte	.LVL820-1
 16248 24a6 2C020000 		.4byte	.LVL843
 16249 24aa 1400     		.2byte	0x14
ARM GAS  C:\Users\Rajesh\AppData\Local\Temp\ccMJoliC.s 			page 327


 16250 24ac 91       		.byte	0x91
 16251 24ad 40       		.sleb128 -64
 16252 24ae 06       		.byte	0x6
 16253 24af 23       		.byte	0x23
 16254 24b0 808002   		.uleb128 0x8000
 16255 24b3 40       		.byte	0x40
 16256 24b4 25       		.byte	0x25
 16257 24b5 91       		.byte	0x91
 16258 24b6 40       		.sleb128 -64
 16259 24b7 06       		.byte	0x6
 16260 24b8 23       		.byte	0x23
 16261 24b9 808002   		.uleb128 0x8000
 16262 24bc 40       		.byte	0x40
 16263 24bd 25       		.byte	0x25
 16264 24be 1E       		.byte	0x1e
 16265 24bf 9F       		.byte	0x9f
 16266 24c0 2C020000 		.4byte	.LVL843
 16267 24c4 2E020000 		.4byte	.LVL844
 16268 24c8 0100     		.2byte	0x1
 16269 24ca 50       		.byte	0x50
 16270 24cb 00000000 		.4byte	0
 16271 24cf 00000000 		.4byte	0
 16272              	.LLST150:
 16273 24d3 B2010000 		.4byte	.LVL819
 16274 24d7 B5010000 		.4byte	.LVL820-1
 16275 24db 0100     		.2byte	0x1
 16276 24dd 50       		.byte	0x50
 16277 24de B5010000 		.4byte	.LVL820-1
 16278 24e2 08020000 		.4byte	.LVL834
 16279 24e6 2E00     		.2byte	0x2e
 16280 24e8 77       		.byte	0x77
 16281 24e9 00       		.sleb128 0
 16282 24ea 0A       		.byte	0xa
 16283 24eb 2003     		.2byte	0x320
 16284 24ed 1E       		.byte	0x1e
 16285 24ee 23       		.byte	0x23
 16286 24ef 808002   		.uleb128 0x8000
 16287 24f2 40       		.byte	0x40
 16288 24f3 25       		.byte	0x25
 16289 24f4 77       		.byte	0x77
 16290 24f5 00       		.sleb128 0
 16291 24f6 0A       		.byte	0xa
 16292 24f7 2003     		.2byte	0x320
 16293 24f9 1E       		.byte	0x1e
 16294 24fa 23       		.byte	0x23
 16295 24fb 808002   		.uleb128 0x8000
 16296 24fe 40       		.byte	0x40
 16297 24ff 25       		.byte	0x25
 16298 2500 1E       		.byte	0x1e
 16299 2501 91       		.byte	0x91
 16300 2502 40       		.sleb128 -64
 16301 2503 06       		.byte	0x6
 16302 2504 23       		.byte	0x23
 16303 2505 808002   		.uleb128 0x8000
 16304 2508 40       		.byte	0x40
 16305 2509 25       		.byte	0x25
 16306 250a 91       		.byte	0x91
ARM GAS  C:\Users\Rajesh\AppData\Local\Temp\ccMJoliC.s 			page 328


 16307 250b 40       		.sleb128 -64
 16308 250c 06       		.byte	0x6
 16309 250d 23       		.byte	0x23
 16310 250e 808002   		.uleb128 0x8000
 16311 2511 40       		.byte	0x40
 16312 2512 25       		.byte	0x25
 16313 2513 1E       		.byte	0x1e
 16314 2514 22       		.byte	0x22
 16315 2515 9F       		.byte	0x9f
 16316 2516 08020000 		.4byte	.LVL834
 16317 251a 0A020000 		.4byte	.LVL835
 16318 251e 3000     		.2byte	0x30
 16319 2520 73       		.byte	0x73
 16320 2521 00       		.sleb128 0
 16321 2522 32       		.byte	0x32
 16322 2523 24       		.byte	0x24
 16323 2524 77       		.byte	0x77
 16324 2525 00       		.sleb128 0
 16325 2526 1E       		.byte	0x1e
 16326 2527 23       		.byte	0x23
 16327 2528 808002   		.uleb128 0x8000
 16328 252b 40       		.byte	0x40
 16329 252c 25       		.byte	0x25
 16330 252d 73       		.byte	0x73
 16331 252e 00       		.sleb128 0
 16332 252f 32       		.byte	0x32
 16333 2530 24       		.byte	0x24
 16334 2531 77       		.byte	0x77
 16335 2532 00       		.sleb128 0
 16336 2533 1E       		.byte	0x1e
 16337 2534 23       		.byte	0x23
 16338 2535 808002   		.uleb128 0x8000
 16339 2538 40       		.byte	0x40
 16340 2539 25       		.byte	0x25
 16341 253a 1E       		.byte	0x1e
 16342 253b 91       		.byte	0x91
 16343 253c 40       		.sleb128 -64
 16344 253d 06       		.byte	0x6
 16345 253e 23       		.byte	0x23
 16346 253f 808002   		.uleb128 0x8000
 16347 2542 40       		.byte	0x40
 16348 2543 25       		.byte	0x25
 16349 2544 91       		.byte	0x91
 16350 2545 40       		.sleb128 -64
 16351 2546 06       		.byte	0x6
 16352 2547 23       		.byte	0x23
 16353 2548 808002   		.uleb128 0x8000
 16354 254b 40       		.byte	0x40
 16355 254c 25       		.byte	0x25
 16356 254d 1E       		.byte	0x1e
 16357 254e 22       		.byte	0x22
 16358 254f 9F       		.byte	0x9f
 16359 2550 0A020000 		.4byte	.LVL835
 16360 2554 6E020000 		.4byte	.LVL857
 16361 2558 2E00     		.2byte	0x2e
 16362 255a 77       		.byte	0x77
 16363 255b 00       		.sleb128 0
ARM GAS  C:\Users\Rajesh\AppData\Local\Temp\ccMJoliC.s 			page 329


 16364 255c 0A       		.byte	0xa
 16365 255d 2003     		.2byte	0x320
 16366 255f 1E       		.byte	0x1e
 16367 2560 23       		.byte	0x23
 16368 2561 808002   		.uleb128 0x8000
 16369 2564 40       		.byte	0x40
 16370 2565 25       		.byte	0x25
 16371 2566 77       		.byte	0x77
 16372 2567 00       		.sleb128 0
 16373 2568 0A       		.byte	0xa
 16374 2569 2003     		.2byte	0x320
 16375 256b 1E       		.byte	0x1e
 16376 256c 23       		.byte	0x23
 16377 256d 808002   		.uleb128 0x8000
 16378 2570 40       		.byte	0x40
 16379 2571 25       		.byte	0x25
 16380 2572 1E       		.byte	0x1e
 16381 2573 91       		.byte	0x91
 16382 2574 40       		.sleb128 -64
 16383 2575 06       		.byte	0x6
 16384 2576 23       		.byte	0x23
 16385 2577 808002   		.uleb128 0x8000
 16386 257a 40       		.byte	0x40
 16387 257b 25       		.byte	0x25
 16388 257c 91       		.byte	0x91
 16389 257d 40       		.sleb128 -64
 16390 257e 06       		.byte	0x6
 16391 257f 23       		.byte	0x23
 16392 2580 808002   		.uleb128 0x8000
 16393 2583 40       		.byte	0x40
 16394 2584 25       		.byte	0x25
 16395 2585 1E       		.byte	0x1e
 16396 2586 22       		.byte	0x22
 16397 2587 9F       		.byte	0x9f
 16398 2588 6E020000 		.4byte	.LVL857
 16399 258c 70020000 		.4byte	.LVL858
 16400 2590 3000     		.2byte	0x30
 16401 2592 73       		.byte	0x73
 16402 2593 00       		.sleb128 0
 16403 2594 32       		.byte	0x32
 16404 2595 24       		.byte	0x24
 16405 2596 77       		.byte	0x77
 16406 2597 00       		.sleb128 0
 16407 2598 1E       		.byte	0x1e
 16408 2599 23       		.byte	0x23
 16409 259a 808002   		.uleb128 0x8000
 16410 259d 40       		.byte	0x40
 16411 259e 25       		.byte	0x25
 16412 259f 73       		.byte	0x73
 16413 25a0 00       		.sleb128 0
 16414 25a1 32       		.byte	0x32
 16415 25a2 24       		.byte	0x24
 16416 25a3 77       		.byte	0x77
 16417 25a4 00       		.sleb128 0
 16418 25a5 1E       		.byte	0x1e
 16419 25a6 23       		.byte	0x23
 16420 25a7 808002   		.uleb128 0x8000
ARM GAS  C:\Users\Rajesh\AppData\Local\Temp\ccMJoliC.s 			page 330


 16421 25aa 40       		.byte	0x40
 16422 25ab 25       		.byte	0x25
 16423 25ac 1E       		.byte	0x1e
 16424 25ad 91       		.byte	0x91
 16425 25ae 40       		.sleb128 -64
 16426 25af 06       		.byte	0x6
 16427 25b0 23       		.byte	0x23
 16428 25b1 808002   		.uleb128 0x8000
 16429 25b4 40       		.byte	0x40
 16430 25b5 25       		.byte	0x25
 16431 25b6 91       		.byte	0x91
 16432 25b7 40       		.sleb128 -64
 16433 25b8 06       		.byte	0x6
 16434 25b9 23       		.byte	0x23
 16435 25ba 808002   		.uleb128 0x8000
 16436 25bd 40       		.byte	0x40
 16437 25be 25       		.byte	0x25
 16438 25bf 1E       		.byte	0x1e
 16439 25c0 22       		.byte	0x22
 16440 25c1 9F       		.byte	0x9f
 16441 25c2 70020000 		.4byte	.LVL858
 16442 25c6 80020000 		.4byte	.LVL861
 16443 25ca 2E00     		.2byte	0x2e
 16444 25cc 77       		.byte	0x77
 16445 25cd 00       		.sleb128 0
 16446 25ce 0A       		.byte	0xa
 16447 25cf 2003     		.2byte	0x320
 16448 25d1 1E       		.byte	0x1e
 16449 25d2 23       		.byte	0x23
 16450 25d3 808002   		.uleb128 0x8000
 16451 25d6 40       		.byte	0x40
 16452 25d7 25       		.byte	0x25
 16453 25d8 77       		.byte	0x77
 16454 25d9 00       		.sleb128 0
 16455 25da 0A       		.byte	0xa
 16456 25db 2003     		.2byte	0x320
 16457 25dd 1E       		.byte	0x1e
 16458 25de 23       		.byte	0x23
 16459 25df 808002   		.uleb128 0x8000
 16460 25e2 40       		.byte	0x40
 16461 25e3 25       		.byte	0x25
 16462 25e4 1E       		.byte	0x1e
 16463 25e5 91       		.byte	0x91
 16464 25e6 40       		.sleb128 -64
 16465 25e7 06       		.byte	0x6
 16466 25e8 23       		.byte	0x23
 16467 25e9 808002   		.uleb128 0x8000
 16468 25ec 40       		.byte	0x40
 16469 25ed 25       		.byte	0x25
 16470 25ee 91       		.byte	0x91
 16471 25ef 40       		.sleb128 -64
 16472 25f0 06       		.byte	0x6
 16473 25f1 23       		.byte	0x23
 16474 25f2 808002   		.uleb128 0x8000
 16475 25f5 40       		.byte	0x40
 16476 25f6 25       		.byte	0x25
 16477 25f7 1E       		.byte	0x1e
ARM GAS  C:\Users\Rajesh\AppData\Local\Temp\ccMJoliC.s 			page 331


 16478 25f8 22       		.byte	0x22
 16479 25f9 9F       		.byte	0x9f
 16480 25fa 00000000 		.4byte	0
 16481 25fe 00000000 		.4byte	0
 16482              	.LLST151:
 16483 2602 B6010000 		.4byte	.LVL820
 16484 2606 BA010000 		.4byte	.LVL822
 16485 260a 0100     		.2byte	0x1
 16486 260c 50       		.byte	0x50
 16487 260d BA010000 		.4byte	.LVL822
 16488 2611 BF010000 		.4byte	.LVL823-1
 16489 2615 0300     		.2byte	0x3
 16490 2617 70       		.byte	0x70
 16491 2618 4E       		.sleb128 -50
 16492 2619 9F       		.byte	0x9f
 16493 261a 00000000 		.4byte	0
 16494 261e 00000000 		.4byte	0
 16495              	.LLST152:
 16496 2622 32020000 		.4byte	.LVL845
 16497 2626 38020000 		.4byte	.LVL846
 16498 262a 0100     		.2byte	0x1
 16499 262c 50       		.byte	0x50
 16500 262d 00000000 		.4byte	0
 16501 2631 00000000 		.4byte	0
 16502              	.LLST153:
 16503 2635 28000000 		.4byte	.LVL736
 16504 2639 2D000000 		.4byte	.LVL738-1
 16505 263d 0100     		.2byte	0x1
 16506 263f 53       		.byte	0x53
 16507 2640 2D000000 		.4byte	.LVL738-1
 16508 2644 B0020000 		.4byte	.LFE24
 16509 2648 0300     		.2byte	0x3
 16510 264a 91       		.byte	0x91
 16511 264b BC7F     		.sleb128 -68
 16512 264d 00000000 		.4byte	0
 16513 2651 00000000 		.4byte	0
 16514              	.LLST154:
 16515 2655 18020000 		.4byte	.LVL837
 16516 2659 1C020000 		.4byte	.LVL839
 16517 265d 0100     		.2byte	0x1
 16518 265f 50       		.byte	0x50
 16519 2660 1C020000 		.4byte	.LVL839
 16520 2664 1E020000 		.4byte	.LVL840
 16521 2668 0400     		.2byte	0x4
 16522 266a 70       		.byte	0x70
 16523 266b 8B7E     		.sleb128 -245
 16524 266d 9F       		.byte	0x9f
 16525 266e 1E020000 		.4byte	.LVL840
 16526 2672 25020000 		.4byte	.LVL841-1
 16527 2676 0400     		.2byte	0x4
 16528 2678 70       		.byte	0x70
 16529 2679 8C7C     		.sleb128 -500
 16530 267b 9F       		.byte	0x9f
 16531 267c 26020000 		.4byte	.LVL841
 16532 2680 2C020000 		.4byte	.LVL843
 16533 2684 0100     		.2byte	0x1
 16534 2686 50       		.byte	0x50
ARM GAS  C:\Users\Rajesh\AppData\Local\Temp\ccMJoliC.s 			page 332


 16535 2687 00000000 		.4byte	0
 16536 268b 00000000 		.4byte	0
 16537              	.LLST155:
 16538 268f 88000000 		.4byte	.LVL756
 16539 2693 94000000 		.4byte	.LVL758
 16540 2697 0200     		.2byte	0x2
 16541 2699 33       		.byte	0x33
 16542 269a 9F       		.byte	0x9f
 16543 269b 94000000 		.4byte	.LVL758
 16544 269f A9000000 		.4byte	.LVL763-1
 16545 26a3 0100     		.2byte	0x1
 16546 26a5 53       		.byte	0x53
 16547 26a6 00000000 		.4byte	0
 16548 26aa 00000000 		.4byte	0
 16549              	.LLST156:
 16550 26ae 76000000 		.4byte	.LVL752
 16551 26b2 84000000 		.4byte	.LVL755
 16552 26b6 0100     		.2byte	0x1
 16553 26b8 50       		.byte	0x50
 16554 26b9 84000000 		.4byte	.LVL755
 16555 26bd D0000000 		.4byte	.LVL773
 16556 26c1 0200     		.2byte	0x2
 16557 26c3 91       		.byte	0x91
 16558 26c4 40       		.sleb128 -64
 16559 26c5 00000000 		.4byte	0
 16560 26c9 00000000 		.4byte	0
 16561              	.LLST157:
 16562 26cd 88000000 		.4byte	.LVL756
 16563 26d1 9A000000 		.4byte	.LVL759
 16564 26d5 0100     		.2byte	0x1
 16565 26d7 50       		.byte	0x50
 16566 26d8 00000000 		.4byte	0
 16567 26dc 00000000 		.4byte	0
 16568              	.LLST158:
 16569 26e0 9E000000 		.4byte	.LVL760
 16570 26e4 A0000000 		.4byte	.LVL761
 16571 26e8 0100     		.2byte	0x1
 16572 26ea 50       		.byte	0x50
 16573 26eb A0000000 		.4byte	.LVL761
 16574 26ef A2000000 		.4byte	.LVL762
 16575 26f3 0400     		.2byte	0x4
 16576 26f5 70       		.byte	0x70
 16577 26f6 8B7E     		.sleb128 -245
 16578 26f8 9F       		.byte	0x9f
 16579 26f9 A2000000 		.4byte	.LVL762
 16580 26fd A9000000 		.4byte	.LVL763-1
 16581 2701 0400     		.2byte	0x4
 16582 2703 70       		.byte	0x70
 16583 2704 8C7C     		.sleb128 -500
 16584 2706 9F       		.byte	0x9f
 16585 2707 AA000000 		.4byte	.LVL763
 16586 270b B0000000 		.4byte	.LVL765
 16587 270f 0100     		.2byte	0x1
 16588 2711 50       		.byte	0x50
 16589 2712 B0000000 		.4byte	.LVL765
 16590 2716 B2000000 		.4byte	.LVL766
 16591 271a 0400     		.2byte	0x4
ARM GAS  C:\Users\Rajesh\AppData\Local\Temp\ccMJoliC.s 			page 333


 16592 271c 70       		.byte	0x70
 16593 271d 8B7E     		.sleb128 -245
 16594 271f 9F       		.byte	0x9f
 16595 2720 B2000000 		.4byte	.LVL766
 16596 2724 B9000000 		.4byte	.LVL767-1
 16597 2728 0400     		.2byte	0x4
 16598 272a 70       		.byte	0x70
 16599 272b 8C7C     		.sleb128 -500
 16600 272d 9F       		.byte	0x9f
 16601 272e BE000000 		.4byte	.LVL768
 16602 2732 D0000000 		.4byte	.LVL773
 16603 2736 0100     		.2byte	0x1
 16604 2738 50       		.byte	0x50
 16605 2739 D0000000 		.4byte	.LVL773
 16606 273d B0020000 		.4byte	.LFE24
 16607 2741 0200     		.2byte	0x2
 16608 2743 91       		.byte	0x91
 16609 2744 4C       		.sleb128 -52
 16610 2745 00000000 		.4byte	0
 16611 2749 00000000 		.4byte	0
 16612              	.LLST159:
 16613 274d 6C000000 		.4byte	.LVL749
 16614 2751 73000000 		.4byte	.LVL751-1
 16615 2755 0100     		.2byte	0x1
 16616 2757 53       		.byte	0x53
 16617 2758 73000000 		.4byte	.LVL751-1
 16618 275c 92000000 		.4byte	.LVL757
 16619 2760 0100     		.2byte	0x1
 16620 2762 5A       		.byte	0x5a
 16621 2763 92000000 		.4byte	.LVL757
 16622 2767 94000000 		.4byte	.LVL758
 16623 276b 0100     		.2byte	0x1
 16624 276d 53       		.byte	0x53
 16625 276e 94000000 		.4byte	.LVL758
 16626 2772 CC000000 		.4byte	.LVL772
 16627 2776 0100     		.2byte	0x1
 16628 2778 5A       		.byte	0x5a
 16629 2779 00000000 		.4byte	0
 16630 277d 00000000 		.4byte	0
 16631              	.LLST160:
 16632 2781 82000000 		.4byte	.LVL754
 16633 2785 87000000 		.4byte	.LVL756-1
 16634 2789 0100     		.2byte	0x1
 16635 278b 52       		.byte	0x52
 16636 278c 00000000 		.4byte	0
 16637 2790 00000000 		.4byte	0
 16638              	.LLST161:
 16639 2794 00000000 		.4byte	.LVL866
 16640 2798 16000000 		.4byte	.LVL870
 16641 279c 0100     		.2byte	0x1
 16642 279e 50       		.byte	0x50
 16643 279f 16000000 		.4byte	.LVL870
 16644 27a3 D8020000 		.4byte	.LVL924
 16645 27a7 0100     		.2byte	0x1
 16646 27a9 54       		.byte	0x54
 16647 27aa D8020000 		.4byte	.LVL924
 16648 27ae E0020000 		.4byte	.LFE25
ARM GAS  C:\Users\Rajesh\AppData\Local\Temp\ccMJoliC.s 			page 334


 16649 27b2 0400     		.2byte	0x4
 16650 27b4 F3       		.byte	0xf3
 16651 27b5 01       		.uleb128 0x1
 16652 27b6 50       		.byte	0x50
 16653 27b7 9F       		.byte	0x9f
 16654 27b8 00000000 		.4byte	0
 16655 27bc 00000000 		.4byte	0
 16656              	.LLST162:
 16657 27c0 00000000 		.4byte	.LVL866
 16658 27c4 36000000 		.4byte	.LVL872
 16659 27c8 0100     		.2byte	0x1
 16660 27ca 51       		.byte	0x51
 16661 27cb 36000000 		.4byte	.LVL872
 16662 27cf E0020000 		.4byte	.LFE25
 16663 27d3 0400     		.2byte	0x4
 16664 27d5 F3       		.byte	0xf3
 16665 27d6 01       		.uleb128 0x1
 16666 27d7 51       		.byte	0x51
 16667 27d8 9F       		.byte	0x9f
 16668 27d9 00000000 		.4byte	0
 16669 27dd 00000000 		.4byte	0
 16670              	.LLST163:
 16671 27e1 00000000 		.4byte	.LVL866
 16672 27e5 14000000 		.4byte	.LVL869
 16673 27e9 0100     		.2byte	0x1
 16674 27eb 52       		.byte	0x52
 16675 27ec 14000000 		.4byte	.LVL869
 16676 27f0 E0020000 		.4byte	.LFE25
 16677 27f4 0300     		.2byte	0x3
 16678 27f6 91       		.byte	0x91
 16679 27f7 BC7F     		.sleb128 -68
 16680 27f9 00000000 		.4byte	0
 16681 27fd 00000000 		.4byte	0
 16682              	.LLST164:
 16683 2801 00000000 		.4byte	.LVL866
 16684 2805 12000000 		.4byte	.LVL868
 16685 2809 0100     		.2byte	0x1
 16686 280b 53       		.byte	0x53
 16687 280c 12000000 		.4byte	.LVL868
 16688 2810 E0020000 		.4byte	.LFE25
 16689 2814 0400     		.2byte	0x4
 16690 2816 F3       		.byte	0xf3
 16691 2817 01       		.uleb128 0x1
 16692 2818 53       		.byte	0x53
 16693 2819 9F       		.byte	0x9f
 16694 281a 00000000 		.4byte	0
 16695 281e 00000000 		.4byte	0
 16696              	.LLST165:
 16697 2822 10000000 		.4byte	.LVL867
 16698 2826 94000000 		.4byte	.LVL875
 16699 282a 0200     		.2byte	0x2
 16700 282c 30       		.byte	0x30
 16701 282d 9F       		.byte	0x9f
 16702 282e 94000000 		.4byte	.LVL875
 16703 2832 A6000000 		.4byte	.LVL876
 16704 2836 0100     		.2byte	0x1
 16705 2838 50       		.byte	0x50
ARM GAS  C:\Users\Rajesh\AppData\Local\Temp\ccMJoliC.s 			page 335


 16706 2839 AA000000 		.4byte	.LVL877
 16707 283d BE000000 		.4byte	.LVL878
 16708 2841 0100     		.2byte	0x1
 16709 2843 50       		.byte	0x50
 16710 2844 C2000000 		.4byte	.LVL879
 16711 2848 00010000 		.4byte	.LVL881
 16712 284c 0100     		.2byte	0x1
 16713 284e 50       		.byte	0x50
 16714 284f 04010000 		.4byte	.LVL882
 16715 2853 1C010000 		.4byte	.LVL883
 16716 2857 0100     		.2byte	0x1
 16717 2859 50       		.byte	0x50
 16718 285a 20010000 		.4byte	.LVL884
 16719 285e 2A010000 		.4byte	.LVL885
 16720 2862 0100     		.2byte	0x1
 16721 2864 50       		.byte	0x50
 16722 2865 2E010000 		.4byte	.LVL886
 16723 2869 3E010000 		.4byte	.LVL887
 16724 286d 0100     		.2byte	0x1
 16725 286f 50       		.byte	0x50
 16726 2870 42010000 		.4byte	.LVL888
 16727 2874 4C010000 		.4byte	.LVL889
 16728 2878 0100     		.2byte	0x1
 16729 287a 50       		.byte	0x50
 16730 287b 50010000 		.4byte	.LVL890
 16731 287f 88010000 		.4byte	.LVL895
 16732 2883 0100     		.2byte	0x1
 16733 2885 50       		.byte	0x50
 16734 2886 8C010000 		.4byte	.LVL896
 16735 288a A0010000 		.4byte	.LVL897
 16736 288e 0100     		.2byte	0x1
 16737 2890 50       		.byte	0x50
 16738 2891 AA010000 		.4byte	.LVL900
 16739 2895 AC010000 		.4byte	.LVL901
 16740 2899 0100     		.2byte	0x1
 16741 289b 50       		.byte	0x50
 16742 289c B6010000 		.4byte	.LVL902
 16743 28a0 52020000 		.4byte	.LVL908
 16744 28a4 0100     		.2byte	0x1
 16745 28a6 50       		.byte	0x50
 16746 28a7 56020000 		.4byte	.LVL909
 16747 28ab E0020000 		.4byte	.LFE25
 16748 28af 0100     		.2byte	0x1
 16749 28b1 50       		.byte	0x50
 16750 28b2 00000000 		.4byte	0
 16751 28b6 00000000 		.4byte	0
 16752              	.LLST166:
 16753 28ba 82000000 		.4byte	.LVL874
 16754 28be D8020000 		.4byte	.LVL929
 16755 28c2 0100     		.2byte	0x1
 16756 28c4 5A       		.byte	0x5a
 16757 28c5 00000000 		.4byte	0
 16758 28c9 00000000 		.4byte	0
 16759              	.LLST167:
 16760 28cd 10000000 		.4byte	.LVL867
 16761 28d1 F0000000 		.4byte	.LVL880
 16762 28d5 0200     		.2byte	0x2
ARM GAS  C:\Users\Rajesh\AppData\Local\Temp\ccMJoliC.s 			page 336


 16763 28d7 30       		.byte	0x30
 16764 28d8 9F       		.byte	0x9f
 16765 28d9 F0000000 		.4byte	.LVL880
 16766 28dd D8020000 		.4byte	.LVL928
 16767 28e1 0100     		.2byte	0x1
 16768 28e3 59       		.byte	0x59
 16769 28e4 00000000 		.4byte	0
 16770 28e8 00000000 		.4byte	0
 16771              	.LLST168:
 16772 28ec 10000000 		.4byte	.LVL867
 16773 28f0 7E010000 		.4byte	.LVL894
 16774 28f4 0200     		.2byte	0x2
 16775 28f6 30       		.byte	0x30
 16776 28f7 9F       		.byte	0x9f
 16777 28f8 7E010000 		.4byte	.LVL894
 16778 28fc D8020000 		.4byte	.LVL926
 16779 2900 0100     		.2byte	0x1
 16780 2902 56       		.byte	0x56
 16781 2903 00000000 		.4byte	0
 16782 2907 00000000 		.4byte	0
 16783              	.LLST169:
 16784 290b 10000000 		.4byte	.LVL867
 16785 290f D2010000 		.4byte	.LVL907
 16786 2913 0200     		.2byte	0x2
 16787 2915 30       		.byte	0x30
 16788 2916 9F       		.byte	0x9f
 16789 2917 D2010000 		.4byte	.LVL907
 16790 291b D8020000 		.4byte	.LVL925
 16791 291f 0100     		.2byte	0x1
 16792 2921 55       		.byte	0x55
 16793 2922 00000000 		.4byte	0
 16794 2926 00000000 		.4byte	0
 16795              	.LLST170:
 16796 292a A8010000 		.4byte	.LVL899
 16797 292e AA010000 		.4byte	.LVL900
 16798 2932 0100     		.2byte	0x1
 16799 2934 50       		.byte	0x50
 16800 2935 AC010000 		.4byte	.LVL901
 16801 2939 C2010000 		.4byte	.LVL903
 16802 293d 0100     		.2byte	0x1
 16803 293f 55       		.byte	0x55
 16804 2940 CC010000 		.4byte	.LVL904
 16805 2944 CE010000 		.4byte	.LVL905
 16806 2948 0100     		.2byte	0x1
 16807 294a 55       		.byte	0x55
 16808 294b D0010000 		.4byte	.LVL906
 16809 294f D2010000 		.4byte	.LVL907
 16810 2953 0100     		.2byte	0x1
 16811 2955 55       		.byte	0x55
 16812 2956 00000000 		.4byte	0
 16813 295a 00000000 		.4byte	0
 16814              	.LLST171:
 16815 295e 2C000000 		.4byte	.LVL871
 16816 2962 3A000000 		.4byte	.LVL873
 16817 2966 0200     		.2byte	0x2
 16818 2968 30       		.byte	0x30
 16819 2969 9F       		.byte	0x9f
ARM GAS  C:\Users\Rajesh\AppData\Local\Temp\ccMJoliC.s 			page 337


 16820 296a 3A000000 		.4byte	.LVL873
 16821 296e D8020000 		.4byte	.LVL927
 16822 2972 0100     		.2byte	0x1
 16823 2974 57       		.byte	0x57
 16824 2975 00000000 		.4byte	0
 16825 2979 00000000 		.4byte	0
 16826              	.LLST172:
 16827 297d 78020000 		.4byte	.LVL910
 16828 2981 84020000 		.4byte	.LVL911
 16829 2985 0100     		.2byte	0x1
 16830 2987 52       		.byte	0x52
 16831 2988 84020000 		.4byte	.LVL911
 16832 298c 92020000 		.4byte	.LVL912
 16833 2990 0200     		.2byte	0x2
 16834 2992 74       		.byte	0x74
 16835 2993 2E       		.sleb128 46
 16836 2994 92020000 		.4byte	.LVL912
 16837 2998 94020000 		.4byte	.LVL913
 16838 299c 0100     		.2byte	0x1
 16839 299e 52       		.byte	0x52
 16840 299f 94020000 		.4byte	.LVL913
 16841 29a3 96020000 		.4byte	.LVL914
 16842 29a7 0500     		.2byte	0x5
 16843 29a9 74       		.byte	0x74
 16844 29aa 00       		.sleb128 0
 16845 29ab 73       		.byte	0x73
 16846 29ac 00       		.sleb128 0
 16847 29ad 22       		.byte	0x22
 16848 29ae 96020000 		.4byte	.LVL914
 16849 29b2 98020000 		.4byte	.LVL915
 16850 29b6 0200     		.2byte	0x2
 16851 29b8 74       		.byte	0x74
 16852 29b9 2E       		.sleb128 46
 16853 29ba 98020000 		.4byte	.LVL915
 16854 29be A0020000 		.4byte	.LVL916
 16855 29c2 0100     		.2byte	0x1
 16856 29c4 52       		.byte	0x52
 16857 29c5 A0020000 		.4byte	.LVL916
 16858 29c9 B8020000 		.4byte	.LVL917
 16859 29cd 0200     		.2byte	0x2
 16860 29cf 74       		.byte	0x74
 16861 29d0 2F       		.sleb128 47
 16862 29d1 B8020000 		.4byte	.LVL917
 16863 29d5 CA020000 		.4byte	.LVL918
 16864 29d9 0100     		.2byte	0x1
 16865 29db 52       		.byte	0x52
 16866 29dc CA020000 		.4byte	.LVL918
 16867 29e0 CC020000 		.4byte	.LVL919
 16868 29e4 0200     		.2byte	0x2
 16869 29e6 74       		.byte	0x74
 16870 29e7 30       		.sleb128 48
 16871 29e8 CC020000 		.4byte	.LVL919
 16872 29ec CE020000 		.4byte	.LVL920
 16873 29f0 0100     		.2byte	0x1
 16874 29f2 52       		.byte	0x52
 16875 29f3 CE020000 		.4byte	.LVL920
 16876 29f7 D0020000 		.4byte	.LVL921
ARM GAS  C:\Users\Rajesh\AppData\Local\Temp\ccMJoliC.s 			page 338


 16877 29fb 0200     		.2byte	0x2
 16878 29fd 74       		.byte	0x74
 16879 29fe 30       		.sleb128 48
 16880 29ff D0020000 		.4byte	.LVL921
 16881 2a03 D6020000 		.4byte	.LVL923
 16882 2a07 0100     		.2byte	0x1
 16883 2a09 52       		.byte	0x52
 16884 2a0a 00000000 		.4byte	0
 16885 2a0e 00000000 		.4byte	0
 16886              	.LLST173:
 16887 2a12 5C010000 		.4byte	.LVL891
 16888 2a16 70010000 		.4byte	.LVL892
 16889 2a1a 0100     		.2byte	0x1
 16890 2a1c 53       		.byte	0x53
 16891 2a1d 78010000 		.4byte	.LVL893
 16892 2a21 7E010000 		.4byte	.LVL894
 16893 2a25 0100     		.2byte	0x1
 16894 2a27 53       		.byte	0x53
 16895 2a28 00000000 		.4byte	0
 16896 2a2c 00000000 		.4byte	0
 16897              		.section	.debug_aranges,"",%progbits
 16898 0000 DC000000 		.4byte	0xdc
 16899 0004 0200     		.2byte	0x2
 16900 0006 00000000 		.4byte	.Ldebug_info0
 16901 000a 04       		.byte	0x4
 16902 000b 00       		.byte	0
 16903 000c 0000     		.2byte	0
 16904 000e 0000     		.2byte	0
 16905 0010 00000000 		.4byte	.LFB1
 16906 0014 22000000 		.4byte	.LFE1-.LFB1
 16907 0018 00000000 		.4byte	.LFB2
 16908 001c 44000000 		.4byte	.LFE2-.LFB2
 16909 0020 00000000 		.4byte	.LFB3
 16910 0024 08000000 		.4byte	.LFE3-.LFB3
 16911 0028 00000000 		.4byte	.LFB4
 16912 002c 08000000 		.4byte	.LFE4-.LFB4
 16913 0030 00000000 		.4byte	.LFB5
 16914 0034 2A000000 		.4byte	.LFE5-.LFB5
 16915 0038 00000000 		.4byte	.LFB6
 16916 003c 24000000 		.4byte	.LFE6-.LFB6
 16917 0040 00000000 		.4byte	.LFB7
 16918 0044 58000000 		.4byte	.LFE7-.LFB7
 16919 0048 00000000 		.4byte	.LFB8
 16920 004c D0050000 		.4byte	.LFE8-.LFB8
 16921 0050 00000000 		.4byte	.LFB9
 16922 0054 10000000 		.4byte	.LFE9-.LFB9
 16923 0058 00000000 		.4byte	.LFB10
 16924 005c 2A000000 		.4byte	.LFE10-.LFB10
 16925 0060 00000000 		.4byte	.LFB11
 16926 0064 0E000000 		.4byte	.LFE11-.LFB11
 16927 0068 00000000 		.4byte	.LFB12
 16928 006c 34000000 		.4byte	.LFE12-.LFB12
 16929 0070 00000000 		.4byte	.LFB13
 16930 0074 26000000 		.4byte	.LFE13-.LFB13
 16931 0078 00000000 		.4byte	.LFB14
 16932 007c 36010000 		.4byte	.LFE14-.LFB14
 16933 0080 00000000 		.4byte	.LFB15
ARM GAS  C:\Users\Rajesh\AppData\Local\Temp\ccMJoliC.s 			page 339


 16934 0084 28010000 		.4byte	.LFE15-.LFB15
 16935 0088 00000000 		.4byte	.LFB16
 16936 008c 00030000 		.4byte	.LFE16-.LFB16
 16937 0090 00000000 		.4byte	.LFB17
 16938 0094 44000000 		.4byte	.LFE17-.LFB17
 16939 0098 00000000 		.4byte	.LFB18
 16940 009c 10010000 		.4byte	.LFE18-.LFB18
 16941 00a0 00000000 		.4byte	.LFB19
 16942 00a4 00010000 		.4byte	.LFE19-.LFB19
 16943 00a8 00000000 		.4byte	.LFB20
 16944 00ac BA000000 		.4byte	.LFE20-.LFB20
 16945 00b0 00000000 		.4byte	.LFB21
 16946 00b4 34000000 		.4byte	.LFE21-.LFB21
 16947 00b8 00000000 		.4byte	.LFB22
 16948 00bc 22000000 		.4byte	.LFE22-.LFB22
 16949 00c0 00000000 		.4byte	.LFB23
 16950 00c4 00010000 		.4byte	.LFE23-.LFB23
 16951 00c8 00000000 		.4byte	.LFB24
 16952 00cc B0020000 		.4byte	.LFE24-.LFB24
 16953 00d0 00000000 		.4byte	.LFB25
 16954 00d4 E0020000 		.4byte	.LFE25-.LFB25
 16955 00d8 00000000 		.4byte	0
 16956 00dc 00000000 		.4byte	0
 16957              		.section	.debug_ranges,"",%progbits
 16958              	.Ldebug_ranges0:
 16959 0000 00000000 		.4byte	.LFB1
 16960 0004 22000000 		.4byte	.LFE1
 16961 0008 00000000 		.4byte	.LFB2
 16962 000c 44000000 		.4byte	.LFE2
 16963 0010 00000000 		.4byte	.LFB3
 16964 0014 08000000 		.4byte	.LFE3
 16965 0018 00000000 		.4byte	.LFB4
 16966 001c 08000000 		.4byte	.LFE4
 16967 0020 00000000 		.4byte	.LFB5
 16968 0024 2A000000 		.4byte	.LFE5
 16969 0028 00000000 		.4byte	.LFB6
 16970 002c 24000000 		.4byte	.LFE6
 16971 0030 00000000 		.4byte	.LFB7
 16972 0034 58000000 		.4byte	.LFE7
 16973 0038 00000000 		.4byte	.LFB8
 16974 003c D0050000 		.4byte	.LFE8
 16975 0040 00000000 		.4byte	.LFB9
 16976 0044 10000000 		.4byte	.LFE9
 16977 0048 00000000 		.4byte	.LFB10
 16978 004c 2A000000 		.4byte	.LFE10
 16979 0050 00000000 		.4byte	.LFB11
 16980 0054 0E000000 		.4byte	.LFE11
 16981 0058 00000000 		.4byte	.LFB12
 16982 005c 34000000 		.4byte	.LFE12
 16983 0060 00000000 		.4byte	.LFB13
 16984 0064 26000000 		.4byte	.LFE13
 16985 0068 00000000 		.4byte	.LFB14
 16986 006c 36010000 		.4byte	.LFE14
 16987 0070 00000000 		.4byte	.LFB15
 16988 0074 28010000 		.4byte	.LFE15
 16989 0078 00000000 		.4byte	.LFB16
 16990 007c 00030000 		.4byte	.LFE16
ARM GAS  C:\Users\Rajesh\AppData\Local\Temp\ccMJoliC.s 			page 340


 16991 0080 00000000 		.4byte	.LFB17
 16992 0084 44000000 		.4byte	.LFE17
 16993 0088 00000000 		.4byte	.LFB18
 16994 008c 10010000 		.4byte	.LFE18
 16995 0090 00000000 		.4byte	.LFB19
 16996 0094 00010000 		.4byte	.LFE19
 16997 0098 00000000 		.4byte	.LFB20
 16998 009c BA000000 		.4byte	.LFE20
 16999 00a0 00000000 		.4byte	.LFB21
 17000 00a4 34000000 		.4byte	.LFE21
 17001 00a8 00000000 		.4byte	.LFB22
 17002 00ac 22000000 		.4byte	.LFE22
 17003 00b0 00000000 		.4byte	.LFB23
 17004 00b4 00010000 		.4byte	.LFE23
 17005 00b8 00000000 		.4byte	.LFB24
 17006 00bc B0020000 		.4byte	.LFE24
 17007 00c0 00000000 		.4byte	.LFB25
 17008 00c4 E0020000 		.4byte	.LFE25
 17009 00c8 00000000 		.4byte	0
 17010 00cc 00000000 		.4byte	0
 17011              		.section	.debug_line,"",%progbits
 17012              	.Ldebug_line0:
 17013 0000 97080000 		.section	.debug_str,"MS",%progbits,1
 17013      02004502 
 17013      00000201 
 17013      FB0E0D00 
 17013      01010101 
 17014              	.LASF168:
 17015 0000 6D735F62 		.ascii	"ms_byte\000"
 17015      79746500 
 17016              	.LASF182:
 17017 0008 50726552 		.ascii	"PreRangeEncodedTimeOut\000"
 17017      616E6765 
 17017      456E636F 
 17017      64656454 
 17017      696D654F 
 17018              	.LASF336:
 17019 001f 564C3533 		.ascii	"VL53L0X_perform_phase_calibration\000"
 17019      4C30585F 
 17019      70657266 
 17019      6F726D5F 
 17019      70686173 
 17020              	.LASF141:
 17021 0041 76637365 		.ascii	"vcsel_period_reg\000"
 17021      6C5F7065 
 17021      72696F64 
 17021      5F726567 
 17021      00
 17022              	.LASF306:
 17023 0052 44657669 		.ascii	"DeviceRangeStatus\000"
 17023      63655261 
 17023      6E676553 
 17023      74617475 
 17023      7300
 17024              	.LASF147:
 17025 0064 7374726F 		.ascii	"strobe\000"
 17025      626500
ARM GAS  C:\Users\Rajesh\AppData\Local\Temp\ccMJoliC.s 			page 341


 17026              	.LASF172:
 17027 006b 6D616372 		.ascii	"macro_period_ns\000"
 17027      6F5F7065 
 17027      72696F64 
 17027      5F6E7300 
 17028              	.LASF342:
 17029 007b 4170695C 		.ascii	"Api\\core\\src\\vl53l0x_api_core.c\000"
 17029      636F7265 
 17029      5C737263 
 17029      5C766C35 
 17029      336C3078 
 17030              	.LASF54:
 17031 009b 5369676E 		.ascii	"SignalRateRtnMegaCps\000"
 17031      616C5261 
 17031      74655274 
 17031      6E4D6567 
 17031      61437073 
 17032              	.LASF89:
 17033 00b0 50617274 		.ascii	"PartUIDLower\000"
 17033      5549444C 
 17033      6F776572 
 17033      00
 17034              	.LASF128:
 17035 00bd 564C3533 		.ascii	"VL53L0X_DEV\000"
 17035      4C30585F 
 17035      44455600 
 17036              	.LASF34:
 17037 00c9 48697374 		.ascii	"HistogramMode\000"
 17037      6F677261 
 17037      6D4D6F64 
 17037      6500
 17038              	.LASF186:
 17039 00d7 46696E61 		.ascii	"FinalRangeEncodedTimeOut\000"
 17039      6C52616E 
 17039      6765456E 
 17039      636F6465 
 17039      6454696D 
 17040              	.LASF188:
 17041 00f0 7365745F 		.ascii	"set_sequence_step_timeout\000"
 17041      73657175 
 17041      656E6365 
 17041      5F737465 
 17041      705F7469 
 17042              	.LASF260:
 17043 010a 646D6178 		.ascii	"dmaxAmbient\000"
 17043      416D6269 
 17043      656E7400 
 17044              	.LASF37:
 17045 0116 5854616C 		.ascii	"XTalkCompensationEnable\000"
 17045      6B436F6D 
 17045      70656E73 
 17045      6174696F 
 17045      6E456E61 
 17046              	.LASF286:
 17047 012e 7854616C 		.ascii	"xTalkCorrection\000"
 17047      6B436F72 
 17047      72656374 
ARM GAS  C:\Users\Rajesh\AppData\Local\Temp\ccMJoliC.s 			page 342


 17047      696F6E00 
 17048              	.LASF77:
 17049 013e 50726552 		.ascii	"PreRangeVcselPulsePeriod\000"
 17049      616E6765 
 17049      56637365 
 17049      6C50756C 
 17049      73655065 
 17050              	.LASF335:
 17051 0157 564C3533 		.ascii	"VL53L0X_SetMeasurementTimingBudgetMicroSeconds\000"
 17051      4C30585F 
 17051      5365744D 
 17051      65617375 
 17051      72656D65 
 17052              	.LASF234:
 17053 0186 70746F74 		.ascii	"ptotal_signal_rate_mcps\000"
 17053      616C5F73 
 17053      69676E61 
 17053      6C5F7261 
 17053      74655F6D 
 17054              	.LASF209:
 17055 019e 456E644F 		.ascii	"EndOverheadMicroSeconds\000"
 17055      76657268 
 17055      6561644D 
 17055      6963726F 
 17055      5365636F 
 17056              	.LASF250:
 17057 01b6 6D696E53 		.ascii	"minSignalNeeded\000"
 17057      69676E61 
 17057      6C4E6565 
 17057      64656400 
 17058              	.LASF312:
 17059 01c6 52616E67 		.ascii	"RangeIgnoreThresholdflag\000"
 17059      6549676E 
 17059      6F726554 
 17059      68726573 
 17059      686F6C64 
 17060              	.LASF15:
 17061 01df 756E7369 		.ascii	"unsigned int\000"
 17061      676E6564 
 17061      20696E74 
 17061      00
 17062              	.LASF38:
 17063 01ec 5854616C 		.ascii	"XTalkCompensationRangeMilliMeter\000"
 17063      6B436F6D 
 17063      70656E73 
 17063      6174696F 
 17063      6E52616E 
 17064              	.LASF304:
 17065 020d 70726552 		.ascii	"preRangeVcselPCLKS\000"
 17065      616E6765 
 17065      56637365 
 17065      6C50434C 
 17065      4B5300
 17066              	.LASF131:
 17067 0220 53746174 		.ascii	"Status\000"
 17067      757300
 17068              	.LASF219:
ARM GAS  C:\Users\Rajesh\AppData\Local\Temp\ccMJoliC.s 			page 343


 17069 0227 564C3533 		.ascii	"VL53L0X_load_tuning_settings\000"
 17069      4C30585F 
 17069      6C6F6164 
 17069      5F74756E 
 17069      696E675F 
 17070              	.LASF32:
 17071 0244 564C3533 		.ascii	"VL53L0X_PowerModes\000"
 17071      4C30585F 
 17071      506F7765 
 17071      724D6F64 
 17071      657300
 17072              	.LASF84:
 17073 0257 50726F64 		.ascii	"ProductId\000"
 17073      75637449 
 17073      6400
 17074              	.LASF41:
 17075 0261 4C696D69 		.ascii	"LimitChecksEnable\000"
 17075      74436865 
 17075      636B7345 
 17075      6E61626C 
 17075      6500
 17076              	.LASF66:
 17077 0273 4572726F 		.ascii	"ErrorStatus\000"
 17077      72537461 
 17077      74757300 
 17078              	.LASF55:
 17079 027f 416D6269 		.ascii	"AmbientRateRtnMegaCps\000"
 17079      656E7452 
 17079      61746552 
 17079      746E4D65 
 17079      67614370 
 17080              	.LASF8:
 17081 0295 5F5F696E 		.ascii	"__int32_t\000"
 17081      7433325F 
 17081      7400
 17082              	.LASF230:
 17083 029f 7874616C 		.ascii	"xtalkCompEnable\000"
 17083      6B436F6D 
 17083      70456E61 
 17083      626C6500 
 17084              	.LASF192:
 17085 02af 564C3533 		.ascii	"VL53L0X_set_vcsel_pulse_period\000"
 17085      4C30585F 
 17085      7365745F 
 17085      76637365 
 17085      6C5F7075 
 17086              	.LASF176:
 17087 02ce 6765745F 		.ascii	"get_sequence_step_timeout\000"
 17087      73657175 
 17087      656E6365 
 17087      5F737465 
 17087      705F7469 
 17088              	.LASF136:
 17089 02e8 564C3533 		.ascii	"VL53L0X_reverse_bytes\000"
 17089      4C30585F 
 17089      72657665 
 17089      7273655F 
ARM GAS  C:\Users\Rajesh\AppData\Local\Temp\ccMJoliC.s 			page 344


 17089      62797465 
 17090              	.LASF315:
 17091 02fe 5369676E 		.ascii	"SignalRefClipLimitCheckEnable\000"
 17091      616C5265 
 17091      66436C69 
 17091      704C696D 
 17091      69744368 
 17092              	.LASF236:
 17093 031c 746F7461 		.ascii	"totalSignalRate_mcps\000"
 17093      6C536967 
 17093      6E616C52 
 17093      6174655F 
 17093      6D637073 
 17094              	.LASF161:
 17095 0331 504C4C5F 		.ascii	"PLL_period_ps\000"
 17095      70657269 
 17095      6F645F70 
 17095      7300
 17096              	.LASF166:
 17097 033f 656E636F 		.ascii	"encoded_timeout\000"
 17097      6465645F 
 17097      74696D65 
 17097      6F757400 
 17098              	.LASF181:
 17099 034f 54696D65 		.ascii	"TimeoutMicroSeconds\000"
 17099      6F75744D 
 17099      6963726F 
 17099      5365636F 
 17099      6E647300 
 17100              	.LASF127:
 17101 0363 564C3533 		.ascii	"VL53L0X_Dev_t\000"
 17101      4C30585F 
 17101      4465765F 
 17101      7400
 17102              	.LASF257:
 17103 0371 7369676E 		.ascii	"signalLimitTmp\000"
 17103      616C4C69 
 17103      6D697454 
 17103      6D7000
 17104              	.LASF303:
 17105 0380 66696E61 		.ascii	"finalRangeVcselPCLKS\000"
 17105      6C52616E 
 17105      67655663 
 17105      73656C50 
 17105      434C4B53 
 17106              	.LASF44:
 17107 0395 57726170 		.ascii	"WrapAroundCheckEnable\000"
 17107      41726F75 
 17107      6E644368 
 17107      65636B45 
 17107      6E61626C 
 17108              	.LASF103:
 17109 03ab 506F7765 		.ascii	"PowerMode\000"
 17109      724D6F64 
 17109      6500
 17110              	.LASF163:
 17111 03b5 6D616372 		.ascii	"macro_period_ps\000"
ARM GAS  C:\Users\Rajesh\AppData\Local\Temp\ccMJoliC.s 			page 345


 17111      6F5F7065 
 17111      72696F64 
 17111      5F707300 
 17112              	.LASF42:
 17113 03c5 4C696D69 		.ascii	"LimitChecksStatus\000"
 17113      74436865 
 17113      636B7353 
 17113      74617475 
 17113      7300
 17114              	.LASF268:
 17115 03d7 63416D62 		.ascii	"cAmbientEffectiveWidth_centi_ns\000"
 17115      69656E74 
 17115      45666665 
 17115      63746976 
 17115      65576964 
 17116              	.LASF53:
 17117 03f7 52616E67 		.ascii	"RangeDMaxMilliMeter\000"
 17117      65444D61 
 17117      784D696C 
 17117      6C694D65 
 17117      74657200 
 17118              	.LASF293:
 17119 040b 73717231 		.ascii	"sqr1\000"
 17119      00
 17120              	.LASF294:
 17121 0410 73717232 		.ascii	"sqr2\000"
 17121      00
 17122              	.LASF83:
 17123 0415 52657669 		.ascii	"Revision\000"
 17123      73696F6E 
 17123      00
 17124              	.LASF156:
 17125 041e 5369676E 		.ascii	"SignalRateMeasFixed1104_400_mm\000"
 17125      616C5261 
 17125      74654D65 
 17125      61734669 
 17125      78656431 
 17126              	.LASF93:
 17127 043d 50617274 		.ascii	"Part2PartOffsetNVMMicroMeter\000"
 17127      32506172 
 17127      744F6666 
 17127      7365744E 
 17127      564D4D69 
 17128              	.LASF162:
 17129 045a 6D616372 		.ascii	"macro_period_vclks\000"
 17129      6F5F7065 
 17129      72696F64 
 17129      5F76636C 
 17129      6B7300
 17130              	.LASF173:
 17131 046d 74696D65 		.ascii	"timeout_period_mclks\000"
 17131      6F75745F 
 17131      70657269 
 17131      6F645F6D 
 17131      636C6B73 
 17132              	.LASF239:
 17133 0482 7369676D 		.ascii	"sigmaEstimateP1\000"
ARM GAS  C:\Users\Rajesh\AppData\Local\Temp\ccMJoliC.s 			page 346


 17133      61457374 
 17133      696D6174 
 17133      65503100 
 17134              	.LASF240:
 17135 0492 7369676D 		.ascii	"sigmaEstimateP2\000"
 17135      61457374 
 17135      696D6174 
 17135      65503200 
 17136              	.LASF282:
 17137 04a2 7369676D 		.ascii	"sigmaEstimateP3\000"
 17137      61457374 
 17137      696D6174 
 17137      65503300 
 17138              	.LASF24:
 17139 04b2 46697850 		.ascii	"FixPoint1616_t\000"
 17139      6F696E74 
 17139      31363136 
 17139      5F7400
 17140              	.LASF91:
 17141 04c1 564C3533 		.ascii	"VL53L0X_DeviceSpecificParameters_t\000"
 17141      4C30585F 
 17141      44657669 
 17141      63655370 
 17141      65636966 
 17142              	.LASF21:
 17143 04e4 75696E74 		.ascii	"uint32_t\000"
 17143      33325F74 
 17143      00
 17144              	.LASF16:
 17145 04ed 696E7438 		.ascii	"int8_t\000"
 17145      5F7400
 17146              	.LASF267:
 17147 04f4 6350756C 		.ascii	"cPulseEffectiveWidth_centi_ns\000"
 17147      73654566 
 17147      66656374 
 17147      69766557 
 17147      69647468 
 17148              	.LASF203:
 17149 0512 564C3533 		.ascii	"VL53L0X_get_vcsel_pulse_period\000"
 17149      4C30585F 
 17149      6765745F 
 17149      76637365 
 17149      6C5F7075 
 17150              	.LASF138:
 17151 0531 4E657744 		.ascii	"NewDataReady\000"
 17151      61746152 
 17151      65616479 
 17151      00
 17152              	.LASF62:
 17153 053e 48697374 		.ascii	"HistogramType\000"
 17153      6F677261 
 17153      6D547970 
 17153      6500
 17154              	.LASF197:
 17155 054c 4D696E46 		.ascii	"MinFinalVcselPeriodPCLK\000"
 17155      696E616C 
 17155      56637365 
ARM GAS  C:\Users\Rajesh\AppData\Local\Temp\ccMJoliC.s 			page 347


 17155      6C506572 
 17155      696F6450 
 17156              	.LASF274:
 17157 0564 63544F46 		.ascii	"cTOF_per_mm_ps\000"
 17157      5F706572 
 17157      5F6D6D5F 
 17157      707300
 17158              	.LASF170:
 17159 0573 564C3533 		.ascii	"VL53L0X_calc_timeout_mclks\000"
 17159      4C30585F 
 17159      63616C63 
 17159      5F74696D 
 17159      656F7574 
 17160              	.LASF45:
 17161 058e 564C3533 		.ascii	"VL53L0X_DeviceParameters_t\000"
 17161      4C30585F 
 17161      44657669 
 17161      63655061 
 17161      72616D65 
 17162              	.LASF135:
 17163 05a9 696E6465 		.ascii	"index\000"
 17163      7800
 17164              	.LASF25:
 17165 05af 564C3533 		.ascii	"VL53L0X_DeviceError\000"
 17165      4C30585F 
 17165      44657669 
 17165      63654572 
 17165      726F7200 
 17166              	.LASF105:
 17167 05c3 74617267 		.ascii	"targetRefRate\000"
 17167      65745265 
 17167      66526174 
 17167      6500
 17168              	.LASF266:
 17169 05d1 70446D61 		.ascii	"pDmax_mm\000"
 17169      785F6D6D 
 17169      00
 17170              	.LASF18:
 17171 05da 696E7431 		.ascii	"int16_t\000"
 17171      365F7400 
 17172              	.LASF132:
 17173 05e2 74656D70 		.ascii	"tempData\000"
 17173      44617461 
 17173      00
 17174              	.LASF94:
 17175 05eb 50617274 		.ascii	"Part2PartOffsetAdjustmentNVMMicroMeter\000"
 17175      32506172 
 17175      744F6666 
 17175      73657441 
 17175      646A7573 
 17176              	.LASF14:
 17177 0612 6C6F6E67 		.ascii	"long long unsigned int\000"
 17177      206C6F6E 
 17177      6720756E 
 17177      7369676E 
 17177      65642069 
 17178              	.LASF47:
ARM GAS  C:\Users\Rajesh\AppData\Local\Temp\ccMJoliC.s 			page 348


 17179 0629 416D6254 		.ascii	"AmbTuningWindowFactor_K\000"
 17179      756E696E 
 17179      6757696E 
 17179      646F7746 
 17179      6163746F 
 17180              	.LASF338:
 17181 0641 564C3533 		.ascii	"VL53L0X_GetXTalkCompensationEnable\000"
 17181      4C30585F 
 17181      47657458 
 17181      54616C6B 
 17181      436F6D70 
 17182              	.LASF279:
 17183 0664 66696E61 		.ascii	"finalRangeTimeoutMicroSecs\000"
 17183      6C52616E 
 17183      67655469 
 17183      6D656F75 
 17183      744D6963 
 17184              	.LASF222:
 17185 067f 53656C65 		.ascii	"SelectParam\000"
 17185      63745061 
 17185      72616D00 
 17186              	.LASF211:
 17187 068b 5463634F 		.ascii	"TccOverheadMicroSeconds\000"
 17187      76657268 
 17187      6561644D 
 17187      6963726F 
 17187      5365636F 
 17188              	.LASF242:
 17189 06a3 70646D61 		.ascii	"pdmax_mm\000"
 17189      785F6D6D 
 17189      00
 17190              	.LASF71:
 17191 06ac 4F736346 		.ascii	"OscFrequencyMHz\000"
 17191      72657175 
 17191      656E6379 
 17191      4D487A00 
 17192              	.LASF6:
 17193 06bc 5F5F7569 		.ascii	"__uint16_t\000"
 17193      6E743136 
 17193      5F7400
 17194              	.LASF177:
 17195 06c7 53657175 		.ascii	"SequenceStepId\000"
 17195      656E6365 
 17195      53746570 
 17195      496400
 17196              	.LASF158:
 17197 06d6 5369676E 		.ascii	"SignalRateMeasFixed400mmFix\000"
 17197      616C5261 
 17197      74654D65 
 17197      61734669 
 17197      78656434 
 17198              	.LASF171:
 17199 06f2 74696D65 		.ascii	"timeout_period_us\000"
 17199      6F75745F 
 17199      70657269 
 17199      6F645F75 
 17199      7300
ARM GAS  C:\Users\Rajesh\AppData\Local\Temp\ccMJoliC.s 			page 349


 17200              	.LASF247:
 17201 0704 63416D62 		.ascii	"cAmbEffWidthDMax_ns\000"
 17201      45666657 
 17201      69647468 
 17201      444D6178 
 17201      5F6E7300 
 17202              	.LASF68:
 17203 0718 52656653 		.ascii	"RefSpadEnables\000"
 17203      70616445 
 17203      6E61626C 
 17203      657300
 17204              	.LASF110:
 17205 0727 55736549 		.ascii	"UseInternalTuningSettings\000"
 17205      6E746572 
 17205      6E616C54 
 17205      756E696E 
 17205      67536574 
 17206              	.LASF341:
 17207 0741 474E5520 		.ascii	"GNU C11 5.4.1 20160609 (release) [ARM/embedded-5-br"
 17207      43313120 
 17207      352E342E 
 17207      31203230 
 17207      31363036 
 17208 0774 616E6368 		.ascii	"anch revision 237715] -mcpu=cortex-m0 -mthumb -g -O"
 17208      20726576 
 17208      6973696F 
 17208      6E203233 
 17208      37373135 
 17209 07a7 67202D66 		.ascii	"g -ffunction-sections -ffat-lto-objects\000"
 17209      66756E63 
 17209      74696F6E 
 17209      2D736563 
 17209      74696F6E 
 17210              	.LASF133:
 17211 07cf 6D697272 		.ascii	"mirrorIndex\000"
 17211      6F72496E 
 17211      64657800 
 17212              	.LASF111:
 17213 07db 4C696E65 		.ascii	"LinearityCorrectiveGain\000"
 17213      61726974 
 17213      79436F72 
 17213      72656374 
 17213      69766547 
 17214              	.LASF331:
 17215 07f3 564C3533 		.ascii	"VL53L0X_GetVcselPulsePeriod\000"
 17215      4C30585F 
 17215      47657456 
 17215      6373656C 
 17215      50756C73 
 17216              	.LASF190:
 17217 080f 4D737263 		.ascii	"MsrcEncodedTimeOut\000"
 17217      456E636F 
 17217      64656454 
 17217      696D654F 
 17217      757400
 17218              	.LASF56:
 17219 0822 45666665 		.ascii	"EffectiveSpadRtnCount\000"
ARM GAS  C:\Users\Rajesh\AppData\Local\Temp\ccMJoliC.s 			page 350


 17219      63746976 
 17219      65537061 
 17219      6452746E 
 17219      436F756E 
 17220              	.LASF175:
 17221 0838 61637475 		.ascii	"actual_timeout_period_us\000"
 17221      616C5F74 
 17221      696D656F 
 17221      75745F70 
 17221      6572696F 
 17222              	.LASF154:
 17223 0851 44697374 		.ascii	"DistMeasTgtFixed1104_mm\000"
 17223      4D656173 
 17223      54677446 
 17223      69786564 
 17223      31313034 
 17224              	.LASF99:
 17225 0869 53706164 		.ascii	"SpadData\000"
 17225      44617461 
 17225      00
 17226              	.LASF36:
 17227 0872 496E7465 		.ascii	"InterMeasurementPeriodMilliSeconds\000"
 17227      724D6561 
 17227      73757265 
 17227      6D656E74 
 17227      50657269 
 17228              	.LASF85:
 17229 0895 52656665 		.ascii	"ReferenceSpadCount\000"
 17229      72656E63 
 17229      65537061 
 17229      64436F75 
 17229      6E7400
 17230              	.LASF152:
 17231 08a8 4F666673 		.ascii	"OffsetFixed1104_mm\000"
 17231      65744669 
 17231      78656431 
 17231      3130345F 
 17231      6D6D00
 17232              	.LASF82:
 17233 08bb 4D6F6475 		.ascii	"ModuleId\000"
 17233      6C654964 
 17233      00
 17234              	.LASF61:
 17235 08c4 48697374 		.ascii	"HistogramData\000"
 17235      6F677261 
 17235      6D446174 
 17235      6100
 17236              	.LASF43:
 17237 08d2 4C696D69 		.ascii	"LimitChecksValue\000"
 17237      74436865 
 17237      636B7356 
 17237      616C7565 
 17237      00
 17238              	.LASF307:
 17239 08e3 5369676E 		.ascii	"SignalRate\000"
 17239      616C5261 
 17239      746500
ARM GAS  C:\Users\Rajesh\AppData\Local\Temp\ccMJoliC.s 			page 351


 17240              	.LASF271:
 17241 08ee 63536967 		.ascii	"cSigmaEstMax\000"
 17241      6D614573 
 17241      744D6178 
 17241      00
 17242              	.LASF126:
 17243 08fb 636F6D6D 		.ascii	"comms_speed_khz\000"
 17243      735F7370 
 17243      6565645F 
 17243      6B687A00 
 17244              	.LASF116:
 17245 090b 5463634F 		.ascii	"TccOn\000"
 17245      6E00
 17246              	.LASF146:
 17247 0911 564C3533 		.ascii	"VL53L0X_device_read_strobe\000"
 17247      4C30585F 
 17247      64657669 
 17247      63655F72 
 17247      6561645F 
 17248              	.LASF13:
 17249 092c 5F5F7569 		.ascii	"__uint64_t\000"
 17249      6E743634 
 17249      5F7400
 17250              	.LASF308:
 17251 0937 7050616C 		.ascii	"pPalRangeStatus\000"
 17251      52616E67 
 17251      65537461 
 17251      74757300 
 17252              	.LASF199:
 17253 0947 46696E61 		.ascii	"FinalRangeTimeoutMicroSeconds\000"
 17253      6C52616E 
 17253      67655469 
 17253      6D656F75 
 17253      744D6963 
 17254              	.LASF164:
 17255 0965 564C3533 		.ascii	"VL53L0X_encode_timeout\000"
 17255      4C30585F 
 17255      656E636F 
 17255      64655F74 
 17255      696D656F 
 17256              	.LASF40:
 17257 097c 52616E67 		.ascii	"RangeOffsetMicroMeters\000"
 17257      654F6666 
 17257      7365744D 
 17257      6963726F 
 17257      4D657465 
 17258              	.LASF333:
 17259 0993 564C3533 		.ascii	"VL53L0X_GetSequenceStepEnables\000"
 17259      4C30585F 
 17259      47657453 
 17259      65717565 
 17259      6E636553 
 17260              	.LASF112:
 17261 09b2 446D6178 		.ascii	"DmaxCalRangeMilliMeter\000"
 17261      43616C52 
 17261      616E6765 
 17261      4D696C6C 
ARM GAS  C:\Users\Rajesh\AppData\Local\Temp\ccMJoliC.s 			page 352


 17261      694D6574 
 17262              	.LASF297:
 17263 09c9 73717274 		.ascii	"sqrtResult\000"
 17263      52657375 
 17263      6C7400
 17264              	.LASF221:
 17265 09d4 496E6465 		.ascii	"Index\000"
 17265      7800
 17266              	.LASF179:
 17267 09da 43757272 		.ascii	"CurrentVCSELPulsePeriodPClk\000"
 17267      656E7456 
 17267      4353454C 
 17267      50756C73 
 17267      65506572 
 17268              	.LASF79:
 17269 09f6 5369676D 		.ascii	"SigmaEstEffPulseWidth\000"
 17269      61457374 
 17269      45666650 
 17269      756C7365 
 17269      57696474 
 17270              	.LASF280:
 17271 0a0c 70726552 		.ascii	"preRangeTimeoutMicroSecs\000"
 17271      616E6765 
 17271      54696D65 
 17271      6F75744D 
 17271      6963726F 
 17272              	.LASF317:
 17273 0a25 5369676D 		.ascii	"SigmaLimitValue\000"
 17273      614C696D 
 17273      69745661 
 17273      6C756500 
 17274              	.LASF289:
 17275 0a35 7854616C 		.ascii	"xTalkCompRate_mcps\000"
 17275      6B436F6D 
 17275      70526174 
 17275      655F6D63 
 17275      707300
 17276              	.LASF212:
 17277 0a48 4473734F 		.ascii	"DssOverheadMicroSeconds\000"
 17277      76657268 
 17277      6561644D 
 17277      6963726F 
 17277      5365636F 
 17278              	.LASF104:
 17279 0a60 53746F70 		.ascii	"StopVariable\000"
 17279      56617269 
 17279      61626C65 
 17279      00
 17280              	.LASF92:
 17281 0a6d 444D6178 		.ascii	"DMaxData\000"
 17281      44617461 
 17281      00
 17282              	.LASF51:
 17283 0a76 4D656173 		.ascii	"MeasurementTimeUsec\000"
 17283      7572656D 
 17283      656E7454 
 17283      696D6555 
ARM GAS  C:\Users\Rajesh\AppData\Local\Temp\ccMJoliC.s 			page 353


 17283      73656300 
 17284              	.LASF159:
 17285 0a8a 4E766D52 		.ascii	"NvmRefGoodSpadMap\000"
 17285      6566476F 
 17285      6F645370 
 17285      61644D61 
 17285      7000
 17286              	.LASF28:
 17287 0a9c 63686172 		.ascii	"char\000"
 17287      00
 17288              	.LASF214:
 17289 0aa1 46696E61 		.ascii	"FinalRangeOverheadMicroSeconds\000"
 17289      6C52616E 
 17289      67654F76 
 17289      65726865 
 17289      61644D69 
 17290              	.LASF228:
 17291 0ac0 7052616E 		.ascii	"pRangingMeasurementData\000"
 17291      67696E67 
 17291      4D656173 
 17291      7572656D 
 17291      656E7444 
 17292              	.LASF81:
 17293 0ad8 52656164 		.ascii	"ReadDataFromDeviceDone\000"
 17293      44617461 
 17293      46726F6D 
 17293      44657669 
 17293      6365446F 
 17294              	.LASF35:
 17295 0aef 4D656173 		.ascii	"MeasurementTimingBudgetMicroSeconds\000"
 17295      7572656D 
 17295      656E7454 
 17295      696D696E 
 17295      67427564 
 17296              	.LASF194:
 17297 0b13 56435345 		.ascii	"VCSELPulsePeriodPCLK\000"
 17297      4C50756C 
 17297      73655065 
 17297      72696F64 
 17297      50434C4B 
 17298              	.LASF273:
 17299 0b28 63416D62 		.ascii	"cAmbToSignalRatioMax\000"
 17299      546F5369 
 17299      676E616C 
 17299      52617469 
 17299      6F4D6178 
 17300              	.LASF96:
 17301 0b3d 4C617374 		.ascii	"LastRangeMeasure\000"
 17301      52616E67 
 17301      654D6561 
 17301      73757265 
 17301      00
 17302              	.LASF288:
 17303 0b4e 7065616B 		.ascii	"peakSignalRate_kcps\000"
 17303      5369676E 
 17303      616C5261 
 17303      74655F6B 
ARM GAS  C:\Users\Rajesh\AppData\Local\Temp\ccMJoliC.s 			page 354


 17303      63707300 
 17304              	.LASF207:
 17305 0b62 4D737263 		.ascii	"MsrcDccTccTimeoutMicroSeconds\000"
 17305      44636354 
 17305      63635469 
 17305      6D656F75 
 17305      744D6963 
 17306              	.LASF64:
 17307 0b80 42756666 		.ascii	"BufferSize\000"
 17307      65725369 
 17307      7A6500
 17308              	.LASF167:
 17309 0b8b 6C735F62 		.ascii	"ls_byte\000"
 17309      79746500 
 17310              	.LASF129:
 17311 0b93 64617461 		.ascii	"data\000"
 17311      00
 17312              	.LASF157:
 17313 0b98 50726F64 		.ascii	"ProductId_tmp\000"
 17313      75637449 
 17313      645F746D 
 17313      7000
 17314              	.LASF70:
 17315 0ba6 564C3533 		.ascii	"VL53L0X_SpadData_t\000"
 17315      4C30585F 
 17315      53706164 
 17315      44617461 
 17315      5F7400
 17316              	.LASF220:
 17317 0bb9 7054756E 		.ascii	"pTuningSettingBuffer\000"
 17317      696E6753 
 17317      65747469 
 17317      6E674275 
 17317      66666572 
 17318              	.LASF134:
 17319 0bce 6D696464 		.ascii	"middle\000"
 17319      6C6500
 17320              	.LASF17:
 17321 0bd5 75696E74 		.ascii	"uint8_t\000"
 17321      385F7400 
 17322              	.LASF26:
 17323 0bdd 564C3533 		.ascii	"VL53L0X_GpioFunctionality\000"
 17323      4C30585F 
 17323      4770696F 
 17323      46756E63 
 17323      74696F6E 
 17324              	.LASF276:
 17325 0bf7 634D6178 		.ascii	"cMaxXTalk_kcps\000"
 17325      5854616C 
 17325      6B5F6B63 
 17325      707300
 17326              	.LASF139:
 17327 0c06 4C6F6F70 		.ascii	"LoopNb\000"
 17327      4E6200
 17328              	.LASF314:
 17329 0c0d 5369676E 		.ascii	"SignalRateFinalRangeLimitCheckEnable\000"
 17329      616C5261 
ARM GAS  C:\Users\Rajesh\AppData\Local\Temp\ccMJoliC.s 			page 355


 17329      74654669 
 17329      6E616C52 
 17329      616E6765 
 17330              	.LASF31:
 17331 0c32 564C3533 		.ascii	"VL53L0X_HistogramModes\000"
 17331      4C30585F 
 17331      48697374 
 17331      6F677261 
 17331      6D4D6F64 
 17332              	.LASF318:
 17333 0c49 5369676E 		.ascii	"SignalRefClipValue\000"
 17333      616C5265 
 17333      66436C69 
 17333      7056616C 
 17333      756500
 17334              	.LASF59:
 17335 0c5c 52616E67 		.ascii	"RangeStatus\000"
 17335      65537461 
 17335      74757300 
 17336              	.LASF63:
 17337 0c68 46697273 		.ascii	"FirstBin\000"
 17337      7442696E 
 17337      00
 17338              	.LASF12:
 17339 0c71 6C6F6E67 		.ascii	"long long int\000"
 17339      206C6F6E 
 17339      6720696E 
 17339      7400
 17340              	.LASF196:
 17341 0c7f 4D617850 		.ascii	"MaxPreVcselPeriodPCLK\000"
 17341      72655663 
 17341      73656C50 
 17341      6572696F 
 17341      6450434C 
 17342              	.LASF119:
 17343 0c95 50726552 		.ascii	"PreRangeOn\000"
 17343      616E6765 
 17343      4F6E00
 17344              	.LASF30:
 17345 0ca0 564C3533 		.ascii	"VL53L0X_DeviceModes\000"
 17345      4C30585F 
 17345      44657669 
 17345      63654D6F 
 17345      64657300 
 17346              	.LASF223:
 17347 0cb4 4E756D62 		.ascii	"NumberOfWrites\000"
 17347      65724F66 
 17347      57726974 
 17347      657300
 17348              	.LASF118:
 17349 0cc3 4473734F 		.ascii	"DssOn\000"
 17349      6E00
 17350              	.LASF87:
 17351 0cc9 52656653 		.ascii	"RefSpadsInitialised\000"
 17351      70616473 
 17351      496E6974 
 17351      69616C69 
ARM GAS  C:\Users\Rajesh\AppData\Local\Temp\ccMJoliC.s 			page 356


 17351      73656400 
 17352              	.LASF120:
 17353 0cdd 46696E61 		.ascii	"FinalRangeOn\000"
 17353      6C52616E 
 17353      67654F6E 
 17353      00
 17354              	.LASF225:
 17355 0cea 6C6F6361 		.ascii	"localBuffer\000"
 17355      6C427566 
 17355      66657200 
 17356              	.LASF326:
 17357 0cf6 564C3533 		.ascii	"VL53L0X_PollingDelay\000"
 17357      4C30585F 
 17357      506F6C6C 
 17357      696E6744 
 17357      656C6179 
 17358              	.LASF4:
 17359 0d0b 5F5F696E 		.ascii	"__int16_t\000"
 17359      7431365F 
 17359      7400
 17360              	.LASF233:
 17361 0d15 564C3533 		.ascii	"VL53L0X_get_total_signal_rate\000"
 17361      4C30585F 
 17361      6765745F 
 17361      746F7461 
 17361      6C5F7369 
 17362              	.LASF256:
 17363 0d33 7369676D 		.ascii	"sigmaEstSqTmp\000"
 17363      61457374 
 17363      5371546D 
 17363      7000
 17364              	.LASF328:
 17365 0d41 564C3533 		.ascii	"VL53L0X_RdByte\000"
 17365      4C30585F 
 17365      52644279 
 17365      746500
 17366              	.LASF184:
 17367 0d50 50726552 		.ascii	"PreRangeTimeOutMClks\000"
 17367      616E6765 
 17367      54696D65 
 17367      4F75744D 
 17367      436C6B73 
 17368              	.LASF295:
 17369 0d65 73717253 		.ascii	"sqrSum\000"
 17369      756D00
 17370              	.LASF269:
 17371 0d6c 6344666C 		.ascii	"cDfltFinalRangeIntegrationTimeMilliSecs\000"
 17371      7446696E 
 17371      616C5261 
 17371      6E676549 
 17371      6E746567 
 17372              	.LASF217:
 17373 0d94 564C3533 		.ascii	"VL53L0X_get_measurement_timing_budget_micro_seconds"
 17373      4C30585F 
 17373      6765745F 
 17373      6D656173 
 17373      7572656D 
ARM GAS  C:\Users\Rajesh\AppData\Local\Temp\ccMJoliC.s 			page 357


 17374 0dc7 00       		.ascii	"\000"
 17375              	.LASF332:
 17376 0dc8 564C3533 		.ascii	"VL53L0X_RdWord\000"
 17376      4C30585F 
 17376      5264576F 
 17376      726400
 17377              	.LASF130:
 17378 0dd7 73697A65 		.ascii	"size\000"
 17378      00
 17379              	.LASF48:
 17380 0ddc 52657453 		.ascii	"RetSignalAt0mm\000"
 17380      69676E61 
 17380      6C417430 
 17380      6D6D00
 17381              	.LASF313:
 17382 0deb 5369676D 		.ascii	"SigmaLimitCheckEnable\000"
 17382      614C696D 
 17382      69744368 
 17382      65636B45 
 17382      6E61626C 
 17383              	.LASF245:
 17384 0e01 63536967 		.ascii	"cSigmaEstRef\000"
 17384      6D614573 
 17384      74526566 
 17384      00
 17385              	.LASF213:
 17386 0e0e 50726552 		.ascii	"PreRangeOverheadMicroSeconds\000"
 17386      616E6765 
 17386      4F766572 
 17386      68656164 
 17386      4D696372 
 17387              	.LASF144:
 17388 0e2b 564C3533 		.ascii	"VL53L0X_isqrt\000"
 17388      4C30585F 
 17388      69737172 
 17388      7400
 17389              	.LASF323:
 17390 0e39 54656D70 		.ascii	"Temp8\000"
 17390      3800
 17391              	.LASF302:
 17392 0e3f 70726552 		.ascii	"preRangeMacroPCLKS\000"
 17392      616E6765 
 17392      4D616372 
 17392      6F50434C 
 17392      4B5300
 17393              	.LASF153:
 17394 0e52 4F666673 		.ascii	"OffsetMicroMeters\000"
 17394      65744D69 
 17394      63726F4D 
 17394      65746572 
 17394      7300
 17395              	.LASF46:
 17396 0e64 564C3533 		.ascii	"VL53L0X_State\000"
 17396      4C30585F 
 17396      53746174 
 17396      6500
 17397              	.LASF216:
ARM GAS  C:\Users\Rajesh\AppData\Local\Temp\ccMJoliC.s 			page 358


 17398 0e72 53756254 		.ascii	"SubTimeout\000"
 17398      696D656F 
 17398      757400
 17399              	.LASF329:
 17400 0e7d 564C3533 		.ascii	"VL53L0X_RdDWord\000"
 17400      4C30585F 
 17400      52644457 
 17400      6F726400 
 17401              	.LASF49:
 17402 0e8d 564C3533 		.ascii	"VL53L0X_DMaxData_t\000"
 17402      4C30585F 
 17402      444D6178 
 17402      44617461 
 17402      5F7400
 17403              	.LASF0:
 17404 0ea0 5F5F696E 		.ascii	"__int8_t\000"
 17404      74385F74 
 17404      00
 17405              	.LASF121:
 17406 0ea9 564C3533 		.ascii	"VL53L0X_SchedulerSequenceSteps_t\000"
 17406      4C30585F 
 17406      53636865 
 17406      64756C65 
 17406      72536571 
 17407              	.LASF142:
 17408 0eca 76637365 		.ascii	"vcsel_period_pclks\000"
 17408      6C5F7065 
 17408      72696F64 
 17408      5F70636C 
 17408      6B7300
 17409              	.LASF206:
 17410 0edd 46696E61 		.ascii	"FinalRangeTimingBudgetMicroSeconds\000"
 17410      6C52616E 
 17410      67655469 
 17410      6D696E67 
 17410      42756467 
 17411              	.LASF124:
 17412 0f00 49326344 		.ascii	"I2cDevAddr\000"
 17412      65764164 
 17412      647200
 17413              	.LASF33:
 17414 0f0b 44657669 		.ascii	"DeviceMode\000"
 17414      63654D6F 
 17414      646500
 17415              	.LASF227:
 17416 0f16 564C3533 		.ascii	"VL53L0X_get_total_xtalk_rate\000"
 17416      4C30585F 
 17416      6765745F 
 17416      746F7461 
 17416      6C5F7874 
 17417              	.LASF39:
 17418 0f33 5854616C 		.ascii	"XTalkCompensationRateMegaCps\000"
 17418      6B436F6D 
 17418      70656E73 
 17418      6174696F 
 17418      6E526174 
 17419              	.LASF122:
ARM GAS  C:\Users\Rajesh\AppData\Local\Temp\ccMJoliC.s 			page 359


 17420 0f50 564C3533 		.ascii	"VL53L0X_SequenceStepId\000"
 17420      4C30585F 
 17420      53657175 
 17420      656E6365 
 17420      53746570 
 17421              	.LASF23:
 17422 0f67 6C6F6E67 		.ascii	"long double\000"
 17422      20646F75 
 17422      626C6500 
 17423              	.LASF155:
 17424 0f73 44697374 		.ascii	"DistMeasFixed1104_400_mm\000"
 17424      4D656173 
 17424      46697865 
 17424      64313130 
 17424      345F3430 
 17425              	.LASF19:
 17426 0f8c 75696E74 		.ascii	"uint16_t\000"
 17426      31365F74 
 17426      00
 17427              	.LASF340:
 17428 0f95 564C3533 		.ascii	"VL53L0X_GetLimitCheckValue\000"
 17428      4C30585F 
 17428      4765744C 
 17428      696D6974 
 17428      43686563 
 17429              	.LASF60:
 17430 0fb0 564C3533 		.ascii	"VL53L0X_RangingMeasurementData_t\000"
 17430      4C30585F 
 17430      52616E67 
 17430      696E674D 
 17430      65617375 
 17431              	.LASF327:
 17432 0fd1 564C3533 		.ascii	"VL53L0X_WrByte\000"
 17432      4C30585F 
 17432      57724279 
 17432      746500
 17433              	.LASF298:
 17434 0fe0 636F7272 		.ascii	"correctedSignalRate_mcps\000"
 17434      65637465 
 17434      64536967 
 17434      6E616C52 
 17434      6174655F 
 17435              	.LASF311:
 17436 0ff9 5369676E 		.ascii	"SignalRefClipflag\000"
 17436      616C5265 
 17436      66436C69 
 17436      70666C61 
 17436      6700
 17437              	.LASF148:
 17438 100b 564C3533 		.ascii	"VL53L0X_get_info_from_device\000"
 17438      4C30585F 
 17438      6765745F 
 17438      696E666F 
 17438      5F66726F 
 17439              	.LASF334:
 17440 1028 564C3533 		.ascii	"VL53L0X_WrWord\000"
 17440      4C30585F 
ARM GAS  C:\Users\Rajesh\AppData\Local\Temp\ccMJoliC.s 			page 360


 17440      5772576F 
 17440      726400
 17441              	.LASF100:
 17442 1037 53657175 		.ascii	"SequenceConfig\000"
 17442      656E6365 
 17442      436F6E66 
 17442      696700
 17443              	.LASF218:
 17444 1046 704D6561 		.ascii	"pMeasurementTimingBudgetMicroSeconds\000"
 17444      73757265 
 17444      6D656E74 
 17444      54696D69 
 17444      6E674275 
 17445              	.LASF319:
 17446 106b 52616E67 		.ascii	"RangeIgnoreThresholdValue\000"
 17446      6549676E 
 17446      6F726554 
 17446      68726573 
 17446      686F6C64 
 17447              	.LASF291:
 17448 1085 64696666 		.ascii	"diff1_mcps\000"
 17448      315F6D63 
 17448      707300
 17449              	.LASF183:
 17450 1090 4D737263 		.ascii	"MsrcTimeOutMClks\000"
 17450      54696D65 
 17450      4F75744D 
 17450      436C6B73 
 17450      00
 17451              	.LASF343:
 17452 10a1 443A5C65 		.ascii	"D:\\ext\\EXTPSOC\\fixed\\Fixed\\fixed.cydsn\000"
 17452      78745C45 
 17452      58545053 
 17452      4F435C66 
 17452      69786564 
 17453              	.LASF272:
 17454 10c8 63536967 		.ascii	"cSigmaEstRtnMax\000"
 17454      6D614573 
 17454      7452746E 
 17454      4D617800 
 17455              	.LASF86:
 17456 10d8 52656665 		.ascii	"ReferenceSpadType\000"
 17456      72656E63 
 17456      65537061 
 17456      64547970 
 17456      6500
 17457              	.LASF5:
 17458 10ea 73686F72 		.ascii	"short int\000"
 17458      7420696E 
 17458      7400
 17459              	.LASF248:
 17460 10f4 646D6178 		.ascii	"dmaxCalRange_mm\000"
 17460      43616C52 
 17460      616E6765 
 17460      5F6D6D00 
 17461              	.LASF287:
 17462 1104 616D6269 		.ascii	"ambientRate_kcps\000"
ARM GAS  C:\Users\Rajesh\AppData\Local\Temp\ccMJoliC.s 			page 361


 17462      656E7452 
 17462      6174655F 
 17462      6B637073 
 17462      00
 17463              	.LASF204:
 17464 1115 70564353 		.ascii	"pVCSELPulsePeriodPCLK\000"
 17464      454C5075 
 17464      6C736550 
 17464      6572696F 
 17464      6450434C 
 17465              	.LASF9:
 17466 112b 6C6F6E67 		.ascii	"long int\000"
 17466      20696E74 
 17466      00
 17467              	.LASF337:
 17468 1134 564C3533 		.ascii	"VL53L0X_WriteMulti\000"
 17468      4C30585F 
 17468      57726974 
 17468      654D756C 
 17468      746900
 17469              	.LASF88:
 17470 1147 50617274 		.ascii	"PartUIDUpper\000"
 17470      55494455 
 17470      70706572 
 17470      00
 17471              	.LASF107:
 17472 1154 5369676E 		.ascii	"SignalEstimate\000"
 17472      616C4573 
 17472      74696D61 
 17472      746500
 17473              	.LASF180:
 17474 1163 456E636F 		.ascii	"EncodedTimeOutByte\000"
 17474      64656454 
 17474      696D654F 
 17474      75744279 
 17474      746500
 17475              	.LASF259:
 17476 1176 646D6178 		.ascii	"dmaxDark\000"
 17476      4461726B 
 17476      00
 17477              	.LASF278:
 17478 117f 76637365 		.ascii	"vcselTotalEventsRtn\000"
 17478      6C546F74 
 17478      616C4576 
 17478      656E7473 
 17478      52746E00 
 17479              	.LASF300:
 17480 1193 76637365 		.ascii	"vcselWidth\000"
 17480      6C576964 
 17480      746800
 17481              	.LASF151:
 17482 119e 546D7044 		.ascii	"TmpDWord\000"
 17482      576F7264 
 17482      00
 17483              	.LASF275:
 17484 11a7 63313642 		.ascii	"c16BitRoundingParam\000"
 17484      6974526F 
ARM GAS  C:\Users\Rajesh\AppData\Local\Temp\ccMJoliC.s 			page 362


 17484      756E6469 
 17484      6E675061 
 17484      72616D00 
 17485              	.LASF140:
 17486 11bb 564C3533 		.ascii	"VL53L0X_decode_vcsel_period\000"
 17486      4C30585F 
 17486      6465636F 
 17486      64655F76 
 17486      6373656C 
 17487              	.LASF149:
 17488 11d7 6F707469 		.ascii	"option\000"
 17488      6F6E00
 17489              	.LASF108:
 17490 11de 4C617374 		.ascii	"LastSignalRefMcps\000"
 17490      5369676E 
 17490      616C5265 
 17490      664D6370 
 17490      7300
 17491              	.LASF22:
 17492 11f0 75696E74 		.ascii	"uint64_t\000"
 17492      36345F74 
 17492      00
 17493              	.LASF244:
 17494 11f9 63536967 		.ascii	"cSignalLimit\000"
 17494      6E616C4C 
 17494      696D6974 
 17494      00
 17495              	.LASF74:
 17496 1206 46696E61 		.ascii	"FinalRangeTimeoutMicroSecs\000"
 17496      6C52616E 
 17496      67655469 
 17496      6D656F75 
 17496      744D6963 
 17497              	.LASF285:
 17498 1221 7369676D 		.ascii	"sigmaEstimate\000"
 17498      61457374 
 17498      696D6174 
 17498      6500
 17499              	.LASF57:
 17500 122f 5A6F6E65 		.ascii	"ZoneId\000"
 17500      496400
 17501              	.LASF215:
 17502 1236 634D696E 		.ascii	"cMinTimingBudgetMicroSeconds\000"
 17502      54696D69 
 17502      6E674275 
 17502      64676574 
 17502      4D696372 
 17503              	.LASF200:
 17504 1253 50726552 		.ascii	"PreRangeTimeoutMicroSeconds\000"
 17504      616E6765 
 17504      54696D65 
 17504      6F75744D 
 17504      6963726F 
 17505              	.LASF246:
 17506 126f 63416D62 		.ascii	"cAmbEffWidthSigmaEst_ns\000"
 17506      45666657 
 17506      69647468 
ARM GAS  C:\Users\Rajesh\AppData\Local\Temp\ccMJoliC.s 			page 363


 17506      5369676D 
 17506      61457374 
 17507              	.LASF305:
 17508 1287 564C3533 		.ascii	"VL53L0X_get_pal_range_status\000"
 17508      4C30585F 
 17508      6765745F 
 17508      70616C5F 
 17508      72616E67 
 17509              	.LASF1:
 17510 12a4 5F5F7569 		.ascii	"__uint8_t\000"
 17510      6E74385F 
 17510      7400
 17511              	.LASF193:
 17512 12ae 56637365 		.ascii	"VcselPeriodType\000"
 17512      6C506572 
 17512      696F6454 
 17512      79706500 
 17513              	.LASF69:
 17514 12be 52656647 		.ascii	"RefGoodSpadMap\000"
 17514      6F6F6453 
 17514      7061644D 
 17514      617000
 17515              	.LASF29:
 17516 12cd 564C3533 		.ascii	"VL53L0X_Error\000"
 17516      4C30585F 
 17516      4572726F 
 17516      7200
 17517              	.LASF208:
 17518 12db 53746172 		.ascii	"StartOverheadMicroSeconds\000"
 17518      744F7665 
 17518      72686561 
 17518      644D6963 
 17518      726F5365 
 17519              	.LASF292:
 17520 12f5 64696666 		.ascii	"diff2_mcps\000"
 17520      325F6D63 
 17520      707300
 17521              	.LASF226:
 17522 1300 54656D70 		.ascii	"Temp16\000"
 17522      313600
 17523              	.LASF125:
 17524 1307 636F6D6D 		.ascii	"comms_type\000"
 17524      735F7479 
 17524      706500
 17525              	.LASF198:
 17526 1312 4D617846 		.ascii	"MaxFinalVcselPeriodPCLK\000"
 17526      696E616C 
 17526      56637365 
 17526      6C506572 
 17526      696F6450 
 17527              	.LASF243:
 17528 132a 63536967 		.ascii	"cSigmaLimit\000"
 17528      6D614C69 
 17528      6D697400 
 17529              	.LASF195:
 17530 1336 4D696E50 		.ascii	"MinPreVcselPeriodPCLK\000"
 17530      72655663 
ARM GAS  C:\Users\Rajesh\AppData\Local\Temp\ccMJoliC.s 			page 364


 17530      73656C50 
 17530      6572696F 
 17530      6450434C 
 17531              	.LASF301:
 17532 134c 66696E61 		.ascii	"finalRangeMacroPCLKS\000"
 17532      6C52616E 
 17532      67654D61 
 17532      63726F50 
 17532      434C4B53 
 17533              	.LASF178:
 17534 1361 7054696D 		.ascii	"pTimeOutMicroSecs\000"
 17534      654F7574 
 17534      4D696372 
 17534      6F536563 
 17534      7300
 17535              	.LASF27:
 17536 1373 73697A65 		.ascii	"sizetype\000"
 17536      74797065 
 17536      00
 17537              	.LASF241:
 17538 137c 7065616B 		.ascii	"peakVcselDuration_us\000"
 17538      56637365 
 17538      6C447572 
 17538      6174696F 
 17538      6E5F7573 
 17539              	.LASF95:
 17540 1391 43757272 		.ascii	"CurrentParameters\000"
 17540      656E7450 
 17540      6172616D 
 17540      65746572 
 17540      7300
 17541              	.LASF11:
 17542 13a3 6C6F6E67 		.ascii	"long unsigned int\000"
 17542      20756E73 
 17542      69676E65 
 17542      6420696E 
 17542      7400
 17543              	.LASF321:
 17544 13b5 44657669 		.ascii	"DeviceRangeStatusInternal\000"
 17544      63655261 
 17544      6E676553 
 17544      74617475 
 17544      73496E74 
 17545              	.LASF98:
 17546 13cf 44657669 		.ascii	"DeviceSpecificParameters\000"
 17546      63655370 
 17546      65636966 
 17546      69635061 
 17546      72616D65 
 17547              	.LASF309:
 17548 13e8 4E6F6E65 		.ascii	"NoneFlag\000"
 17548      466C6167 
 17548      00
 17549              	.LASF109:
 17550 13f1 7054756E 		.ascii	"pTuningSettingsPointer\000"
 17550      696E6753 
 17550      65747469 
ARM GAS  C:\Users\Rajesh\AppData\Local\Temp\ccMJoliC.s 			page 365


 17550      6E677350 
 17550      6F696E74 
 17551              	.LASF324:
 17552 1408 446D6178 		.ascii	"Dmax_mm\000"
 17552      5F6D6D00 
 17553              	.LASF262:
 17554 1410 7369676D 		.ascii	"sigmaEstP2Tmp\000"
 17554      61457374 
 17554      5032546D 
 17554      7000
 17555              	.LASF20:
 17556 141e 696E7433 		.ascii	"int32_t\000"
 17556      325F7400 
 17557              	.LASF249:
 17558 1426 646D6178 		.ascii	"dmaxCalSignalRateRtn_mcps\000"
 17558      43616C53 
 17558      69676E61 
 17558      6C526174 
 17558      6552746E 
 17559              	.LASF283:
 17560 1440 64656C74 		.ascii	"deltaT_ps\000"
 17560      61545F70 
 17560      7300
 17561              	.LASF150:
 17562 144a 62797465 		.ascii	"byte\000"
 17562      00
 17563              	.LASF235:
 17564 144f 564C3533 		.ascii	"VL53L0X_calc_dmax\000"
 17564      4C30585F 
 17564      63616C63 
 17564      5F646D61 
 17564      7800
 17565              	.LASF284:
 17566 1461 7369676D 		.ascii	"sigmaEstRtn\000"
 17566      61457374 
 17566      52746E00 
 17567              	.LASF80:
 17568 146d 5369676D 		.ascii	"SigmaEstEffAmbWidth\000"
 17568      61457374 
 17568      45666641 
 17568      6D625769 
 17568      64746800 
 17569              	.LASF299:
 17570 1481 7369676D 		.ascii	"sigmaEstRef\000"
 17570      61457374 
 17570      52656600 
 17571              	.LASF3:
 17572 148d 756E7369 		.ascii	"unsigned char\000"
 17572      676E6564 
 17572      20636861 
 17572      7200
 17573              	.LASF65:
 17574 149b 4E756D62 		.ascii	"NumberOfBins\000"
 17574      65724F66 
 17574      42696E73 
 17574      00
 17575              	.LASF76:
ARM GAS  C:\Users\Rajesh\AppData\Local\Temp\ccMJoliC.s 			page 366


 17576 14a8 50726552 		.ascii	"PreRangeTimeoutMicroSecs\000"
 17576      616E6765 
 17576      54696D65 
 17576      6F75744D 
 17576      6963726F 
 17577              	.LASF10:
 17578 14c1 5F5F7569 		.ascii	"__uint32_t\000"
 17578      6E743332 
 17578      5F7400
 17579              	.LASF113:
 17580 14cc 446D6178 		.ascii	"DmaxCalSignalRateRtnMegaCps\000"
 17580      43616C53 
 17580      69676E61 
 17580      6C526174 
 17580      6552746E 
 17581              	.LASF75:
 17582 14e8 46696E61 		.ascii	"FinalRangeVcselPulsePeriod\000"
 17582      6C52616E 
 17582      67655663 
 17582      73656C50 
 17582      756C7365 
 17583              	.LASF232:
 17584 1503 7874616C 		.ascii	"xtalkPerSpadMegaCps\000"
 17584      6B506572 
 17584      53706164 
 17584      4D656761 
 17584      43707300 
 17585              	.LASF114:
 17586 1517 564C3533 		.ascii	"VL53L0X_DevData_t\000"
 17586      4C30585F 
 17586      44657644 
 17586      6174615F 
 17586      7400
 17587              	.LASF231:
 17588 1529 746F7461 		.ascii	"totalXtalkMegaCps\000"
 17588      6C587461 
 17588      6C6B4D65 
 17588      67614370 
 17588      7300
 17589              	.LASF330:
 17590 153b 73747263 		.ascii	"strcpy\000"
 17590      707900
 17591              	.LASF229:
 17592 1542 70746F74 		.ascii	"ptotal_xtalk_rate_mcps\000"
 17592      616C5F78 
 17592      74616C6B 
 17592      5F726174 
 17592      655F6D63 
 17593              	.LASF320:
 17594 1559 5369676E 		.ascii	"SignalRatePerSpad\000"
 17594      616C5261 
 17594      74655065 
 17594      72537061 
 17594      6400
 17595              	.LASF143:
 17596 156b 564C3533 		.ascii	"VL53L0X_encode_vcsel_period\000"
 17596      4C30585F 
ARM GAS  C:\Users\Rajesh\AppData\Local\Temp\ccMJoliC.s 			page 367


 17596      656E636F 
 17596      64655F76 
 17596      6373656C 
 17597              	.LASF238:
 17598 1587 70774D75 		.ascii	"pwMult\000"
 17598      6C7400
 17599              	.LASF296:
 17600 158e 73717274 		.ascii	"sqrtResult_centi_ns\000"
 17600      52657375 
 17600      6C745F63 
 17600      656E7469 
 17600      5F6E7300 
 17601              	.LASF205:
 17602 15a2 564C3533 		.ascii	"VL53L0X_set_measurement_timing_budget_micro_seconds"
 17602      4C30585F 
 17602      7365745F 
 17602      6D656173 
 17602      7572656D 
 17603 15d5 00       		.ascii	"\000"
 17604              	.LASF316:
 17605 15d6 52616E67 		.ascii	"RangeIgnoreThresholdLimitCheckEnable\000"
 17605      6549676E 
 17605      6F726554 
 17605      68726573 
 17605      686F6C64 
 17606              	.LASF73:
 17607 15fb 50696E30 		.ascii	"Pin0GpioFunctionality\000"
 17607      4770696F 
 17607      46756E63 
 17607      74696F6E 
 17607      616C6974 
 17608              	.LASF201:
 17609 1611 4D737263 		.ascii	"MsrcTimeoutMicroSeconds\000"
 17609      54696D65 
 17609      6F75744D 
 17609      6963726F 
 17609      5365636F 
 17610              	.LASF255:
 17611 1629 7369676D 		.ascii	"sigmaLimitTmp\000"
 17611      614C696D 
 17611      6974546D 
 17611      7000
 17612              	.LASF160:
 17613 1637 564C3533 		.ascii	"VL53L0X_calc_macro_period_ps\000"
 17613      4C30585F 
 17613      63616C63 
 17613      5F6D6163 
 17613      726F5F70 
 17614              	.LASF258:
 17615 1654 5369676E 		.ascii	"SignalAt0mm\000"
 17615      616C4174 
 17615      306D6D00 
 17616              	.LASF277:
 17617 1660 63506C6C 		.ascii	"cPllPeriod_ps\000"
 17617      50657269 
 17617      6F645F70 
 17617      7300
ARM GAS  C:\Users\Rajesh\AppData\Local\Temp\ccMJoliC.s 			page 368


 17618              	.LASF263:
 17619 166e 7369676E 		.ascii	"signalRateTemp_mcps\000"
 17619      616C5261 
 17619      74655465 
 17619      6D705F6D 
 17619      63707300 
 17620              	.LASF187:
 17621 1682 53636865 		.ascii	"SchedulerSequenceSteps\000"
 17621      64756C65 
 17621      72536571 
 17621      75656E63 
 17621      65537465 
 17622              	.LASF174:
 17623 1699 564C3533 		.ascii	"VL53L0X_calc_timeout_us\000"
 17623      4C30585F 
 17623      63616C63 
 17623      5F74696D 
 17623      656F7574 
 17624              	.LASF202:
 17625 16b1 50686173 		.ascii	"PhaseCalInt\000"
 17625      6543616C 
 17625      496E7400 
 17626              	.LASF210:
 17627 16bd 4D737263 		.ascii	"MsrcOverheadMicroSeconds\000"
 17627      4F766572 
 17627      68656164 
 17627      4D696372 
 17627      6F536563 
 17628              	.LASF115:
 17629 16d6 564C3533 		.ascii	"VL53L0X_VcselPeriod\000"
 17629      4C30585F 
 17629      56637365 
 17629      6C506572 
 17629      696F6400 
 17630              	.LASF2:
 17631 16ea 7369676E 		.ascii	"signed char\000"
 17631      65642063 
 17631      68617200 
 17632              	.LASF322:
 17633 16f6 746D7057 		.ascii	"tmpWord\000"
 17633      6F726400 
 17634              	.LASF165:
 17635 16fe 74696D65 		.ascii	"timeout_macro_clks\000"
 17635      6F75745F 
 17635      6D616372 
 17635      6F5F636C 
 17635      6B7300
 17636              	.LASF97:
 17637 1711 4C617374 		.ascii	"LastHistogramMeasure\000"
 17637      48697374 
 17637      6F677261 
 17637      6D4D6561 
 17637      73757265 
 17638              	.LASF7:
 17639 1726 73686F72 		.ascii	"short unsigned int\000"
 17639      7420756E 
 17639      7369676E 
ARM GAS  C:\Users\Rajesh\AppData\Local\Temp\ccMJoliC.s 			page 369


 17639      65642069 
 17639      6E7400
 17640              	.LASF264:
 17641 1739 564C3533 		.ascii	"VL53L0X_calc_sigma_estimate\000"
 17641      4C30585F 
 17641      63616C63 
 17641      5F736967 
 17641      6D615F65 
 17642              	.LASF101:
 17643 1755 52616E67 		.ascii	"RangeFractionalEnable\000"
 17643      65467261 
 17643      6374696F 
 17643      6E616C45 
 17643      6E61626C 
 17644              	.LASF325:
 17645 176b 564C3533 		.ascii	"VL53L0X_GetMeasurementDataReady\000"
 17645      4C30585F 
 17645      4765744D 
 17645      65617375 
 17645      72656D65 
 17646              	.LASF52:
 17647 178b 52616E67 		.ascii	"RangeMilliMeter\000"
 17647      654D696C 
 17647      6C694D65 
 17647      74657200 
 17648              	.LASF281:
 17649 179b 66696E61 		.ascii	"finalRangeIntegrationTimeMilliSecs\000"
 17649      6C52616E 
 17649      6765496E 
 17649      74656772 
 17649      6174696F 
 17650              	.LASF106:
 17651 17be 5369676D 		.ascii	"SigmaEstimate\000"
 17651      61457374 
 17651      696D6174 
 17651      6500
 17652              	.LASF270:
 17653 17cc 63566373 		.ascii	"cVcselPulseWidth_ps\000"
 17653      656C5075 
 17653      6C736557 
 17653      69647468 
 17653      5F707300 
 17654              	.LASF78:
 17655 17e0 5369676D 		.ascii	"SigmaEstRefArray\000"
 17655      61457374 
 17655      52656641 
 17655      72726179 
 17655      00
 17656              	.LASF117:
 17657 17f1 4D737263 		.ascii	"MsrcOn\000"
 17657      4F6E00
 17658              	.LASF261:
 17659 17f8 646D6178 		.ascii	"dmaxDarkTmp\000"
 17659      4461726B 
 17659      546D7000 
 17660              	.LASF58:
 17661 1804 52616E67 		.ascii	"RangeFractionalPart\000"
ARM GAS  C:\Users\Rajesh\AppData\Local\Temp\ccMJoliC.s 			page 370


 17661      65467261 
 17661      6374696F 
 17661      6E616C50 
 17661      61727400 
 17662              	.LASF339:
 17663 1818 564C3533 		.ascii	"VL53L0X_GetLimitCheckEnable\000"
 17663      4C30585F 
 17663      4765744C 
 17663      696D6974 
 17663      43686563 
 17664              	.LASF224:
 17665 1834 41646472 		.ascii	"Address\000"
 17665      65737300 
 17666              	.LASF72:
 17667 183c 4C617374 		.ascii	"LastEncodedTimeout\000"
 17667      456E636F 
 17667      64656454 
 17667      696D656F 
 17667      757400
 17668              	.LASF169:
 17669 184f 564C3533 		.ascii	"VL53L0X_decode_timeout\000"
 17669      4C30585F 
 17669      6465636F 
 17669      64655F74 
 17669      696D656F 
 17670              	.LASF191:
 17671 1866 4D737263 		.ascii	"MsrcRangeTimeOutMClks\000"
 17671      52616E67 
 17671      6554696D 
 17671      654F7574 
 17671      4D436C6B 
 17672              	.LASF137:
 17673 187c 564C3533 		.ascii	"VL53L0X_measurement_poll_for_completion\000"
 17673      4C30585F 
 17673      6D656173 
 17673      7572656D 
 17673      656E745F 
 17674              	.LASF251:
 17675 18a4 6D696E53 		.ascii	"minSignalNeeded_p1\000"
 17675      69676E61 
 17675      6C4E6565 
 17675      6465645F 
 17675      703100
 17676              	.LASF252:
 17677 18b7 6D696E53 		.ascii	"minSignalNeeded_p2\000"
 17677      69676E61 
 17677      6C4E6565 
 17677      6465645F 
 17677      703200
 17678              	.LASF253:
 17679 18ca 6D696E53 		.ascii	"minSignalNeeded_p3\000"
 17679      69676E61 
 17679      6C4E6565 
 17679      6465645F 
 17679      703300
 17680              	.LASF254:
 17681 18dd 6D696E53 		.ascii	"minSignalNeeded_p4\000"
ARM GAS  C:\Users\Rajesh\AppData\Local\Temp\ccMJoliC.s 			page 371


 17681      69676E61 
 17681      6C4E6565 
 17681      6465645F 
 17681      703400
 17682              	.LASF265:
 17683 18f0 70536967 		.ascii	"pSigmaEstimate\000"
 17683      6D614573 
 17683      74696D61 
 17683      746500
 17684              	.LASF290:
 17685 18ff 7854616C 		.ascii	"xTalkCompRate_kcps\000"
 17685      6B436F6D 
 17685      70526174 
 17685      655F6B63 
 17685      707300
 17686              	.LASF102:
 17687 1912 50616C53 		.ascii	"PalState\000"
 17687      74617465 
 17687      00
 17688              	.LASF50:
 17689 191b 54696D65 		.ascii	"TimeStamp\000"
 17689      5374616D 
 17689      7000
 17690              	.LASF185:
 17691 1925 46696E61 		.ascii	"FinalRangeTimeOutMClks\000"
 17691      6C52616E 
 17691      67655469 
 17691      6D654F75 
 17691      744D436C 
 17692              	.LASF67:
 17693 193c 564C3533 		.ascii	"VL53L0X_HistogramMeasurementData_t\000"
 17693      4C30585F 
 17693      48697374 
 17693      6F677261 
 17693      6D4D6561 
 17694              	.LASF123:
 17695 195f 44617461 		.ascii	"Data\000"
 17695      00
 17696              	.LASF145:
 17697 1964 564C3533 		.ascii	"VL53L0X_quadrature_sum\000"
 17697      4C30585F 
 17697      71756164 
 17697      72617475 
 17697      72655F73 
 17698              	.LASF189:
 17699 197b 54696D65 		.ascii	"TimeOutMicroSecs\000"
 17699      4F75744D 
 17699      6963726F 
 17699      53656373 
 17699      00
 17700              	.LASF310:
 17701 198c 5369676D 		.ascii	"SigmaLimitflag\000"
 17701      614C696D 
 17701      6974666C 
 17701      616700
 17702              	.LASF90:
 17703 199b 5369676E 		.ascii	"SignalRateMeasFixed400mm\000"
ARM GAS  C:\Users\Rajesh\AppData\Local\Temp\ccMJoliC.s 			page 372


 17703      616C5261 
 17703      74654D65 
 17703      61734669 
 17703      78656434 
 17704              	.LASF237:
 17705 19b4 746F7461 		.ascii	"totalCorrSignalRate_mcps\000"
 17705      6C436F72 
 17705      72536967 
 17705      6E616C52 
 17705      6174655F 
 17706              		.ident	"GCC: (GNU Tools for ARM Embedded Processors) 5.4.1 20160609 (release) [ARM/embedded-5-bran
