ARM GAS  C:\Users\Rajesh\AppData\Local\Temp\cc7Pt2jb.s 			page 1


   1              		.syntax unified
   2              		.cpu cortex-m0
   3              		.fpu softvfp
   4              		.eabi_attribute 20, 1
   5              		.eabi_attribute 21, 1
   6              		.eabi_attribute 23, 3
   7              		.eabi_attribute 24, 1
   8              		.eabi_attribute 25, 1
   9              		.eabi_attribute 26, 1
  10              		.eabi_attribute 30, 1
  11              		.eabi_attribute 34, 0
  12              		.eabi_attribute 18, 4
  13              		.thumb
  14              		.syntax unified
  15              		.file	"vl53l0x_api_strings.c"
  16              		.text
  17              	.Ltext0:
  18              		.cfi_sections	.debug_frame
  19              		.section	.text.VL53L0X_check_part_used,"ax",%progbits
  20              		.align	2
  21              		.global	VL53L0X_check_part_used
  22              		.code	16
  23              		.thumb_func
  24              		.type	VL53L0X_check_part_used, %function
  25              	VL53L0X_check_part_used:
  26              	.LFB1:
  27              		.file 1 "Api\\core\\src\\vl53l0x_api_strings.c"
   1:Api\core\src/vl53l0x_api_strings.c **** /*******************************************************************************
   2:Api\core\src/vl53l0x_api_strings.c ****  Copyright © 2016, STMicroelectronics International N.V.
   3:Api\core\src/vl53l0x_api_strings.c ****  All rights reserved.
   4:Api\core\src/vl53l0x_api_strings.c **** 
   5:Api\core\src/vl53l0x_api_strings.c ****  Redistribution and use in source and binary forms, with or without
   6:Api\core\src/vl53l0x_api_strings.c ****  modification, are permitted provided that the following conditions are met:
   7:Api\core\src/vl53l0x_api_strings.c ****  * Redistributions of source code must retain the above copyright
   8:Api\core\src/vl53l0x_api_strings.c ****  notice, this list of conditions and the following disclaimer.
   9:Api\core\src/vl53l0x_api_strings.c ****  * Redistributions in binary form must reproduce the above copyright
  10:Api\core\src/vl53l0x_api_strings.c ****  notice, this list of conditions and the following disclaimer in the
  11:Api\core\src/vl53l0x_api_strings.c ****  documentation and/or other materials provided with the distribution.
  12:Api\core\src/vl53l0x_api_strings.c ****  * Neither the name of STMicroelectronics nor the
  13:Api\core\src/vl53l0x_api_strings.c ****  names of its contributors may be used to endorse or promote products
  14:Api\core\src/vl53l0x_api_strings.c ****  derived from this software without specific prior written permission.
  15:Api\core\src/vl53l0x_api_strings.c **** 
  16:Api\core\src/vl53l0x_api_strings.c ****  THIS SOFTWARE IS PROVIDED BY THE COPYRIGHT HOLDERS AND CONTRIBUTORS "AS IS" AND
  17:Api\core\src/vl53l0x_api_strings.c ****  ANY EXPRESS OR IMPLIED WARRANTIES, INCLUDING, BUT NOT LIMITED TO, THE IMPLIED
  18:Api\core\src/vl53l0x_api_strings.c ****  WARRANTIES OF MERCHANTABILITY, FITNESS FOR A PARTICULAR PURPOSE, AND
  19:Api\core\src/vl53l0x_api_strings.c ****  NON-INFRINGEMENT OF INTELLECTUAL PROPERTY RIGHTS ARE DISCLAIMED.
  20:Api\core\src/vl53l0x_api_strings.c ****  IN NO EVENT SHALL STMICROELECTRONICS INTERNATIONAL N.V. BE LIABLE FOR ANY
  21:Api\core\src/vl53l0x_api_strings.c ****  DIRECT, INDIRECT, INCIDENTAL, SPECIAL, EXEMPLARY, OR CONSEQUENTIAL DAMAGES
  22:Api\core\src/vl53l0x_api_strings.c ****  (INCLUDING, BUT NOT LIMITED TO, PROCUREMENT OF SUBSTITUTE GOODS OR SERVICES;
  23:Api\core\src/vl53l0x_api_strings.c ****  LOSS OF USE, DATA, OR PROFITS; OR BUSINESS INTERRUPTION) HOWEVER CAUSED AND
  24:Api\core\src/vl53l0x_api_strings.c ****  ON ANY THEORY OF LIABILITY, WHETHER IN CONTRACT, STRICT LIABILITY, OR TORT
  25:Api\core\src/vl53l0x_api_strings.c ****  (INCLUDING NEGLIGENCE OR OTHERWISE) ARISING IN ANY WAY OUT OF THE USE OF THIS
  26:Api\core\src/vl53l0x_api_strings.c ****  SOFTWARE, EVEN IF ADVISED OF THE POSSIBILITY OF SUCH DAMAGE.
  27:Api\core\src/vl53l0x_api_strings.c ****  ******************************************************************************/
  28:Api\core\src/vl53l0x_api_strings.c **** 
  29:Api\core\src/vl53l0x_api_strings.c **** #include "vl53l0x_api.h"
  30:Api\core\src/vl53l0x_api_strings.c **** #include "vl53l0x_api_core.h"
ARM GAS  C:\Users\Rajesh\AppData\Local\Temp\cc7Pt2jb.s 			page 2


  31:Api\core\src/vl53l0x_api_strings.c **** #include "vl53l0x_api_strings.h"
  32:Api\core\src/vl53l0x_api_strings.c **** 
  33:Api\core\src/vl53l0x_api_strings.c **** #ifndef __KERNEL__
  34:Api\core\src/vl53l0x_api_strings.c **** #include <stdlib.h>
  35:Api\core\src/vl53l0x_api_strings.c **** #endif
  36:Api\core\src/vl53l0x_api_strings.c **** 
  37:Api\core\src/vl53l0x_api_strings.c **** #define LOG_FUNCTION_START(fmt, ...) \
  38:Api\core\src/vl53l0x_api_strings.c **** 	_LOG_FUNCTION_START(TRACE_MODULE_API, fmt, ##__VA_ARGS__)
  39:Api\core\src/vl53l0x_api_strings.c **** #define LOG_FUNCTION_END(status, ...) \
  40:Api\core\src/vl53l0x_api_strings.c **** 	_LOG_FUNCTION_END(TRACE_MODULE_API, status, ##__VA_ARGS__)
  41:Api\core\src/vl53l0x_api_strings.c **** #define LOG_FUNCTION_END_FMT(status, fmt, ...) \
  42:Api\core\src/vl53l0x_api_strings.c **** 	_LOG_FUNCTION_END_FMT(TRACE_MODULE_API, status, fmt, ##__VA_ARGS__)
  43:Api\core\src/vl53l0x_api_strings.c **** 
  44:Api\core\src/vl53l0x_api_strings.c **** 
  45:Api\core\src/vl53l0x_api_strings.c **** VL53L0X_Error VL53L0X_check_part_used(VL53L0X_DEV Dev,
  46:Api\core\src/vl53l0x_api_strings.c **** 		uint8_t *Revision,
  47:Api\core\src/vl53l0x_api_strings.c **** 		VL53L0X_DeviceInfo_t *pVL53L0X_DeviceInfo)
  48:Api\core\src/vl53l0x_api_strings.c **** {
  28              		.loc 1 48 0
  29              		.cfi_startproc
  30              		@ args = 0, pretend = 0, frame = 0
  31              		@ frame_needed = 0, uses_anonymous_args = 0
  32              	.LVL0:
  33 0000 F8B5     		push	{r3, r4, r5, r6, r7, lr}
  34              		.cfi_def_cfa_offset 24
  35              		.cfi_offset 3, -24
  36              		.cfi_offset 4, -20
  37              		.cfi_offset 5, -16
  38              		.cfi_offset 6, -12
  39              		.cfi_offset 7, -8
  40              		.cfi_offset 14, -4
  41 0002 0400     		movs	r4, r0
  42 0004 0F00     		movs	r7, r1
  43 0006 1600     		movs	r6, r2
  44              	.LVL1:
  49:Api\core\src/vl53l0x_api_strings.c **** 	VL53L0X_Error Status = VL53L0X_ERROR_NONE;
  50:Api\core\src/vl53l0x_api_strings.c **** 	uint8_t ModuleIdInt;
  51:Api\core\src/vl53l0x_api_strings.c **** 	char *ProductId_tmp;
  52:Api\core\src/vl53l0x_api_strings.c **** 
  53:Api\core\src/vl53l0x_api_strings.c **** 	LOG_FUNCTION_START("");
  54:Api\core\src/vl53l0x_api_strings.c **** 
  55:Api\core\src/vl53l0x_api_strings.c **** 	Status = VL53L0X_get_info_from_device(Dev, 2);
  45              		.loc 1 55 0
  46 0008 0221     		movs	r1, #2
  47              	.LVL2:
  48 000a FFF7FEFF 		bl	VL53L0X_get_info_from_device
  49              	.LVL3:
  50 000e 051E     		subs	r5, r0, #0
  51              	.LVL4:
  56:Api\core\src/vl53l0x_api_strings.c **** 
  57:Api\core\src/vl53l0x_api_strings.c **** 	if (Status == VL53L0X_ERROR_NONE) {
  52              		.loc 1 57 0
  53 0010 10D1     		bne	.L2
  58:Api\core\src/vl53l0x_api_strings.c **** 		ModuleIdInt = VL53L0X_GETDEVICESPECIFICPARAMETER(Dev, ModuleId);
  54              		.loc 1 58 0
  55 0012 F123     		movs	r3, #241
  56 0014 E35C     		ldrb	r3, [r4, r3]
ARM GAS  C:\Users\Rajesh\AppData\Local\Temp\cc7Pt2jb.s 			page 3


  57              	.LVL5:
  59:Api\core\src/vl53l0x_api_strings.c **** 
  60:Api\core\src/vl53l0x_api_strings.c **** 	if (ModuleIdInt == 0) {
  58              		.loc 1 60 0
  59 0016 002B     		cmp	r3, #0
  60 0018 03D1     		bne	.L3
  61:Api\core\src/vl53l0x_api_strings.c **** 		*Revision = 0;
  61              		.loc 1 61 0
  62 001a 3B70     		strb	r3, [r7]
  62:Api\core\src/vl53l0x_api_strings.c **** 		VL53L0X_COPYSTRING(pVL53L0X_DeviceInfo->ProductId, "");
  63              		.loc 1 62 0
  64 001c 4036     		adds	r6, r6, #64
  65              	.LVL6:
  66 001e 3370     		strb	r3, [r6]
  67 0020 08E0     		b	.L2
  68              	.LVL7:
  69              	.L3:
  63:Api\core\src/vl53l0x_api_strings.c **** 	} else {
  64:Api\core\src/vl53l0x_api_strings.c **** 		*Revision = VL53L0X_GETDEVICESPECIFICPARAMETER(Dev, Revision);
  70              		.loc 1 64 0
  71 0022 F223     		movs	r3, #242
  72              	.LVL8:
  73 0024 E35C     		ldrb	r3, [r4, r3]
  74 0026 3B70     		strb	r3, [r7]
  75              	.LVL9:
  65:Api\core\src/vl53l0x_api_strings.c **** 		ProductId_tmp = VL53L0X_GETDEVICESPECIFICPARAMETER(Dev,
  76              		.loc 1 65 0
  77 0028 2100     		movs	r1, r4
  78 002a F331     		adds	r1, r1, #243
  79              	.LVL10:
  66:Api\core\src/vl53l0x_api_strings.c **** 			ProductId);
  67:Api\core\src/vl53l0x_api_strings.c **** 		VL53L0X_COPYSTRING(pVL53L0X_DeviceInfo->ProductId, ProductId_tmp);
  80              		.loc 1 67 0
  81 002c 3000     		movs	r0, r6
  82              	.LVL11:
  83 002e 4030     		adds	r0, r0, #64
  84 0030 FFF7FEFF 		bl	strcpy
  85              	.LVL12:
  86              	.L2:
  68:Api\core\src/vl53l0x_api_strings.c **** 	}
  69:Api\core\src/vl53l0x_api_strings.c **** 	}
  70:Api\core\src/vl53l0x_api_strings.c **** 
  71:Api\core\src/vl53l0x_api_strings.c **** 	LOG_FUNCTION_END(Status);
  72:Api\core\src/vl53l0x_api_strings.c **** 	return Status;
  73:Api\core\src/vl53l0x_api_strings.c **** }
  87              		.loc 1 73 0
  88 0034 2800     		movs	r0, r5
  89              		@ sp needed
  90              	.LVL13:
  91              	.LVL14:
  92 0036 F8BD     		pop	{r3, r4, r5, r6, r7, pc}
  93              		.cfi_endproc
  94              	.LFE1:
  95              		.size	VL53L0X_check_part_used, .-VL53L0X_check_part_used
  96              		.section	.text.VL53L0X_get_device_info,"ax",%progbits
  97              		.align	2
  98              		.global	VL53L0X_get_device_info
ARM GAS  C:\Users\Rajesh\AppData\Local\Temp\cc7Pt2jb.s 			page 4


  99              		.code	16
 100              		.thumb_func
 101              		.type	VL53L0X_get_device_info, %function
 102              	VL53L0X_get_device_info:
 103              	.LFB2:
  74:Api\core\src/vl53l0x_api_strings.c **** 
  75:Api\core\src/vl53l0x_api_strings.c **** 
  76:Api\core\src/vl53l0x_api_strings.c **** VL53L0X_Error VL53L0X_get_device_info(VL53L0X_DEV Dev,
  77:Api\core\src/vl53l0x_api_strings.c **** 				VL53L0X_DeviceInfo_t *pVL53L0X_DeviceInfo)
  78:Api\core\src/vl53l0x_api_strings.c **** {
 104              		.loc 1 78 0
 105              		.cfi_startproc
 106              		@ args = 0, pretend = 0, frame = 8
 107              		@ frame_needed = 0, uses_anonymous_args = 0
 108              	.LVL15:
 109 0000 70B5     		push	{r4, r5, r6, lr}
 110              		.cfi_def_cfa_offset 16
 111              		.cfi_offset 4, -16
 112              		.cfi_offset 5, -12
 113              		.cfi_offset 6, -8
 114              		.cfi_offset 14, -4
 115 0002 82B0     		sub	sp, sp, #8
 116              		.cfi_def_cfa_offset 24
 117 0004 0400     		movs	r4, r0
 118 0006 0D00     		movs	r5, r1
 119              	.LVL16:
  79:Api\core\src/vl53l0x_api_strings.c **** 	VL53L0X_Error Status = VL53L0X_ERROR_NONE;
  80:Api\core\src/vl53l0x_api_strings.c **** 	uint8_t revision_id;
  81:Api\core\src/vl53l0x_api_strings.c **** 	uint8_t Revision;
  82:Api\core\src/vl53l0x_api_strings.c **** 
  83:Api\core\src/vl53l0x_api_strings.c **** 	Status = VL53L0X_check_part_used(Dev, &Revision, pVL53L0X_DeviceInfo);
 120              		.loc 1 83 0
 121 0008 0A00     		movs	r2, r1
 122 000a 6B46     		mov	r3, sp
 123 000c 991D     		adds	r1, r3, #6
 124              	.LVL17:
 125 000e FFF7FEFF 		bl	VL53L0X_check_part_used
 126              	.LVL18:
  84:Api\core\src/vl53l0x_api_strings.c **** 
  85:Api\core\src/vl53l0x_api_strings.c **** 	if (Status == VL53L0X_ERROR_NONE) {
 127              		.loc 1 85 0
 128 0012 0028     		cmp	r0, #0
 129 0014 18D1     		bne	.L5
  86:Api\core\src/vl53l0x_api_strings.c **** 		if (Revision == 0) {
 130              		.loc 1 86 0
 131 0016 6B46     		mov	r3, sp
 132 0018 0633     		adds	r3, r3, #6
 133 001a 1B78     		ldrb	r3, [r3]
 134 001c 002B     		cmp	r3, #0
 135 001e 01D1     		bne	.L6
  87:Api\core\src/vl53l0x_api_strings.c **** 			VL53L0X_COPYSTRING(pVL53L0X_DeviceInfo->Name,
 136              		.loc 1 87 0
 137 0020 2B70     		strb	r3, [r5]
 138 0022 0DE0     		b	.L7
 139              	.L6:
  88:Api\core\src/vl53l0x_api_strings.c **** 					VL53L0X_STRING_DEVICE_INFO_NAME_TS0);
  89:Api\core\src/vl53l0x_api_strings.c **** 		} else if ((Revision <= 34) && (Revision != 32)) {
ARM GAS  C:\Users\Rajesh\AppData\Local\Temp\cc7Pt2jb.s 			page 5


 140              		.loc 1 89 0
 141 0024 222B     		cmp	r3, #34
 142 0026 04D8     		bhi	.L8
 143              		.loc 1 89 0 is_stmt 0 discriminator 1
 144 0028 202B     		cmp	r3, #32
 145 002a 02D0     		beq	.L8
  90:Api\core\src/vl53l0x_api_strings.c **** 			VL53L0X_COPYSTRING(pVL53L0X_DeviceInfo->Name,
 146              		.loc 1 90 0 is_stmt 1
 147 002c 0023     		movs	r3, #0
 148 002e 2B70     		strb	r3, [r5]
 149 0030 06E0     		b	.L7
 150              	.L8:
  91:Api\core\src/vl53l0x_api_strings.c **** 					VL53L0X_STRING_DEVICE_INFO_NAME_TS1);
  92:Api\core\src/vl53l0x_api_strings.c **** 		} else if (Revision < 39) {
 151              		.loc 1 92 0
 152 0032 262B     		cmp	r3, #38
 153 0034 02D8     		bhi	.L9
  93:Api\core\src/vl53l0x_api_strings.c **** 			VL53L0X_COPYSTRING(pVL53L0X_DeviceInfo->Name,
 154              		.loc 1 93 0
 155 0036 0023     		movs	r3, #0
 156 0038 2B70     		strb	r3, [r5]
 157 003a 01E0     		b	.L7
 158              	.L9:
  94:Api\core\src/vl53l0x_api_strings.c **** 					VL53L0X_STRING_DEVICE_INFO_NAME_TS2);
  95:Api\core\src/vl53l0x_api_strings.c **** 		} else {
  96:Api\core\src/vl53l0x_api_strings.c **** 			VL53L0X_COPYSTRING(pVL53L0X_DeviceInfo->Name,
 159              		.loc 1 96 0
 160 003c 0023     		movs	r3, #0
 161 003e 2B70     		strb	r3, [r5]
 162              	.L7:
  97:Api\core\src/vl53l0x_api_strings.c **** 					VL53L0X_STRING_DEVICE_INFO_NAME_ES1);
  98:Api\core\src/vl53l0x_api_strings.c **** 		}
  99:Api\core\src/vl53l0x_api_strings.c **** 
 100:Api\core\src/vl53l0x_api_strings.c **** 		VL53L0X_COPYSTRING(pVL53L0X_DeviceInfo->Type,
 163              		.loc 1 100 0
 164 0040 2B00     		movs	r3, r5
 165 0042 2033     		adds	r3, r3, #32
 166 0044 0022     		movs	r2, #0
 167 0046 1A70     		strb	r2, [r3]
 168              	.L5:
 101:Api\core\src/vl53l0x_api_strings.c **** 				VL53L0X_STRING_DEVICE_INFO_TYPE);
 102:Api\core\src/vl53l0x_api_strings.c **** 
 103:Api\core\src/vl53l0x_api_strings.c **** 	}
 104:Api\core\src/vl53l0x_api_strings.c **** 
 105:Api\core\src/vl53l0x_api_strings.c **** 	if (Status == VL53L0X_ERROR_NONE) {
 169              		.loc 1 105 0
 170 0048 0028     		cmp	r0, #0
 171 004a 05D1     		bne	.L10
 106:Api\core\src/vl53l0x_api_strings.c **** 		Status = VL53L0X_RdByte(Dev, VL53L0X_REG_IDENTIFICATION_MODEL_ID,
 172              		.loc 1 106 0
 173 004c 2A00     		movs	r2, r5
 174 004e 6032     		adds	r2, r2, #96
 175 0050 C021     		movs	r1, #192
 176 0052 2000     		movs	r0, r4
 177              	.LVL19:
 178 0054 FFF7FEFF 		bl	VL53L0X_RdByte
 179              	.LVL20:
ARM GAS  C:\Users\Rajesh\AppData\Local\Temp\cc7Pt2jb.s 			page 6


 180              	.L10:
 107:Api\core\src/vl53l0x_api_strings.c **** 				&pVL53L0X_DeviceInfo->ProductType);
 108:Api\core\src/vl53l0x_api_strings.c **** 	}
 109:Api\core\src/vl53l0x_api_strings.c **** 
 110:Api\core\src/vl53l0x_api_strings.c **** 	if (Status == VL53L0X_ERROR_NONE) {
 181              		.loc 1 110 0
 182 0058 0028     		cmp	r0, #0
 183 005a 0DD1     		bne	.L11
 111:Api\core\src/vl53l0x_api_strings.c **** 		Status = VL53L0X_RdByte(Dev,
 184              		.loc 1 111 0
 185 005c 6B46     		mov	r3, sp
 186 005e DE1D     		adds	r6, r3, #7
 187 0060 3200     		movs	r2, r6
 188 0062 C221     		movs	r1, #194
 189 0064 2000     		movs	r0, r4
 190              	.LVL21:
 191 0066 FFF7FEFF 		bl	VL53L0X_RdByte
 192              	.LVL22:
 112:Api\core\src/vl53l0x_api_strings.c **** 			VL53L0X_REG_IDENTIFICATION_REVISION_ID,
 113:Api\core\src/vl53l0x_api_strings.c **** 				&revision_id);
 114:Api\core\src/vl53l0x_api_strings.c **** 		pVL53L0X_DeviceInfo->ProductRevisionMajor = 1;
 193              		.loc 1 114 0
 194 006a 0122     		movs	r2, #1
 195 006c 6123     		movs	r3, #97
 196 006e EA54     		strb	r2, [r5, r3]
 115:Api\core\src/vl53l0x_api_strings.c **** 		pVL53L0X_DeviceInfo->ProductRevisionMinor =
 116:Api\core\src/vl53l0x_api_strings.c **** 					(revision_id & 0xF0) >> 4;
 197              		.loc 1 116 0
 198 0070 3378     		ldrb	r3, [r6]
 199 0072 1B09     		lsrs	r3, r3, #4
 115:Api\core\src/vl53l0x_api_strings.c **** 		pVL53L0X_DeviceInfo->ProductRevisionMinor =
 200              		.loc 1 115 0
 201 0074 6132     		adds	r2, r2, #97
 202 0076 AB54     		strb	r3, [r5, r2]
 203              	.LVL23:
 204              	.L11:
 117:Api\core\src/vl53l0x_api_strings.c **** 	}
 118:Api\core\src/vl53l0x_api_strings.c **** 
 119:Api\core\src/vl53l0x_api_strings.c **** 	return Status;
 120:Api\core\src/vl53l0x_api_strings.c **** }
 205              		.loc 1 120 0
 206 0078 02B0     		add	sp, sp, #8
 207              		@ sp needed
 208              	.LVL24:
 209              	.LVL25:
 210 007a 70BD     		pop	{r4, r5, r6, pc}
 211              		.cfi_endproc
 212              	.LFE2:
 213              		.size	VL53L0X_get_device_info, .-VL53L0X_get_device_info
 214              		.section	.text.VL53L0X_get_device_error_string,"ax",%progbits
 215              		.align	2
 216              		.global	VL53L0X_get_device_error_string
 217              		.code	16
 218              		.thumb_func
 219              		.type	VL53L0X_get_device_error_string, %function
 220              	VL53L0X_get_device_error_string:
 221              	.LFB3:
ARM GAS  C:\Users\Rajesh\AppData\Local\Temp\cc7Pt2jb.s 			page 7


 121:Api\core\src/vl53l0x_api_strings.c **** 
 122:Api\core\src/vl53l0x_api_strings.c **** 
 123:Api\core\src/vl53l0x_api_strings.c **** VL53L0X_Error VL53L0X_get_device_error_string(VL53L0X_DeviceError ErrorCode,
 124:Api\core\src/vl53l0x_api_strings.c **** 		char *pDeviceErrorString)
 125:Api\core\src/vl53l0x_api_strings.c **** {
 222              		.loc 1 125 0
 223              		.cfi_startproc
 224              		@ args = 0, pretend = 0, frame = 0
 225              		@ frame_needed = 0, uses_anonymous_args = 0
 226              		@ link register save eliminated.
 227              	.LVL26:
 126:Api\core\src/vl53l0x_api_strings.c **** 	VL53L0X_Error Status = VL53L0X_ERROR_NONE;
 127:Api\core\src/vl53l0x_api_strings.c **** 
 128:Api\core\src/vl53l0x_api_strings.c **** 	LOG_FUNCTION_START("");
 129:Api\core\src/vl53l0x_api_strings.c **** 
 130:Api\core\src/vl53l0x_api_strings.c **** 	switch (ErrorCode) {
 228              		.loc 1 130 0
 229 0000 0E28     		cmp	r0, #14
 230 0002 30D8     		bhi	.L13
 231 0004 8000     		lsls	r0, r0, #2
 232              	.LVL27:
 233 0006 1A4B     		ldr	r3, .L31
 234 0008 1B58     		ldr	r3, [r3, r0]
 235 000a 9F46     		mov	pc, r3
 236              		.section	.rodata
 237              		.align	2
 238              	.L15:
 239 0000 0C000000 		.word	.L14
 240 0004 12000000 		.word	.L16
 241 0008 18000000 		.word	.L17
 242 000c 1E000000 		.word	.L18
 243 0010 24000000 		.word	.L19
 244 0014 2A000000 		.word	.L20
 245 0018 30000000 		.word	.L21
 246 001c 36000000 		.word	.L22
 247 0020 3C000000 		.word	.L23
 248 0024 42000000 		.word	.L24
 249 0028 48000000 		.word	.L25
 250 002c 4E000000 		.word	.L26
 251 0030 54000000 		.word	.L27
 252 0034 5A000000 		.word	.L28
 253 0038 60000000 		.word	.L29
 254              		.section	.text.VL53L0X_get_device_error_string
 255              	.L14:
 131:Api\core\src/vl53l0x_api_strings.c **** 	case VL53L0X_DEVICEERROR_NONE:
 132:Api\core\src/vl53l0x_api_strings.c **** 		VL53L0X_COPYSTRING(pDeviceErrorString,
 256              		.loc 1 132 0
 257 000c 0023     		movs	r3, #0
 258 000e 0B70     		strb	r3, [r1]
 133:Api\core\src/vl53l0x_api_strings.c **** 			VL53L0X_STRING_DEVICEERROR_NONE);
 134:Api\core\src/vl53l0x_api_strings.c **** 	break;
 259              		.loc 1 134 0
 260 0010 2BE0     		b	.L30
 261              	.L16:
 135:Api\core\src/vl53l0x_api_strings.c **** 	case VL53L0X_DEVICEERROR_VCSELCONTINUITYTESTFAILURE:
 136:Api\core\src/vl53l0x_api_strings.c **** 		VL53L0X_COPYSTRING(pDeviceErrorString,
 262              		.loc 1 136 0
ARM GAS  C:\Users\Rajesh\AppData\Local\Temp\cc7Pt2jb.s 			page 8


 263 0012 0023     		movs	r3, #0
 264 0014 0B70     		strb	r3, [r1]
 137:Api\core\src/vl53l0x_api_strings.c **** 			VL53L0X_STRING_DEVICEERROR_VCSELCONTINUITYTESTFAILURE);
 138:Api\core\src/vl53l0x_api_strings.c **** 	break;
 265              		.loc 1 138 0
 266 0016 28E0     		b	.L30
 267              	.L17:
 139:Api\core\src/vl53l0x_api_strings.c **** 	case VL53L0X_DEVICEERROR_VCSELWATCHDOGTESTFAILURE:
 140:Api\core\src/vl53l0x_api_strings.c **** 		VL53L0X_COPYSTRING(pDeviceErrorString,
 268              		.loc 1 140 0
 269 0018 0023     		movs	r3, #0
 270 001a 0B70     		strb	r3, [r1]
 141:Api\core\src/vl53l0x_api_strings.c **** 			VL53L0X_STRING_DEVICEERROR_VCSELWATCHDOGTESTFAILURE);
 142:Api\core\src/vl53l0x_api_strings.c **** 	break;
 271              		.loc 1 142 0
 272 001c 25E0     		b	.L30
 273              	.L18:
 143:Api\core\src/vl53l0x_api_strings.c **** 	case VL53L0X_DEVICEERROR_NOVHVVALUEFOUND:
 144:Api\core\src/vl53l0x_api_strings.c **** 		VL53L0X_COPYSTRING(pDeviceErrorString,
 274              		.loc 1 144 0
 275 001e 0023     		movs	r3, #0
 276 0020 0B70     		strb	r3, [r1]
 145:Api\core\src/vl53l0x_api_strings.c **** 			VL53L0X_STRING_DEVICEERROR_NOVHVVALUEFOUND);
 146:Api\core\src/vl53l0x_api_strings.c **** 	break;
 277              		.loc 1 146 0
 278 0022 22E0     		b	.L30
 279              	.L19:
 147:Api\core\src/vl53l0x_api_strings.c **** 	case VL53L0X_DEVICEERROR_MSRCNOTARGET:
 148:Api\core\src/vl53l0x_api_strings.c **** 		VL53L0X_COPYSTRING(pDeviceErrorString,
 280              		.loc 1 148 0
 281 0024 0023     		movs	r3, #0
 282 0026 0B70     		strb	r3, [r1]
 149:Api\core\src/vl53l0x_api_strings.c **** 			VL53L0X_STRING_DEVICEERROR_MSRCNOTARGET);
 150:Api\core\src/vl53l0x_api_strings.c **** 	break;
 283              		.loc 1 150 0
 284 0028 1FE0     		b	.L30
 285              	.L20:
 151:Api\core\src/vl53l0x_api_strings.c **** 	case VL53L0X_DEVICEERROR_SNRCHECK:
 152:Api\core\src/vl53l0x_api_strings.c **** 		VL53L0X_COPYSTRING(pDeviceErrorString,
 286              		.loc 1 152 0
 287 002a 0023     		movs	r3, #0
 288 002c 0B70     		strb	r3, [r1]
 153:Api\core\src/vl53l0x_api_strings.c **** 			VL53L0X_STRING_DEVICEERROR_SNRCHECK);
 154:Api\core\src/vl53l0x_api_strings.c **** 	break;
 289              		.loc 1 154 0
 290 002e 1CE0     		b	.L30
 291              	.L21:
 155:Api\core\src/vl53l0x_api_strings.c **** 	case VL53L0X_DEVICEERROR_RANGEPHASECHECK:
 156:Api\core\src/vl53l0x_api_strings.c **** 		VL53L0X_COPYSTRING(pDeviceErrorString,
 292              		.loc 1 156 0
 293 0030 0023     		movs	r3, #0
 294 0032 0B70     		strb	r3, [r1]
 157:Api\core\src/vl53l0x_api_strings.c **** 			VL53L0X_STRING_DEVICEERROR_RANGEPHASECHECK);
 158:Api\core\src/vl53l0x_api_strings.c **** 	break;
 295              		.loc 1 158 0
 296 0034 19E0     		b	.L30
 297              	.L22:
ARM GAS  C:\Users\Rajesh\AppData\Local\Temp\cc7Pt2jb.s 			page 9


 159:Api\core\src/vl53l0x_api_strings.c **** 	case VL53L0X_DEVICEERROR_SIGMATHRESHOLDCHECK:
 160:Api\core\src/vl53l0x_api_strings.c **** 		VL53L0X_COPYSTRING(pDeviceErrorString,
 298              		.loc 1 160 0
 299 0036 0023     		movs	r3, #0
 300 0038 0B70     		strb	r3, [r1]
 161:Api\core\src/vl53l0x_api_strings.c **** 			VL53L0X_STRING_DEVICEERROR_SIGMATHRESHOLDCHECK);
 162:Api\core\src/vl53l0x_api_strings.c **** 	break;
 301              		.loc 1 162 0
 302 003a 16E0     		b	.L30
 303              	.L23:
 163:Api\core\src/vl53l0x_api_strings.c **** 	case VL53L0X_DEVICEERROR_TCC:
 164:Api\core\src/vl53l0x_api_strings.c **** 		VL53L0X_COPYSTRING(pDeviceErrorString,
 304              		.loc 1 164 0
 305 003c 0023     		movs	r3, #0
 306 003e 0B70     		strb	r3, [r1]
 165:Api\core\src/vl53l0x_api_strings.c **** 			VL53L0X_STRING_DEVICEERROR_TCC);
 166:Api\core\src/vl53l0x_api_strings.c **** 	break;
 307              		.loc 1 166 0
 308 0040 13E0     		b	.L30
 309              	.L24:
 167:Api\core\src/vl53l0x_api_strings.c **** 	case VL53L0X_DEVICEERROR_PHASECONSISTENCY:
 168:Api\core\src/vl53l0x_api_strings.c **** 		VL53L0X_COPYSTRING(pDeviceErrorString,
 310              		.loc 1 168 0
 311 0042 0023     		movs	r3, #0
 312 0044 0B70     		strb	r3, [r1]
 169:Api\core\src/vl53l0x_api_strings.c **** 			VL53L0X_STRING_DEVICEERROR_PHASECONSISTENCY);
 170:Api\core\src/vl53l0x_api_strings.c **** 	break;
 313              		.loc 1 170 0
 314 0046 10E0     		b	.L30
 315              	.L25:
 171:Api\core\src/vl53l0x_api_strings.c **** 	case VL53L0X_DEVICEERROR_MINCLIP:
 172:Api\core\src/vl53l0x_api_strings.c **** 		VL53L0X_COPYSTRING(pDeviceErrorString,
 316              		.loc 1 172 0
 317 0048 0023     		movs	r3, #0
 318 004a 0B70     		strb	r3, [r1]
 173:Api\core\src/vl53l0x_api_strings.c **** 			VL53L0X_STRING_DEVICEERROR_MINCLIP);
 174:Api\core\src/vl53l0x_api_strings.c **** 	break;
 319              		.loc 1 174 0
 320 004c 0DE0     		b	.L30
 321              	.L26:
 175:Api\core\src/vl53l0x_api_strings.c **** 	case VL53L0X_DEVICEERROR_RANGECOMPLETE:
 176:Api\core\src/vl53l0x_api_strings.c **** 		VL53L0X_COPYSTRING(pDeviceErrorString,
 322              		.loc 1 176 0
 323 004e 0023     		movs	r3, #0
 324 0050 0B70     		strb	r3, [r1]
 177:Api\core\src/vl53l0x_api_strings.c **** 			VL53L0X_STRING_DEVICEERROR_RANGECOMPLETE);
 178:Api\core\src/vl53l0x_api_strings.c **** 	break;
 325              		.loc 1 178 0
 326 0052 0AE0     		b	.L30
 327              	.L27:
 179:Api\core\src/vl53l0x_api_strings.c **** 	case VL53L0X_DEVICEERROR_ALGOUNDERFLOW:
 180:Api\core\src/vl53l0x_api_strings.c **** 		VL53L0X_COPYSTRING(pDeviceErrorString,
 328              		.loc 1 180 0
 329 0054 0023     		movs	r3, #0
 330 0056 0B70     		strb	r3, [r1]
 181:Api\core\src/vl53l0x_api_strings.c **** 			VL53L0X_STRING_DEVICEERROR_ALGOUNDERFLOW);
 182:Api\core\src/vl53l0x_api_strings.c **** 	break;
ARM GAS  C:\Users\Rajesh\AppData\Local\Temp\cc7Pt2jb.s 			page 10


 331              		.loc 1 182 0
 332 0058 07E0     		b	.L30
 333              	.L28:
 183:Api\core\src/vl53l0x_api_strings.c **** 	case VL53L0X_DEVICEERROR_ALGOOVERFLOW:
 184:Api\core\src/vl53l0x_api_strings.c **** 		VL53L0X_COPYSTRING(pDeviceErrorString,
 334              		.loc 1 184 0
 335 005a 0023     		movs	r3, #0
 336 005c 0B70     		strb	r3, [r1]
 185:Api\core\src/vl53l0x_api_strings.c **** 			VL53L0X_STRING_DEVICEERROR_ALGOOVERFLOW);
 186:Api\core\src/vl53l0x_api_strings.c **** 	break;
 337              		.loc 1 186 0
 338 005e 04E0     		b	.L30
 339              	.L29:
 187:Api\core\src/vl53l0x_api_strings.c **** 	case VL53L0X_DEVICEERROR_RANGEIGNORETHRESHOLD:
 188:Api\core\src/vl53l0x_api_strings.c **** 		VL53L0X_COPYSTRING(pDeviceErrorString,
 340              		.loc 1 188 0
 341 0060 0023     		movs	r3, #0
 342 0062 0B70     		strb	r3, [r1]
 189:Api\core\src/vl53l0x_api_strings.c **** 			VL53L0X_STRING_DEVICEERROR_RANGEIGNORETHRESHOLD);
 190:Api\core\src/vl53l0x_api_strings.c **** 	break;
 343              		.loc 1 190 0
 344 0064 01E0     		b	.L30
 345              	.LVL28:
 346              	.L13:
 191:Api\core\src/vl53l0x_api_strings.c **** 
 192:Api\core\src/vl53l0x_api_strings.c **** 	default:
 193:Api\core\src/vl53l0x_api_strings.c **** 		VL53L0X_COPYSTRING(pDeviceErrorString,
 347              		.loc 1 193 0
 348 0066 0023     		movs	r3, #0
 349 0068 0B70     		strb	r3, [r1]
 350              	.LVL29:
 351              	.L30:
 194:Api\core\src/vl53l0x_api_strings.c **** 			VL53L0X_STRING_UNKNOW_ERROR_CODE);
 195:Api\core\src/vl53l0x_api_strings.c **** 
 196:Api\core\src/vl53l0x_api_strings.c **** 	}
 197:Api\core\src/vl53l0x_api_strings.c **** 
 198:Api\core\src/vl53l0x_api_strings.c **** 	LOG_FUNCTION_END(Status);
 199:Api\core\src/vl53l0x_api_strings.c **** 	return Status;
 200:Api\core\src/vl53l0x_api_strings.c **** }
 352              		.loc 1 200 0
 353 006a 0020     		movs	r0, #0
 354              		@ sp needed
 355 006c 7047     		bx	lr
 356              	.L32:
 357 006e C046     		.align	2
 358              	.L31:
 359 0070 00000000 		.word	.L15
 360              		.cfi_endproc
 361              	.LFE3:
 362              		.size	VL53L0X_get_device_error_string, .-VL53L0X_get_device_error_string
 363              		.section	.text.VL53L0X_get_range_status_string,"ax",%progbits
 364              		.align	2
 365              		.global	VL53L0X_get_range_status_string
 366              		.code	16
 367              		.thumb_func
 368              		.type	VL53L0X_get_range_status_string, %function
 369              	VL53L0X_get_range_status_string:
ARM GAS  C:\Users\Rajesh\AppData\Local\Temp\cc7Pt2jb.s 			page 11


 370              	.LFB4:
 201:Api\core\src/vl53l0x_api_strings.c **** 
 202:Api\core\src/vl53l0x_api_strings.c **** VL53L0X_Error VL53L0X_get_range_status_string(uint8_t RangeStatus,
 203:Api\core\src/vl53l0x_api_strings.c **** 		char *pRangeStatusString)
 204:Api\core\src/vl53l0x_api_strings.c **** {
 371              		.loc 1 204 0
 372              		.cfi_startproc
 373              		@ args = 0, pretend = 0, frame = 0
 374              		@ frame_needed = 0, uses_anonymous_args = 0
 375              		@ link register save eliminated.
 376              	.LVL30:
 205:Api\core\src/vl53l0x_api_strings.c **** 	VL53L0X_Error Status = VL53L0X_ERROR_NONE;
 206:Api\core\src/vl53l0x_api_strings.c **** 
 207:Api\core\src/vl53l0x_api_strings.c **** 	LOG_FUNCTION_START("");
 208:Api\core\src/vl53l0x_api_strings.c **** 
 209:Api\core\src/vl53l0x_api_strings.c **** 	switch (RangeStatus) {
 377              		.loc 1 209 0
 378 0000 0528     		cmp	r0, #5
 379 0002 15D8     		bhi	.L34
 380 0004 8000     		lsls	r0, r0, #2
 381              	.LVL31:
 382 0006 0C4B     		ldr	r3, .L43
 383 0008 1B58     		ldr	r3, [r3, r0]
 384 000a 9F46     		mov	pc, r3
 385              		.section	.rodata
 386              		.align	2
 387              	.L36:
 388 003c 0C000000 		.word	.L35
 389 0040 12000000 		.word	.L37
 390 0044 18000000 		.word	.L38
 391 0048 1E000000 		.word	.L39
 392 004c 24000000 		.word	.L40
 393 0050 2A000000 		.word	.L41
 394              		.section	.text.VL53L0X_get_range_status_string
 395              	.L35:
 210:Api\core\src/vl53l0x_api_strings.c **** 	case 0:
 211:Api\core\src/vl53l0x_api_strings.c **** 		VL53L0X_COPYSTRING(pRangeStatusString,
 396              		.loc 1 211 0
 397 000c 0023     		movs	r3, #0
 398 000e 0B70     		strb	r3, [r1]
 212:Api\core\src/vl53l0x_api_strings.c **** 			VL53L0X_STRING_RANGESTATUS_RANGEVALID);
 213:Api\core\src/vl53l0x_api_strings.c **** 	break;
 399              		.loc 1 213 0
 400 0010 10E0     		b	.L42
 401              	.L37:
 214:Api\core\src/vl53l0x_api_strings.c **** 	case 1:
 215:Api\core\src/vl53l0x_api_strings.c **** 		VL53L0X_COPYSTRING(pRangeStatusString,
 402              		.loc 1 215 0
 403 0012 0023     		movs	r3, #0
 404 0014 0B70     		strb	r3, [r1]
 216:Api\core\src/vl53l0x_api_strings.c **** 			VL53L0X_STRING_RANGESTATUS_SIGMA);
 217:Api\core\src/vl53l0x_api_strings.c **** 	break;
 405              		.loc 1 217 0
 406 0016 0DE0     		b	.L42
 407              	.L38:
 218:Api\core\src/vl53l0x_api_strings.c **** 	case 2:
 219:Api\core\src/vl53l0x_api_strings.c **** 		VL53L0X_COPYSTRING(pRangeStatusString,
ARM GAS  C:\Users\Rajesh\AppData\Local\Temp\cc7Pt2jb.s 			page 12


 408              		.loc 1 219 0
 409 0018 0023     		movs	r3, #0
 410 001a 0B70     		strb	r3, [r1]
 220:Api\core\src/vl53l0x_api_strings.c **** 			VL53L0X_STRING_RANGESTATUS_SIGNAL);
 221:Api\core\src/vl53l0x_api_strings.c **** 	break;
 411              		.loc 1 221 0
 412 001c 0AE0     		b	.L42
 413              	.L39:
 222:Api\core\src/vl53l0x_api_strings.c **** 	case 3:
 223:Api\core\src/vl53l0x_api_strings.c **** 		VL53L0X_COPYSTRING(pRangeStatusString,
 414              		.loc 1 223 0
 415 001e 0023     		movs	r3, #0
 416 0020 0B70     		strb	r3, [r1]
 224:Api\core\src/vl53l0x_api_strings.c **** 			VL53L0X_STRING_RANGESTATUS_MINRANGE);
 225:Api\core\src/vl53l0x_api_strings.c **** 	break;
 417              		.loc 1 225 0
 418 0022 07E0     		b	.L42
 419              	.L40:
 226:Api\core\src/vl53l0x_api_strings.c **** 	case 4:
 227:Api\core\src/vl53l0x_api_strings.c **** 		VL53L0X_COPYSTRING(pRangeStatusString,
 420              		.loc 1 227 0
 421 0024 0023     		movs	r3, #0
 422 0026 0B70     		strb	r3, [r1]
 228:Api\core\src/vl53l0x_api_strings.c **** 			VL53L0X_STRING_RANGESTATUS_PHASE);
 229:Api\core\src/vl53l0x_api_strings.c **** 	break;
 423              		.loc 1 229 0
 424 0028 04E0     		b	.L42
 425              	.L41:
 230:Api\core\src/vl53l0x_api_strings.c **** 	case 5:
 231:Api\core\src/vl53l0x_api_strings.c **** 		VL53L0X_COPYSTRING(pRangeStatusString,
 426              		.loc 1 231 0
 427 002a 0023     		movs	r3, #0
 428 002c 0B70     		strb	r3, [r1]
 232:Api\core\src/vl53l0x_api_strings.c **** 			VL53L0X_STRING_RANGESTATUS_HW);
 233:Api\core\src/vl53l0x_api_strings.c **** 	break;
 429              		.loc 1 233 0
 430 002e 01E0     		b	.L42
 431              	.LVL32:
 432              	.L34:
 234:Api\core\src/vl53l0x_api_strings.c **** 
 235:Api\core\src/vl53l0x_api_strings.c **** 	default: /**/
 236:Api\core\src/vl53l0x_api_strings.c **** 		VL53L0X_COPYSTRING(pRangeStatusString,
 433              		.loc 1 236 0
 434 0030 0023     		movs	r3, #0
 435 0032 0B70     		strb	r3, [r1]
 436              	.LVL33:
 437              	.L42:
 237:Api\core\src/vl53l0x_api_strings.c **** 				VL53L0X_STRING_RANGESTATUS_NONE);
 238:Api\core\src/vl53l0x_api_strings.c **** 	}
 239:Api\core\src/vl53l0x_api_strings.c **** 
 240:Api\core\src/vl53l0x_api_strings.c **** 	LOG_FUNCTION_END(Status);
 241:Api\core\src/vl53l0x_api_strings.c **** 	return Status;
 242:Api\core\src/vl53l0x_api_strings.c **** }
 438              		.loc 1 242 0
 439 0034 0020     		movs	r0, #0
 440              		@ sp needed
 441 0036 7047     		bx	lr
ARM GAS  C:\Users\Rajesh\AppData\Local\Temp\cc7Pt2jb.s 			page 13


 442              	.L44:
 443              		.align	2
 444              	.L43:
 445 0038 3C000000 		.word	.L36
 446              		.cfi_endproc
 447              	.LFE4:
 448              		.size	VL53L0X_get_range_status_string, .-VL53L0X_get_range_status_string
 449              		.section	.text.VL53L0X_get_pal_error_string,"ax",%progbits
 450              		.align	2
 451              		.global	VL53L0X_get_pal_error_string
 452              		.code	16
 453              		.thumb_func
 454              		.type	VL53L0X_get_pal_error_string, %function
 455              	VL53L0X_get_pal_error_string:
 456              	.LFB5:
 243:Api\core\src/vl53l0x_api_strings.c **** 
 244:Api\core\src/vl53l0x_api_strings.c **** VL53L0X_Error VL53L0X_get_pal_error_string(VL53L0X_Error PalErrorCode,
 245:Api\core\src/vl53l0x_api_strings.c **** 		char *pPalErrorString)
 246:Api\core\src/vl53l0x_api_strings.c **** {
 457              		.loc 1 246 0
 458              		.cfi_startproc
 459              		@ args = 0, pretend = 0, frame = 0
 460              		@ frame_needed = 0, uses_anonymous_args = 0
 461              		@ link register save eliminated.
 462              	.LVL34:
 247:Api\core\src/vl53l0x_api_strings.c **** 	VL53L0X_Error Status = VL53L0X_ERROR_NONE;
 248:Api\core\src/vl53l0x_api_strings.c **** 
 249:Api\core\src/vl53l0x_api_strings.c **** 	LOG_FUNCTION_START("");
 250:Api\core\src/vl53l0x_api_strings.c **** 
 251:Api\core\src/vl53l0x_api_strings.c **** 	switch (PalErrorCode) {
 463              		.loc 1 251 0
 464 0000 6330     		adds	r0, r0, #99
 465              	.LVL35:
 466 0002 C3B2     		uxtb	r3, r0
 467 0004 632B     		cmp	r3, #99
 468 0006 36D8     		bhi	.L46
 469 0008 9800     		lsls	r0, r3, #2
 470 000a 1D4B     		ldr	r3, .L66
 471 000c 1B58     		ldr	r3, [r3, r0]
 472 000e 9F46     		mov	pc, r3
 473              		.section	.rodata
 474              		.align	2
 475              	.L48:
 476 0054 70000000 		.word	.L47
 477 0058 76000000 		.word	.L46
 478 005c 76000000 		.word	.L46
 479 0060 76000000 		.word	.L46
 480 0064 76000000 		.word	.L46
 481 0068 76000000 		.word	.L46
 482 006c 76000000 		.word	.L46
 483 0070 76000000 		.word	.L46
 484 0074 76000000 		.word	.L46
 485 0078 76000000 		.word	.L46
 486 007c 76000000 		.word	.L46
 487 0080 76000000 		.word	.L46
 488 0084 76000000 		.word	.L46
 489 0088 76000000 		.word	.L46
ARM GAS  C:\Users\Rajesh\AppData\Local\Temp\cc7Pt2jb.s 			page 14


 490 008c 76000000 		.word	.L46
 491 0090 76000000 		.word	.L46
 492 0094 76000000 		.word	.L46
 493 0098 76000000 		.word	.L46
 494 009c 76000000 		.word	.L46
 495 00a0 76000000 		.word	.L46
 496 00a4 76000000 		.word	.L46
 497 00a8 76000000 		.word	.L46
 498 00ac 76000000 		.word	.L46
 499 00b0 76000000 		.word	.L46
 500 00b4 76000000 		.word	.L46
 501 00b8 76000000 		.word	.L46
 502 00bc 76000000 		.word	.L46
 503 00c0 76000000 		.word	.L46
 504 00c4 76000000 		.word	.L46
 505 00c8 76000000 		.word	.L46
 506 00cc 76000000 		.word	.L46
 507 00d0 76000000 		.word	.L46
 508 00d4 76000000 		.word	.L46
 509 00d8 76000000 		.word	.L46
 510 00dc 76000000 		.word	.L46
 511 00e0 76000000 		.word	.L46
 512 00e4 76000000 		.word	.L46
 513 00e8 76000000 		.word	.L46
 514 00ec 76000000 		.word	.L46
 515 00f0 76000000 		.word	.L46
 516 00f4 76000000 		.word	.L46
 517 00f8 76000000 		.word	.L46
 518 00fc 76000000 		.word	.L46
 519 0100 76000000 		.word	.L46
 520 0104 76000000 		.word	.L46
 521 0108 76000000 		.word	.L46
 522 010c 76000000 		.word	.L46
 523 0110 76000000 		.word	.L46
 524 0114 76000000 		.word	.L46
 525 0118 6A000000 		.word	.L49
 526 011c 76000000 		.word	.L46
 527 0120 76000000 		.word	.L46
 528 0124 76000000 		.word	.L46
 529 0128 76000000 		.word	.L46
 530 012c 76000000 		.word	.L46
 531 0130 76000000 		.word	.L46
 532 0134 76000000 		.word	.L46
 533 0138 76000000 		.word	.L46
 534 013c 76000000 		.word	.L46
 535 0140 64000000 		.word	.L50
 536 0144 76000000 		.word	.L46
 537 0148 76000000 		.word	.L46
 538 014c 76000000 		.word	.L46
 539 0150 76000000 		.word	.L46
 540 0154 76000000 		.word	.L46
 541 0158 76000000 		.word	.L46
 542 015c 76000000 		.word	.L46
 543 0160 76000000 		.word	.L46
 544 0164 76000000 		.word	.L46
 545 0168 5E000000 		.word	.L51
 546 016c 76000000 		.word	.L46
ARM GAS  C:\Users\Rajesh\AppData\Local\Temp\cc7Pt2jb.s 			page 15


 547 0170 76000000 		.word	.L46
 548 0174 76000000 		.word	.L46
 549 0178 76000000 		.word	.L46
 550 017c 76000000 		.word	.L46
 551 0180 76000000 		.word	.L46
 552 0184 76000000 		.word	.L46
 553 0188 76000000 		.word	.L46
 554 018c 76000000 		.word	.L46
 555 0190 58000000 		.word	.L52
 556 0194 76000000 		.word	.L46
 557 0198 76000000 		.word	.L46
 558 019c 76000000 		.word	.L46
 559 01a0 76000000 		.word	.L46
 560 01a4 76000000 		.word	.L46
 561 01a8 76000000 		.word	.L46
 562 01ac 76000000 		.word	.L46
 563 01b0 7A000000 		.word	.L53
 564 01b4 52000000 		.word	.L54
 565 01b8 4C000000 		.word	.L55
 566 01bc 46000000 		.word	.L56
 567 01c0 40000000 		.word	.L57
 568 01c4 3A000000 		.word	.L58
 569 01c8 34000000 		.word	.L59
 570 01cc 2E000000 		.word	.L60
 571 01d0 28000000 		.word	.L61
 572 01d4 22000000 		.word	.L62
 573 01d8 1C000000 		.word	.L63
 574 01dc 16000000 		.word	.L64
 575 01e0 10000000 		.word	.L65
 576              		.section	.text.VL53L0X_get_pal_error_string
 577              	.L65:
 252:Api\core\src/vl53l0x_api_strings.c **** 	case VL53L0X_ERROR_NONE:
 253:Api\core\src/vl53l0x_api_strings.c **** 		VL53L0X_COPYSTRING(pPalErrorString,
 578              		.loc 1 253 0
 579 0010 0023     		movs	r3, #0
 580 0012 0B70     		strb	r3, [r1]
 254:Api\core\src/vl53l0x_api_strings.c **** 			VL53L0X_STRING_ERROR_NONE);
 255:Api\core\src/vl53l0x_api_strings.c **** 	break;
 581              		.loc 1 255 0
 582 0014 31E0     		b	.L53
 583              	.L64:
 256:Api\core\src/vl53l0x_api_strings.c **** 	case VL53L0X_ERROR_CALIBRATION_WARNING:
 257:Api\core\src/vl53l0x_api_strings.c **** 		VL53L0X_COPYSTRING(pPalErrorString,
 584              		.loc 1 257 0
 585 0016 0023     		movs	r3, #0
 586 0018 0B70     		strb	r3, [r1]
 258:Api\core\src/vl53l0x_api_strings.c **** 			VL53L0X_STRING_ERROR_CALIBRATION_WARNING);
 259:Api\core\src/vl53l0x_api_strings.c **** 	break;
 587              		.loc 1 259 0
 588 001a 2EE0     		b	.L53
 589              	.L63:
 260:Api\core\src/vl53l0x_api_strings.c **** 	case VL53L0X_ERROR_MIN_CLIPPED:
 261:Api\core\src/vl53l0x_api_strings.c **** 		VL53L0X_COPYSTRING(pPalErrorString,
 590              		.loc 1 261 0
 591 001c 0023     		movs	r3, #0
 592 001e 0B70     		strb	r3, [r1]
 262:Api\core\src/vl53l0x_api_strings.c **** 			VL53L0X_STRING_ERROR_MIN_CLIPPED);
ARM GAS  C:\Users\Rajesh\AppData\Local\Temp\cc7Pt2jb.s 			page 16


 263:Api\core\src/vl53l0x_api_strings.c **** 	break;
 593              		.loc 1 263 0
 594 0020 2BE0     		b	.L53
 595              	.L62:
 264:Api\core\src/vl53l0x_api_strings.c **** 	case VL53L0X_ERROR_UNDEFINED:
 265:Api\core\src/vl53l0x_api_strings.c **** 		VL53L0X_COPYSTRING(pPalErrorString,
 596              		.loc 1 265 0
 597 0022 0023     		movs	r3, #0
 598 0024 0B70     		strb	r3, [r1]
 266:Api\core\src/vl53l0x_api_strings.c **** 			VL53L0X_STRING_ERROR_UNDEFINED);
 267:Api\core\src/vl53l0x_api_strings.c **** 	break;
 599              		.loc 1 267 0
 600 0026 28E0     		b	.L53
 601              	.L61:
 268:Api\core\src/vl53l0x_api_strings.c **** 	case VL53L0X_ERROR_INVALID_PARAMS:
 269:Api\core\src/vl53l0x_api_strings.c **** 		VL53L0X_COPYSTRING(pPalErrorString,
 602              		.loc 1 269 0
 603 0028 0023     		movs	r3, #0
 604 002a 0B70     		strb	r3, [r1]
 270:Api\core\src/vl53l0x_api_strings.c **** 			VL53L0X_STRING_ERROR_INVALID_PARAMS);
 271:Api\core\src/vl53l0x_api_strings.c **** 	break;
 605              		.loc 1 271 0
 606 002c 25E0     		b	.L53
 607              	.L60:
 272:Api\core\src/vl53l0x_api_strings.c **** 	case VL53L0X_ERROR_NOT_SUPPORTED:
 273:Api\core\src/vl53l0x_api_strings.c **** 		VL53L0X_COPYSTRING(pPalErrorString,
 608              		.loc 1 273 0
 609 002e 0023     		movs	r3, #0
 610 0030 0B70     		strb	r3, [r1]
 274:Api\core\src/vl53l0x_api_strings.c **** 			VL53L0X_STRING_ERROR_NOT_SUPPORTED);
 275:Api\core\src/vl53l0x_api_strings.c **** 	break;
 611              		.loc 1 275 0
 612 0032 22E0     		b	.L53
 613              	.L59:
 276:Api\core\src/vl53l0x_api_strings.c **** 	case VL53L0X_ERROR_INTERRUPT_NOT_CLEARED:
 277:Api\core\src/vl53l0x_api_strings.c **** 		//VL53L0X_COPYSTRING(pPalErrorString,
 278:Api\core\src/vl53l0x_api_strings.c **** 		//	VL53L0X_STRING_ERROR_INTERRUPT_NOT_CLEARED);
 279:Api\core\src/vl53l0x_api_strings.c **** 	break;
 280:Api\core\src/vl53l0x_api_strings.c **** 	case VL53L0X_ERROR_RANGE_ERROR:
 281:Api\core\src/vl53l0x_api_strings.c **** 		VL53L0X_COPYSTRING(pPalErrorString,
 614              		.loc 1 281 0
 615 0034 0023     		movs	r3, #0
 616 0036 0B70     		strb	r3, [r1]
 282:Api\core\src/vl53l0x_api_strings.c **** 			VL53L0X_STRING_ERROR_RANGE_ERROR);
 283:Api\core\src/vl53l0x_api_strings.c **** 	break;
 617              		.loc 1 283 0
 618 0038 1FE0     		b	.L53
 619              	.L58:
 284:Api\core\src/vl53l0x_api_strings.c **** 	case VL53L0X_ERROR_TIME_OUT:
 285:Api\core\src/vl53l0x_api_strings.c **** 		VL53L0X_COPYSTRING(pPalErrorString,
 620              		.loc 1 285 0
 621 003a 0023     		movs	r3, #0
 622 003c 0B70     		strb	r3, [r1]
 286:Api\core\src/vl53l0x_api_strings.c **** 			VL53L0X_STRING_ERROR_TIME_OUT);
 287:Api\core\src/vl53l0x_api_strings.c **** 	break;
 623              		.loc 1 287 0
 624 003e 1CE0     		b	.L53
ARM GAS  C:\Users\Rajesh\AppData\Local\Temp\cc7Pt2jb.s 			page 17


 625              	.L57:
 288:Api\core\src/vl53l0x_api_strings.c **** 	case VL53L0X_ERROR_MODE_NOT_SUPPORTED:
 289:Api\core\src/vl53l0x_api_strings.c **** 		VL53L0X_COPYSTRING(pPalErrorString,
 626              		.loc 1 289 0
 627 0040 0023     		movs	r3, #0
 628 0042 0B70     		strb	r3, [r1]
 290:Api\core\src/vl53l0x_api_strings.c **** 			VL53L0X_STRING_ERROR_MODE_NOT_SUPPORTED);
 291:Api\core\src/vl53l0x_api_strings.c **** 	break;
 629              		.loc 1 291 0
 630 0044 19E0     		b	.L53
 631              	.L56:
 292:Api\core\src/vl53l0x_api_strings.c **** 	case VL53L0X_ERROR_BUFFER_TOO_SMALL:
 293:Api\core\src/vl53l0x_api_strings.c **** 		VL53L0X_COPYSTRING(pPalErrorString,
 632              		.loc 1 293 0
 633 0046 0023     		movs	r3, #0
 634 0048 0B70     		strb	r3, [r1]
 294:Api\core\src/vl53l0x_api_strings.c **** 			VL53L0X_STRING_ERROR_BUFFER_TOO_SMALL);
 295:Api\core\src/vl53l0x_api_strings.c **** 	break;
 635              		.loc 1 295 0
 636 004a 16E0     		b	.L53
 637              	.L55:
 296:Api\core\src/vl53l0x_api_strings.c **** 	case VL53L0X_ERROR_GPIO_NOT_EXISTING:
 297:Api\core\src/vl53l0x_api_strings.c **** 		VL53L0X_COPYSTRING(pPalErrorString,
 638              		.loc 1 297 0
 639 004c 0023     		movs	r3, #0
 640 004e 0B70     		strb	r3, [r1]
 298:Api\core\src/vl53l0x_api_strings.c **** 			VL53L0X_STRING_ERROR_GPIO_NOT_EXISTING);
 299:Api\core\src/vl53l0x_api_strings.c **** 	break;
 641              		.loc 1 299 0
 642 0050 13E0     		b	.L53
 643              	.L54:
 300:Api\core\src/vl53l0x_api_strings.c **** 	case VL53L0X_ERROR_GPIO_FUNCTIONALITY_NOT_SUPPORTED:
 301:Api\core\src/vl53l0x_api_strings.c **** 		VL53L0X_COPYSTRING(pPalErrorString,
 644              		.loc 1 301 0
 645 0052 0023     		movs	r3, #0
 646 0054 0B70     		strb	r3, [r1]
 302:Api\core\src/vl53l0x_api_strings.c **** 			VL53L0X_STRING_ERROR_GPIO_FUNCTIONALITY_NOT_SUPPORTED);
 303:Api\core\src/vl53l0x_api_strings.c **** 	break;
 647              		.loc 1 303 0
 648 0056 10E0     		b	.L53
 649              	.L52:
 304:Api\core\src/vl53l0x_api_strings.c **** 	case VL53L0X_ERROR_CONTROL_INTERFACE:
 305:Api\core\src/vl53l0x_api_strings.c **** 		VL53L0X_COPYSTRING(pPalErrorString,
 650              		.loc 1 305 0
 651 0058 0023     		movs	r3, #0
 652 005a 0B70     		strb	r3, [r1]
 306:Api\core\src/vl53l0x_api_strings.c **** 			VL53L0X_STRING_ERROR_CONTROL_INTERFACE);
 307:Api\core\src/vl53l0x_api_strings.c **** 	break;
 653              		.loc 1 307 0
 654 005c 0DE0     		b	.L53
 655              	.L51:
 308:Api\core\src/vl53l0x_api_strings.c **** 	case VL53L0X_ERROR_INVALID_COMMAND:
 309:Api\core\src/vl53l0x_api_strings.c **** 		VL53L0X_COPYSTRING(pPalErrorString,
 656              		.loc 1 309 0
 657 005e 0023     		movs	r3, #0
 658 0060 0B70     		strb	r3, [r1]
 310:Api\core\src/vl53l0x_api_strings.c **** 			VL53L0X_STRING_ERROR_INVALID_COMMAND);
ARM GAS  C:\Users\Rajesh\AppData\Local\Temp\cc7Pt2jb.s 			page 18


 311:Api\core\src/vl53l0x_api_strings.c **** 	break;
 659              		.loc 1 311 0
 660 0062 0AE0     		b	.L53
 661              	.L50:
 312:Api\core\src/vl53l0x_api_strings.c **** 	case VL53L0X_ERROR_DIVISION_BY_ZERO:
 313:Api\core\src/vl53l0x_api_strings.c **** 		VL53L0X_COPYSTRING(pPalErrorString,
 662              		.loc 1 313 0
 663 0064 0023     		movs	r3, #0
 664 0066 0B70     		strb	r3, [r1]
 314:Api\core\src/vl53l0x_api_strings.c **** 			VL53L0X_STRING_ERROR_DIVISION_BY_ZERO);
 315:Api\core\src/vl53l0x_api_strings.c **** 	break;
 665              		.loc 1 315 0
 666 0068 07E0     		b	.L53
 667              	.L49:
 316:Api\core\src/vl53l0x_api_strings.c **** 	case VL53L0X_ERROR_REF_SPAD_INIT:
 317:Api\core\src/vl53l0x_api_strings.c **** 		VL53L0X_COPYSTRING(pPalErrorString,
 668              		.loc 1 317 0
 669 006a 0023     		movs	r3, #0
 670 006c 0B70     		strb	r3, [r1]
 318:Api\core\src/vl53l0x_api_strings.c **** 			VL53L0X_STRING_ERROR_REF_SPAD_INIT);
 319:Api\core\src/vl53l0x_api_strings.c **** 	break;
 671              		.loc 1 319 0
 672 006e 04E0     		b	.L53
 673              	.L47:
 320:Api\core\src/vl53l0x_api_strings.c **** 	case VL53L0X_ERROR_NOT_IMPLEMENTED:
 321:Api\core\src/vl53l0x_api_strings.c **** 		VL53L0X_COPYSTRING(pPalErrorString,
 674              		.loc 1 321 0
 675 0070 0023     		movs	r3, #0
 676 0072 0B70     		strb	r3, [r1]
 322:Api\core\src/vl53l0x_api_strings.c **** 			VL53L0X_STRING_ERROR_NOT_IMPLEMENTED);
 323:Api\core\src/vl53l0x_api_strings.c **** 	break;
 677              		.loc 1 323 0
 678 0074 01E0     		b	.L53
 679              	.L46:
 324:Api\core\src/vl53l0x_api_strings.c **** 
 325:Api\core\src/vl53l0x_api_strings.c **** 	default:
 326:Api\core\src/vl53l0x_api_strings.c **** 		VL53L0X_COPYSTRING(pPalErrorString,
 680              		.loc 1 326 0
 681 0076 0023     		movs	r3, #0
 682 0078 0B70     		strb	r3, [r1]
 683              	.L53:
 327:Api\core\src/vl53l0x_api_strings.c **** 				VL53L0X_STRING_UNKNOW_ERROR_CODE);
 328:Api\core\src/vl53l0x_api_strings.c **** 	}
 329:Api\core\src/vl53l0x_api_strings.c **** 
 330:Api\core\src/vl53l0x_api_strings.c **** 	LOG_FUNCTION_END(Status);
 331:Api\core\src/vl53l0x_api_strings.c **** 	return Status;
 332:Api\core\src/vl53l0x_api_strings.c **** }
 684              		.loc 1 332 0
 685 007a 0020     		movs	r0, #0
 686              		@ sp needed
 687 007c 7047     		bx	lr
 688              	.L67:
 689 007e C046     		.align	2
 690              	.L66:
 691 0080 54000000 		.word	.L48
 692              		.cfi_endproc
 693              	.LFE5:
ARM GAS  C:\Users\Rajesh\AppData\Local\Temp\cc7Pt2jb.s 			page 19


 694              		.size	VL53L0X_get_pal_error_string, .-VL53L0X_get_pal_error_string
 695              		.section	.text.VL53L0X_get_pal_state_string,"ax",%progbits
 696              		.align	2
 697              		.global	VL53L0X_get_pal_state_string
 698              		.code	16
 699              		.thumb_func
 700              		.type	VL53L0X_get_pal_state_string, %function
 701              	VL53L0X_get_pal_state_string:
 702              	.LFB6:
 333:Api\core\src/vl53l0x_api_strings.c **** 
 334:Api\core\src/vl53l0x_api_strings.c **** VL53L0X_Error VL53L0X_get_pal_state_string(VL53L0X_State PalStateCode,
 335:Api\core\src/vl53l0x_api_strings.c **** 		char *pPalStateString)
 336:Api\core\src/vl53l0x_api_strings.c **** {
 703              		.loc 1 336 0
 704              		.cfi_startproc
 705              		@ args = 0, pretend = 0, frame = 0
 706              		@ frame_needed = 0, uses_anonymous_args = 0
 707              		@ link register save eliminated.
 708              	.LVL36:
 337:Api\core\src/vl53l0x_api_strings.c **** 	VL53L0X_Error Status = VL53L0X_ERROR_NONE;
 338:Api\core\src/vl53l0x_api_strings.c **** 
 339:Api\core\src/vl53l0x_api_strings.c **** 	LOG_FUNCTION_START("");
 340:Api\core\src/vl53l0x_api_strings.c **** 
 341:Api\core\src/vl53l0x_api_strings.c **** 	switch (PalStateCode) {
 709              		.loc 1 341 0
 710 0000 0328     		cmp	r0, #3
 711 0002 14D0     		beq	.L70
 712 0004 03D8     		bhi	.L71
 713 0006 0128     		cmp	r0, #1
 714 0008 0BD0     		beq	.L72
 715 000a 07D9     		bls	.L79
 716 000c 0CE0     		b	.L73
 717              	.L71:
 718 000e 6228     		cmp	r0, #98
 719 0010 13D0     		beq	.L75
 720 0012 6328     		cmp	r0, #99
 721 0014 14D0     		beq	.L76
 722 0016 0428     		cmp	r0, #4
 723 0018 15D1     		bne	.L80
 724 001a 0BE0     		b	.L77
 725              	.L79:
 342:Api\core\src/vl53l0x_api_strings.c **** 	case VL53L0X_STATE_POWERDOWN:
 343:Api\core\src/vl53l0x_api_strings.c **** 		VL53L0X_COPYSTRING(pPalStateString,
 726              		.loc 1 343 0
 727 001c 0023     		movs	r3, #0
 728 001e 0B70     		strb	r3, [r1]
 344:Api\core\src/vl53l0x_api_strings.c **** 			VL53L0X_STRING_STATE_POWERDOWN);
 345:Api\core\src/vl53l0x_api_strings.c **** 	break;
 729              		.loc 1 345 0
 730 0020 13E0     		b	.L78
 731              	.L72:
 346:Api\core\src/vl53l0x_api_strings.c **** 	case VL53L0X_STATE_WAIT_STATICINIT:
 347:Api\core\src/vl53l0x_api_strings.c **** 		VL53L0X_COPYSTRING(pPalStateString,
 732              		.loc 1 347 0
 733 0022 0023     		movs	r3, #0
 734 0024 0B70     		strb	r3, [r1]
 348:Api\core\src/vl53l0x_api_strings.c **** 			VL53L0X_STRING_STATE_WAIT_STATICINIT);
ARM GAS  C:\Users\Rajesh\AppData\Local\Temp\cc7Pt2jb.s 			page 20


 349:Api\core\src/vl53l0x_api_strings.c **** 	break;
 735              		.loc 1 349 0
 736 0026 10E0     		b	.L78
 737              	.L73:
 350:Api\core\src/vl53l0x_api_strings.c **** 	case VL53L0X_STATE_STANDBY:
 351:Api\core\src/vl53l0x_api_strings.c **** 		VL53L0X_COPYSTRING(pPalStateString,
 738              		.loc 1 351 0
 739 0028 0023     		movs	r3, #0
 740 002a 0B70     		strb	r3, [r1]
 352:Api\core\src/vl53l0x_api_strings.c **** 			VL53L0X_STRING_STATE_STANDBY);
 353:Api\core\src/vl53l0x_api_strings.c **** 	break;
 741              		.loc 1 353 0
 742 002c 0DE0     		b	.L78
 743              	.L70:
 354:Api\core\src/vl53l0x_api_strings.c **** 	case VL53L0X_STATE_IDLE:
 355:Api\core\src/vl53l0x_api_strings.c **** 		VL53L0X_COPYSTRING(pPalStateString,
 744              		.loc 1 355 0
 745 002e 0023     		movs	r3, #0
 746 0030 0B70     		strb	r3, [r1]
 356:Api\core\src/vl53l0x_api_strings.c **** 			VL53L0X_STRING_STATE_IDLE);
 357:Api\core\src/vl53l0x_api_strings.c **** 	break;
 747              		.loc 1 357 0
 748 0032 0AE0     		b	.L78
 749              	.L77:
 358:Api\core\src/vl53l0x_api_strings.c **** 	case VL53L0X_STATE_RUNNING:
 359:Api\core\src/vl53l0x_api_strings.c **** 		VL53L0X_COPYSTRING(pPalStateString,
 750              		.loc 1 359 0
 751 0034 0023     		movs	r3, #0
 752 0036 0B70     		strb	r3, [r1]
 360:Api\core\src/vl53l0x_api_strings.c **** 			VL53L0X_STRING_STATE_RUNNING);
 361:Api\core\src/vl53l0x_api_strings.c **** 	break;
 753              		.loc 1 361 0
 754 0038 07E0     		b	.L78
 755              	.L75:
 362:Api\core\src/vl53l0x_api_strings.c **** 	case VL53L0X_STATE_UNKNOWN:
 363:Api\core\src/vl53l0x_api_strings.c **** 		VL53L0X_COPYSTRING(pPalStateString,
 756              		.loc 1 363 0
 757 003a 0023     		movs	r3, #0
 758 003c 0B70     		strb	r3, [r1]
 364:Api\core\src/vl53l0x_api_strings.c **** 			VL53L0X_STRING_STATE_UNKNOWN);
 365:Api\core\src/vl53l0x_api_strings.c **** 	break;
 759              		.loc 1 365 0
 760 003e 04E0     		b	.L78
 761              	.L76:
 366:Api\core\src/vl53l0x_api_strings.c **** 	case VL53L0X_STATE_ERROR:
 367:Api\core\src/vl53l0x_api_strings.c **** 		VL53L0X_COPYSTRING(pPalStateString,
 762              		.loc 1 367 0
 763 0040 0023     		movs	r3, #0
 764 0042 0B70     		strb	r3, [r1]
 368:Api\core\src/vl53l0x_api_strings.c **** 			VL53L0X_STRING_STATE_ERROR);
 369:Api\core\src/vl53l0x_api_strings.c **** 	break;
 765              		.loc 1 369 0
 766 0044 01E0     		b	.L78
 767              	.L80:
 370:Api\core\src/vl53l0x_api_strings.c **** 
 371:Api\core\src/vl53l0x_api_strings.c **** 	default:
 372:Api\core\src/vl53l0x_api_strings.c **** 		VL53L0X_COPYSTRING(pPalStateString,
ARM GAS  C:\Users\Rajesh\AppData\Local\Temp\cc7Pt2jb.s 			page 21


 768              		.loc 1 372 0
 769 0046 0023     		movs	r3, #0
 770 0048 0B70     		strb	r3, [r1]
 771              	.L78:
 373:Api\core\src/vl53l0x_api_strings.c **** 			VL53L0X_STRING_STATE_UNKNOWN);
 374:Api\core\src/vl53l0x_api_strings.c **** 	}
 375:Api\core\src/vl53l0x_api_strings.c **** 
 376:Api\core\src/vl53l0x_api_strings.c **** 	LOG_FUNCTION_END(Status);
 377:Api\core\src/vl53l0x_api_strings.c **** 	return Status;
 378:Api\core\src/vl53l0x_api_strings.c **** }
 772              		.loc 1 378 0
 773 004a 0020     		movs	r0, #0
 774              	.LVL37:
 775              		@ sp needed
 776 004c 7047     		bx	lr
 777              		.cfi_endproc
 778              	.LFE6:
 779              		.size	VL53L0X_get_pal_state_string, .-VL53L0X_get_pal_state_string
 780 004e C046     		.section	.text.VL53L0X_get_sequence_steps_info,"ax",%progbits
 781              		.align	2
 782              		.global	VL53L0X_get_sequence_steps_info
 783              		.code	16
 784              		.thumb_func
 785              		.type	VL53L0X_get_sequence_steps_info, %function
 786              	VL53L0X_get_sequence_steps_info:
 787              	.LFB7:
 379:Api\core\src/vl53l0x_api_strings.c **** 
 380:Api\core\src/vl53l0x_api_strings.c **** VL53L0X_Error VL53L0X_get_sequence_steps_info(
 381:Api\core\src/vl53l0x_api_strings.c **** 		VL53L0X_SequenceStepId SequenceStepId,
 382:Api\core\src/vl53l0x_api_strings.c **** 		char *pSequenceStepsString)
 383:Api\core\src/vl53l0x_api_strings.c **** {
 788              		.loc 1 383 0
 789              		.cfi_startproc
 790              		@ args = 0, pretend = 0, frame = 0
 791              		@ frame_needed = 0, uses_anonymous_args = 0
 792              		@ link register save eliminated.
 793              	.LVL38:
 384:Api\core\src/vl53l0x_api_strings.c **** 	VL53L0X_Error Status = VL53L0X_ERROR_NONE;
 385:Api\core\src/vl53l0x_api_strings.c **** 	LOG_FUNCTION_START("");
 386:Api\core\src/vl53l0x_api_strings.c **** 
 387:Api\core\src/vl53l0x_api_strings.c **** 	switch (SequenceStepId) {
 794              		.loc 1 387 0
 795 0000 0428     		cmp	r0, #4
 796 0002 17D8     		bhi	.L89
 797 0004 8000     		lsls	r0, r0, #2
 798              	.LVL39:
 799 0006 0D4B     		ldr	r3, .L90
 800 0008 1B58     		ldr	r3, [r3, r0]
 801 000a 9F46     		mov	pc, r3
 802              		.section	.rodata
 803              		.align	2
 804              	.L84:
 805 01e4 0C000000 		.word	.L83
 806 01e8 14000000 		.word	.L85
 807 01ec 1C000000 		.word	.L86
 808 01f0 24000000 		.word	.L87
 809 01f4 2C000000 		.word	.L88
ARM GAS  C:\Users\Rajesh\AppData\Local\Temp\cc7Pt2jb.s 			page 22


 810              		.section	.text.VL53L0X_get_sequence_steps_info
 811              	.L83:
 388:Api\core\src/vl53l0x_api_strings.c **** 	case VL53L0X_SEQUENCESTEP_TCC:
 389:Api\core\src/vl53l0x_api_strings.c **** 		VL53L0X_COPYSTRING(pSequenceStepsString,
 812              		.loc 1 389 0
 813 000c 0023     		movs	r3, #0
 814 000e 0B70     		strb	r3, [r1]
 384:Api\core\src/vl53l0x_api_strings.c **** 	VL53L0X_Error Status = VL53L0X_ERROR_NONE;
 815              		.loc 1 384 0
 816 0010 0020     		movs	r0, #0
 390:Api\core\src/vl53l0x_api_strings.c **** 			VL53L0X_STRING_SEQUENCESTEP_TCC);
 391:Api\core\src/vl53l0x_api_strings.c **** 	break;
 817              		.loc 1 391 0
 818 0012 11E0     		b	.L82
 819              	.L85:
 392:Api\core\src/vl53l0x_api_strings.c **** 	case VL53L0X_SEQUENCESTEP_DSS:
 393:Api\core\src/vl53l0x_api_strings.c **** 		VL53L0X_COPYSTRING(pSequenceStepsString,
 820              		.loc 1 393 0
 821 0014 0023     		movs	r3, #0
 822 0016 0B70     		strb	r3, [r1]
 384:Api\core\src/vl53l0x_api_strings.c **** 	LOG_FUNCTION_START("");
 823              		.loc 1 384 0
 824 0018 0020     		movs	r0, #0
 394:Api\core\src/vl53l0x_api_strings.c **** 			VL53L0X_STRING_SEQUENCESTEP_DSS);
 395:Api\core\src/vl53l0x_api_strings.c **** 	break;
 825              		.loc 1 395 0
 826 001a 0DE0     		b	.L82
 827              	.L86:
 396:Api\core\src/vl53l0x_api_strings.c **** 	case VL53L0X_SEQUENCESTEP_MSRC:
 397:Api\core\src/vl53l0x_api_strings.c **** 		VL53L0X_COPYSTRING(pSequenceStepsString,
 828              		.loc 1 397 0
 829 001c 0023     		movs	r3, #0
 830 001e 0B70     		strb	r3, [r1]
 384:Api\core\src/vl53l0x_api_strings.c **** 	LOG_FUNCTION_START("");
 831              		.loc 1 384 0
 832 0020 0020     		movs	r0, #0
 398:Api\core\src/vl53l0x_api_strings.c **** 			VL53L0X_STRING_SEQUENCESTEP_MSRC);
 399:Api\core\src/vl53l0x_api_strings.c **** 	break;
 833              		.loc 1 399 0
 834 0022 09E0     		b	.L82
 835              	.L87:
 400:Api\core\src/vl53l0x_api_strings.c **** 	case VL53L0X_SEQUENCESTEP_PRE_RANGE:
 401:Api\core\src/vl53l0x_api_strings.c **** 		VL53L0X_COPYSTRING(pSequenceStepsString,
 836              		.loc 1 401 0
 837 0024 0023     		movs	r3, #0
 838 0026 0B70     		strb	r3, [r1]
 384:Api\core\src/vl53l0x_api_strings.c **** 	LOG_FUNCTION_START("");
 839              		.loc 1 384 0
 840 0028 0020     		movs	r0, #0
 402:Api\core\src/vl53l0x_api_strings.c **** 			VL53L0X_STRING_SEQUENCESTEP_PRE_RANGE);
 403:Api\core\src/vl53l0x_api_strings.c **** 	break;
 841              		.loc 1 403 0
 842 002a 05E0     		b	.L82
 843              	.L88:
 404:Api\core\src/vl53l0x_api_strings.c **** 	case VL53L0X_SEQUENCESTEP_FINAL_RANGE:
 405:Api\core\src/vl53l0x_api_strings.c **** 		VL53L0X_COPYSTRING(pSequenceStepsString,
 844              		.loc 1 405 0
ARM GAS  C:\Users\Rajesh\AppData\Local\Temp\cc7Pt2jb.s 			page 23


 845 002c 0023     		movs	r3, #0
 846 002e 0B70     		strb	r3, [r1]
 384:Api\core\src/vl53l0x_api_strings.c **** 	LOG_FUNCTION_START("");
 847              		.loc 1 384 0
 848 0030 0020     		movs	r0, #0
 406:Api\core\src/vl53l0x_api_strings.c **** 			VL53L0X_STRING_SEQUENCESTEP_FINAL_RANGE);
 407:Api\core\src/vl53l0x_api_strings.c **** 	break;
 849              		.loc 1 407 0
 850 0032 01E0     		b	.L82
 851              	.LVL40:
 852              	.L89:
 408:Api\core\src/vl53l0x_api_strings.c **** 
 409:Api\core\src/vl53l0x_api_strings.c **** 	default:
 410:Api\core\src/vl53l0x_api_strings.c **** 		Status = VL53L0X_ERROR_INVALID_PARAMS;
 853              		.loc 1 410 0
 854 0034 0420     		movs	r0, #4
 855              	.LVL41:
 856 0036 4042     		rsbs	r0, r0, #0
 857              	.L82:
 858              	.LVL42:
 411:Api\core\src/vl53l0x_api_strings.c **** 	}
 412:Api\core\src/vl53l0x_api_strings.c **** 
 413:Api\core\src/vl53l0x_api_strings.c **** 	LOG_FUNCTION_END(Status);
 414:Api\core\src/vl53l0x_api_strings.c **** 
 415:Api\core\src/vl53l0x_api_strings.c **** 	return Status;
 416:Api\core\src/vl53l0x_api_strings.c **** }
 859              		.loc 1 416 0
 860              		@ sp needed
 861 0038 7047     		bx	lr
 862              	.L91:
 863 003a C046     		.align	2
 864              	.L90:
 865 003c E4010000 		.word	.L84
 866              		.cfi_endproc
 867              	.LFE7:
 868              		.size	VL53L0X_get_sequence_steps_info, .-VL53L0X_get_sequence_steps_info
 869              		.section	.text.VL53L0X_get_limit_check_info,"ax",%progbits
 870              		.align	2
 871              		.global	VL53L0X_get_limit_check_info
 872              		.code	16
 873              		.thumb_func
 874              		.type	VL53L0X_get_limit_check_info, %function
 875              	VL53L0X_get_limit_check_info:
 876              	.LFB8:
 417:Api\core\src/vl53l0x_api_strings.c **** 
 418:Api\core\src/vl53l0x_api_strings.c **** 
 419:Api\core\src/vl53l0x_api_strings.c **** VL53L0X_Error VL53L0X_get_limit_check_info(VL53L0X_DEV Dev, uint16_t LimitCheckId,
 420:Api\core\src/vl53l0x_api_strings.c **** 	char *pLimitCheckString)
 421:Api\core\src/vl53l0x_api_strings.c **** {
 877              		.loc 1 421 0
 878              		.cfi_startproc
 879              		@ args = 0, pretend = 0, frame = 0
 880              		@ frame_needed = 0, uses_anonymous_args = 0
 881              		@ link register save eliminated.
 882              	.LVL43:
 422:Api\core\src/vl53l0x_api_strings.c **** 	VL53L0X_Error Status = VL53L0X_ERROR_NONE;
 423:Api\core\src/vl53l0x_api_strings.c **** 
ARM GAS  C:\Users\Rajesh\AppData\Local\Temp\cc7Pt2jb.s 			page 24


 424:Api\core\src/vl53l0x_api_strings.c **** 	LOG_FUNCTION_START("");
 425:Api\core\src/vl53l0x_api_strings.c **** 
 426:Api\core\src/vl53l0x_api_strings.c **** 	switch (LimitCheckId) {
 883              		.loc 1 426 0
 884 0000 0529     		cmp	r1, #5
 885 0002 0FD8     		bhi	.L93
 886 0004 8900     		lsls	r1, r1, #2
 887              	.LVL44:
 888 0006 094B     		ldr	r3, .L100
 889 0008 5B58     		ldr	r3, [r3, r1]
 890 000a 9F46     		mov	pc, r3
 891              		.section	.rodata
 892              		.align	2
 893              	.L95:
 894 01f8 0C000000 		.word	.L94
 895 01fc 12000000 		.word	.L96
 896 0200 18000000 		.word	.L97
 897 0204 1E000000 		.word	.L98
 898 0208 28000000 		.word	.L99
 899 020c 28000000 		.word	.L99
 900              		.section	.text.VL53L0X_get_limit_check_info
 901              	.L94:
 427:Api\core\src/vl53l0x_api_strings.c **** 	case VL53L0X_CHECKENABLE_SIGMA_FINAL_RANGE:
 428:Api\core\src/vl53l0x_api_strings.c **** 		VL53L0X_COPYSTRING(pLimitCheckString,
 902              		.loc 1 428 0
 903 000c 0023     		movs	r3, #0
 904 000e 1370     		strb	r3, [r2]
 429:Api\core\src/vl53l0x_api_strings.c **** 			VL53L0X_STRING_CHECKENABLE_SIGMA_FINAL_RANGE);
 430:Api\core\src/vl53l0x_api_strings.c **** 	break;
 905              		.loc 1 430 0
 906 0010 0AE0     		b	.L99
 907              	.L96:
 431:Api\core\src/vl53l0x_api_strings.c **** 	case VL53L0X_CHECKENABLE_SIGNAL_RATE_FINAL_RANGE:
 432:Api\core\src/vl53l0x_api_strings.c **** 		VL53L0X_COPYSTRING(pLimitCheckString,
 908              		.loc 1 432 0
 909 0012 0023     		movs	r3, #0
 910 0014 1370     		strb	r3, [r2]
 433:Api\core\src/vl53l0x_api_strings.c **** 			VL53L0X_STRING_CHECKENABLE_SIGNAL_RATE_FINAL_RANGE);
 434:Api\core\src/vl53l0x_api_strings.c **** 	break;
 911              		.loc 1 434 0
 912 0016 07E0     		b	.L99
 913              	.L97:
 435:Api\core\src/vl53l0x_api_strings.c **** 	case VL53L0X_CHECKENABLE_SIGNAL_REF_CLIP:
 436:Api\core\src/vl53l0x_api_strings.c **** 		VL53L0X_COPYSTRING(pLimitCheckString,
 914              		.loc 1 436 0
 915 0018 0023     		movs	r3, #0
 916 001a 1370     		strb	r3, [r2]
 437:Api\core\src/vl53l0x_api_strings.c **** 			VL53L0X_STRING_CHECKENABLE_SIGNAL_REF_CLIP);
 438:Api\core\src/vl53l0x_api_strings.c **** 	break;
 917              		.loc 1 438 0
 918 001c 04E0     		b	.L99
 919              	.L98:
 439:Api\core\src/vl53l0x_api_strings.c **** 	case VL53L0X_CHECKENABLE_RANGE_IGNORE_THRESHOLD:
 440:Api\core\src/vl53l0x_api_strings.c **** 		VL53L0X_COPYSTRING(pLimitCheckString,
 920              		.loc 1 440 0
 921 001e 0023     		movs	r3, #0
 922 0020 1370     		strb	r3, [r2]
ARM GAS  C:\Users\Rajesh\AppData\Local\Temp\cc7Pt2jb.s 			page 25


 441:Api\core\src/vl53l0x_api_strings.c **** 			VL53L0X_STRING_CHECKENABLE_RANGE_IGNORE_THRESHOLD);
 442:Api\core\src/vl53l0x_api_strings.c **** 	break;
 923              		.loc 1 442 0
 924 0022 01E0     		b	.L99
 925              	.LVL45:
 926              	.L93:
 443:Api\core\src/vl53l0x_api_strings.c **** 
 444:Api\core\src/vl53l0x_api_strings.c **** 	case VL53L0X_CHECKENABLE_SIGNAL_RATE_MSRC:
 445:Api\core\src/vl53l0x_api_strings.c **** 		//VL53L0X_COPYSTRING(pLimitCheckString,
 446:Api\core\src/vl53l0x_api_strings.c **** 		//	VL53L0X_STRING_CHECKENABLE_SIGNAL_RATE_MSRC);
 447:Api\core\src/vl53l0x_api_strings.c **** 	break;
 448:Api\core\src/vl53l0x_api_strings.c **** 
 449:Api\core\src/vl53l0x_api_strings.c **** 	case VL53L0X_CHECKENABLE_SIGNAL_RATE_PRE_RANGE:
 450:Api\core\src/vl53l0x_api_strings.c **** 		//VL53L0X_COPYSTRING(pLimitCheckString,
 451:Api\core\src/vl53l0x_api_strings.c **** 		//	VL53L0X_STRING_CHECKENABLE_SIGNAL_RATE_PRE_RANGE);
 452:Api\core\src/vl53l0x_api_strings.c **** 	break;
 453:Api\core\src/vl53l0x_api_strings.c **** 
 454:Api\core\src/vl53l0x_api_strings.c **** 	default:
 455:Api\core\src/vl53l0x_api_strings.c **** 		VL53L0X_COPYSTRING(pLimitCheckString,
 927              		.loc 1 455 0
 928 0024 0023     		movs	r3, #0
 929 0026 1370     		strb	r3, [r2]
 930              	.LVL46:
 931              	.L99:
 456:Api\core\src/vl53l0x_api_strings.c **** 			VL53L0X_STRING_UNKNOW_ERROR_CODE);
 457:Api\core\src/vl53l0x_api_strings.c **** 
 458:Api\core\src/vl53l0x_api_strings.c **** 	}
 459:Api\core\src/vl53l0x_api_strings.c **** 
 460:Api\core\src/vl53l0x_api_strings.c **** 	LOG_FUNCTION_END(Status);
 461:Api\core\src/vl53l0x_api_strings.c **** 	return Status;
 462:Api\core\src/vl53l0x_api_strings.c **** }
 932              		.loc 1 462 0
 933 0028 0020     		movs	r0, #0
 934              	.LVL47:
 935              		@ sp needed
 936 002a 7047     		bx	lr
 937              	.L101:
 938              		.align	2
 939              	.L100:
 940 002c F8010000 		.word	.L95
 941              		.cfi_endproc
 942              	.LFE8:
 943              		.size	VL53L0X_get_limit_check_info, .-VL53L0X_get_limit_check_info
 944              		.text
 945              	.Letext0:
 946              		.file 2 "c:\\program files (x86)\\cypress\\psoc creator\\4.2\\psoc creator\\import\\gnu\\arm\\5.4.
 947              		.file 3 "c:\\program files (x86)\\cypress\\psoc creator\\4.2\\psoc creator\\import\\gnu\\arm\\5.4.
 948              		.file 4 ".\\Api\\platform\\inc/vl53l0x_types.h"
 949              		.file 5 ".\\Api\\core\\inc/vl53l0x_device.h"
 950              		.file 6 ".\\Api\\core\\inc/vl53l0x_def.h"
 951              		.file 7 ".\\Api\\platform\\inc/vl53l0x_platform.h"
 952              		.file 8 ".\\Api\\core\\inc/vl53l0x_api_core.h"
 953              		.file 9 "c:\\program files (x86)\\cypress\\psoc creator\\4.2\\psoc creator\\import\\gnu\\arm\\5.4.