ARM GAS  C:\Users\Rajesh\AppData\Local\Temp\ccMJoliC.s 			page 1


   1              		.syntax unified
   2              		.cpu cortex-m0
   3              		.fpu softvfp
   4              		.eabi_attribute 20, 1
   5              		.eabi_attribute 21, 1
   6              		.eabi_attribute 23, 3
   7              		.eabi_attribute 24, 1
   8              		.eabi_attribute 25, 1
   9              		.eabi_attribute 26, 1
  10              		.eabi_attribute 30, 1
  11              		.eabi_attribute 34, 0
  12              		.eabi_attribute 18, 4
  13              		.thumb
  14              		.syntax unified
  15              		.file	"vl53l0x_api_core.c"
  16              		.text
  17              	.Ltext0:
  18              		.cfi_sections	.debug_frame
  19              		.section	.text.VL53L0X_reverse_bytes,"ax",%progbits
  20              		.align	2
  21              		.global	VL53L0X_reverse_bytes
  22              		.code	16
  23              		.thumb_func
  24              		.type	VL53L0X_reverse_bytes, %function
  25              	VL53L0X_reverse_bytes:
  26              	.LFB1:
  27              		.file 1 "Api\\core\\src\\vl53l0x_api_core.c"
   1:Api\core\src/vl53l0x_api_core.c **** /*******************************************************************************
   2:Api\core\src/vl53l0x_api_core.c ****  Copyright © 2016, STMicroelectronics International N.V.
   3:Api\core\src/vl53l0x_api_core.c ****  All rights reserved.
   4:Api\core\src/vl53l0x_api_core.c **** 
   5:Api\core\src/vl53l0x_api_core.c ****  Redistribution and use in source and binary forms, with or without
   6:Api\core\src/vl53l0x_api_core.c ****  modification, are permitted provided that the following conditions are met:
   7:Api\core\src/vl53l0x_api_core.c ****  * Redistributions of source code must retain the above copyright
   8:Api\core\src/vl53l0x_api_core.c ****  notice, this list of conditions and the following disclaimer.
   9:Api\core\src/vl53l0x_api_core.c ****  * Redistributions in binary form must reproduce the above copyright
  10:Api\core\src/vl53l0x_api_core.c ****  notice, this list of conditions and the following disclaimer in the
  11:Api\core\src/vl53l0x_api_core.c ****  documentation and/or other materials provided with the distribution.
  12:Api\core\src/vl53l0x_api_core.c ****  * Neither the name of STMicroelectronics nor the
  13:Api\core\src/vl53l0x_api_core.c ****  names of its contributors may be used to endorse or promote products
  14:Api\core\src/vl53l0x_api_core.c ****  derived from this software without specific prior written permission.
  15:Api\core\src/vl53l0x_api_core.c **** 
  16:Api\core\src/vl53l0x_api_core.c ****  THIS SOFTWARE IS PROVIDED BY THE COPYRIGHT HOLDERS AND CONTRIBUTORS "AS IS" AND
  17:Api\core\src/vl53l0x_api_core.c ****  ANY EXPRESS OR IMPLIED WARRANTIES, INCLUDING, BUT NOT LIMITED TO, THE IMPLIED
  18:Api\core\src/vl53l0x_api_core.c ****  WARRANTIES OF MERCHANTABILITY, FITNESS FOR A PARTICULAR PURPOSE, AND
  19:Api\core\src/vl53l0x_api_core.c ****  NON-INFRINGEMENT OF INTELLECTUAL PROPERTY RIGHTS ARE DISCLAIMED.
  20:Api\core\src/vl53l0x_api_core.c ****  IN NO EVENT SHALL STMICROELECTRONICS INTERNATIONAL N.V. BE LIABLE FOR ANY
  21:Api\core\src/vl53l0x_api_core.c ****  DIRECT, INDIRECT, INCIDENTAL, SPECIAL, EXEMPLARY, OR CONSEQUENTIAL DAMAGES
  22:Api\core\src/vl53l0x_api_core.c ****  (INCLUDING, BUT NOT LIMITED TO, PROCUREMENT OF SUBSTITUTE GOODS OR SERVICES;
  23:Api\core\src/vl53l0x_api_core.c ****  LOSS OF USE, DATA, OR PROFITS; OR BUSINESS INTERRUPTION) HOWEVER CAUSED AND
  24:Api\core\src/vl53l0x_api_core.c ****  ON ANY THEORY OF LIABILITY, WHETHER IN CONTRACT, STRICT LIABILITY, OR TORT
  25:Api\core\src/vl53l0x_api_core.c ****  (INCLUDING NEGLIGENCE OR OTHERWISE) ARISING IN ANY WAY OUT OF THE USE OF THIS
  26:Api\core\src/vl53l0x_api_core.c ****  SOFTWARE, EVEN IF ADVISED OF THE POSSIBILITY OF SUCH DAMAGE.
  27:Api\core\src/vl53l0x_api_core.c ****  ******************************************************************************/
  28:Api\core\src/vl53l0x_api_core.c **** 
  29:Api\core\src/vl53l0x_api_core.c **** #include "vl53l0x_api.h"
  30:Api\core\src/vl53l0x_api_core.c **** #include "vl53l0x_api_core.h"
ARM GAS  C:\Users\Rajesh\AppData\Local\Temp\ccMJoliC.s 			page 2


  31:Api\core\src/vl53l0x_api_core.c **** #include "vl53l0x_api_calibration.h"
  32:Api\core\src/vl53l0x_api_core.c **** 
  33:Api\core\src/vl53l0x_api_core.c **** 
  34:Api\core\src/vl53l0x_api_core.c **** #ifndef __KERNEL__
  35:Api\core\src/vl53l0x_api_core.c **** #include <stdlib.h>
  36:Api\core\src/vl53l0x_api_core.c **** #endif
  37:Api\core\src/vl53l0x_api_core.c **** #define LOG_FUNCTION_START(fmt, ...) \
  38:Api\core\src/vl53l0x_api_core.c **** 	_LOG_FUNCTION_START(TRACE_MODULE_API, fmt, ##__VA_ARGS__)
  39:Api\core\src/vl53l0x_api_core.c **** #define LOG_FUNCTION_END(status, ...) \
  40:Api\core\src/vl53l0x_api_core.c **** 	_LOG_FUNCTION_END(TRACE_MODULE_API, status, ##__VA_ARGS__)
  41:Api\core\src/vl53l0x_api_core.c **** #define LOG_FUNCTION_END_FMT(status, fmt, ...) \
  42:Api\core\src/vl53l0x_api_core.c **** 	_LOG_FUNCTION_END_FMT(TRACE_MODULE_API, status, fmt, ##__VA_ARGS__)
  43:Api\core\src/vl53l0x_api_core.c **** 
  44:Api\core\src/vl53l0x_api_core.c **** VL53L0X_Error VL53L0X_reverse_bytes(uint8_t *data, uint32_t size)
  45:Api\core\src/vl53l0x_api_core.c **** {
  28              		.loc 1 45 0
  29              		.cfi_startproc
  30              		@ args = 0, pretend = 0, frame = 0
  31              		@ frame_needed = 0, uses_anonymous_args = 0
  32              	.LVL0:
  33 0000 F0B5     		push	{r4, r5, r6, r7, lr}
  34              		.cfi_def_cfa_offset 20
  35              		.cfi_offset 4, -20
  36              		.cfi_offset 5, -16
  37              		.cfi_offset 6, -12
  38              		.cfi_offset 7, -8
  39              		.cfi_offset 14, -4
  40              	.LVL1:
  46:Api\core\src/vl53l0x_api_core.c **** 	VL53L0X_Error Status = VL53L0X_ERROR_NONE;
  47:Api\core\src/vl53l0x_api_core.c **** 	uint8_t tempData;
  48:Api\core\src/vl53l0x_api_core.c **** 	uint32_t mirrorIndex;
  49:Api\core\src/vl53l0x_api_core.c **** 	uint32_t middle = size/2;
  41              		.loc 1 49 0
  42 0002 4F08     		lsrs	r7, r1, #1
  43              	.LVL2:
  50:Api\core\src/vl53l0x_api_core.c **** 	uint32_t index;
  51:Api\core\src/vl53l0x_api_core.c **** 
  52:Api\core\src/vl53l0x_api_core.c **** 	for (index = 0; index < middle; index++) {
  44              		.loc 1 52 0
  45 0004 0022     		movs	r2, #0
  46 0006 08E0     		b	.L2
  47              	.LVL3:
  48              	.L3:
  53:Api\core\src/vl53l0x_api_core.c **** 		mirrorIndex		 = size - index - 1;
  49              		.loc 1 53 0 discriminator 3
  50 0008 8B1A     		subs	r3, r1, r2
  51 000a 013B     		subs	r3, r3, #1
  52              	.LVL4:
  54:Api\core\src/vl53l0x_api_core.c **** 		tempData		 = data[index];
  53              		.loc 1 54 0 discriminator 3
  54 000c 8418     		adds	r4, r0, r2
  55 000e 2578     		ldrb	r5, [r4]
  56              	.LVL5:
  55:Api\core\src/vl53l0x_api_core.c **** 		data[index]		 = data[mirrorIndex];
  57              		.loc 1 55 0 discriminator 3
  58 0010 C318     		adds	r3, r0, r3
  59              	.LVL6:
ARM GAS  C:\Users\Rajesh\AppData\Local\Temp\ccMJoliC.s 			page 3


  60 0012 1E78     		ldrb	r6, [r3]
  61 0014 2670     		strb	r6, [r4]
  56:Api\core\src/vl53l0x_api_core.c **** 		data[mirrorIndex] = tempData;
  62              		.loc 1 56 0 discriminator 3
  63 0016 1D70     		strb	r5, [r3]
  52:Api\core\src/vl53l0x_api_core.c **** 		mirrorIndex		 = size - index - 1;
  64              		.loc 1 52 0 discriminator 3
  65 0018 0132     		adds	r2, r2, #1
  66              	.LVL7:
  67              	.L2:
  52:Api\core\src/vl53l0x_api_core.c **** 		mirrorIndex		 = size - index - 1;
  68              		.loc 1 52 0 is_stmt 0 discriminator 1
  69 001a BA42     		cmp	r2, r7
  70 001c F4D3     		bcc	.L3
  57:Api\core\src/vl53l0x_api_core.c **** 	}
  58:Api\core\src/vl53l0x_api_core.c **** 	return Status;
  59:Api\core\src/vl53l0x_api_core.c **** }
  71              		.loc 1 59 0 is_stmt 1
  72 001e 0020     		movs	r0, #0
  73              	.LVL8:
  74              		@ sp needed
  75              	.LVL9:
  76 0020 F0BD     		pop	{r4, r5, r6, r7, pc}
  77              		.cfi_endproc
  78              	.LFE1:
  79              		.size	VL53L0X_reverse_bytes, .-VL53L0X_reverse_bytes
  80 0022 C046     		.section	.text.VL53L0X_measurement_poll_for_completion,"ax",%progbits
  81              		.align	2
  82              		.global	VL53L0X_measurement_poll_for_completion
  83              		.code	16
  84              		.thumb_func
  85              		.type	VL53L0X_measurement_poll_for_completion, %function
  86              	VL53L0X_measurement_poll_for_completion:
  87              	.LFB2:
  60:Api\core\src/vl53l0x_api_core.c **** 
  61:Api\core\src/vl53l0x_api_core.c **** VL53L0X_Error VL53L0X_measurement_poll_for_completion(VL53L0X_DEV Dev)
  62:Api\core\src/vl53l0x_api_core.c **** {
  88              		.loc 1 62 0
  89              		.cfi_startproc
  90              		@ args = 0, pretend = 0, frame = 8
  91              		@ frame_needed = 0, uses_anonymous_args = 0
  92              	.LVL10:
  93 0000 30B5     		push	{r4, r5, lr}
  94              		.cfi_def_cfa_offset 12
  95              		.cfi_offset 4, -12
  96              		.cfi_offset 5, -8
  97              		.cfi_offset 14, -4
  98 0002 83B0     		sub	sp, sp, #12
  99              		.cfi_def_cfa_offset 24
 100 0004 0500     		movs	r5, r0
 101              	.LVL11:
  63:Api\core\src/vl53l0x_api_core.c **** 	VL53L0X_Error Status = VL53L0X_ERROR_NONE;
  64:Api\core\src/vl53l0x_api_core.c **** 	uint8_t NewDataReady = 0;
 102              		.loc 1 64 0
 103 0006 0022     		movs	r2, #0
 104 0008 6B46     		mov	r3, sp
 105 000a DA71     		strb	r2, [r3, #7]
ARM GAS  C:\Users\Rajesh\AppData\Local\Temp\ccMJoliC.s 			page 4


 106              	.LVL12:
  65:Api\core\src/vl53l0x_api_core.c **** 	uint32_t LoopNb;
  66:Api\core\src/vl53l0x_api_core.c **** 
  67:Api\core\src/vl53l0x_api_core.c **** 	LOG_FUNCTION_START("");
  68:Api\core\src/vl53l0x_api_core.c **** 
  69:Api\core\src/vl53l0x_api_core.c **** 	LoopNb = 0;
 107              		.loc 1 69 0
 108 000c 0024     		movs	r4, #0
 109              	.LVL13:
 110              	.L6:
  70:Api\core\src/vl53l0x_api_core.c **** 
  71:Api\core\src/vl53l0x_api_core.c **** 	do {
  72:Api\core\src/vl53l0x_api_core.c **** 		Status = VL53L0X_GetMeasurementDataReady(Dev, &NewDataReady);
 111              		.loc 1 72 0
 112 000e 6B46     		mov	r3, sp
 113 0010 D91D     		adds	r1, r3, #7
 114 0012 2800     		movs	r0, r5
 115 0014 FFF7FEFF 		bl	VL53L0X_GetMeasurementDataReady
 116              	.LVL14:
  73:Api\core\src/vl53l0x_api_core.c **** 		if (Status != 0)
 117              		.loc 1 73 0
 118 0018 0028     		cmp	r0, #0
 119 001a 0ED1     		bne	.L5
  74:Api\core\src/vl53l0x_api_core.c **** 			break; /* the error is set */
  75:Api\core\src/vl53l0x_api_core.c **** 
  76:Api\core\src/vl53l0x_api_core.c **** 		if (NewDataReady == 1)
 120              		.loc 1 76 0
 121 001c 6B46     		mov	r3, sp
 122 001e 0733     		adds	r3, r3, #7
 123 0020 1B78     		ldrb	r3, [r3]
 124 0022 012B     		cmp	r3, #1
 125 0024 09D0     		beq	.L5
  77:Api\core\src/vl53l0x_api_core.c **** 			break; /* done note that status == 0 */
  78:Api\core\src/vl53l0x_api_core.c **** 
  79:Api\core\src/vl53l0x_api_core.c **** 		LoopNb++;
 126              		.loc 1 79 0
 127 0026 0134     		adds	r4, r4, #1
 128              	.LVL15:
  80:Api\core\src/vl53l0x_api_core.c **** 		if (LoopNb >= VL53L0X_DEFAULT_MAX_LOOP) {
 129              		.loc 1 80 0
 130 0028 054B     		ldr	r3, .L8
 131 002a 9C42     		cmp	r4, r3
 132 002c 03D8     		bhi	.L7
  81:Api\core\src/vl53l0x_api_core.c **** 			Status = VL53L0X_ERROR_TIME_OUT;
  82:Api\core\src/vl53l0x_api_core.c **** 			break;
  83:Api\core\src/vl53l0x_api_core.c **** 		}
  84:Api\core\src/vl53l0x_api_core.c **** 
  85:Api\core\src/vl53l0x_api_core.c **** 		VL53L0X_PollingDelay(Dev);
 133              		.loc 1 85 0
 134 002e 2800     		movs	r0, r5
 135              	.LVL16:
 136 0030 FFF7FEFF 		bl	VL53L0X_PollingDelay
 137              	.LVL17:
  86:Api\core\src/vl53l0x_api_core.c **** 	} while (1);
 138              		.loc 1 86 0
 139 0034 EBE7     		b	.L6
 140              	.LVL18:
ARM GAS  C:\Users\Rajesh\AppData\Local\Temp\ccMJoliC.s 			page 5


 141              	.L7:
  81:Api\core\src/vl53l0x_api_core.c **** 			Status = VL53L0X_ERROR_TIME_OUT;
 142              		.loc 1 81 0
 143 0036 0720     		movs	r0, #7
 144              	.LVL19:
 145 0038 4042     		rsbs	r0, r0, #0
 146              	.L5:
 147              	.LVL20:
  87:Api\core\src/vl53l0x_api_core.c **** 
  88:Api\core\src/vl53l0x_api_core.c **** 	LOG_FUNCTION_END(Status);
  89:Api\core\src/vl53l0x_api_core.c **** 
  90:Api\core\src/vl53l0x_api_core.c **** 	return Status;
  91:Api\core\src/vl53l0x_api_core.c **** }
 148              		.loc 1 91 0
 149 003a 03B0     		add	sp, sp, #12
 150              		@ sp needed
 151              	.LVL21:
 152              	.LVL22:
 153 003c 30BD     		pop	{r4, r5, pc}
 154              	.L9:
 155 003e C046     		.align	2
 156              	.L8:
 157 0040 CF070000 		.word	1999
 158              		.cfi_endproc
 159              	.LFE2:
 160              		.size	VL53L0X_measurement_poll_for_completion, .-VL53L0X_measurement_poll_for_completion
 161              		.section	.text.VL53L0X_decode_vcsel_period,"ax",%progbits
 162              		.align	2
 163              		.global	VL53L0X_decode_vcsel_period
 164              		.code	16
 165              		.thumb_func
 166              		.type	VL53L0X_decode_vcsel_period, %function
 167              	VL53L0X_decode_vcsel_period:
 168              	.LFB3:
  92:Api\core\src/vl53l0x_api_core.c **** 
  93:Api\core\src/vl53l0x_api_core.c **** 
  94:Api\core\src/vl53l0x_api_core.c **** uint8_t VL53L0X_decode_vcsel_period(uint8_t vcsel_period_reg)
  95:Api\core\src/vl53l0x_api_core.c **** {
 169              		.loc 1 95 0
 170              		.cfi_startproc
 171              		@ args = 0, pretend = 0, frame = 0
 172              		@ frame_needed = 0, uses_anonymous_args = 0
 173              		@ link register save eliminated.
 174              	.LVL23:
  96:Api\core\src/vl53l0x_api_core.c **** 	/*!
  97:Api\core\src/vl53l0x_api_core.c **** 	 * Converts the encoded VCSEL period register value into the real
  98:Api\core\src/vl53l0x_api_core.c **** 	 * period in PLL clocks
  99:Api\core\src/vl53l0x_api_core.c **** 	 */
 100:Api\core\src/vl53l0x_api_core.c **** 
 101:Api\core\src/vl53l0x_api_core.c **** 	uint8_t vcsel_period_pclks = 0;
 102:Api\core\src/vl53l0x_api_core.c **** 
 103:Api\core\src/vl53l0x_api_core.c **** 	vcsel_period_pclks = (vcsel_period_reg + 1) << 1;
 175              		.loc 1 103 0
 176 0000 0130     		adds	r0, r0, #1
 177              	.LVL24:
 178 0002 4000     		lsls	r0, r0, #1
 179 0004 C0B2     		uxtb	r0, r0
ARM GAS  C:\Users\Rajesh\AppData\Local\Temp\ccMJoliC.s 			page 6


 180              	.LVL25:
 104:Api\core\src/vl53l0x_api_core.c **** 
 105:Api\core\src/vl53l0x_api_core.c **** 	return vcsel_period_pclks;
 106:Api\core\src/vl53l0x_api_core.c **** }
 181              		.loc 1 106 0
 182              		@ sp needed
 183 0006 7047     		bx	lr
 184              		.cfi_endproc
 185              	.LFE3:
 186              		.size	VL53L0X_decode_vcsel_period, .-VL53L0X_decode_vcsel_period
 187              		.section	.text.VL53L0X_encode_vcsel_period,"ax",%progbits
 188              		.align	2
 189              		.global	VL53L0X_encode_vcsel_period
 190              		.code	16
 191              		.thumb_func
 192              		.type	VL53L0X_encode_vcsel_period, %function
 193              	VL53L0X_encode_vcsel_period:
 194              	.LFB4:
 107:Api\core\src/vl53l0x_api_core.c **** 
 108:Api\core\src/vl53l0x_api_core.c **** uint8_t VL53L0X_encode_vcsel_period(uint8_t vcsel_period_pclks)
 109:Api\core\src/vl53l0x_api_core.c **** {
 195              		.loc 1 109 0
 196              		.cfi_startproc
 197              		@ args = 0, pretend = 0, frame = 0
 198              		@ frame_needed = 0, uses_anonymous_args = 0
 199              		@ link register save eliminated.
 200              	.LVL26:
 110:Api\core\src/vl53l0x_api_core.c **** 	/*!
 111:Api\core\src/vl53l0x_api_core.c **** 	 * Converts the encoded VCSEL period register value into the real period
 112:Api\core\src/vl53l0x_api_core.c **** 	 * in PLL clocks
 113:Api\core\src/vl53l0x_api_core.c **** 	 */
 114:Api\core\src/vl53l0x_api_core.c **** 
 115:Api\core\src/vl53l0x_api_core.c **** 	uint8_t vcsel_period_reg = 0;
 116:Api\core\src/vl53l0x_api_core.c **** 
 117:Api\core\src/vl53l0x_api_core.c **** 	vcsel_period_reg = (vcsel_period_pclks >> 1) - 1;
 201              		.loc 1 117 0
 202 0000 4008     		lsrs	r0, r0, #1
 203              	.LVL27:
 204 0002 0138     		subs	r0, r0, #1
 205 0004 C0B2     		uxtb	r0, r0
 206              	.LVL28:
 118:Api\core\src/vl53l0x_api_core.c **** 
 119:Api\core\src/vl53l0x_api_core.c **** 	return vcsel_period_reg;
 120:Api\core\src/vl53l0x_api_core.c **** }
 207              		.loc 1 120 0
 208              		@ sp needed
 209 0006 7047     		bx	lr
 210              		.cfi_endproc
 211              	.LFE4:
 212              		.size	VL53L0X_encode_vcsel_period, .-VL53L0X_encode_vcsel_period
 213              		.section	.text.VL53L0X_isqrt,"ax",%progbits
 214              		.align	2
 215              		.global	VL53L0X_isqrt
 216              		.code	16
 217              		.thumb_func
 218              		.type	VL53L0X_isqrt, %function
 219              	VL53L0X_isqrt:
ARM GAS  C:\Users\Rajesh\AppData\Local\Temp\ccMJoliC.s 			page 7


 220              	.LFB5:
 121:Api\core\src/vl53l0x_api_core.c **** 
 122:Api\core\src/vl53l0x_api_core.c **** 
 123:Api\core\src/vl53l0x_api_core.c **** uint32_t VL53L0X_isqrt(uint32_t num)
 124:Api\core\src/vl53l0x_api_core.c **** {
 221              		.loc 1 124 0
 222              		.cfi_startproc
 223              		@ args = 0, pretend = 0, frame = 0
 224              		@ frame_needed = 0, uses_anonymous_args = 0
 225              		@ link register save eliminated.
 226              	.LVL29:
 227 0000 0200     		movs	r2, r0
 228              	.LVL30:
 125:Api\core\src/vl53l0x_api_core.c **** 	/*
 126:Api\core\src/vl53l0x_api_core.c **** 	 * Implements an integer square root
 127:Api\core\src/vl53l0x_api_core.c **** 	 *
 128:Api\core\src/vl53l0x_api_core.c **** 	 * From: http://en.wikipedia.org/wiki/Methods_of_computing_square_roots
 129:Api\core\src/vl53l0x_api_core.c **** 	 */
 130:Api\core\src/vl53l0x_api_core.c **** 
 131:Api\core\src/vl53l0x_api_core.c **** 	uint32_t  res = 0;
 132:Api\core\src/vl53l0x_api_core.c **** 	uint32_t  bit = 1 << 30;
 229              		.loc 1 132 0
 230 0002 8023     		movs	r3, #128
 231 0004 DB05     		lsls	r3, r3, #23
 133:Api\core\src/vl53l0x_api_core.c **** 	/* The second-to-top bit is set:
 134:Api\core\src/vl53l0x_api_core.c **** 	 *	1 << 14 for 16-bits, 1 << 30 for 32 bits */
 135:Api\core\src/vl53l0x_api_core.c **** 
 136:Api\core\src/vl53l0x_api_core.c **** 	 /* "bit" starts at the highest power of four <= the argument. */
 137:Api\core\src/vl53l0x_api_core.c **** 	while (bit > num)
 232              		.loc 1 137 0
 233 0006 00E0     		b	.L13
 234              	.LVL31:
 235              	.L14:
 138:Api\core\src/vl53l0x_api_core.c **** 		bit >>= 2;
 236              		.loc 1 138 0
 237 0008 9B08     		lsrs	r3, r3, #2
 238              	.LVL32:
 239              	.L13:
 137:Api\core\src/vl53l0x_api_core.c **** 		bit >>= 2;
 240              		.loc 1 137 0
 241 000a 9342     		cmp	r3, r2
 242 000c FCD8     		bhi	.L14
 243 000e 0020     		movs	r0, #0
 244              	.LVL33:
 245 0010 08E0     		b	.L15
 246              	.LVL34:
 247              	.L18:
 139:Api\core\src/vl53l0x_api_core.c **** 
 140:Api\core\src/vl53l0x_api_core.c **** 
 141:Api\core\src/vl53l0x_api_core.c **** 	while (bit != 0) {
 142:Api\core\src/vl53l0x_api_core.c **** 		if (num >= res + bit) {
 248              		.loc 1 142 0
 249 0012 C118     		adds	r1, r0, r3
 250 0014 8A42     		cmp	r2, r1
 251 0016 03D3     		bcc	.L16
 143:Api\core\src/vl53l0x_api_core.c **** 			num -= res + bit;
 252              		.loc 1 143 0
ARM GAS  C:\Users\Rajesh\AppData\Local\Temp\ccMJoliC.s 			page 8


 253 0018 521A     		subs	r2, r2, r1
 254              	.LVL35:
 144:Api\core\src/vl53l0x_api_core.c **** 			res = (res >> 1) + bit;
 255              		.loc 1 144 0
 256 001a 4008     		lsrs	r0, r0, #1
 257              	.LVL36:
 258 001c 1818     		adds	r0, r3, r0
 259              	.LVL37:
 260 001e 00E0     		b	.L17
 261              	.L16:
 145:Api\core\src/vl53l0x_api_core.c **** 		} else
 146:Api\core\src/vl53l0x_api_core.c **** 			res >>= 1;
 262              		.loc 1 146 0
 263 0020 4008     		lsrs	r0, r0, #1
 264              	.LVL38:
 265              	.L17:
 147:Api\core\src/vl53l0x_api_core.c **** 
 148:Api\core\src/vl53l0x_api_core.c **** 		bit >>= 2;
 266              		.loc 1 148 0
 267 0022 9B08     		lsrs	r3, r3, #2
 268              	.LVL39:
 269              	.L15:
 141:Api\core\src/vl53l0x_api_core.c **** 		if (num >= res + bit) {
 270              		.loc 1 141 0
 271 0024 002B     		cmp	r3, #0
 272 0026 F4D1     		bne	.L18
 149:Api\core\src/vl53l0x_api_core.c **** 	}
 150:Api\core\src/vl53l0x_api_core.c **** 
 151:Api\core\src/vl53l0x_api_core.c **** 	return res;
 152:Api\core\src/vl53l0x_api_core.c **** }
 273              		.loc 1 152 0
 274              		@ sp needed
 275 0028 7047     		bx	lr
 276              		.cfi_endproc
 277              	.LFE5:
 278              		.size	VL53L0X_isqrt, .-VL53L0X_isqrt
 279 002a C046     		.section	.text.VL53L0X_quadrature_sum,"ax",%progbits
 280              		.align	2
 281              		.global	VL53L0X_quadrature_sum
 282              		.code	16
 283              		.thumb_func
 284              		.type	VL53L0X_quadrature_sum, %function
 285              	VL53L0X_quadrature_sum:
 286              	.LFB6:
 153:Api\core\src/vl53l0x_api_core.c **** 
 154:Api\core\src/vl53l0x_api_core.c **** 
 155:Api\core\src/vl53l0x_api_core.c **** uint32_t VL53L0X_quadrature_sum(uint32_t a, uint32_t b)
 156:Api\core\src/vl53l0x_api_core.c **** {
 287              		.loc 1 156 0
 288              		.cfi_startproc
 289              		@ args = 0, pretend = 0, frame = 0
 290              		@ frame_needed = 0, uses_anonymous_args = 0
 291              	.LVL40:
 292 0000 10B5     		push	{r4, lr}
 293              		.cfi_def_cfa_offset 8
 294              		.cfi_offset 4, -8
 295              		.cfi_offset 14, -4
ARM GAS  C:\Users\Rajesh\AppData\Local\Temp\ccMJoliC.s 			page 9


 296              	.LVL41:
 157:Api\core\src/vl53l0x_api_core.c **** 	/*
 158:Api\core\src/vl53l0x_api_core.c **** 	 * Implements a quadrature sum
 159:Api\core\src/vl53l0x_api_core.c **** 	 *
 160:Api\core\src/vl53l0x_api_core.c **** 	 * rea = sqrt(a^2 + b^2)
 161:Api\core\src/vl53l0x_api_core.c **** 	 *
 162:Api\core\src/vl53l0x_api_core.c **** 	 * Trap overflow case max input value is 65535 (16-bit value)
 163:Api\core\src/vl53l0x_api_core.c **** 	 * as internal calc are 32-bit wide
 164:Api\core\src/vl53l0x_api_core.c **** 	 *
 165:Api\core\src/vl53l0x_api_core.c **** 	 * If overflow then seta output to maximum
 166:Api\core\src/vl53l0x_api_core.c **** 	 */
 167:Api\core\src/vl53l0x_api_core.c **** 	uint32_t  res = 0;
 168:Api\core\src/vl53l0x_api_core.c **** 
 169:Api\core\src/vl53l0x_api_core.c **** 	if (a > 65535 || b > 65535)
 297              		.loc 1 169 0
 298 0002 074B     		ldr	r3, .L23
 299 0004 9842     		cmp	r0, r3
 300 0006 07D8     		bhi	.L21
 301              		.loc 1 169 0 is_stmt 0 discriminator 1
 302 0008 9942     		cmp	r1, r3
 303 000a 07D8     		bhi	.L22
 170:Api\core\src/vl53l0x_api_core.c **** 		res = 65535;
 171:Api\core\src/vl53l0x_api_core.c **** 	else
 172:Api\core\src/vl53l0x_api_core.c **** 		res = VL53L0X_isqrt(a * a + b * b);
 304              		.loc 1 172 0 is_stmt 1
 305 000c 4043     		muls	r0, r0
 306              	.LVL42:
 307 000e 4943     		muls	r1, r1
 308              	.LVL43:
 309 0010 4018     		adds	r0, r0, r1
 310 0012 FFF7FEFF 		bl	VL53L0X_isqrt
 311              	.LVL44:
 312 0016 02E0     		b	.L20
 313              	.LVL45:
 314              	.L21:
 170:Api\core\src/vl53l0x_api_core.c **** 		res = 65535;
 315              		.loc 1 170 0
 316 0018 0148     		ldr	r0, .L23
 317              	.LVL46:
 318 001a 00E0     		b	.L20
 319              	.LVL47:
 320              	.L22:
 321 001c 0048     		ldr	r0, .L23
 322              	.LVL48:
 323              	.L20:
 173:Api\core\src/vl53l0x_api_core.c **** 
 174:Api\core\src/vl53l0x_api_core.c **** 	return res;
 175:Api\core\src/vl53l0x_api_core.c **** }
 324              		.loc 1 175 0
 325              		@ sp needed
 326 001e 10BD     		pop	{r4, pc}
 327              	.L24:
 328              		.align	2
 329              	.L23:
 330 0020 FFFF0000 		.word	65535
 331              		.cfi_endproc
 332              	.LFE6:
ARM GAS  C:\Users\Rajesh\AppData\Local\Temp\ccMJoliC.s 			page 10


 333              		.size	VL53L0X_quadrature_sum, .-VL53L0X_quadrature_sum
 334              		.section	.text.VL53L0X_device_read_strobe,"ax",%progbits
 335              		.align	2
 336              		.global	VL53L0X_device_read_strobe
 337              		.code	16
 338              		.thumb_func
 339              		.type	VL53L0X_device_read_strobe, %function
 340              	VL53L0X_device_read_strobe:
 341              	.LFB7:
 176:Api\core\src/vl53l0x_api_core.c **** 
 177:Api\core\src/vl53l0x_api_core.c **** 
 178:Api\core\src/vl53l0x_api_core.c **** VL53L0X_Error VL53L0X_device_read_strobe(VL53L0X_DEV Dev)
 179:Api\core\src/vl53l0x_api_core.c **** {
 342              		.loc 1 179 0
 343              		.cfi_startproc
 344              		@ args = 0, pretend = 0, frame = 8
 345              		@ frame_needed = 0, uses_anonymous_args = 0
 346              	.LVL49:
 347 0000 F0B5     		push	{r4, r5, r6, r7, lr}
 348              		.cfi_def_cfa_offset 20
 349              		.cfi_offset 4, -20
 350              		.cfi_offset 5, -16
 351              		.cfi_offset 6, -12
 352              		.cfi_offset 7, -8
 353              		.cfi_offset 14, -4
 354 0002 83B0     		sub	sp, sp, #12
 355              		.cfi_def_cfa_offset 32
 356 0004 0500     		movs	r5, r0
 357              	.LVL50:
 180:Api\core\src/vl53l0x_api_core.c **** 	VL53L0X_Error Status = VL53L0X_ERROR_NONE;
 181:Api\core\src/vl53l0x_api_core.c **** 	uint8_t strobe;
 182:Api\core\src/vl53l0x_api_core.c **** 	uint32_t LoopNb;
 183:Api\core\src/vl53l0x_api_core.c **** 	LOG_FUNCTION_START("");
 184:Api\core\src/vl53l0x_api_core.c **** 
 185:Api\core\src/vl53l0x_api_core.c **** 	Status |= VL53L0X_WrByte(Dev, 0x83, 0x00);
 358              		.loc 1 185 0
 359 0006 0022     		movs	r2, #0
 360 0008 8321     		movs	r1, #131
 361 000a FFF7FEFF 		bl	VL53L0X_WrByte
 362              	.LVL51:
 363 000e 041E     		subs	r4, r0, #0
 364              	.LVL52:
 186:Api\core\src/vl53l0x_api_core.c **** 
 187:Api\core\src/vl53l0x_api_core.c **** 	/* polling
 188:Api\core\src/vl53l0x_api_core.c **** 	 * use timeout to avoid deadlock*/
 189:Api\core\src/vl53l0x_api_core.c **** 	if (Status == VL53L0X_ERROR_NONE) {
 365              		.loc 1 189 0
 366 0010 16D1     		bne	.L26
 367 0012 0027     		movs	r7, #0
 368              	.LVL53:
 369              	.L28:
 190:Api\core\src/vl53l0x_api_core.c **** 		LoopNb = 0;
 191:Api\core\src/vl53l0x_api_core.c **** 		do {
 192:Api\core\src/vl53l0x_api_core.c **** 			Status = VL53L0X_RdByte(Dev, 0x83, &strobe);
 370              		.loc 1 192 0
 371 0014 6B46     		mov	r3, sp
 372 0016 DE1D     		adds	r6, r3, #7
ARM GAS  C:\Users\Rajesh\AppData\Local\Temp\ccMJoliC.s 			page 11


 373 0018 3200     		movs	r2, r6
 374 001a 8321     		movs	r1, #131
 375 001c 2800     		movs	r0, r5
 376 001e FFF7FEFF 		bl	VL53L0X_RdByte
 377              	.LVL54:
 378 0022 0400     		movs	r4, r0
 379              	.LVL55:
 193:Api\core\src/vl53l0x_api_core.c **** 			if ((strobe != 0x00) || Status != VL53L0X_ERROR_NONE)
 380              		.loc 1 193 0
 381 0024 3378     		ldrb	r3, [r6]
 382 0026 002B     		cmp	r3, #0
 383 0028 05D1     		bne	.L27
 384              		.loc 1 193 0 is_stmt 0 discriminator 1
 385 002a 0028     		cmp	r0, #0
 386 002c 03D1     		bne	.L27
 194:Api\core\src/vl53l0x_api_core.c **** 					break;
 195:Api\core\src/vl53l0x_api_core.c **** 
 196:Api\core\src/vl53l0x_api_core.c **** 			LoopNb = LoopNb + 1;
 387              		.loc 1 196 0 is_stmt 1
 388 002e 0137     		adds	r7, r7, #1
 389              	.LVL56:
 197:Api\core\src/vl53l0x_api_core.c **** 		} while (LoopNb < VL53L0X_DEFAULT_MAX_LOOP);
 390              		.loc 1 197 0
 391 0030 084B     		ldr	r3, .L30
 392 0032 9F42     		cmp	r7, r3
 393 0034 EED9     		bls	.L28
 394              	.L27:
 198:Api\core\src/vl53l0x_api_core.c **** 
 199:Api\core\src/vl53l0x_api_core.c **** 		if (LoopNb >= VL53L0X_DEFAULT_MAX_LOOP)
 395              		.loc 1 199 0
 396 0036 074B     		ldr	r3, .L30
 397 0038 9F42     		cmp	r7, r3
 398 003a 01D9     		bls	.L26
 200:Api\core\src/vl53l0x_api_core.c **** 			Status = VL53L0X_ERROR_TIME_OUT;
 399              		.loc 1 200 0
 400 003c 0724     		movs	r4, #7
 401 003e 6442     		rsbs	r4, r4, #0
 402              	.LVL57:
 403              	.L26:
 201:Api\core\src/vl53l0x_api_core.c **** 
 202:Api\core\src/vl53l0x_api_core.c **** 	}
 203:Api\core\src/vl53l0x_api_core.c **** 
 204:Api\core\src/vl53l0x_api_core.c **** 	Status |= VL53L0X_WrByte(Dev, 0x83, 0x01);
 404              		.loc 1 204 0
 405 0040 0122     		movs	r2, #1
 406 0042 8321     		movs	r1, #131
 407 0044 2800     		movs	r0, r5
 408 0046 FFF7FEFF 		bl	VL53L0X_WrByte
 409              	.LVL58:
 410 004a 2043     		orrs	r0, r4
 411 004c 40B2     		sxtb	r0, r0
 412              	.LVL59:
 205:Api\core\src/vl53l0x_api_core.c **** 
 206:Api\core\src/vl53l0x_api_core.c **** 	LOG_FUNCTION_END(Status);
 207:Api\core\src/vl53l0x_api_core.c **** 	return Status;
 208:Api\core\src/vl53l0x_api_core.c **** 
 209:Api\core\src/vl53l0x_api_core.c **** }
ARM GAS  C:\Users\Rajesh\AppData\Local\Temp\ccMJoliC.s 			page 12


 413              		.loc 1 209 0
 414 004e 03B0     		add	sp, sp, #12
 415              		@ sp needed
 416              	.LVL60:
 417 0050 F0BD     		pop	{r4, r5, r6, r7, pc}
 418              	.L31:
 419 0052 C046     		.align	2
 420              	.L30:
 421 0054 CF070000 		.word	1999
 422              		.cfi_endproc
 423              	.LFE7:
 424              		.size	VL53L0X_device_read_strobe, .-VL53L0X_device_read_strobe
 425              		.section	.text.VL53L0X_get_info_from_device,"ax",%progbits
 426              		.align	2
 427              		.global	VL53L0X_get_info_from_device
 428              		.code	16
 429              		.thumb_func
 430              		.type	VL53L0X_get_info_from_device, %function
 431              	VL53L0X_get_info_from_device:
 432              	.LFB8:
 210:Api\core\src/vl53l0x_api_core.c **** 
 211:Api\core\src/vl53l0x_api_core.c **** VL53L0X_Error VL53L0X_get_info_from_device(VL53L0X_DEV Dev, uint8_t option)
 212:Api\core\src/vl53l0x_api_core.c **** {
 433              		.loc 1 212 0
 434              		.cfi_startproc
 435              		@ args = 0, pretend = 0, frame = 56
 436              		@ frame_needed = 0, uses_anonymous_args = 0
 437              	.LVL61:
 438 0000 F0B5     		push	{r4, r5, r6, r7, lr}
 439              		.cfi_def_cfa_offset 20
 440              		.cfi_offset 4, -20
 441              		.cfi_offset 5, -16
 442              		.cfi_offset 6, -12
 443              		.cfi_offset 7, -8
 444              		.cfi_offset 14, -4
 445 0002 5F46     		mov	r7, fp
 446 0004 5646     		mov	r6, r10
 447 0006 4D46     		mov	r5, r9
 448 0008 4446     		mov	r4, r8
 449 000a F0B4     		push	{r4, r5, r6, r7}
 450              		.cfi_def_cfa_offset 36
 451              		.cfi_offset 8, -36
 452              		.cfi_offset 9, -32
 453              		.cfi_offset 10, -28
 454              		.cfi_offset 11, -24
 455 000c 8FB0     		sub	sp, sp, #60
 456              		.cfi_def_cfa_offset 96
 457 000e 0400     		movs	r4, r0
 458 0010 0D00     		movs	r5, r1
 459              	.LVL62:
 213:Api\core\src/vl53l0x_api_core.c **** 
 214:Api\core\src/vl53l0x_api_core.c **** 	VL53L0X_Error Status = VL53L0X_ERROR_NONE;
 215:Api\core\src/vl53l0x_api_core.c **** 	uint8_t byte;
 216:Api\core\src/vl53l0x_api_core.c **** 	uint32_t TmpDWord;
 217:Api\core\src/vl53l0x_api_core.c **** 	uint8_t ModuleId;
 218:Api\core\src/vl53l0x_api_core.c **** 	uint8_t Revision;
 219:Api\core\src/vl53l0x_api_core.c **** 	uint8_t ReferenceSpadCount = 0;
ARM GAS  C:\Users\Rajesh\AppData\Local\Temp\ccMJoliC.s 			page 13


 220:Api\core\src/vl53l0x_api_core.c **** 	uint8_t ReferenceSpadType = 0;
 221:Api\core\src/vl53l0x_api_core.c **** 	uint32_t PartUIDUpper = 0;
 460              		.loc 1 221 0
 461 0012 0023     		movs	r3, #0
 462 0014 0A93     		str	r3, [sp, #40]
 222:Api\core\src/vl53l0x_api_core.c **** 	uint32_t PartUIDLower = 0;
 463              		.loc 1 222 0
 464 0016 0993     		str	r3, [sp, #36]
 465              	.LVL63:
 223:Api\core\src/vl53l0x_api_core.c **** 	uint32_t OffsetFixed1104_mm = 0;
 224:Api\core\src/vl53l0x_api_core.c **** 	int16_t OffsetMicroMeters = 0;
 225:Api\core\src/vl53l0x_api_core.c **** 	uint32_t DistMeasTgtFixed1104_mm = 400 << 4;
 226:Api\core\src/vl53l0x_api_core.c **** 	uint32_t DistMeasFixed1104_400_mm = 0;
 227:Api\core\src/vl53l0x_api_core.c **** 	uint32_t SignalRateMeasFixed1104_400_mm = 0;
 228:Api\core\src/vl53l0x_api_core.c **** 	char ProductId[19];
 229:Api\core\src/vl53l0x_api_core.c **** 	char *ProductId_tmp;
 230:Api\core\src/vl53l0x_api_core.c **** 	uint8_t ReadDataFromDeviceDone;
 231:Api\core\src/vl53l0x_api_core.c **** 	FixPoint1616_t SignalRateMeasFixed400mmFix = 0;
 232:Api\core\src/vl53l0x_api_core.c **** 	uint8_t NvmRefGoodSpadMap[VL53L0X_REF_SPAD_BUFFER_SIZE];
 233:Api\core\src/vl53l0x_api_core.c **** 	int i;
 234:Api\core\src/vl53l0x_api_core.c **** 
 235:Api\core\src/vl53l0x_api_core.c **** 
 236:Api\core\src/vl53l0x_api_core.c **** 	LOG_FUNCTION_START("");
 237:Api\core\src/vl53l0x_api_core.c **** 
 238:Api\core\src/vl53l0x_api_core.c **** 	ReadDataFromDeviceDone = VL53L0X_GETDEVICESPECIFICPARAMETER(Dev,
 466              		.loc 1 238 0
 467 0018 F033     		adds	r3, r3, #240
 468 001a C35C     		ldrb	r3, [r0, r3]
 469 001c 9846     		mov	r8, r3
 470              	.LVL64:
 239:Api\core\src/vl53l0x_api_core.c **** 			ReadDataFromDeviceDone);
 240:Api\core\src/vl53l0x_api_core.c **** 
 241:Api\core\src/vl53l0x_api_core.c **** 	/* This access is done only once after that a GetDeviceInfo or
 242:Api\core\src/vl53l0x_api_core.c **** 	 * datainit is done*/
 243:Api\core\src/vl53l0x_api_core.c **** 	if (ReadDataFromDeviceDone != 7) {
 471              		.loc 1 243 0
 472 001e 072B     		cmp	r3, #7
 473 0020 00D1     		bne	.LCB451
 474 0022 6DE2     		b	.L44	@long jump
 475              	.LCB451:
 244:Api\core\src/vl53l0x_api_core.c **** 
 245:Api\core\src/vl53l0x_api_core.c **** 		Status |= VL53L0X_WrByte(Dev, 0x80, 0x01);
 476              		.loc 1 245 0
 477 0024 0122     		movs	r2, #1
 478 0026 8021     		movs	r1, #128
 479              	.LVL65:
 480 0028 FFF7FEFF 		bl	VL53L0X_WrByte
 481              	.LVL66:
 482 002c 0600     		movs	r6, r0
 483              	.LVL67:
 246:Api\core\src/vl53l0x_api_core.c **** 		Status |= VL53L0X_WrByte(Dev, 0xFF, 0x01);
 484              		.loc 1 246 0
 485 002e 0122     		movs	r2, #1
 486 0030 FF21     		movs	r1, #255
 487 0032 2000     		movs	r0, r4
 488 0034 FFF7FEFF 		bl	VL53L0X_WrByte
 489              	.LVL68:
ARM GAS  C:\Users\Rajesh\AppData\Local\Temp\ccMJoliC.s 			page 14


 490 0038 3043     		orrs	r0, r6
 491 003a 46B2     		sxtb	r6, r0
 492              	.LVL69:
 247:Api\core\src/vl53l0x_api_core.c **** 		Status |= VL53L0X_WrByte(Dev, 0x00, 0x00);
 493              		.loc 1 247 0
 494 003c 0022     		movs	r2, #0
 495 003e 0021     		movs	r1, #0
 496 0040 2000     		movs	r0, r4
 497 0042 FFF7FEFF 		bl	VL53L0X_WrByte
 498              	.LVL70:
 499 0046 3043     		orrs	r0, r6
 500 0048 46B2     		sxtb	r6, r0
 501              	.LVL71:
 248:Api\core\src/vl53l0x_api_core.c **** 
 249:Api\core\src/vl53l0x_api_core.c **** 		Status |= VL53L0X_WrByte(Dev, 0xFF, 0x06);
 502              		.loc 1 249 0
 503 004a 0622     		movs	r2, #6
 504 004c FF21     		movs	r1, #255
 505 004e 2000     		movs	r0, r4
 506 0050 FFF7FEFF 		bl	VL53L0X_WrByte
 507              	.LVL72:
 508 0054 3043     		orrs	r0, r6
 509 0056 46B2     		sxtb	r6, r0
 510              	.LVL73:
 250:Api\core\src/vl53l0x_api_core.c **** 		Status |= VL53L0X_RdByte(Dev, 0x83, &byte);
 511              		.loc 1 250 0
 512 0058 2F27     		movs	r7, #47
 513 005a 02AB     		add	r3, sp, #8
 514 005c 9C46     		mov	ip, r3
 515 005e 6744     		add	r7, r7, ip
 516 0060 3A00     		movs	r2, r7
 517 0062 8321     		movs	r1, #131
 518 0064 2000     		movs	r0, r4
 519 0066 FFF7FEFF 		bl	VL53L0X_RdByte
 520              	.LVL74:
 521 006a 0643     		orrs	r6, r0
 522              	.LVL75:
 523 006c 76B2     		sxtb	r6, r6
 524              	.LVL76:
 251:Api\core\src/vl53l0x_api_core.c **** 		Status |= VL53L0X_WrByte(Dev, 0x83, byte|4);
 525              		.loc 1 251 0
 526 006e 3A78     		ldrb	r2, [r7]
 527 0070 0423     		movs	r3, #4
 528 0072 1A43     		orrs	r2, r3
 529 0074 D2B2     		uxtb	r2, r2
 530 0076 8321     		movs	r1, #131
 531 0078 2000     		movs	r0, r4
 532 007a FFF7FEFF 		bl	VL53L0X_WrByte
 533              	.LVL77:
 534 007e 3043     		orrs	r0, r6
 535 0080 46B2     		sxtb	r6, r0
 536              	.LVL78:
 252:Api\core\src/vl53l0x_api_core.c **** 		Status |= VL53L0X_WrByte(Dev, 0xFF, 0x07);
 537              		.loc 1 252 0
 538 0082 0722     		movs	r2, #7
 539 0084 FF21     		movs	r1, #255
 540 0086 2000     		movs	r0, r4
ARM GAS  C:\Users\Rajesh\AppData\Local\Temp\ccMJoliC.s 			page 15


 541 0088 FFF7FEFF 		bl	VL53L0X_WrByte
 542              	.LVL79:
 543 008c 3043     		orrs	r0, r6
 544 008e 46B2     		sxtb	r6, r0
 545              	.LVL80:
 253:Api\core\src/vl53l0x_api_core.c **** 		Status |= VL53L0X_WrByte(Dev, 0x81, 0x01);
 546              		.loc 1 253 0
 547 0090 0122     		movs	r2, #1
 548 0092 8121     		movs	r1, #129
 549 0094 2000     		movs	r0, r4
 550 0096 FFF7FEFF 		bl	VL53L0X_WrByte
 551              	.LVL81:
 552 009a 3043     		orrs	r0, r6
 553 009c 46B2     		sxtb	r6, r0
 554              	.LVL82:
 254:Api\core\src/vl53l0x_api_core.c **** 
 255:Api\core\src/vl53l0x_api_core.c **** 		Status |= VL53L0X_PollingDelay(Dev);
 555              		.loc 1 255 0
 556 009e 2000     		movs	r0, r4
 557 00a0 FFF7FEFF 		bl	VL53L0X_PollingDelay
 558              	.LVL83:
 559 00a4 3043     		orrs	r0, r6
 560 00a6 46B2     		sxtb	r6, r0
 561              	.LVL84:
 256:Api\core\src/vl53l0x_api_core.c **** 
 257:Api\core\src/vl53l0x_api_core.c **** 		Status |= VL53L0X_WrByte(Dev, 0x80, 0x01);
 562              		.loc 1 257 0
 563 00a8 0122     		movs	r2, #1
 564 00aa 8021     		movs	r1, #128
 565 00ac 2000     		movs	r0, r4
 566 00ae FFF7FEFF 		bl	VL53L0X_WrByte
 567              	.LVL85:
 568 00b2 0643     		orrs	r6, r0
 569              	.LVL86:
 570 00b4 73B2     		sxtb	r3, r6
 571 00b6 9946     		mov	r9, r3
 572              	.LVL87:
 258:Api\core\src/vl53l0x_api_core.c **** 
 259:Api\core\src/vl53l0x_api_core.c **** 		if (((option & 1) == 1) &&
 573              		.loc 1 259 0
 574 00b8 EB07     		lsls	r3, r5, #31
 575 00ba 56D5     		bpl	.L45
 576              		.loc 1 259 0 is_stmt 0 discriminator 1
 577 00bc 4346     		mov	r3, r8
 578 00be DB07     		lsls	r3, r3, #31
 579 00c0 57D4     		bmi	.L46
 260:Api\core\src/vl53l0x_api_core.c **** 			((ReadDataFromDeviceDone & 1) == 0)) {
 261:Api\core\src/vl53l0x_api_core.c **** 			Status |= VL53L0X_WrByte(Dev, 0x94, 0x6b);
 580              		.loc 1 261 0 is_stmt 1
 581 00c2 6B22     		movs	r2, #107
 582 00c4 9421     		movs	r1, #148
 583 00c6 2000     		movs	r0, r4
 584 00c8 FFF7FEFF 		bl	VL53L0X_WrByte
 585              	.LVL88:
 586 00cc 4B46     		mov	r3, r9
 587 00ce 0343     		orrs	r3, r0
 588 00d0 5EB2     		sxtb	r6, r3
ARM GAS  C:\Users\Rajesh\AppData\Local\Temp\ccMJoliC.s 			page 16


 589              	.LVL89:
 262:Api\core\src/vl53l0x_api_core.c **** 			Status |= VL53L0X_device_read_strobe(Dev);
 590              		.loc 1 262 0
 591 00d2 2000     		movs	r0, r4
 592 00d4 FFF7FEFF 		bl	VL53L0X_device_read_strobe
 593              	.LVL90:
 594 00d8 3043     		orrs	r0, r6
 595 00da 46B2     		sxtb	r6, r0
 596              	.LVL91:
 263:Api\core\src/vl53l0x_api_core.c **** 			Status |= VL53L0X_RdDWord(Dev, 0x90, &TmpDWord);
 597              		.loc 1 263 0
 598 00dc 0CAA     		add	r2, sp, #48
 599 00de 9021     		movs	r1, #144
 600 00e0 2000     		movs	r0, r4
 601 00e2 FFF7FEFF 		bl	VL53L0X_RdDWord
 602              	.LVL92:
 603 00e6 0643     		orrs	r6, r0
 604              	.LVL93:
 605 00e8 76B2     		sxtb	r6, r6
 606              	.LVL94:
 264:Api\core\src/vl53l0x_api_core.c **** 
 265:Api\core\src/vl53l0x_api_core.c **** 			ReferenceSpadCount = (uint8_t)((TmpDWord >> 8) & 0x07f);
 607              		.loc 1 265 0
 608 00ea 0C9B     		ldr	r3, [sp, #48]
 609 00ec 190A     		lsrs	r1, r3, #8
 610 00ee 7F22     		movs	r2, #127
 611 00f0 1140     		ands	r1, r2
 612 00f2 8A46     		mov	r10, r1
 613              	.LVL95:
 266:Api\core\src/vl53l0x_api_core.c **** 			ReferenceSpadType  = (uint8_t)((TmpDWord >> 15) & 0x01);
 614              		.loc 1 266 0
 615 00f4 DB0B     		lsrs	r3, r3, #15
 616 00f6 7E3A     		subs	r2, r2, #126
 617 00f8 1340     		ands	r3, r2
 618 00fa 0093     		str	r3, [sp]
 619              	.LVL96:
 267:Api\core\src/vl53l0x_api_core.c **** 
 268:Api\core\src/vl53l0x_api_core.c **** 			Status |= VL53L0X_WrByte(Dev, 0x94, 0x24);
 620              		.loc 1 268 0
 621 00fc 2332     		adds	r2, r2, #35
 622 00fe 9421     		movs	r1, #148
 623 0100 2000     		movs	r0, r4
 624 0102 FFF7FEFF 		bl	VL53L0X_WrByte
 625              	.LVL97:
 626 0106 3043     		orrs	r0, r6
 627 0108 46B2     		sxtb	r6, r0
 628              	.LVL98:
 269:Api\core\src/vl53l0x_api_core.c **** 			Status |= VL53L0X_device_read_strobe(Dev);
 629              		.loc 1 269 0
 630 010a 2000     		movs	r0, r4
 631 010c FFF7FEFF 		bl	VL53L0X_device_read_strobe
 632              	.LVL99:
 633 0110 3043     		orrs	r0, r6
 634 0112 46B2     		sxtb	r6, r0
 635              	.LVL100:
 270:Api\core\src/vl53l0x_api_core.c **** 			Status |= VL53L0X_RdDWord(Dev, 0x90, &TmpDWord);
 636              		.loc 1 270 0
ARM GAS  C:\Users\Rajesh\AppData\Local\Temp\ccMJoliC.s 			page 17


 637 0114 0CAA     		add	r2, sp, #48
 638 0116 9021     		movs	r1, #144
 639 0118 2000     		movs	r0, r4
 640 011a FFF7FEFF 		bl	VL53L0X_RdDWord
 641              	.LVL101:
 642 011e 0643     		orrs	r6, r0
 643              	.LVL102:
 644 0120 76B2     		sxtb	r6, r6
 645              	.LVL103:
 271:Api\core\src/vl53l0x_api_core.c **** 
 272:Api\core\src/vl53l0x_api_core.c **** 
 273:Api\core\src/vl53l0x_api_core.c **** 			NvmRefGoodSpadMap[0] = (uint8_t)((TmpDWord >> 24)
 646              		.loc 1 273 0
 647 0122 0C9B     		ldr	r3, [sp, #48]
 648 0124 1A0E     		lsrs	r2, r3, #24
 649 0126 02A9     		add	r1, sp, #8
 650 0128 0A70     		strb	r2, [r1]
 274:Api\core\src/vl53l0x_api_core.c **** 				& 0xff);
 275:Api\core\src/vl53l0x_api_core.c **** 			NvmRefGoodSpadMap[1] = (uint8_t)((TmpDWord >> 16)
 651              		.loc 1 275 0
 652 012a 1A0C     		lsrs	r2, r3, #16
 653 012c 4A70     		strb	r2, [r1, #1]
 276:Api\core\src/vl53l0x_api_core.c **** 				& 0xff);
 277:Api\core\src/vl53l0x_api_core.c **** 			NvmRefGoodSpadMap[2] = (uint8_t)((TmpDWord >> 8)
 654              		.loc 1 277 0
 655 012e 1A0A     		lsrs	r2, r3, #8
 656 0130 8A70     		strb	r2, [r1, #2]
 278:Api\core\src/vl53l0x_api_core.c **** 				& 0xff);
 279:Api\core\src/vl53l0x_api_core.c **** 			NvmRefGoodSpadMap[3] = (uint8_t)(TmpDWord & 0xff);
 657              		.loc 1 279 0
 658 0132 CB70     		strb	r3, [r1, #3]
 280:Api\core\src/vl53l0x_api_core.c **** 
 281:Api\core\src/vl53l0x_api_core.c **** 			Status |= VL53L0X_WrByte(Dev, 0x94, 0x25);
 659              		.loc 1 281 0
 660 0134 2522     		movs	r2, #37
 661 0136 9421     		movs	r1, #148
 662 0138 2000     		movs	r0, r4
 663 013a FFF7FEFF 		bl	VL53L0X_WrByte
 664              	.LVL104:
 665 013e 3043     		orrs	r0, r6
 666 0140 46B2     		sxtb	r6, r0
 667              	.LVL105:
 282:Api\core\src/vl53l0x_api_core.c **** 			Status |= VL53L0X_device_read_strobe(Dev);
 668              		.loc 1 282 0
 669 0142 2000     		movs	r0, r4
 670 0144 FFF7FEFF 		bl	VL53L0X_device_read_strobe
 671              	.LVL106:
 672 0148 3043     		orrs	r0, r6
 673 014a 46B2     		sxtb	r6, r0
 674              	.LVL107:
 283:Api\core\src/vl53l0x_api_core.c **** 			Status |= VL53L0X_RdDWord(Dev, 0x90, &TmpDWord);
 675              		.loc 1 283 0
 676 014c 0CAA     		add	r2, sp, #48
 677 014e 9021     		movs	r1, #144
 678 0150 2000     		movs	r0, r4
 679 0152 FFF7FEFF 		bl	VL53L0X_RdDWord
 680              	.LVL108:
ARM GAS  C:\Users\Rajesh\AppData\Local\Temp\ccMJoliC.s 			page 18


 681 0156 0643     		orrs	r6, r0
 682              	.LVL109:
 683 0158 73B2     		sxtb	r3, r6
 684 015a 9946     		mov	r9, r3
 685              	.LVL110:
 284:Api\core\src/vl53l0x_api_core.c **** 
 285:Api\core\src/vl53l0x_api_core.c **** 			NvmRefGoodSpadMap[4] = (uint8_t)((TmpDWord >> 24)
 686              		.loc 1 285 0
 687 015c 0C9B     		ldr	r3, [sp, #48]
 688 015e 1A0E     		lsrs	r2, r3, #24
 689 0160 02A9     		add	r1, sp, #8
 690 0162 0A71     		strb	r2, [r1, #4]
 286:Api\core\src/vl53l0x_api_core.c **** 				& 0xff);
 287:Api\core\src/vl53l0x_api_core.c **** 			NvmRefGoodSpadMap[5] = (uint8_t)((TmpDWord >> 16)
 691              		.loc 1 287 0
 692 0164 1B0C     		lsrs	r3, r3, #16
 693 0166 4B71     		strb	r3, [r1, #5]
 694 0168 06E0     		b	.L34
 695              	.LVL111:
 696              	.L45:
 220:Api\core\src/vl53l0x_api_core.c **** 	uint32_t PartUIDUpper = 0;
 697              		.loc 1 220 0
 698 016a 0023     		movs	r3, #0
 699 016c 0093     		str	r3, [sp]
 219:Api\core\src/vl53l0x_api_core.c **** 	uint8_t ReferenceSpadType = 0;
 700              		.loc 1 219 0
 701 016e 9A46     		mov	r10, r3
 702 0170 02E0     		b	.L34
 703              	.L46:
 220:Api\core\src/vl53l0x_api_core.c **** 	uint32_t PartUIDUpper = 0;
 704              		.loc 1 220 0
 705 0172 0023     		movs	r3, #0
 706 0174 0093     		str	r3, [sp]
 219:Api\core\src/vl53l0x_api_core.c **** 	uint8_t ReferenceSpadType = 0;
 707              		.loc 1 219 0
 708 0176 9A46     		mov	r10, r3
 709              	.LVL112:
 710              	.L34:
 288:Api\core\src/vl53l0x_api_core.c **** 				& 0xff);
 289:Api\core\src/vl53l0x_api_core.c **** 		}
 290:Api\core\src/vl53l0x_api_core.c **** 
 291:Api\core\src/vl53l0x_api_core.c **** 		if (((option & 2) == 2) &&
 711              		.loc 1 291 0
 712 0178 AB07     		lsls	r3, r5, #30
 713 017a 00D4     		bmi	.LCB702
 714 017c EEE0     		b	.L35	@long jump
 715              	.LCB702:
 716              		.loc 1 291 0 is_stmt 0 discriminator 1
 717 017e 4346     		mov	r3, r8
 718 0180 9B07     		lsls	r3, r3, #30
 719 0182 00D5     		bpl	.LCB709
 720 0184 EAE0     		b	.L35	@long jump
 721              	.LCB709:
 292:Api\core\src/vl53l0x_api_core.c **** 			((ReadDataFromDeviceDone & 2) == 0)) {
 293:Api\core\src/vl53l0x_api_core.c **** 
 294:Api\core\src/vl53l0x_api_core.c **** 			Status |= VL53L0X_WrByte(Dev, 0x94, 0x02);
 722              		.loc 1 294 0 is_stmt 1
ARM GAS  C:\Users\Rajesh\AppData\Local\Temp\ccMJoliC.s 			page 19


 723 0186 0222     		movs	r2, #2
 724 0188 9421     		movs	r1, #148
 725 018a 2000     		movs	r0, r4
 726 018c FFF7FEFF 		bl	VL53L0X_WrByte
 727              	.LVL113:
 728 0190 4B46     		mov	r3, r9
 729 0192 0343     		orrs	r3, r0
 730 0194 5EB2     		sxtb	r6, r3
 731              	.LVL114:
 295:Api\core\src/vl53l0x_api_core.c **** 			Status |= VL53L0X_device_read_strobe(Dev);
 732              		.loc 1 295 0
 733 0196 2000     		movs	r0, r4
 734 0198 FFF7FEFF 		bl	VL53L0X_device_read_strobe
 735              	.LVL115:
 736 019c 3043     		orrs	r0, r6
 737 019e 46B2     		sxtb	r6, r0
 738              	.LVL116:
 296:Api\core\src/vl53l0x_api_core.c **** 			Status |= VL53L0X_RdByte(Dev, 0x90, &ModuleId);
 739              		.loc 1 296 0
 740 01a0 2722     		movs	r2, #39
 741 01a2 02AB     		add	r3, sp, #8
 742 01a4 9C46     		mov	ip, r3
 743 01a6 6244     		add	r2, r2, ip
 744 01a8 9021     		movs	r1, #144
 745 01aa 2000     		movs	r0, r4
 746 01ac FFF7FEFF 		bl	VL53L0X_RdByte
 747              	.LVL117:
 748 01b0 3043     		orrs	r0, r6
 749 01b2 46B2     		sxtb	r6, r0
 750              	.LVL118:
 297:Api\core\src/vl53l0x_api_core.c **** 
 298:Api\core\src/vl53l0x_api_core.c **** 			Status |= VL53L0X_WrByte(Dev, 0x94, 0x7B);
 751              		.loc 1 298 0
 752 01b4 7B22     		movs	r2, #123
 753 01b6 9421     		movs	r1, #148
 754 01b8 2000     		movs	r0, r4
 755 01ba FFF7FEFF 		bl	VL53L0X_WrByte
 756              	.LVL119:
 757 01be 3043     		orrs	r0, r6
 758 01c0 46B2     		sxtb	r6, r0
 759              	.LVL120:
 299:Api\core\src/vl53l0x_api_core.c **** 			Status |= VL53L0X_device_read_strobe(Dev);
 760              		.loc 1 299 0
 761 01c2 2000     		movs	r0, r4
 762 01c4 FFF7FEFF 		bl	VL53L0X_device_read_strobe
 763              	.LVL121:
 764 01c8 3043     		orrs	r0, r6
 765 01ca 46B2     		sxtb	r6, r0
 766              	.LVL122:
 300:Api\core\src/vl53l0x_api_core.c **** 			Status |= VL53L0X_RdByte(Dev, 0x90, &Revision);
 767              		.loc 1 300 0
 768 01cc 2622     		movs	r2, #38
 769 01ce 02AB     		add	r3, sp, #8
 770 01d0 9C46     		mov	ip, r3
 771 01d2 6244     		add	r2, r2, ip
 772 01d4 9021     		movs	r1, #144
 773 01d6 2000     		movs	r0, r4
ARM GAS  C:\Users\Rajesh\AppData\Local\Temp\ccMJoliC.s 			page 20


 774 01d8 FFF7FEFF 		bl	VL53L0X_RdByte
 775              	.LVL123:
 776 01dc 3043     		orrs	r0, r6
 777 01de 46B2     		sxtb	r6, r0
 778              	.LVL124:
 301:Api\core\src/vl53l0x_api_core.c **** 
 302:Api\core\src/vl53l0x_api_core.c **** 			Status |= VL53L0X_WrByte(Dev, 0x94, 0x77);
 779              		.loc 1 302 0
 780 01e0 7722     		movs	r2, #119
 781 01e2 9421     		movs	r1, #148
 782 01e4 2000     		movs	r0, r4
 783 01e6 FFF7FEFF 		bl	VL53L0X_WrByte
 784              	.LVL125:
 785 01ea 3043     		orrs	r0, r6
 786 01ec 46B2     		sxtb	r6, r0
 787              	.LVL126:
 303:Api\core\src/vl53l0x_api_core.c **** 			Status |= VL53L0X_device_read_strobe(Dev);
 788              		.loc 1 303 0
 789 01ee 2000     		movs	r0, r4
 790 01f0 FFF7FEFF 		bl	VL53L0X_device_read_strobe
 791              	.LVL127:
 792 01f4 3043     		orrs	r0, r6
 793 01f6 46B2     		sxtb	r6, r0
 794              	.LVL128:
 304:Api\core\src/vl53l0x_api_core.c **** 			Status |= VL53L0X_RdDWord(Dev, 0x90, &TmpDWord);
 795              		.loc 1 304 0
 796 01f8 0CAA     		add	r2, sp, #48
 797 01fa 9021     		movs	r1, #144
 798 01fc 2000     		movs	r0, r4
 799 01fe FFF7FEFF 		bl	VL53L0X_RdDWord
 800              	.LVL129:
 801 0202 0643     		orrs	r6, r0
 802              	.LVL130:
 803 0204 73B2     		sxtb	r3, r6
 804 0206 9946     		mov	r9, r3
 805              	.LVL131:
 305:Api\core\src/vl53l0x_api_core.c **** 
 306:Api\core\src/vl53l0x_api_core.c **** 			ProductId[0] = (char)((TmpDWord >> 25) & 0x07f);
 806              		.loc 1 306 0
 807 0208 0C9B     		ldr	r3, [sp, #48]
 808 020a 5A0E     		lsrs	r2, r3, #25
 809 020c 7F27     		movs	r7, #127
 810 020e 3A40     		ands	r2, r7
 811 0210 04AE     		add	r6, sp, #16
 812 0212 3270     		strb	r2, [r6]
 307:Api\core\src/vl53l0x_api_core.c **** 			ProductId[1] = (char)((TmpDWord >> 18) & 0x07f);
 813              		.loc 1 307 0
 814 0214 9A0C     		lsrs	r2, r3, #18
 815 0216 3A40     		ands	r2, r7
 816 0218 7270     		strb	r2, [r6, #1]
 308:Api\core\src/vl53l0x_api_core.c **** 			ProductId[2] = (char)((TmpDWord >> 11) & 0x07f);
 817              		.loc 1 308 0
 818 021a DA0A     		lsrs	r2, r3, #11
 819 021c 3A40     		ands	r2, r7
 820 021e B270     		strb	r2, [r6, #2]
 309:Api\core\src/vl53l0x_api_core.c **** 			ProductId[3] = (char)((TmpDWord >> 4) & 0x07f);
 821              		.loc 1 309 0
ARM GAS  C:\Users\Rajesh\AppData\Local\Temp\ccMJoliC.s 			page 21


 822 0220 1A09     		lsrs	r2, r3, #4
 823 0222 3A40     		ands	r2, r7
 824 0224 F270     		strb	r2, [r6, #3]
 310:Api\core\src/vl53l0x_api_core.c **** 
 311:Api\core\src/vl53l0x_api_core.c **** 			byte = (uint8_t)((TmpDWord & 0x00f) << 3);
 825              		.loc 1 311 0
 826 0226 DB00     		lsls	r3, r3, #3
 827 0228 7822     		movs	r2, #120
 828 022a 1340     		ands	r3, r2
 829 022c 02AA     		add	r2, sp, #8
 830 022e 2F21     		movs	r1, #47
 831 0230 5218     		adds	r2, r2, r1
 832 0232 1370     		strb	r3, [r2]
 312:Api\core\src/vl53l0x_api_core.c **** 
 313:Api\core\src/vl53l0x_api_core.c **** 			Status |= VL53L0X_WrByte(Dev, 0x94, 0x78);
 833              		.loc 1 313 0
 834 0234 7822     		movs	r2, #120
 835 0236 6531     		adds	r1, r1, #101
 836 0238 2000     		movs	r0, r4
 837 023a FFF7FEFF 		bl	VL53L0X_WrByte
 838              	.LVL132:
 839 023e 4B46     		mov	r3, r9
 840 0240 1843     		orrs	r0, r3
 841 0242 43B2     		sxtb	r3, r0
 842 0244 9946     		mov	r9, r3
 843              	.LVL133:
 314:Api\core\src/vl53l0x_api_core.c **** 			Status |= VL53L0X_device_read_strobe(Dev);
 844              		.loc 1 314 0
 845 0246 2000     		movs	r0, r4
 846 0248 FFF7FEFF 		bl	VL53L0X_device_read_strobe
 847              	.LVL134:
 848 024c 4B46     		mov	r3, r9
 849 024e 1843     		orrs	r0, r3
 850 0250 43B2     		sxtb	r3, r0
 851 0252 9946     		mov	r9, r3
 852              	.LVL135:
 315:Api\core\src/vl53l0x_api_core.c **** 			Status |= VL53L0X_RdDWord(Dev, 0x90, &TmpDWord);
 853              		.loc 1 315 0
 854 0254 0CAA     		add	r2, sp, #48
 855 0256 9021     		movs	r1, #144
 856 0258 2000     		movs	r0, r4
 857 025a FFF7FEFF 		bl	VL53L0X_RdDWord
 858              	.LVL136:
 859 025e 4B46     		mov	r3, r9
 860 0260 1843     		orrs	r0, r3
 861 0262 43B2     		sxtb	r3, r0
 862 0264 9946     		mov	r9, r3
 863              	.LVL137:
 316:Api\core\src/vl53l0x_api_core.c **** 
 317:Api\core\src/vl53l0x_api_core.c **** 			ProductId[4] = (char)(byte +
 318:Api\core\src/vl53l0x_api_core.c **** 					((TmpDWord >> 29) & 0x07f));
 864              		.loc 1 318 0
 865 0266 0C9B     		ldr	r3, [sp, #48]
 866 0268 590F     		lsrs	r1, r3, #29
 317:Api\core\src/vl53l0x_api_core.c **** 					((TmpDWord >> 29) & 0x07f));
 867              		.loc 1 317 0
 868 026a 02AA     		add	r2, sp, #8
ARM GAS  C:\Users\Rajesh\AppData\Local\Temp\ccMJoliC.s 			page 22


 869 026c 2F20     		movs	r0, #47
 870 026e 1218     		adds	r2, r2, r0
 871 0270 1278     		ldrb	r2, [r2]
 872 0272 8A18     		adds	r2, r1, r2
 873 0274 3271     		strb	r2, [r6, #4]
 319:Api\core\src/vl53l0x_api_core.c **** 			ProductId[5] = (char)((TmpDWord >> 22) & 0x07f);
 874              		.loc 1 319 0
 875 0276 9A0D     		lsrs	r2, r3, #22
 876 0278 3A40     		ands	r2, r7
 877 027a 7271     		strb	r2, [r6, #5]
 320:Api\core\src/vl53l0x_api_core.c **** 			ProductId[6] = (char)((TmpDWord >> 15) & 0x07f);
 878              		.loc 1 320 0
 879 027c DA0B     		lsrs	r2, r3, #15
 880 027e 3A40     		ands	r2, r7
 881 0280 B271     		strb	r2, [r6, #6]
 321:Api\core\src/vl53l0x_api_core.c **** 			ProductId[7] = (char)((TmpDWord >> 8) & 0x07f);
 882              		.loc 1 321 0
 883 0282 1A0A     		lsrs	r2, r3, #8
 884 0284 3A40     		ands	r2, r7
 885 0286 F271     		strb	r2, [r6, #7]
 322:Api\core\src/vl53l0x_api_core.c **** 			ProductId[8] = (char)((TmpDWord >> 1) & 0x07f);
 886              		.loc 1 322 0
 887 0288 5A08     		lsrs	r2, r3, #1
 888 028a 3A40     		ands	r2, r7
 889 028c 3272     		strb	r2, [r6, #8]
 323:Api\core\src/vl53l0x_api_core.c **** 
 324:Api\core\src/vl53l0x_api_core.c **** 			byte = (uint8_t)((TmpDWord & 0x001) << 6);
 890              		.loc 1 324 0
 891 028e 9B01     		lsls	r3, r3, #6
 892 0290 4022     		movs	r2, #64
 893 0292 1340     		ands	r3, r2
 894 0294 02AA     		add	r2, sp, #8
 895 0296 2F21     		movs	r1, #47
 896 0298 5218     		adds	r2, r2, r1
 897 029a 1370     		strb	r3, [r2]
 325:Api\core\src/vl53l0x_api_core.c **** 
 326:Api\core\src/vl53l0x_api_core.c **** 			Status |= VL53L0X_WrByte(Dev, 0x94, 0x79);
 898              		.loc 1 326 0
 899 029c 7922     		movs	r2, #121
 900 029e 6531     		adds	r1, r1, #101
 901 02a0 2000     		movs	r0, r4
 902 02a2 FFF7FEFF 		bl	VL53L0X_WrByte
 903              	.LVL138:
 904 02a6 4B46     		mov	r3, r9
 905 02a8 1843     		orrs	r0, r3
 906 02aa 43B2     		sxtb	r3, r0
 907 02ac 9946     		mov	r9, r3
 908              	.LVL139:
 327:Api\core\src/vl53l0x_api_core.c **** 
 328:Api\core\src/vl53l0x_api_core.c **** 			Status |= VL53L0X_device_read_strobe(Dev);
 909              		.loc 1 328 0
 910 02ae 2000     		movs	r0, r4
 911 02b0 FFF7FEFF 		bl	VL53L0X_device_read_strobe
 912              	.LVL140:
 913 02b4 4B46     		mov	r3, r9
 914 02b6 1843     		orrs	r0, r3
 915 02b8 43B2     		sxtb	r3, r0
ARM GAS  C:\Users\Rajesh\AppData\Local\Temp\ccMJoliC.s 			page 23


 916 02ba 9946     		mov	r9, r3
 917              	.LVL141:
 329:Api\core\src/vl53l0x_api_core.c **** 
 330:Api\core\src/vl53l0x_api_core.c **** 			Status |= VL53L0X_RdDWord(Dev, 0x90, &TmpDWord);
 918              		.loc 1 330 0
 919 02bc 0CAA     		add	r2, sp, #48
 920 02be 9021     		movs	r1, #144
 921 02c0 2000     		movs	r0, r4
 922 02c2 FFF7FEFF 		bl	VL53L0X_RdDWord
 923              	.LVL142:
 924 02c6 4B46     		mov	r3, r9
 925 02c8 1843     		orrs	r0, r3
 926 02ca 43B2     		sxtb	r3, r0
 927 02cc 9946     		mov	r9, r3
 928              	.LVL143:
 331:Api\core\src/vl53l0x_api_core.c **** 
 332:Api\core\src/vl53l0x_api_core.c **** 			ProductId[9] = (char)(byte +
 333:Api\core\src/vl53l0x_api_core.c **** 					((TmpDWord >> 26) & 0x07f));
 929              		.loc 1 333 0
 930 02ce 0C9B     		ldr	r3, [sp, #48]
 931 02d0 990E     		lsrs	r1, r3, #26
 332:Api\core\src/vl53l0x_api_core.c **** 					((TmpDWord >> 26) & 0x07f));
 932              		.loc 1 332 0
 933 02d2 02AA     		add	r2, sp, #8
 934 02d4 2F20     		movs	r0, #47
 935 02d6 1218     		adds	r2, r2, r0
 936 02d8 1278     		ldrb	r2, [r2]
 937 02da 8A18     		adds	r2, r1, r2
 938 02dc 7272     		strb	r2, [r6, #9]
 334:Api\core\src/vl53l0x_api_core.c **** 			ProductId[10] = (char)((TmpDWord >> 19) & 0x07f);
 939              		.loc 1 334 0
 940 02de DA0C     		lsrs	r2, r3, #19
 941 02e0 3A40     		ands	r2, r7
 942 02e2 B272     		strb	r2, [r6, #10]
 335:Api\core\src/vl53l0x_api_core.c **** 			ProductId[11] = (char)((TmpDWord >> 12) & 0x07f);
 943              		.loc 1 335 0
 944 02e4 1A0B     		lsrs	r2, r3, #12
 945 02e6 3A40     		ands	r2, r7
 946 02e8 F272     		strb	r2, [r6, #11]
 336:Api\core\src/vl53l0x_api_core.c **** 			ProductId[12] = (char)((TmpDWord >> 5) & 0x07f);
 947              		.loc 1 336 0
 948 02ea 5A09     		lsrs	r2, r3, #5
 949 02ec 3A40     		ands	r2, r7
 950 02ee 3273     		strb	r2, [r6, #12]
 337:Api\core\src/vl53l0x_api_core.c **** 
 338:Api\core\src/vl53l0x_api_core.c **** 			byte = (uint8_t)((TmpDWord & 0x01f) << 2);
 951              		.loc 1 338 0
 952 02f0 9B00     		lsls	r3, r3, #2
 953 02f2 7C22     		movs	r2, #124
 954 02f4 1340     		ands	r3, r2
 955 02f6 02AA     		add	r2, sp, #8
 956 02f8 2F21     		movs	r1, #47
 957 02fa 5218     		adds	r2, r2, r1
 958 02fc 1370     		strb	r3, [r2]
 339:Api\core\src/vl53l0x_api_core.c **** 
 340:Api\core\src/vl53l0x_api_core.c **** 			Status |= VL53L0X_WrByte(Dev, 0x94, 0x7A);
 959              		.loc 1 340 0
ARM GAS  C:\Users\Rajesh\AppData\Local\Temp\ccMJoliC.s 			page 24


 960 02fe 7A22     		movs	r2, #122
 961 0300 6531     		adds	r1, r1, #101
 962 0302 2000     		movs	r0, r4
 963 0304 FFF7FEFF 		bl	VL53L0X_WrByte
 964              	.LVL144:
 965 0308 4B46     		mov	r3, r9
 966 030a 1843     		orrs	r0, r3
 967 030c 43B2     		sxtb	r3, r0
 968 030e 9946     		mov	r9, r3
 969              	.LVL145:
 341:Api\core\src/vl53l0x_api_core.c **** 
 342:Api\core\src/vl53l0x_api_core.c **** 			Status |= VL53L0X_device_read_strobe(Dev);
 970              		.loc 1 342 0
 971 0310 2000     		movs	r0, r4
 972 0312 FFF7FEFF 		bl	VL53L0X_device_read_strobe
 973              	.LVL146:
 974 0316 4B46     		mov	r3, r9
 975 0318 1843     		orrs	r0, r3
 976 031a 43B2     		sxtb	r3, r0
 977 031c 9946     		mov	r9, r3
 978              	.LVL147:
 343:Api\core\src/vl53l0x_api_core.c **** 
 344:Api\core\src/vl53l0x_api_core.c **** 			Status |= VL53L0X_RdDWord(Dev, 0x90, &TmpDWord);
 979              		.loc 1 344 0
 980 031e 0CAA     		add	r2, sp, #48
 981 0320 9021     		movs	r1, #144
 982 0322 2000     		movs	r0, r4
 983 0324 FFF7FEFF 		bl	VL53L0X_RdDWord
 984              	.LVL148:
 985 0328 4B46     		mov	r3, r9
 986 032a 1843     		orrs	r0, r3
 987 032c 43B2     		sxtb	r3, r0
 988 032e 9946     		mov	r9, r3
 989              	.LVL149:
 345:Api\core\src/vl53l0x_api_core.c **** 
 346:Api\core\src/vl53l0x_api_core.c **** 			ProductId[13] = (char)(byte +
 347:Api\core\src/vl53l0x_api_core.c **** 					((TmpDWord >> 30) & 0x07f));
 990              		.loc 1 347 0
 991 0330 0C9B     		ldr	r3, [sp, #48]
 992 0332 990F     		lsrs	r1, r3, #30
 346:Api\core\src/vl53l0x_api_core.c **** 					((TmpDWord >> 30) & 0x07f));
 993              		.loc 1 346 0
 994 0334 02AA     		add	r2, sp, #8
 995 0336 2F20     		movs	r0, #47
 996 0338 1218     		adds	r2, r2, r0
 997 033a 1278     		ldrb	r2, [r2]
 998 033c 8A18     		adds	r2, r1, r2
 999 033e 7273     		strb	r2, [r6, #13]
 348:Api\core\src/vl53l0x_api_core.c **** 			ProductId[14] = (char)((TmpDWord >> 23) & 0x07f);
 1000              		.loc 1 348 0
 1001 0340 DA0D     		lsrs	r2, r3, #23
 1002 0342 3A40     		ands	r2, r7
 1003 0344 B273     		strb	r2, [r6, #14]
 349:Api\core\src/vl53l0x_api_core.c **** 			ProductId[15] = (char)((TmpDWord >> 16) & 0x07f);
 1004              		.loc 1 349 0
 1005 0346 1A0C     		lsrs	r2, r3, #16
 1006 0348 3A40     		ands	r2, r7
ARM GAS  C:\Users\Rajesh\AppData\Local\Temp\ccMJoliC.s 			page 25


 1007 034a F273     		strb	r2, [r6, #15]
 350:Api\core\src/vl53l0x_api_core.c **** 			ProductId[16] = (char)((TmpDWord >> 9) & 0x07f);
 1008              		.loc 1 350 0
 1009 034c 5A0A     		lsrs	r2, r3, #9
 1010 034e 3A40     		ands	r2, r7
 1011 0350 3274     		strb	r2, [r6, #16]
 351:Api\core\src/vl53l0x_api_core.c **** 			ProductId[17] = (char)((TmpDWord >> 2) & 0x07f);
 1012              		.loc 1 351 0
 1013 0352 9B08     		lsrs	r3, r3, #2
 1014 0354 3B40     		ands	r3, r7
 1015 0356 7374     		strb	r3, [r6, #17]
 352:Api\core\src/vl53l0x_api_core.c **** 			ProductId[18] = '\0';
 1016              		.loc 1 352 0
 1017 0358 0023     		movs	r3, #0
 1018 035a B374     		strb	r3, [r6, #18]
 1019              	.L35:
 353:Api\core\src/vl53l0x_api_core.c **** 
 354:Api\core\src/vl53l0x_api_core.c **** 		}
 355:Api\core\src/vl53l0x_api_core.c **** 
 356:Api\core\src/vl53l0x_api_core.c **** 		if (((option & 4) == 4) &&
 1020              		.loc 1 356 0
 1021 035c 6B07     		lsls	r3, r5, #29
 1022 035e 00D4     		bmi	.LCB1016
 1023 0360 85E0     		b	.L47	@long jump
 1024              	.LCB1016:
 1025              		.loc 1 356 0 is_stmt 0 discriminator 1
 1026 0362 4346     		mov	r3, r8
 1027 0364 5B07     		lsls	r3, r3, #29
 1028 0366 00D5     		bpl	.LCB1023
 1029 0368 85E0     		b	.L48	@long jump
 1030              	.LCB1023:
 357:Api\core\src/vl53l0x_api_core.c **** 			((ReadDataFromDeviceDone & 4) == 0)) {
 358:Api\core\src/vl53l0x_api_core.c **** 
 359:Api\core\src/vl53l0x_api_core.c **** 			Status |= VL53L0X_WrByte(Dev, 0x94, 0x7B);
 1031              		.loc 1 359 0 is_stmt 1
 1032 036a 7B22     		movs	r2, #123
 1033 036c 9421     		movs	r1, #148
 1034 036e 2000     		movs	r0, r4
 1035 0370 FFF7FEFF 		bl	VL53L0X_WrByte
 1036              	.LVL150:
 1037 0374 4B46     		mov	r3, r9
 1038 0376 0343     		orrs	r3, r0
 1039 0378 5EB2     		sxtb	r6, r3
 1040              	.LVL151:
 360:Api\core\src/vl53l0x_api_core.c **** 			Status |= VL53L0X_device_read_strobe(Dev);
 1041              		.loc 1 360 0
 1042 037a 2000     		movs	r0, r4
 1043 037c FFF7FEFF 		bl	VL53L0X_device_read_strobe
 1044              	.LVL152:
 1045 0380 3043     		orrs	r0, r6
 1046 0382 46B2     		sxtb	r6, r0
 1047              	.LVL153:
 361:Api\core\src/vl53l0x_api_core.c **** 			Status |= VL53L0X_RdDWord(Dev, 0x90, &PartUIDUpper);
 1048              		.loc 1 361 0
 1049 0384 0AAA     		add	r2, sp, #40
 1050 0386 9021     		movs	r1, #144
 1051 0388 2000     		movs	r0, r4
ARM GAS  C:\Users\Rajesh\AppData\Local\Temp\ccMJoliC.s 			page 26


 1052 038a FFF7FEFF 		bl	VL53L0X_RdDWord
 1053              	.LVL154:
 1054 038e 3043     		orrs	r0, r6
 1055 0390 46B2     		sxtb	r6, r0
 1056              	.LVL155:
 362:Api\core\src/vl53l0x_api_core.c **** 
 363:Api\core\src/vl53l0x_api_core.c **** 			Status |= VL53L0X_WrByte(Dev, 0x94, 0x7C);
 1057              		.loc 1 363 0
 1058 0392 7C22     		movs	r2, #124
 1059 0394 9421     		movs	r1, #148
 1060 0396 2000     		movs	r0, r4
 1061 0398 FFF7FEFF 		bl	VL53L0X_WrByte
 1062              	.LVL156:
 1063 039c 3043     		orrs	r0, r6
 1064 039e 46B2     		sxtb	r6, r0
 1065              	.LVL157:
 364:Api\core\src/vl53l0x_api_core.c **** 			Status |= VL53L0X_device_read_strobe(Dev);
 1066              		.loc 1 364 0
 1067 03a0 2000     		movs	r0, r4
 1068 03a2 FFF7FEFF 		bl	VL53L0X_device_read_strobe
 1069              	.LVL158:
 1070 03a6 3043     		orrs	r0, r6
 1071 03a8 46B2     		sxtb	r6, r0
 1072              	.LVL159:
 365:Api\core\src/vl53l0x_api_core.c **** 			Status |= VL53L0X_RdDWord(Dev, 0x90, &PartUIDLower);
 1073              		.loc 1 365 0
 1074 03aa 09AA     		add	r2, sp, #36
 1075 03ac 9021     		movs	r1, #144
 1076 03ae 2000     		movs	r0, r4
 1077 03b0 FFF7FEFF 		bl	VL53L0X_RdDWord
 1078              	.LVL160:
 1079 03b4 3043     		orrs	r0, r6
 1080 03b6 46B2     		sxtb	r6, r0
 1081              	.LVL161:
 366:Api\core\src/vl53l0x_api_core.c **** 
 367:Api\core\src/vl53l0x_api_core.c **** 			Status |= VL53L0X_WrByte(Dev, 0x94, 0x73);
 1082              		.loc 1 367 0
 1083 03b8 7322     		movs	r2, #115
 1084 03ba 9421     		movs	r1, #148
 1085 03bc 2000     		movs	r0, r4
 1086 03be FFF7FEFF 		bl	VL53L0X_WrByte
 1087              	.LVL162:
 1088 03c2 3043     		orrs	r0, r6
 1089 03c4 46B2     		sxtb	r6, r0
 1090              	.LVL163:
 368:Api\core\src/vl53l0x_api_core.c **** 			Status |= VL53L0X_device_read_strobe(Dev);
 1091              		.loc 1 368 0
 1092 03c6 2000     		movs	r0, r4
 1093 03c8 FFF7FEFF 		bl	VL53L0X_device_read_strobe
 1094              	.LVL164:
 1095 03cc 3043     		orrs	r0, r6
 1096 03ce 46B2     		sxtb	r6, r0
 1097              	.LVL165:
 369:Api\core\src/vl53l0x_api_core.c **** 			Status |= VL53L0X_RdDWord(Dev, 0x90, &TmpDWord);
 1098              		.loc 1 369 0
 1099 03d0 0CAA     		add	r2, sp, #48
 1100 03d2 9021     		movs	r1, #144
ARM GAS  C:\Users\Rajesh\AppData\Local\Temp\ccMJoliC.s 			page 27


 1101 03d4 2000     		movs	r0, r4
 1102 03d6 FFF7FEFF 		bl	VL53L0X_RdDWord
 1103              	.LVL166:
 1104 03da 0643     		orrs	r6, r0
 1105              	.LVL167:
 1106 03dc 76B2     		sxtb	r6, r6
 1107              	.LVL168:
 370:Api\core\src/vl53l0x_api_core.c **** 
 371:Api\core\src/vl53l0x_api_core.c **** 			SignalRateMeasFixed1104_400_mm = (TmpDWord &
 1108              		.loc 1 371 0
 1109 03de 0C9B     		ldr	r3, [sp, #48]
 1110 03e0 1F06     		lsls	r7, r3, #24
 1111 03e2 3F0C     		lsrs	r7, r7, #16
 1112              	.LVL169:
 372:Api\core\src/vl53l0x_api_core.c **** 				0x0000000ff) << 8;
 373:Api\core\src/vl53l0x_api_core.c **** 
 374:Api\core\src/vl53l0x_api_core.c **** 			Status |= VL53L0X_WrByte(Dev, 0x94, 0x74);
 1113              		.loc 1 374 0
 1114 03e4 7422     		movs	r2, #116
 1115 03e6 9421     		movs	r1, #148
 1116 03e8 2000     		movs	r0, r4
 1117 03ea FFF7FEFF 		bl	VL53L0X_WrByte
 1118              	.LVL170:
 1119 03ee 3043     		orrs	r0, r6
 1120 03f0 46B2     		sxtb	r6, r0
 1121              	.LVL171:
 375:Api\core\src/vl53l0x_api_core.c **** 			Status |= VL53L0X_device_read_strobe(Dev);
 1122              		.loc 1 375 0
 1123 03f2 2000     		movs	r0, r4
 1124 03f4 FFF7FEFF 		bl	VL53L0X_device_read_strobe
 1125              	.LVL172:
 1126 03f8 3043     		orrs	r0, r6
 1127 03fa 46B2     		sxtb	r6, r0
 1128              	.LVL173:
 376:Api\core\src/vl53l0x_api_core.c **** 			Status |= VL53L0X_RdDWord(Dev, 0x90, &TmpDWord);
 1129              		.loc 1 376 0
 1130 03fc 0CAA     		add	r2, sp, #48
 1131 03fe 9021     		movs	r1, #144
 1132 0400 2000     		movs	r0, r4
 1133 0402 FFF7FEFF 		bl	VL53L0X_RdDWord
 1134              	.LVL174:
 1135 0406 0643     		orrs	r6, r0
 1136              	.LVL175:
 1137 0408 76B2     		sxtb	r6, r6
 1138              	.LVL176:
 377:Api\core\src/vl53l0x_api_core.c **** 
 378:Api\core\src/vl53l0x_api_core.c **** 			SignalRateMeasFixed1104_400_mm |= ((TmpDWord &
 379:Api\core\src/vl53l0x_api_core.c **** 				0xff000000) >> 24);
 1139              		.loc 1 379 0
 1140 040a 0C9B     		ldr	r3, [sp, #48]
 1141 040c 1B0E     		lsrs	r3, r3, #24
 378:Api\core\src/vl53l0x_api_core.c **** 				0xff000000) >> 24);
 1142              		.loc 1 378 0
 1143 040e 1F43     		orrs	r7, r3
 1144              	.LVL177:
 1145 0410 0197     		str	r7, [sp, #4]
 1146              	.LVL178:
ARM GAS  C:\Users\Rajesh\AppData\Local\Temp\ccMJoliC.s 			page 28


 380:Api\core\src/vl53l0x_api_core.c **** 
 381:Api\core\src/vl53l0x_api_core.c **** 			Status |= VL53L0X_WrByte(Dev, 0x94, 0x75);
 1147              		.loc 1 381 0
 1148 0412 7522     		movs	r2, #117
 1149 0414 9421     		movs	r1, #148
 1150 0416 2000     		movs	r0, r4
 1151 0418 FFF7FEFF 		bl	VL53L0X_WrByte
 1152              	.LVL179:
 1153 041c 3043     		orrs	r0, r6
 1154 041e 46B2     		sxtb	r6, r0
 1155              	.LVL180:
 382:Api\core\src/vl53l0x_api_core.c **** 			Status |= VL53L0X_device_read_strobe(Dev);
 1156              		.loc 1 382 0
 1157 0420 2000     		movs	r0, r4
 1158 0422 FFF7FEFF 		bl	VL53L0X_device_read_strobe
 1159              	.LVL181:
 1160 0426 3043     		orrs	r0, r6
 1161 0428 46B2     		sxtb	r6, r0
 1162              	.LVL182:
 383:Api\core\src/vl53l0x_api_core.c **** 			Status |= VL53L0X_RdDWord(Dev, 0x90, &TmpDWord);
 1163              		.loc 1 383 0
 1164 042a 0CAA     		add	r2, sp, #48
 1165 042c 9021     		movs	r1, #144
 1166 042e 2000     		movs	r0, r4
 1167 0430 FFF7FEFF 		bl	VL53L0X_RdDWord
 1168              	.LVL183:
 1169 0434 0643     		orrs	r6, r0
 1170              	.LVL184:
 1171 0436 76B2     		sxtb	r6, r6
 1172              	.LVL185:
 384:Api\core\src/vl53l0x_api_core.c **** 
 385:Api\core\src/vl53l0x_api_core.c **** 			DistMeasFixed1104_400_mm = (TmpDWord & 0x0000000ff)
 1173              		.loc 1 385 0
 1174 0438 0C9B     		ldr	r3, [sp, #48]
 1175 043a 1F06     		lsls	r7, r3, #24
 1176              	.LVL186:
 1177 043c 3F0C     		lsrs	r7, r7, #16
 1178              	.LVL187:
 386:Api\core\src/vl53l0x_api_core.c **** 							<< 8;
 387:Api\core\src/vl53l0x_api_core.c **** 
 388:Api\core\src/vl53l0x_api_core.c **** 			Status |= VL53L0X_WrByte(Dev, 0x94, 0x76);
 1179              		.loc 1 388 0
 1180 043e 7622     		movs	r2, #118
 1181 0440 9421     		movs	r1, #148
 1182 0442 2000     		movs	r0, r4
 1183 0444 FFF7FEFF 		bl	VL53L0X_WrByte
 1184              	.LVL188:
 1185 0448 0643     		orrs	r6, r0
 1186              	.LVL189:
 1187 044a 76B2     		sxtb	r6, r6
 1188              	.LVL190:
 389:Api\core\src/vl53l0x_api_core.c **** 			Status |= VL53L0X_device_read_strobe(Dev);
 1189              		.loc 1 389 0
 1190 044c 2000     		movs	r0, r4
 1191 044e FFF7FEFF 		bl	VL53L0X_device_read_strobe
 1192              	.LVL191:
 1193 0452 0643     		orrs	r6, r0
ARM GAS  C:\Users\Rajesh\AppData\Local\Temp\ccMJoliC.s 			page 29


 1194              	.LVL192:
 1195 0454 76B2     		sxtb	r6, r6
 1196              	.LVL193:
 390:Api\core\src/vl53l0x_api_core.c **** 			Status |= VL53L0X_RdDWord(Dev, 0x90, &TmpDWord);
 1197              		.loc 1 390 0
 1198 0456 0CAA     		add	r2, sp, #48
 1199 0458 9021     		movs	r1, #144
 1200 045a 2000     		movs	r0, r4
 1201 045c FFF7FEFF 		bl	VL53L0X_RdDWord
 1202              	.LVL194:
 1203 0460 0643     		orrs	r6, r0
 1204              	.LVL195:
 1205 0462 73B2     		sxtb	r3, r6
 1206 0464 9946     		mov	r9, r3
 1207              	.LVL196:
 391:Api\core\src/vl53l0x_api_core.c **** 
 392:Api\core\src/vl53l0x_api_core.c **** 			DistMeasFixed1104_400_mm |= ((TmpDWord & 0xff000000)
 393:Api\core\src/vl53l0x_api_core.c **** 							>> 24);
 1208              		.loc 1 393 0
 1209 0466 0C9B     		ldr	r3, [sp, #48]
 1210 0468 1B0E     		lsrs	r3, r3, #24
 392:Api\core\src/vl53l0x_api_core.c **** 							>> 24);
 1211              		.loc 1 392 0
 1212 046a 1F43     		orrs	r7, r3
 1213              	.LVL197:
 1214 046c 06E0     		b	.L36
 1215              	.LVL198:
 1216              	.L47:
 227:Api\core\src/vl53l0x_api_core.c **** 	char ProductId[19];
 1217              		.loc 1 227 0
 1218 046e 0023     		movs	r3, #0
 1219 0470 0193     		str	r3, [sp, #4]
 226:Api\core\src/vl53l0x_api_core.c **** 	uint32_t SignalRateMeasFixed1104_400_mm = 0;
 1220              		.loc 1 226 0
 1221 0472 0027     		movs	r7, #0
 1222 0474 02E0     		b	.L36
 1223              	.L48:
 227:Api\core\src/vl53l0x_api_core.c **** 	char ProductId[19];
 1224              		.loc 1 227 0
 1225 0476 0023     		movs	r3, #0
 1226 0478 0193     		str	r3, [sp, #4]
 226:Api\core\src/vl53l0x_api_core.c **** 	uint32_t SignalRateMeasFixed1104_400_mm = 0;
 1227              		.loc 1 226 0
 1228 047a 0027     		movs	r7, #0
 1229              	.LVL199:
 1230              	.L36:
 394:Api\core\src/vl53l0x_api_core.c **** 		}
 395:Api\core\src/vl53l0x_api_core.c **** 
 396:Api\core\src/vl53l0x_api_core.c **** 		Status |= VL53L0X_WrByte(Dev, 0x81, 0x00);
 1231              		.loc 1 396 0
 1232 047c 0022     		movs	r2, #0
 1233 047e 8121     		movs	r1, #129
 1234 0480 2000     		movs	r0, r4
 1235 0482 FFF7FEFF 		bl	VL53L0X_WrByte
 1236              	.LVL200:
 1237 0486 4B46     		mov	r3, r9
 1238 0488 0343     		orrs	r3, r0
ARM GAS  C:\Users\Rajesh\AppData\Local\Temp\ccMJoliC.s 			page 30


 1239 048a 5EB2     		sxtb	r6, r3
 1240              	.LVL201:
 397:Api\core\src/vl53l0x_api_core.c **** 		Status |= VL53L0X_WrByte(Dev, 0xFF, 0x06);
 1241              		.loc 1 397 0
 1242 048c 0622     		movs	r2, #6
 1243 048e FF21     		movs	r1, #255
 1244 0490 2000     		movs	r0, r4
 1245 0492 FFF7FEFF 		bl	VL53L0X_WrByte
 1246              	.LVL202:
 1247 0496 0643     		orrs	r6, r0
 1248              	.LVL203:
 1249 0498 76B2     		sxtb	r6, r6
 1250              	.LVL204:
 398:Api\core\src/vl53l0x_api_core.c **** 		Status |= VL53L0X_RdByte(Dev, 0x83, &byte);
 1251              		.loc 1 398 0
 1252 049a 2F23     		movs	r3, #47
 1253 049c 02AA     		add	r2, sp, #8
 1254 049e 9446     		mov	ip, r2
 1255 04a0 6344     		add	r3, r3, ip
 1256 04a2 9B46     		mov	fp, r3
 1257 04a4 1A00     		movs	r2, r3
 1258 04a6 8321     		movs	r1, #131
 1259 04a8 2000     		movs	r0, r4
 1260 04aa FFF7FEFF 		bl	VL53L0X_RdByte
 1261              	.LVL205:
 1262 04ae 0643     		orrs	r6, r0
 1263              	.LVL206:
 1264 04b0 76B2     		sxtb	r6, r6
 1265              	.LVL207:
 399:Api\core\src/vl53l0x_api_core.c **** 		Status |= VL53L0X_WrByte(Dev, 0x83, byte&0xfb);
 1266              		.loc 1 399 0
 1267 04b2 5B46     		mov	r3, fp
 1268 04b4 1A78     		ldrb	r2, [r3]
 1269 04b6 0423     		movs	r3, #4
 1270 04b8 9A43     		bics	r2, r3
 1271 04ba 8321     		movs	r1, #131
 1272 04bc 2000     		movs	r0, r4
 1273 04be FFF7FEFF 		bl	VL53L0X_WrByte
 1274              	.LVL208:
 1275 04c2 0643     		orrs	r6, r0
 1276              	.LVL209:
 1277 04c4 76B2     		sxtb	r6, r6
 1278              	.LVL210:
 400:Api\core\src/vl53l0x_api_core.c **** 		Status |= VL53L0X_WrByte(Dev, 0xFF, 0x01);
 1279              		.loc 1 400 0
 1280 04c6 0122     		movs	r2, #1
 1281 04c8 FF21     		movs	r1, #255
 1282 04ca 2000     		movs	r0, r4
 1283 04cc FFF7FEFF 		bl	VL53L0X_WrByte
 1284              	.LVL211:
 1285 04d0 0643     		orrs	r6, r0
 1286              	.LVL212:
 1287 04d2 76B2     		sxtb	r6, r6
 1288              	.LVL213:
 401:Api\core\src/vl53l0x_api_core.c **** 		Status |= VL53L0X_WrByte(Dev, 0x00, 0x01);
 1289              		.loc 1 401 0
 1290 04d4 0122     		movs	r2, #1
ARM GAS  C:\Users\Rajesh\AppData\Local\Temp\ccMJoliC.s 			page 31


 1291 04d6 0021     		movs	r1, #0
 1292 04d8 2000     		movs	r0, r4
 1293 04da FFF7FEFF 		bl	VL53L0X_WrByte
 1294              	.LVL214:
 1295 04de 0643     		orrs	r6, r0
 1296              	.LVL215:
 1297 04e0 76B2     		sxtb	r6, r6
 1298              	.LVL216:
 402:Api\core\src/vl53l0x_api_core.c **** 
 403:Api\core\src/vl53l0x_api_core.c **** 		Status |= VL53L0X_WrByte(Dev, 0xFF, 0x00);
 1299              		.loc 1 403 0
 1300 04e2 0022     		movs	r2, #0
 1301 04e4 FF21     		movs	r1, #255
 1302 04e6 2000     		movs	r0, r4
 1303 04e8 FFF7FEFF 		bl	VL53L0X_WrByte
 1304              	.LVL217:
 1305 04ec 0643     		orrs	r6, r0
 1306              	.LVL218:
 1307 04ee 76B2     		sxtb	r6, r6
 1308              	.LVL219:
 404:Api\core\src/vl53l0x_api_core.c **** 		Status |= VL53L0X_WrByte(Dev, 0x80, 0x00);
 1309              		.loc 1 404 0
 1310 04f0 0022     		movs	r2, #0
 1311 04f2 8021     		movs	r1, #128
 1312 04f4 2000     		movs	r0, r4
 1313 04f6 FFF7FEFF 		bl	VL53L0X_WrByte
 1314              	.LVL220:
 1315 04fa 0643     		orrs	r6, r0
 1316              	.LVL221:
 1317 04fc 76B2     		sxtb	r6, r6
 1318              	.LVL222:
 1319 04fe 05E0     		b	.L33
 1320              	.LVL223:
 1321              	.L44:
 227:Api\core\src/vl53l0x_api_core.c **** 	char ProductId[19];
 1322              		.loc 1 227 0
 1323 0500 0023     		movs	r3, #0
 1324              	.LVL224:
 1325 0502 0193     		str	r3, [sp, #4]
 226:Api\core\src/vl53l0x_api_core.c **** 	uint32_t SignalRateMeasFixed1104_400_mm = 0;
 1326              		.loc 1 226 0
 1327 0504 0027     		movs	r7, #0
 220:Api\core\src/vl53l0x_api_core.c **** 	uint32_t PartUIDUpper = 0;
 1328              		.loc 1 220 0
 1329 0506 0093     		str	r3, [sp]
 219:Api\core\src/vl53l0x_api_core.c **** 	uint8_t ReferenceSpadType = 0;
 1330              		.loc 1 219 0
 1331 0508 9A46     		mov	r10, r3
 214:Api\core\src/vl53l0x_api_core.c **** 	uint8_t byte;
 1332              		.loc 1 214 0
 1333 050a 0026     		movs	r6, #0
 1334              	.LVL225:
 1335              	.L33:
 405:Api\core\src/vl53l0x_api_core.c **** 	}
 406:Api\core\src/vl53l0x_api_core.c **** 
 407:Api\core\src/vl53l0x_api_core.c **** 	if ((Status == VL53L0X_ERROR_NONE) &&
 1336              		.loc 1 407 0
ARM GAS  C:\Users\Rajesh\AppData\Local\Temp\ccMJoliC.s 			page 32


 1337 050c 002E     		cmp	r6, #0
 1338 050e 54D1     		bne	.L37
 1339              		.loc 1 407 0 is_stmt 0 discriminator 1
 1340 0510 4346     		mov	r3, r8
 1341 0512 072B     		cmp	r3, #7
 1342 0514 51D0     		beq	.L37
 1343              	.LVL226:
 408:Api\core\src/vl53l0x_api_core.c **** 		(ReadDataFromDeviceDone != 7)) {
 409:Api\core\src/vl53l0x_api_core.c **** 		/* Assign to variable if status is ok */
 410:Api\core\src/vl53l0x_api_core.c **** 		if (((option & 1) == 1) &&
 1344              		.loc 1 410 0 is_stmt 1
 1345 0516 EB07     		lsls	r3, r5, #31
 1346 0518 15D5     		bpl	.L38
 1347              	.LVL227:
 1348              		.loc 1 410 0 is_stmt 0 discriminator 1
 1349 051a 4346     		mov	r3, r8
 1350 051c DB07     		lsls	r3, r3, #31
 1351 051e 12D4     		bmi	.L38
 411:Api\core\src/vl53l0x_api_core.c **** 			((ReadDataFromDeviceDone & 1) == 0)) {
 412:Api\core\src/vl53l0x_api_core.c **** 			VL53L0X_SETDEVICESPECIFICPARAMETER(Dev,
 1352              		.loc 1 412 0 is_stmt 1
 1353 0520 1423     		movs	r3, #20
 1354 0522 FF33     		adds	r3, r3, #255
 1355 0524 5246     		mov	r2, r10
 1356 0526 E254     		strb	r2, [r4, r3]
 413:Api\core\src/vl53l0x_api_core.c **** 				ReferenceSpadCount, ReferenceSpadCount);
 414:Api\core\src/vl53l0x_api_core.c **** 
 415:Api\core\src/vl53l0x_api_core.c **** 			VL53L0X_SETDEVICESPECIFICPARAMETER(Dev,
 1357              		.loc 1 415 0
 1358 0528 0133     		adds	r3, r3, #1
 1359 052a 6A46     		mov	r2, sp
 1360 052c 1278     		ldrb	r2, [r2]
 1361 052e E254     		strb	r2, [r4, r3]
 1362              	.LVL228:
 416:Api\core\src/vl53l0x_api_core.c **** 				ReferenceSpadType, ReferenceSpadType);
 417:Api\core\src/vl53l0x_api_core.c **** 
 418:Api\core\src/vl53l0x_api_core.c **** 			for (i = 0; i < VL53L0X_REF_SPAD_BUFFER_SIZE; i++) {
 1363              		.loc 1 418 0
 1364 0530 0023     		movs	r3, #0
 1365 0532 06E0     		b	.L39
 1366              	.LVL229:
 1367              	.L40:
 419:Api\core\src/vl53l0x_api_core.c **** 				Dev->Data.SpadData.RefGoodSpadMap[i] =
 420:Api\core\src/vl53l0x_api_core.c **** 					NvmRefGoodSpadMap[i];
 1368              		.loc 1 420 0 discriminator 3
 1369 0534 02AA     		add	r2, sp, #8
 1370 0536 D15C     		ldrb	r1, [r2, r3]
 419:Api\core\src/vl53l0x_api_core.c **** 				Dev->Data.SpadData.RefGoodSpadMap[i] =
 1371              		.loc 1 419 0 discriminator 3
 1372 0538 E218     		adds	r2, r4, r3
 1373 053a 2B32     		adds	r2, r2, #43
 1374 053c FF32     		adds	r2, r2, #255
 1375 053e 1170     		strb	r1, [r2]
 418:Api\core\src/vl53l0x_api_core.c **** 				Dev->Data.SpadData.RefGoodSpadMap[i] =
 1376              		.loc 1 418 0 discriminator 3
 1377 0540 0133     		adds	r3, r3, #1
 1378              	.LVL230:
ARM GAS  C:\Users\Rajesh\AppData\Local\Temp\ccMJoliC.s 			page 33


 1379              	.L39:
 418:Api\core\src/vl53l0x_api_core.c **** 				Dev->Data.SpadData.RefGoodSpadMap[i] =
 1380              		.loc 1 418 0 is_stmt 0 discriminator 1
 1381 0542 052B     		cmp	r3, #5
 1382 0544 F6DD     		ble	.L40
 1383              	.LVL231:
 1384              	.L38:
 421:Api\core\src/vl53l0x_api_core.c **** 			}
 422:Api\core\src/vl53l0x_api_core.c **** 		}
 423:Api\core\src/vl53l0x_api_core.c **** 
 424:Api\core\src/vl53l0x_api_core.c **** 		if (((option & 2) == 2) &&
 1385              		.loc 1 424 0 is_stmt 1
 1386 0546 AB07     		lsls	r3, r5, #30
 1387 0548 13D5     		bpl	.L41
 1388              		.loc 1 424 0 is_stmt 0 discriminator 1
 1389 054a 4346     		mov	r3, r8
 1390 054c 9B07     		lsls	r3, r3, #30
 1391 054e 10D4     		bmi	.L41
 425:Api\core\src/vl53l0x_api_core.c **** 			((ReadDataFromDeviceDone & 2) == 0)) {
 426:Api\core\src/vl53l0x_api_core.c **** 			VL53L0X_SETDEVICESPECIFICPARAMETER(Dev,
 1392              		.loc 1 426 0 is_stmt 1
 1393 0550 2723     		movs	r3, #39
 1394 0552 02AA     		add	r2, sp, #8
 1395 0554 9446     		mov	ip, r2
 1396 0556 6344     		add	r3, r3, ip
 1397 0558 1A78     		ldrb	r2, [r3]
 1398 055a F123     		movs	r3, #241
 1399 055c E254     		strb	r2, [r4, r3]
 427:Api\core\src/vl53l0x_api_core.c **** 					ModuleId, ModuleId);
 428:Api\core\src/vl53l0x_api_core.c **** 
 429:Api\core\src/vl53l0x_api_core.c **** 			VL53L0X_SETDEVICESPECIFICPARAMETER(Dev,
 1400              		.loc 1 429 0
 1401 055e CB3B     		subs	r3, r3, #203
 1402 0560 6344     		add	r3, r3, ip
 1403 0562 1A78     		ldrb	r2, [r3]
 1404 0564 F223     		movs	r3, #242
 1405 0566 E254     		strb	r2, [r4, r3]
 430:Api\core\src/vl53l0x_api_core.c **** 					Revision, Revision);
 431:Api\core\src/vl53l0x_api_core.c **** 
 432:Api\core\src/vl53l0x_api_core.c **** 			ProductId_tmp = VL53L0X_GETDEVICESPECIFICPARAMETER(Dev,
 433:Api\core\src/vl53l0x_api_core.c **** 					ProductId);
 434:Api\core\src/vl53l0x_api_core.c **** 			VL53L0X_COPYSTRING(ProductId_tmp, ProductId);
 1406              		.loc 1 434 0
 1407 0568 04A9     		add	r1, sp, #16
 1408 056a 2000     		movs	r0, r4
 1409 056c F330     		adds	r0, r0, #243
 1410 056e FFF7FEFF 		bl	strcpy
 1411              	.LVL232:
 1412              	.L41:
 435:Api\core\src/vl53l0x_api_core.c **** 
 436:Api\core\src/vl53l0x_api_core.c **** 		}
 437:Api\core\src/vl53l0x_api_core.c **** 
 438:Api\core\src/vl53l0x_api_core.c **** 		if (((option & 4) == 4) &&
 1413              		.loc 1 438 0
 1414 0572 6B07     		lsls	r3, r5, #29
 1415 0574 1CD5     		bpl	.L42
 1416              		.loc 1 438 0 is_stmt 0 discriminator 1
ARM GAS  C:\Users\Rajesh\AppData\Local\Temp\ccMJoliC.s 			page 34


 1417 0576 4346     		mov	r3, r8
 1418 0578 5B07     		lsls	r3, r3, #29
 1419 057a 19D4     		bmi	.L42
 439:Api\core\src/vl53l0x_api_core.c **** 			((ReadDataFromDeviceDone & 4) == 0)) {
 440:Api\core\src/vl53l0x_api_core.c **** 			VL53L0X_SETDEVICESPECIFICPARAMETER(Dev,
 1420              		.loc 1 440 0 is_stmt 1
 1421 057c 8C23     		movs	r3, #140
 1422 057e 5B00     		lsls	r3, r3, #1
 1423 0580 0A9A     		ldr	r2, [sp, #40]
 1424 0582 E250     		str	r2, [r4, r3]
 441:Api\core\src/vl53l0x_api_core.c **** 						PartUIDUpper, PartUIDUpper);
 442:Api\core\src/vl53l0x_api_core.c **** 
 443:Api\core\src/vl53l0x_api_core.c **** 			VL53L0X_SETDEVICESPECIFICPARAMETER(Dev,
 1425              		.loc 1 443 0
 1426 0584 0433     		adds	r3, r3, #4
 1427 0586 099A     		ldr	r2, [sp, #36]
 1428 0588 E250     		str	r2, [r4, r3]
 444:Api\core\src/vl53l0x_api_core.c **** 						PartUIDLower, PartUIDLower);
 445:Api\core\src/vl53l0x_api_core.c **** 
 446:Api\core\src/vl53l0x_api_core.c **** 			SignalRateMeasFixed400mmFix =
 1429              		.loc 1 446 0
 1430 058a 019B     		ldr	r3, [sp, #4]
 1431 058c 5B02     		lsls	r3, r3, #9
 1432              	.LVL233:
 447:Api\core\src/vl53l0x_api_core.c **** 				VL53L0X_FIXPOINT97TOFIXPOINT1616(
 448:Api\core\src/vl53l0x_api_core.c **** 					SignalRateMeasFixed1104_400_mm);
 449:Api\core\src/vl53l0x_api_core.c **** 
 450:Api\core\src/vl53l0x_api_core.c **** 			VL53L0X_SETDEVICESPECIFICPARAMETER(Dev,
 1433              		.loc 1 450 0
 1434 058e 9022     		movs	r2, #144
 1435 0590 5200     		lsls	r2, r2, #1
 1436 0592 A350     		str	r3, [r4, r2]
 451:Api\core\src/vl53l0x_api_core.c **** 				SignalRateMeasFixed400mm,
 452:Api\core\src/vl53l0x_api_core.c **** 				SignalRateMeasFixed400mmFix);
 453:Api\core\src/vl53l0x_api_core.c **** 
 454:Api\core\src/vl53l0x_api_core.c **** 			OffsetMicroMeters = 0;
 455:Api\core\src/vl53l0x_api_core.c **** 			if (DistMeasFixed1104_400_mm != 0) {
 1437              		.loc 1 455 0
 1438 0594 002F     		cmp	r7, #0
 1439 0596 09D0     		beq	.L49
 456:Api\core\src/vl53l0x_api_core.c **** 					OffsetFixed1104_mm =
 1440              		.loc 1 456 0
 1441 0598 0C4B     		ldr	r3, .L50
 1442              	.LVL234:
 1443 059a 9C46     		mov	ip, r3
 1444 059c 6744     		add	r7, r7, ip
 1445              	.LVL235:
 457:Api\core\src/vl53l0x_api_core.c **** 						DistMeasFixed1104_400_mm -
 458:Api\core\src/vl53l0x_api_core.c **** 						DistMeasTgtFixed1104_mm;
 459:Api\core\src/vl53l0x_api_core.c **** 					OffsetMicroMeters = (OffsetFixed1104_mm
 460:Api\core\src/vl53l0x_api_core.c **** 						* 1000) >> 4;
 1446              		.loc 1 460 0
 1447 059e FA23     		movs	r3, #250
 1448 05a0 9B00     		lsls	r3, r3, #2
 1449 05a2 5F43     		muls	r7, r3
 1450              	.LVL236:
 1451 05a4 3F09     		lsrs	r7, r7, #4
ARM GAS  C:\Users\Rajesh\AppData\Local\Temp\ccMJoliC.s 			page 35


 1452              	.LVL237:
 461:Api\core\src/vl53l0x_api_core.c **** 					OffsetMicroMeters *= -1;
 1453              		.loc 1 461 0
 1454 05a6 7B42     		rsbs	r3, r7, #0
 1455 05a8 1BB2     		sxth	r3, r3
 1456              	.LVL238:
 1457 05aa 00E0     		b	.L43
 1458              	.LVL239:
 1459              	.L49:
 454:Api\core\src/vl53l0x_api_core.c **** 			if (DistMeasFixed1104_400_mm != 0) {
 1460              		.loc 1 454 0
 1461 05ac 0023     		movs	r3, #0
 1462              	.LVL240:
 1463              	.L43:
 462:Api\core\src/vl53l0x_api_core.c **** 			}
 463:Api\core\src/vl53l0x_api_core.c **** 
 464:Api\core\src/vl53l0x_api_core.c **** 			PALDevDataSet(Dev,
 1464              		.loc 1 464 0
 1465 05ae E360     		str	r3, [r4, #12]
 1466              	.LVL241:
 1467              	.L42:
 465:Api\core\src/vl53l0x_api_core.c **** 				Part2PartOffsetAdjustmentNVMMicroMeter,
 466:Api\core\src/vl53l0x_api_core.c **** 				OffsetMicroMeters);
 467:Api\core\src/vl53l0x_api_core.c **** 		}
 468:Api\core\src/vl53l0x_api_core.c **** 		byte = (uint8_t)(ReadDataFromDeviceDone|option);
 1468              		.loc 1 468 0
 1469 05b0 4346     		mov	r3, r8
 1470 05b2 2B43     		orrs	r3, r5
 1471 05b4 1D00     		movs	r5, r3
 1472              	.LVL242:
 469:Api\core\src/vl53l0x_api_core.c **** 		VL53L0X_SETDEVICESPECIFICPARAMETER(Dev, ReadDataFromDeviceDone,
 1473              		.loc 1 469 0
 1474 05b6 F023     		movs	r3, #240
 1475 05b8 E554     		strb	r5, [r4, r3]
 1476              	.LVL243:
 1477              	.L37:
 470:Api\core\src/vl53l0x_api_core.c **** 				byte);
 471:Api\core\src/vl53l0x_api_core.c **** 	}
 472:Api\core\src/vl53l0x_api_core.c **** 
 473:Api\core\src/vl53l0x_api_core.c **** 	LOG_FUNCTION_END(Status);
 474:Api\core\src/vl53l0x_api_core.c **** 	return Status;
 475:Api\core\src/vl53l0x_api_core.c **** }
 1478              		.loc 1 475 0
 1479 05ba 3000     		movs	r0, r6
 1480 05bc 0FB0     		add	sp, sp, #60
 1481              	.LVL244:
 1482              		@ sp needed
 1483              	.LVL245:
 1484              	.LVL246:
 1485              	.LVL247:
 1486              	.LVL248:
 1487 05be 3CBC     		pop	{r2, r3, r4, r5}
 1488 05c0 9046     		mov	r8, r2
 1489 05c2 9946     		mov	r9, r3
 1490 05c4 A246     		mov	r10, r4
 1491 05c6 AB46     		mov	fp, r5
 1492 05c8 F0BD     		pop	{r4, r5, r6, r7, pc}
ARM GAS  C:\Users\Rajesh\AppData\Local\Temp\ccMJoliC.s 			page 36


 1493              	.L51:
 1494 05ca C046     		.align	2
 1495              	.L50:
 1496 05cc 00E7FFFF 		.word	-6400
 1497              		.cfi_endproc
 1498              	.LFE8:
 1499              		.size	VL53L0X_get_info_from_device, .-VL53L0X_get_info_from_device
 1500              		.section	.text.VL53L0X_calc_macro_period_ps,"ax",%progbits
 1501              		.align	2
 1502              		.global	VL53L0X_calc_macro_period_ps
 1503              		.code	16
 1504              		.thumb_func
 1505              		.type	VL53L0X_calc_macro_period_ps, %function
 1506              	VL53L0X_calc_macro_period_ps:
 1507              	.LFB9:
 476:Api\core\src/vl53l0x_api_core.c **** 
 477:Api\core\src/vl53l0x_api_core.c **** 
 478:Api\core\src/vl53l0x_api_core.c **** uint32_t VL53L0X_calc_macro_period_ps(VL53L0X_DEV Dev, uint8_t vcsel_period_pclks)
 479:Api\core\src/vl53l0x_api_core.c **** {
 1508              		.loc 1 479 0
 1509              		.cfi_startproc
 1510              		@ args = 0, pretend = 0, frame = 0
 1511              		@ frame_needed = 0, uses_anonymous_args = 0
 1512              		@ link register save eliminated.
 1513              	.LVL249:
 480:Api\core\src/vl53l0x_api_core.c **** 	uint64_t PLL_period_ps;
 481:Api\core\src/vl53l0x_api_core.c **** 	uint32_t macro_period_vclks;
 482:Api\core\src/vl53l0x_api_core.c **** 	uint32_t macro_period_ps;
 483:Api\core\src/vl53l0x_api_core.c **** 
 484:Api\core\src/vl53l0x_api_core.c **** 	LOG_FUNCTION_START("");
 485:Api\core\src/vl53l0x_api_core.c **** 
 486:Api\core\src/vl53l0x_api_core.c **** 	/* The above calculation will produce rounding errors,
 487:Api\core\src/vl53l0x_api_core.c **** 	   therefore set fixed value
 488:Api\core\src/vl53l0x_api_core.c **** 	*/
 489:Api\core\src/vl53l0x_api_core.c **** 	PLL_period_ps = 1655;
 490:Api\core\src/vl53l0x_api_core.c **** 
 491:Api\core\src/vl53l0x_api_core.c **** 	macro_period_vclks = 2304;
 492:Api\core\src/vl53l0x_api_core.c **** 	macro_period_ps = (uint32_t)(macro_period_vclks
 493:Api\core\src/vl53l0x_api_core.c **** 			* vcsel_period_pclks * PLL_period_ps);
 1514              		.loc 1 493 0
 1515 0000 CB00     		lsls	r3, r1, #3
 1516 0002 5918     		adds	r1, r3, r1
 1517              	.LVL250:
 1518 0004 0802     		lsls	r0, r1, #8
 1519              	.LVL251:
 492:Api\core\src/vl53l0x_api_core.c **** 			* vcsel_period_pclks * PLL_period_ps);
 1520              		.loc 1 492 0
 1521 0006 014B     		ldr	r3, .L53
 1522 0008 5843     		muls	r0, r3
 1523              	.LVL252:
 494:Api\core\src/vl53l0x_api_core.c **** 
 495:Api\core\src/vl53l0x_api_core.c **** 	LOG_FUNCTION_END("");
 496:Api\core\src/vl53l0x_api_core.c **** 	return macro_period_ps;
 497:Api\core\src/vl53l0x_api_core.c **** }
 1524              		.loc 1 497 0
 1525              		@ sp needed
 1526 000a 7047     		bx	lr
ARM GAS  C:\Users\Rajesh\AppData\Local\Temp\ccMJoliC.s 			page 37


 1527              	.L54:
 1528              		.align	2
 1529              	.L53:
 1530 000c 77060000 		.word	1655
 1531              		.cfi_endproc
 1532              	.LFE9:
 1533              		.size	VL53L0X_calc_macro_period_ps, .-VL53L0X_calc_macro_period_ps
 1534              		.section	.text.VL53L0X_encode_timeout,"ax",%progbits
 1535              		.align	2
 1536              		.global	VL53L0X_encode_timeout
 1537              		.code	16
 1538              		.thumb_func
 1539              		.type	VL53L0X_encode_timeout, %function
 1540              	VL53L0X_encode_timeout:
 1541              	.LFB10:
 498:Api\core\src/vl53l0x_api_core.c **** 
 499:Api\core\src/vl53l0x_api_core.c **** uint16_t VL53L0X_encode_timeout(uint32_t timeout_macro_clks)
 500:Api\core\src/vl53l0x_api_core.c **** {
 1542              		.loc 1 500 0
 1543              		.cfi_startproc
 1544              		@ args = 0, pretend = 0, frame = 0
 1545              		@ frame_needed = 0, uses_anonymous_args = 0
 1546              		@ link register save eliminated.
 1547              	.LVL253:
 501:Api\core\src/vl53l0x_api_core.c **** 	/*!
 502:Api\core\src/vl53l0x_api_core.c **** 	 * Encode timeout in macro periods in (LSByte * 2^MSByte) + 1 format
 503:Api\core\src/vl53l0x_api_core.c **** 	 */
 504:Api\core\src/vl53l0x_api_core.c **** 
 505:Api\core\src/vl53l0x_api_core.c **** 	uint16_t encoded_timeout = 0;
 506:Api\core\src/vl53l0x_api_core.c **** 	uint32_t ls_byte = 0;
 507:Api\core\src/vl53l0x_api_core.c **** 	uint16_t ms_byte = 0;
 508:Api\core\src/vl53l0x_api_core.c **** 
 509:Api\core\src/vl53l0x_api_core.c **** 	if (timeout_macro_clks > 0) {
 1548              		.loc 1 509 0
 1549 0000 0028     		cmp	r0, #0
 1550 0002 10D0     		beq	.L59
 510:Api\core\src/vl53l0x_api_core.c **** 		ls_byte = timeout_macro_clks - 1;
 1551              		.loc 1 510 0
 1552 0004 0138     		subs	r0, r0, #1
 1553              	.LVL254:
 507:Api\core\src/vl53l0x_api_core.c **** 
 1554              		.loc 1 507 0
 1555 0006 0023     		movs	r3, #0
 511:Api\core\src/vl53l0x_api_core.c **** 
 512:Api\core\src/vl53l0x_api_core.c **** 		while ((ls_byte & 0xFFFFFF00) > 0) {
 1556              		.loc 1 512 0
 1557 0008 02E0     		b	.L57
 1558              	.LVL255:
 1559              	.L58:
 513:Api\core\src/vl53l0x_api_core.c **** 			ls_byte = ls_byte >> 1;
 1560              		.loc 1 513 0
 1561 000a 4008     		lsrs	r0, r0, #1
 1562              	.LVL256:
 514:Api\core\src/vl53l0x_api_core.c **** 			ms_byte++;
 1563              		.loc 1 514 0
 1564 000c 0133     		adds	r3, r3, #1
 1565              	.LVL257:
ARM GAS  C:\Users\Rajesh\AppData\Local\Temp\ccMJoliC.s 			page 38


 1566 000e 9BB2     		uxth	r3, r3
 1567              	.LVL258:
 1568              	.L57:
 512:Api\core\src/vl53l0x_api_core.c **** 			ls_byte = ls_byte >> 1;
 1569              		.loc 1 512 0
 1570 0010 FF22     		movs	r2, #255
 1571 0012 0100     		movs	r1, r0
 1572 0014 9143     		bics	r1, r2
 1573 0016 0A1E     		subs	r2, r1, #0
 1574 0018 F7D1     		bne	.L58
 515:Api\core\src/vl53l0x_api_core.c **** 		}
 516:Api\core\src/vl53l0x_api_core.c **** 
 517:Api\core\src/vl53l0x_api_core.c **** 		encoded_timeout = (ms_byte << 8)
 1575              		.loc 1 517 0
 1576 001a 1B02     		lsls	r3, r3, #8
 1577              	.LVL259:
 1578 001c FF32     		adds	r2, r2, #255
 1579 001e 1040     		ands	r0, r2
 1580              	.LVL260:
 1581 0020 1818     		adds	r0, r3, r0
 1582 0022 80B2     		uxth	r0, r0
 1583              	.LVL261:
 1584 0024 00E0     		b	.L56
 1585              	.LVL262:
 1586              	.L59:
 505:Api\core\src/vl53l0x_api_core.c **** 	uint32_t ls_byte = 0;
 1587              		.loc 1 505 0
 1588 0026 0020     		movs	r0, #0
 1589              	.LVL263:
 1590              	.L56:
 518:Api\core\src/vl53l0x_api_core.c **** 				+ (uint16_t) (ls_byte & 0x000000FF);
 519:Api\core\src/vl53l0x_api_core.c **** 	}
 520:Api\core\src/vl53l0x_api_core.c **** 
 521:Api\core\src/vl53l0x_api_core.c **** 	return encoded_timeout;
 522:Api\core\src/vl53l0x_api_core.c **** 
 523:Api\core\src/vl53l0x_api_core.c **** }
 1591              		.loc 1 523 0
 1592              		@ sp needed
 1593 0028 7047     		bx	lr
 1594              		.cfi_endproc
 1595              	.LFE10:
 1596              		.size	VL53L0X_encode_timeout, .-VL53L0X_encode_timeout
 1597 002a C046     		.section	.text.VL53L0X_decode_timeout,"ax",%progbits
 1598              		.align	2
 1599              		.global	VL53L0X_decode_timeout
 1600              		.code	16
 1601              		.thumb_func
 1602              		.type	VL53L0X_decode_timeout, %function
 1603              	VL53L0X_decode_timeout:
 1604              	.LFB11:
 524:Api\core\src/vl53l0x_api_core.c **** 
 525:Api\core\src/vl53l0x_api_core.c **** uint32_t VL53L0X_decode_timeout(uint16_t encoded_timeout)
 526:Api\core\src/vl53l0x_api_core.c **** {
 1605              		.loc 1 526 0
 1606              		.cfi_startproc
 1607              		@ args = 0, pretend = 0, frame = 0
 1608              		@ frame_needed = 0, uses_anonymous_args = 0
ARM GAS  C:\Users\Rajesh\AppData\Local\Temp\ccMJoliC.s 			page 39


 1609              		@ link register save eliminated.
 1610              	.LVL264:
 1611 0000 0300     		movs	r3, r0
 1612              	.LVL265:
 527:Api\core\src/vl53l0x_api_core.c **** 	/*!
 528:Api\core\src/vl53l0x_api_core.c **** 	 * Decode 16-bit timeout register value - format (LSByte * 2^MSByte) + 1
 529:Api\core\src/vl53l0x_api_core.c **** 	 */
 530:Api\core\src/vl53l0x_api_core.c **** 
 531:Api\core\src/vl53l0x_api_core.c **** 	uint32_t timeout_macro_clks = 0;
 532:Api\core\src/vl53l0x_api_core.c **** 
 533:Api\core\src/vl53l0x_api_core.c **** 	timeout_macro_clks = ((uint32_t) (encoded_timeout & 0x00FF)
 1613              		.loc 1 533 0
 1614 0002 FF20     		movs	r0, #255
 1615              	.LVL266:
 1616 0004 1840     		ands	r0, r3
 534:Api\core\src/vl53l0x_api_core.c **** 			<< (uint32_t) ((encoded_timeout & 0xFF00) >> 8)) + 1;
 1617              		.loc 1 534 0
 1618 0006 1B0A     		lsrs	r3, r3, #8
 1619 0008 9840     		lsls	r0, r0, r3
 533:Api\core\src/vl53l0x_api_core.c **** 			<< (uint32_t) ((encoded_timeout & 0xFF00) >> 8)) + 1;
 1620              		.loc 1 533 0
 1621 000a 0130     		adds	r0, r0, #1
 1622              	.LVL267:
 535:Api\core\src/vl53l0x_api_core.c **** 
 536:Api\core\src/vl53l0x_api_core.c **** 	return timeout_macro_clks;
 537:Api\core\src/vl53l0x_api_core.c **** }
 1623              		.loc 1 537 0
 1624              		@ sp needed
 1625 000c 7047     		bx	lr
 1626              		.cfi_endproc
 1627              	.LFE11:
 1628              		.size	VL53L0X_decode_timeout, .-VL53L0X_decode_timeout
 1629              		.global	__aeabi_uidiv
 1630 000e C046     		.section	.text.VL53L0X_calc_timeout_mclks,"ax",%progbits
 1631              		.align	2
 1632              		.global	VL53L0X_calc_timeout_mclks
 1633              		.code	16
 1634              		.thumb_func
 1635              		.type	VL53L0X_calc_timeout_mclks, %function
 1636              	VL53L0X_calc_timeout_mclks:
 1637              	.LFB12:
 538:Api\core\src/vl53l0x_api_core.c **** 
 539:Api\core\src/vl53l0x_api_core.c **** 
 540:Api\core\src/vl53l0x_api_core.c **** /* To convert ms into register value */
 541:Api\core\src/vl53l0x_api_core.c **** uint32_t VL53L0X_calc_timeout_mclks(VL53L0X_DEV Dev,
 542:Api\core\src/vl53l0x_api_core.c **** 		uint32_t timeout_period_us,
 543:Api\core\src/vl53l0x_api_core.c **** 		uint8_t vcsel_period_pclks)
 544:Api\core\src/vl53l0x_api_core.c **** {
 1638              		.loc 1 544 0
 1639              		.cfi_startproc
 1640              		@ args = 0, pretend = 0, frame = 0
 1641              		@ frame_needed = 0, uses_anonymous_args = 0
 1642              	.LVL268:
 1643 0000 70B5     		push	{r4, r5, r6, lr}
 1644              		.cfi_def_cfa_offset 16
 1645              		.cfi_offset 4, -16
 1646              		.cfi_offset 5, -12
ARM GAS  C:\Users\Rajesh\AppData\Local\Temp\ccMJoliC.s 			page 40


 1647              		.cfi_offset 6, -8
 1648              		.cfi_offset 14, -4
 1649 0002 0E00     		movs	r6, r1
 1650              	.LVL269:
 545:Api\core\src/vl53l0x_api_core.c **** 	uint32_t macro_period_ps;
 546:Api\core\src/vl53l0x_api_core.c **** 	uint32_t macro_period_ns;
 547:Api\core\src/vl53l0x_api_core.c **** 	uint32_t timeout_period_mclks = 0;
 548:Api\core\src/vl53l0x_api_core.c **** 
 549:Api\core\src/vl53l0x_api_core.c **** 	macro_period_ps = VL53L0X_calc_macro_period_ps(Dev, vcsel_period_pclks);
 1651              		.loc 1 549 0
 1652 0004 1100     		movs	r1, r2
 1653              	.LVL270:
 1654 0006 FFF7FEFF 		bl	VL53L0X_calc_macro_period_ps
 1655              	.LVL271:
 550:Api\core\src/vl53l0x_api_core.c **** 	macro_period_ns = (macro_period_ps + 500) / 1000;
 1656              		.loc 1 550 0
 1657 000a F530     		adds	r0, r0, #245
 1658              	.LVL272:
 1659 000c FF30     		adds	r0, r0, #255
 1660              	.LVL273:
 1661 000e 0400     		movs	r4, r0
 1662 0010 FA21     		movs	r1, #250
 1663 0012 8900     		lsls	r1, r1, #2
 1664 0014 FFF7FEFF 		bl	__aeabi_uidiv
 1665              	.LVL274:
 1666 0018 0500     		movs	r5, r0
 1667              	.LVL275:
 551:Api\core\src/vl53l0x_api_core.c **** 
 552:Api\core\src/vl53l0x_api_core.c **** 	timeout_period_mclks =
 553:Api\core\src/vl53l0x_api_core.c **** 		(uint32_t) (((timeout_period_us * 1000)
 1668              		.loc 1 553 0
 1669 001a FA20     		movs	r0, #250
 1670              	.LVL276:
 1671 001c 8000     		lsls	r0, r0, #2
 1672 001e 4643     		muls	r6, r0
 1673              	.LVL277:
 554:Api\core\src/vl53l0x_api_core.c **** 		+ (macro_period_ns / 2)) / macro_period_ns);
 1674              		.loc 1 554 0
 1675 0020 FA21     		movs	r1, #250
 1676 0022 C900     		lsls	r1, r1, #3
 1677 0024 2000     		movs	r0, r4
 1678 0026 FFF7FEFF 		bl	__aeabi_uidiv
 1679              	.LVL278:
 1680 002a 3018     		adds	r0, r6, r0
 552:Api\core\src/vl53l0x_api_core.c **** 		(uint32_t) (((timeout_period_us * 1000)
 1681              		.loc 1 552 0
 1682 002c 2900     		movs	r1, r5
 1683 002e FFF7FEFF 		bl	__aeabi_uidiv
 1684              	.LVL279:
 555:Api\core\src/vl53l0x_api_core.c **** 
 556:Api\core\src/vl53l0x_api_core.c ****     return timeout_period_mclks;
 557:Api\core\src/vl53l0x_api_core.c **** }
 1685              		.loc 1 557 0
 1686              		@ sp needed
 1687              	.LVL280:
 1688              	.LVL281:
 1689 0032 70BD     		pop	{r4, r5, r6, pc}
ARM GAS  C:\Users\Rajesh\AppData\Local\Temp\ccMJoliC.s 			page 41


 1690              		.cfi_endproc
 1691              	.LFE12:
 1692              		.size	VL53L0X_calc_timeout_mclks, .-VL53L0X_calc_timeout_mclks
 1693              		.section	.text.VL53L0X_calc_timeout_us,"ax",%progbits
 1694              		.align	2
 1695              		.global	VL53L0X_calc_timeout_us
 1696              		.code	16
 1697              		.thumb_func
 1698              		.type	VL53L0X_calc_timeout_us, %function
 1699              	VL53L0X_calc_timeout_us:
 1700              	.LFB13:
 558:Api\core\src/vl53l0x_api_core.c **** 
 559:Api\core\src/vl53l0x_api_core.c **** /* To convert register value into us */
 560:Api\core\src/vl53l0x_api_core.c **** uint32_t VL53L0X_calc_timeout_us(VL53L0X_DEV Dev,
 561:Api\core\src/vl53l0x_api_core.c **** 		uint16_t timeout_period_mclks,
 562:Api\core\src/vl53l0x_api_core.c **** 		uint8_t vcsel_period_pclks)
 563:Api\core\src/vl53l0x_api_core.c **** {
 1701              		.loc 1 563 0
 1702              		.cfi_startproc
 1703              		@ args = 0, pretend = 0, frame = 0
 1704              		@ frame_needed = 0, uses_anonymous_args = 0
 1705              	.LVL282:
 1706 0000 10B5     		push	{r4, lr}
 1707              		.cfi_def_cfa_offset 8
 1708              		.cfi_offset 4, -8
 1709              		.cfi_offset 14, -4
 1710 0002 0C00     		movs	r4, r1
 1711              	.LVL283:
 564:Api\core\src/vl53l0x_api_core.c **** 	uint32_t macro_period_ps;
 565:Api\core\src/vl53l0x_api_core.c **** 	uint32_t macro_period_ns;
 566:Api\core\src/vl53l0x_api_core.c **** 	uint32_t actual_timeout_period_us = 0;
 567:Api\core\src/vl53l0x_api_core.c **** 
 568:Api\core\src/vl53l0x_api_core.c **** 	macro_period_ps = VL53L0X_calc_macro_period_ps(Dev, vcsel_period_pclks);
 1712              		.loc 1 568 0
 1713 0004 1100     		movs	r1, r2
 1714              	.LVL284:
 1715 0006 FFF7FEFF 		bl	VL53L0X_calc_macro_period_ps
 1716              	.LVL285:
 569:Api\core\src/vl53l0x_api_core.c **** 	macro_period_ns = (macro_period_ps + 500) / 1000;
 1717              		.loc 1 569 0
 1718 000a F530     		adds	r0, r0, #245
 1719              	.LVL286:
 1720 000c FF30     		adds	r0, r0, #255
 1721              	.LVL287:
 1722 000e FA21     		movs	r1, #250
 1723 0010 8900     		lsls	r1, r1, #2
 1724 0012 FFF7FEFF 		bl	__aeabi_uidiv
 1725              	.LVL288:
 570:Api\core\src/vl53l0x_api_core.c **** 
 571:Api\core\src/vl53l0x_api_core.c **** 	actual_timeout_period_us =
 572:Api\core\src/vl53l0x_api_core.c **** 		((timeout_period_mclks * macro_period_ns) + 500) / 1000;
 1726              		.loc 1 572 0
 1727 0016 6043     		muls	r0, r4
 1728              	.LVL289:
 1729 0018 F530     		adds	r0, r0, #245
 1730 001a FF30     		adds	r0, r0, #255
 571:Api\core\src/vl53l0x_api_core.c **** 		((timeout_period_mclks * macro_period_ns) + 500) / 1000;
ARM GAS  C:\Users\Rajesh\AppData\Local\Temp\ccMJoliC.s 			page 42


 1731              		.loc 1 571 0
 1732 001c FA21     		movs	r1, #250
 1733 001e 8900     		lsls	r1, r1, #2
 1734 0020 FFF7FEFF 		bl	__aeabi_uidiv
 1735              	.LVL290:
 573:Api\core\src/vl53l0x_api_core.c **** 
 574:Api\core\src/vl53l0x_api_core.c **** 	return actual_timeout_period_us;
 575:Api\core\src/vl53l0x_api_core.c **** }
 1736              		.loc 1 575 0
 1737              		@ sp needed
 1738 0024 10BD     		pop	{r4, pc}
 1739              		.cfi_endproc
 1740              	.LFE13:
 1741              		.size	VL53L0X_calc_timeout_us, .-VL53L0X_calc_timeout_us
 1742 0026 C046     		.section	.text.get_sequence_step_timeout,"ax",%progbits
 1743              		.align	2
 1744              		.global	get_sequence_step_timeout
 1745              		.code	16
 1746              		.thumb_func
 1747              		.type	get_sequence_step_timeout, %function
 1748              	get_sequence_step_timeout:
 1749              	.LFB14:
 576:Api\core\src/vl53l0x_api_core.c **** 
 577:Api\core\src/vl53l0x_api_core.c **** 
 578:Api\core\src/vl53l0x_api_core.c **** VL53L0X_Error get_sequence_step_timeout(VL53L0X_DEV Dev,
 579:Api\core\src/vl53l0x_api_core.c **** 				VL53L0X_SequenceStepId SequenceStepId,
 580:Api\core\src/vl53l0x_api_core.c **** 				uint32_t *pTimeOutMicroSecs)
 581:Api\core\src/vl53l0x_api_core.c **** {
 1750              		.loc 1 581 0
 1751              		.cfi_startproc
 1752              		@ args = 0, pretend = 0, frame = 16
 1753              		@ frame_needed = 0, uses_anonymous_args = 0
 1754              	.LVL291:
 1755 0000 F0B5     		push	{r4, r5, r6, r7, lr}
 1756              		.cfi_def_cfa_offset 20
 1757              		.cfi_offset 4, -20
 1758              		.cfi_offset 5, -16
 1759              		.cfi_offset 6, -12
 1760              		.cfi_offset 7, -8
 1761              		.cfi_offset 14, -4
 1762 0002 4746     		mov	r7, r8
 1763 0004 80B4     		push	{r7}
 1764              		.cfi_def_cfa_offset 24
 1765              		.cfi_offset 8, -24
 1766 0006 84B0     		sub	sp, sp, #16
 1767              		.cfi_def_cfa_offset 40
 1768 0008 0500     		movs	r5, r0
 1769 000a 1600     		movs	r6, r2
 1770              	.LVL292:
 582:Api\core\src/vl53l0x_api_core.c **** 	VL53L0X_Error Status = VL53L0X_ERROR_NONE;
 583:Api\core\src/vl53l0x_api_core.c **** 	uint8_t CurrentVCSELPulsePeriodPClk;
 584:Api\core\src/vl53l0x_api_core.c **** 	uint8_t EncodedTimeOutByte = 0;
 1771              		.loc 1 584 0
 1772 000c 0023     		movs	r3, #0
 1773 000e 0E22     		movs	r2, #14
 1774              	.LVL293:
 1775 0010 6A44     		add	r2, r2, sp
ARM GAS  C:\Users\Rajesh\AppData\Local\Temp\ccMJoliC.s 			page 43


 1776 0012 1370     		strb	r3, [r2]
 1777              	.LVL294:
 585:Api\core\src/vl53l0x_api_core.c **** 	uint32_t TimeoutMicroSeconds = 0;
 586:Api\core\src/vl53l0x_api_core.c **** 	uint16_t PreRangeEncodedTimeOut = 0;
 1778              		.loc 1 586 0
 1779 0014 03AA     		add	r2, sp, #12
 1780 0016 1380     		strh	r3, [r2]
 1781              	.LVL295:
 587:Api\core\src/vl53l0x_api_core.c **** 	uint16_t MsrcTimeOutMClks;
 588:Api\core\src/vl53l0x_api_core.c **** 	uint16_t PreRangeTimeOutMClks;
 589:Api\core\src/vl53l0x_api_core.c **** 	uint16_t FinalRangeTimeOutMClks = 0;
 590:Api\core\src/vl53l0x_api_core.c **** 	uint16_t FinalRangeEncodedTimeOut;
 591:Api\core\src/vl53l0x_api_core.c **** 	VL53L0X_SchedulerSequenceSteps_t SchedulerSequenceSteps;
 592:Api\core\src/vl53l0x_api_core.c **** 
 593:Api\core\src/vl53l0x_api_core.c **** 	if ((SequenceStepId == VL53L0X_SEQUENCESTEP_TCC)	 ||
 1782              		.loc 1 593 0
 1783 0018 0229     		cmp	r1, #2
 1784 001a 1AD8     		bhi	.L64
 594:Api\core\src/vl53l0x_api_core.c **** 		(SequenceStepId == VL53L0X_SEQUENCESTEP_DSS)	 ||
 595:Api\core\src/vl53l0x_api_core.c **** 		(SequenceStepId == VL53L0X_SEQUENCESTEP_MSRC)) {
 596:Api\core\src/vl53l0x_api_core.c **** 
 597:Api\core\src/vl53l0x_api_core.c **** 		Status = VL53L0X_GetVcselPulsePeriod(Dev,
 1785              		.loc 1 597 0
 1786 001c 0F22     		movs	r2, #15
 1787 001e 6A44     		add	r2, r2, sp
 1788 0020 0021     		movs	r1, #0
 1789              	.LVL296:
 1790 0022 FFF7FEFF 		bl	VL53L0X_GetVcselPulsePeriod
 1791              	.LVL297:
 1792 0026 041E     		subs	r4, r0, #0
 1793              	.LVL298:
 598:Api\core\src/vl53l0x_api_core.c **** 					VL53L0X_VCSEL_PERIOD_PRE_RANGE,
 599:Api\core\src/vl53l0x_api_core.c **** 					&CurrentVCSELPulsePeriodPClk);
 600:Api\core\src/vl53l0x_api_core.c **** 		if (Status == VL53L0X_ERROR_NONE) {
 1794              		.loc 1 600 0
 1795 0028 06D1     		bne	.L65
 601:Api\core\src/vl53l0x_api_core.c **** 			Status = VL53L0X_RdByte(Dev,
 1796              		.loc 1 601 0
 1797 002a 0E22     		movs	r2, #14
 1798 002c 6A44     		add	r2, r2, sp
 1799 002e 4621     		movs	r1, #70
 1800 0030 2800     		movs	r0, r5
 1801              	.LVL299:
 1802 0032 FFF7FEFF 		bl	VL53L0X_RdByte
 1803              	.LVL300:
 1804 0036 0400     		movs	r4, r0
 1805              	.LVL301:
 1806              	.L65:
 602:Api\core\src/vl53l0x_api_core.c **** 					VL53L0X_REG_MSRC_CONFIG_TIMEOUT_MACROP,
 603:Api\core\src/vl53l0x_api_core.c **** 					&EncodedTimeOutByte);
 604:Api\core\src/vl53l0x_api_core.c **** 		}
 605:Api\core\src/vl53l0x_api_core.c **** 		MsrcTimeOutMClks = VL53L0X_decode_timeout(EncodedTimeOutByte);
 1807              		.loc 1 605 0
 1808 0038 0E23     		movs	r3, #14
 1809 003a 6B44     		add	r3, r3, sp
 1810 003c 1878     		ldrb	r0, [r3]
 1811 003e FFF7FEFF 		bl	VL53L0X_decode_timeout
ARM GAS  C:\Users\Rajesh\AppData\Local\Temp\ccMJoliC.s 			page 44


 1812              	.LVL302:
 1813 0042 81B2     		uxth	r1, r0
 1814              	.LVL303:
 606:Api\core\src/vl53l0x_api_core.c **** 
 607:Api\core\src/vl53l0x_api_core.c **** 		TimeoutMicroSeconds = VL53L0X_calc_timeout_us(Dev,
 1815              		.loc 1 607 0
 1816 0044 0F23     		movs	r3, #15
 1817 0046 6B44     		add	r3, r3, sp
 1818 0048 1A78     		ldrb	r2, [r3]
 1819 004a 2800     		movs	r0, r5
 1820 004c FFF7FEFF 		bl	VL53L0X_calc_timeout_us
 1821              	.LVL304:
 1822 0050 6BE0     		b	.L66
 1823              	.LVL305:
 1824              	.L64:
 608:Api\core\src/vl53l0x_api_core.c **** 						MsrcTimeOutMClks,
 609:Api\core\src/vl53l0x_api_core.c **** 						CurrentVCSELPulsePeriodPClk);
 610:Api\core\src/vl53l0x_api_core.c **** 	} else if (SequenceStepId == VL53L0X_SEQUENCESTEP_PRE_RANGE) {
 1825              		.loc 1 610 0
 1826 0052 0329     		cmp	r1, #3
 1827 0054 20D1     		bne	.L67
 611:Api\core\src/vl53l0x_api_core.c **** 		/* Retrieve PRE-RANGE VCSEL Period */
 612:Api\core\src/vl53l0x_api_core.c **** 		Status = VL53L0X_GetVcselPulsePeriod(Dev,
 1828              		.loc 1 612 0
 1829 0056 0F22     		movs	r2, #15
 1830 0058 6A44     		add	r2, r2, sp
 1831 005a 0021     		movs	r1, #0
 1832              	.LVL306:
 1833 005c FFF7FEFF 		bl	VL53L0X_GetVcselPulsePeriod
 1834              	.LVL307:
 1835 0060 041E     		subs	r4, r0, #0
 1836              	.LVL308:
 613:Api\core\src/vl53l0x_api_core.c **** 						VL53L0X_VCSEL_PERIOD_PRE_RANGE,
 614:Api\core\src/vl53l0x_api_core.c **** 						&CurrentVCSELPulsePeriodPClk);
 615:Api\core\src/vl53l0x_api_core.c **** 
 616:Api\core\src/vl53l0x_api_core.c **** 		/* Retrieve PRE-RANGE Timeout in Macro periods (MCLKS) */
 617:Api\core\src/vl53l0x_api_core.c **** 		if (Status == VL53L0X_ERROR_NONE) {
 1837              		.loc 1 617 0
 1838 0062 5ED1     		bne	.L72
 618:Api\core\src/vl53l0x_api_core.c **** 
 619:Api\core\src/vl53l0x_api_core.c **** 			/* Retrieve PRE-RANGE VCSEL Period */
 620:Api\core\src/vl53l0x_api_core.c **** 			Status = VL53L0X_GetVcselPulsePeriod(Dev,
 1839              		.loc 1 620 0
 1840 0064 0F22     		movs	r2, #15
 1841 0066 6A44     		add	r2, r2, sp
 1842 0068 0021     		movs	r1, #0
 1843 006a 2800     		movs	r0, r5
 1844              	.LVL309:
 1845 006c FFF7FEFF 		bl	VL53L0X_GetVcselPulsePeriod
 1846              	.LVL310:
 1847 0070 041E     		subs	r4, r0, #0
 1848              	.LVL311:
 621:Api\core\src/vl53l0x_api_core.c **** 					VL53L0X_VCSEL_PERIOD_PRE_RANGE,
 622:Api\core\src/vl53l0x_api_core.c **** 					&CurrentVCSELPulsePeriodPClk);
 623:Api\core\src/vl53l0x_api_core.c **** 
 624:Api\core\src/vl53l0x_api_core.c **** 			if (Status == VL53L0X_ERROR_NONE) {
 1849              		.loc 1 624 0
ARM GAS  C:\Users\Rajesh\AppData\Local\Temp\ccMJoliC.s 			page 45


 1850 0072 05D1     		bne	.L68
 625:Api\core\src/vl53l0x_api_core.c **** 				Status = VL53L0X_RdWord(Dev,
 1851              		.loc 1 625 0
 1852 0074 03AA     		add	r2, sp, #12
 1853 0076 5121     		movs	r1, #81
 1854 0078 2800     		movs	r0, r5
 1855              	.LVL312:
 1856 007a FFF7FEFF 		bl	VL53L0X_RdWord
 1857              	.LVL313:
 1858 007e 0400     		movs	r4, r0
 1859              	.LVL314:
 1860              	.L68:
 626:Api\core\src/vl53l0x_api_core.c **** 				VL53L0X_REG_PRE_RANGE_CONFIG_TIMEOUT_MACROP_HI,
 627:Api\core\src/vl53l0x_api_core.c **** 				&PreRangeEncodedTimeOut);
 628:Api\core\src/vl53l0x_api_core.c **** 			}
 629:Api\core\src/vl53l0x_api_core.c **** 
 630:Api\core\src/vl53l0x_api_core.c **** 			PreRangeTimeOutMClks = VL53L0X_decode_timeout(
 1861              		.loc 1 630 0
 1862 0080 03AB     		add	r3, sp, #12
 1863 0082 1888     		ldrh	r0, [r3]
 1864 0084 FFF7FEFF 		bl	VL53L0X_decode_timeout
 1865              	.LVL315:
 1866 0088 81B2     		uxth	r1, r0
 1867              	.LVL316:
 631:Api\core\src/vl53l0x_api_core.c **** 					PreRangeEncodedTimeOut);
 632:Api\core\src/vl53l0x_api_core.c **** 
 633:Api\core\src/vl53l0x_api_core.c **** 			TimeoutMicroSeconds = VL53L0X_calc_timeout_us(Dev,
 1868              		.loc 1 633 0
 1869 008a 0F23     		movs	r3, #15
 1870 008c 6B44     		add	r3, r3, sp
 1871 008e 1A78     		ldrb	r2, [r3]
 1872 0090 2800     		movs	r0, r5
 1873 0092 FFF7FEFF 		bl	VL53L0X_calc_timeout_us
 1874              	.LVL317:
 1875 0096 48E0     		b	.L66
 1876              	.LVL318:
 1877              	.L67:
 634:Api\core\src/vl53l0x_api_core.c **** 					PreRangeTimeOutMClks,
 635:Api\core\src/vl53l0x_api_core.c **** 					CurrentVCSELPulsePeriodPClk);
 636:Api\core\src/vl53l0x_api_core.c **** 		}
 637:Api\core\src/vl53l0x_api_core.c **** 	} else if (SequenceStepId == VL53L0X_SEQUENCESTEP_FINAL_RANGE) {
 1878              		.loc 1 637 0
 1879 0098 0429     		cmp	r1, #4
 1880 009a 44D1     		bne	.L73
 638:Api\core\src/vl53l0x_api_core.c **** 
 639:Api\core\src/vl53l0x_api_core.c **** 		VL53L0X_GetSequenceStepEnables(Dev, &SchedulerSequenceSteps);
 1881              		.loc 1 639 0
 1882 009c 01AC     		add	r4, sp, #4
 1883 009e 2100     		movs	r1, r4
 1884              	.LVL319:
 1885 00a0 FFF7FEFF 		bl	VL53L0X_GetSequenceStepEnables
 1886              	.LVL320:
 640:Api\core\src/vl53l0x_api_core.c **** 		PreRangeTimeOutMClks = 0;
 641:Api\core\src/vl53l0x_api_core.c **** 
 642:Api\core\src/vl53l0x_api_core.c **** 		if (SchedulerSequenceSteps.PreRangeOn) {
 1887              		.loc 1 642 0
 1888 00a4 E378     		ldrb	r3, [r4, #3]
ARM GAS  C:\Users\Rajesh\AppData\Local\Temp\ccMJoliC.s 			page 46


 1889 00a6 002B     		cmp	r3, #0
 1890 00a8 13D0     		beq	.L74
 643:Api\core\src/vl53l0x_api_core.c **** 			/* Retrieve PRE-RANGE VCSEL Period */
 644:Api\core\src/vl53l0x_api_core.c **** 			Status = VL53L0X_GetVcselPulsePeriod(Dev,
 1891              		.loc 1 644 0
 1892 00aa 0F22     		movs	r2, #15
 1893 00ac 6A44     		add	r2, r2, sp
 1894 00ae 0021     		movs	r1, #0
 1895 00b0 2800     		movs	r0, r5
 1896 00b2 FFF7FEFF 		bl	VL53L0X_GetVcselPulsePeriod
 1897              	.LVL321:
 1898 00b6 041E     		subs	r4, r0, #0
 1899              	.LVL322:
 645:Api\core\src/vl53l0x_api_core.c **** 				VL53L0X_VCSEL_PERIOD_PRE_RANGE,
 646:Api\core\src/vl53l0x_api_core.c **** 				&CurrentVCSELPulsePeriodPClk);
 647:Api\core\src/vl53l0x_api_core.c **** 
 648:Api\core\src/vl53l0x_api_core.c **** 			/* Retrieve PRE-RANGE Timeout in Macro periods
 649:Api\core\src/vl53l0x_api_core.c **** 			 * (MCLKS) */
 650:Api\core\src/vl53l0x_api_core.c **** 			if (Status == VL53L0X_ERROR_NONE) {
 1900              		.loc 1 650 0
 1901 00b8 0ED1     		bne	.L75
 651:Api\core\src/vl53l0x_api_core.c **** 				Status = VL53L0X_RdWord(Dev,
 1902              		.loc 1 651 0
 1903 00ba 03AF     		add	r7, sp, #12
 1904 00bc 3A00     		movs	r2, r7
 1905 00be 5121     		movs	r1, #81
 1906 00c0 2800     		movs	r0, r5
 1907              	.LVL323:
 1908 00c2 FFF7FEFF 		bl	VL53L0X_RdWord
 1909              	.LVL324:
 1910 00c6 0400     		movs	r4, r0
 1911              	.LVL325:
 652:Api\core\src/vl53l0x_api_core.c **** 				VL53L0X_REG_PRE_RANGE_CONFIG_TIMEOUT_MACROP_HI,
 653:Api\core\src/vl53l0x_api_core.c **** 				&PreRangeEncodedTimeOut);
 654:Api\core\src/vl53l0x_api_core.c **** 				PreRangeTimeOutMClks = VL53L0X_decode_timeout(
 1912              		.loc 1 654 0
 1913 00c8 3888     		ldrh	r0, [r7]
 1914              	.LVL326:
 1915 00ca FFF7FEFF 		bl	VL53L0X_decode_timeout
 1916              	.LVL327:
 1917 00ce 87B2     		uxth	r7, r0
 1918              	.LVL328:
 1919 00d0 03E0     		b	.L69
 1920              	.LVL329:
 1921              	.L74:
 640:Api\core\src/vl53l0x_api_core.c **** 
 1922              		.loc 1 640 0
 1923 00d2 0027     		movs	r7, #0
 582:Api\core\src/vl53l0x_api_core.c **** 	uint8_t CurrentVCSELPulsePeriodPClk;
 1924              		.loc 1 582 0
 1925 00d4 0024     		movs	r4, #0
 1926 00d6 00E0     		b	.L69
 1927              	.LVL330:
 1928              	.L75:
 640:Api\core\src/vl53l0x_api_core.c **** 
 1929              		.loc 1 640 0
 1930 00d8 0027     		movs	r7, #0
ARM GAS  C:\Users\Rajesh\AppData\Local\Temp\ccMJoliC.s 			page 47


 1931              	.LVL331:
 1932              	.L69:
 655:Api\core\src/vl53l0x_api_core.c **** 						PreRangeEncodedTimeOut);
 656:Api\core\src/vl53l0x_api_core.c **** 			}
 657:Api\core\src/vl53l0x_api_core.c **** 		}
 658:Api\core\src/vl53l0x_api_core.c **** 
 659:Api\core\src/vl53l0x_api_core.c **** 		if (Status == VL53L0X_ERROR_NONE) {
 1933              		.loc 1 659 0
 1934 00da 002C     		cmp	r4, #0
 1935 00dc 06D1     		bne	.L70
 660:Api\core\src/vl53l0x_api_core.c **** 			/* Retrieve FINAL-RANGE VCSEL Period */
 661:Api\core\src/vl53l0x_api_core.c **** 			Status = VL53L0X_GetVcselPulsePeriod(Dev,
 1936              		.loc 1 661 0
 1937 00de 0F22     		movs	r2, #15
 1938 00e0 6A44     		add	r2, r2, sp
 1939 00e2 0121     		movs	r1, #1
 1940 00e4 2800     		movs	r0, r5
 1941 00e6 FFF7FEFF 		bl	VL53L0X_GetVcselPulsePeriod
 1942              	.LVL332:
 1943 00ea 0400     		movs	r4, r0
 1944              	.LVL333:
 1945              	.L70:
 662:Api\core\src/vl53l0x_api_core.c **** 					VL53L0X_VCSEL_PERIOD_FINAL_RANGE,
 663:Api\core\src/vl53l0x_api_core.c **** 					&CurrentVCSELPulsePeriodPClk);
 664:Api\core\src/vl53l0x_api_core.c **** 		}
 665:Api\core\src/vl53l0x_api_core.c **** 
 666:Api\core\src/vl53l0x_api_core.c **** 		/* Retrieve FINAL-RANGE Timeout in Macro periods (MCLKS) */
 667:Api\core\src/vl53l0x_api_core.c **** 		if (Status == VL53L0X_ERROR_NONE) {
 1946              		.loc 1 667 0
 1947 00ec 002C     		cmp	r4, #0
 1948 00ee 0ED1     		bne	.L76
 668:Api\core\src/vl53l0x_api_core.c **** 			Status = VL53L0X_RdWord(Dev,
 1949              		.loc 1 668 0
 1950 00f0 0A23     		movs	r3, #10
 1951 00f2 6B44     		add	r3, r3, sp
 1952 00f4 9846     		mov	r8, r3
 1953 00f6 1A00     		movs	r2, r3
 1954 00f8 7121     		movs	r1, #113
 1955 00fa 2800     		movs	r0, r5
 1956 00fc FFF7FEFF 		bl	VL53L0X_RdWord
 1957              	.LVL334:
 1958 0100 0400     		movs	r4, r0
 1959              	.LVL335:
 669:Api\core\src/vl53l0x_api_core.c **** 				VL53L0X_REG_FINAL_RANGE_CONFIG_TIMEOUT_MACROP_HI,
 670:Api\core\src/vl53l0x_api_core.c **** 				&FinalRangeEncodedTimeOut);
 671:Api\core\src/vl53l0x_api_core.c **** 			FinalRangeTimeOutMClks = VL53L0X_decode_timeout(
 1960              		.loc 1 671 0
 1961 0102 4346     		mov	r3, r8
 1962 0104 1888     		ldrh	r0, [r3]
 1963              	.LVL336:
 1964 0106 FFF7FEFF 		bl	VL53L0X_decode_timeout
 1965              	.LVL337:
 1966 010a 81B2     		uxth	r1, r0
 1967              	.LVL338:
 1968 010c 00E0     		b	.L71
 1969              	.LVL339:
 1970              	.L76:
ARM GAS  C:\Users\Rajesh\AppData\Local\Temp\ccMJoliC.s 			page 48


 589:Api\core\src/vl53l0x_api_core.c **** 	uint16_t FinalRangeEncodedTimeOut;
 1971              		.loc 1 589 0
 1972 010e 0021     		movs	r1, #0
 1973              	.LVL340:
 1974              	.L71:
 672:Api\core\src/vl53l0x_api_core.c **** 					FinalRangeEncodedTimeOut);
 673:Api\core\src/vl53l0x_api_core.c **** 		}
 674:Api\core\src/vl53l0x_api_core.c **** 
 675:Api\core\src/vl53l0x_api_core.c **** 		FinalRangeTimeOutMClks -= PreRangeTimeOutMClks;
 1975              		.loc 1 675 0
 1976 0110 C91B     		subs	r1, r1, r7
 1977              	.LVL341:
 1978 0112 89B2     		uxth	r1, r1
 1979              	.LVL342:
 676:Api\core\src/vl53l0x_api_core.c **** 		TimeoutMicroSeconds = VL53L0X_calc_timeout_us(Dev,
 1980              		.loc 1 676 0
 1981 0114 0F23     		movs	r3, #15
 1982 0116 6B44     		add	r3, r3, sp
 1983 0118 1A78     		ldrb	r2, [r3]
 1984 011a 2800     		movs	r0, r5
 1985 011c FFF7FEFF 		bl	VL53L0X_calc_timeout_us
 1986              	.LVL343:
 1987 0120 03E0     		b	.L66
 1988              	.LVL344:
 1989              	.L72:
 585:Api\core\src/vl53l0x_api_core.c **** 	uint16_t PreRangeEncodedTimeOut = 0;
 1990              		.loc 1 585 0
 1991 0122 0020     		movs	r0, #0
 1992              	.LVL345:
 1993 0124 01E0     		b	.L66
 1994              	.LVL346:
 1995              	.L73:
 1996 0126 0020     		movs	r0, #0
 1997              	.LVL347:
 582:Api\core\src/vl53l0x_api_core.c **** 	uint8_t CurrentVCSELPulsePeriodPClk;
 1998              		.loc 1 582 0
 1999 0128 0024     		movs	r4, #0
 2000              	.LVL348:
 2001              	.L66:
 677:Api\core\src/vl53l0x_api_core.c **** 						FinalRangeTimeOutMClks,
 678:Api\core\src/vl53l0x_api_core.c **** 						CurrentVCSELPulsePeriodPClk);
 679:Api\core\src/vl53l0x_api_core.c **** 	}
 680:Api\core\src/vl53l0x_api_core.c **** 
 681:Api\core\src/vl53l0x_api_core.c **** 	*pTimeOutMicroSecs = TimeoutMicroSeconds;
 2002              		.loc 1 681 0
 2003 012a 3060     		str	r0, [r6]
 682:Api\core\src/vl53l0x_api_core.c **** 
 683:Api\core\src/vl53l0x_api_core.c **** 	return Status;
 684:Api\core\src/vl53l0x_api_core.c **** }
 2004              		.loc 1 684 0
 2005 012c 2000     		movs	r0, r4
 2006              	.LVL349:
 2007 012e 04B0     		add	sp, sp, #16
 2008              		@ sp needed
 2009              	.LVL350:
 2010              	.LVL351:
 2011              	.LVL352:
ARM GAS  C:\Users\Rajesh\AppData\Local\Temp\ccMJoliC.s 			page 49


 2012 0130 04BC     		pop	{r2}
 2013 0132 9046     		mov	r8, r2
 2014 0134 F0BD     		pop	{r4, r5, r6, r7, pc}
 2015              		.cfi_endproc
 2016              	.LFE14:
 2017              		.size	get_sequence_step_timeout, .-get_sequence_step_timeout
 2018 0136 C046     		.section	.text.set_sequence_step_timeout,"ax",%progbits
 2019              		.align	2
 2020              		.global	set_sequence_step_timeout
 2021              		.code	16
 2022              		.thumb_func
 2023              		.type	set_sequence_step_timeout, %function
 2024              	set_sequence_step_timeout:
 2025              	.LFB15:
 685:Api\core\src/vl53l0x_api_core.c **** 
 686:Api\core\src/vl53l0x_api_core.c **** 
 687:Api\core\src/vl53l0x_api_core.c **** VL53L0X_Error set_sequence_step_timeout(VL53L0X_DEV Dev,
 688:Api\core\src/vl53l0x_api_core.c **** 					VL53L0X_SequenceStepId SequenceStepId,
 689:Api\core\src/vl53l0x_api_core.c **** 					uint32_t TimeOutMicroSecs)
 690:Api\core\src/vl53l0x_api_core.c **** {
 2026              		.loc 1 690 0
 2027              		.cfi_startproc
 2028              		@ args = 0, pretend = 0, frame = 16
 2029              		@ frame_needed = 0, uses_anonymous_args = 0
 2030              	.LVL353:
 2031 0000 F0B5     		push	{r4, r5, r6, r7, lr}
 2032              		.cfi_def_cfa_offset 20
 2033              		.cfi_offset 4, -20
 2034              		.cfi_offset 5, -16
 2035              		.cfi_offset 6, -12
 2036              		.cfi_offset 7, -8
 2037              		.cfi_offset 14, -4
 2038 0002 85B0     		sub	sp, sp, #20
 2039              		.cfi_def_cfa_offset 40
 2040 0004 0500     		movs	r5, r0
 2041 0006 1600     		movs	r6, r2
 2042              	.LVL354:
 691:Api\core\src/vl53l0x_api_core.c **** 	VL53L0X_Error Status = VL53L0X_ERROR_NONE;
 692:Api\core\src/vl53l0x_api_core.c **** 	uint8_t CurrentVCSELPulsePeriodPClk;
 693:Api\core\src/vl53l0x_api_core.c **** 	uint8_t MsrcEncodedTimeOut;
 694:Api\core\src/vl53l0x_api_core.c **** 	uint16_t PreRangeEncodedTimeOut;
 695:Api\core\src/vl53l0x_api_core.c **** 	uint16_t PreRangeTimeOutMClks;
 696:Api\core\src/vl53l0x_api_core.c **** 	uint16_t MsrcRangeTimeOutMClks;
 697:Api\core\src/vl53l0x_api_core.c **** 	uint32_t FinalRangeTimeOutMClks;
 698:Api\core\src/vl53l0x_api_core.c **** 	uint16_t FinalRangeEncodedTimeOut;
 699:Api\core\src/vl53l0x_api_core.c **** 	VL53L0X_SchedulerSequenceSteps_t SchedulerSequenceSteps;
 700:Api\core\src/vl53l0x_api_core.c **** 
 701:Api\core\src/vl53l0x_api_core.c **** 	if ((SequenceStepId == VL53L0X_SEQUENCESTEP_TCC)	 ||
 2043              		.loc 1 701 0
 2044 0008 0229     		cmp	r1, #2
 2045 000a 22D8     		bhi	.L78
 702:Api\core\src/vl53l0x_api_core.c **** 		(SequenceStepId == VL53L0X_SEQUENCESTEP_DSS)	 ||
 703:Api\core\src/vl53l0x_api_core.c **** 		(SequenceStepId == VL53L0X_SEQUENCESTEP_MSRC)) {
 704:Api\core\src/vl53l0x_api_core.c **** 
 705:Api\core\src/vl53l0x_api_core.c **** 		Status = VL53L0X_GetVcselPulsePeriod(Dev,
 2046              		.loc 1 705 0
 2047 000c 0F22     		movs	r2, #15
ARM GAS  C:\Users\Rajesh\AppData\Local\Temp\ccMJoliC.s 			page 50


 2048              	.LVL355:
 2049 000e 6A44     		add	r2, r2, sp
 2050 0010 0021     		movs	r1, #0
 2051              	.LVL356:
 2052 0012 FFF7FEFF 		bl	VL53L0X_GetVcselPulsePeriod
 2053              	.LVL357:
 2054 0016 041E     		subs	r4, r0, #0
 2055              	.LVL358:
 706:Api\core\src/vl53l0x_api_core.c **** 					VL53L0X_VCSEL_PERIOD_PRE_RANGE,
 707:Api\core\src/vl53l0x_api_core.c **** 					&CurrentVCSELPulsePeriodPClk);
 708:Api\core\src/vl53l0x_api_core.c **** 
 709:Api\core\src/vl53l0x_api_core.c **** 		if (Status == VL53L0X_ERROR_NONE) {
 2056              		.loc 1 709 0
 2057 0018 12D1     		bne	.L79
 710:Api\core\src/vl53l0x_api_core.c **** 			MsrcRangeTimeOutMClks = VL53L0X_calc_timeout_mclks(Dev,
 2058              		.loc 1 710 0
 2059 001a 0F23     		movs	r3, #15
 2060 001c 6B44     		add	r3, r3, sp
 2061 001e 1A78     		ldrb	r2, [r3]
 2062 0020 3100     		movs	r1, r6
 2063 0022 2800     		movs	r0, r5
 2064              	.LVL359:
 2065 0024 FFF7FEFF 		bl	VL53L0X_calc_timeout_mclks
 2066              	.LVL360:
 2067 0028 82B2     		uxth	r2, r0
 2068              	.LVL361:
 711:Api\core\src/vl53l0x_api_core.c **** 					TimeOutMicroSecs,
 712:Api\core\src/vl53l0x_api_core.c **** 					(uint8_t)CurrentVCSELPulsePeriodPClk);
 713:Api\core\src/vl53l0x_api_core.c **** 
 714:Api\core\src/vl53l0x_api_core.c **** 			if (MsrcRangeTimeOutMClks > 256)
 2069              		.loc 1 714 0
 2070 002a 8023     		movs	r3, #128
 2071 002c 5B00     		lsls	r3, r3, #1
 2072 002e 9A42     		cmp	r2, r3
 2073 0030 03D8     		bhi	.L87
 715:Api\core\src/vl53l0x_api_core.c **** 				MsrcEncodedTimeOut = 255;
 716:Api\core\src/vl53l0x_api_core.c **** 			else
 717:Api\core\src/vl53l0x_api_core.c **** 				MsrcEncodedTimeOut =
 718:Api\core\src/vl53l0x_api_core.c **** 					(uint8_t)MsrcRangeTimeOutMClks - 1;
 2074              		.loc 1 718 0
 2075 0032 C0B2     		uxtb	r0, r0
 717:Api\core\src/vl53l0x_api_core.c **** 					(uint8_t)MsrcRangeTimeOutMClks - 1;
 2076              		.loc 1 717 0
 2077 0034 0138     		subs	r0, r0, #1
 2078 0036 C7B2     		uxtb	r7, r0
 2079              	.LVL362:
 2080 0038 00E0     		b	.L80
 2081              	.LVL363:
 2082              	.L87:
 715:Api\core\src/vl53l0x_api_core.c **** 				MsrcEncodedTimeOut = 255;
 2083              		.loc 1 715 0
 2084 003a FF27     		movs	r7, #255
 2085              	.L80:
 2086              	.LVL364:
 719:Api\core\src/vl53l0x_api_core.c **** 
 720:Api\core\src/vl53l0x_api_core.c **** 			VL53L0X_SETDEVICESPECIFICPARAMETER(Dev,
 2087              		.loc 1 720 0
ARM GAS  C:\Users\Rajesh\AppData\Local\Temp\ccMJoliC.s 			page 51


 2088 003c D823     		movs	r3, #216
 2089 003e EF52     		strh	r7, [r5, r3]
 2090              	.LVL365:
 2091              	.L79:
 721:Api\core\src/vl53l0x_api_core.c **** 				LastEncodedTimeout,
 722:Api\core\src/vl53l0x_api_core.c **** 				MsrcEncodedTimeOut);
 723:Api\core\src/vl53l0x_api_core.c **** 		}
 724:Api\core\src/vl53l0x_api_core.c **** 
 725:Api\core\src/vl53l0x_api_core.c **** 		if (Status == VL53L0X_ERROR_NONE) {
 2092              		.loc 1 725 0
 2093 0040 002C     		cmp	r4, #0
 2094 0042 6ED1     		bne	.L81
 726:Api\core\src/vl53l0x_api_core.c **** 			Status = VL53L0X_WrByte(Dev,
 2095              		.loc 1 726 0
 2096 0044 3A00     		movs	r2, r7
 2097 0046 4621     		movs	r1, #70
 2098 0048 2800     		movs	r0, r5
 2099 004a FFF7FEFF 		bl	VL53L0X_WrByte
 2100              	.LVL366:
 2101 004e 0400     		movs	r4, r0
 2102              	.LVL367:
 2103 0050 67E0     		b	.L81
 2104              	.LVL368:
 2105              	.L78:
 727:Api\core\src/vl53l0x_api_core.c **** 				VL53L0X_REG_MSRC_CONFIG_TIMEOUT_MACROP,
 728:Api\core\src/vl53l0x_api_core.c **** 				MsrcEncodedTimeOut);
 729:Api\core\src/vl53l0x_api_core.c **** 		}
 730:Api\core\src/vl53l0x_api_core.c **** 	} else {
 731:Api\core\src/vl53l0x_api_core.c **** 
 732:Api\core\src/vl53l0x_api_core.c **** 		if (SequenceStepId == VL53L0X_SEQUENCESTEP_PRE_RANGE) {
 2106              		.loc 1 732 0
 2107 0052 0329     		cmp	r1, #3
 2108 0054 20D1     		bne	.L82
 733:Api\core\src/vl53l0x_api_core.c **** 
 734:Api\core\src/vl53l0x_api_core.c **** 			if (Status == VL53L0X_ERROR_NONE) {
 735:Api\core\src/vl53l0x_api_core.c **** 				Status = VL53L0X_GetVcselPulsePeriod(Dev,
 2109              		.loc 1 735 0
 2110 0056 0F27     		movs	r7, #15
 2111 0058 6F44     		add	r7, r7, sp
 2112 005a 3A00     		movs	r2, r7
 2113              	.LVL369:
 2114 005c 0021     		movs	r1, #0
 2115              	.LVL370:
 2116 005e FFF7FEFF 		bl	VL53L0X_GetVcselPulsePeriod
 2117              	.LVL371:
 2118 0062 0400     		movs	r4, r0
 2119              	.LVL372:
 736:Api\core\src/vl53l0x_api_core.c **** 						VL53L0X_VCSEL_PERIOD_PRE_RANGE,
 737:Api\core\src/vl53l0x_api_core.c **** 						&CurrentVCSELPulsePeriodPClk);
 738:Api\core\src/vl53l0x_api_core.c **** 				PreRangeTimeOutMClks =
 739:Api\core\src/vl53l0x_api_core.c **** 					VL53L0X_calc_timeout_mclks(Dev,
 2120              		.loc 1 739 0
 2121 0064 3A78     		ldrb	r2, [r7]
 2122 0066 3100     		movs	r1, r6
 2123 0068 2800     		movs	r0, r5
 2124              	.LVL373:
 2125 006a FFF7FEFF 		bl	VL53L0X_calc_timeout_mclks
ARM GAS  C:\Users\Rajesh\AppData\Local\Temp\ccMJoliC.s 			page 52


 2126              	.LVL374:
 740:Api\core\src/vl53l0x_api_core.c **** 					TimeOutMicroSecs,
 741:Api\core\src/vl53l0x_api_core.c **** 					(uint8_t)CurrentVCSELPulsePeriodPClk);
 742:Api\core\src/vl53l0x_api_core.c **** 				PreRangeEncodedTimeOut = VL53L0X_encode_timeout(
 2127              		.loc 1 742 0
 2128 006e 0004     		lsls	r0, r0, #16
 2129              	.LVL375:
 2130 0070 000C     		lsrs	r0, r0, #16
 2131 0072 FFF7FEFF 		bl	VL53L0X_encode_timeout
 2132              	.LVL376:
 2133 0076 03AB     		add	r3, sp, #12
 2134 0078 1880     		strh	r0, [r3]
 743:Api\core\src/vl53l0x_api_core.c **** 					PreRangeTimeOutMClks);
 744:Api\core\src/vl53l0x_api_core.c **** 
 745:Api\core\src/vl53l0x_api_core.c **** 				VL53L0X_SETDEVICESPECIFICPARAMETER(Dev,
 2135              		.loc 1 745 0
 2136 007a D823     		movs	r3, #216
 2137 007c E852     		strh	r0, [r5, r3]
 746:Api\core\src/vl53l0x_api_core.c **** 					LastEncodedTimeout,
 747:Api\core\src/vl53l0x_api_core.c **** 					PreRangeEncodedTimeOut);
 748:Api\core\src/vl53l0x_api_core.c **** 			}
 749:Api\core\src/vl53l0x_api_core.c **** 
 750:Api\core\src/vl53l0x_api_core.c **** 			if (Status == VL53L0X_ERROR_NONE) {
 2138              		.loc 1 750 0
 2139 007e 002C     		cmp	r4, #0
 2140 0080 05D1     		bne	.L83
 751:Api\core\src/vl53l0x_api_core.c **** 				Status = VL53L0X_WrWord(Dev,
 2141              		.loc 1 751 0
 2142 0082 0200     		movs	r2, r0
 2143 0084 5121     		movs	r1, #81
 2144 0086 2800     		movs	r0, r5
 2145 0088 FFF7FEFF 		bl	VL53L0X_WrWord
 2146              	.LVL377:
 2147 008c 0400     		movs	r4, r0
 2148              	.LVL378:
 2149              	.L83:
 752:Api\core\src/vl53l0x_api_core.c **** 				VL53L0X_REG_PRE_RANGE_CONFIG_TIMEOUT_MACROP_HI,
 753:Api\core\src/vl53l0x_api_core.c **** 				PreRangeEncodedTimeOut);
 754:Api\core\src/vl53l0x_api_core.c **** 			}
 755:Api\core\src/vl53l0x_api_core.c **** 
 756:Api\core\src/vl53l0x_api_core.c **** 			if (Status == VL53L0X_ERROR_NONE) {
 2150              		.loc 1 756 0
 2151 008e 002C     		cmp	r4, #0
 2152 0090 47D1     		bne	.L81
 757:Api\core\src/vl53l0x_api_core.c **** 				VL53L0X_SETDEVICESPECIFICPARAMETER(
 2153              		.loc 1 757 0
 2154 0092 E423     		movs	r3, #228
 2155 0094 EE50     		str	r6, [r5, r3]
 2156 0096 44E0     		b	.L81
 2157              	.LVL379:
 2158              	.L82:
 758:Api\core\src/vl53l0x_api_core.c **** 					Dev,
 759:Api\core\src/vl53l0x_api_core.c **** 					PreRangeTimeoutMicroSecs,
 760:Api\core\src/vl53l0x_api_core.c **** 					TimeOutMicroSecs);
 761:Api\core\src/vl53l0x_api_core.c **** 			}
 762:Api\core\src/vl53l0x_api_core.c **** 		} else if (SequenceStepId == VL53L0X_SEQUENCESTEP_FINAL_RANGE) {
 2159              		.loc 1 762 0
ARM GAS  C:\Users\Rajesh\AppData\Local\Temp\ccMJoliC.s 			page 53


 2160 0098 0429     		cmp	r1, #4
 2161 009a 40D1     		bne	.L88
 763:Api\core\src/vl53l0x_api_core.c **** 
 764:Api\core\src/vl53l0x_api_core.c **** 			/* For the final range timeout, the pre-range timeout
 765:Api\core\src/vl53l0x_api_core.c **** 			 * must be added. To do this both final and pre-range
 766:Api\core\src/vl53l0x_api_core.c **** 			 * timeouts must be expressed in macro periods MClks
 767:Api\core\src/vl53l0x_api_core.c **** 			 * because they have different vcsel periods.
 768:Api\core\src/vl53l0x_api_core.c **** 			 */
 769:Api\core\src/vl53l0x_api_core.c **** 
 770:Api\core\src/vl53l0x_api_core.c **** 			VL53L0X_GetSequenceStepEnables(Dev,
 2162              		.loc 1 770 0
 2163 009c 01AC     		add	r4, sp, #4
 2164 009e 2100     		movs	r1, r4
 2165              	.LVL380:
 2166 00a0 FFF7FEFF 		bl	VL53L0X_GetSequenceStepEnables
 2167              	.LVL381:
 771:Api\core\src/vl53l0x_api_core.c **** 					&SchedulerSequenceSteps);
 772:Api\core\src/vl53l0x_api_core.c **** 			PreRangeTimeOutMClks = 0;
 773:Api\core\src/vl53l0x_api_core.c **** 			if (SchedulerSequenceSteps.PreRangeOn) {
 2168              		.loc 1 773 0
 2169 00a4 E378     		ldrb	r3, [r4, #3]
 2170 00a6 002B     		cmp	r3, #0
 2171 00a8 13D0     		beq	.L89
 774:Api\core\src/vl53l0x_api_core.c **** 
 775:Api\core\src/vl53l0x_api_core.c **** 				/* Retrieve PRE-RANGE VCSEL Period */
 776:Api\core\src/vl53l0x_api_core.c **** 				Status = VL53L0X_GetVcselPulsePeriod(Dev,
 2172              		.loc 1 776 0
 2173 00aa 0F22     		movs	r2, #15
 2174 00ac 6A44     		add	r2, r2, sp
 2175 00ae 0021     		movs	r1, #0
 2176 00b0 2800     		movs	r0, r5
 2177 00b2 FFF7FEFF 		bl	VL53L0X_GetVcselPulsePeriod
 2178              	.LVL382:
 2179 00b6 041E     		subs	r4, r0, #0
 2180              	.LVL383:
 777:Api\core\src/vl53l0x_api_core.c **** 					VL53L0X_VCSEL_PERIOD_PRE_RANGE,
 778:Api\core\src/vl53l0x_api_core.c **** 					&CurrentVCSELPulsePeriodPClk);
 779:Api\core\src/vl53l0x_api_core.c **** 
 780:Api\core\src/vl53l0x_api_core.c **** 				/* Retrieve PRE-RANGE Timeout in Macro periods
 781:Api\core\src/vl53l0x_api_core.c **** 				 * (MCLKS) */
 782:Api\core\src/vl53l0x_api_core.c **** 				if (Status == VL53L0X_ERROR_NONE) {
 2181              		.loc 1 782 0
 2182 00b8 0ED1     		bne	.L90
 783:Api\core\src/vl53l0x_api_core.c **** 					Status = VL53L0X_RdWord(Dev, 0x51,
 2183              		.loc 1 783 0
 2184 00ba 03AF     		add	r7, sp, #12
 2185 00bc 3A00     		movs	r2, r7
 2186 00be 5121     		movs	r1, #81
 2187 00c0 2800     		movs	r0, r5
 2188              	.LVL384:
 2189 00c2 FFF7FEFF 		bl	VL53L0X_RdWord
 2190              	.LVL385:
 2191 00c6 0400     		movs	r4, r0
 2192              	.LVL386:
 784:Api\core\src/vl53l0x_api_core.c **** 						&PreRangeEncodedTimeOut);
 785:Api\core\src/vl53l0x_api_core.c **** 					PreRangeTimeOutMClks =
 786:Api\core\src/vl53l0x_api_core.c **** 						VL53L0X_decode_timeout(
ARM GAS  C:\Users\Rajesh\AppData\Local\Temp\ccMJoliC.s 			page 54


 2193              		.loc 1 786 0
 2194 00c8 3888     		ldrh	r0, [r7]
 2195              	.LVL387:
 2196 00ca FFF7FEFF 		bl	VL53L0X_decode_timeout
 2197              	.LVL388:
 785:Api\core\src/vl53l0x_api_core.c **** 						VL53L0X_decode_timeout(
 2198              		.loc 1 785 0
 2199 00ce 87B2     		uxth	r7, r0
 2200              	.LVL389:
 2201 00d0 03E0     		b	.L84
 2202              	.LVL390:
 2203              	.L89:
 772:Api\core\src/vl53l0x_api_core.c **** 			if (SchedulerSequenceSteps.PreRangeOn) {
 2204              		.loc 1 772 0
 2205 00d2 0027     		movs	r7, #0
 691:Api\core\src/vl53l0x_api_core.c **** 	uint8_t CurrentVCSELPulsePeriodPClk;
 2206              		.loc 1 691 0
 2207 00d4 0024     		movs	r4, #0
 2208 00d6 00E0     		b	.L84
 2209              	.LVL391:
 2210              	.L90:
 772:Api\core\src/vl53l0x_api_core.c **** 			if (SchedulerSequenceSteps.PreRangeOn) {
 2211              		.loc 1 772 0
 2212 00d8 0027     		movs	r7, #0
 2213              	.LVL392:
 2214              	.L84:
 787:Api\core\src/vl53l0x_api_core.c **** 							PreRangeEncodedTimeOut);
 788:Api\core\src/vl53l0x_api_core.c **** 				}
 789:Api\core\src/vl53l0x_api_core.c **** 			}
 790:Api\core\src/vl53l0x_api_core.c **** 
 791:Api\core\src/vl53l0x_api_core.c **** 			/* Calculate FINAL RANGE Timeout in Macro Periods
 792:Api\core\src/vl53l0x_api_core.c **** 			 * (MCLKS) and add PRE-RANGE value
 793:Api\core\src/vl53l0x_api_core.c **** 			 */
 794:Api\core\src/vl53l0x_api_core.c **** 			if (Status == VL53L0X_ERROR_NONE) {
 2215              		.loc 1 794 0
 2216 00da 002C     		cmp	r4, #0
 2217 00dc 06D1     		bne	.L85
 795:Api\core\src/vl53l0x_api_core.c **** 
 796:Api\core\src/vl53l0x_api_core.c **** 				Status = VL53L0X_GetVcselPulsePeriod(Dev,
 2218              		.loc 1 796 0
 2219 00de 0F22     		movs	r2, #15
 2220 00e0 6A44     		add	r2, r2, sp
 2221 00e2 0121     		movs	r1, #1
 2222 00e4 2800     		movs	r0, r5
 2223 00e6 FFF7FEFF 		bl	VL53L0X_GetVcselPulsePeriod
 2224              	.LVL393:
 2225 00ea 0400     		movs	r4, r0
 2226              	.LVL394:
 2227              	.L85:
 797:Api\core\src/vl53l0x_api_core.c **** 						VL53L0X_VCSEL_PERIOD_FINAL_RANGE,
 798:Api\core\src/vl53l0x_api_core.c **** 						&CurrentVCSELPulsePeriodPClk);
 799:Api\core\src/vl53l0x_api_core.c **** 			}
 800:Api\core\src/vl53l0x_api_core.c **** 			if (Status == VL53L0X_ERROR_NONE) {
 2228              		.loc 1 800 0
 2229 00ec 002C     		cmp	r4, #0
 2230 00ee 18D1     		bne	.L81
 801:Api\core\src/vl53l0x_api_core.c **** 
ARM GAS  C:\Users\Rajesh\AppData\Local\Temp\ccMJoliC.s 			page 55


 802:Api\core\src/vl53l0x_api_core.c **** 				FinalRangeTimeOutMClks =
 803:Api\core\src/vl53l0x_api_core.c **** 					VL53L0X_calc_timeout_mclks(Dev,
 2231              		.loc 1 803 0
 2232 00f0 0F23     		movs	r3, #15
 2233 00f2 6B44     		add	r3, r3, sp
 2234 00f4 1A78     		ldrb	r2, [r3]
 802:Api\core\src/vl53l0x_api_core.c **** 					VL53L0X_calc_timeout_mclks(Dev,
 2235              		.loc 1 802 0
 2236 00f6 3100     		movs	r1, r6
 2237 00f8 2800     		movs	r0, r5
 2238 00fa FFF7FEFF 		bl	VL53L0X_calc_timeout_mclks
 2239              	.LVL395:
 804:Api\core\src/vl53l0x_api_core.c **** 					TimeOutMicroSecs,
 805:Api\core\src/vl53l0x_api_core.c **** 					(uint8_t) CurrentVCSELPulsePeriodPClk);
 806:Api\core\src/vl53l0x_api_core.c **** 
 807:Api\core\src/vl53l0x_api_core.c **** 				FinalRangeTimeOutMClks += PreRangeTimeOutMClks;
 2240              		.loc 1 807 0
 2241 00fe 3818     		adds	r0, r7, r0
 2242              	.LVL396:
 808:Api\core\src/vl53l0x_api_core.c **** 
 809:Api\core\src/vl53l0x_api_core.c **** 				FinalRangeEncodedTimeOut =
 2243              		.loc 1 809 0
 2244 0100 FFF7FEFF 		bl	VL53L0X_encode_timeout
 2245              	.LVL397:
 810:Api\core\src/vl53l0x_api_core.c **** 				VL53L0X_encode_timeout(FinalRangeTimeOutMClks);
 811:Api\core\src/vl53l0x_api_core.c **** 
 812:Api\core\src/vl53l0x_api_core.c **** 				if (Status == VL53L0X_ERROR_NONE) {
 2246              		.loc 1 812 0
 2247 0104 002C     		cmp	r4, #0
 2248 0106 05D1     		bne	.L86
 813:Api\core\src/vl53l0x_api_core.c **** 					Status = VL53L0X_WrWord(Dev, 0x71,
 2249              		.loc 1 813 0
 2250 0108 0200     		movs	r2, r0
 2251 010a 7121     		movs	r1, #113
 2252 010c 2800     		movs	r0, r5
 2253              	.LVL398:
 2254 010e FFF7FEFF 		bl	VL53L0X_WrWord
 2255              	.LVL399:
 2256 0112 0400     		movs	r4, r0
 2257              	.LVL400:
 2258              	.L86:
 814:Api\core\src/vl53l0x_api_core.c **** 					FinalRangeEncodedTimeOut);
 815:Api\core\src/vl53l0x_api_core.c **** 				}
 816:Api\core\src/vl53l0x_api_core.c **** 
 817:Api\core\src/vl53l0x_api_core.c **** 				if (Status == VL53L0X_ERROR_NONE) {
 2259              		.loc 1 817 0
 2260 0114 002C     		cmp	r4, #0
 2261 0116 04D1     		bne	.L81
 818:Api\core\src/vl53l0x_api_core.c **** 					VL53L0X_SETDEVICESPECIFICPARAMETER(
 2262              		.loc 1 818 0
 2263 0118 DC23     		movs	r3, #220
 2264 011a EE50     		str	r6, [r5, r3]
 2265 011c 01E0     		b	.L81
 2266              	.LVL401:
 2267              	.L88:
 819:Api\core\src/vl53l0x_api_core.c **** 						Dev,
 820:Api\core\src/vl53l0x_api_core.c **** 						FinalRangeTimeoutMicroSecs,
ARM GAS  C:\Users\Rajesh\AppData\Local\Temp\ccMJoliC.s 			page 56


 821:Api\core\src/vl53l0x_api_core.c **** 						TimeOutMicroSecs);
 822:Api\core\src/vl53l0x_api_core.c **** 				}
 823:Api\core\src/vl53l0x_api_core.c **** 			}
 824:Api\core\src/vl53l0x_api_core.c **** 		} else
 825:Api\core\src/vl53l0x_api_core.c **** 			Status = VL53L0X_ERROR_INVALID_PARAMS;
 2268              		.loc 1 825 0
 2269 011e 0424     		movs	r4, #4
 2270 0120 6442     		rsbs	r4, r4, #0
 2271              	.LVL402:
 2272              	.L81:
 826:Api\core\src/vl53l0x_api_core.c **** 
 827:Api\core\src/vl53l0x_api_core.c **** 	}
 828:Api\core\src/vl53l0x_api_core.c **** 	return Status;
 829:Api\core\src/vl53l0x_api_core.c **** }
 2273              		.loc 1 829 0
 2274 0122 2000     		movs	r0, r4
 2275 0124 05B0     		add	sp, sp, #20
 2276              		@ sp needed
 2277              	.LVL403:
 2278              	.LVL404:
 2279              	.LVL405:
 2280 0126 F0BD     		pop	{r4, r5, r6, r7, pc}
 2281              		.cfi_endproc
 2282              	.LFE15:
 2283              		.size	set_sequence_step_timeout, .-set_sequence_step_timeout
 2284              		.section	.text.VL53L0X_set_vcsel_pulse_period,"ax",%progbits
 2285              		.align	2
 2286              		.global	VL53L0X_set_vcsel_pulse_period
 2287              		.code	16
 2288              		.thumb_func
 2289              		.type	VL53L0X_set_vcsel_pulse_period, %function
 2290              	VL53L0X_set_vcsel_pulse_period:
 2291              	.LFB16:
 830:Api\core\src/vl53l0x_api_core.c **** 
 831:Api\core\src/vl53l0x_api_core.c **** VL53L0X_Error VL53L0X_set_vcsel_pulse_period(VL53L0X_DEV Dev,
 832:Api\core\src/vl53l0x_api_core.c **** 	VL53L0X_VcselPeriod VcselPeriodType, uint8_t VCSELPulsePeriodPCLK)
 833:Api\core\src/vl53l0x_api_core.c **** {
 2292              		.loc 1 833 0
 2293              		.cfi_startproc
 2294              		@ args = 0, pretend = 0, frame = 16
 2295              		@ frame_needed = 0, uses_anonymous_args = 0
 2296              	.LVL406:
 2297 0000 F0B5     		push	{r4, r5, r6, r7, lr}
 2298              		.cfi_def_cfa_offset 20
 2299              		.cfi_offset 4, -20
 2300              		.cfi_offset 5, -16
 2301              		.cfi_offset 6, -12
 2302              		.cfi_offset 7, -8
 2303              		.cfi_offset 14, -4
 2304 0002 85B0     		sub	sp, sp, #20
 2305              		.cfi_def_cfa_offset 40
 2306 0004 0400     		movs	r4, r0
 2307 0006 0F00     		movs	r7, r1
 2308 0008 1600     		movs	r6, r2
 2309              	.LVL407:
 834:Api\core\src/vl53l0x_api_core.c **** 	VL53L0X_Error Status = VL53L0X_ERROR_NONE;
 835:Api\core\src/vl53l0x_api_core.c **** 	uint8_t vcsel_period_reg;
ARM GAS  C:\Users\Rajesh\AppData\Local\Temp\ccMJoliC.s 			page 57


 836:Api\core\src/vl53l0x_api_core.c **** 	uint8_t MinPreVcselPeriodPCLK = 12;
 837:Api\core\src/vl53l0x_api_core.c **** 	uint8_t MaxPreVcselPeriodPCLK = 18;
 838:Api\core\src/vl53l0x_api_core.c **** 	uint8_t MinFinalVcselPeriodPCLK = 8;
 839:Api\core\src/vl53l0x_api_core.c **** 	uint8_t MaxFinalVcselPeriodPCLK = 14;
 840:Api\core\src/vl53l0x_api_core.c **** 	uint32_t MeasurementTimingBudgetMicroSeconds;
 841:Api\core\src/vl53l0x_api_core.c **** 	uint32_t FinalRangeTimeoutMicroSeconds;
 842:Api\core\src/vl53l0x_api_core.c **** 	uint32_t PreRangeTimeoutMicroSeconds;
 843:Api\core\src/vl53l0x_api_core.c **** 	uint32_t MsrcTimeoutMicroSeconds;
 844:Api\core\src/vl53l0x_api_core.c **** 	uint8_t PhaseCalInt = 0;
 2310              		.loc 1 844 0
 2311 000a 0022     		movs	r2, #0
 2312              	.LVL408:
 2313 000c 6B46     		mov	r3, sp
 2314 000e DA70     		strb	r2, [r3, #3]
 845:Api\core\src/vl53l0x_api_core.c **** 
 846:Api\core\src/vl53l0x_api_core.c **** 	/* Check if valid clock period requested */
 847:Api\core\src/vl53l0x_api_core.c **** 
 848:Api\core\src/vl53l0x_api_core.c **** 	if ((VCSELPulsePeriodPCLK % 2) != 0) {
 2315              		.loc 1 848 0
 2316 0010 F307     		lsls	r3, r6, #31
 2317 0012 0DD4     		bmi	.L113
 849:Api\core\src/vl53l0x_api_core.c **** 		/* Value must be an even number */
 850:Api\core\src/vl53l0x_api_core.c **** 		Status = VL53L0X_ERROR_INVALID_PARAMS;
 851:Api\core\src/vl53l0x_api_core.c **** 	} else if (VcselPeriodType == VL53L0X_VCSEL_PERIOD_PRE_RANGE &&
 2318              		.loc 1 851 0
 2319 0014 0029     		cmp	r1, #0
 2320 0016 03D1     		bne	.L93
 2321              		.loc 1 851 0 is_stmt 0 discriminator 1
 2322 0018 0B2E     		cmp	r6, #11
 2323 001a 0CD9     		bls	.L114
 852:Api\core\src/vl53l0x_api_core.c **** 		(VCSELPulsePeriodPCLK < MinPreVcselPeriodPCLK ||
 2324              		.loc 1 852 0 is_stmt 1
 2325 001c 122E     		cmp	r6, #18
 2326 001e 0DD8     		bhi	.L115
 2327              	.L93:
 853:Api\core\src/vl53l0x_api_core.c **** 		VCSELPulsePeriodPCLK > MaxPreVcselPeriodPCLK)) {
 854:Api\core\src/vl53l0x_api_core.c **** 		Status = VL53L0X_ERROR_INVALID_PARAMS;
 855:Api\core\src/vl53l0x_api_core.c **** 	} else if (VcselPeriodType == VL53L0X_VCSEL_PERIOD_FINAL_RANGE &&
 2328              		.loc 1 855 0
 2329 0020 012F     		cmp	r7, #1
 2330 0022 0ED1     		bne	.L116
 2331              		.loc 1 855 0 is_stmt 0 discriminator 1
 2332 0024 072E     		cmp	r6, #7
 2333 0026 0ED9     		bls	.L117
 856:Api\core\src/vl53l0x_api_core.c **** 		(VCSELPulsePeriodPCLK < MinFinalVcselPeriodPCLK ||
 2334              		.loc 1 856 0 is_stmt 1
 2335 0028 0E2E     		cmp	r6, #14
 2336 002a 0FD8     		bhi	.L118
 834:Api\core\src/vl53l0x_api_core.c **** 	uint8_t vcsel_period_reg;
 2337              		.loc 1 834 0
 2338 002c 0020     		movs	r0, #0
 2339              	.LVL409:
 2340 002e 0FE0     		b	.L92
 2341              	.LVL410:
 2342              	.L113:
 850:Api\core\src/vl53l0x_api_core.c **** 	} else if (VcselPeriodType == VL53L0X_VCSEL_PERIOD_PRE_RANGE &&
 2343              		.loc 1 850 0
ARM GAS  C:\Users\Rajesh\AppData\Local\Temp\ccMJoliC.s 			page 58


 2344 0030 0420     		movs	r0, #4
 2345              	.LVL411:
 2346 0032 4042     		rsbs	r0, r0, #0
 2347 0034 0CE0     		b	.L92
 2348              	.LVL412:
 2349              	.L114:
 854:Api\core\src/vl53l0x_api_core.c **** 	} else if (VcselPeriodType == VL53L0X_VCSEL_PERIOD_FINAL_RANGE &&
 2350              		.loc 1 854 0
 2351 0036 0420     		movs	r0, #4
 2352              	.LVL413:
 2353 0038 4042     		rsbs	r0, r0, #0
 2354 003a 09E0     		b	.L92
 2355              	.LVL414:
 2356              	.L115:
 2357 003c 0420     		movs	r0, #4
 2358              	.LVL415:
 2359 003e 4042     		rsbs	r0, r0, #0
 2360 0040 06E0     		b	.L92
 2361              	.LVL416:
 2362              	.L116:
 834:Api\core\src/vl53l0x_api_core.c **** 	uint8_t vcsel_period_reg;
 2363              		.loc 1 834 0
 2364 0042 0020     		movs	r0, #0
 2365              	.LVL417:
 2366 0044 04E0     		b	.L92
 2367              	.LVL418:
 2368              	.L117:
 857:Api\core\src/vl53l0x_api_core.c **** 		 VCSELPulsePeriodPCLK > MaxFinalVcselPeriodPCLK)) {
 858:Api\core\src/vl53l0x_api_core.c **** 
 859:Api\core\src/vl53l0x_api_core.c **** 		Status = VL53L0X_ERROR_INVALID_PARAMS;
 2369              		.loc 1 859 0
 2370 0046 0420     		movs	r0, #4
 2371              	.LVL419:
 2372 0048 4042     		rsbs	r0, r0, #0
 2373 004a 01E0     		b	.L92
 2374              	.LVL420:
 2375              	.L118:
 2376 004c 0420     		movs	r0, #4
 2377              	.LVL421:
 2378 004e 4042     		rsbs	r0, r0, #0
 2379              	.L92:
 2380              	.LVL422:
 860:Api\core\src/vl53l0x_api_core.c **** 	}
 861:Api\core\src/vl53l0x_api_core.c **** 
 862:Api\core\src/vl53l0x_api_core.c **** 	/* Apply specific settings for the requested clock period */
 863:Api\core\src/vl53l0x_api_core.c **** 
 864:Api\core\src/vl53l0x_api_core.c **** 	if (Status != VL53L0X_ERROR_NONE)
 2381              		.loc 1 864 0
 2382 0050 0028     		cmp	r0, #0
 2383 0052 00D0     		beq	.LCB2479
 2384 0054 52E1     		b	.L94	@long jump
 2385              	.LCB2479:
 865:Api\core\src/vl53l0x_api_core.c **** 		return Status;
 866:Api\core\src/vl53l0x_api_core.c **** 
 867:Api\core\src/vl53l0x_api_core.c **** 
 868:Api\core\src/vl53l0x_api_core.c **** 	if (VcselPeriodType == VL53L0X_VCSEL_PERIOD_PRE_RANGE) {
 2386              		.loc 1 868 0
ARM GAS  C:\Users\Rajesh\AppData\Local\Temp\ccMJoliC.s 			page 59


 2387 0056 002F     		cmp	r7, #0
 2388 0058 34D1     		bne	.L95
 869:Api\core\src/vl53l0x_api_core.c **** 
 870:Api\core\src/vl53l0x_api_core.c **** 		/* Set phase check limits */
 871:Api\core\src/vl53l0x_api_core.c **** 		if (VCSELPulsePeriodPCLK == 12) {
 2389              		.loc 1 871 0
 2390 005a 0C2E     		cmp	r6, #12
 2391 005c 0AD1     		bne	.L96
 872:Api\core\src/vl53l0x_api_core.c **** 
 873:Api\core\src/vl53l0x_api_core.c **** 			Status = VL53L0X_WrByte(Dev,
 2392              		.loc 1 873 0
 2393 005e 1822     		movs	r2, #24
 2394 0060 5721     		movs	r1, #87
 2395              	.LVL423:
 2396 0062 2000     		movs	r0, r4
 2397              	.LVL424:
 2398 0064 FFF7FEFF 		bl	VL53L0X_WrByte
 2399              	.LVL425:
 874:Api\core\src/vl53l0x_api_core.c **** 				VL53L0X_REG_PRE_RANGE_CONFIG_VALID_PHASE_HIGH,
 875:Api\core\src/vl53l0x_api_core.c **** 				0x18);
 876:Api\core\src/vl53l0x_api_core.c **** 			Status = VL53L0X_WrByte(Dev,
 2400              		.loc 1 876 0
 2401 0068 0822     		movs	r2, #8
 2402 006a 5621     		movs	r1, #86
 2403 006c 2000     		movs	r0, r4
 2404 006e FFF7FEFF 		bl	VL53L0X_WrByte
 2405              	.LVL426:
 2406 0072 EDE0     		b	.L97
 2407              	.LVL427:
 2408              	.L96:
 877:Api\core\src/vl53l0x_api_core.c **** 				VL53L0X_REG_PRE_RANGE_CONFIG_VALID_PHASE_LOW,
 878:Api\core\src/vl53l0x_api_core.c **** 				0x08);
 879:Api\core\src/vl53l0x_api_core.c **** 		} else if (VCSELPulsePeriodPCLK == 14) {
 2409              		.loc 1 879 0
 2410 0074 0E2E     		cmp	r6, #14
 2411 0076 0AD1     		bne	.L98
 880:Api\core\src/vl53l0x_api_core.c **** 
 881:Api\core\src/vl53l0x_api_core.c **** 			Status = VL53L0X_WrByte(Dev,
 2412              		.loc 1 881 0
 2413 0078 3022     		movs	r2, #48
 2414 007a 5721     		movs	r1, #87
 2415              	.LVL428:
 2416 007c 2000     		movs	r0, r4
 2417              	.LVL429:
 2418 007e FFF7FEFF 		bl	VL53L0X_WrByte
 2419              	.LVL430:
 882:Api\core\src/vl53l0x_api_core.c **** 				VL53L0X_REG_PRE_RANGE_CONFIG_VALID_PHASE_HIGH,
 883:Api\core\src/vl53l0x_api_core.c **** 				0x30);
 884:Api\core\src/vl53l0x_api_core.c **** 			Status = VL53L0X_WrByte(Dev,
 2420              		.loc 1 884 0
 2421 0082 0822     		movs	r2, #8
 2422 0084 5621     		movs	r1, #86
 2423 0086 2000     		movs	r0, r4
 2424 0088 FFF7FEFF 		bl	VL53L0X_WrByte
 2425              	.LVL431:
 2426 008c E0E0     		b	.L97
 2427              	.LVL432:
ARM GAS  C:\Users\Rajesh\AppData\Local\Temp\ccMJoliC.s 			page 60


 2428              	.L98:
 885:Api\core\src/vl53l0x_api_core.c **** 				VL53L0X_REG_PRE_RANGE_CONFIG_VALID_PHASE_LOW,
 886:Api\core\src/vl53l0x_api_core.c **** 				0x08);
 887:Api\core\src/vl53l0x_api_core.c **** 		} else if (VCSELPulsePeriodPCLK == 16) {
 2429              		.loc 1 887 0
 2430 008e 102E     		cmp	r6, #16
 2431 0090 0AD1     		bne	.L99
 888:Api\core\src/vl53l0x_api_core.c **** 
 889:Api\core\src/vl53l0x_api_core.c **** 			Status = VL53L0X_WrByte(Dev,
 2432              		.loc 1 889 0
 2433 0092 4022     		movs	r2, #64
 2434 0094 5721     		movs	r1, #87
 2435              	.LVL433:
 2436 0096 2000     		movs	r0, r4
 2437              	.LVL434:
 2438 0098 FFF7FEFF 		bl	VL53L0X_WrByte
 2439              	.LVL435:
 890:Api\core\src/vl53l0x_api_core.c **** 				VL53L0X_REG_PRE_RANGE_CONFIG_VALID_PHASE_HIGH,
 891:Api\core\src/vl53l0x_api_core.c **** 				0x40);
 892:Api\core\src/vl53l0x_api_core.c **** 			Status = VL53L0X_WrByte(Dev,
 2440              		.loc 1 892 0
 2441 009c 0822     		movs	r2, #8
 2442 009e 5621     		movs	r1, #86
 2443 00a0 2000     		movs	r0, r4
 2444 00a2 FFF7FEFF 		bl	VL53L0X_WrByte
 2445              	.LVL436:
 2446 00a6 D3E0     		b	.L97
 2447              	.LVL437:
 2448              	.L99:
 893:Api\core\src/vl53l0x_api_core.c **** 				VL53L0X_REG_PRE_RANGE_CONFIG_VALID_PHASE_LOW,
 894:Api\core\src/vl53l0x_api_core.c **** 				0x08);
 895:Api\core\src/vl53l0x_api_core.c **** 		} else if (VCSELPulsePeriodPCLK == 18) {
 2449              		.loc 1 895 0
 2450 00a8 122E     		cmp	r6, #18
 2451 00aa 00D0     		beq	.LCB2552
 2452 00ac D0E0     		b	.L97	@long jump
 2453              	.LCB2552:
 896:Api\core\src/vl53l0x_api_core.c **** 
 897:Api\core\src/vl53l0x_api_core.c **** 			Status = VL53L0X_WrByte(Dev,
 2454              		.loc 1 897 0
 2455 00ae 5022     		movs	r2, #80
 2456 00b0 5721     		movs	r1, #87
 2457              	.LVL438:
 2458 00b2 2000     		movs	r0, r4
 2459              	.LVL439:
 2460 00b4 FFF7FEFF 		bl	VL53L0X_WrByte
 2461              	.LVL440:
 898:Api\core\src/vl53l0x_api_core.c **** 				VL53L0X_REG_PRE_RANGE_CONFIG_VALID_PHASE_HIGH,
 899:Api\core\src/vl53l0x_api_core.c **** 				0x50);
 900:Api\core\src/vl53l0x_api_core.c **** 			Status = VL53L0X_WrByte(Dev,
 2462              		.loc 1 900 0
 2463 00b8 0822     		movs	r2, #8
 2464 00ba 5621     		movs	r1, #86
 2465 00bc 2000     		movs	r0, r4
 2466 00be FFF7FEFF 		bl	VL53L0X_WrByte
 2467              	.LVL441:
 2468 00c2 C5E0     		b	.L97
ARM GAS  C:\Users\Rajesh\AppData\Local\Temp\ccMJoliC.s 			page 61


 2469              	.LVL442:
 2470              	.L95:
 901:Api\core\src/vl53l0x_api_core.c **** 				VL53L0X_REG_PRE_RANGE_CONFIG_VALID_PHASE_LOW,
 902:Api\core\src/vl53l0x_api_core.c **** 				0x08);
 903:Api\core\src/vl53l0x_api_core.c **** 		}
 904:Api\core\src/vl53l0x_api_core.c **** 	} else if (VcselPeriodType == VL53L0X_VCSEL_PERIOD_FINAL_RANGE) {
 2471              		.loc 1 904 0
 2472 00c4 012F     		cmp	r7, #1
 2473 00c6 00D0     		beq	.LCB2575
 2474 00c8 C2E0     		b	.L97	@long jump
 2475              	.LCB2575:
 905:Api\core\src/vl53l0x_api_core.c **** 
 906:Api\core\src/vl53l0x_api_core.c **** 		if (VCSELPulsePeriodPCLK == 8) {
 2476              		.loc 1 906 0
 2477 00ca 082E     		cmp	r6, #8
 2478 00cc 2ED1     		bne	.L100
 907:Api\core\src/vl53l0x_api_core.c **** 
 908:Api\core\src/vl53l0x_api_core.c **** 			Status = VL53L0X_WrByte(Dev,
 2479              		.loc 1 908 0
 2480 00ce 1022     		movs	r2, #16
 2481 00d0 4821     		movs	r1, #72
 2482              	.LVL443:
 2483 00d2 2000     		movs	r0, r4
 2484              	.LVL444:
 2485 00d4 FFF7FEFF 		bl	VL53L0X_WrByte
 2486              	.LVL445:
 909:Api\core\src/vl53l0x_api_core.c **** 				VL53L0X_REG_FINAL_RANGE_CONFIG_VALID_PHASE_HIGH,
 910:Api\core\src/vl53l0x_api_core.c **** 				0x10);
 911:Api\core\src/vl53l0x_api_core.c **** 			Status = VL53L0X_WrByte(Dev,
 2487              		.loc 1 911 0
 2488 00d8 0822     		movs	r2, #8
 2489 00da 4721     		movs	r1, #71
 2490 00dc 2000     		movs	r0, r4
 2491 00de FFF7FEFF 		bl	VL53L0X_WrByte
 2492              	.LVL446:
 2493 00e2 0500     		movs	r5, r0
 2494              	.LVL447:
 912:Api\core\src/vl53l0x_api_core.c **** 				VL53L0X_REG_FINAL_RANGE_CONFIG_VALID_PHASE_LOW,
 913:Api\core\src/vl53l0x_api_core.c **** 				0x08);
 914:Api\core\src/vl53l0x_api_core.c **** 
 915:Api\core\src/vl53l0x_api_core.c **** 			Status |= VL53L0X_WrByte(Dev,
 2495              		.loc 1 915 0
 2496 00e4 0222     		movs	r2, #2
 2497 00e6 3221     		movs	r1, #50
 2498 00e8 2000     		movs	r0, r4
 2499 00ea FFF7FEFF 		bl	VL53L0X_WrByte
 2500              	.LVL448:
 2501 00ee 2843     		orrs	r0, r5
 2502 00f0 45B2     		sxtb	r5, r0
 2503              	.LVL449:
 916:Api\core\src/vl53l0x_api_core.c **** 				VL53L0X_REG_GLOBAL_CONFIG_VCSEL_WIDTH, 0x02);
 917:Api\core\src/vl53l0x_api_core.c **** 			Status |= VL53L0X_WrByte(Dev,
 2504              		.loc 1 917 0
 2505 00f2 0C22     		movs	r2, #12
 2506 00f4 3021     		movs	r1, #48
 2507 00f6 2000     		movs	r0, r4
 2508 00f8 FFF7FEFF 		bl	VL53L0X_WrByte
ARM GAS  C:\Users\Rajesh\AppData\Local\Temp\ccMJoliC.s 			page 62


 2509              	.LVL450:
 2510 00fc 2843     		orrs	r0, r5
 2511 00fe 45B2     		sxtb	r5, r0
 2512              	.LVL451:
 918:Api\core\src/vl53l0x_api_core.c **** 				VL53L0X_REG_ALGO_PHASECAL_CONFIG_TIMEOUT, 0x0C);
 919:Api\core\src/vl53l0x_api_core.c **** 
 920:Api\core\src/vl53l0x_api_core.c **** 			Status |= VL53L0X_WrByte(Dev, 0xff, 0x01);
 2513              		.loc 1 920 0
 2514 0100 0122     		movs	r2, #1
 2515 0102 FF21     		movs	r1, #255
 2516 0104 2000     		movs	r0, r4
 2517 0106 FFF7FEFF 		bl	VL53L0X_WrByte
 2518              	.LVL452:
 2519 010a 2843     		orrs	r0, r5
 2520 010c 45B2     		sxtb	r5, r0
 2521              	.LVL453:
 921:Api\core\src/vl53l0x_api_core.c **** 			Status |= VL53L0X_WrByte(Dev,
 2522              		.loc 1 921 0
 2523 010e 3022     		movs	r2, #48
 2524 0110 3021     		movs	r1, #48
 2525 0112 2000     		movs	r0, r4
 2526 0114 FFF7FEFF 		bl	VL53L0X_WrByte
 2527              	.LVL454:
 2528 0118 2843     		orrs	r0, r5
 2529 011a 45B2     		sxtb	r5, r0
 2530              	.LVL455:
 922:Api\core\src/vl53l0x_api_core.c **** 				VL53L0X_REG_ALGO_PHASECAL_LIM,
 923:Api\core\src/vl53l0x_api_core.c **** 				0x30);
 924:Api\core\src/vl53l0x_api_core.c **** 			Status |= VL53L0X_WrByte(Dev, 0xff, 0x00);
 2531              		.loc 1 924 0
 2532 011c 0022     		movs	r2, #0
 2533 011e FF21     		movs	r1, #255
 2534 0120 2000     		movs	r0, r4
 2535 0122 FFF7FEFF 		bl	VL53L0X_WrByte
 2536              	.LVL456:
 2537 0126 2843     		orrs	r0, r5
 2538 0128 40B2     		sxtb	r0, r0
 2539              	.LVL457:
 2540 012a 91E0     		b	.L97
 2541              	.LVL458:
 2542              	.L100:
 925:Api\core\src/vl53l0x_api_core.c **** 		} else if (VCSELPulsePeriodPCLK == 10) {
 2543              		.loc 1 925 0
 2544 012c 0A2E     		cmp	r6, #10
 2545 012e 2ED1     		bne	.L101
 926:Api\core\src/vl53l0x_api_core.c **** 
 927:Api\core\src/vl53l0x_api_core.c **** 			Status = VL53L0X_WrByte(Dev,
 2546              		.loc 1 927 0
 2547 0130 2822     		movs	r2, #40
 2548 0132 4821     		movs	r1, #72
 2549              	.LVL459:
 2550 0134 2000     		movs	r0, r4
 2551              	.LVL460:
 2552 0136 FFF7FEFF 		bl	VL53L0X_WrByte
 2553              	.LVL461:
 928:Api\core\src/vl53l0x_api_core.c **** 				VL53L0X_REG_FINAL_RANGE_CONFIG_VALID_PHASE_HIGH,
 929:Api\core\src/vl53l0x_api_core.c **** 				0x28);
ARM GAS  C:\Users\Rajesh\AppData\Local\Temp\ccMJoliC.s 			page 63


 930:Api\core\src/vl53l0x_api_core.c **** 			Status = VL53L0X_WrByte(Dev,
 2554              		.loc 1 930 0
 2555 013a 0822     		movs	r2, #8
 2556 013c 4721     		movs	r1, #71
 2557 013e 2000     		movs	r0, r4
 2558 0140 FFF7FEFF 		bl	VL53L0X_WrByte
 2559              	.LVL462:
 2560 0144 0500     		movs	r5, r0
 2561              	.LVL463:
 931:Api\core\src/vl53l0x_api_core.c **** 				VL53L0X_REG_FINAL_RANGE_CONFIG_VALID_PHASE_LOW,
 932:Api\core\src/vl53l0x_api_core.c **** 				0x08);
 933:Api\core\src/vl53l0x_api_core.c **** 
 934:Api\core\src/vl53l0x_api_core.c **** 			Status |= VL53L0X_WrByte(Dev,
 2562              		.loc 1 934 0
 2563 0146 0322     		movs	r2, #3
 2564 0148 3221     		movs	r1, #50
 2565 014a 2000     		movs	r0, r4
 2566 014c FFF7FEFF 		bl	VL53L0X_WrByte
 2567              	.LVL464:
 2568 0150 2843     		orrs	r0, r5
 2569 0152 45B2     		sxtb	r5, r0
 2570              	.LVL465:
 935:Api\core\src/vl53l0x_api_core.c **** 				VL53L0X_REG_GLOBAL_CONFIG_VCSEL_WIDTH, 0x03);
 936:Api\core\src/vl53l0x_api_core.c **** 			Status |= VL53L0X_WrByte(Dev,
 2571              		.loc 1 936 0
 2572 0154 0922     		movs	r2, #9
 2573 0156 3021     		movs	r1, #48
 2574 0158 2000     		movs	r0, r4
 2575 015a FFF7FEFF 		bl	VL53L0X_WrByte
 2576              	.LVL466:
 2577 015e 2843     		orrs	r0, r5
 2578 0160 45B2     		sxtb	r5, r0
 2579              	.LVL467:
 937:Api\core\src/vl53l0x_api_core.c **** 				VL53L0X_REG_ALGO_PHASECAL_CONFIG_TIMEOUT, 0x09);
 938:Api\core\src/vl53l0x_api_core.c **** 
 939:Api\core\src/vl53l0x_api_core.c **** 			Status |= VL53L0X_WrByte(Dev, 0xff, 0x01);
 2580              		.loc 1 939 0
 2581 0162 0122     		movs	r2, #1
 2582 0164 FF21     		movs	r1, #255
 2583 0166 2000     		movs	r0, r4
 2584 0168 FFF7FEFF 		bl	VL53L0X_WrByte
 2585              	.LVL468:
 2586 016c 2843     		orrs	r0, r5
 2587 016e 45B2     		sxtb	r5, r0
 2588              	.LVL469:
 940:Api\core\src/vl53l0x_api_core.c **** 			Status |= VL53L0X_WrByte(Dev,
 2589              		.loc 1 940 0
 2590 0170 2022     		movs	r2, #32
 2591 0172 3021     		movs	r1, #48
 2592 0174 2000     		movs	r0, r4
 2593 0176 FFF7FEFF 		bl	VL53L0X_WrByte
 2594              	.LVL470:
 2595 017a 2843     		orrs	r0, r5
 2596 017c 45B2     		sxtb	r5, r0
 2597              	.LVL471:
 941:Api\core\src/vl53l0x_api_core.c **** 				VL53L0X_REG_ALGO_PHASECAL_LIM,
 942:Api\core\src/vl53l0x_api_core.c **** 				0x20);
ARM GAS  C:\Users\Rajesh\AppData\Local\Temp\ccMJoliC.s 			page 64


 943:Api\core\src/vl53l0x_api_core.c **** 			Status |= VL53L0X_WrByte(Dev, 0xff, 0x00);
 2598              		.loc 1 943 0
 2599 017e 0022     		movs	r2, #0
 2600 0180 FF21     		movs	r1, #255
 2601 0182 2000     		movs	r0, r4
 2602 0184 FFF7FEFF 		bl	VL53L0X_WrByte
 2603              	.LVL472:
 2604 0188 2843     		orrs	r0, r5
 2605 018a 40B2     		sxtb	r0, r0
 2606              	.LVL473:
 2607 018c 60E0     		b	.L97
 2608              	.LVL474:
 2609              	.L101:
 944:Api\core\src/vl53l0x_api_core.c **** 		} else if (VCSELPulsePeriodPCLK == 12) {
 2610              		.loc 1 944 0
 2611 018e 0C2E     		cmp	r6, #12
 2612 0190 2ED1     		bne	.L102
 945:Api\core\src/vl53l0x_api_core.c **** 
 946:Api\core\src/vl53l0x_api_core.c **** 			Status = VL53L0X_WrByte(Dev,
 2613              		.loc 1 946 0
 2614 0192 3822     		movs	r2, #56
 2615 0194 4821     		movs	r1, #72
 2616              	.LVL475:
 2617 0196 2000     		movs	r0, r4
 2618              	.LVL476:
 2619 0198 FFF7FEFF 		bl	VL53L0X_WrByte
 2620              	.LVL477:
 947:Api\core\src/vl53l0x_api_core.c **** 				VL53L0X_REG_FINAL_RANGE_CONFIG_VALID_PHASE_HIGH,
 948:Api\core\src/vl53l0x_api_core.c **** 				0x38);
 949:Api\core\src/vl53l0x_api_core.c **** 			Status = VL53L0X_WrByte(Dev,
 2621              		.loc 1 949 0
 2622 019c 0822     		movs	r2, #8
 2623 019e 4721     		movs	r1, #71
 2624 01a0 2000     		movs	r0, r4
 2625 01a2 FFF7FEFF 		bl	VL53L0X_WrByte
 2626              	.LVL478:
 2627 01a6 0500     		movs	r5, r0
 2628              	.LVL479:
 950:Api\core\src/vl53l0x_api_core.c **** 				VL53L0X_REG_FINAL_RANGE_CONFIG_VALID_PHASE_LOW,
 951:Api\core\src/vl53l0x_api_core.c **** 				0x08);
 952:Api\core\src/vl53l0x_api_core.c **** 
 953:Api\core\src/vl53l0x_api_core.c **** 			Status |= VL53L0X_WrByte(Dev,
 2629              		.loc 1 953 0
 2630 01a8 0322     		movs	r2, #3
 2631 01aa 3221     		movs	r1, #50
 2632 01ac 2000     		movs	r0, r4
 2633 01ae FFF7FEFF 		bl	VL53L0X_WrByte
 2634              	.LVL480:
 2635 01b2 2843     		orrs	r0, r5
 2636 01b4 45B2     		sxtb	r5, r0
 2637              	.LVL481:
 954:Api\core\src/vl53l0x_api_core.c **** 				VL53L0X_REG_GLOBAL_CONFIG_VCSEL_WIDTH, 0x03);
 955:Api\core\src/vl53l0x_api_core.c **** 			Status |= VL53L0X_WrByte(Dev,
 2638              		.loc 1 955 0
 2639 01b6 0822     		movs	r2, #8
 2640 01b8 3021     		movs	r1, #48
 2641 01ba 2000     		movs	r0, r4
ARM GAS  C:\Users\Rajesh\AppData\Local\Temp\ccMJoliC.s 			page 65


 2642 01bc FFF7FEFF 		bl	VL53L0X_WrByte
 2643              	.LVL482:
 2644 01c0 2843     		orrs	r0, r5
 2645 01c2 45B2     		sxtb	r5, r0
 2646              	.LVL483:
 956:Api\core\src/vl53l0x_api_core.c **** 				VL53L0X_REG_ALGO_PHASECAL_CONFIG_TIMEOUT, 0x08);
 957:Api\core\src/vl53l0x_api_core.c **** 
 958:Api\core\src/vl53l0x_api_core.c **** 			Status |= VL53L0X_WrByte(Dev, 0xff, 0x01);
 2647              		.loc 1 958 0
 2648 01c4 0122     		movs	r2, #1
 2649 01c6 FF21     		movs	r1, #255
 2650 01c8 2000     		movs	r0, r4
 2651 01ca FFF7FEFF 		bl	VL53L0X_WrByte
 2652              	.LVL484:
 2653 01ce 2843     		orrs	r0, r5
 2654 01d0 45B2     		sxtb	r5, r0
 2655              	.LVL485:
 959:Api\core\src/vl53l0x_api_core.c **** 			Status |= VL53L0X_WrByte(Dev,
 2656              		.loc 1 959 0
 2657 01d2 2022     		movs	r2, #32
 2658 01d4 3021     		movs	r1, #48
 2659 01d6 2000     		movs	r0, r4
 2660 01d8 FFF7FEFF 		bl	VL53L0X_WrByte
 2661              	.LVL486:
 2662 01dc 2843     		orrs	r0, r5
 2663 01de 45B2     		sxtb	r5, r0
 2664              	.LVL487:
 960:Api\core\src/vl53l0x_api_core.c **** 				VL53L0X_REG_ALGO_PHASECAL_LIM,
 961:Api\core\src/vl53l0x_api_core.c **** 				0x20);
 962:Api\core\src/vl53l0x_api_core.c **** 			Status |= VL53L0X_WrByte(Dev, 0xff, 0x00);
 2665              		.loc 1 962 0
 2666 01e0 0022     		movs	r2, #0
 2667 01e2 FF21     		movs	r1, #255
 2668 01e4 2000     		movs	r0, r4
 2669 01e6 FFF7FEFF 		bl	VL53L0X_WrByte
 2670              	.LVL488:
 2671 01ea 2843     		orrs	r0, r5
 2672 01ec 40B2     		sxtb	r0, r0
 2673              	.LVL489:
 2674 01ee 2FE0     		b	.L97
 2675              	.LVL490:
 2676              	.L102:
 963:Api\core\src/vl53l0x_api_core.c **** 		} else if (VCSELPulsePeriodPCLK == 14) {
 2677              		.loc 1 963 0
 2678 01f0 0E2E     		cmp	r6, #14
 2679 01f2 2DD1     		bne	.L97
 964:Api\core\src/vl53l0x_api_core.c **** 
 965:Api\core\src/vl53l0x_api_core.c **** 			Status = VL53L0X_WrByte(Dev,
 2680              		.loc 1 965 0
 2681 01f4 4822     		movs	r2, #72
 2682 01f6 4821     		movs	r1, #72
 2683              	.LVL491:
 2684 01f8 2000     		movs	r0, r4
 2685              	.LVL492:
 2686 01fa FFF7FEFF 		bl	VL53L0X_WrByte
 2687              	.LVL493:
 966:Api\core\src/vl53l0x_api_core.c **** 				VL53L0X_REG_FINAL_RANGE_CONFIG_VALID_PHASE_HIGH,
ARM GAS  C:\Users\Rajesh\AppData\Local\Temp\ccMJoliC.s 			page 66


 967:Api\core\src/vl53l0x_api_core.c **** 				0x048);
 968:Api\core\src/vl53l0x_api_core.c **** 			Status = VL53L0X_WrByte(Dev,
 2688              		.loc 1 968 0
 2689 01fe 0822     		movs	r2, #8
 2690 0200 4721     		movs	r1, #71
 2691 0202 2000     		movs	r0, r4
 2692 0204 FFF7FEFF 		bl	VL53L0X_WrByte
 2693              	.LVL494:
 2694 0208 0500     		movs	r5, r0
 2695              	.LVL495:
 969:Api\core\src/vl53l0x_api_core.c **** 				VL53L0X_REG_FINAL_RANGE_CONFIG_VALID_PHASE_LOW,
 970:Api\core\src/vl53l0x_api_core.c **** 				0x08);
 971:Api\core\src/vl53l0x_api_core.c **** 
 972:Api\core\src/vl53l0x_api_core.c **** 			Status |= VL53L0X_WrByte(Dev,
 2696              		.loc 1 972 0
 2697 020a 0322     		movs	r2, #3
 2698 020c 3221     		movs	r1, #50
 2699 020e 2000     		movs	r0, r4
 2700 0210 FFF7FEFF 		bl	VL53L0X_WrByte
 2701              	.LVL496:
 2702 0214 2843     		orrs	r0, r5
 2703 0216 45B2     		sxtb	r5, r0
 2704              	.LVL497:
 973:Api\core\src/vl53l0x_api_core.c **** 				VL53L0X_REG_GLOBAL_CONFIG_VCSEL_WIDTH, 0x03);
 974:Api\core\src/vl53l0x_api_core.c **** 			Status |= VL53L0X_WrByte(Dev,
 2705              		.loc 1 974 0
 2706 0218 0722     		movs	r2, #7
 2707 021a 3021     		movs	r1, #48
 2708 021c 2000     		movs	r0, r4
 2709 021e FFF7FEFF 		bl	VL53L0X_WrByte
 2710              	.LVL498:
 2711 0222 2843     		orrs	r0, r5
 2712 0224 45B2     		sxtb	r5, r0
 2713              	.LVL499:
 975:Api\core\src/vl53l0x_api_core.c **** 				VL53L0X_REG_ALGO_PHASECAL_CONFIG_TIMEOUT, 0x07);
 976:Api\core\src/vl53l0x_api_core.c **** 
 977:Api\core\src/vl53l0x_api_core.c **** 			Status |= VL53L0X_WrByte(Dev, 0xff, 0x01);
 2714              		.loc 1 977 0
 2715 0226 0122     		movs	r2, #1
 2716 0228 FF21     		movs	r1, #255
 2717 022a 2000     		movs	r0, r4
 2718 022c FFF7FEFF 		bl	VL53L0X_WrByte
 2719              	.LVL500:
 2720 0230 2843     		orrs	r0, r5
 2721 0232 45B2     		sxtb	r5, r0
 2722              	.LVL501:
 978:Api\core\src/vl53l0x_api_core.c **** 			Status |= VL53L0X_WrByte(Dev,
 2723              		.loc 1 978 0
 2724 0234 2022     		movs	r2, #32
 2725 0236 3021     		movs	r1, #48
 2726 0238 2000     		movs	r0, r4
 2727 023a FFF7FEFF 		bl	VL53L0X_WrByte
 2728              	.LVL502:
 2729 023e 2843     		orrs	r0, r5
 2730 0240 45B2     		sxtb	r5, r0
 2731              	.LVL503:
 979:Api\core\src/vl53l0x_api_core.c **** 				VL53L0X_REG_ALGO_PHASECAL_LIM,
ARM GAS  C:\Users\Rajesh\AppData\Local\Temp\ccMJoliC.s 			page 67


 980:Api\core\src/vl53l0x_api_core.c **** 				0x20);
 981:Api\core\src/vl53l0x_api_core.c **** 			Status |= VL53L0X_WrByte(Dev, 0xff, 0x00);
 2732              		.loc 1 981 0
 2733 0242 0022     		movs	r2, #0
 2734 0244 FF21     		movs	r1, #255
 2735 0246 2000     		movs	r0, r4
 2736 0248 FFF7FEFF 		bl	VL53L0X_WrByte
 2737              	.LVL504:
 2738 024c 2843     		orrs	r0, r5
 2739 024e 40B2     		sxtb	r0, r0
 2740              	.LVL505:
 2741              	.L97:
 982:Api\core\src/vl53l0x_api_core.c **** 		}
 983:Api\core\src/vl53l0x_api_core.c **** 	}
 984:Api\core\src/vl53l0x_api_core.c **** 
 985:Api\core\src/vl53l0x_api_core.c **** 
 986:Api\core\src/vl53l0x_api_core.c **** 	/* Re-calculate and apply timeouts, in macro periods */
 987:Api\core\src/vl53l0x_api_core.c **** 
 988:Api\core\src/vl53l0x_api_core.c **** 	if (Status == VL53L0X_ERROR_NONE) {
 2742              		.loc 1 988 0
 2743 0250 0028     		cmp	r0, #0
 2744 0252 44D1     		bne	.L103
 989:Api\core\src/vl53l0x_api_core.c **** 		vcsel_period_reg = VL53L0X_encode_vcsel_period((uint8_t)
 2745              		.loc 1 989 0
 2746 0254 3000     		movs	r0, r6
 2747              	.LVL506:
 2748 0256 FFF7FEFF 		bl	VL53L0X_encode_vcsel_period
 2749              	.LVL507:
 2750 025a 0500     		movs	r5, r0
 2751              	.LVL508:
 990:Api\core\src/vl53l0x_api_core.c **** 			VCSELPulsePeriodPCLK);
 991:Api\core\src/vl53l0x_api_core.c **** 
 992:Api\core\src/vl53l0x_api_core.c **** 		/* When the VCSEL period for the pre or final range is changed,
 993:Api\core\src/vl53l0x_api_core.c **** 		* the corresponding timeout must be read from the device using
 994:Api\core\src/vl53l0x_api_core.c **** 		* the current VCSEL period, then the new VCSEL period can be
 995:Api\core\src/vl53l0x_api_core.c **** 		* applied. The timeout then must be written back to the device
 996:Api\core\src/vl53l0x_api_core.c **** 		* using the new VCSEL period.
 997:Api\core\src/vl53l0x_api_core.c **** 		*
 998:Api\core\src/vl53l0x_api_core.c **** 		* For the MSRC timeout, the same applies - this timeout being
 999:Api\core\src/vl53l0x_api_core.c **** 		* dependant on the pre-range vcsel period.
1000:Api\core\src/vl53l0x_api_core.c **** 		*/
1001:Api\core\src/vl53l0x_api_core.c **** 		switch (VcselPeriodType) {
 2752              		.loc 1 1001 0
 2753 025c 002F     		cmp	r7, #0
 2754 025e 02D0     		beq	.L104
 2755 0260 012F     		cmp	r7, #1
 2756 0262 24D0     		beq	.L105
 2757 0264 39E0     		b	.L120
 2758              	.L104:
1002:Api\core\src/vl53l0x_api_core.c **** 		case VL53L0X_VCSEL_PERIOD_PRE_RANGE:
1003:Api\core\src/vl53l0x_api_core.c **** 			Status = get_sequence_step_timeout(Dev,
 2759              		.loc 1 1003 0
 2760 0266 02AA     		add	r2, sp, #8
 2761 0268 0321     		movs	r1, #3
 2762 026a 2000     		movs	r0, r4
 2763 026c FFF7FEFF 		bl	get_sequence_step_timeout
 2764              	.LVL509:
ARM GAS  C:\Users\Rajesh\AppData\Local\Temp\ccMJoliC.s 			page 68


1004:Api\core\src/vl53l0x_api_core.c **** 				VL53L0X_SEQUENCESTEP_PRE_RANGE,
1005:Api\core\src/vl53l0x_api_core.c **** 				&PreRangeTimeoutMicroSeconds);
1006:Api\core\src/vl53l0x_api_core.c **** 
1007:Api\core\src/vl53l0x_api_core.c **** 			if (Status == VL53L0X_ERROR_NONE)
 2765              		.loc 1 1007 0
 2766 0270 0028     		cmp	r0, #0
 2767 0272 04D1     		bne	.L106
1008:Api\core\src/vl53l0x_api_core.c **** 				Status = get_sequence_step_timeout(Dev,
 2768              		.loc 1 1008 0
 2769 0274 01AA     		add	r2, sp, #4
 2770 0276 0221     		movs	r1, #2
 2771 0278 2000     		movs	r0, r4
 2772              	.LVL510:
 2773 027a FFF7FEFF 		bl	get_sequence_step_timeout
 2774              	.LVL511:
 2775              	.L106:
1009:Api\core\src/vl53l0x_api_core.c **** 					VL53L0X_SEQUENCESTEP_MSRC,
1010:Api\core\src/vl53l0x_api_core.c **** 					&MsrcTimeoutMicroSeconds);
1011:Api\core\src/vl53l0x_api_core.c **** 
1012:Api\core\src/vl53l0x_api_core.c **** 			if (Status == VL53L0X_ERROR_NONE)
 2776              		.loc 1 1012 0
 2777 027e 0028     		cmp	r0, #0
 2778 0280 04D1     		bne	.L107
1013:Api\core\src/vl53l0x_api_core.c **** 				Status = VL53L0X_WrByte(Dev,
 2779              		.loc 1 1013 0
 2780 0282 2A00     		movs	r2, r5
 2781 0284 5021     		movs	r1, #80
 2782 0286 2000     		movs	r0, r4
 2783              	.LVL512:
 2784 0288 FFF7FEFF 		bl	VL53L0X_WrByte
 2785              	.LVL513:
 2786              	.L107:
1014:Api\core\src/vl53l0x_api_core.c **** 				VL53L0X_REG_PRE_RANGE_CONFIG_VCSEL_PERIOD,
1015:Api\core\src/vl53l0x_api_core.c **** 					vcsel_period_reg);
1016:Api\core\src/vl53l0x_api_core.c **** 
1017:Api\core\src/vl53l0x_api_core.c **** 
1018:Api\core\src/vl53l0x_api_core.c **** 			if (Status == VL53L0X_ERROR_NONE)
 2787              		.loc 1 1018 0
 2788 028c 0028     		cmp	r0, #0
 2789 028e 04D1     		bne	.L108
1019:Api\core\src/vl53l0x_api_core.c **** 				Status = set_sequence_step_timeout(Dev,
 2790              		.loc 1 1019 0
 2791 0290 029A     		ldr	r2, [sp, #8]
 2792 0292 0321     		movs	r1, #3
 2793 0294 2000     		movs	r0, r4
 2794              	.LVL514:
 2795 0296 FFF7FEFF 		bl	set_sequence_step_timeout
 2796              	.LVL515:
 2797              	.L108:
1020:Api\core\src/vl53l0x_api_core.c **** 					VL53L0X_SEQUENCESTEP_PRE_RANGE,
1021:Api\core\src/vl53l0x_api_core.c **** 					PreRangeTimeoutMicroSeconds);
1022:Api\core\src/vl53l0x_api_core.c **** 
1023:Api\core\src/vl53l0x_api_core.c **** 
1024:Api\core\src/vl53l0x_api_core.c **** 			if (Status == VL53L0X_ERROR_NONE)
 2798              		.loc 1 1024 0
 2799 029a 0028     		cmp	r0, #0
 2800 029c 04D1     		bne	.L109
ARM GAS  C:\Users\Rajesh\AppData\Local\Temp\ccMJoliC.s 			page 69


1025:Api\core\src/vl53l0x_api_core.c **** 				Status = set_sequence_step_timeout(Dev,
 2801              		.loc 1 1025 0
 2802 029e 019A     		ldr	r2, [sp, #4]
 2803 02a0 0221     		movs	r1, #2
 2804 02a2 2000     		movs	r0, r4
 2805              	.LVL516:
 2806 02a4 FFF7FEFF 		bl	set_sequence_step_timeout
 2807              	.LVL517:
 2808              	.L109:
1026:Api\core\src/vl53l0x_api_core.c **** 					VL53L0X_SEQUENCESTEP_MSRC,
1027:Api\core\src/vl53l0x_api_core.c **** 					MsrcTimeoutMicroSeconds);
1028:Api\core\src/vl53l0x_api_core.c **** 
1029:Api\core\src/vl53l0x_api_core.c **** 			VL53L0X_SETDEVICESPECIFICPARAMETER(
 2809              		.loc 1 1029 0
 2810 02a8 E823     		movs	r3, #232
 2811 02aa E654     		strb	r6, [r4, r3]
1030:Api\core\src/vl53l0x_api_core.c **** 				Dev,
1031:Api\core\src/vl53l0x_api_core.c **** 				PreRangeVcselPulsePeriod,
1032:Api\core\src/vl53l0x_api_core.c **** 				VCSELPulsePeriodPCLK);
1033:Api\core\src/vl53l0x_api_core.c **** 			break;
 2812              		.loc 1 1033 0
 2813 02ac 17E0     		b	.L103
 2814              	.LVL518:
 2815              	.L105:
1034:Api\core\src/vl53l0x_api_core.c **** 		case VL53L0X_VCSEL_PERIOD_FINAL_RANGE:
1035:Api\core\src/vl53l0x_api_core.c **** 			Status = get_sequence_step_timeout(Dev,
 2816              		.loc 1 1035 0
 2817 02ae 03AA     		add	r2, sp, #12
 2818 02b0 0421     		movs	r1, #4
 2819 02b2 2000     		movs	r0, r4
 2820 02b4 FFF7FEFF 		bl	get_sequence_step_timeout
 2821              	.LVL519:
1036:Api\core\src/vl53l0x_api_core.c **** 				VL53L0X_SEQUENCESTEP_FINAL_RANGE,
1037:Api\core\src/vl53l0x_api_core.c **** 				&FinalRangeTimeoutMicroSeconds);
1038:Api\core\src/vl53l0x_api_core.c **** 
1039:Api\core\src/vl53l0x_api_core.c **** 			if (Status == VL53L0X_ERROR_NONE)
 2822              		.loc 1 1039 0
 2823 02b8 0028     		cmp	r0, #0
 2824 02ba 04D1     		bne	.L110
1040:Api\core\src/vl53l0x_api_core.c **** 				Status = VL53L0X_WrByte(Dev,
 2825              		.loc 1 1040 0
 2826 02bc 2A00     		movs	r2, r5
 2827 02be 7021     		movs	r1, #112
 2828 02c0 2000     		movs	r0, r4
 2829              	.LVL520:
 2830 02c2 FFF7FEFF 		bl	VL53L0X_WrByte
 2831              	.LVL521:
 2832              	.L110:
1041:Api\core\src/vl53l0x_api_core.c **** 				VL53L0X_REG_FINAL_RANGE_CONFIG_VCSEL_PERIOD,
1042:Api\core\src/vl53l0x_api_core.c **** 					vcsel_period_reg);
1043:Api\core\src/vl53l0x_api_core.c **** 
1044:Api\core\src/vl53l0x_api_core.c **** 
1045:Api\core\src/vl53l0x_api_core.c **** 			if (Status == VL53L0X_ERROR_NONE)
 2833              		.loc 1 1045 0
 2834 02c6 0028     		cmp	r0, #0
 2835 02c8 04D1     		bne	.L111
1046:Api\core\src/vl53l0x_api_core.c **** 				Status = set_sequence_step_timeout(Dev,
ARM GAS  C:\Users\Rajesh\AppData\Local\Temp\ccMJoliC.s 			page 70


 2836              		.loc 1 1046 0
 2837 02ca 039A     		ldr	r2, [sp, #12]
 2838 02cc 0421     		movs	r1, #4
 2839 02ce 2000     		movs	r0, r4
 2840              	.LVL522:
 2841 02d0 FFF7FEFF 		bl	set_sequence_step_timeout
 2842              	.LVL523:
 2843              	.L111:
1047:Api\core\src/vl53l0x_api_core.c **** 					VL53L0X_SEQUENCESTEP_FINAL_RANGE,
1048:Api\core\src/vl53l0x_api_core.c **** 					FinalRangeTimeoutMicroSeconds);
1049:Api\core\src/vl53l0x_api_core.c **** 
1050:Api\core\src/vl53l0x_api_core.c **** 			VL53L0X_SETDEVICESPECIFICPARAMETER(
 2844              		.loc 1 1050 0
 2845 02d4 E023     		movs	r3, #224
 2846 02d6 E654     		strb	r6, [r4, r3]
1051:Api\core\src/vl53l0x_api_core.c **** 				Dev,
1052:Api\core\src/vl53l0x_api_core.c **** 				FinalRangeVcselPulsePeriod,
1053:Api\core\src/vl53l0x_api_core.c **** 				VCSELPulsePeriodPCLK);
1054:Api\core\src/vl53l0x_api_core.c **** 			break;
 2847              		.loc 1 1054 0
 2848 02d8 01E0     		b	.L103
 2849              	.LVL524:
 2850              	.L120:
1055:Api\core\src/vl53l0x_api_core.c **** 		default:
1056:Api\core\src/vl53l0x_api_core.c **** 			Status = VL53L0X_ERROR_INVALID_PARAMS;
 2851              		.loc 1 1056 0
 2852 02da 0420     		movs	r0, #4
 2853 02dc 4042     		rsbs	r0, r0, #0
 2854              	.LVL525:
 2855              	.L103:
1057:Api\core\src/vl53l0x_api_core.c **** 		}
1058:Api\core\src/vl53l0x_api_core.c **** 	}
1059:Api\core\src/vl53l0x_api_core.c **** 
1060:Api\core\src/vl53l0x_api_core.c **** 	/* Finally, the timing budget must be re-applied */
1061:Api\core\src/vl53l0x_api_core.c **** 	if (Status == VL53L0X_ERROR_NONE) {
 2856              		.loc 1 1061 0
 2857 02de 0028     		cmp	r0, #0
 2858 02e0 03D1     		bne	.L112
 2859              	.LVL526:
1062:Api\core\src/vl53l0x_api_core.c **** 		VL53L0X_GETPARAMETERFIELD(Dev,
1063:Api\core\src/vl53l0x_api_core.c **** 			MeasurementTimingBudgetMicroSeconds,
1064:Api\core\src/vl53l0x_api_core.c **** 			MeasurementTimingBudgetMicroSeconds);
1065:Api\core\src/vl53l0x_api_core.c **** 
1066:Api\core\src/vl53l0x_api_core.c **** 		Status = VL53L0X_SetMeasurementTimingBudgetMicroSeconds(Dev,
 2860              		.loc 1 1066 0
 2861 02e2 6169     		ldr	r1, [r4, #20]
 2862 02e4 2000     		movs	r0, r4
 2863              	.LVL527:
 2864 02e6 FFF7FEFF 		bl	VL53L0X_SetMeasurementTimingBudgetMicroSeconds
 2865              	.LVL528:
 2866              	.L112:
1067:Api\core\src/vl53l0x_api_core.c **** 				MeasurementTimingBudgetMicroSeconds);
1068:Api\core\src/vl53l0x_api_core.c **** 	}
1069:Api\core\src/vl53l0x_api_core.c **** 
1070:Api\core\src/vl53l0x_api_core.c **** 	/* Perform the phase calibration. This is needed after changing on
1071:Api\core\src/vl53l0x_api_core.c **** 	 * vcsel period.
1072:Api\core\src/vl53l0x_api_core.c **** 	 * get_data_enable = 0, restore_config = 1 */
ARM GAS  C:\Users\Rajesh\AppData\Local\Temp\ccMJoliC.s 			page 71


1073:Api\core\src/vl53l0x_api_core.c **** 	if (Status == VL53L0X_ERROR_NONE)
 2867              		.loc 1 1073 0
 2868 02ea 0028     		cmp	r0, #0
 2869 02ec 06D1     		bne	.L94
1074:Api\core\src/vl53l0x_api_core.c **** 		Status = VL53L0X_perform_phase_calibration(
 2870              		.loc 1 1074 0
 2871 02ee 0123     		movs	r3, #1
 2872 02f0 0022     		movs	r2, #0
 2873 02f2 6946     		mov	r1, sp
 2874 02f4 0331     		adds	r1, r1, #3
 2875 02f6 2000     		movs	r0, r4
 2876              	.LVL529:
 2877 02f8 FFF7FEFF 		bl	VL53L0X_perform_phase_calibration
 2878              	.LVL530:
 2879              	.L94:
1075:Api\core\src/vl53l0x_api_core.c **** 			Dev, &PhaseCalInt, 0, 1);
1076:Api\core\src/vl53l0x_api_core.c **** 
1077:Api\core\src/vl53l0x_api_core.c **** 	return Status;
1078:Api\core\src/vl53l0x_api_core.c **** }
 2880              		.loc 1 1078 0
 2881 02fc 05B0     		add	sp, sp, #20
 2882              		@ sp needed
 2883              	.LVL531:
 2884 02fe F0BD     		pop	{r4, r5, r6, r7, pc}
 2885              		.cfi_endproc
 2886              	.LFE16:
 2887              		.size	VL53L0X_set_vcsel_pulse_period, .-VL53L0X_set_vcsel_pulse_period
 2888              		.section	.text.VL53L0X_get_vcsel_pulse_period,"ax",%progbits
 2889              		.align	2
 2890              		.global	VL53L0X_get_vcsel_pulse_period
 2891              		.code	16
 2892              		.thumb_func
 2893              		.type	VL53L0X_get_vcsel_pulse_period, %function
 2894              	VL53L0X_get_vcsel_pulse_period:
 2895              	.LFB17:
1079:Api\core\src/vl53l0x_api_core.c **** 
1080:Api\core\src/vl53l0x_api_core.c **** VL53L0X_Error VL53L0X_get_vcsel_pulse_period(VL53L0X_DEV Dev,
1081:Api\core\src/vl53l0x_api_core.c **** 	VL53L0X_VcselPeriod VcselPeriodType, uint8_t *pVCSELPulsePeriodPCLK)
1082:Api\core\src/vl53l0x_api_core.c **** {
 2896              		.loc 1 1082 0
 2897              		.cfi_startproc
 2898              		@ args = 0, pretend = 0, frame = 8
 2899              		@ frame_needed = 0, uses_anonymous_args = 0
 2900              	.LVL532:
 2901 0000 30B5     		push	{r4, r5, lr}
 2902              		.cfi_def_cfa_offset 12
 2903              		.cfi_offset 4, -12
 2904              		.cfi_offset 5, -8
 2905              		.cfi_offset 14, -4
 2906 0002 83B0     		sub	sp, sp, #12
 2907              		.cfi_def_cfa_offset 24
 2908 0004 1500     		movs	r5, r2
 2909              	.LVL533:
1083:Api\core\src/vl53l0x_api_core.c **** 	VL53L0X_Error Status = VL53L0X_ERROR_NONE;
1084:Api\core\src/vl53l0x_api_core.c **** 	uint8_t vcsel_period_reg;
1085:Api\core\src/vl53l0x_api_core.c **** 
1086:Api\core\src/vl53l0x_api_core.c **** 	switch (VcselPeriodType) {
ARM GAS  C:\Users\Rajesh\AppData\Local\Temp\ccMJoliC.s 			page 72


 2910              		.loc 1 1086 0
 2911 0006 0029     		cmp	r1, #0
 2912 0008 02D0     		beq	.L123
 2913 000a 0129     		cmp	r1, #1
 2914 000c 07D0     		beq	.L124
 2915 000e 0DE0     		b	.L127
 2916              	.L123:
1087:Api\core\src/vl53l0x_api_core.c **** 	case VL53L0X_VCSEL_PERIOD_PRE_RANGE:
1088:Api\core\src/vl53l0x_api_core.c **** 		Status = VL53L0X_RdByte(Dev,
 2917              		.loc 1 1088 0
 2918 0010 6B46     		mov	r3, sp
 2919 0012 DA1D     		adds	r2, r3, #7
 2920              	.LVL534:
 2921 0014 5021     		movs	r1, #80
 2922              	.LVL535:
 2923 0016 FFF7FEFF 		bl	VL53L0X_RdByte
 2924              	.LVL536:
 2925 001a 0400     		movs	r4, r0
 2926              	.LVL537:
1089:Api\core\src/vl53l0x_api_core.c **** 			VL53L0X_REG_PRE_RANGE_CONFIG_VCSEL_PERIOD,
1090:Api\core\src/vl53l0x_api_core.c **** 			&vcsel_period_reg);
1091:Api\core\src/vl53l0x_api_core.c **** 	break;
 2927              		.loc 1 1091 0
 2928 001c 08E0     		b	.L122
 2929              	.LVL538:
 2930              	.L124:
1092:Api\core\src/vl53l0x_api_core.c **** 	case VL53L0X_VCSEL_PERIOD_FINAL_RANGE:
1093:Api\core\src/vl53l0x_api_core.c **** 		Status = VL53L0X_RdByte(Dev,
 2931              		.loc 1 1093 0
 2932 001e 6B46     		mov	r3, sp
 2933 0020 DA1D     		adds	r2, r3, #7
 2934              	.LVL539:
 2935 0022 7021     		movs	r1, #112
 2936              	.LVL540:
 2937 0024 FFF7FEFF 		bl	VL53L0X_RdByte
 2938              	.LVL541:
 2939 0028 0400     		movs	r4, r0
 2940              	.LVL542:
1094:Api\core\src/vl53l0x_api_core.c **** 			VL53L0X_REG_FINAL_RANGE_CONFIG_VCSEL_PERIOD,
1095:Api\core\src/vl53l0x_api_core.c **** 			&vcsel_period_reg);
1096:Api\core\src/vl53l0x_api_core.c **** 	break;
 2941              		.loc 1 1096 0
 2942 002a 01E0     		b	.L122
 2943              	.LVL543:
 2944              	.L127:
1097:Api\core\src/vl53l0x_api_core.c **** 	default:
1098:Api\core\src/vl53l0x_api_core.c **** 		Status = VL53L0X_ERROR_INVALID_PARAMS;
 2945              		.loc 1 1098 0
 2946 002c 0424     		movs	r4, #4
 2947 002e 6442     		rsbs	r4, r4, #0
 2948              	.LVL544:
 2949              	.L122:
1099:Api\core\src/vl53l0x_api_core.c **** 	}
1100:Api\core\src/vl53l0x_api_core.c **** 
1101:Api\core\src/vl53l0x_api_core.c **** 	if (Status == VL53L0X_ERROR_NONE)
 2950              		.loc 1 1101 0
 2951 0030 002C     		cmp	r4, #0
ARM GAS  C:\Users\Rajesh\AppData\Local\Temp\ccMJoliC.s 			page 73


 2952 0032 04D1     		bne	.L125
1102:Api\core\src/vl53l0x_api_core.c **** 		*pVCSELPulsePeriodPCLK =
1103:Api\core\src/vl53l0x_api_core.c **** 			VL53L0X_decode_vcsel_period(vcsel_period_reg);
 2953              		.loc 1 1103 0
 2954 0034 6B46     		mov	r3, sp
 2955 0036 D879     		ldrb	r0, [r3, #7]
 2956 0038 FFF7FEFF 		bl	VL53L0X_decode_vcsel_period
 2957              	.LVL545:
1102:Api\core\src/vl53l0x_api_core.c **** 		*pVCSELPulsePeriodPCLK =
 2958              		.loc 1 1102 0
 2959 003c 2870     		strb	r0, [r5]
 2960              	.L125:
1104:Api\core\src/vl53l0x_api_core.c **** 
1105:Api\core\src/vl53l0x_api_core.c **** 	return Status;
1106:Api\core\src/vl53l0x_api_core.c **** }
 2961              		.loc 1 1106 0
 2962 003e 2000     		movs	r0, r4
 2963 0040 03B0     		add	sp, sp, #12
 2964              		@ sp needed
 2965              	.LVL546:
 2966              	.LVL547:
 2967 0042 30BD     		pop	{r4, r5, pc}
 2968              		.cfi_endproc
 2969              	.LFE17:
 2970              		.size	VL53L0X_get_vcsel_pulse_period, .-VL53L0X_get_vcsel_pulse_period
 2971              		.section	.text.VL53L0X_set_measurement_timing_budget_micro_seconds,"ax",%progbits
 2972              		.align	2
 2973              		.global	VL53L0X_set_measurement_timing_budget_micro_seconds
 2974              		.code	16
 2975              		.thumb_func
 2976              		.type	VL53L0X_set_measurement_timing_budget_micro_seconds, %function
 2977              	VL53L0X_set_measurement_timing_budget_micro_seconds:
 2978              	.LFB18:
1107:Api\core\src/vl53l0x_api_core.c **** 
1108:Api\core\src/vl53l0x_api_core.c **** 
1109:Api\core\src/vl53l0x_api_core.c **** 
1110:Api\core\src/vl53l0x_api_core.c **** VL53L0X_Error VL53L0X_set_measurement_timing_budget_micro_seconds(VL53L0X_DEV Dev,
1111:Api\core\src/vl53l0x_api_core.c **** 		uint32_t MeasurementTimingBudgetMicroSeconds)
1112:Api\core\src/vl53l0x_api_core.c **** {
 2979              		.loc 1 1112 0
 2980              		.cfi_startproc
 2981              		@ args = 0, pretend = 0, frame = 16
 2982              		@ frame_needed = 0, uses_anonymous_args = 0
 2983              	.LVL548:
 2984 0000 70B5     		push	{r4, r5, r6, lr}
 2985              		.cfi_def_cfa_offset 16
 2986              		.cfi_offset 4, -16
 2987              		.cfi_offset 5, -12
 2988              		.cfi_offset 6, -8
 2989              		.cfi_offset 14, -4
 2990 0002 84B0     		sub	sp, sp, #16
 2991              		.cfi_def_cfa_offset 32
 2992 0004 0500     		movs	r5, r0
 2993 0006 0C00     		movs	r4, r1
 2994              	.LVL549:
1113:Api\core\src/vl53l0x_api_core.c **** 	VL53L0X_Error Status = VL53L0X_ERROR_NONE;
1114:Api\core\src/vl53l0x_api_core.c **** 	uint32_t FinalRangeTimingBudgetMicroSeconds;
ARM GAS  C:\Users\Rajesh\AppData\Local\Temp\ccMJoliC.s 			page 74


1115:Api\core\src/vl53l0x_api_core.c **** 	VL53L0X_SchedulerSequenceSteps_t SchedulerSequenceSteps;
1116:Api\core\src/vl53l0x_api_core.c **** 	uint32_t MsrcDccTccTimeoutMicroSeconds	= 2000;
 2995              		.loc 1 1116 0
 2996 0008 FA23     		movs	r3, #250
 2997 000a DB00     		lsls	r3, r3, #3
 2998 000c 0193     		str	r3, [sp, #4]
 2999              	.LVL550:
1117:Api\core\src/vl53l0x_api_core.c **** 	uint32_t StartOverheadMicroSeconds		= 1910;
1118:Api\core\src/vl53l0x_api_core.c **** 	uint32_t EndOverheadMicroSeconds		= 960;
1119:Api\core\src/vl53l0x_api_core.c **** 	uint32_t MsrcOverheadMicroSeconds		= 660;
1120:Api\core\src/vl53l0x_api_core.c **** 	uint32_t TccOverheadMicroSeconds		= 590;
1121:Api\core\src/vl53l0x_api_core.c **** 	uint32_t DssOverheadMicroSeconds		= 690;
1122:Api\core\src/vl53l0x_api_core.c **** 	uint32_t PreRangeOverheadMicroSeconds	= 660;
1123:Api\core\src/vl53l0x_api_core.c **** 	uint32_t FinalRangeOverheadMicroSeconds = 550;
1124:Api\core\src/vl53l0x_api_core.c **** 	uint32_t PreRangeTimeoutMicroSeconds	= 0;
 3000              		.loc 1 1124 0
 3001 000e 0023     		movs	r3, #0
 3002 0010 0093     		str	r3, [sp]
 3003              	.LVL551:
1125:Api\core\src/vl53l0x_api_core.c **** 	uint32_t cMinTimingBudgetMicroSeconds	= 20000;
1126:Api\core\src/vl53l0x_api_core.c **** 	uint32_t SubTimeout = 0;
1127:Api\core\src/vl53l0x_api_core.c **** 
1128:Api\core\src/vl53l0x_api_core.c **** 	LOG_FUNCTION_START("");
1129:Api\core\src/vl53l0x_api_core.c **** 
1130:Api\core\src/vl53l0x_api_core.c **** 	if (MeasurementTimingBudgetMicroSeconds
 3004              		.loc 1 1130 0
 3005 0012 3A4B     		ldr	r3, .L145
 3006 0014 9942     		cmp	r1, r3
 3007 0016 6CD9     		bls	.L135
1131:Api\core\src/vl53l0x_api_core.c **** 			< cMinTimingBudgetMicroSeconds) {
1132:Api\core\src/vl53l0x_api_core.c **** 		Status = VL53L0X_ERROR_INVALID_PARAMS;
1133:Api\core\src/vl53l0x_api_core.c **** 		return Status;
1134:Api\core\src/vl53l0x_api_core.c **** 	}
1135:Api\core\src/vl53l0x_api_core.c **** 
1136:Api\core\src/vl53l0x_api_core.c **** 	FinalRangeTimingBudgetMicroSeconds =
 3008              		.loc 1 1136 0
 3009 0018 394B     		ldr	r3, .L145+4
 3010 001a CE18     		adds	r6, r1, r3
 3011              	.LVL552:
1137:Api\core\src/vl53l0x_api_core.c **** 		MeasurementTimingBudgetMicroSeconds -
1138:Api\core\src/vl53l0x_api_core.c **** 		(StartOverheadMicroSeconds + EndOverheadMicroSeconds);
1139:Api\core\src/vl53l0x_api_core.c **** 
1140:Api\core\src/vl53l0x_api_core.c **** 	Status = VL53L0X_GetSequenceStepEnables(Dev, &SchedulerSequenceSteps);
 3012              		.loc 1 1140 0
 3013 001c 02A9     		add	r1, sp, #8
 3014              	.LVL553:
 3015 001e FFF7FEFF 		bl	VL53L0X_GetSequenceStepEnables
 3016              	.LVL554:
1141:Api\core\src/vl53l0x_api_core.c **** 
1142:Api\core\src/vl53l0x_api_core.c **** 	if (Status == VL53L0X_ERROR_NONE &&
 3017              		.loc 1 1142 0
 3018 0022 0028     		cmp	r0, #0
 3019 0024 41D1     		bne	.L130
1143:Api\core\src/vl53l0x_api_core.c **** 		(SchedulerSequenceSteps.TccOn  ||
 3020              		.loc 1 1143 0 discriminator 1
 3021 0026 02AB     		add	r3, sp, #8
 3022 0028 1B78     		ldrb	r3, [r3]
ARM GAS  C:\Users\Rajesh\AppData\Local\Temp\ccMJoliC.s 			page 75


1142:Api\core\src/vl53l0x_api_core.c **** 		(SchedulerSequenceSteps.TccOn  ||
 3023              		.loc 1 1142 0 discriminator 1
 3024 002a 002B     		cmp	r3, #0
 3025 002c 07D1     		bne	.L131
1144:Api\core\src/vl53l0x_api_core.c **** 		SchedulerSequenceSteps.MsrcOn ||
 3026              		.loc 1 1144 0
 3027 002e 02AB     		add	r3, sp, #8
 3028 0030 5B78     		ldrb	r3, [r3, #1]
1143:Api\core\src/vl53l0x_api_core.c **** 		(SchedulerSequenceSteps.TccOn  ||
 3029              		.loc 1 1143 0
 3030 0032 002B     		cmp	r3, #0
 3031 0034 03D1     		bne	.L131
1145:Api\core\src/vl53l0x_api_core.c **** 		SchedulerSequenceSteps.DssOn)) {
 3032              		.loc 1 1145 0
 3033 0036 02AB     		add	r3, sp, #8
 3034 0038 9B78     		ldrb	r3, [r3, #2]
1144:Api\core\src/vl53l0x_api_core.c **** 		SchedulerSequenceSteps.MsrcOn ||
 3035              		.loc 1 1144 0
 3036 003a 002B     		cmp	r3, #0
 3037 003c 35D0     		beq	.L130
 3038              	.L131:
1146:Api\core\src/vl53l0x_api_core.c **** 
1147:Api\core\src/vl53l0x_api_core.c **** 		/* TCC, MSRC and DSS all share the same timeout */
1148:Api\core\src/vl53l0x_api_core.c **** 		Status = get_sequence_step_timeout(Dev,
 3039              		.loc 1 1148 0
 3040 003e 01AA     		add	r2, sp, #4
 3041 0040 0221     		movs	r1, #2
 3042 0042 2800     		movs	r0, r5
 3043              	.LVL555:
 3044 0044 FFF7FEFF 		bl	get_sequence_step_timeout
 3045              	.LVL556:
1149:Api\core\src/vl53l0x_api_core.c **** 					VL53L0X_SEQUENCESTEP_MSRC,
1150:Api\core\src/vl53l0x_api_core.c **** 					&MsrcDccTccTimeoutMicroSeconds);
1151:Api\core\src/vl53l0x_api_core.c **** 
1152:Api\core\src/vl53l0x_api_core.c **** 		/* Subtract the TCC, MSRC and DSS timeouts if they are
1153:Api\core\src/vl53l0x_api_core.c **** 		 * enabled. */
1154:Api\core\src/vl53l0x_api_core.c **** 
1155:Api\core\src/vl53l0x_api_core.c **** 		if (Status != VL53L0X_ERROR_NONE)
 3046              		.loc 1 1155 0
 3047 0048 0028     		cmp	r0, #0
 3048 004a 55D1     		bne	.L136
1156:Api\core\src/vl53l0x_api_core.c **** 			return Status;
1157:Api\core\src/vl53l0x_api_core.c **** 
1158:Api\core\src/vl53l0x_api_core.c **** 		/* TCC */
1159:Api\core\src/vl53l0x_api_core.c **** 		if (SchedulerSequenceSteps.TccOn) {
 3049              		.loc 1 1159 0
 3050 004c 02AB     		add	r3, sp, #8
 3051 004e 1B78     		ldrb	r3, [r3]
 3052 0050 002B     		cmp	r3, #0
 3053 0052 09D0     		beq	.L132
1160:Api\core\src/vl53l0x_api_core.c **** 
1161:Api\core\src/vl53l0x_api_core.c **** 			SubTimeout = MsrcDccTccTimeoutMicroSeconds
 3054              		.loc 1 1161 0
 3055 0054 019B     		ldr	r3, [sp, #4]
 3056 0056 2B4A     		ldr	r2, .L145+8
 3057 0058 9446     		mov	ip, r2
 3058 005a 6344     		add	r3, r3, ip
ARM GAS  C:\Users\Rajesh\AppData\Local\Temp\ccMJoliC.s 			page 76


 3059              	.LVL557:
1162:Api\core\src/vl53l0x_api_core.c **** 				+ TccOverheadMicroSeconds;
1163:Api\core\src/vl53l0x_api_core.c **** 
1164:Api\core\src/vl53l0x_api_core.c **** 			if (SubTimeout <
 3060              		.loc 1 1164 0
 3061 005c 9E42     		cmp	r6, r3
 3062 005e 01D9     		bls	.L137
1165:Api\core\src/vl53l0x_api_core.c **** 				FinalRangeTimingBudgetMicroSeconds) {
1166:Api\core\src/vl53l0x_api_core.c **** 				FinalRangeTimingBudgetMicroSeconds -=
 3063              		.loc 1 1166 0
 3064 0060 F61A     		subs	r6, r6, r3
 3065              	.LVL558:
 3066 0062 01E0     		b	.L132
 3067              	.L137:
1167:Api\core\src/vl53l0x_api_core.c **** 							SubTimeout;
1168:Api\core\src/vl53l0x_api_core.c **** 			} else {
1169:Api\core\src/vl53l0x_api_core.c **** 				/* Requested timeout too big. */
1170:Api\core\src/vl53l0x_api_core.c **** 				Status = VL53L0X_ERROR_INVALID_PARAMS;
 3068              		.loc 1 1170 0
 3069 0064 0420     		movs	r0, #4
 3070              	.LVL559:
 3071 0066 4042     		rsbs	r0, r0, #0
 3072              	.LVL560:
 3073              	.L132:
1171:Api\core\src/vl53l0x_api_core.c **** 			}
1172:Api\core\src/vl53l0x_api_core.c **** 		}
1173:Api\core\src/vl53l0x_api_core.c **** 
1174:Api\core\src/vl53l0x_api_core.c **** 		if (Status != VL53L0X_ERROR_NONE) {
 3074              		.loc 1 1174 0
 3075 0068 0028     		cmp	r0, #0
 3076 006a 45D1     		bne	.L129
1175:Api\core\src/vl53l0x_api_core.c **** 			LOG_FUNCTION_END(Status);
1176:Api\core\src/vl53l0x_api_core.c **** 			return Status;
1177:Api\core\src/vl53l0x_api_core.c **** 		}
1178:Api\core\src/vl53l0x_api_core.c **** 
1179:Api\core\src/vl53l0x_api_core.c **** 		/* DSS */
1180:Api\core\src/vl53l0x_api_core.c **** 		if (SchedulerSequenceSteps.DssOn) {
 3077              		.loc 1 1180 0
 3078 006c 02AB     		add	r3, sp, #8
 3079 006e 9B78     		ldrb	r3, [r3, #2]
 3080 0070 002B     		cmp	r3, #0
 3081 0072 08D0     		beq	.L133
1181:Api\core\src/vl53l0x_api_core.c **** 
1182:Api\core\src/vl53l0x_api_core.c **** 			SubTimeout = 2 * (MsrcDccTccTimeoutMicroSeconds +
 3082              		.loc 1 1182 0
 3083 0074 019B     		ldr	r3, [sp, #4]
 3084 0076 244A     		ldr	r2, .L145+12
 3085 0078 9446     		mov	ip, r2
 3086 007a 6344     		add	r3, r3, ip
 3087 007c 5B00     		lsls	r3, r3, #1
 3088              	.LVL561:
1183:Api\core\src/vl53l0x_api_core.c **** 				DssOverheadMicroSeconds);
1184:Api\core\src/vl53l0x_api_core.c **** 
1185:Api\core\src/vl53l0x_api_core.c **** 			if (SubTimeout < FinalRangeTimingBudgetMicroSeconds) {
 3089              		.loc 1 1185 0
 3090 007e 9E42     		cmp	r6, r3
 3091 0080 0ED9     		bls	.L139
ARM GAS  C:\Users\Rajesh\AppData\Local\Temp\ccMJoliC.s 			page 77


1186:Api\core\src/vl53l0x_api_core.c **** 				FinalRangeTimingBudgetMicroSeconds
1187:Api\core\src/vl53l0x_api_core.c **** 							-= SubTimeout;
 3092              		.loc 1 1187 0
 3093 0082 F61A     		subs	r6, r6, r3
 3094              	.LVL562:
 3095 0084 11E0     		b	.L130
 3096              	.LVL563:
 3097              	.L133:
1188:Api\core\src/vl53l0x_api_core.c **** 			} else {
1189:Api\core\src/vl53l0x_api_core.c **** 				/* Requested timeout too big. */
1190:Api\core\src/vl53l0x_api_core.c **** 				Status = VL53L0X_ERROR_INVALID_PARAMS;
1191:Api\core\src/vl53l0x_api_core.c **** 			}
1192:Api\core\src/vl53l0x_api_core.c **** 		} else if (SchedulerSequenceSteps.MsrcOn) {
 3098              		.loc 1 1192 0
 3099 0086 02AB     		add	r3, sp, #8
 3100 0088 5B78     		ldrb	r3, [r3, #1]
 3101 008a 002B     		cmp	r3, #0
 3102 008c 0DD0     		beq	.L130
1193:Api\core\src/vl53l0x_api_core.c **** 			/* MSRC */
1194:Api\core\src/vl53l0x_api_core.c **** 			SubTimeout = MsrcDccTccTimeoutMicroSeconds +
 3103              		.loc 1 1194 0
 3104 008e 019B     		ldr	r3, [sp, #4]
 3105 0090 A522     		movs	r2, #165
 3106 0092 9200     		lsls	r2, r2, #2
 3107 0094 9446     		mov	ip, r2
 3108 0096 6344     		add	r3, r3, ip
 3109              	.LVL564:
1195:Api\core\src/vl53l0x_api_core.c **** 						MsrcOverheadMicroSeconds;
1196:Api\core\src/vl53l0x_api_core.c **** 
1197:Api\core\src/vl53l0x_api_core.c **** 			if (SubTimeout < FinalRangeTimingBudgetMicroSeconds) {
 3110              		.loc 1 1197 0
 3111 0098 9E42     		cmp	r6, r3
 3112 009a 04D9     		bls	.L140
1198:Api\core\src/vl53l0x_api_core.c **** 				FinalRangeTimingBudgetMicroSeconds
1199:Api\core\src/vl53l0x_api_core.c **** 							-= SubTimeout;
 3113              		.loc 1 1199 0
 3114 009c F61A     		subs	r6, r6, r3
 3115              	.LVL565:
 3116 009e 04E0     		b	.L130
 3117              	.L139:
1190:Api\core\src/vl53l0x_api_core.c **** 			}
 3118              		.loc 1 1190 0
 3119 00a0 0420     		movs	r0, #4
 3120              	.LVL566:
 3121 00a2 4042     		rsbs	r0, r0, #0
 3122 00a4 01E0     		b	.L130
 3123              	.LVL567:
 3124              	.L140:
1200:Api\core\src/vl53l0x_api_core.c **** 			} else {
1201:Api\core\src/vl53l0x_api_core.c **** 				/* Requested timeout too big. */
1202:Api\core\src/vl53l0x_api_core.c **** 				Status = VL53L0X_ERROR_INVALID_PARAMS;
 3125              		.loc 1 1202 0
 3126 00a6 0420     		movs	r0, #4
 3127              	.LVL568:
 3128 00a8 4042     		rsbs	r0, r0, #0
 3129              	.LVL569:
 3130              	.L130:
ARM GAS  C:\Users\Rajesh\AppData\Local\Temp\ccMJoliC.s 			page 78


1203:Api\core\src/vl53l0x_api_core.c **** 			}
1204:Api\core\src/vl53l0x_api_core.c **** 		}
1205:Api\core\src/vl53l0x_api_core.c **** 
1206:Api\core\src/vl53l0x_api_core.c **** 	}
1207:Api\core\src/vl53l0x_api_core.c **** 
1208:Api\core\src/vl53l0x_api_core.c **** 	if (Status != VL53L0X_ERROR_NONE) {
 3131              		.loc 1 1208 0
 3132 00aa 0028     		cmp	r0, #0
 3133 00ac 24D1     		bne	.L129
1209:Api\core\src/vl53l0x_api_core.c **** 		LOG_FUNCTION_END(Status);
1210:Api\core\src/vl53l0x_api_core.c **** 		return Status;
1211:Api\core\src/vl53l0x_api_core.c **** 	}
1212:Api\core\src/vl53l0x_api_core.c **** 
1213:Api\core\src/vl53l0x_api_core.c **** 	if (SchedulerSequenceSteps.PreRangeOn) {
 3134              		.loc 1 1213 0
 3135 00ae 02AB     		add	r3, sp, #8
 3136 00b0 DB78     		ldrb	r3, [r3, #3]
 3137 00b2 002B     		cmp	r3, #0
 3138 00b4 0FD0     		beq	.L134
1214:Api\core\src/vl53l0x_api_core.c **** 
1215:Api\core\src/vl53l0x_api_core.c **** 		/* Subtract the Pre-range timeout if enabled. */
1216:Api\core\src/vl53l0x_api_core.c **** 
1217:Api\core\src/vl53l0x_api_core.c **** 		Status = get_sequence_step_timeout(Dev,
 3139              		.loc 1 1217 0
 3140 00b6 6A46     		mov	r2, sp
 3141 00b8 0321     		movs	r1, #3
 3142 00ba 2800     		movs	r0, r5
 3143              	.LVL570:
 3144 00bc FFF7FEFF 		bl	get_sequence_step_timeout
 3145              	.LVL571:
1218:Api\core\src/vl53l0x_api_core.c **** 				VL53L0X_SEQUENCESTEP_PRE_RANGE,
1219:Api\core\src/vl53l0x_api_core.c **** 				&PreRangeTimeoutMicroSeconds);
1220:Api\core\src/vl53l0x_api_core.c **** 
1221:Api\core\src/vl53l0x_api_core.c **** 		SubTimeout = PreRangeTimeoutMicroSeconds +
 3146              		.loc 1 1221 0
 3147 00c0 009B     		ldr	r3, [sp]
 3148 00c2 A522     		movs	r2, #165
 3149 00c4 9200     		lsls	r2, r2, #2
 3150 00c6 9446     		mov	ip, r2
 3151 00c8 6344     		add	r3, r3, ip
 3152              	.LVL572:
1222:Api\core\src/vl53l0x_api_core.c **** 				PreRangeOverheadMicroSeconds;
1223:Api\core\src/vl53l0x_api_core.c **** 
1224:Api\core\src/vl53l0x_api_core.c **** 		if (SubTimeout < FinalRangeTimingBudgetMicroSeconds) {
 3153              		.loc 1 1224 0
 3154 00ca 9E42     		cmp	r6, r3
 3155 00cc 01D9     		bls	.L142
1225:Api\core\src/vl53l0x_api_core.c **** 			FinalRangeTimingBudgetMicroSeconds -= SubTimeout;
 3156              		.loc 1 1225 0
 3157 00ce F61A     		subs	r6, r6, r3
 3158              	.LVL573:
 3159 00d0 01E0     		b	.L134
 3160              	.L142:
1226:Api\core\src/vl53l0x_api_core.c **** 		} else {
1227:Api\core\src/vl53l0x_api_core.c **** 			/* Requested timeout too big. */
1228:Api\core\src/vl53l0x_api_core.c **** 			Status = VL53L0X_ERROR_INVALID_PARAMS;
 3161              		.loc 1 1228 0
ARM GAS  C:\Users\Rajesh\AppData\Local\Temp\ccMJoliC.s 			page 79


 3162 00d2 0420     		movs	r0, #4
 3163              	.LVL574:
 3164 00d4 4042     		rsbs	r0, r0, #0
 3165              	.LVL575:
 3166              	.L134:
1229:Api\core\src/vl53l0x_api_core.c **** 		}
1230:Api\core\src/vl53l0x_api_core.c **** 	}
1231:Api\core\src/vl53l0x_api_core.c **** 
1232:Api\core\src/vl53l0x_api_core.c **** 
1233:Api\core\src/vl53l0x_api_core.c **** 	if (Status == VL53L0X_ERROR_NONE &&
 3167              		.loc 1 1233 0
 3168 00d6 0028     		cmp	r0, #0
 3169 00d8 0ED1     		bne	.L129
1234:Api\core\src/vl53l0x_api_core.c **** 		SchedulerSequenceSteps.FinalRangeOn) {
 3170              		.loc 1 1234 0 discriminator 1
 3171 00da 02AB     		add	r3, sp, #8
 3172 00dc 1B79     		ldrb	r3, [r3, #4]
1233:Api\core\src/vl53l0x_api_core.c **** 		SchedulerSequenceSteps.FinalRangeOn) {
 3173              		.loc 1 1233 0 discriminator 1
 3174 00de 002B     		cmp	r3, #0
 3175 00e0 0AD0     		beq	.L129
1235:Api\core\src/vl53l0x_api_core.c **** 
1236:Api\core\src/vl53l0x_api_core.c **** 		FinalRangeTimingBudgetMicroSeconds -=
 3176              		.loc 1 1236 0
 3177 00e2 0A4B     		ldr	r3, .L145+16
 3178 00e4 F218     		adds	r2, r6, r3
 3179              	.LVL576:
1237:Api\core\src/vl53l0x_api_core.c **** 				FinalRangeOverheadMicroSeconds;
1238:Api\core\src/vl53l0x_api_core.c **** 
1239:Api\core\src/vl53l0x_api_core.c **** 		/* Final Range Timeout
1240:Api\core\src/vl53l0x_api_core.c **** 		 * Note that the final range timeout is determined by the timing
1241:Api\core\src/vl53l0x_api_core.c **** 		 * budget and the sum of all other timeouts within the sequence.
1242:Api\core\src/vl53l0x_api_core.c **** 		 * If there is no room for the final range timeout, then an error
1243:Api\core\src/vl53l0x_api_core.c **** 		 * will be set. Otherwise the remaining time will be applied to
1244:Api\core\src/vl53l0x_api_core.c **** 		 * the final range.
1245:Api\core\src/vl53l0x_api_core.c **** 		 */
1246:Api\core\src/vl53l0x_api_core.c **** 		Status = set_sequence_step_timeout(Dev,
 3180              		.loc 1 1246 0
 3181 00e6 0421     		movs	r1, #4
 3182 00e8 2800     		movs	r0, r5
 3183              	.LVL577:
 3184 00ea FFF7FEFF 		bl	set_sequence_step_timeout
 3185              	.LVL578:
1247:Api\core\src/vl53l0x_api_core.c **** 			VL53L0X_SEQUENCESTEP_FINAL_RANGE,
1248:Api\core\src/vl53l0x_api_core.c **** 			FinalRangeTimingBudgetMicroSeconds);
1249:Api\core\src/vl53l0x_api_core.c **** 
1250:Api\core\src/vl53l0x_api_core.c **** 		VL53L0X_SETPARAMETERFIELD(Dev,
 3186              		.loc 1 1250 0
 3187 00ee 6C61     		str	r4, [r5, #20]
 3188 00f0 02E0     		b	.L129
 3189              	.LVL579:
 3190              	.L135:
1133:Api\core\src/vl53l0x_api_core.c **** 	}
 3191              		.loc 1 1133 0
 3192 00f2 0420     		movs	r0, #4
 3193              	.LVL580:
 3194 00f4 4042     		rsbs	r0, r0, #0
ARM GAS  C:\Users\Rajesh\AppData\Local\Temp\ccMJoliC.s 			page 80


 3195 00f6 FFE7     		b	.L129
 3196              	.LVL581:
 3197              	.L136:
 3198              	.L129:
1251:Api\core\src/vl53l0x_api_core.c **** 			MeasurementTimingBudgetMicroSeconds,
1252:Api\core\src/vl53l0x_api_core.c **** 			MeasurementTimingBudgetMicroSeconds);
1253:Api\core\src/vl53l0x_api_core.c **** 	}
1254:Api\core\src/vl53l0x_api_core.c **** 
1255:Api\core\src/vl53l0x_api_core.c **** 	LOG_FUNCTION_END(Status);
1256:Api\core\src/vl53l0x_api_core.c **** 
1257:Api\core\src/vl53l0x_api_core.c **** 	return Status;
1258:Api\core\src/vl53l0x_api_core.c **** }
 3199              		.loc 1 1258 0
 3200 00f8 04B0     		add	sp, sp, #16
 3201              		@ sp needed
 3202              	.LVL582:
 3203              	.LVL583:
 3204 00fa 70BD     		pop	{r4, r5, r6, pc}
 3205              	.L146:
 3206              		.align	2
 3207              	.L145:
 3208 00fc 1F4E0000 		.word	19999
 3209 0100 CAF4FFFF 		.word	-2870
 3210 0104 4E020000 		.word	590
 3211 0108 B2020000 		.word	690
 3212 010c DAFDFFFF 		.word	-550
 3213              		.cfi_endproc
 3214              	.LFE18:
 3215              		.size	VL53L0X_set_measurement_timing_budget_micro_seconds, .-VL53L0X_set_measurement_timing_budget
 3216              		.section	.text.VL53L0X_get_measurement_timing_budget_micro_seconds,"ax",%progbits
 3217              		.align	2
 3218              		.global	VL53L0X_get_measurement_timing_budget_micro_seconds
 3219              		.code	16
 3220              		.thumb_func
 3221              		.type	VL53L0X_get_measurement_timing_budget_micro_seconds, %function
 3222              	VL53L0X_get_measurement_timing_budget_micro_seconds:
 3223              	.LFB19:
1259:Api\core\src/vl53l0x_api_core.c **** 
1260:Api\core\src/vl53l0x_api_core.c **** VL53L0X_Error VL53L0X_get_measurement_timing_budget_micro_seconds(VL53L0X_DEV Dev,
1261:Api\core\src/vl53l0x_api_core.c **** 		uint32_t *pMeasurementTimingBudgetMicroSeconds)
1262:Api\core\src/vl53l0x_api_core.c **** {
 3224              		.loc 1 1262 0
 3225              		.cfi_startproc
 3226              		@ args = 0, pretend = 0, frame = 24
 3227              		@ frame_needed = 0, uses_anonymous_args = 0
 3228              	.LVL584:
 3229 0000 30B5     		push	{r4, r5, lr}
 3230              		.cfi_def_cfa_offset 12
 3231              		.cfi_offset 4, -12
 3232              		.cfi_offset 5, -8
 3233              		.cfi_offset 14, -4
 3234 0002 87B0     		sub	sp, sp, #28
 3235              		.cfi_def_cfa_offset 40
 3236 0004 0500     		movs	r5, r0
 3237 0006 0C00     		movs	r4, r1
 3238              	.LVL585:
1263:Api\core\src/vl53l0x_api_core.c **** 	VL53L0X_Error Status = VL53L0X_ERROR_NONE;
ARM GAS  C:\Users\Rajesh\AppData\Local\Temp\ccMJoliC.s 			page 81


1264:Api\core\src/vl53l0x_api_core.c **** 	VL53L0X_SchedulerSequenceSteps_t SchedulerSequenceSteps;
1265:Api\core\src/vl53l0x_api_core.c **** 	uint32_t FinalRangeTimeoutMicroSeconds;
1266:Api\core\src/vl53l0x_api_core.c **** 	uint32_t MsrcDccTccTimeoutMicroSeconds	= 2000;
 3239              		.loc 1 1266 0
 3240 0008 FA23     		movs	r3, #250
 3241 000a DB00     		lsls	r3, r3, #3
 3242 000c 0293     		str	r3, [sp, #8]
 3243              	.LVL586:
1267:Api\core\src/vl53l0x_api_core.c **** 	uint32_t StartOverheadMicroSeconds		= 1910;
1268:Api\core\src/vl53l0x_api_core.c **** 	uint32_t EndOverheadMicroSeconds		= 960;
1269:Api\core\src/vl53l0x_api_core.c **** 	uint32_t MsrcOverheadMicroSeconds		= 660;
1270:Api\core\src/vl53l0x_api_core.c **** 	uint32_t TccOverheadMicroSeconds		= 590;
1271:Api\core\src/vl53l0x_api_core.c **** 	uint32_t DssOverheadMicroSeconds		= 690;
1272:Api\core\src/vl53l0x_api_core.c **** 	uint32_t PreRangeOverheadMicroSeconds	= 660;
1273:Api\core\src/vl53l0x_api_core.c **** 	uint32_t FinalRangeOverheadMicroSeconds = 550;
1274:Api\core\src/vl53l0x_api_core.c **** 	uint32_t PreRangeTimeoutMicroSeconds	= 0;
 3244              		.loc 1 1274 0
 3245 000e 0023     		movs	r3, #0
 3246 0010 0193     		str	r3, [sp, #4]
1275:Api\core\src/vl53l0x_api_core.c **** 
1276:Api\core\src/vl53l0x_api_core.c **** 	LOG_FUNCTION_START("");
1277:Api\core\src/vl53l0x_api_core.c **** 
1278:Api\core\src/vl53l0x_api_core.c **** 	/* Start and end overhead times always present */
1279:Api\core\src/vl53l0x_api_core.c **** 	*pMeasurementTimingBudgetMicroSeconds
1280:Api\core\src/vl53l0x_api_core.c **** 		= StartOverheadMicroSeconds + EndOverheadMicroSeconds;
 3247              		.loc 1 1280 0
 3248 0012 374B     		ldr	r3, .L155
 3249 0014 0B60     		str	r3, [r1]
1281:Api\core\src/vl53l0x_api_core.c **** 
1282:Api\core\src/vl53l0x_api_core.c **** 	Status = VL53L0X_GetSequenceStepEnables(Dev, &SchedulerSequenceSteps);
 3250              		.loc 1 1282 0
 3251 0016 04A9     		add	r1, sp, #16
 3252              	.LVL587:
 3253 0018 FFF7FEFF 		bl	VL53L0X_GetSequenceStepEnables
 3254              	.LVL588:
1283:Api\core\src/vl53l0x_api_core.c **** 
1284:Api\core\src/vl53l0x_api_core.c **** 	if (Status != VL53L0X_ERROR_NONE) {
 3255              		.loc 1 1284 0
 3256 001c 0028     		cmp	r0, #0
 3257 001e 64D1     		bne	.L148
1285:Api\core\src/vl53l0x_api_core.c **** 		LOG_FUNCTION_END(Status);
1286:Api\core\src/vl53l0x_api_core.c **** 		return Status;
1287:Api\core\src/vl53l0x_api_core.c **** 	}
1288:Api\core\src/vl53l0x_api_core.c **** 
1289:Api\core\src/vl53l0x_api_core.c **** 
1290:Api\core\src/vl53l0x_api_core.c **** 	if (SchedulerSequenceSteps.TccOn  ||
 3258              		.loc 1 1290 0
 3259 0020 04AB     		add	r3, sp, #16
 3260 0022 1B78     		ldrb	r3, [r3]
 3261 0024 002B     		cmp	r3, #0
 3262 0026 07D1     		bne	.L149
1291:Api\core\src/vl53l0x_api_core.c **** 		SchedulerSequenceSteps.MsrcOn ||
 3263              		.loc 1 1291 0 discriminator 1
 3264 0028 04AB     		add	r3, sp, #16
 3265 002a 5B78     		ldrb	r3, [r3, #1]
1290:Api\core\src/vl53l0x_api_core.c **** 		SchedulerSequenceSteps.MsrcOn ||
 3266              		.loc 1 1290 0 discriminator 1
ARM GAS  C:\Users\Rajesh\AppData\Local\Temp\ccMJoliC.s 			page 82


 3267 002c 002B     		cmp	r3, #0
 3268 002e 03D1     		bne	.L149
1292:Api\core\src/vl53l0x_api_core.c **** 		SchedulerSequenceSteps.DssOn) {
 3269              		.loc 1 1292 0
 3270 0030 04AB     		add	r3, sp, #16
 3271 0032 9B78     		ldrb	r3, [r3, #2]
1291:Api\core\src/vl53l0x_api_core.c **** 		SchedulerSequenceSteps.MsrcOn ||
 3272              		.loc 1 1291 0
 3273 0034 002B     		cmp	r3, #0
 3274 0036 2DD0     		beq	.L150
 3275              	.L149:
1293:Api\core\src/vl53l0x_api_core.c **** 
1294:Api\core\src/vl53l0x_api_core.c **** 		Status = get_sequence_step_timeout(Dev,
 3276              		.loc 1 1294 0
 3277 0038 02AA     		add	r2, sp, #8
 3278 003a 0221     		movs	r1, #2
 3279 003c 2800     		movs	r0, r5
 3280              	.LVL589:
 3281 003e FFF7FEFF 		bl	get_sequence_step_timeout
 3282              	.LVL590:
1295:Api\core\src/vl53l0x_api_core.c **** 				VL53L0X_SEQUENCESTEP_MSRC,
1296:Api\core\src/vl53l0x_api_core.c **** 				&MsrcDccTccTimeoutMicroSeconds);
1297:Api\core\src/vl53l0x_api_core.c **** 
1298:Api\core\src/vl53l0x_api_core.c **** 		if (Status == VL53L0X_ERROR_NONE) {
 3283              		.loc 1 1298 0
 3284 0042 0028     		cmp	r0, #0
 3285 0044 26D1     		bne	.L150
1299:Api\core\src/vl53l0x_api_core.c **** 			if (SchedulerSequenceSteps.TccOn) {
 3286              		.loc 1 1299 0
 3287 0046 04AB     		add	r3, sp, #16
 3288 0048 1B78     		ldrb	r3, [r3]
 3289 004a 002B     		cmp	r3, #0
 3290 004c 07D0     		beq	.L151
1300:Api\core\src/vl53l0x_api_core.c **** 				*pMeasurementTimingBudgetMicroSeconds +=
1301:Api\core\src/vl53l0x_api_core.c **** 					MsrcDccTccTimeoutMicroSeconds +
 3291              		.loc 1 1301 0
 3292 004e 029B     		ldr	r3, [sp, #8]
 3293 0050 284A     		ldr	r2, .L155+4
 3294 0052 9446     		mov	ip, r2
 3295 0054 6344     		add	r3, r3, ip
1300:Api\core\src/vl53l0x_api_core.c **** 				*pMeasurementTimingBudgetMicroSeconds +=
 3296              		.loc 1 1300 0
 3297 0056 2268     		ldr	r2, [r4]
 3298 0058 9446     		mov	ip, r2
 3299 005a 6344     		add	r3, r3, ip
 3300 005c 2360     		str	r3, [r4]
 3301              	.L151:
1302:Api\core\src/vl53l0x_api_core.c **** 					TccOverheadMicroSeconds;
1303:Api\core\src/vl53l0x_api_core.c **** 			}
1304:Api\core\src/vl53l0x_api_core.c **** 
1305:Api\core\src/vl53l0x_api_core.c **** 			if (SchedulerSequenceSteps.DssOn) {
 3302              		.loc 1 1305 0
 3303 005e 04AB     		add	r3, sp, #16
 3304 0060 9B78     		ldrb	r3, [r3, #2]
 3305 0062 002B     		cmp	r3, #0
 3306 0064 09D0     		beq	.L152
1306:Api\core\src/vl53l0x_api_core.c **** 				*pMeasurementTimingBudgetMicroSeconds +=
ARM GAS  C:\Users\Rajesh\AppData\Local\Temp\ccMJoliC.s 			page 83


1307:Api\core\src/vl53l0x_api_core.c **** 				2 * (MsrcDccTccTimeoutMicroSeconds +
 3307              		.loc 1 1307 0
 3308 0066 029B     		ldr	r3, [sp, #8]
 3309 0068 234A     		ldr	r2, .L155+8
 3310 006a 9446     		mov	ip, r2
 3311 006c 6344     		add	r3, r3, ip
 3312 006e 5B00     		lsls	r3, r3, #1
1306:Api\core\src/vl53l0x_api_core.c **** 				*pMeasurementTimingBudgetMicroSeconds +=
 3313              		.loc 1 1306 0
 3314 0070 2268     		ldr	r2, [r4]
 3315 0072 9446     		mov	ip, r2
 3316 0074 6344     		add	r3, r3, ip
 3317 0076 2360     		str	r3, [r4]
 3318 0078 0CE0     		b	.L150
 3319              	.L152:
1308:Api\core\src/vl53l0x_api_core.c **** 					DssOverheadMicroSeconds);
1309:Api\core\src/vl53l0x_api_core.c **** 			} else if (SchedulerSequenceSteps.MsrcOn) {
 3320              		.loc 1 1309 0
 3321 007a 04AB     		add	r3, sp, #16
 3322 007c 5B78     		ldrb	r3, [r3, #1]
 3323 007e 002B     		cmp	r3, #0
 3324 0080 08D0     		beq	.L150
1310:Api\core\src/vl53l0x_api_core.c **** 				*pMeasurementTimingBudgetMicroSeconds +=
1311:Api\core\src/vl53l0x_api_core.c **** 					MsrcDccTccTimeoutMicroSeconds +
 3325              		.loc 1 1311 0
 3326 0082 029B     		ldr	r3, [sp, #8]
 3327 0084 A522     		movs	r2, #165
 3328 0086 9200     		lsls	r2, r2, #2
 3329 0088 9446     		mov	ip, r2
 3330 008a 6344     		add	r3, r3, ip
1310:Api\core\src/vl53l0x_api_core.c **** 				*pMeasurementTimingBudgetMicroSeconds +=
 3331              		.loc 1 1310 0
 3332 008c 2268     		ldr	r2, [r4]
 3333 008e 9446     		mov	ip, r2
 3334 0090 6344     		add	r3, r3, ip
 3335 0092 2360     		str	r3, [r4]
 3336              	.LVL591:
 3337              	.L150:
1312:Api\core\src/vl53l0x_api_core.c **** 					MsrcOverheadMicroSeconds;
1313:Api\core\src/vl53l0x_api_core.c **** 			}
1314:Api\core\src/vl53l0x_api_core.c **** 		}
1315:Api\core\src/vl53l0x_api_core.c **** 	}
1316:Api\core\src/vl53l0x_api_core.c **** 
1317:Api\core\src/vl53l0x_api_core.c **** 	if (Status == VL53L0X_ERROR_NONE) {
 3338              		.loc 1 1317 0
 3339 0094 0028     		cmp	r0, #0
 3340 0096 11D1     		bne	.L153
1318:Api\core\src/vl53l0x_api_core.c **** 		if (SchedulerSequenceSteps.PreRangeOn) {
 3341              		.loc 1 1318 0
 3342 0098 04AB     		add	r3, sp, #16
 3343 009a DB78     		ldrb	r3, [r3, #3]
 3344 009c 002B     		cmp	r3, #0
 3345 009e 0DD0     		beq	.L153
1319:Api\core\src/vl53l0x_api_core.c **** 			Status = get_sequence_step_timeout(Dev,
 3346              		.loc 1 1319 0
 3347 00a0 01AA     		add	r2, sp, #4
 3348 00a2 0321     		movs	r1, #3
ARM GAS  C:\Users\Rajesh\AppData\Local\Temp\ccMJoliC.s 			page 84


 3349 00a4 2800     		movs	r0, r5
 3350              	.LVL592:
 3351 00a6 FFF7FEFF 		bl	get_sequence_step_timeout
 3352              	.LVL593:
1320:Api\core\src/vl53l0x_api_core.c **** 				VL53L0X_SEQUENCESTEP_PRE_RANGE,
1321:Api\core\src/vl53l0x_api_core.c **** 				&PreRangeTimeoutMicroSeconds);
1322:Api\core\src/vl53l0x_api_core.c **** 			*pMeasurementTimingBudgetMicroSeconds +=
1323:Api\core\src/vl53l0x_api_core.c **** 				PreRangeTimeoutMicroSeconds +
 3353              		.loc 1 1323 0
 3354 00aa 019B     		ldr	r3, [sp, #4]
 3355 00ac A522     		movs	r2, #165
 3356 00ae 9200     		lsls	r2, r2, #2
 3357 00b0 9446     		mov	ip, r2
 3358 00b2 6344     		add	r3, r3, ip
1322:Api\core\src/vl53l0x_api_core.c **** 				PreRangeTimeoutMicroSeconds +
 3359              		.loc 1 1322 0
 3360 00b4 2268     		ldr	r2, [r4]
 3361 00b6 9446     		mov	ip, r2
 3362 00b8 6344     		add	r3, r3, ip
 3363 00ba 2360     		str	r3, [r4]
 3364              	.LVL594:
 3365              	.L153:
1324:Api\core\src/vl53l0x_api_core.c **** 				PreRangeOverheadMicroSeconds;
1325:Api\core\src/vl53l0x_api_core.c **** 		}
1326:Api\core\src/vl53l0x_api_core.c **** 	}
1327:Api\core\src/vl53l0x_api_core.c **** 
1328:Api\core\src/vl53l0x_api_core.c **** 	if (Status == VL53L0X_ERROR_NONE) {
 3366              		.loc 1 1328 0
 3367 00bc 0028     		cmp	r0, #0
 3368 00be 10D1     		bne	.L154
1329:Api\core\src/vl53l0x_api_core.c **** 		if (SchedulerSequenceSteps.FinalRangeOn) {
 3369              		.loc 1 1329 0
 3370 00c0 04AB     		add	r3, sp, #16
 3371 00c2 1B79     		ldrb	r3, [r3, #4]
 3372 00c4 002B     		cmp	r3, #0
 3373 00c6 0CD0     		beq	.L154
1330:Api\core\src/vl53l0x_api_core.c **** 			Status = get_sequence_step_timeout(Dev,
 3374              		.loc 1 1330 0
 3375 00c8 03AA     		add	r2, sp, #12
 3376 00ca 0421     		movs	r1, #4
 3377 00cc 2800     		movs	r0, r5
 3378              	.LVL595:
 3379 00ce FFF7FEFF 		bl	get_sequence_step_timeout
 3380              	.LVL596:
1331:Api\core\src/vl53l0x_api_core.c **** 					VL53L0X_SEQUENCESTEP_FINAL_RANGE,
1332:Api\core\src/vl53l0x_api_core.c **** 					&FinalRangeTimeoutMicroSeconds);
1333:Api\core\src/vl53l0x_api_core.c **** 			*pMeasurementTimingBudgetMicroSeconds +=
1334:Api\core\src/vl53l0x_api_core.c **** 				(FinalRangeTimeoutMicroSeconds +
 3381              		.loc 1 1334 0
 3382 00d2 039B     		ldr	r3, [sp, #12]
 3383 00d4 094A     		ldr	r2, .L155+12
 3384 00d6 9446     		mov	ip, r2
 3385 00d8 6344     		add	r3, r3, ip
1333:Api\core\src/vl53l0x_api_core.c **** 				(FinalRangeTimeoutMicroSeconds +
 3386              		.loc 1 1333 0
 3387 00da 2268     		ldr	r2, [r4]
 3388 00dc 9446     		mov	ip, r2
ARM GAS  C:\Users\Rajesh\AppData\Local\Temp\ccMJoliC.s 			page 85


 3389 00de 6344     		add	r3, r3, ip
 3390 00e0 2360     		str	r3, [r4]
 3391              	.LVL597:
 3392              	.L154:
1335:Api\core\src/vl53l0x_api_core.c **** 				FinalRangeOverheadMicroSeconds);
1336:Api\core\src/vl53l0x_api_core.c **** 		}
1337:Api\core\src/vl53l0x_api_core.c **** 	}
1338:Api\core\src/vl53l0x_api_core.c **** 
1339:Api\core\src/vl53l0x_api_core.c **** 	if (Status == VL53L0X_ERROR_NONE) {
 3393              		.loc 1 1339 0
 3394 00e2 0028     		cmp	r0, #0
 3395 00e4 01D1     		bne	.L148
1340:Api\core\src/vl53l0x_api_core.c **** 		VL53L0X_SETPARAMETERFIELD(Dev,
 3396              		.loc 1 1340 0
 3397 00e6 2368     		ldr	r3, [r4]
 3398 00e8 6B61     		str	r3, [r5, #20]
 3399              	.LVL598:
 3400              	.L148:
1341:Api\core\src/vl53l0x_api_core.c **** 			MeasurementTimingBudgetMicroSeconds,
1342:Api\core\src/vl53l0x_api_core.c **** 			*pMeasurementTimingBudgetMicroSeconds);
1343:Api\core\src/vl53l0x_api_core.c **** 	}
1344:Api\core\src/vl53l0x_api_core.c **** 
1345:Api\core\src/vl53l0x_api_core.c **** 	LOG_FUNCTION_END(Status);
1346:Api\core\src/vl53l0x_api_core.c **** 	return Status;
1347:Api\core\src/vl53l0x_api_core.c **** }
 3401              		.loc 1 1347 0
 3402 00ea 07B0     		add	sp, sp, #28
 3403              		@ sp needed
 3404              	.LVL599:
 3405              	.LVL600:
 3406 00ec 30BD     		pop	{r4, r5, pc}
 3407              	.L156:
 3408 00ee C046     		.align	2
 3409              	.L155:
 3410 00f0 360B0000 		.word	2870
 3411 00f4 4E020000 		.word	590
 3412 00f8 B2020000 		.word	690
 3413 00fc 26020000 		.word	550
 3414              		.cfi_endproc
 3415              	.LFE19:
 3416              		.size	VL53L0X_get_measurement_timing_budget_micro_seconds, .-VL53L0X_get_measurement_timing_budget
 3417              		.section	.text.VL53L0X_load_tuning_settings,"ax",%progbits
 3418              		.align	2
 3419              		.global	VL53L0X_load_tuning_settings
 3420              		.code	16
 3421              		.thumb_func
 3422              		.type	VL53L0X_load_tuning_settings, %function
 3423              	VL53L0X_load_tuning_settings:
 3424              	.LFB20:
1348:Api\core\src/vl53l0x_api_core.c **** 
1349:Api\core\src/vl53l0x_api_core.c **** 
1350:Api\core\src/vl53l0x_api_core.c **** 
1351:Api\core\src/vl53l0x_api_core.c **** VL53L0X_Error VL53L0X_load_tuning_settings(VL53L0X_DEV Dev,
1352:Api\core\src/vl53l0x_api_core.c **** 		uint8_t *pTuningSettingBuffer)
1353:Api\core\src/vl53l0x_api_core.c **** {
 3425              		.loc 1 1353 0
 3426              		.cfi_startproc
ARM GAS  C:\Users\Rajesh\AppData\Local\Temp\ccMJoliC.s 			page 86


 3427              		@ args = 0, pretend = 0, frame = 8
 3428              		@ frame_needed = 0, uses_anonymous_args = 0
 3429              	.LVL601:
 3430 0000 F0B5     		push	{r4, r5, r6, r7, lr}
 3431              		.cfi_def_cfa_offset 20
 3432              		.cfi_offset 4, -20
 3433              		.cfi_offset 5, -16
 3434              		.cfi_offset 6, -12
 3435              		.cfi_offset 7, -8
 3436              		.cfi_offset 14, -4
 3437 0002 83B0     		sub	sp, sp, #12
 3438              		.cfi_def_cfa_offset 32
 3439 0004 0500     		movs	r5, r0
 3440 0006 0E00     		movs	r6, r1
 3441              	.LVL602:
1354:Api\core\src/vl53l0x_api_core.c **** 	VL53L0X_Error Status = VL53L0X_ERROR_NONE;
1355:Api\core\src/vl53l0x_api_core.c **** 	int i;
1356:Api\core\src/vl53l0x_api_core.c **** 	int Index;
1357:Api\core\src/vl53l0x_api_core.c **** 	uint8_t msb;
1358:Api\core\src/vl53l0x_api_core.c **** 	uint8_t lsb;
1359:Api\core\src/vl53l0x_api_core.c **** 	uint8_t SelectParam;
1360:Api\core\src/vl53l0x_api_core.c **** 	uint8_t NumberOfWrites;
1361:Api\core\src/vl53l0x_api_core.c **** 	uint8_t Address;
1362:Api\core\src/vl53l0x_api_core.c **** 	uint8_t localBuffer[4]; /* max */
1363:Api\core\src/vl53l0x_api_core.c **** 	uint16_t Temp16;
1364:Api\core\src/vl53l0x_api_core.c **** 
1365:Api\core\src/vl53l0x_api_core.c **** 	LOG_FUNCTION_START("");
1366:Api\core\src/vl53l0x_api_core.c **** 
1367:Api\core\src/vl53l0x_api_core.c **** 	Index = 0;
 3442              		.loc 1 1367 0
 3443 0008 0024     		movs	r4, #0
1354:Api\core\src/vl53l0x_api_core.c **** 	VL53L0X_Error Status = VL53L0X_ERROR_NONE;
 3444              		.loc 1 1354 0
 3445 000a 0020     		movs	r0, #0
 3446              	.LVL603:
1368:Api\core\src/vl53l0x_api_core.c **** 
1369:Api\core\src/vl53l0x_api_core.c **** 	while ((*(pTuningSettingBuffer + Index) != 0) &&
 3447              		.loc 1 1369 0
 3448 000c 4EE0     		b	.L158
 3449              	.LVL604:
 3450              	.L168:
1370:Api\core\src/vl53l0x_api_core.c **** 			(Status == VL53L0X_ERROR_NONE)) {
1371:Api\core\src/vl53l0x_api_core.c **** 		NumberOfWrites = *(pTuningSettingBuffer + Index);
1372:Api\core\src/vl53l0x_api_core.c **** 		Index++;
 3451              		.loc 1 1372 0
 3452 000e 621C     		adds	r2, r4, #1
 3453              	.LVL605:
1373:Api\core\src/vl53l0x_api_core.c **** 		if (NumberOfWrites == 0xFF) {
 3454              		.loc 1 1373 0
 3455 0010 FF2B     		cmp	r3, #255
 3456 0012 32D1     		bne	.L159
1374:Api\core\src/vl53l0x_api_core.c **** 			/* internal parameters */
1375:Api\core\src/vl53l0x_api_core.c **** 			SelectParam = *(pTuningSettingBuffer + Index);
 3457              		.loc 1 1375 0
 3458 0014 B35C     		ldrb	r3, [r6, r2]
 3459              	.LVL606:
1376:Api\core\src/vl53l0x_api_core.c **** 			Index++;
ARM GAS  C:\Users\Rajesh\AppData\Local\Temp\ccMJoliC.s 			page 87


 3460              		.loc 1 1376 0
 3461 0016 A21C     		adds	r2, r4, #2
 3462              	.LVL607:
1377:Api\core\src/vl53l0x_api_core.c **** 			switch (SelectParam) {
 3463              		.loc 1 1377 0
 3464 0018 012B     		cmp	r3, #1
 3465 001a 10D0     		beq	.L161
 3466 001c 002B     		cmp	r3, #0
 3467 001e 04D0     		beq	.L162
 3468 0020 022B     		cmp	r3, #2
 3469 0022 16D0     		beq	.L163
 3470 0024 032B     		cmp	r3, #3
 3471 0026 1ED0     		beq	.L164
 3472 0028 39E0     		b	.L171
 3473              	.L162:
1378:Api\core\src/vl53l0x_api_core.c **** 			case 0: /* uint16_t SigmaEstRefArray -> 2 bytes */
1379:Api\core\src/vl53l0x_api_core.c **** 				msb = *(pTuningSettingBuffer + Index);
 3474              		.loc 1 1379 0
 3475 002a B35C     		ldrb	r3, [r6, r2]
 3476              	.LVL608:
1380:Api\core\src/vl53l0x_api_core.c **** 				Index++;
 3477              		.loc 1 1380 0
 3478 002c E21C     		adds	r2, r4, #3
 3479              	.LVL609:
1381:Api\core\src/vl53l0x_api_core.c **** 				lsb = *(pTuningSettingBuffer + Index);
1382:Api\core\src/vl53l0x_api_core.c **** 				Index++;
1383:Api\core\src/vl53l0x_api_core.c **** 				Temp16 = VL53L0X_MAKEUINT16(lsb, msb);
 3480              		.loc 1 1383 0
 3481 002e 1B02     		lsls	r3, r3, #8
 3482              	.LVL610:
 3483 0030 B25C     		ldrb	r2, [r6, r2]
 3484 0032 0434     		adds	r4, r4, #4
 3485              	.LVL611:
 3486 0034 9B18     		adds	r3, r3, r2
 3487              	.LVL612:
1384:Api\core\src/vl53l0x_api_core.c **** 				PALDevDataSet(Dev, SigmaEstRefArray, Temp16);
 3488              		.loc 1 1384 0
 3489 0036 9A22     		movs	r2, #154
 3490 0038 5200     		lsls	r2, r2, #1
 3491 003a AB52     		strh	r3, [r5, r2]
 3492              	.LVL613:
1385:Api\core\src/vl53l0x_api_core.c **** 				break;
 3493              		.loc 1 1385 0
 3494 003c 36E0     		b	.L158
 3495              	.LVL614:
 3496              	.L161:
1386:Api\core\src/vl53l0x_api_core.c **** 			case 1: /* uint16_t SigmaEstEffPulseWidth -> 2 bytes */
1387:Api\core\src/vl53l0x_api_core.c **** 				msb = *(pTuningSettingBuffer + Index);
 3497              		.loc 1 1387 0
 3498 003e B35C     		ldrb	r3, [r6, r2]
 3499              	.LVL615:
1388:Api\core\src/vl53l0x_api_core.c **** 				Index++;
 3500              		.loc 1 1388 0
 3501 0040 E21C     		adds	r2, r4, #3
 3502              	.LVL616:
1389:Api\core\src/vl53l0x_api_core.c **** 				lsb = *(pTuningSettingBuffer + Index);
1390:Api\core\src/vl53l0x_api_core.c **** 				Index++;
ARM GAS  C:\Users\Rajesh\AppData\Local\Temp\ccMJoliC.s 			page 88


1391:Api\core\src/vl53l0x_api_core.c **** 				Temp16 = VL53L0X_MAKEUINT16(lsb, msb);
 3503              		.loc 1 1391 0
 3504 0042 1B02     		lsls	r3, r3, #8
 3505              	.LVL617:
 3506 0044 B25C     		ldrb	r2, [r6, r2]
 3507 0046 0434     		adds	r4, r4, #4
 3508              	.LVL618:
 3509 0048 9B18     		adds	r3, r3, r2
 3510              	.LVL619:
1392:Api\core\src/vl53l0x_api_core.c **** 				PALDevDataSet(Dev, SigmaEstEffPulseWidth,
 3511              		.loc 1 1392 0
 3512 004a 9B22     		movs	r2, #155
 3513 004c 5200     		lsls	r2, r2, #1
 3514 004e AB52     		strh	r3, [r5, r2]
 3515              	.LVL620:
1393:Api\core\src/vl53l0x_api_core.c **** 					Temp16);
1394:Api\core\src/vl53l0x_api_core.c **** 				break;
 3516              		.loc 1 1394 0
 3517 0050 2CE0     		b	.L158
 3518              	.LVL621:
 3519              	.L163:
1395:Api\core\src/vl53l0x_api_core.c **** 			case 2: /* uint16_t SigmaEstEffAmbWidth -> 2 bytes */
1396:Api\core\src/vl53l0x_api_core.c **** 				msb = *(pTuningSettingBuffer + Index);
 3520              		.loc 1 1396 0
 3521 0052 B35C     		ldrb	r3, [r6, r2]
 3522              	.LVL622:
1397:Api\core\src/vl53l0x_api_core.c **** 				Index++;
 3523              		.loc 1 1397 0
 3524 0054 E21C     		adds	r2, r4, #3
 3525              	.LVL623:
1398:Api\core\src/vl53l0x_api_core.c **** 				lsb = *(pTuningSettingBuffer + Index);
1399:Api\core\src/vl53l0x_api_core.c **** 				Index++;
1400:Api\core\src/vl53l0x_api_core.c **** 				Temp16 = VL53L0X_MAKEUINT16(lsb, msb);
 3526              		.loc 1 1400 0
 3527 0056 1B02     		lsls	r3, r3, #8
 3528              	.LVL624:
 3529 0058 B25C     		ldrb	r2, [r6, r2]
 3530 005a 0434     		adds	r4, r4, #4
 3531              	.LVL625:
 3532 005c 9B18     		adds	r3, r3, r2
 3533              	.LVL626:
1401:Api\core\src/vl53l0x_api_core.c **** 				PALDevDataSet(Dev, SigmaEstEffAmbWidth, Temp16);
 3534              		.loc 1 1401 0
 3535 005e 9C22     		movs	r2, #156
 3536 0060 5200     		lsls	r2, r2, #1
 3537 0062 AB52     		strh	r3, [r5, r2]
 3538              	.LVL627:
1402:Api\core\src/vl53l0x_api_core.c **** 				break;
 3539              		.loc 1 1402 0
 3540 0064 22E0     		b	.L158
 3541              	.LVL628:
 3542              	.L164:
1403:Api\core\src/vl53l0x_api_core.c **** 			case 3: /* uint16_t targetRefRate -> 2 bytes */
1404:Api\core\src/vl53l0x_api_core.c **** 				msb = *(pTuningSettingBuffer + Index);
 3543              		.loc 1 1404 0
 3544 0066 B35C     		ldrb	r3, [r6, r2]
 3545              	.LVL629:
ARM GAS  C:\Users\Rajesh\AppData\Local\Temp\ccMJoliC.s 			page 89


1405:Api\core\src/vl53l0x_api_core.c **** 				Index++;
 3546              		.loc 1 1405 0
 3547 0068 E21C     		adds	r2, r4, #3
 3548              	.LVL630:
1406:Api\core\src/vl53l0x_api_core.c **** 				lsb = *(pTuningSettingBuffer + Index);
1407:Api\core\src/vl53l0x_api_core.c **** 				Index++;
1408:Api\core\src/vl53l0x_api_core.c **** 				Temp16 = VL53L0X_MAKEUINT16(lsb, msb);
 3549              		.loc 1 1408 0
 3550 006a 1B02     		lsls	r3, r3, #8
 3551              	.LVL631:
 3552 006c B25C     		ldrb	r2, [r6, r2]
 3553 006e 0434     		adds	r4, r4, #4
 3554              	.LVL632:
 3555 0070 9B18     		adds	r3, r3, r2
 3556              	.LVL633:
1409:Api\core\src/vl53l0x_api_core.c **** 				PALDevDataSet(Dev, targetRefRate, Temp16);
 3557              		.loc 1 1409 0
 3558 0072 9E22     		movs	r2, #158
 3559 0074 5200     		lsls	r2, r2, #1
 3560 0076 AB52     		strh	r3, [r5, r2]
 3561              	.LVL634:
1410:Api\core\src/vl53l0x_api_core.c **** 				break;
 3562              		.loc 1 1410 0
 3563 0078 18E0     		b	.L158
 3564              	.LVL635:
 3565              	.L159:
1411:Api\core\src/vl53l0x_api_core.c **** 			default: /* invalid parameter */
1412:Api\core\src/vl53l0x_api_core.c **** 				Status = VL53L0X_ERROR_INVALID_PARAMS;
1413:Api\core\src/vl53l0x_api_core.c **** 			}
1414:Api\core\src/vl53l0x_api_core.c **** 
1415:Api\core\src/vl53l0x_api_core.c **** 		} else if (NumberOfWrites <= 4) {
 3566              		.loc 1 1415 0
 3567 007a 042B     		cmp	r3, #4
 3568 007c 13D8     		bhi	.L170
1416:Api\core\src/vl53l0x_api_core.c **** 			Address = *(pTuningSettingBuffer + Index);
 3569              		.loc 1 1416 0
 3570 007e B15C     		ldrb	r1, [r6, r2]
 3571              	.LVL636:
1417:Api\core\src/vl53l0x_api_core.c **** 			Index++;
 3572              		.loc 1 1417 0
 3573 0080 0234     		adds	r4, r4, #2
 3574              	.LVL637:
1418:Api\core\src/vl53l0x_api_core.c **** 
1419:Api\core\src/vl53l0x_api_core.c **** 			for (i = 0; i < NumberOfWrites; i++) {
 3575              		.loc 1 1419 0
 3576 0082 0022     		movs	r2, #0
 3577 0084 04E0     		b	.L165
 3578              	.LVL638:
 3579              	.L166:
1420:Api\core\src/vl53l0x_api_core.c **** 				localBuffer[i] = *(pTuningSettingBuffer +
 3580              		.loc 1 1420 0 discriminator 3
 3581 0086 375D     		ldrb	r7, [r6, r4]
 3582 0088 01A8     		add	r0, sp, #4
 3583 008a 8754     		strb	r7, [r0, r2]
1421:Api\core\src/vl53l0x_api_core.c **** 							Index);
1422:Api\core\src/vl53l0x_api_core.c **** 				Index++;
 3584              		.loc 1 1422 0 discriminator 3
ARM GAS  C:\Users\Rajesh\AppData\Local\Temp\ccMJoliC.s 			page 90


 3585 008c 0134     		adds	r4, r4, #1
 3586              	.LVL639:
1419:Api\core\src/vl53l0x_api_core.c **** 				localBuffer[i] = *(pTuningSettingBuffer +
 3587              		.loc 1 1419 0 discriminator 3
 3588 008e 0132     		adds	r2, r2, #1
 3589              	.LVL640:
 3590              	.L165:
1419:Api\core\src/vl53l0x_api_core.c **** 				localBuffer[i] = *(pTuningSettingBuffer +
 3591              		.loc 1 1419 0 is_stmt 0 discriminator 1
 3592 0090 9A42     		cmp	r2, r3
 3593 0092 F8DB     		blt	.L166
1423:Api\core\src/vl53l0x_api_core.c **** 			}
1424:Api\core\src/vl53l0x_api_core.c **** 
1425:Api\core\src/vl53l0x_api_core.c **** 			Status = VL53L0X_WriteMulti(Dev, Address, localBuffer,
 3594              		.loc 1 1425 0 is_stmt 1
 3595 0094 01AA     		add	r2, sp, #4
 3596              	.LVL641:
 3597 0096 2800     		movs	r0, r5
 3598 0098 FFF7FEFF 		bl	VL53L0X_WriteMulti
 3599              	.LVL642:
 3600 009c 06E0     		b	.L158
 3601              	.LVL643:
 3602              	.L171:
1376:Api\core\src/vl53l0x_api_core.c **** 			switch (SelectParam) {
 3603              		.loc 1 1376 0
 3604 009e 1400     		movs	r4, r2
1412:Api\core\src/vl53l0x_api_core.c **** 			}
 3605              		.loc 1 1412 0
 3606 00a0 0420     		movs	r0, #4
 3607              	.LVL644:
 3608 00a2 4042     		rsbs	r0, r0, #0
 3609 00a4 02E0     		b	.L158
 3610              	.LVL645:
 3611              	.L170:
1372:Api\core\src/vl53l0x_api_core.c **** 		if (NumberOfWrites == 0xFF) {
 3612              		.loc 1 1372 0
 3613 00a6 1400     		movs	r4, r2
1426:Api\core\src/vl53l0x_api_core.c **** 					NumberOfWrites);
1427:Api\core\src/vl53l0x_api_core.c **** 
1428:Api\core\src/vl53l0x_api_core.c **** 		} else {
1429:Api\core\src/vl53l0x_api_core.c **** 			Status = VL53L0X_ERROR_INVALID_PARAMS;
 3614              		.loc 1 1429 0
 3615 00a8 0420     		movs	r0, #4
 3616              	.LVL646:
 3617 00aa 4042     		rsbs	r0, r0, #0
 3618              	.LVL647:
 3619              	.L158:
1369:Api\core\src/vl53l0x_api_core.c **** 			(Status == VL53L0X_ERROR_NONE)) {
 3620              		.loc 1 1369 0
 3621 00ac 335D     		ldrb	r3, [r6, r4]
 3622 00ae 002B     		cmp	r3, #0
 3623 00b0 01D0     		beq	.L167
1369:Api\core\src/vl53l0x_api_core.c **** 			(Status == VL53L0X_ERROR_NONE)) {
 3624              		.loc 1 1369 0 is_stmt 0 discriminator 1
 3625 00b2 0028     		cmp	r0, #0
 3626 00b4 ABD0     		beq	.L168
 3627              	.L167:
ARM GAS  C:\Users\Rajesh\AppData\Local\Temp\ccMJoliC.s 			page 91


1430:Api\core\src/vl53l0x_api_core.c **** 		}
1431:Api\core\src/vl53l0x_api_core.c **** 	}
1432:Api\core\src/vl53l0x_api_core.c **** 
1433:Api\core\src/vl53l0x_api_core.c **** 	LOG_FUNCTION_END(Status);
1434:Api\core\src/vl53l0x_api_core.c **** 	return Status;
1435:Api\core\src/vl53l0x_api_core.c **** }
 3628              		.loc 1 1435 0 is_stmt 1
 3629 00b6 03B0     		add	sp, sp, #12
 3630              		@ sp needed
 3631              	.LVL648:
 3632              	.LVL649:
 3633              	.LVL650:
 3634 00b8 F0BD     		pop	{r4, r5, r6, r7, pc}
 3635              		.cfi_endproc
 3636              	.LFE20:
 3637              		.size	VL53L0X_load_tuning_settings, .-VL53L0X_load_tuning_settings
 3638 00ba C046     		.section	.text.VL53L0X_get_total_xtalk_rate,"ax",%progbits
 3639              		.align	2
 3640              		.global	VL53L0X_get_total_xtalk_rate
 3641              		.code	16
 3642              		.thumb_func
 3643              		.type	VL53L0X_get_total_xtalk_rate, %function
 3644              	VL53L0X_get_total_xtalk_rate:
 3645              	.LFB21:
1436:Api\core\src/vl53l0x_api_core.c **** 
1437:Api\core\src/vl53l0x_api_core.c **** VL53L0X_Error VL53L0X_get_total_xtalk_rate(VL53L0X_DEV Dev,
1438:Api\core\src/vl53l0x_api_core.c **** 	VL53L0X_RangingMeasurementData_t *pRangingMeasurementData,
1439:Api\core\src/vl53l0x_api_core.c **** 	FixPoint1616_t *ptotal_xtalk_rate_mcps)
1440:Api\core\src/vl53l0x_api_core.c **** {
 3646              		.loc 1 1440 0
 3647              		.cfi_startproc
 3648              		@ args = 0, pretend = 0, frame = 8
 3649              		@ frame_needed = 0, uses_anonymous_args = 0
 3650              	.LVL651:
 3651 0000 70B5     		push	{r4, r5, r6, lr}
 3652              		.cfi_def_cfa_offset 16
 3653              		.cfi_offset 4, -16
 3654              		.cfi_offset 5, -12
 3655              		.cfi_offset 6, -8
 3656              		.cfi_offset 14, -4
 3657 0002 82B0     		sub	sp, sp, #8
 3658              		.cfi_def_cfa_offset 24
 3659 0004 0500     		movs	r5, r0
 3660 0006 0E00     		movs	r6, r1
 3661 0008 1400     		movs	r4, r2
 3662              	.LVL652:
1441:Api\core\src/vl53l0x_api_core.c **** 	VL53L0X_Error Status = VL53L0X_ERROR_NONE;
1442:Api\core\src/vl53l0x_api_core.c **** 
1443:Api\core\src/vl53l0x_api_core.c **** 	uint8_t xtalkCompEnable;
1444:Api\core\src/vl53l0x_api_core.c **** 	FixPoint1616_t totalXtalkMegaCps;
1445:Api\core\src/vl53l0x_api_core.c **** 	FixPoint1616_t xtalkPerSpadMegaCps;
1446:Api\core\src/vl53l0x_api_core.c **** 
1447:Api\core\src/vl53l0x_api_core.c **** 	*ptotal_xtalk_rate_mcps = 0;
 3663              		.loc 1 1447 0
 3664 000a 0023     		movs	r3, #0
 3665 000c 1360     		str	r3, [r2]
1448:Api\core\src/vl53l0x_api_core.c **** 
ARM GAS  C:\Users\Rajesh\AppData\Local\Temp\ccMJoliC.s 			page 92


1449:Api\core\src/vl53l0x_api_core.c **** 	Status = VL53L0X_GetXTalkCompensationEnable(Dev, &xtalkCompEnable);
 3666              		.loc 1 1449 0
 3667 000e 6B46     		mov	r3, sp
 3668 0010 D91D     		adds	r1, r3, #7
 3669              	.LVL653:
 3670 0012 FFF7FEFF 		bl	VL53L0X_GetXTalkCompensationEnable
 3671              	.LVL654:
1450:Api\core\src/vl53l0x_api_core.c **** 	if (Status == VL53L0X_ERROR_NONE) {
 3672              		.loc 1 1450 0
 3673 0016 0028     		cmp	r0, #0
 3674 0018 0AD1     		bne	.L173
1451:Api\core\src/vl53l0x_api_core.c **** 
1452:Api\core\src/vl53l0x_api_core.c **** 		if (xtalkCompEnable) {
 3675              		.loc 1 1452 0
 3676 001a 6B46     		mov	r3, sp
 3677 001c 0733     		adds	r3, r3, #7
 3678 001e 1B78     		ldrb	r3, [r3]
 3679 0020 002B     		cmp	r3, #0
 3680 0022 05D0     		beq	.L173
1453:Api\core\src/vl53l0x_api_core.c **** 
1454:Api\core\src/vl53l0x_api_core.c **** 			VL53L0X_GETPARAMETERFIELD(
 3681              		.loc 1 1454 0
 3682 0024 2A6A     		ldr	r2, [r5, #32]
 3683              	.LVL655:
1455:Api\core\src/vl53l0x_api_core.c **** 				Dev,
1456:Api\core\src/vl53l0x_api_core.c **** 				XTalkCompensationRateMegaCps,
1457:Api\core\src/vl53l0x_api_core.c **** 				xtalkPerSpadMegaCps);
1458:Api\core\src/vl53l0x_api_core.c **** 
1459:Api\core\src/vl53l0x_api_core.c **** 			/* FixPoint1616 * FixPoint 8:8 = FixPoint0824 */
1460:Api\core\src/vl53l0x_api_core.c **** 			totalXtalkMegaCps =
1461:Api\core\src/vl53l0x_api_core.c **** 				pRangingMeasurementData->EffectiveSpadRtnCount *
 3684              		.loc 1 1461 0
 3685 0026 B38A     		ldrh	r3, [r6, #20]
1460:Api\core\src/vl53l0x_api_core.c **** 				pRangingMeasurementData->EffectiveSpadRtnCount *
 3686              		.loc 1 1460 0
 3687 0028 5343     		muls	r3, r2
 3688              	.LVL656:
1462:Api\core\src/vl53l0x_api_core.c **** 				xtalkPerSpadMegaCps;
1463:Api\core\src/vl53l0x_api_core.c **** 
1464:Api\core\src/vl53l0x_api_core.c **** 			/* FixPoint0824 >> 8 = FixPoint1616 */
1465:Api\core\src/vl53l0x_api_core.c **** 			*ptotal_xtalk_rate_mcps =
1466:Api\core\src/vl53l0x_api_core.c **** 				(totalXtalkMegaCps + 0x80) >> 8;
 3689              		.loc 1 1466 0
 3690 002a 8033     		adds	r3, r3, #128
 3691              	.LVL657:
 3692 002c 1B0A     		lsrs	r3, r3, #8
 3693              	.LVL658:
1465:Api\core\src/vl53l0x_api_core.c **** 				(totalXtalkMegaCps + 0x80) >> 8;
 3694              		.loc 1 1465 0
 3695 002e 2360     		str	r3, [r4]
 3696              	.LVL659:
 3697              	.L173:
1467:Api\core\src/vl53l0x_api_core.c **** 		}
