Archive member included to satisfy reference by file (symbol)

.\CortexM3\ARM_GCC_541\Debug\ext_pim.a(RELAY_B.o)
                              .\CortexM3\ARM_GCC_541\Debug\inout.o (RELAY_B_Write)
.\CortexM3\ARM_GCC_541\Debug\ext_pim.a(SOUND_OUT.o)
                              .\CortexM3\ARM_GCC_541\Debug\inout.o (SOUND_OUT_Write)
.\CortexM3\ARM_GCC_541\Debug\ext_pim.a(Tamper_Timer_ISR.o)
                              .\CortexM3\ARM_GCC_541\Debug\f2f.o (Tamper_Timer_ISR_Disable)
.\CortexM3\ARM_GCC_541\Debug\ext_pim.a(PS_D0.o)
                              .\CortexM3\ARM_GCC_541\Debug\f2f.o (PS_D0_Read)
.\CortexM3\ARM_GCC_541\Debug\ext_pim.a(Pin_WD0.o)
                              .\CortexM3\ARM_GCC_541\Debug\soft_uart.o (Pin_WD0_Read)
.\CortexM3\ARM_GCC_541\Debug\ext_pim.a(UART_1.o)
                              .\CortexM3\ARM_GCC_541\Debug\main.o (UART_1_Start)
.\CortexM3\ARM_GCC_541\Debug\ext_pim.a(TAMPER_OUT.o)
                              .\CortexM3\ARM_GCC_541\Debug\inout.o (TAMPER_OUT_Write)
.\CortexM3\ARM_GCC_541\Debug\ext_pim.a(LEDG_OUT.o)
                              .\CortexM3\ARM_GCC_541\Debug\inout.o (LEDG_OUT_Write)
.\CortexM3\ARM_GCC_541\Debug\ext_pim.a(LEDR_OUT.o)
                              .\CortexM3\ARM_GCC_541\Debug\inout.o (LEDR_OUT_Write)
.\CortexM3\ARM_GCC_541\Debug\ext_pim.a(RELAY_A.o)
                              .\CortexM3\ARM_GCC_541\Debug\inout.o (RELAY_A_Write)
.\CortexM3\ARM_GCC_541\Debug\ext_pim.a(OptSelect.o)
                              .\CortexM3\ARM_GCC_541\Debug\wiegand.o (OptSelect_Write)
.\CortexM3\ARM_GCC_541\Debug\ext_pim.a(Tamper_Timer.o)
                              .\CortexM3\ARM_GCC_541\Debug\main.o (Tamper_Timer_Start)
.\CortexM3\ARM_GCC_541\Debug\ext_pim.a(UART_TIMER.o)
                              .\CortexM3\ARM_GCC_541\Debug\main.o (UART_TIMER_Start)
.\CortexM3\ARM_GCC_541\Debug\ext_pim.a(UART_TIMER_ISR.o)
                              .\CortexM3\ARM_GCC_541\Debug\main.o (UART_TIMER_ISR_Interrupt)
.\CortexM3\ARM_GCC_541\Debug\ext_pim.a(CyFlash.o)
                              .\CortexM3\ARM_GCC_541\Debug\main.o (CySetTemp)
.\CortexM3\ARM_GCC_541\Debug\ext_pim.a(CyLib.o)
                              .\CortexM3\ARM_GCC_541\Debug\Cm3Start.o (CyResetStatus)
.\CortexM3\ARM_GCC_541\Debug\ext_pim.a(cyPm.o)
                              .\CortexM3\ARM_GCC_541\Debug\ext_pim.a(CyLib.o) (CyPmReadStatus)
.\CortexM3\ARM_GCC_541\Debug\ext_pim.a(CySpc.o)
                              .\CortexM3\ARM_GCC_541\Debug\ext_pim.a(CyFlash.o) (CySpcStart)
.\CortexM3\ARM_GCC_541\Debug\ext_pim.a(EZI2Cs.o)
                              .\CortexM3\ARM_GCC_541\Debug\i2cuart.o (EZI2Cs_Start)
.\CortexM3\ARM_GCC_541\Debug\ext_pim.a(EZI2Cs_PM.o)
                              .\CortexM3\ARM_GCC_541\Debug\ext_pim.a(EZI2Cs.o) (EZI2Cs_backup)
.\CortexM3\ARM_GCC_541\Debug\ext_pim.a(EZI2Cs_INT.o)
                              .\CortexM3\ARM_GCC_541\Debug\ext_pim.a(EZI2Cs.o) (EZI2Cs_ISR)
.\CortexM3\ARM_GCC_541\Debug\ext_pim.a(Timeout_Timer.o)
                              .\CortexM3\ARM_GCC_541\Debug\main.o (Timeout_Timer_Start)
.\CortexM3\ARM_GCC_541\Debug\ext_pim.a(Timeout_Timer_Isr.o)
                              .\CortexM3\ARM_GCC_541\Debug\i2cuart.o (Timeout_Timer_Isr_Disable)
.\CortexM3\ARM_GCC_541\Debug\ext_pim.a(Clock_5.o)
                              .\CortexM3\ARM_GCC_541\Debug\osdp.o (Clock_5_Start)
.\CortexM3\ARM_GCC_541\Debug\ext_pim.a(isr_F2F_edge.o)
                              .\CortexM3\ARM_GCC_541\Debug\f2f.o (f2f_pulsewidth)
.\CortexM3\ARM_GCC_541\Debug\ext_pim.a(FilterReg.o)
                              .\CortexM3\ARM_GCC_541\Debug\ext_pim.a(isr_F2F_edge.o) (FilterReg_Read)
.\CortexM3\ARM_GCC_541\Debug\ext_pim.a(Mode_Sel_ACS.o)
                              .\CortexM3\ARM_GCC_541\Debug\osdp.o (Mode_Sel_ACS_Write)
.\CortexM3\ARM_GCC_541\Debug\ext_pim.a(TX_EN.o)
                              .\CortexM3\ARM_GCC_541\Debug\osdp.o (TX_EN_Write)
.\CortexM3\ARM_GCC_541\Debug\ext_pim.a(CR_DE.o)
                              .\CortexM3\ARM_GCC_541\Debug\osdp.o (CR_DE_Write)
.\CortexM3\ARM_GCC_541\Debug\ext_pim.a(Clock_6.o)
                              .\CortexM3\ARM_GCC_541\Debug\osdp.o (Clock_6_Start)
.\CortexM3\ARM_GCC_541\Debug\ext_pim.a(Mode_Sel_CR.o)
                              .\CortexM3\ARM_GCC_541\Debug\osdp.o (Mode_Sel_CR_Write)
.\CortexM3\ARM_GCC_541\Debug\ext_pim.a(isr_keepalive.o)
                              .\CortexM3\ARM_GCC_541\Debug\osdp.o (isr_keepalive_StartEx)
.\CortexM3\ARM_GCC_541\Debug\ext_pim.a(OSDPReaderTimer.o)
                              .\CortexM3\ARM_GCC_541\Debug\osdp.o (OSDPReaderTimer_Start)
.\CortexM3\ARM_GCC_541\Debug\ext_pim.a(isr_SW_Rst.o)
                              .\CortexM3\ARM_GCC_541\Debug\main.o (buttonPressed)
.\CortexM3\ARM_GCC_541\Debug\ext_pim.a(LED_GRN.o)
                              .\CortexM3\ARM_GCC_541\Debug\main.o (LED_GRN_Write)
.\CortexM3\ARM_GCC_541\Debug\ext_pim.a(LED_RED.o)
                              .\CortexM3\ARM_GCC_541\Debug\main.o (LED_RED_Write)
.\CortexM3\ARM_GCC_541\Debug\ext_pim.a(LED_YEL.o)
                              .\CortexM3\ARM_GCC_541\Debug\main.o (LED_YEL_Write)
.\CortexM3\ARM_GCC_541\Debug\ext_pim.a(UART_ACS.o)
                              .\CortexM3\ARM_GCC_541\Debug\osdp.o (UART_ACS_Start)
.\CortexM3\ARM_GCC_541\Debug\ext_pim.a(UART_ACS_INT.o)
                              .\CortexM3\ARM_GCC_541\Debug\ext_pim.a(UART_ACS.o) (UART_ACS_RXISR)
.\CortexM3\ARM_GCC_541\Debug\ext_pim.a(UART_READER.o)
                              .\CortexM3\ARM_GCC_541\Debug\osdp.o (UART_READER_Start)
.\CortexM3\ARM_GCC_541\Debug\ext_pim.a(isr_READER_rx.o)
                              .\CortexM3\ARM_GCC_541\Debug\osdp.o (isr_READER_rx_SetVector)
.\CortexM3\ARM_GCC_541\Debug\ext_pim.a(Pulse_50us.o)
                              .\CortexM3\ARM_GCC_541\Debug\main.o (Pulse_50us_Init)
.\CortexM3\ARM_GCC_541\Debug\ext_pim.a(Pulse_50us_PM.o)
                              .\CortexM3\ARM_GCC_541\Debug\wiegand.o (Pulse_50us_RestoreConfig)
.\CortexM3\ARM_GCC_541\Debug\ext_pim.a(isr_50us.o)
                              .\CortexM3\ARM_GCC_541\Debug\main.o (isr_50us_StartEx)
.\CortexM3\ARM_GCC_541\Debug\ext_pim.a(PS_D1.o)
                              .\CortexM3\ARM_GCC_541\Debug\wiegand.o (PS_D1_Write)
.\CortexM3\ARM_GCC_541\Debug\ext_pim.a(SF2F.o)
                              .\CortexM3\ARM_GCC_541\Debug\main.o (SF2F_Write)
.\CortexM3\ARM_GCC_541\Debug\ext_pim.a(POE_RST.o)
                              .\CortexM3\ARM_GCC_541\Debug\main.o (POE_RST_Write)
.\CortexM3\ARM_GCC_541\Debug\ext_pim.a(POE_OIM_SDn.o)
                              .\CortexM3\ARM_GCC_541\Debug\main.o (POE_OIM_SDn_Write)
.\CortexM3\ARM_GCC_541\Debug\ext_pim.a(USBUART.o)
                              .\CortexM3\ARM_GCC_541\Debug\main.o (USBUART_Start)
.\CortexM3\ARM_GCC_541\Debug\ext_pim.a(USBUART_cdc.o)
                              .\CortexM3\ARM_GCC_541\Debug\commandhandler.o (USBUART_CDC_Init)
.\CortexM3\ARM_GCC_541\Debug\ext_pim.a(USBUART_drv.o)
                              .\CortexM3\ARM_GCC_541\Debug\ext_pim.a(USBUART.o) (USBUART_EP)
.\CortexM3\ARM_GCC_541\Debug\ext_pim.a(USBUART_episr.o)
                              .\CortexM3\ARM_GCC_541\Debug\ext_pim.a(USBUART.o) (USBUART_EP_1_ISR)
.\CortexM3\ARM_GCC_541\Debug\ext_pim.a(USBUART_pm.o)
                              .\CortexM3\ARM_GCC_541\Debug\ext_pim.a(USBUART.o) (USBUART_DP_ISR)
.\CortexM3\ARM_GCC_541\Debug\ext_pim.a(USBUART_std.o)
                              .\CortexM3\ARM_GCC_541\Debug\ext_pim.a(USBUART_drv.o) (USBUART_HandleStandardRqst)
.\CortexM3\ARM_GCC_541\Debug\ext_pim.a(USBUART_vnd.o)
                              .\CortexM3\ARM_GCC_541\Debug\ext_pim.a(USBUART_drv.o) (USBUART_HandleVendorRqst)
.\CortexM3\ARM_GCC_541\Debug\ext_pim.a(USBUART_Dp.o)
                              .\CortexM3\ARM_GCC_541\Debug\ext_pim.a(USBUART.o) (USBUART_Dp_ClearInterrupt)
.\CortexM3\ARM_GCC_541\Debug\ext_pim.a(isr_Sleep.o)
                              .\CortexM3\ARM_GCC_541\Debug\main.o (isr_Sleep_Start)
.\CortexM3\ARM_GCC_541\Debug\ext_pim.a(SleepTimer.o)
                              .\CortexM3\ARM_GCC_541\Debug\main.o (SleepTimer_Start)
.\CortexM3\ARM_GCC_541\Debug\ext_pim.a(I2C_Master.o)
                              .\CortexM3\ARM_GCC_541\Debug\main.o (I2C_Master_Start)
.\CortexM3\ARM_GCC_541\Debug\ext_pim.a(I2C_Master_INT.o)
                              .\CortexM3\ARM_GCC_541\Debug\ext_pim.a(I2C_Master.o) (I2C_Master_ISR)
.\CortexM3\ARM_GCC_541\Debug\ext_pim.a(I2C_Master_MASTER.o)
                              .\CortexM3\ARM_GCC_541\Debug\ext_pim.a(I2C_Master.o) (I2C_Master_mstrStatus)
.\CortexM3\ARM_GCC_541\Debug\ext_pim.a(ST_LED_0.o)
                              .\CortexM3\ARM_GCC_541\Debug\main.o (ST_LED_0_Write)
.\CortexM3\ARM_GCC_541\Debug\ext_pim.a(ST_LED_1.o)
                              .\CortexM3\ARM_GCC_541\Debug\main.o (ST_LED_1_Write)
.\CortexM3\ARM_GCC_541\Debug\ext_pim.a(ST_LED_2.o)
                              .\CortexM3\ARM_GCC_541\Debug\main.o (ST_LED_2_Write)
.\CortexM3\ARM_GCC_541\Debug\ext_pim.a(EEPROM.o)
                              .\CortexM3\ARM_GCC_541\Debug\main.o (EEPROM_Start)
.\CortexM3\ARM_GCC_541\Debug\ext_pim.a(isr_WD_SYNC.o)
                              .\CortexM3\ARM_GCC_541\Debug\main.o (isWiegandDataReady)
.\CortexM3\ARM_GCC_541\Debug\ext_pim.a(Status_Reg_HwPort.o)
                              .\CortexM3\ARM_GCC_541\Debug\inout.o (Status_Reg_HwPort_Read)
.\CortexM3\ARM_GCC_541\Debug\ext_pim.a(CyBootAsmGnu.o)
                              .\CortexM3\ARM_GCC_541\Debug\cyfitter_cfg.o (CyDelayCycles)
.\CortexM3\ARM_GCC_541\Debug\ext_pim.a(Pin_WD1.o)
                              .\CortexM3\ARM_GCC_541\Debug\ext_pim.a(isr_WD_SYNC.o) (Pin_WD1_Read)
.\CortexM3\ARM_GCC_541\Debug\ext_pim.a(FltrReg.o)
                              .\CortexM3\ARM_GCC_541\Debug\ext_pim.a(isr_SW_Rst.o) (FltrReg_Read)
.\CortexM3\ARM_GCC_541\Debug\ext_pim.a(USBUART_cls.o)
                              .\CortexM3\ARM_GCC_541\Debug\ext_pim.a(USBUART_drv.o) (USBUART_DispatchClassRqst)
.\CortexM3\ARM_GCC_541\Debug\ext_pim.a(USBUART_descr.o)
                              .\CortexM3\ARM_GCC_541\Debug\ext_pim.a(USBUART_std.o) (USBUART_DEVICE0_DESCR)
c:/program files (x86)/cypress/psoc creator/4.2/psoc creator/import/gnu/arm/5.4.1/bin/../lib/gcc/arm-none-eabi/5.4.1/armv7-m\libgcc.a(_arm_addsubdf3.o)
                              .\CortexM3\ARM_GCC_541\Debug\f2f.o (__aeabi_i2d)
c:/program files (x86)/cypress/psoc creator/4.2/psoc creator/import/gnu/arm/5.4.1/bin/../lib/gcc/arm-none-eabi/5.4.1/armv7-m\libgcc.a(_arm_muldivdf3.o)
                              .\CortexM3\ARM_GCC_541\Debug\f2f.o (__aeabi_dmul)
c:/program files (x86)/cypress/psoc creator/4.2/psoc creator/import/gnu/arm/5.4.1/bin/../lib/gcc/arm-none-eabi/5.4.1/armv7-m\libgcc.a(_arm_fixdfsi.o)
                              .\CortexM3\ARM_GCC_541\Debug\f2f.o (__aeabi_d2iz)
c:/program files (x86)/cypress/psoc creator/4.2/psoc creator/import/gnu/arm/5.4.1/bin/../lib/gcc/arm-none-eabi/5.4.1/../../../../arm-none-eabi/lib/armv7-m\libg_nano.a(lib_a-errno.o)
                              .\CortexM3\ARM_GCC_541\Debug\Cm3Start.o (__errno)
c:/program files (x86)/cypress/psoc creator/4.2/psoc creator/import/gnu/arm/5.4.1/bin/../lib/gcc/arm-none-eabi/5.4.1/../../../../arm-none-eabi/lib/armv7-m\libg_nano.a(lib_a-exit.o)
                              c:/program files (x86)/cypress/psoc creator/4.2/psoc creator/import/gnu/arm/5.4.1/bin/../lib/gcc/arm-none-eabi/5.4.1/../../../../arm-none-eabi/lib/armv7-m/crt0.o (exit)
c:/program files (x86)/cypress/psoc creator/4.2/psoc creator/import/gnu/arm/5.4.1/bin/../lib/gcc/arm-none-eabi/5.4.1/../../../../arm-none-eabi/lib/armv7-m\libg_nano.a(lib_a-impure.o)
                              c:/program files (x86)/cypress/psoc creator/4.2/psoc creator/import/gnu/arm/5.4.1/bin/../lib/gcc/arm-none-eabi/5.4.1/../../../../arm-none-eabi/lib/armv7-m\libg_nano.a(lib_a-exit.o) (_global_impure_ptr)
c:/program files (x86)/cypress/psoc creator/4.2/psoc creator/import/gnu/arm/5.4.1/bin/../lib/gcc/arm-none-eabi/5.4.1/../../../../arm-none-eabi/lib/armv7-m\libg_nano.a(lib_a-init.o)
                              c:/program files (x86)/cypress/psoc creator/4.2/psoc creator/import/gnu/arm/5.4.1/bin/../lib/gcc/arm-none-eabi/5.4.1/../../../../arm-none-eabi/lib/armv7-m/crt0.o (__libc_init_array)
c:/program files (x86)/cypress/psoc creator/4.2/psoc creator/import/gnu/arm/5.4.1/bin/../lib/gcc/arm-none-eabi/5.4.1/../../../../arm-none-eabi/lib/armv7-m\libg_nano.a(lib_a-memcpy-stub.o)
                              .\CortexM3\ARM_GCC_541\Debug\commandhandler.o (memcpy)
c:/program files (x86)/cypress/psoc creator/4.2/psoc creator/import/gnu/arm/5.4.1/bin/../lib/gcc/arm-none-eabi/5.4.1/../../../../arm-none-eabi/lib/armv7-m\libg_nano.a(lib_a-memset.o)
                              c:/program files (x86)/cypress/psoc creator/4.2/psoc creator/import/gnu/arm/5.4.1/bin/../lib/gcc/arm-none-eabi/5.4.1/../../../../arm-none-eabi/lib/armv7-m/crt0.o (memset)

Allocating common symbols
Common symbol       size              file

buttonReleased      0x1               .\CortexM3\ARM_GCC_541\Debug\ext_pim.a(isr_SW_Rst.o)
passmode_timeout    0x4               .\CortexM3\ARM_GCC_541\Debug\commandhandler.o
USBUART_lastPacketSize
                    0x1               .\CortexM3\ARM_GCC_541\Debug\ext_pim.a(USBUART_drv.o)
ori                 0x4               .\CortexM3\ARM_GCC_541\Debug\osdp.o
USBUART_device      0x1               .\CortexM3\ARM_GCC_541\Debug\ext_pim.a(USBUART_drv.o)
USBUART_transferByteCount
                    0x2               .\CortexM3\ARM_GCC_541\Debug\ext_pim.a(USBUART_drv.o)
EZI2Cs_bufSizeS1    0x2               .\CortexM3\ARM_GCC_541\Debug\ext_pim.a(EZI2Cs.o)
TOC_port_init       0x1               .\CortexM3\ARM_GCC_541\Debug\main.o
panelReadBuf        0x82              .\CortexM3\ARM_GCC_541\Debug\osdp.o
bu                  0x10              .\CortexM3\ARM_GCC_541\Debug\main.o
USBUART_transferState
                    0x1               .\CortexM3\ARM_GCC_541\Debug\ext_pim.a(USBUART_drv.o)
tocTag              0x1               .\CortexM3\ARM_GCC_541\Debug\toc.o
USBUART_interfaceSettingLast
                    0x2               .\CortexM3\ARM_GCC_541\Debug\ext_pim.a(USBUART_drv.o)
I2C_Master_mstrRdBufIndex
                    0x1               .\CortexM3\ARM_GCC_541\Debug\ext_pim.a(I2C_Master_MASTER.o)
USBUART_linesChanged
                    0x2               .\CortexM3\ARM_GCC_541\Debug\ext_pim.a(USBUART_cdc.o)
USBUART_currentTD   0xc               .\CortexM3\ARM_GCC_541\Debug\ext_pim.a(USBUART_drv.o)
run_mode            0x1               .\CortexM3\ARM_GCC_541\Debug\commandhandler.o
buttonDuration      0x4               .\CortexM3\ARM_GCC_541\Debug\ext_pim.a(isr_SW_Rst.o)
USBUART_cdcDataInEp
                    0x2               .\CortexM3\ARM_GCC_541\Debug\ext_pim.a(USBUART_cdc.o)
readerbootloading   0x1               .\CortexM3\ARM_GCC_541\Debug\toc.o
tlv_data_len        0x4               .\CortexM3\ARM_GCC_541\Debug\toc.o
wiegandBuffer       0x1e              .\CortexM3\ARM_GCC_541\Debug\ext_pim.a(isr_WD_SYNC.o)
tamper_out_polarity
                    0x4               .\CortexM3\ARM_GCC_541\Debug\main.o
EZI2Cs_rwIndexS1    0x2               .\CortexM3\ARM_GCC_541\Debug\ext_pim.a(EZI2Cs.o)
multi_byte_len      0x1               .\CortexM3\ARM_GCC_541\Debug\toc.o
OSDPReaderTask      0x1               .\CortexM3\ARM_GCC_541\Debug\osdp.o
osdp_reader_msg_ready
                    0x1               .\CortexM3\ARM_GCC_541\Debug\osdp.o
testBitCount        0x4               .\CortexM3\ARM_GCC_541\Debug\ext_pim.a(isr_WD_SYNC.o)
wiegandBitCount     0x4               .\CortexM3\ARM_GCC_541\Debug\ext_pim.a(isr_WD_SYNC.o)
f2f_ack_delay_cnt   0x1               .\CortexM3\ARM_GCC_541\Debug\ext_pim.a(isr_F2F_edge.o)
USBUART_idSerialNumberStringDescriptor
                    0x22              .\CortexM3\ARM_GCC_541\Debug\ext_pim.a(USBUART_descr.o)
osdp_msg_header     0x8               .\CortexM3\ARM_GCC_541\Debug\osdp.o
I2C_Master_mstrWrBufIndex
                    0x1               .\CortexM3\ARM_GCC_541\Debug\ext_pim.a(I2C_Master_MASTER.o)
rxi                 0x4               .\CortexM3\ARM_GCC_541\Debug\toc.o
EZI2Cs_rwOffsetS1   0x2               .\CortexM3\ARM_GCC_541\Debug\ext_pim.a(EZI2Cs.o)
USBUART_cdcCommInInterruptEp
                    0x2               .\CortexM3\ARM_GCC_541\Debug\ext_pim.a(USBUART_cdc.o)
USBUART_cdcDataOutEp
                    0x2               .\CortexM3\ARM_GCC_541\Debug\ext_pim.a(USBUART_cdc.o)
hw_old              0x1               .\CortexM3\ARM_GCC_541\Debug\main.o
debug_msg_delay     0x4               .\CortexM3\ARM_GCC_541\Debug\commandhandler.o
USBUART_interfaceNumber
                    0x1               .\CortexM3\ARM_GCC_541\Debug\ext_pim.a(USBUART_drv.o)
isWiegandDataStart  0x1               .\CortexM3\ARM_GCC_541\Debug\ext_pim.a(isr_WD_SYNC.o)
USBUART_interfaceClass
                    0x4               .\CortexM3\ARM_GCC_541\Debug\ext_pim.a(USBUART_drv.o)
I2C_Master_mstrWrBufSize
                    0x1               .\CortexM3\ARM_GCC_541\Debug\ext_pim.a(I2C_Master_MASTER.o)
tick_count          0x4               .\CortexM3\ARM_GCC_541\Debug\commandhandler.o
readerReadBuffer    0x81              .\CortexM3\ARM_GCC_541\Debug\osdp.o
USBUART_configurationChanged
                    0x1               .\CortexM3\ARM_GCC_541\Debug\ext_pim.a(USBUART_drv.o)
buttonPressed       0x1               .\CortexM3\ARM_GCC_541\Debug\ext_pim.a(isr_SW_Rst.o)
UART_ACS_rxBuffer   0x100             .\CortexM3\ARM_GCC_541\Debug\ext_pim.a(UART_ACS.o)
USBUART_ep0Mode     0x1               .\CortexM3\ARM_GCC_541\Debug\ext_pim.a(USBUART_drv.o)
tamperCR_polarity   0x4               .\CortexM3\ARM_GCC_541\Debug\main.o
readerSendBuffer    0x81              .\CortexM3\ARM_GCC_541\Debug\osdp.o
MyI2C_Regs          0x1dc             .\CortexM3\ARM_GCC_541\Debug\commandhandler.o
osdp_timeout        0x4               .\CortexM3\ARM_GCC_541\Debug\main.o
USBUART_deviceAddress
                    0x1               .\CortexM3\ARM_GCC_541\Debug\ext_pim.a(USBUART_drv.o)
currentAccessType   0x1               .\CortexM3\ARM_GCC_541\Debug\main.o
USBUART_configuration
                    0x1               .\CortexM3\ARM_GCC_541\Debug\ext_pim.a(USBUART_drv.o)
wiegandByteCount    0x4               .\CortexM3\ARM_GCC_541\Debug\ext_pim.a(isr_WD_SYNC.o)
EZI2Cs_wrProtectS1  0x2               .\CortexM3\ARM_GCC_541\Debug\ext_pim.a(EZI2Cs.o)
USBUART_serialStateBitmap
                    0x4               .\CortexM3\ARM_GCC_541\Debug\ext_pim.a(USBUART_cdc.o)
f2f_send_alive      0x1               .\CortexM3\ARM_GCC_541\Debug\f2f.o
USBUART_ep0Count    0x1               .\CortexM3\ARM_GCC_541\Debug\ext_pim.a(USBUART_drv.o)
USBUART_linesControlBitmap
                    0x4               .\CortexM3\ARM_GCC_541\Debug\ext_pim.a(USBUART_cdc.o)
isWiegandDataReady  0x1               .\CortexM3\ARM_GCC_541\Debug\ext_pim.a(isr_WD_SYNC.o)
f2f_timeout         0x4               .\CortexM3\ARM_GCC_541\Debug\ext_pim.a(isr_F2F_edge.o)
I2C_Master_mstrWrBufPtr
                    0x4               .\CortexM3\ARM_GCC_541\Debug\ext_pim.a(I2C_Master_MASTER.o)
card_in_buf         0x4               .\CortexM3\ARM_GCC_541\Debug\main.o
USBUART_deviceStatus
                    0x1               .\CortexM3\ARM_GCC_541\Debug\ext_pim.a(USBUART_drv.o)
I2C_Master_mstrRdBufPtr
                    0x4               .\CortexM3\ARM_GCC_541\Debug\ext_pim.a(I2C_Master_MASTER.o)
tlv_len             0x4               .\CortexM3\ARM_GCC_541\Debug\toc.o
I2C_Master_state    0x1               .\CortexM3\ARM_GCC_541\Debug\ext_pim.a(I2C_Master.o)
s                   0x28              .\CortexM3\ARM_GCC_541\Debug\main.o
I2C_Master_mstrControl
                    0x1               .\CortexM3\ARM_GCC_541\Debug\ext_pim.a(I2C_Master_MASTER.o)
tlv_head_len        0x4               .\CortexM3\ARM_GCC_541\Debug\toc.o
f2f_pulsewidth      0x4               .\CortexM3\ARM_GCC_541\Debug\ext_pim.a(isr_F2F_edge.o)
card_ack            0x4               .\CortexM3\ARM_GCC_541\Debug\main.o
USBUART_EP          0x6c              .\CortexM3\ARM_GCC_541\Debug\ext_pim.a(USBUART_drv.o)
I2C_Master_mstrStatus
                    0x1               .\CortexM3\ARM_GCC_541\Debug\ext_pim.a(I2C_Master_MASTER.o)
osdp_reader_msg_started
                    0x1               .\CortexM3\ARM_GCC_541\Debug\osdp.o
USBUART_interfaceSetting
                    0x2               .\CortexM3\ARM_GCC_541\Debug\ext_pim.a(USBUART_drv.o)
usb_command_buffer  0x103             .\CortexM3\ARM_GCC_541\Debug\commandhandler.o
USBUART_ep0Toggle   0x1               .\CortexM3\ARM_GCC_541\Debug\ext_pim.a(USBUART_drv.o)
EZI2Cs_curStatus    0x1               .\CortexM3\ARM_GCC_541\Debug\ext_pim.a(EZI2Cs.o)
EZI2Cs_dataPtrS1    0x4               .\CortexM3\ARM_GCC_541\Debug\ext_pim.a(EZI2Cs.o)
dieTemperature      0x2               .\CortexM3\ARM_GCC_541\Debug\ext_pim.a(CyFlash.o)
last_rx             0x4               .\CortexM3\ARM_GCC_541\Debug\commandhandler.o
osdp_reader_msg_header
                    0x8               .\CortexM3\ARM_GCC_541\Debug\osdp.o
tp_old              0x1               .\CortexM3\ARM_GCC_541\Debug\main.o
EZI2Cs_curState     0x1               .\CortexM3\ARM_GCC_541\Debug\ext_pim.a(EZI2Cs.o)
ledr_on             0x1               .\CortexM3\ARM_GCC_541\Debug\ext_pim.a(Timeout_Timer_Isr.o)
ReaderRxBuffer      0x1770            .\CortexM3\ARM_GCC_541\Debug\toc.o
panelSendBuf        0x82              .\CortexM3\ARM_GCC_541\Debug\osdp.o
USBUART_interfaceStatus
                    0x2               .\CortexM3\ARM_GCC_541\Debug\ext_pim.a(USBUART_drv.o)
tlv_ready           0x1               .\CortexM3\ARM_GCC_541\Debug\toc.o
I2C_Master_mstrRdBufSize
                    0x1               .\CortexM3\ARM_GCC_541\Debug\ext_pim.a(I2C_Master_MASTER.o)
f2f_alive_delay_cnt
                    0x4               .\CortexM3\ARM_GCC_541\Debug\f2f.o
f2f_acknowledge_active
                    0x1               .\CortexM3\ARM_GCC_541\Debug\ext_pim.a(isr_F2F_edge.o)

Discarded input sections

 .text          0x00000000        0x0 c:/program files (x86)/cypress/psoc creator/4.2/psoc creator/import/gnu/arm/5.4.1/bin/../lib/gcc/arm-none-eabi/5.4.1/armv7-m/crti.o
 .data          0x00000000        0x0 c:/program files (x86)/cypress/psoc creator/4.2/psoc creator/import/gnu/arm/5.4.1/bin/../lib/gcc/arm-none-eabi/5.4.1/armv7-m/crti.o
 .bss           0x00000000        0x0 c:/program files (x86)/cypress/psoc creator/4.2/psoc creator/import/gnu/arm/5.4.1/bin/../lib/gcc/arm-none-eabi/5.4.1/armv7-m/crti.o
 .data          0x00000000        0x4 c:/program files (x86)/cypress/psoc creator/4.2/psoc creator/import/gnu/arm/5.4.1/bin/../lib/gcc/arm-none-eabi/5.4.1/armv7-m/crtbegin.o
 .text          0x00000000       0x74 c:/program files (x86)/cypress/psoc creator/4.2/psoc creator/import/gnu/arm/5.4.1/bin/../lib/gcc/arm-none-eabi/5.4.1/../../../../arm-none-eabi/lib/armv7-m/crt0.o
 .data          0x00000000        0x0 c:/program files (x86)/cypress/psoc creator/4.2/psoc creator/import/gnu/arm/5.4.1/bin/../lib/gcc/arm-none-eabi/5.4.1/../../../../arm-none-eabi/lib/armv7-m/crt0.o
 .bss           0x00000000        0x0 c:/program files (x86)/cypress/psoc creator/4.2/psoc creator/import/gnu/arm/5.4.1/bin/../lib/gcc/arm-none-eabi/5.4.1/../../../../arm-none-eabi/lib/armv7-m/crt0.o
 .ARM.extab     0x00000000        0x0 c:/program files (x86)/cypress/psoc creator/4.2/psoc creator/import/gnu/arm/5.4.1/bin/../lib/gcc/arm-none-eabi/5.4.1/../../../../arm-none-eabi/lib/armv7-m/crt0.o
 .ARM.exidx     0x00000000        0x8 c:/program files (x86)/cypress/psoc creator/4.2/psoc creator/import/gnu/arm/5.4.1/bin/../lib/gcc/arm-none-eabi/5.4.1/../../../../arm-none-eabi/lib/armv7-m/crt0.o
 .text          0x00000000        0x0 .\CortexM3\ARM_GCC_541\Debug\main.o
 .data          0x00000000        0x0 .\CortexM3\ARM_GCC_541\Debug\main.o
 .bss           0x00000000        0x8 .\CortexM3\ARM_GCC_541\Debug\main.o
 .text          0x00000000        0x0 .\CortexM3\ARM_GCC_541\Debug\wiegand.o
 .data          0x00000000        0x0 .\CortexM3\ARM_GCC_541\Debug\wiegand.o
 .bss           0x00000000        0x0 .\CortexM3\ARM_GCC_541\Debug\wiegand.o
 .text.initWiegand
                0x00000000       0x18 .\CortexM3\ARM_GCC_541\Debug\wiegand.o
 .text          0x00000000        0x0 .\CortexM3\ARM_GCC_541\Debug\power.o
 .data          0x00000000        0x0 .\CortexM3\ARM_GCC_541\Debug\power.o
 .bss           0x00000000        0x0 .\CortexM3\ARM_GCC_541\Debug\power.o
 .text          0x00000000        0x0 .\CortexM3\ARM_GCC_541\Debug\inout.o
 .data          0x00000000        0x0 .\CortexM3\ARM_GCC_541\Debug\inout.o
 .bss           0x00000000        0x0 .\CortexM3\ARM_GCC_541\Debug\inout.o
 .text          0x00000000        0x0 .\CortexM3\ARM_GCC_541\Debug\i2cuart.o
 .data          0x00000000        0x0 .\CortexM3\ARM_GCC_541\Debug\i2cuart.o
 .bss           0x00000000        0x0 .\CortexM3\ARM_GCC_541\Debug\i2cuart.o
 .text.initI2C  0x00000000       0x24 .\CortexM3\ARM_GCC_541\Debug\i2cuart.o
 .text.ClearBufferI2C
                0x00000000       0x18 .\CortexM3\ARM_GCC_541\Debug\i2cuart.o
 .text          0x00000000        0x0 .\CortexM3\ARM_GCC_541\Debug\soft_uart.o
 .data          0x00000000        0x0 .\CortexM3\ARM_GCC_541\Debug\soft_uart.o
 .bss           0x00000000        0x0 .\CortexM3\ARM_GCC_541\Debug\soft_uart.o
 .text.SU_GetStat
                0x00000000       0x18 .\CortexM3\ARM_GCC_541\Debug\soft_uart.o
 .text.SU_GetChar
                0x00000000       0x2c .\CortexM3\ARM_GCC_541\Debug\soft_uart.o
 .text          0x00000000        0x0 .\CortexM3\ARM_GCC_541\Debug\osdp.o
 .data          0x00000000        0x0 .\CortexM3\ARM_GCC_541\Debug\osdp.o
 .bss           0x00000000        0x0 .\CortexM3\ARM_GCC_541\Debug\osdp.o
 .text          0x00000000        0x0 .\CortexM3\ARM_GCC_541\Debug\toc.o
 .data          0x00000000        0x0 .\CortexM3\ARM_GCC_541\Debug\toc.o
 .bss           0x00000000        0x0 .\CortexM3\ARM_GCC_541\Debug\toc.o
 .text.CalculateCrc16
                0x00000000       0x48 .\CortexM3\ARM_GCC_541\Debug\toc.o
 .text.UpdateCrc16Ccitt
                0x00000000       0x64 .\CortexM3\ARM_GCC_541\Debug\toc.o
 .text          0x00000000        0x0 .\CortexM3\ARM_GCC_541\Debug\f2f.o
 .data          0x00000000        0x0 .\CortexM3\ARM_GCC_541\Debug\f2f.o
 .bss           0x00000000        0x0 .\CortexM3\ARM_GCC_541\Debug\f2f.o
 .text.initF2F  0x00000000       0x14 .\CortexM3\ARM_GCC_541\Debug\f2f.o
 .text          0x00000000        0x0 .\CortexM3\ARM_GCC_541\Debug\rtc.o
 .data          0x00000000        0x0 .\CortexM3\ARM_GCC_541\Debug\rtc.o
 .bss           0x00000000        0x0 .\CortexM3\ARM_GCC_541\Debug\rtc.o
 .text          0x00000000        0x0 .\CortexM3\ARM_GCC_541\Debug\commandhandler.o
 .text          0x00000000        0x0 .\CortexM3\ARM_GCC_541\Debug\handle_commands.o
 .data          0x00000000        0x0 .\CortexM3\ARM_GCC_541\Debug\handle_commands.o
 .bss           0x00000000        0x0 .\CortexM3\ARM_GCC_541\Debug\handle_commands.o
 .text          0x00000000        0x0 .\CortexM3\ARM_GCC_541\Debug\cyfitter_cfg.o
 .data          0x00000000        0x0 .\CortexM3\ARM_GCC_541\Debug\cyfitter_cfg.o
 .bss           0x00000000        0x0 .\CortexM3\ARM_GCC_541\Debug\cyfitter_cfg.o
 .text.CYCONFIGCPYCODE
                0x00000000       0x20 .\CortexM3\ARM_GCC_541\Debug\cyfitter_cfg.o
 .text.SetAnalogRoutingPumps
                0x00000000       0x28 .\CortexM3\ARM_GCC_541\Debug\cyfitter_cfg.o
 .text          0x00000000        0x0 .\CortexM3\ARM_GCC_541\Debug\cymetadata.o
 .data          0x00000000        0x0 .\CortexM3\ARM_GCC_541\Debug\cymetadata.o
 .bss           0x00000000        0x0 .\CortexM3\ARM_GCC_541\Debug\cymetadata.o
 .text          0x00000000        0x0 .\CortexM3\ARM_GCC_541\Debug\Cm3Start.o
 .data          0x00000000        0x4 .\CortexM3\ARM_GCC_541\Debug\Cm3Start.o
 .bss           0x00000000        0x0 .\CortexM3\ARM_GCC_541\Debug\Cm3Start.o
 .text._exit    0x00000000       0x14 .\CortexM3\ARM_GCC_541\Debug\Cm3Start.o
 .text._sbrk    0x00000000       0x54 .\CortexM3\ARM_GCC_541\Debug\Cm3Start.o
 .text          0x00000000        0x0 .\CortexM3\ARM_GCC_541\Debug\cybootloader.o
 .data          0x00000000        0x0 .\CortexM3\ARM_GCC_541\Debug\cybootloader.o
 .bss           0x00000000        0x0 .\CortexM3\ARM_GCC_541\Debug\cybootloader.o
 .text          0x00000000        0x0 .\CortexM3\ARM_GCC_541\Debug\ext_pim.a(RELAY_B.o)
 .data          0x00000000        0x0 .\CortexM3\ARM_GCC_541\Debug\ext_pim.a(RELAY_B.o)
 .bss           0x00000000        0x0 .\CortexM3\ARM_GCC_541\Debug\ext_pim.a(RELAY_B.o)
 .text.RELAY_B_SetDriveMode
                0x00000000       0x3c .\CortexM3\ARM_GCC_541\Debug\ext_pim.a(RELAY_B.o)
 .text.RELAY_B_Read
                0x00000000       0x20 .\CortexM3\ARM_GCC_541\Debug\ext_pim.a(RELAY_B.o)
 .text.RELAY_B_ReadDataReg
                0x00000000       0x20 .\CortexM3\ARM_GCC_541\Debug\ext_pim.a(RELAY_B.o)
 .text          0x00000000        0x0 .\CortexM3\ARM_GCC_541\Debug\ext_pim.a(SOUND_OUT.o)
 .data          0x00000000        0x0 .\CortexM3\ARM_GCC_541\Debug\ext_pim.a(SOUND_OUT.o)
 .bss           0x00000000        0x0 .\CortexM3\ARM_GCC_541\Debug\ext_pim.a(SOUND_OUT.o)
 .text.SOUND_OUT_SetDriveMode
                0x00000000       0x3c .\CortexM3\ARM_GCC_541\Debug\ext_pim.a(SOUND_OUT.o)
 .text.SOUND_OUT_Read
                0x00000000       0x20 .\CortexM3\ARM_GCC_541\Debug\ext_pim.a(SOUND_OUT.o)
 .text.SOUND_OUT_ReadDataReg
                0x00000000       0x20 .\CortexM3\ARM_GCC_541\Debug\ext_pim.a(SOUND_OUT.o)
 .text          0x00000000        0x0 .\CortexM3\ARM_GCC_541\Debug\ext_pim.a(Tamper_Timer_ISR.o)
 .data          0x00000000        0x0 .\CortexM3\ARM_GCC_541\Debug\ext_pim.a(Tamper_Timer_ISR.o)
 .bss           0x00000000        0x0 .\CortexM3\ARM_GCC_541\Debug\ext_pim.a(Tamper_Timer_ISR.o)
 .text.Tamper_Timer_ISR_Start
                0x00000000       0x20 .\CortexM3\ARM_GCC_541\Debug\ext_pim.a(Tamper_Timer_ISR.o)
 .text.Tamper_Timer_ISR_Stop
                0x00000000       0x18 .\CortexM3\ARM_GCC_541\Debug\ext_pim.a(Tamper_Timer_ISR.o)
 .text.Tamper_Timer_ISR_GetVector
                0x00000000       0x20 .\CortexM3\ARM_GCC_541\Debug\ext_pim.a(Tamper_Timer_ISR.o)
 .text.Tamper_Timer_ISR_GetPriority
                0x00000000       0x20 .\CortexM3\ARM_GCC_541\Debug\ext_pim.a(Tamper_Timer_ISR.o)
 .text.Tamper_Timer_ISR_GetState
                0x00000000       0x24 .\CortexM3\ARM_GCC_541\Debug\ext_pim.a(Tamper_Timer_ISR.o)
 .text.Tamper_Timer_ISR_SetPending
                0x00000000       0x18 .\CortexM3\ARM_GCC_541\Debug\ext_pim.a(Tamper_Timer_ISR.o)
 .text.Tamper_Timer_ISR_ClearPending
                0x00000000       0x18 .\CortexM3\ARM_GCC_541\Debug\ext_pim.a(Tamper_Timer_ISR.o)
 .text          0x00000000        0x0 .\CortexM3\ARM_GCC_541\Debug\ext_pim.a(PS_D0.o)
 .data          0x00000000        0x0 .\CortexM3\ARM_GCC_541\Debug\ext_pim.a(PS_D0.o)
 .bss           0x00000000        0x0 .\CortexM3\ARM_GCC_541\Debug\ext_pim.a(PS_D0.o)
 .text.PS_D0_Write
                0x00000000       0x38 .\CortexM3\ARM_GCC_541\Debug\ext_pim.a(PS_D0.o)
 .text.PS_D0_SetDriveMode
                0x00000000       0x3c .\CortexM3\ARM_GCC_541\Debug\ext_pim.a(PS_D0.o)
 .text.PS_D0_ReadDataReg
                0x00000000       0x1c .\CortexM3\ARM_GCC_541\Debug\ext_pim.a(PS_D0.o)
 .text          0x00000000        0x0 .\CortexM3\ARM_GCC_541\Debug\ext_pim.a(Pin_WD0.o)
 .data          0x00000000        0x0 .\CortexM3\ARM_GCC_541\Debug\ext_pim.a(Pin_WD0.o)
 .bss           0x00000000        0x0 .\CortexM3\ARM_GCC_541\Debug\ext_pim.a(Pin_WD0.o)
 .text.Pin_WD0_Write
                0x00000000       0x3c .\CortexM3\ARM_GCC_541\Debug\ext_pim.a(Pin_WD0.o)
 .text.Pin_WD0_SetDriveMode
                0x00000000       0x3c .\CortexM3\ARM_GCC_541\Debug\ext_pim.a(Pin_WD0.o)
 .text.Pin_WD0_ReadDataReg
                0x00000000       0x20 .\CortexM3\ARM_GCC_541\Debug\ext_pim.a(Pin_WD0.o)
 .text          0x00000000        0x0 .\CortexM3\ARM_GCC_541\Debug\ext_pim.a(UART_1.o)
 .data          0x00000000        0x0 .\CortexM3\ARM_GCC_541\Debug\ext_pim.a(UART_1.o)
 .text.UART_1_Stop
                0x00000000       0x5c .\CortexM3\ARM_GCC_541\Debug\ext_pim.a(UART_1.o)
 .text.UART_1_SetRxInterruptMode
                0x00000000       0x20 .\CortexM3\ARM_GCC_541\Debug\ext_pim.a(UART_1.o)
 .text.UART_1_ReadRxData
                0x00000000       0x1c .\CortexM3\ARM_GCC_541\Debug\ext_pim.a(UART_1.o)
 .text.UART_1_GetByte
                0x00000000       0x20 .\CortexM3\ARM_GCC_541\Debug\ext_pim.a(UART_1.o)
 .text.UART_1_GetRxBufferSize
                0x00000000       0x2c .\CortexM3\ARM_GCC_541\Debug\ext_pim.a(UART_1.o)
 .text.UART_1_SetRxAddressMode
                0x00000000       0x14 .\CortexM3\ARM_GCC_541\Debug\ext_pim.a(UART_1.o)
 .text.UART_1_SetRxAddress1
                0x00000000       0x20 .\CortexM3\ARM_GCC_541\Debug\ext_pim.a(UART_1.o)
 .text.UART_1_SetRxAddress2
                0x00000000       0x20 .\CortexM3\ARM_GCC_541\Debug\ext_pim.a(UART_1.o)
 .text.UART_1_SetTxInterruptMode
                0x00000000       0x20 .\CortexM3\ARM_GCC_541\Debug\ext_pim.a(UART_1.o)
 .text.UART_1_WriteTxData
                0x00000000       0x2c .\CortexM3\ARM_GCC_541\Debug\ext_pim.a(UART_1.o)
 .text.UART_1_ReadTxStatus
                0x00000000       0x18 .\CortexM3\ARM_GCC_541\Debug\ext_pim.a(UART_1.o)
 .text.UART_1_PutString
                0x00000000       0x44 .\CortexM3\ARM_GCC_541\Debug\ext_pim.a(UART_1.o)
 .text.UART_1_PutArray
                0x00000000       0x44 .\CortexM3\ARM_GCC_541\Debug\ext_pim.a(UART_1.o)
 .text.UART_1_PutCRLF
                0x00000000       0x34 .\CortexM3\ARM_GCC_541\Debug\ext_pim.a(UART_1.o)
 .text.UART_1_GetTxBufferSize
                0x00000000       0x40 .\CortexM3\ARM_GCC_541\Debug\ext_pim.a(UART_1.o)
 .text.UART_1_ClearTxBuffer
                0x00000000       0x44 .\CortexM3\ARM_GCC_541\Debug\ext_pim.a(UART_1.o)
 .text.UART_1_SendBreak
                0x00000000       0xc0 .\CortexM3\ARM_GCC_541\Debug\ext_pim.a(UART_1.o)
 .text.UART_1_SetTxAddressMode
                0x00000000       0x40 .\CortexM3\ARM_GCC_541\Debug\ext_pim.a(UART_1.o)
 .text          0x00000000        0x0 .\CortexM3\ARM_GCC_541\Debug\ext_pim.a(TAMPER_OUT.o)
 .data          0x00000000        0x0 .\CortexM3\ARM_GCC_541\Debug\ext_pim.a(TAMPER_OUT.o)
 .bss           0x00000000        0x0 .\CortexM3\ARM_GCC_541\Debug\ext_pim.a(TAMPER_OUT.o)
 .text.TAMPER_OUT_SetDriveMode
                0x00000000       0x3c .\CortexM3\ARM_GCC_541\Debug\ext_pim.a(TAMPER_OUT.o)
 .text.TAMPER_OUT_Read
                0x00000000       0x20 .\CortexM3\ARM_GCC_541\Debug\ext_pim.a(TAMPER_OUT.o)
 .text.TAMPER_OUT_ReadDataReg
                0x00000000       0x20 .\CortexM3\ARM_GCC_541\Debug\ext_pim.a(TAMPER_OUT.o)
 .text          0x00000000        0x0 .\CortexM3\ARM_GCC_541\Debug\ext_pim.a(LEDG_OUT.o)
 .data          0x00000000        0x0 .\CortexM3\ARM_GCC_541\Debug\ext_pim.a(LEDG_OUT.o)
 .bss           0x00000000        0x0 .\CortexM3\ARM_GCC_541\Debug\ext_pim.a(LEDG_OUT.o)
 .text.LEDG_OUT_SetDriveMode
                0x00000000       0x3c .\CortexM3\ARM_GCC_541\Debug\ext_pim.a(LEDG_OUT.o)
 .text.LEDG_OUT_Read
                0x00000000       0x20 .\CortexM3\ARM_GCC_541\Debug\ext_pim.a(LEDG_OUT.o)
 .text.LEDG_OUT_ReadDataReg
                0x00000000       0x20 .\CortexM3\ARM_GCC_541\Debug\ext_pim.a(LEDG_OUT.o)
 .text          0x00000000        0x0 .\CortexM3\ARM_GCC_541\Debug\ext_pim.a(LEDR_OUT.o)
 .data          0x00000000        0x0 .\CortexM3\ARM_GCC_541\Debug\ext_pim.a(LEDR_OUT.o)
 .bss           0x00000000        0x0 .\CortexM3\ARM_GCC_541\Debug\ext_pim.a(LEDR_OUT.o)
 .text.LEDR_OUT_SetDriveMode
                0x00000000       0x3c .\CortexM3\ARM_GCC_541\Debug\ext_pim.a(LEDR_OUT.o)
 .text.LEDR_OUT_Read
                0x00000000       0x20 .\CortexM3\ARM_GCC_541\Debug\ext_pim.a(LEDR_OUT.o)
 .text.LEDR_OUT_ReadDataReg
                0x00000000       0x20 .\CortexM3\ARM_GCC_541\Debug\ext_pim.a(LEDR_OUT.o)
 .text          0x00000000        0x0 .\CortexM3\ARM_GCC_541\Debug\ext_pim.a(RELAY_A.o)
 .data          0x00000000        0x0 .\CortexM3\ARM_GCC_541\Debug\ext_pim.a(RELAY_A.o)
 .bss           0x00000000        0x0 .\CortexM3\ARM_GCC_541\Debug\ext_pim.a(RELAY_A.o)
 .text.RELAY_A_SetDriveMode
                0x00000000       0x3c .\CortexM3\ARM_GCC_541\Debug\ext_pim.a(RELAY_A.o)
 .text.RELAY_A_Read
                0x00000000       0x20 .\CortexM3\ARM_GCC_541\Debug\ext_pim.a(RELAY_A.o)
 .text.RELAY_A_ReadDataReg
                0x00000000       0x20 .\CortexM3\ARM_GCC_541\Debug\ext_pim.a(RELAY_A.o)
 .text          0x00000000        0x0 .\CortexM3\ARM_GCC_541\Debug\ext_pim.a(OptSelect.o)
 .data          0x00000000        0x0 .\CortexM3\ARM_GCC_541\Debug\ext_pim.a(OptSelect.o)
 .bss           0x00000000        0x0 .\CortexM3\ARM_GCC_541\Debug\ext_pim.a(OptSelect.o)
 .text.OptSelect_Read
                0x00000000       0x18 .\CortexM3\ARM_GCC_541\Debug\ext_pim.a(OptSelect.o)
 .text          0x00000000        0x0 .\CortexM3\ARM_GCC_541\Debug\ext_pim.a(Tamper_Timer.o)
 .data          0x00000000        0x0 .\CortexM3\ARM_GCC_541\Debug\ext_pim.a(Tamper_Timer.o)
 .text.Tamper_Timer_SoftwareCapture
                0x00000000       0x14 .\CortexM3\ARM_GCC_541\Debug\ext_pim.a(Tamper_Timer.o)
 .text.Tamper_Timer_ReadControlRegister
                0x00000000       0x18 .\CortexM3\ARM_GCC_541\Debug\ext_pim.a(Tamper_Timer.o)
 .text.Tamper_Timer_WriteControlRegister
                0x00000000       0x20 .\CortexM3\ARM_GCC_541\Debug\ext_pim.a(Tamper_Timer.o)
 .text.Tamper_Timer_ReadPeriod
                0x00000000       0x18 .\CortexM3\ARM_GCC_541\Debug\ext_pim.a(Tamper_Timer.o)
 .text.Tamper_Timer_ReadCapture
                0x00000000       0x18 .\CortexM3\ARM_GCC_541\Debug\ext_pim.a(Tamper_Timer.o)
 .text.Tamper_Timer_ReadCounter
                0x00000000       0x20 .\CortexM3\ARM_GCC_541\Debug\ext_pim.a(Tamper_Timer.o)
 .text          0x00000000        0x0 .\CortexM3\ARM_GCC_541\Debug\ext_pim.a(UART_TIMER.o)
 .data          0x00000000        0x0 .\CortexM3\ARM_GCC_541\Debug\ext_pim.a(UART_TIMER.o)
 .text.UART_TIMER_Stop
                0x00000000       0x20 .\CortexM3\ARM_GCC_541\Debug\ext_pim.a(UART_TIMER.o)
 .text.UART_TIMER_SoftwareCapture
                0x00000000       0x14 .\CortexM3\ARM_GCC_541\Debug\ext_pim.a(UART_TIMER.o)
 .text.UART_TIMER_ReadControlRegister
                0x00000000       0x18 .\CortexM3\ARM_GCC_541\Debug\ext_pim.a(UART_TIMER.o)
 .text.UART_TIMER_WriteControlRegister
                0x00000000       0x20 .\CortexM3\ARM_GCC_541\Debug\ext_pim.a(UART_TIMER.o)
 .text.UART_TIMER_ReadPeriod
                0x00000000       0x18 .\CortexM3\ARM_GCC_541\Debug\ext_pim.a(UART_TIMER.o)
 .text.UART_TIMER_ReadCounter
                0x00000000       0x20 .\CortexM3\ARM_GCC_541\Debug\ext_pim.a(UART_TIMER.o)
 .text          0x00000000        0x0 .\CortexM3\ARM_GCC_541\Debug\ext_pim.a(UART_TIMER_ISR.o)
 .data          0x00000000        0x0 .\CortexM3\ARM_GCC_541\Debug\ext_pim.a(UART_TIMER_ISR.o)
 .bss           0x00000000        0x0 .\CortexM3\ARM_GCC_541\Debug\ext_pim.a(UART_TIMER_ISR.o)
 .text.UART_TIMER_ISR_Start
                0x00000000       0x20 .\CortexM3\ARM_GCC_541\Debug\ext_pim.a(UART_TIMER_ISR.o)
 .text.UART_TIMER_ISR_Stop
                0x00000000       0x18 .\CortexM3\ARM_GCC_541\Debug\ext_pim.a(UART_TIMER_ISR.o)
 .text.UART_TIMER_ISR_GetVector
                0x00000000       0x20 .\CortexM3\ARM_GCC_541\Debug\ext_pim.a(UART_TIMER_ISR.o)
 .text.UART_TIMER_ISR_GetPriority
                0x00000000       0x20 .\CortexM3\ARM_GCC_541\Debug\ext_pim.a(UART_TIMER_ISR.o)
 .text.UART_TIMER_ISR_GetState
                0x00000000       0x1c .\CortexM3\ARM_GCC_541\Debug\ext_pim.a(UART_TIMER_ISR.o)
 .text.UART_TIMER_ISR_SetPending
                0x00000000       0x18 .\CortexM3\ARM_GCC_541\Debug\ext_pim.a(UART_TIMER_ISR.o)
 .text.UART_TIMER_ISR_ClearPending
                0x00000000       0x18 .\CortexM3\ARM_GCC_541\Debug\ext_pim.a(UART_TIMER_ISR.o)
 .text          0x00000000        0x0 .\CortexM3\ARM_GCC_541\Debug\ext_pim.a(CyFlash.o)
 .data          0x00000000        0x0 .\CortexM3\ARM_GCC_541\Debug\ext_pim.a(CyFlash.o)
 .bss           0x00000000        0x4 .\CortexM3\ARM_GCC_541\Debug\ext_pim.a(CyFlash.o)
 .text.CyFlash_Start
                0x00000000       0x8c .\CortexM3\ARM_GCC_541\Debug\ext_pim.a(CyFlash.o)
 .text.CyFlash_Stop
                0x00000000       0x48 .\CortexM3\ARM_GCC_541\Debug\ext_pim.a(CyFlash.o)
 .text.CySetFlashEEBuffer
                0x00000000       0x54 .\CortexM3\ARM_GCC_541\Debug\ext_pim.a(CyFlash.o)
 .text.CyWriteRowData
                0x00000000       0x38 .\CortexM3\ARM_GCC_541\Debug\ext_pim.a(CyFlash.o)
 .text.CyWriteRowFull
                0x00000000      0x154 .\CortexM3\ARM_GCC_541\Debug\ext_pim.a(CyFlash.o)
 .text.CyFlash_SetWaitCycles
                0x00000000       0xbc .\CortexM3\ARM_GCC_541\Debug\ext_pim.a(CyFlash.o)
 .text.CyEEPROM_Stop
                0x00000000       0x48 .\CortexM3\ARM_GCC_541\Debug\ext_pim.a(CyFlash.o)
 .text          0x00000000        0x0 .\CortexM3\ARM_GCC_541\Debug\ext_pim.a(CyLib.o)
 .bss           0x00000000       0x19 .\CortexM3\ARM_GCC_541\Debug\ext_pim.a(CyLib.o)
 .text.CyPLL_OUT_Start
                0x00000000       0xb0 .\CortexM3\ARM_GCC_541\Debug\ext_pim.a(CyLib.o)
 .text.CyPLL_OUT_Stop
                0x00000000       0x20 .\CortexM3\ARM_GCC_541\Debug\ext_pim.a(CyLib.o)
 .text.CyPLL_OUT_SetPQ
                0x00000000       0x94 .\CortexM3\ARM_GCC_541\Debug\ext_pim.a(CyLib.o)
 .text.CyPLL_OUT_SetSource
                0x00000000       0x58 .\CortexM3\ARM_GCC_541\Debug\ext_pim.a(CyLib.o)
 .text.CyIMO_Start
                0x00000000       0x94 .\CortexM3\ARM_GCC_541\Debug\ext_pim.a(CyLib.o)
 .text.CyIMO_Stop
                0x00000000       0x34 .\CortexM3\ARM_GCC_541\Debug\ext_pim.a(CyLib.o)
 .text.CyUSB_PowerOnCheck
                0x00000000       0x60 .\CortexM3\ARM_GCC_541\Debug\ext_pim.a(CyLib.o)
 .text.CyIMO_SetTrimValue
                0x00000000      0x108 .\CortexM3\ARM_GCC_541\Debug\ext_pim.a(CyLib.o)
 .text.CyIMO_SetFreq
                0x00000000      0x1b0 .\CortexM3\ARM_GCC_541\Debug\ext_pim.a(CyLib.o)
 .text.CyIMO_SetSource
                0x00000000       0x8c .\CortexM3\ARM_GCC_541\Debug\ext_pim.a(CyLib.o)
 .text.CyIMO_EnableDoubler
                0x00000000       0x20 .\CortexM3\ARM_GCC_541\Debug\ext_pim.a(CyLib.o)
 .text.CyIMO_DisableDoubler
                0x00000000       0x20 .\CortexM3\ARM_GCC_541\Debug\ext_pim.a(CyLib.o)
 .text.CyMasterClk_SetSource
                0x00000000       0x34 .\CortexM3\ARM_GCC_541\Debug\ext_pim.a(CyLib.o)
 .text.CyMasterClk_SetDivider
                0x00000000       0x20 .\CortexM3\ARM_GCC_541\Debug\ext_pim.a(CyLib.o)
 .text.CyBusClk_Internal_SetDivider
                0x00000000       0x78 .\CortexM3\ARM_GCC_541\Debug\ext_pim.a(CyLib.o)
 .text.CyBusClk_SetDivider
                0x00000000       0xb4 .\CortexM3\ARM_GCC_541\Debug\ext_pim.a(CyLib.o)
 .text.CyUsbClk_SetSource
                0x00000000       0x34 .\CortexM3\ARM_GCC_541\Debug\ext_pim.a(CyLib.o)
 .text.CyILO_Start1K
                0x00000000       0x20 .\CortexM3\ARM_GCC_541\Debug\ext_pim.a(CyLib.o)
 .text.CyILO_Stop1K
                0x00000000       0x20 .\CortexM3\ARM_GCC_541\Debug\ext_pim.a(CyLib.o)
 .text.CyILO_Start100K
                0x00000000       0x20 .\CortexM3\ARM_GCC_541\Debug\ext_pim.a(CyLib.o)
 .text.CyILO_Stop100K
                0x00000000       0x20 .\CortexM3\ARM_GCC_541\Debug\ext_pim.a(CyLib.o)
 .text.CyILO_Enable33K
                0x00000000       0x20 .\CortexM3\ARM_GCC_541\Debug\ext_pim.a(CyLib.o)
 .text.CyILO_Disable33K
                0x00000000       0x20 .\CortexM3\ARM_GCC_541\Debug\ext_pim.a(CyLib.o)
 .text.CyILO_SetSource
                0x00000000       0x38 .\CortexM3\ARM_GCC_541\Debug\ext_pim.a(CyLib.o)
 .text.CyILO_SetPowerMode
                0x00000000       0x4c .\CortexM3\ARM_GCC_541\Debug\ext_pim.a(CyLib.o)
 .text.CyXTAL_32KHZ_Start
                0x00000000       0x88 .\CortexM3\ARM_GCC_541\Debug\ext_pim.a(CyLib.o)
 .text.CyXTAL_32KHZ_Stop
                0x00000000       0x50 .\CortexM3\ARM_GCC_541\Debug\ext_pim.a(CyLib.o)
 .text.CyXTAL_32KHZ_ReadStatus
                0x00000000       0x1c .\CortexM3\ARM_GCC_541\Debug\ext_pim.a(CyLib.o)
 .text.CyXTAL_32KHZ_SetPowerMode
                0x00000000       0xb4 .\CortexM3\ARM_GCC_541\Debug\ext_pim.a(CyLib.o)
 .text.CyXTAL_Start
                0x00000000       0xd0 .\CortexM3\ARM_GCC_541\Debug\ext_pim.a(CyLib.o)
 .text.CyXTAL_Stop
                0x00000000       0x20 .\CortexM3\ARM_GCC_541\Debug\ext_pim.a(CyLib.o)
 .text.CyXTAL_EnableErrStatus
                0x00000000       0x20 .\CortexM3\ARM_GCC_541\Debug\ext_pim.a(CyLib.o)
 .text.CyXTAL_DisableErrStatus
                0x00000000       0x20 .\CortexM3\ARM_GCC_541\Debug\ext_pim.a(CyLib.o)
 .text.CyXTAL_ReadStatus
                0x00000000       0x24 .\CortexM3\ARM_GCC_541\Debug\ext_pim.a(CyLib.o)
 .text.CyXTAL_EnableFaultRecovery
                0x00000000       0x20 .\CortexM3\ARM_GCC_541\Debug\ext_pim.a(CyLib.o)
 .text.CyXTAL_DisableFaultRecovery
                0x00000000       0x20 .\CortexM3\ARM_GCC_541\Debug\ext_pim.a(CyLib.o)
 .text.CyXTAL_SetStartup
                0x00000000       0x34 .\CortexM3\ARM_GCC_541\Debug\ext_pim.a(CyLib.o)
 .text.CyXTAL_SetFbVoltage
                0x00000000       0x34 .\CortexM3\ARM_GCC_541\Debug\ext_pim.a(CyLib.o)
 .text.CyXTAL_SetWdVoltage
                0x00000000       0x38 .\CortexM3\ARM_GCC_541\Debug\ext_pim.a(CyLib.o)
 .text.CyDelayFreq
                0x00000000       0x7c .\CortexM3\ARM_GCC_541\Debug\ext_pim.a(CyLib.o)
 .text.CyWdtStart
                0x00000000       0x8c .\CortexM3\ARM_GCC_541\Debug\ext_pim.a(CyLib.o)
 .text.CyWdtClear
                0x00000000       0x18 .\CortexM3\ARM_GCC_541\Debug\ext_pim.a(CyLib.o)
 .text.CyVdLvDigitEnable
                0x00000000       0xcc .\CortexM3\ARM_GCC_541\Debug\ext_pim.a(CyLib.o)
 .text.CyVdLvAnalogEnable
                0x00000000       0xcc .\CortexM3\ARM_GCC_541\Debug\ext_pim.a(CyLib.o)
 .text.CyVdLvDigitDisable
                0x00000000       0x48 .\CortexM3\ARM_GCC_541\Debug\ext_pim.a(CyLib.o)
 .text.CyVdLvAnalogDisable
                0x00000000       0x44 .\CortexM3\ARM_GCC_541\Debug\ext_pim.a(CyLib.o)
 .text.CyVdHvAnalogEnable
                0x00000000       0x7c .\CortexM3\ARM_GCC_541\Debug\ext_pim.a(CyLib.o)
 .text.CyVdHvAnalogDisable
                0x00000000       0x30 .\CortexM3\ARM_GCC_541\Debug\ext_pim.a(CyLib.o)
 .text.CyVdStickyStatus
                0x00000000       0x5c .\CortexM3\ARM_GCC_541\Debug\ext_pim.a(CyLib.o)
 .text.CyVdRealTimeStatus
                0x00000000       0x30 .\CortexM3\ARM_GCC_541\Debug\ext_pim.a(CyLib.o)
 .text.CyDisableInts
                0x00000000       0x34 .\CortexM3\ARM_GCC_541\Debug\ext_pim.a(CyLib.o)
 .text.CyEnableInts
                0x00000000       0x2c .\CortexM3\ARM_GCC_541\Debug\ext_pim.a(CyLib.o)
 .text.CyFlushCache
                0x00000000       0x5c .\CortexM3\ARM_GCC_541\Debug\ext_pim.a(CyLib.o)
 .text.CyIntSetSysVector
                0x00000000       0x4c .\CortexM3\ARM_GCC_541\Debug\ext_pim.a(CyLib.o)
 .text.CyIntGetSysVector
                0x00000000       0x38 .\CortexM3\ARM_GCC_541\Debug\ext_pim.a(CyLib.o)
 .text.CyIntGetVector
                0x00000000       0x38 .\CortexM3\ARM_GCC_541\Debug\ext_pim.a(CyLib.o)
 .text.CyIntGetPriority
                0x00000000       0x38 .\CortexM3\ARM_GCC_541\Debug\ext_pim.a(CyLib.o)
 .text.CyIntGetState
                0x00000000       0x44 .\CortexM3\ARM_GCC_541\Debug\ext_pim.a(CyLib.o)
 .text.CySysTickStart
                0x00000000       0x24 .\CortexM3\ARM_GCC_541\Debug\ext_pim.a(CyLib.o)
 .text.CySysTickInit
                0x00000000       0x6c .\CortexM3\ARM_GCC_541\Debug\ext_pim.a(CyLib.o)
 .text.CySysTickEnable
                0x00000000       0x1c .\CortexM3\ARM_GCC_541\Debug\ext_pim.a(CyLib.o)
 .text.CySysTickStop
                0x00000000       0x1c .\CortexM3\ARM_GCC_541\Debug\ext_pim.a(CyLib.o)
 .text.CySysTickEnableInterrupt
                0x00000000       0x1c .\CortexM3\ARM_GCC_541\Debug\ext_pim.a(CyLib.o)
 .text.CySysTickDisableInterrupt
                0x00000000       0x1c .\CortexM3\ARM_GCC_541\Debug\ext_pim.a(CyLib.o)
 .text.CySysTickSetReload
                0x00000000       0x20 .\CortexM3\ARM_GCC_541\Debug\ext_pim.a(CyLib.o)
 .text.CySysTickGetReload
                0x00000000       0x18 .\CortexM3\ARM_GCC_541\Debug\ext_pim.a(CyLib.o)
 .text.CySysTickGetValue
                0x00000000       0x18 .\CortexM3\ARM_GCC_541\Debug\ext_pim.a(CyLib.o)
 .text.CySysTickSetClockSource
                0x00000000       0x38 .\CortexM3\ARM_GCC_541\Debug\ext_pim.a(CyLib.o)
 .text.CySysTickGetClockSource
                0x00000000       0x1c .\CortexM3\ARM_GCC_541\Debug\ext_pim.a(CyLib.o)
 .text.CySysTickGetCountFlag
                0x00000000       0x1c .\CortexM3\ARM_GCC_541\Debug\ext_pim.a(CyLib.o)
 .text.CySysTickClear
                0x00000000       0x18 .\CortexM3\ARM_GCC_541\Debug\ext_pim.a(CyLib.o)
 .text.CySysTickSetCallback
                0x00000000       0x30 .\CortexM3\ARM_GCC_541\Debug\ext_pim.a(CyLib.o)
 .text.CySysTickGetCallback
                0x00000000       0x20 .\CortexM3\ARM_GCC_541\Debug\ext_pim.a(CyLib.o)
 .text.CySysTickServiceCallbacks
                0x00000000       0x44 .\CortexM3\ARM_GCC_541\Debug\ext_pim.a(CyLib.o)
 .text          0x00000000        0x0 .\CortexM3\ARM_GCC_541\Debug\ext_pim.a(cyPm.o)
 .data          0x00000000        0x0 .\CortexM3\ARM_GCC_541\Debug\ext_pim.a(cyPm.o)
 .rodata        0x00000000        0xf .\CortexM3\ARM_GCC_541\Debug\ext_pim.a(cyPm.o)
 .text.CyPmSaveClocks
                0x00000000      0x288 .\CortexM3\ARM_GCC_541\Debug\ext_pim.a(cyPm.o)
 .text.CyPmRestoreClocks
                0x00000000      0x2f0 .\CortexM3\ARM_GCC_541\Debug\ext_pim.a(cyPm.o)
 .text.CyPmAltAct
                0x00000000       0xbc .\CortexM3\ARM_GCC_541\Debug\ext_pim.a(cyPm.o)
 .text.CyPmSleep
                0x00000000      0x170 .\CortexM3\ARM_GCC_541\Debug\ext_pim.a(cyPm.o)
 .text.CyPmHibernate
                0x00000000       0x10 .\CortexM3\ARM_GCC_541\Debug\ext_pim.a(cyPm.o)
 .text.CyPmHibernateEx
                0x00000000      0x158 .\CortexM3\ARM_GCC_541\Debug\ext_pim.a(cyPm.o)
 .text.CyPmHibSaveSet
                0x00000000       0xe8 .\CortexM3\ARM_GCC_541\Debug\ext_pim.a(cyPm.o)
 .text.CyPmHibRestore
                0x00000000       0x78 .\CortexM3\ARM_GCC_541\Debug\ext_pim.a(cyPm.o)
 .text.CyPmCtwSetInterval
                0x00000000       0x94 .\CortexM3\ARM_GCC_541\Debug\ext_pim.a(cyPm.o)
 .text.CyPmOppsSet
                0x00000000       0x44 .\CortexM3\ARM_GCC_541\Debug\ext_pim.a(cyPm.o)
 .text.CyPmFtwSetInterval
                0x00000000       0x94 .\CortexM3\ARM_GCC_541\Debug\ext_pim.a(cyPm.o)
 .text.CyPmHibSlpSaveSet
                0x00000000      0x280 .\CortexM3\ARM_GCC_541\Debug\ext_pim.a(cyPm.o)
 .text.CyPmHibSlpRestore
                0x00000000      0x18c .\CortexM3\ARM_GCC_541\Debug\ext_pim.a(cyPm.o)
 .text.CyPmHviLviSaveDisable
                0x00000000       0xd8 .\CortexM3\ARM_GCC_541\Debug\ext_pim.a(cyPm.o)
 .text.CyPmHviLviRestore
                0x00000000       0x58 .\CortexM3\ARM_GCC_541\Debug\ext_pim.a(cyPm.o)
 .text          0x00000000        0x0 .\CortexM3\ARM_GCC_541\Debug\ext_pim.a(CySpc.o)
 .data          0x00000000        0x0 .\CortexM3\ARM_GCC_541\Debug\ext_pim.a(CySpc.o)
 .text.CySpcStop
                0x00000000       0x48 .\CortexM3\ARM_GCC_541\Debug\ext_pim.a(CySpc.o)
 .text.CySpcLoadRow
                0x00000000       0x88 .\CortexM3\ARM_GCC_541\Debug\ext_pim.a(CySpc.o)
 .text.CySpcLoadRowFull
                0x00000000       0xcc .\CortexM3\ARM_GCC_541\Debug\ext_pim.a(CySpc.o)
 .text          0x00000000        0x0 .\CortexM3\ARM_GCC_541\Debug\ext_pim.a(EZI2Cs.o)
 .data          0x00000000        0x0 .\CortexM3\ARM_GCC_541\Debug\ext_pim.a(EZI2Cs.o)
 .bss           0x00000000        0x1 .\CortexM3\ARM_GCC_541\Debug\ext_pim.a(EZI2Cs.o)
 .text.EZI2Cs_Init
                0x00000000       0x8c .\CortexM3\ARM_GCC_541\Debug\ext_pim.a(EZI2Cs.o)
 .text.EZI2Cs_Enable
                0x00000000       0x54 .\CortexM3\ARM_GCC_541\Debug\ext_pim.a(EZI2Cs.o)
 .text.EZI2Cs_Start
                0x00000000       0x24 .\CortexM3\ARM_GCC_541\Debug\ext_pim.a(EZI2Cs.o)
 .text.EZI2Cs_SetAddress1
                0x00000000       0x24 .\CortexM3\ARM_GCC_541\Debug\ext_pim.a(EZI2Cs.o)
 .text.EZI2Cs_GetAddress1
                0x00000000       0x18 .\CortexM3\ARM_GCC_541\Debug\ext_pim.a(EZI2Cs.o)
 .text.EZI2Cs_GetActivity
                0x00000000       0x44 .\CortexM3\ARM_GCC_541\Debug\ext_pim.a(EZI2Cs.o)
 .text.EZI2Cs_SetBuffer1
                0x00000000       0x6c .\CortexM3\ARM_GCC_541\Debug\ext_pim.a(EZI2Cs.o)
 .text          0x00000000        0x0 .\CortexM3\ARM_GCC_541\Debug\ext_pim.a(EZI2Cs_PM.o)
 .bss           0x00000000        0x0 .\CortexM3\ARM_GCC_541\Debug\ext_pim.a(EZI2Cs_PM.o)
 .text.EZI2Cs_SaveConfig
                0x00000000       0x58 .\CortexM3\ARM_GCC_541\Debug\ext_pim.a(EZI2Cs_PM.o)
 .text.EZI2Cs_RestoreConfig
                0x00000000       0x84 .\CortexM3\ARM_GCC_541\Debug\ext_pim.a(EZI2Cs_PM.o)
 .text.EZI2Cs_Sleep
                0x00000000       0x30 .\CortexM3\ARM_GCC_541\Debug\ext_pim.a(EZI2Cs_PM.o)
 .text.EZI2Cs_Wakeup
                0x00000000       0x1c .\CortexM3\ARM_GCC_541\Debug\ext_pim.a(EZI2Cs_PM.o)
 .text          0x00000000        0x0 .\CortexM3\ARM_GCC_541\Debug\ext_pim.a(EZI2Cs_INT.o)
 .data          0x00000000        0x0 .\CortexM3\ARM_GCC_541\Debug\ext_pim.a(EZI2Cs_INT.o)
 .bss           0x00000000        0x5 .\CortexM3\ARM_GCC_541\Debug\ext_pim.a(EZI2Cs_INT.o)
 .text.EZI2Cs_ISR
                0x00000000      0x298 .\CortexM3\ARM_GCC_541\Debug\ext_pim.a(EZI2Cs_INT.o)
 .text          0x00000000        0x0 .\CortexM3\ARM_GCC_541\Debug\ext_pim.a(Timeout_Timer.o)
 .data          0x00000000        0x0 .\CortexM3\ARM_GCC_541\Debug\ext_pim.a(Timeout_Timer.o)
 .text.Timeout_Timer_Stop
                0x00000000       0x48 .\CortexM3\ARM_GCC_541\Debug\ext_pim.a(Timeout_Timer.o)
 .text.Timeout_Timer_SoftwareCapture
                0x00000000       0x14 .\CortexM3\ARM_GCC_541\Debug\ext_pim.a(Timeout_Timer.o)
 .text.Timeout_Timer_ReadControlRegister
                0x00000000       0x18 .\CortexM3\ARM_GCC_541\Debug\ext_pim.a(Timeout_Timer.o)
 .text.Timeout_Timer_WriteControlRegister
                0x00000000       0x20 .\CortexM3\ARM_GCC_541\Debug\ext_pim.a(Timeout_Timer.o)
 .text.Timeout_Timer_ReadPeriod
                0x00000000       0x18 .\CortexM3\ARM_GCC_541\Debug\ext_pim.a(Timeout_Timer.o)
 .text.Timeout_Timer_ReadCapture
                0x00000000       0x18 .\CortexM3\ARM_GCC_541\Debug\ext_pim.a(Timeout_Timer.o)
 .text.Timeout_Timer_ReadCounter
                0x00000000       0x20 .\CortexM3\ARM_GCC_541\Debug\ext_pim.a(Timeout_Timer.o)
 .text          0x00000000        0x0 .\CortexM3\ARM_GCC_541\Debug\ext_pim.a(Timeout_Timer_Isr.o)
 .data          0x00000000        0x0 .\CortexM3\ARM_GCC_541\Debug\ext_pim.a(Timeout_Timer_Isr.o)
 .bss           0x00000000        0x0 .\CortexM3\ARM_GCC_541\Debug\ext_pim.a(Timeout_Timer_Isr.o)
 .text.Timeout_Timer_Isr_Start
                0x00000000       0x20 .\CortexM3\ARM_GCC_541\Debug\ext_pim.a(Timeout_Timer_Isr.o)
 .text.Timeout_Timer_Isr_Stop
                0x00000000       0x18 .\CortexM3\ARM_GCC_541\Debug\ext_pim.a(Timeout_Timer_Isr.o)
 .text.Timeout_Timer_Isr_GetVector
                0x00000000       0x20 .\CortexM3\ARM_GCC_541\Debug\ext_pim.a(Timeout_Timer_Isr.o)
 .text.Timeout_Timer_Isr_GetPriority
                0x00000000       0x20 .\CortexM3\ARM_GCC_541\Debug\ext_pim.a(Timeout_Timer_Isr.o)
 .text.Timeout_Timer_Isr_GetState
                0x00000000       0x24 .\CortexM3\ARM_GCC_541\Debug\ext_pim.a(Timeout_Timer_Isr.o)
 .text.Timeout_Timer_Isr_SetPending
                0x00000000       0x18 .\CortexM3\ARM_GCC_541\Debug\ext_pim.a(Timeout_Timer_Isr.o)
 .text.Timeout_Timer_Isr_ClearPending
                0x00000000       0x18 .\CortexM3\ARM_GCC_541\Debug\ext_pim.a(Timeout_Timer_Isr.o)
 COMMON         0x00000000        0x1 .\CortexM3\ARM_GCC_541\Debug\ext_pim.a(Timeout_Timer_Isr.o)
 .text          0x00000000        0x0 .\CortexM3\ARM_GCC_541\Debug\ext_pim.a(Clock_5.o)
 .data          0x00000000        0x0 .\CortexM3\ARM_GCC_541\Debug\ext_pim.a(Clock_5.o)
 .bss           0x00000000        0x0 .\CortexM3\ARM_GCC_541\Debug\ext_pim.a(Clock_5.o)
 .text.Clock_5_Stop
                0x00000000       0x34 .\CortexM3\ARM_GCC_541\Debug\ext_pim.a(Clock_5.o)
 .text.Clock_5_StopBlock
                0x00000000       0xb0 .\CortexM3\ARM_GCC_541\Debug\ext_pim.a(Clock_5.o)
 .text.Clock_5_StandbyPower
                0x00000000       0x40 .\CortexM3\ARM_GCC_541\Debug\ext_pim.a(Clock_5.o)
 .text.Clock_5_SetModeRegister
                0x00000000       0x34 .\CortexM3\ARM_GCC_541\Debug\ext_pim.a(Clock_5.o)
 .text.Clock_5_ClearModeRegister
                0x00000000       0x34 .\CortexM3\ARM_GCC_541\Debug\ext_pim.a(Clock_5.o)
 .text.Clock_5_GetModeRegister
                0x00000000       0x1c .\CortexM3\ARM_GCC_541\Debug\ext_pim.a(Clock_5.o)
 .text.Clock_5_SetSourceRegister
                0x00000000       0xc4 .\CortexM3\ARM_GCC_541\Debug\ext_pim.a(Clock_5.o)
 .text          0x00000000        0x0 .\CortexM3\ARM_GCC_541\Debug\ext_pim.a(isr_F2F_edge.o)
 .data          0x00000000        0x0 .\CortexM3\ARM_GCC_541\Debug\ext_pim.a(isr_F2F_edge.o)
 .bss           0x00000000        0x0 .\CortexM3\ARM_GCC_541\Debug\ext_pim.a(isr_F2F_edge.o)
 .text.isr_F2F_edge_Start
                0x00000000       0x20 .\CortexM3\ARM_GCC_541\Debug\ext_pim.a(isr_F2F_edge.o)
 .text.isr_F2F_edge_Stop
                0x00000000       0x18 .\CortexM3\ARM_GCC_541\Debug\ext_pim.a(isr_F2F_edge.o)
 .text.isr_F2F_edge_GetVector
                0x00000000       0x20 .\CortexM3\ARM_GCC_541\Debug\ext_pim.a(isr_F2F_edge.o)
 .text.isr_F2F_edge_GetPriority
                0x00000000       0x20 .\CortexM3\ARM_GCC_541\Debug\ext_pim.a(isr_F2F_edge.o)
 .text.isr_F2F_edge_GetState
                0x00000000       0x24 .\CortexM3\ARM_GCC_541\Debug\ext_pim.a(isr_F2F_edge.o)
 .text.isr_F2F_edge_SetPending
                0x00000000       0x18 .\CortexM3\ARM_GCC_541\Debug\ext_pim.a(isr_F2F_edge.o)
 .text.isr_F2F_edge_ClearPending
                0x00000000       0x18 .\CortexM3\ARM_GCC_541\Debug\ext_pim.a(isr_F2F_edge.o)
 .text          0x00000000        0x0 .\CortexM3\ARM_GCC_541\Debug\ext_pim.a(FilterReg.o)
 .data          0x00000000        0x0 .\CortexM3\ARM_GCC_541\Debug\ext_pim.a(FilterReg.o)
 .bss           0x00000000        0x0 .\CortexM3\ARM_GCC_541\Debug\ext_pim.a(FilterReg.o)
 .text.FilterReg_InterruptEnable
                0x00000000       0x34 .\CortexM3\ARM_GCC_541\Debug\ext_pim.a(FilterReg.o)
 .text.FilterReg_InterruptDisable
                0x00000000       0x34 .\CortexM3\ARM_GCC_541\Debug\ext_pim.a(FilterReg.o)
 .text.FilterReg_WriteMask
                0x00000000       0x28 .\CortexM3\ARM_GCC_541\Debug\ext_pim.a(FilterReg.o)
 .text.FilterReg_ReadMask
                0x00000000       0x18 .\CortexM3\ARM_GCC_541\Debug\ext_pim.a(FilterReg.o)
 .text          0x00000000        0x0 .\CortexM3\ARM_GCC_541\Debug\ext_pim.a(Mode_Sel_ACS.o)
 .data          0x00000000        0x0 .\CortexM3\ARM_GCC_541\Debug\ext_pim.a(Mode_Sel_ACS.o)
 .bss           0x00000000        0x0 .\CortexM3\ARM_GCC_541\Debug\ext_pim.a(Mode_Sel_ACS.o)
 .text.Mode_Sel_ACS_SetDriveMode
                0x00000000       0x3c .\CortexM3\ARM_GCC_541\Debug\ext_pim.a(Mode_Sel_ACS.o)
 .text.Mode_Sel_ACS_Read
                0x00000000       0x1c .\CortexM3\ARM_GCC_541\Debug\ext_pim.a(Mode_Sel_ACS.o)
 .text.Mode_Sel_ACS_ReadDataReg
                0x00000000       0x1c .\CortexM3\ARM_GCC_541\Debug\ext_pim.a(Mode_Sel_ACS.o)
 .text          0x00000000        0x0 .\CortexM3\ARM_GCC_541\Debug\ext_pim.a(TX_EN.o)
 .data          0x00000000        0x0 .\CortexM3\ARM_GCC_541\Debug\ext_pim.a(TX_EN.o)
 .bss           0x00000000        0x0 .\CortexM3\ARM_GCC_541\Debug\ext_pim.a(TX_EN.o)
 .text.TX_EN_SetDriveMode
                0x00000000       0x3c .\CortexM3\ARM_GCC_541\Debug\ext_pim.a(TX_EN.o)
 .text.TX_EN_Read
                0x00000000       0x20 .\CortexM3\ARM_GCC_541\Debug\ext_pim.a(TX_EN.o)
 .text.TX_EN_ReadDataReg
                0x00000000       0x20 .\CortexM3\ARM_GCC_541\Debug\ext_pim.a(TX_EN.o)
 .text          0x00000000        0x0 .\CortexM3\ARM_GCC_541\Debug\ext_pim.a(CR_DE.o)
 .data          0x00000000        0x0 .\CortexM3\ARM_GCC_541\Debug\ext_pim.a(CR_DE.o)
 .bss           0x00000000        0x0 .\CortexM3\ARM_GCC_541\Debug\ext_pim.a(CR_DE.o)
 .text.CR_DE_SetDriveMode
                0x00000000       0x3c .\CortexM3\ARM_GCC_541\Debug\ext_pim.a(CR_DE.o)
 .text.CR_DE_Read
                0x00000000       0x20 .\CortexM3\ARM_GCC_541\Debug\ext_pim.a(CR_DE.o)
 .text.CR_DE_ReadDataReg
                0x00000000       0x20 .\CortexM3\ARM_GCC_541\Debug\ext_pim.a(CR_DE.o)
 .text          0x00000000        0x0 .\CortexM3\ARM_GCC_541\Debug\ext_pim.a(Clock_6.o)
 .data          0x00000000        0x0 .\CortexM3\ARM_GCC_541\Debug\ext_pim.a(Clock_6.o)
 .bss           0x00000000        0x0 .\CortexM3\ARM_GCC_541\Debug\ext_pim.a(Clock_6.o)
 .text.Clock_6_Stop
                0x00000000       0x34 .\CortexM3\ARM_GCC_541\Debug\ext_pim.a(Clock_6.o)
 .text.Clock_6_StopBlock
                0x00000000       0xb0 .\CortexM3\ARM_GCC_541\Debug\ext_pim.a(Clock_6.o)
 .text.Clock_6_StandbyPower
                0x00000000       0x40 .\CortexM3\ARM_GCC_541\Debug\ext_pim.a(Clock_6.o)
 .text.Clock_6_SetModeRegister
                0x00000000       0x34 .\CortexM3\ARM_GCC_541\Debug\ext_pim.a(Clock_6.o)
 .text.Clock_6_ClearModeRegister
                0x00000000       0x34 .\CortexM3\ARM_GCC_541\Debug\ext_pim.a(Clock_6.o)
 .text.Clock_6_GetModeRegister
                0x00000000       0x1c .\CortexM3\ARM_GCC_541\Debug\ext_pim.a(Clock_6.o)
 .text.Clock_6_SetSourceRegister
                0x00000000       0xc4 .\CortexM3\ARM_GCC_541\Debug\ext_pim.a(Clock_6.o)
 .text.Clock_6_SetPhaseRegister
                0x00000000       0x24 .\CortexM3\ARM_GCC_541\Debug\ext_pim.a(Clock_6.o)
 .text.Clock_6_GetPhaseRegister
                0x00000000       0x1c .\CortexM3\ARM_GCC_541\Debug\ext_pim.a(Clock_6.o)
 .text          0x00000000        0x0 .\CortexM3\ARM_GCC_541\Debug\ext_pim.a(Mode_Sel_CR.o)
 .data          0x00000000        0x0 .\CortexM3\ARM_GCC_541\Debug\ext_pim.a(Mode_Sel_CR.o)
 .bss           0x00000000        0x0 .\CortexM3\ARM_GCC_541\Debug\ext_pim.a(Mode_Sel_CR.o)
 .text.Mode_Sel_CR_SetDriveMode
                0x00000000       0x3c .\CortexM3\ARM_GCC_541\Debug\ext_pim.a(Mode_Sel_CR.o)
 .text.Mode_Sel_CR_Read
                0x00000000       0x20 .\CortexM3\ARM_GCC_541\Debug\ext_pim.a(Mode_Sel_CR.o)
 .text.Mode_Sel_CR_ReadDataReg
                0x00000000       0x20 .\CortexM3\ARM_GCC_541\Debug\ext_pim.a(Mode_Sel_CR.o)
 .text          0x00000000        0x0 .\CortexM3\ARM_GCC_541\Debug\ext_pim.a(isr_keepalive.o)
 .data          0x00000000        0x0 .\CortexM3\ARM_GCC_541\Debug\ext_pim.a(isr_keepalive.o)
 .bss           0x00000000        0x0 .\CortexM3\ARM_GCC_541\Debug\ext_pim.a(isr_keepalive.o)
 .text.isr_keepalive_Start
                0x00000000       0x20 .\CortexM3\ARM_GCC_541\Debug\ext_pim.a(isr_keepalive.o)
 .text.isr_keepalive_Stop
                0x00000000       0x18 .\CortexM3\ARM_GCC_541\Debug\ext_pim.a(isr_keepalive.o)
 .text.isr_keepalive_Interrupt
                0x00000000        0xc .\CortexM3\ARM_GCC_541\Debug\ext_pim.a(isr_keepalive.o)
 .text.isr_keepalive_GetVector
                0x00000000       0x20 .\CortexM3\ARM_GCC_541\Debug\ext_pim.a(isr_keepalive.o)
 .text.isr_keepalive_GetPriority
                0x00000000       0x20 .\CortexM3\ARM_GCC_541\Debug\ext_pim.a(isr_keepalive.o)
 .text.isr_keepalive_SetPending
                0x00000000       0x18 .\CortexM3\ARM_GCC_541\Debug\ext_pim.a(isr_keepalive.o)
 .text.isr_keepalive_ClearPending
                0x00000000       0x18 .\CortexM3\ARM_GCC_541\Debug\ext_pim.a(isr_keepalive.o)
 .text          0x00000000        0x0 .\CortexM3\ARM_GCC_541\Debug\ext_pim.a(OSDPReaderTimer.o)
 .data          0x00000000        0x0 .\CortexM3\ARM_GCC_541\Debug\ext_pim.a(OSDPReaderTimer.o)
 .text.OSDPReaderTimer_Stop
                0x00000000       0x20 .\CortexM3\ARM_GCC_541\Debug\ext_pim.a(OSDPReaderTimer.o)
 .text.OSDPReaderTimer_SoftwareCapture
                0x00000000       0x14 .\CortexM3\ARM_GCC_541\Debug\ext_pim.a(OSDPReaderTimer.o)
 .text.OSDPReaderTimer_ReadControlRegister
                0x00000000       0x18 .\CortexM3\ARM_GCC_541\Debug\ext_pim.a(OSDPReaderTimer.o)
 .text.OSDPReaderTimer_WriteControlRegister
                0x00000000       0x20 .\CortexM3\ARM_GCC_541\Debug\ext_pim.a(OSDPReaderTimer.o)
 .text.OSDPReaderTimer_ReadPeriod
                0x00000000       0x18 .\CortexM3\ARM_GCC_541\Debug\ext_pim.a(OSDPReaderTimer.o)
 .text.OSDPReaderTimer_ReadCounter
                0x00000000       0x20 .\CortexM3\ARM_GCC_541\Debug\ext_pim.a(OSDPReaderTimer.o)
 .text          0x00000000        0x0 .\CortexM3\ARM_GCC_541\Debug\ext_pim.a(isr_SW_Rst.o)
 .data          0x00000000        0x0 .\CortexM3\ARM_GCC_541\Debug\ext_pim.a(isr_SW_Rst.o)
 .bss           0x00000000        0x0 .\CortexM3\ARM_GCC_541\Debug\ext_pim.a(isr_SW_Rst.o)
 .text.isr_SW_Rst_StartEx
                0x00000000       0x24 .\CortexM3\ARM_GCC_541\Debug\ext_pim.a(isr_SW_Rst.o)
 .text.isr_SW_Rst_Stop
                0x00000000       0x18 .\CortexM3\ARM_GCC_541\Debug\ext_pim.a(isr_SW_Rst.o)
 .text.isr_SW_Rst_GetVector
                0x00000000       0x20 .\CortexM3\ARM_GCC_541\Debug\ext_pim.a(isr_SW_Rst.o)
 .text.isr_SW_Rst_GetPriority
                0x00000000       0x20 .\CortexM3\ARM_GCC_541\Debug\ext_pim.a(isr_SW_Rst.o)
 .text.isr_SW_Rst_GetState
                0x00000000       0x24 .\CortexM3\ARM_GCC_541\Debug\ext_pim.a(isr_SW_Rst.o)
 .text.isr_SW_Rst_SetPending
                0x00000000       0x18 .\CortexM3\ARM_GCC_541\Debug\ext_pim.a(isr_SW_Rst.o)
 .text.isr_SW_Rst_ClearPending
                0x00000000       0x18 .\CortexM3\ARM_GCC_541\Debug\ext_pim.a(isr_SW_Rst.o)
 .text          0x00000000        0x0 .\CortexM3\ARM_GCC_541\Debug\ext_pim.a(LED_GRN.o)
 .data          0x00000000        0x0 .\CortexM3\ARM_GCC_541\Debug\ext_pim.a(LED_GRN.o)
 .bss           0x00000000        0x0 .\CortexM3\ARM_GCC_541\Debug\ext_pim.a(LED_GRN.o)
 .text.LED_GRN_SetDriveMode
                0x00000000       0x3c .\CortexM3\ARM_GCC_541\Debug\ext_pim.a(LED_GRN.o)
 .text.LED_GRN_Read
                0x00000000       0x20 .\CortexM3\ARM_GCC_541\Debug\ext_pim.a(LED_GRN.o)
 .text.LED_GRN_ReadDataReg
                0x00000000       0x20 .\CortexM3\ARM_GCC_541\Debug\ext_pim.a(LED_GRN.o)
 .text          0x00000000        0x0 .\CortexM3\ARM_GCC_541\Debug\ext_pim.a(LED_RED.o)
 .data          0x00000000        0x0 .\CortexM3\ARM_GCC_541\Debug\ext_pim.a(LED_RED.o)
 .bss           0x00000000        0x0 .\CortexM3\ARM_GCC_541\Debug\ext_pim.a(LED_RED.o)
 .text.LED_RED_SetDriveMode
                0x00000000       0x3c .\CortexM3\ARM_GCC_541\Debug\ext_pim.a(LED_RED.o)
 .text.LED_RED_Read
                0x00000000       0x20 .\CortexM3\ARM_GCC_541\Debug\ext_pim.a(LED_RED.o)
 .text.LED_RED_ReadDataReg
                0x00000000       0x20 .\CortexM3\ARM_GCC_541\Debug\ext_pim.a(LED_RED.o)
 .text          0x00000000        0x0 .\CortexM3\ARM_GCC_541\Debug\ext_pim.a(LED_YEL.o)
 .data          0x00000000        0x0 .\CortexM3\ARM_GCC_541\Debug\ext_pim.a(LED_YEL.o)
 .bss           0x00000000        0x0 .\CortexM3\ARM_GCC_541\Debug\ext_pim.a(LED_YEL.o)
 .text.LED_YEL_SetDriveMode
                0x00000000       0x3c .\CortexM3\ARM_GCC_541\Debug\ext_pim.a(LED_YEL.o)
 .text.LED_YEL_Read
                0x00000000       0x20 .\CortexM3\ARM_GCC_541\Debug\ext_pim.a(LED_YEL.o)
 .text.LED_YEL_ReadDataReg
                0x00000000       0x20 .\CortexM3\ARM_GCC_541\Debug\ext_pim.a(LED_YEL.o)
 .text          0x00000000        0x0 .\CortexM3\ARM_GCC_541\Debug\ext_pim.a(UART_ACS.o)
 .data          0x00000000        0x0 .\CortexM3\ARM_GCC_541\Debug\ext_pim.a(UART_ACS.o)
 .text.UART_ACS_Stop
                0x00000000       0x50 .\CortexM3\ARM_GCC_541\Debug\ext_pim.a(UART_ACS.o)
 .text.UART_ACS_ReadRxData
                0x00000000       0x90 .\CortexM3\ARM_GCC_541\Debug\ext_pim.a(UART_ACS.o)
 .text.UART_ACS_ReadRxStatus
                0x00000000       0x40 .\CortexM3\ARM_GCC_541\Debug\ext_pim.a(UART_ACS.o)
 .text.UART_ACS_GetByte
                0x00000000       0x44 .\CortexM3\ARM_GCC_541\Debug\ext_pim.a(UART_ACS.o)
 .text.UART_ACS_SetRxAddressMode
                0x00000000       0x14 .\CortexM3\ARM_GCC_541\Debug\ext_pim.a(UART_ACS.o)
 .text.UART_ACS_SetRxAddress1
                0x00000000       0x20 .\CortexM3\ARM_GCC_541\Debug\ext_pim.a(UART_ACS.o)
 .text.UART_ACS_SetRxAddress2
                0x00000000       0x20 .\CortexM3\ARM_GCC_541\Debug\ext_pim.a(UART_ACS.o)
 .text.UART_ACS_SetTxInterruptMode
                0x00000000       0x20 .\CortexM3\ARM_GCC_541\Debug\ext_pim.a(UART_ACS.o)
 .text.UART_ACS_WriteTxData
                0x00000000       0x2c .\CortexM3\ARM_GCC_541\Debug\ext_pim.a(UART_ACS.o)
 .text.UART_ACS_ReadTxStatus
                0x00000000       0x18 .\CortexM3\ARM_GCC_541\Debug\ext_pim.a(UART_ACS.o)
 .text.UART_ACS_PutString
                0x00000000       0x44 .\CortexM3\ARM_GCC_541\Debug\ext_pim.a(UART_ACS.o)
 .text.UART_ACS_GetTxBufferSize
                0x00000000       0x40 .\CortexM3\ARM_GCC_541\Debug\ext_pim.a(UART_ACS.o)
 .text.UART_ACS_ClearTxBuffer
                0x00000000       0x44 .\CortexM3\ARM_GCC_541\Debug\ext_pim.a(UART_ACS.o)
 .text.UART_ACS_SendBreak
                0x00000000       0xa0 .\CortexM3\ARM_GCC_541\Debug\ext_pim.a(UART_ACS.o)
 .text.UART_ACS_SetTxAddressMode
                0x00000000       0x40 .\CortexM3\ARM_GCC_541\Debug\ext_pim.a(UART_ACS.o)
 .text          0x00000000        0x0 .\CortexM3\ARM_GCC_541\Debug\ext_pim.a(UART_ACS_INT.o)
 .data          0x00000000        0x0 .\CortexM3\ARM_GCC_541\Debug\ext_pim.a(UART_ACS_INT.o)
 .bss           0x00000000        0x0 .\CortexM3\ARM_GCC_541\Debug\ext_pim.a(UART_ACS_INT.o)
 .text          0x00000000        0x0 .\CortexM3\ARM_GCC_541\Debug\ext_pim.a(UART_READER.o)
 .data          0x00000000        0x0 .\CortexM3\ARM_GCC_541\Debug\ext_pim.a(UART_READER.o)
 .text.UART_READER_Stop
                0x00000000       0x48 .\CortexM3\ARM_GCC_541\Debug\ext_pim.a(UART_READER.o)
 .text.UART_READER_SetRxInterruptMode
                0x00000000       0x20 .\CortexM3\ARM_GCC_541\Debug\ext_pim.a(UART_READER.o)
 .text.UART_READER_GetChar
                0x00000000       0x44 .\CortexM3\ARM_GCC_541\Debug\ext_pim.a(UART_READER.o)
 .text.UART_READER_GetByte
                0x00000000       0x20 .\CortexM3\ARM_GCC_541\Debug\ext_pim.a(UART_READER.o)
 .text.UART_READER_GetRxBufferSize
                0x00000000       0x2c .\CortexM3\ARM_GCC_541\Debug\ext_pim.a(UART_READER.o)
 .text.UART_READER_SetRxAddressMode
                0x00000000       0x14 .\CortexM3\ARM_GCC_541\Debug\ext_pim.a(UART_READER.o)
 .text.UART_READER_SetRxAddress1
                0x00000000       0x20 .\CortexM3\ARM_GCC_541\Debug\ext_pim.a(UART_READER.o)
 .text.UART_READER_SetRxAddress2
                0x00000000       0x20 .\CortexM3\ARM_GCC_541\Debug\ext_pim.a(UART_READER.o)
 .text.UART_READER_SetTxInterruptMode
                0x00000000       0x20 .\CortexM3\ARM_GCC_541\Debug\ext_pim.a(UART_READER.o)
 .text.UART_READER_WriteTxData
                0x00000000       0x2c .\CortexM3\ARM_GCC_541\Debug\ext_pim.a(UART_READER.o)
 .text.UART_READER_ReadTxStatus
                0x00000000       0x18 .\CortexM3\ARM_GCC_541\Debug\ext_pim.a(UART_READER.o)
 .text.UART_READER_PutString
                0x00000000       0x44 .\CortexM3\ARM_GCC_541\Debug\ext_pim.a(UART_READER.o)
 .text.UART_READER_PutCRLF
                0x00000000       0x34 .\CortexM3\ARM_GCC_541\Debug\ext_pim.a(UART_READER.o)
 .text.UART_READER_GetTxBufferSize
                0x00000000       0x40 .\CortexM3\ARM_GCC_541\Debug\ext_pim.a(UART_READER.o)
 .text.UART_READER_SendBreak
                0x00000000       0xa0 .\CortexM3\ARM_GCC_541\Debug\ext_pim.a(UART_READER.o)
 .text.UART_READER_SetTxAddressMode
                0x00000000       0x40 .\CortexM3\ARM_GCC_541\Debug\ext_pim.a(UART_READER.o)
 .text          0x00000000        0x0 .\CortexM3\ARM_GCC_541\Debug\ext_pim.a(isr_READER_rx.o)
 .data          0x00000000        0x0 .\CortexM3\ARM_GCC_541\Debug\ext_pim.a(isr_READER_rx.o)
 .bss           0x00000000        0x0 .\CortexM3\ARM_GCC_541\Debug\ext_pim.a(isr_READER_rx.o)
 .text.isr_READER_rx_Start
                0x00000000       0x20 .\CortexM3\ARM_GCC_541\Debug\ext_pim.a(isr_READER_rx.o)
 .text.isr_READER_rx_Stop
                0x00000000       0x18 .\CortexM3\ARM_GCC_541\Debug\ext_pim.a(isr_READER_rx.o)
 .text.isr_READER_rx_Interrupt
                0x00000000        0xc .\CortexM3\ARM_GCC_541\Debug\ext_pim.a(isr_READER_rx.o)
 .text.isr_READER_rx_GetVector
                0x00000000       0x20 .\CortexM3\ARM_GCC_541\Debug\ext_pim.a(isr_READER_rx.o)
 .text.isr_READER_rx_GetPriority
                0x00000000       0x20 .\CortexM3\ARM_GCC_541\Debug\ext_pim.a(isr_READER_rx.o)
 .text.isr_READER_rx_GetState
                0x00000000       0x24 .\CortexM3\ARM_GCC_541\Debug\ext_pim.a(isr_READER_rx.o)
 .text.isr_READER_rx_SetPending
                0x00000000       0x18 .\CortexM3\ARM_GCC_541\Debug\ext_pim.a(isr_READER_rx.o)
 .text.isr_READER_rx_ClearPending
                0x00000000       0x18 .\CortexM3\ARM_GCC_541\Debug\ext_pim.a(isr_READER_rx.o)
 .text          0x00000000        0x0 .\CortexM3\ARM_GCC_541\Debug\ext_pim.a(Pulse_50us.o)
 .data          0x00000000        0x0 .\CortexM3\ARM_GCC_541\Debug\ext_pim.a(Pulse_50us.o)
 .bss           0x00000000        0x1 .\CortexM3\ARM_GCC_541\Debug\ext_pim.a(Pulse_50us.o)
 .text.Pulse_50us_Start
                0x00000000       0x24 .\CortexM3\ARM_GCC_541\Debug\ext_pim.a(Pulse_50us.o)
 .text.Pulse_50us_Stop
                0x00000000       0x20 .\CortexM3\ARM_GCC_541\Debug\ext_pim.a(Pulse_50us.o)
 .text.Pulse_50us_SoftwareCapture
                0x00000000       0x14 .\CortexM3\ARM_GCC_541\Debug\ext_pim.a(Pulse_50us.o)
 .text.Pulse_50us_ReadControlRegister
                0x00000000       0x18 .\CortexM3\ARM_GCC_541\Debug\ext_pim.a(Pulse_50us.o)
 .text.Pulse_50us_ReadPeriod
                0x00000000       0x18 .\CortexM3\ARM_GCC_541\Debug\ext_pim.a(Pulse_50us.o)
 .text.Pulse_50us_ReadCounter
                0x00000000       0x20 .\CortexM3\ARM_GCC_541\Debug\ext_pim.a(Pulse_50us.o)
 .text          0x00000000        0x0 .\CortexM3\ARM_GCC_541\Debug\ext_pim.a(Pulse_50us_PM.o)
 .data          0x00000000        0x0 .\CortexM3\ARM_GCC_541\Debug\ext_pim.a(Pulse_50us_PM.o)
 .text.Pulse_50us_SaveConfig
                0x00000000       0x34 .\CortexM3\ARM_GCC_541\Debug\ext_pim.a(Pulse_50us_PM.o)
 .text.Pulse_50us_Sleep
                0x00000000       0x34 .\CortexM3\ARM_GCC_541\Debug\ext_pim.a(Pulse_50us_PM.o)
 .text.Pulse_50us_Wakeup
                0x00000000       0x1c .\CortexM3\ARM_GCC_541\Debug\ext_pim.a(Pulse_50us_PM.o)
 .text          0x00000000        0x0 .\CortexM3\ARM_GCC_541\Debug\ext_pim.a(isr_50us.o)
 .data          0x00000000        0x0 .\CortexM3\ARM_GCC_541\Debug\ext_pim.a(isr_50us.o)
 .bss           0x00000000        0x0 .\CortexM3\ARM_GCC_541\Debug\ext_pim.a(isr_50us.o)
 .text.isr_50us_Start
                0x00000000       0x20 .\CortexM3\ARM_GCC_541\Debug\ext_pim.a(isr_50us.o)
 .text.isr_50us_Stop
                0x00000000       0x18 .\CortexM3\ARM_GCC_541\Debug\ext_pim.a(isr_50us.o)
 .text.isr_50us_Interrupt
                0x00000000        0xc .\CortexM3\ARM_GCC_541\Debug\ext_pim.a(isr_50us.o)
 .text.isr_50us_GetVector
                0x00000000       0x20 .\CortexM3\ARM_GCC_541\Debug\ext_pim.a(isr_50us.o)
 .text.isr_50us_GetPriority
                0x00000000       0x20 .\CortexM3\ARM_GCC_541\Debug\ext_pim.a(isr_50us.o)
 .text.isr_50us_SetPending
                0x00000000       0x18 .\CortexM3\ARM_GCC_541\Debug\ext_pim.a(isr_50us.o)
 .text.isr_50us_ClearPending
                0x00000000       0x18 .\CortexM3\ARM_GCC_541\Debug\ext_pim.a(isr_50us.o)
 .text          0x00000000        0x0 .\CortexM3\ARM_GCC_541\Debug\ext_pim.a(PS_D1.o)
 .data          0x00000000        0x0 .\CortexM3\ARM_GCC_541\Debug\ext_pim.a(PS_D1.o)
 .bss           0x00000000        0x0 .\CortexM3\ARM_GCC_541\Debug\ext_pim.a(PS_D1.o)
 .text.PS_D1_SetDriveMode
                0x00000000       0x3c .\CortexM3\ARM_GCC_541\Debug\ext_pim.a(PS_D1.o)
 .text.PS_D1_Read
                0x00000000       0x20 .\CortexM3\ARM_GCC_541\Debug\ext_pim.a(PS_D1.o)
 .text.PS_D1_ReadDataReg
                0x00000000       0x20 .\CortexM3\ARM_GCC_541\Debug\ext_pim.a(PS_D1.o)
 .text          0x00000000        0x0 .\CortexM3\ARM_GCC_541\Debug\ext_pim.a(SF2F.o)
 .data          0x00000000        0x0 .\CortexM3\ARM_GCC_541\Debug\ext_pim.a(SF2F.o)
 .bss           0x00000000        0x0 .\CortexM3\ARM_GCC_541\Debug\ext_pim.a(SF2F.o)
 .text.SF2F_SetDriveMode
                0x00000000       0x3c .\CortexM3\ARM_GCC_541\Debug\ext_pim.a(SF2F.o)
 .text.SF2F_Read
                0x00000000       0x20 .\CortexM3\ARM_GCC_541\Debug\ext_pim.a(SF2F.o)
 .text.SF2F_ReadDataReg
                0x00000000       0x20 .\CortexM3\ARM_GCC_541\Debug\ext_pim.a(SF2F.o)
 .text          0x00000000        0x0 .\CortexM3\ARM_GCC_541\Debug\ext_pim.a(POE_RST.o)
 .data          0x00000000        0x0 .\CortexM3\ARM_GCC_541\Debug\ext_pim.a(POE_RST.o)
 .bss           0x00000000        0x0 .\CortexM3\ARM_GCC_541\Debug\ext_pim.a(POE_RST.o)
 .text.POE_RST_SetDriveMode
                0x00000000       0x3c .\CortexM3\ARM_GCC_541\Debug\ext_pim.a(POE_RST.o)
 .text.POE_RST_Read
                0x00000000       0x20 .\CortexM3\ARM_GCC_541\Debug\ext_pim.a(POE_RST.o)
 .text.POE_RST_ReadDataReg
                0x00000000       0x20 .\CortexM3\ARM_GCC_541\Debug\ext_pim.a(POE_RST.o)
 .text          0x00000000        0x0 .\CortexM3\ARM_GCC_541\Debug\ext_pim.a(POE_OIM_SDn.o)
 .data          0x00000000        0x0 .\CortexM3\ARM_GCC_541\Debug\ext_pim.a(POE_OIM_SDn.o)
 .bss           0x00000000        0x0 .\CortexM3\ARM_GCC_541\Debug\ext_pim.a(POE_OIM_SDn.o)
 .text.POE_OIM_SDn_SetDriveMode
                0x00000000       0x3c .\CortexM3\ARM_GCC_541\Debug\ext_pim.a(POE_OIM_SDn.o)
 .text.POE_OIM_SDn_Read
                0x00000000       0x20 .\CortexM3\ARM_GCC_541\Debug\ext_pim.a(POE_OIM_SDn.o)
 .text.POE_OIM_SDn_ReadDataReg
                0x00000000       0x20 .\CortexM3\ARM_GCC_541\Debug\ext_pim.a(POE_OIM_SDn.o)
 .text          0x00000000        0x0 .\CortexM3\ARM_GCC_541\Debug\ext_pim.a(USBUART.o)
 .data          0x00000000        0x0 .\CortexM3\ARM_GCC_541\Debug\ext_pim.a(USBUART.o)
 .text.USBUART_Stop
                0x00000000      0x10c .\CortexM3\ARM_GCC_541\Debug\ext_pim.a(USBUART.o)
 .text.USBUART_CheckActivity
                0x00000000       0x38 .\CortexM3\ARM_GCC_541\Debug\ext_pim.a(USBUART.o)
 .text.USBUART_GetInterfaceSetting
                0x00000000       0x20 .\CortexM3\ARM_GCC_541\Debug\ext_pim.a(USBUART.o)
 .text.USBUART_DisableOutEP
                0x00000000       0x34 .\CortexM3\ARM_GCC_541\Debug\ext_pim.a(USBUART.o)
 .text.USBUART_Force
                0x00000000       0x20 .\CortexM3\ARM_GCC_541\Debug\ext_pim.a(USBUART.o)
 .text.USBUART_GetEPAckState
                0x00000000       0x40 .\CortexM3\ARM_GCC_541\Debug\ext_pim.a(USBUART.o)
 .text.USBUART_SetPowerStatus
                0x00000000       0x40 .\CortexM3\ARM_GCC_541\Debug\ext_pim.a(USBUART.o)
 .text.USBUART_RWUEnabled
                0x00000000       0x2c .\CortexM3\ARM_GCC_541\Debug\ext_pim.a(USBUART.o)
 .text.USBUART_GetDeviceAddress
                0x00000000       0x1c .\CortexM3\ARM_GCC_541\Debug\ext_pim.a(USBUART.o)
 .text.USBUART_EnableSofInt
                0x00000000       0x18 .\CortexM3\ARM_GCC_541\Debug\ext_pim.a(USBUART.o)
 .text.USBUART_DisableSofInt
                0x00000000       0x18 .\CortexM3\ARM_GCC_541\Debug\ext_pim.a(USBUART.o)
 .text          0x00000000        0x0 .\CortexM3\ARM_GCC_541\Debug\ext_pim.a(USBUART_cdc.o)
 .text.USBUART_StrLen
                0x00000000       0x2c .\CortexM3\ARM_GCC_541\Debug\ext_pim.a(USBUART_cdc.o)
 .text.USBUART_PutString
                0x00000000       0xdc .\CortexM3\ARM_GCC_541\Debug\ext_pim.a(USBUART_cdc.o)
 .text.USBUART_PutChar
                0x00000000       0x38 .\CortexM3\ARM_GCC_541\Debug\ext_pim.a(USBUART_cdc.o)
 .rodata        0x00000000        0x2 .\CortexM3\ARM_GCC_541\Debug\ext_pim.a(USBUART_cdc.o)
 .text.USBUART_PutCRLF
                0x00000000       0x38 .\CortexM3\ARM_GCC_541\Debug\ext_pim.a(USBUART_cdc.o)
 .text.USBUART_DataIsReady
                0x00000000       0x24 .\CortexM3\ARM_GCC_541\Debug\ext_pim.a(USBUART_cdc.o)
 .text.USBUART_GetData
                0x00000000       0x3c .\CortexM3\ARM_GCC_541\Debug\ext_pim.a(USBUART_cdc.o)
 .text.USBUART_GetChar
                0x00000000       0x30 .\CortexM3\ARM_GCC_541\Debug\ext_pim.a(USBUART_cdc.o)
 .text.USBUART_IsLineChanged
                0x00000000       0x54 .\CortexM3\ARM_GCC_541\Debug\ext_pim.a(USBUART_cdc.o)
 .text.USBUART_GetDTERate
                0x00000000       0x8c .\CortexM3\ARM_GCC_541\Debug\ext_pim.a(USBUART_cdc.o)
 .text.USBUART_GetCharFormat
                0x00000000       0x2c .\CortexM3\ARM_GCC_541\Debug\ext_pim.a(USBUART_cdc.o)
 .text.USBUART_GetParityType
                0x00000000       0x2c .\CortexM3\ARM_GCC_541\Debug\ext_pim.a(USBUART_cdc.o)
 .text.USBUART_GetDataBits
                0x00000000       0x2c .\CortexM3\ARM_GCC_541\Debug\ext_pim.a(USBUART_cdc.o)
 .text.USBUART_GetLineControl
                0x00000000       0x24 .\CortexM3\ARM_GCC_541\Debug\ext_pim.a(USBUART_cdc.o)
 .text.USBUART_SendSerialState
                0x00000000       0xa8 .\CortexM3\ARM_GCC_541\Debug\ext_pim.a(USBUART_cdc.o)
 .text.USBUART_GetSerialState
                0x00000000       0x24 .\CortexM3\ARM_GCC_541\Debug\ext_pim.a(USBUART_cdc.o)
 .text.USBUART_NotificationIsReady
                0x00000000       0x38 .\CortexM3\ARM_GCC_541\Debug\ext_pim.a(USBUART_cdc.o)
 .text.USBUART_SetComPort
                0x00000000       0x30 .\CortexM3\ARM_GCC_541\Debug\ext_pim.a(USBUART_cdc.o)
 .text.USBUART_GetComPort
                0x00000000       0x14 .\CortexM3\ARM_GCC_541\Debug\ext_pim.a(USBUART_cdc.o)
 .text          0x00000000        0x0 .\CortexM3\ARM_GCC_541\Debug\ext_pim.a(USBUART_drv.o)
 .data          0x00000000        0x0 .\CortexM3\ARM_GCC_541\Debug\ext_pim.a(USBUART_drv.o)
 .bss           0x00000000        0x0 .\CortexM3\ARM_GCC_541\Debug\ext_pim.a(USBUART_drv.o)
 .text          0x00000000        0x0 .\CortexM3\ARM_GCC_541\Debug\ext_pim.a(USBUART_episr.o)
 .data          0x00000000        0x0 .\CortexM3\ARM_GCC_541\Debug\ext_pim.a(USBUART_episr.o)
 .bss           0x00000000        0x0 .\CortexM3\ARM_GCC_541\Debug\ext_pim.a(USBUART_episr.o)
 .text          0x00000000        0x0 .\CortexM3\ARM_GCC_541\Debug\ext_pim.a(USBUART_pm.o)
 .data          0x00000000        0x0 .\CortexM3\ARM_GCC_541\Debug\ext_pim.a(USBUART_pm.o)
 .bss           0x00000000        0x2 .\CortexM3\ARM_GCC_541\Debug\ext_pim.a(USBUART_pm.o)
 .text.USBUART_SaveConfig
                0x00000000        0xc .\CortexM3\ARM_GCC_541\Debug\ext_pim.a(USBUART_pm.o)
 .text.USBUART_RestoreConfig
                0x00000000       0x20 .\CortexM3\ARM_GCC_541\Debug\ext_pim.a(USBUART_pm.o)
 .text.USBUART_Suspend
                0x00000000      0x11c .\CortexM3\ARM_GCC_541\Debug\ext_pim.a(USBUART_pm.o)
 .text.USBUART_Resume
                0x00000000      0x100 .\CortexM3\ARM_GCC_541\Debug\ext_pim.a(USBUART_pm.o)
 .text          0x00000000        0x0 .\CortexM3\ARM_GCC_541\Debug\ext_pim.a(USBUART_std.o)
 .data          0x00000000        0x0 .\CortexM3\ARM_GCC_541\Debug\ext_pim.a(USBUART_std.o)
 .text.USBUART_EpStateInit
                0x00000000       0x6c .\CortexM3\ARM_GCC_541\Debug\ext_pim.a(USBUART_std.o)
 .text.USBUART_TerminateEP
                0x00000000       0xc0 .\CortexM3\ARM_GCC_541\Debug\ext_pim.a(USBUART_std.o)
 .text          0x00000000        0x0 .\CortexM3\ARM_GCC_541\Debug\ext_pim.a(USBUART_vnd.o)
 .data          0x00000000        0x0 .\CortexM3\ARM_GCC_541\Debug\ext_pim.a(USBUART_vnd.o)
 .bss           0x00000000        0x0 .\CortexM3\ARM_GCC_541\Debug\ext_pim.a(USBUART_vnd.o)
 .text          0x00000000        0x0 .\CortexM3\ARM_GCC_541\Debug\ext_pim.a(USBUART_Dp.o)
 .data          0x00000000        0x0 .\CortexM3\ARM_GCC_541\Debug\ext_pim.a(USBUART_Dp.o)
 .bss           0x00000000        0x0 .\CortexM3\ARM_GCC_541\Debug\ext_pim.a(USBUART_Dp.o)
 .text.USBUART_Dp_Write
                0x00000000       0x3c .\CortexM3\ARM_GCC_541\Debug\ext_pim.a(USBUART_Dp.o)
 .text.USBUART_Dp_SetDriveMode
                0x00000000       0x3c .\CortexM3\ARM_GCC_541\Debug\ext_pim.a(USBUART_Dp.o)
 .text.USBUART_Dp_Read
                0x00000000       0x20 .\CortexM3\ARM_GCC_541\Debug\ext_pim.a(USBUART_Dp.o)
 .text.USBUART_Dp_ReadDataReg
                0x00000000       0x20 .\CortexM3\ARM_GCC_541\Debug\ext_pim.a(USBUART_Dp.o)
 .text.USBUART_Dp_SetInterruptMode
                0x00000000       0x30 .\CortexM3\ARM_GCC_541\Debug\ext_pim.a(USBUART_Dp.o)
 .text          0x00000000        0x0 .\CortexM3\ARM_GCC_541\Debug\ext_pim.a(isr_Sleep.o)
 .data          0x00000000        0x0 .\CortexM3\ARM_GCC_541\Debug\ext_pim.a(isr_Sleep.o)
 .bss           0x00000000        0x0 .\CortexM3\ARM_GCC_541\Debug\ext_pim.a(isr_Sleep.o)
 .text.isr_Sleep_StartEx
                0x00000000       0x24 .\CortexM3\ARM_GCC_541\Debug\ext_pim.a(isr_Sleep.o)
 .text.isr_Sleep_Stop
                0x00000000       0x18 .\CortexM3\ARM_GCC_541\Debug\ext_pim.a(isr_Sleep.o)
 .text.isr_Sleep_GetVector
                0x00000000       0x20 .\CortexM3\ARM_GCC_541\Debug\ext_pim.a(isr_Sleep.o)
 .text.isr_Sleep_GetPriority
                0x00000000       0x20 .\CortexM3\ARM_GCC_541\Debug\ext_pim.a(isr_Sleep.o)
 .text.isr_Sleep_GetState
                0x00000000       0x24 .\CortexM3\ARM_GCC_541\Debug\ext_pim.a(isr_Sleep.o)
 .text.isr_Sleep_SetPending
                0x00000000       0x18 .\CortexM3\ARM_GCC_541\Debug\ext_pim.a(isr_Sleep.o)
 .text.isr_Sleep_ClearPending
                0x00000000       0x18 .\CortexM3\ARM_GCC_541\Debug\ext_pim.a(isr_Sleep.o)
 .text          0x00000000        0x0 .\CortexM3\ARM_GCC_541\Debug\ext_pim.a(SleepTimer.o)
 .data          0x00000000        0x0 .\CortexM3\ARM_GCC_541\Debug\ext_pim.a(SleepTimer.o)
 .text.SleepTimer_Stop
                0x00000000       0x34 .\CortexM3\ARM_GCC_541\Debug\ext_pim.a(SleepTimer.o)
 .text.SleepTimer_DisableInt
                0x00000000       0x34 .\CortexM3\ARM_GCC_541\Debug\ext_pim.a(SleepTimer.o)
 .text          0x00000000        0x0 .\CortexM3\ARM_GCC_541\Debug\ext_pim.a(I2C_Master.o)
 .data          0x00000000        0x0 .\CortexM3\ARM_GCC_541\Debug\ext_pim.a(I2C_Master.o)
 .text.I2C_Master_Stop
                0x00000000       0x5c .\CortexM3\ARM_GCC_541\Debug\ext_pim.a(I2C_Master.o)
 .text          0x00000000        0x0 .\CortexM3\ARM_GCC_541\Debug\ext_pim.a(I2C_Master_INT.o)
 .data          0x00000000        0x0 .\CortexM3\ARM_GCC_541\Debug\ext_pim.a(I2C_Master_INT.o)
 .bss           0x00000000        0x0 .\CortexM3\ARM_GCC_541\Debug\ext_pim.a(I2C_Master_INT.o)
 .text          0x00000000        0x0 .\CortexM3\ARM_GCC_541\Debug\ext_pim.a(I2C_Master_MASTER.o)
 .data          0x00000000        0x0 .\CortexM3\ARM_GCC_541\Debug\ext_pim.a(I2C_Master_MASTER.o)
 .bss           0x00000000        0x0 .\CortexM3\ARM_GCC_541\Debug\ext_pim.a(I2C_Master_MASTER.o)
 .text.I2C_Master_MasterWriteBuf
                0x00000000      0x120 .\CortexM3\ARM_GCC_541\Debug\ext_pim.a(I2C_Master_MASTER.o)
 .text.I2C_Master_MasterReadBuf
                0x00000000      0x124 .\CortexM3\ARM_GCC_541\Debug\ext_pim.a(I2C_Master_MASTER.o)
 .text.I2C_Master_MasterStatus
                0x00000000       0x4c .\CortexM3\ARM_GCC_541\Debug\ext_pim.a(I2C_Master_MASTER.o)
 .text.I2C_Master_MasterClearStatus
                0x00000000       0x38 .\CortexM3\ARM_GCC_541\Debug\ext_pim.a(I2C_Master_MASTER.o)
 .text.I2C_Master_MasterGetReadBufSize
                0x00000000       0x18 .\CortexM3\ARM_GCC_541\Debug\ext_pim.a(I2C_Master_MASTER.o)
 .text.I2C_Master_MasterGetWriteBufSize
                0x00000000       0x18 .\CortexM3\ARM_GCC_541\Debug\ext_pim.a(I2C_Master_MASTER.o)
 .text.I2C_Master_MasterClearReadBuf
                0x00000000       0x40 .\CortexM3\ARM_GCC_541\Debug\ext_pim.a(I2C_Master_MASTER.o)
 .text.I2C_Master_MasterClearWriteBuf
                0x00000000       0x40 .\CortexM3\ARM_GCC_541\Debug\ext_pim.a(I2C_Master_MASTER.o)
 .text          0x00000000        0x0 .\CortexM3\ARM_GCC_541\Debug\ext_pim.a(ST_LED_0.o)
 .data          0x00000000        0x0 .\CortexM3\ARM_GCC_541\Debug\ext_pim.a(ST_LED_0.o)
 .bss           0x00000000        0x0 .\CortexM3\ARM_GCC_541\Debug\ext_pim.a(ST_LED_0.o)
 .text.ST_LED_0_SetDriveMode
                0x00000000       0x3c .\CortexM3\ARM_GCC_541\Debug\ext_pim.a(ST_LED_0.o)
 .text.ST_LED_0_Read
                0x00000000       0x20 .\CortexM3\ARM_GCC_541\Debug\ext_pim.a(ST_LED_0.o)
 .text.ST_LED_0_ReadDataReg
                0x00000000       0x20 .\CortexM3\ARM_GCC_541\Debug\ext_pim.a(ST_LED_0.o)
 .text          0x00000000        0x0 .\CortexM3\ARM_GCC_541\Debug\ext_pim.a(ST_LED_1.o)
 .data          0x00000000        0x0 .\CortexM3\ARM_GCC_541\Debug\ext_pim.a(ST_LED_1.o)
 .bss           0x00000000        0x0 .\CortexM3\ARM_GCC_541\Debug\ext_pim.a(ST_LED_1.o)
 .text.ST_LED_1_SetDriveMode
                0x00000000       0x3c .\CortexM3\ARM_GCC_541\Debug\ext_pim.a(ST_LED_1.o)
 .text.ST_LED_1_Read
                0x00000000       0x20 .\CortexM3\ARM_GCC_541\Debug\ext_pim.a(ST_LED_1.o)
 .text.ST_LED_1_ReadDataReg
                0x00000000       0x20 .\CortexM3\ARM_GCC_541\Debug\ext_pim.a(ST_LED_1.o)
 .text          0x00000000        0x0 .\CortexM3\ARM_GCC_541\Debug\ext_pim.a(ST_LED_2.o)
 .data          0x00000000        0x0 .\CortexM3\ARM_GCC_541\Debug\ext_pim.a(ST_LED_2.o)
 .bss           0x00000000        0x0 .\CortexM3\ARM_GCC_541\Debug\ext_pim.a(ST_LED_2.o)
 .text.ST_LED_2_SetDriveMode
                0x00000000       0x3c .\CortexM3\ARM_GCC_541\Debug\ext_pim.a(ST_LED_2.o)
 .text.ST_LED_2_Read
                0x00000000       0x20 .\CortexM3\ARM_GCC_541\Debug\ext_pim.a(ST_LED_2.o)
 .text.ST_LED_2_ReadDataReg
                0x00000000       0x20 .\CortexM3\ARM_GCC_541\Debug\ext_pim.a(ST_LED_2.o)
 .text          0x00000000        0x0 .\CortexM3\ARM_GCC_541\Debug\ext_pim.a(EEPROM.o)
 .data          0x00000000        0x0 .\CortexM3\ARM_GCC_541\Debug\ext_pim.a(EEPROM.o)
 .bss           0x00000000        0x0 .\CortexM3\ARM_GCC_541\Debug\ext_pim.a(EEPROM.o)
 .text.EEPROM_Stop
                0x00000000        0xc .\CortexM3\ARM_GCC_541\Debug\ext_pim.a(EEPROM.o)
 .text.EEPROM_UpdateTemperature
                0x00000000       0x10 .\CortexM3\ARM_GCC_541\Debug\ext_pim.a(EEPROM.o)
 .text.EEPROM_Write
                0x00000000       0xf0 .\CortexM3\ARM_GCC_541\Debug\ext_pim.a(EEPROM.o)
 .text.EEPROM_StartWrite
                0x00000000       0xb8 .\CortexM3\ARM_GCC_541\Debug\ext_pim.a(EEPROM.o)
 .text.EEPROM_StartErase
                0x00000000       0x50 .\CortexM3\ARM_GCC_541\Debug\ext_pim.a(EEPROM.o)
 .text.EEPROM_Query
                0x00000000       0x58 .\CortexM3\ARM_GCC_541\Debug\ext_pim.a(EEPROM.o)
 .text.EEPROM_ByteWritePos
                0x00000000      0x100 .\CortexM3\ARM_GCC_541\Debug\ext_pim.a(EEPROM.o)
 .text          0x00000000        0x0 .\CortexM3\ARM_GCC_541\Debug\ext_pim.a(isr_WD_SYNC.o)
 .data          0x00000000        0x0 .\CortexM3\ARM_GCC_541\Debug\ext_pim.a(isr_WD_SYNC.o)
 .bss           0x00000000        0x0 .\CortexM3\ARM_GCC_541\Debug\ext_pim.a(isr_WD_SYNC.o)
 .text.isr_WD_SYNC_StartEx
                0x00000000       0x24 .\CortexM3\ARM_GCC_541\Debug\ext_pim.a(isr_WD_SYNC.o)
 .text.isr_WD_SYNC_Stop
                0x00000000       0x18 .\CortexM3\ARM_GCC_541\Debug\ext_pim.a(isr_WD_SYNC.o)
 .text.isr_WD_SYNC_GetVector
                0x00000000       0x20 .\CortexM3\ARM_GCC_541\Debug\ext_pim.a(isr_WD_SYNC.o)
 .text.isr_WD_SYNC_GetPriority
                0x00000000       0x20 .\CortexM3\ARM_GCC_541\Debug\ext_pim.a(isr_WD_SYNC.o)
 .text.isr_WD_SYNC_SetPending
                0x00000000       0x18 .\CortexM3\ARM_GCC_541\Debug\ext_pim.a(isr_WD_SYNC.o)
 .text.isr_WD_SYNC_ClearPending
                0x00000000       0x18 .\CortexM3\ARM_GCC_541\Debug\ext_pim.a(isr_WD_SYNC.o)
 .text          0x00000000        0x0 .\CortexM3\ARM_GCC_541\Debug\ext_pim.a(Status_Reg_HwPort.o)
 .data          0x00000000        0x0 .\CortexM3\ARM_GCC_541\Debug\ext_pim.a(Status_Reg_HwPort.o)
 .bss           0x00000000        0x0 .\CortexM3\ARM_GCC_541\Debug\ext_pim.a(Status_Reg_HwPort.o)
 .text.Status_Reg_HwPort_InterruptEnable
                0x00000000       0x34 .\CortexM3\ARM_GCC_541\Debug\ext_pim.a(Status_Reg_HwPort.o)
 .text.Status_Reg_HwPort_InterruptDisable
                0x00000000       0x34 .\CortexM3\ARM_GCC_541\Debug\ext_pim.a(Status_Reg_HwPort.o)
 .text.Status_Reg_HwPort_WriteMask
                0x00000000       0x28 .\CortexM3\ARM_GCC_541\Debug\ext_pim.a(Status_Reg_HwPort.o)
 .text.Status_Reg_HwPort_ReadMask
                0x00000000       0x18 .\CortexM3\ARM_GCC_541\Debug\ext_pim.a(Status_Reg_HwPort.o)
 .data          0x00000000        0x0 .\CortexM3\ARM_GCC_541\Debug\ext_pim.a(CyBootAsmGnu.o)
 .bss           0x00000000        0x0 .\CortexM3\ARM_GCC_541\Debug\ext_pim.a(CyBootAsmGnu.o)
 .text          0x00000000        0x0 .\CortexM3\ARM_GCC_541\Debug\ext_pim.a(Pin_WD1.o)
 .data          0x00000000        0x0 .\CortexM3\ARM_GCC_541\Debug\ext_pim.a(Pin_WD1.o)
 .bss           0x00000000        0x0 .\CortexM3\ARM_GCC_541\Debug\ext_pim.a(Pin_WD1.o)
 .text.Pin_WD1_Write
                0x00000000       0x38 .\CortexM3\ARM_GCC_541\Debug\ext_pim.a(Pin_WD1.o)
 .text.Pin_WD1_SetDriveMode
                0x00000000       0x3c .\CortexM3\ARM_GCC_541\Debug\ext_pim.a(Pin_WD1.o)
 .text.Pin_WD1_ReadDataReg
                0x00000000       0x1c .\CortexM3\ARM_GCC_541\Debug\ext_pim.a(Pin_WD1.o)
 .text          0x00000000        0x0 .\CortexM3\ARM_GCC_541\Debug\ext_pim.a(FltrReg.o)
 .data          0x00000000        0x0 .\CortexM3\ARM_GCC_541\Debug\ext_pim.a(FltrReg.o)
 .bss           0x00000000        0x0 .\CortexM3\ARM_GCC_541\Debug\ext_pim.a(FltrReg.o)
 .text.FltrReg_InterruptEnable
                0x00000000       0x34 .\CortexM3\ARM_GCC_541\Debug\ext_pim.a(FltrReg.o)
 .text.FltrReg_InterruptDisable
                0x00000000       0x34 .\CortexM3\ARM_GCC_541\Debug\ext_pim.a(FltrReg.o)
 .text.FltrReg_WriteMask
                0x00000000       0x28 .\CortexM3\ARM_GCC_541\Debug\ext_pim.a(FltrReg.o)
 .text.FltrReg_ReadMask
                0x00000000       0x18 .\CortexM3\ARM_GCC_541\Debug\ext_pim.a(FltrReg.o)
 .text          0x00000000        0x0 .\CortexM3\ARM_GCC_541\Debug\ext_pim.a(USBUART_cls.o)
 .data          0x00000000        0x0 .\CortexM3\ARM_GCC_541\Debug\ext_pim.a(USBUART_cls.o)
 .bss           0x00000000        0x0 .\CortexM3\ARM_GCC_541\Debug\ext_pim.a(USBUART_cls.o)
 .text          0x00000000        0x0 .\CortexM3\ARM_GCC_541\Debug\ext_pim.a(USBUART_descr.o)
 .data          0x00000000        0x0 .\CortexM3\ARM_GCC_541\Debug\ext_pim.a(USBUART_descr.o)
 .bss           0x00000000        0x0 .\CortexM3\ARM_GCC_541\Debug\ext_pim.a(USBUART_descr.o)
 .data          0x00000000        0x0 c:/program files (x86)/cypress/psoc creator/4.2/psoc creator/import/gnu/arm/5.4.1/bin/../lib/gcc/arm-none-eabi/5.4.1/armv7-m\libgcc.a(_arm_addsubdf3.o)
 .bss           0x00000000        0x0 c:/program files (x86)/cypress/psoc creator/4.2/psoc creator/import/gnu/arm/5.4.1/bin/../lib/gcc/arm-none-eabi/5.4.1/armv7-m\libgcc.a(_arm_addsubdf3.o)
 .data          0x00000000        0x0 c:/program files (x86)/cypress/psoc creator/4.2/psoc creator/import/gnu/arm/5.4.1/bin/../lib/gcc/arm-none-eabi/5.4.1/armv7-m\libgcc.a(_arm_muldivdf3.o)
 .bss           0x00000000        0x0 c:/program files (x86)/cypress/psoc creator/4.2/psoc creator/import/gnu/arm/5.4.1/bin/../lib/gcc/arm-none-eabi/5.4.1/armv7-m\libgcc.a(_arm_muldivdf3.o)
 .data          0x00000000        0x0 c:/program files (x86)/cypress/psoc creator/4.2/psoc creator/import/gnu/arm/5.4.1/bin/../lib/gcc/arm-none-eabi/5.4.1/armv7-m\libgcc.a(_arm_fixdfsi.o)
 .bss           0x00000000        0x0 c:/program files (x86)/cypress/psoc creator/4.2/psoc creator/import/gnu/arm/5.4.1/bin/../lib/gcc/arm-none-eabi/5.4.1/armv7-m\libgcc.a(_arm_fixdfsi.o)
 .text          0x00000000        0x0 c:/program files (x86)/cypress/psoc creator/4.2/psoc creator/import/gnu/arm/5.4.1/bin/../lib/gcc/arm-none-eabi/5.4.1/../../../../arm-none-eabi/lib/armv7-m\libg_nano.a(lib_a-errno.o)
 .data          0x00000000        0x0 c:/program files (x86)/cypress/psoc creator/4.2/psoc creator/import/gnu/arm/5.4.1/bin/../lib/gcc/arm-none-eabi/5.4.1/../../../../arm-none-eabi/lib/armv7-m\libg_nano.a(lib_a-errno.o)
 .bss           0x00000000        0x0 c:/program files (x86)/cypress/psoc creator/4.2/psoc creator/import/gnu/arm/5.4.1/bin/../lib/gcc/arm-none-eabi/5.4.1/../../../../arm-none-eabi/lib/armv7-m\libg_nano.a(lib_a-errno.o)
 .text          0x00000000        0x0 c:/program files (x86)/cypress/psoc creator/4.2/psoc creator/import/gnu/arm/5.4.1/bin/../lib/gcc/arm-none-eabi/5.4.1/../../../../arm-none-eabi/lib/armv7-m\libg_nano.a(lib_a-exit.o)
 .data          0x00000000        0x0 c:/program files (x86)/cypress/psoc creator/4.2/psoc creator/import/gnu/arm/5.4.1/bin/../lib/gcc/arm-none-eabi/5.4.1/../../../../arm-none-eabi/lib/armv7-m\libg_nano.a(lib_a-exit.o)
 .bss           0x00000000        0x0 c:/program files (x86)/cypress/psoc creator/4.2/psoc creator/import/gnu/arm/5.4.1/bin/../lib/gcc/arm-none-eabi/5.4.1/../../../../arm-none-eabi/lib/armv7-m\libg_nano.a(lib_a-exit.o)
 .text.exit     0x00000000       0x28 c:/program files (x86)/cypress/psoc creator/4.2/psoc creator/import/gnu/arm/5.4.1/bin/../lib/gcc/arm-none-eabi/5.4.1/../../../../arm-none-eabi/lib/armv7-m\libg_nano.a(lib_a-exit.o)
 .text          0x00000000        0x0 c:/program files (x86)/cypress/psoc creator/4.2/psoc creator/import/gnu/arm/5.4.1/bin/../lib/gcc/arm-none-eabi/5.4.1/../../../../arm-none-eabi/lib/armv7-m\libg_nano.a(lib_a-impure.o)
 .data          0x00000000        0x0 c:/program files (x86)/cypress/psoc creator/4.2/psoc creator/import/gnu/arm/5.4.1/bin/../lib/gcc/arm-none-eabi/5.4.1/../../../../arm-none-eabi/lib/armv7-m\libg_nano.a(lib_a-impure.o)
 .bss           0x00000000        0x0 c:/program files (x86)/cypress/psoc creator/4.2/psoc creator/import/gnu/arm/5.4.1/bin/../lib/gcc/arm-none-eabi/5.4.1/../../../../arm-none-eabi/lib/armv7-m\libg_nano.a(lib_a-impure.o)
 .rodata._global_impure_ptr
                0x00000000        0x4 c:/program files (x86)/cypress/psoc creator/4.2/psoc creator/import/gnu/arm/5.4.1/bin/../lib/gcc/arm-none-eabi/5.4.1/../../../../arm-none-eabi/lib/armv7-m\libg_nano.a(lib_a-impure.o)
 .text          0x00000000        0x0 c:/program files (x86)/cypress/psoc creator/4.2/psoc creator/import/gnu/arm/5.4.1/bin/../lib/gcc/arm-none-eabi/5.4.1/../../../../arm-none-eabi/lib/armv7-m\libg_nano.a(lib_a-init.o)
 .data          0x00000000        0x0 c:/program files (x86)/cypress/psoc creator/4.2/psoc creator/import/gnu/arm/5.4.1/bin/../lib/gcc/arm-none-eabi/5.4.1/../../../../arm-none-eabi/lib/armv7-m\libg_nano.a(lib_a-init.o)
 .bss           0x00000000        0x0 c:/program files (x86)/cypress/psoc creator/4.2/psoc creator/import/gnu/arm/5.4.1/bin/../lib/gcc/arm-none-eabi/5.4.1/../../../../arm-none-eabi/lib/armv7-m\libg_nano.a(lib_a-init.o)
 .text          0x00000000        0x0 c:/program files (x86)/cypress/psoc creator/4.2/psoc creator/import/gnu/arm/5.4.1/bin/../lib/gcc/arm-none-eabi/5.4.1/../../../../arm-none-eabi/lib/armv7-m\libg_nano.a(lib_a-memcpy-stub.o)
 .data          0x00000000        0x0 c:/program files (x86)/cypress/psoc creator/4.2/psoc creator/import/gnu/arm/5.4.1/bin/../lib/gcc/arm-none-eabi/5.4.1/../../../../arm-none-eabi/lib/armv7-m\libg_nano.a(lib_a-memcpy-stub.o)
 .bss           0x00000000        0x0 c:/program files (x86)/cypress/psoc creator/4.2/psoc creator/import/gnu/arm/5.4.1/bin/../lib/gcc/arm-none-eabi/5.4.1/../../../../arm-none-eabi/lib/armv7-m\libg_nano.a(lib_a-memcpy-stub.o)
 .text          0x00000000        0x0 c:/program files (x86)/cypress/psoc creator/4.2/psoc creator/import/gnu/arm/5.4.1/bin/../lib/gcc/arm-none-eabi/5.4.1/../../../../arm-none-eabi/lib/armv7-m\libg_nano.a(lib_a-memset.o)
 .data          0x00000000        0x0 c:/program files (x86)/cypress/psoc creator/4.2/psoc creator/import/gnu/arm/5.4.1/bin/../lib/gcc/arm-none-eabi/5.4.1/../../../../arm-none-eabi/lib/armv7-m\libg_nano.a(lib_a-memset.o)
 .bss           0x00000000        0x0 c:/program files (x86)/cypress/psoc creator/4.2/psoc creator/import/gnu/arm/5.4.1/bin/../lib/gcc/arm-none-eabi/5.4.1/../../../../arm-none-eabi/lib/armv7-m\libg_nano.a(lib_a-memset.o)
 .text          0x00000000        0x0 c:/program files (x86)/cypress/psoc creator/4.2/psoc creator/import/gnu/arm/5.4.1/bin/../lib/gcc/arm-none-eabi/5.4.1/armv7-m/crtend.o
 .data          0x00000000        0x0 c:/program files (x86)/cypress/psoc creator/4.2/psoc creator/import/gnu/arm/5.4.1/bin/../lib/gcc/arm-none-eabi/5.4.1/armv7-m/crtend.o
 .bss           0x00000000        0x0 c:/program files (x86)/cypress/psoc creator/4.2/psoc creator/import/gnu/arm/5.4.1/bin/../lib/gcc/arm-none-eabi/5.4.1/armv7-m/crtend.o
 .text          0x00000000        0x0 c:/program files (x86)/cypress/psoc creator/4.2/psoc creator/import/gnu/arm/5.4.1/bin/../lib/gcc/arm-none-eabi/5.4.1/armv7-m/crtn.o
 .data          0x00000000        0x0 c:/program files (x86)/cypress/psoc creator/4.2/psoc creator/import/gnu/arm/5.4.1/bin/../lib/gcc/arm-none-eabi/5.4.1/armv7-m/crtn.o
 .bss           0x00000000        0x0 c:/program files (x86)/cypress/psoc creator/4.2/psoc creator/import/gnu/arm/5.4.1/bin/../lib/gcc/arm-none-eabi/5.4.1/armv7-m/crtn.o

Memory Configuration

Name             Origin             Length             Attributes
rom              0x00000000         0x00020000         xr
ram              0x1fffc000         0x00008000         xrw
*default*        0x00000000         0xffffffff

Linker script and memory map

LOAD c:/program files (x86)/cypress/psoc creator/4.2/psoc creator/import/gnu/arm/5.4.1/bin/../lib/gcc/arm-none-eabi/5.4.1/armv7-m/crti.o
LOAD c:/program files (x86)/cypress/psoc creator/4.2/psoc creator/import/gnu/arm/5.4.1/bin/../lib/gcc/arm-none-eabi/5.4.1/armv7-m/crtbegin.o
LOAD c:/program files (x86)/cypress/psoc creator/4.2/psoc creator/import/gnu/arm/5.4.1/bin/../lib/gcc/arm-none-eabi/5.4.1/../../../../arm-none-eabi/lib/armv7-m/crt0.o
START GROUP
LOAD .\CortexM3\ARM_GCC_541\Debug\main.o
LOAD .\CortexM3\ARM_GCC_541\Debug\wiegand.o
LOAD .\CortexM3\ARM_GCC_541\Debug\power.o
LOAD .\CortexM3\ARM_GCC_541\Debug\inout.o
LOAD .\CortexM3\ARM_GCC_541\Debug\i2cuart.o
LOAD .\CortexM3\ARM_GCC_541\Debug\soft_uart.o
LOAD .\CortexM3\ARM_GCC_541\Debug\osdp.o
LOAD .\CortexM3\ARM_GCC_541\Debug\toc.o
LOAD .\CortexM3\ARM_GCC_541\Debug\f2f.o
LOAD .\CortexM3\ARM_GCC_541\Debug\rtc.o
LOAD .\CortexM3\ARM_GCC_541\Debug\commandhandler.o
LOAD .\CortexM3\ARM_GCC_541\Debug\handle_commands.o
LOAD .\CortexM3\ARM_GCC_541\Debug\cyfitter_cfg.o
LOAD .\CortexM3\ARM_GCC_541\Debug\cymetadata.o
LOAD .\CortexM3\ARM_GCC_541\Debug\Cm3Start.o
LOAD .\CortexM3\ARM_GCC_541\Debug\cybootloader.o
LOAD .\CortexM3\ARM_GCC_541\Debug\ext_pim.a
LOAD C:\Program Files (x86)\Cypress\PSoC Creator\4.2\PSoC Creator\psoc\content\cycomponentlibrary\CyComponentLibrary.cylib\CortexM3\ARM_GCC_541\Debug\CyComponentLibrary.a
END GROUP
START GROUP
LOAD c:/program files (x86)/cypress/psoc creator/4.2/psoc creator/import/gnu/arm/5.4.1/bin/../lib/gcc/arm-none-eabi/5.4.1/armv7-m\libgcc.a
LOAD c:/program files (x86)/cypress/psoc creator/4.2/psoc creator/import/gnu/arm/5.4.1/bin/../lib/gcc/arm-none-eabi/5.4.1/../../../../arm-none-eabi/lib/armv7-m\libg_nano.a
LOAD c:/program files (x86)/cypress/psoc creator/4.2/psoc creator/import/gnu/arm/5.4.1/bin/../lib/gcc/arm-none-eabi/5.4.1/../../../../arm-none-eabi/lib/armv7-m\libc_nano.a
END GROUP
START GROUP
LOAD c:/program files (x86)/cypress/psoc creator/4.2/psoc creator/import/gnu/arm/5.4.1/bin/../lib/gcc/arm-none-eabi/5.4.1/armv7-m\libgcc.a
LOAD c:/program files (x86)/cypress/psoc creator/4.2/psoc creator/import/gnu/arm/5.4.1/bin/../lib/gcc/arm-none-eabi/5.4.1/../../../../arm-none-eabi/lib/armv7-m\libc_nano.a
END GROUP
LOAD c:/program files (x86)/cypress/psoc creator/4.2/psoc creator/import/gnu/arm/5.4.1/bin/../lib/gcc/arm-none-eabi/5.4.1/armv7-m/crtend.o
LOAD c:/program files (x86)/cypress/psoc creator/4.2/psoc creator/import/gnu/arm/5.4.1/bin/../lib/gcc/arm-none-eabi/5.4.1/armv7-m/crtn.o
START GROUP
LOAD c:/program files (x86)/cypress/psoc creator/4.2/psoc creator/import/gnu/arm/5.4.1/bin/../lib/gcc/arm-none-eabi/5.4.1/armv7-m\libgcc.a
LOAD c:/program files (x86)/cypress/psoc creator/4.2/psoc creator/import/gnu/arm/5.4.1/bin/../lib/gcc/arm-none-eabi/5.4.1/../../../../arm-none-eabi/lib/armv7-m\libc.a
LOAD c:/program files (x86)/cypress/psoc creator/4.2/psoc creator/import/gnu/arm/5.4.1/bin/../lib/gcc/arm-none-eabi/5.4.1/../../../../arm-none-eabi/lib/armv7-m\libnosys.a
END GROUP
                0x00000000                CY_APPL_ORIGIN = 0x0
                0x00000100                CY_FLASH_ROW_SIZE = 0x100
                0x00000020                CY_ECC_ROW_SIZE = 0x20
                0x00000000                CY_EE_IN_BTLDR = 0x0
                0x00000001                CY_APPL_LOADABLE = 0x1
                0x00000800                CY_EE_SIZE = 0x800
                0x00000001                CY_APPL_NUM = 0x1
                0x00000001                CY_APPL_MAX = 0x1
                0x00000040                CY_METADATA_SIZE = 0x40
                0x00000001                CY_APPL_LOADABLE = 0x1
                0x00000000                CY_CHECKSUM_EXCLUDE_SIZE = ALIGN (0x0, CY_FLASH_ROW_SIZE)
                [!provide]                PROVIDE (__cy_heap_start, _end)
                0x00000001                PROVIDE (__cy_region_num, ((__cy_regions_end - __cy_regions) / 0x10))
                0x20004000                PROVIDE (__cy_stack, (ORIGIN (ram) + LENGTH (ram)))
                [!provide]                PROVIDE (__cy_heap_end, (__cy_stack - 0xe00))

.cybootloader   0x00000000     0x2c00
 *(.cybootloader)
 .cybootloader  0x00000000     0x2c00 .\CortexM3\ARM_GCC_541\Debug\cybootloader.o
                0x00000000                cy_bootloader
                0x00002c00                appl1_start = CY_APPL_ORIGIN?CY_APPL_ORIGIN:ALIGN (CY_FLASH_ROW_SIZE)
                0x00011500                appl2_start = (appl1_start + ALIGN ((((LENGTH (rom) - appl1_start) - (0x2 * CY_FLASH_ROW_SIZE)) / 0x2), CY_FLASH_ROW_SIZE))
                0x00002c00                appl_start = (CY_APPL_NUM == 0x1)?appl1_start:appl2_start
                0x00000580                ecc_offset = ((appl_start / CY_FLASH_ROW_SIZE) * CY_ECC_ROW_SIZE)
                0x00000000                ee_offset = (CY_APPL_LOADABLE && ! (CY_EE_IN_BTLDR))?((CY_EE_SIZE / CY_APPL_MAX) * (CY_APPL_NUM - 0x1)):0x0
                0x00000800                ee_size = (CY_APPL_LOADABLE && ! (CY_EE_IN_BTLDR))?(CY_EE_SIZE / CY_APPL_MAX):CY_EE_SIZE
                0x00000580                PROVIDE (CY_ECC_OFFSET, ecc_offset)

.text           0x00002c00     0x933a
 CREATE_OBJECT_SYMBOLS
                0x00002c00                PROVIDE (__cy_interrupt_vector, RomVectors)
 *(.romvectors)
 .romvectors    0x00002c00       0x10 .\CortexM3\ARM_GCC_541\Debug\Cm3Start.o
                0x00002c00                RomVectors
                0x00000001                ASSERT ((. != __cy_interrupt_vector), No interrupt vector)
                0x00000001                ASSERT (CY_APPL_ORIGIN?(SIZEOF (.cybootloader) <= CY_APPL_ORIGIN):0x1, Wrong image location)
                0x00002c10                PROVIDE (__cy_reset, Reset)
 *(.text.Reset)
 .text.Reset    0x00002c10        0x8 .\CortexM3\ARM_GCC_541\Debug\Cm3Start.o
                0x00002c10                Reset
                0x00000001                ASSERT ((. != __cy_reset), No reset code)
 *(.dma_init)
                0x00000001                ASSERT ((((appl_start + .) <= 0x10000) || 0x1), DMA Init must be within the first 64k of flash)
 *(.text .text.* .gnu.linkonce.t.*)
 .text          0x00002c18       0x5c c:/program files (x86)/cypress/psoc creator/4.2/psoc creator/import/gnu/arm/5.4.1/bin/../lib/gcc/arm-none-eabi/5.4.1/armv7-m/crtbegin.o
 .text.SetVersion
                0x00002c74       0x40 .\CortexM3\ARM_GCC_541\Debug\main.o
                0x00002c74                SetVersion
 .text.main     0x00002cb4      0x1fc .\CortexM3\ARM_GCC_541\Debug\main.o
                0x00002cb4                main
 .text.Pin_50us_Reset
                0x00002eb0       0x24 .\CortexM3\ARM_GCC_541\Debug\wiegand.o
                0x00002eb0                Pin_50us_Reset
 .text.send_D0_50us_pulse
                0x00002ed4       0x14 .\CortexM3\ARM_GCC_541\Debug\wiegand.o
                0x00002ed4                send_D0_50us_pulse
 .text.send_D1_50us_pulse
                0x00002ee8       0x14 .\CortexM3\ARM_GCC_541\Debug\wiegand.o
                0x00002ee8                send_D1_50us_pulse
 .text.clearWiegandBuffer
                0x00002efc       0x30 .\CortexM3\ARM_GCC_541\Debug\wiegand.o
                0x00002efc                clearWiegandBuffer
 .text.SendWeigand
                0x00002f2c       0x9c .\CortexM3\ARM_GCC_541\Debug\wiegand.o
                0x00002f2c                SendWeigand
 .text.ReadWeigand
                0x00002fc8      0x138 .\CortexM3\ARM_GCC_541\Debug\wiegand.o
                0x00002fc8                ReadWeigand
 .text.SetHardwareVals
                0x00003100       0xc4 .\CortexM3\ARM_GCC_541\Debug\inout.o
                0x00003100                SetHardwareVals
 .text.GetHardwareVals
                0x000031c4       0x24 .\CortexM3\ARM_GCC_541\Debug\inout.o
                0x000031c4                GetHardwareVals
 .text.GetResetButton
                0x000031e8       0xa4 .\CortexM3\ARM_GCC_541\Debug\inout.o
                0x000031e8                GetResetButton
 .text.GetTamperVals
                0x0000328c       0x18 .\CortexM3\ARM_GCC_541\Debug\inout.o
                0x0000328c                GetTamperVals
 .text.HandleOutputs
                0x000032a4       0x6c .\CortexM3\ARM_GCC_541\Debug\inout.o
                0x000032a4                HandleOutputs
 .text.HandleTamper
                0x00003310       0xd0 .\CortexM3\ARM_GCC_541\Debug\inout.o
                0x00003310                HandleTamper
 .text.HandleInputs
                0x000033e0       0x70 .\CortexM3\ARM_GCC_541\Debug\inout.o
                0x000033e0                HandleInputs
 .text.ClearBuffer
                0x00003450       0x38 .\CortexM3\ARM_GCC_541\Debug\i2cuart.o
                0x00003450                ClearBuffer
 .text.SendPAC  0x00003488       0x5c .\CortexM3\ARM_GCC_541\Debug\i2cuart.o
                0x00003488                SendPAC
 .text.ReadPAC  0x000034e4      0x128 .\CortexM3\ARM_GCC_541\Debug\i2cuart.o
                0x000034e4                ReadPAC
 .text.SetupUART
                0x0000360c       0x44 .\CortexM3\ARM_GCC_541\Debug\i2cuart.o
                0x0000360c                SetupUART
 .text.SU_Start
                0x00003650       0x50 .\CortexM3\ARM_GCC_541\Debug\soft_uart.o
                0x00003650                SU_Start
 .text.SU_Isr   0x000036a0      0x164 .\CortexM3\ARM_GCC_541\Debug\soft_uart.o
                0x000036a0                SU_Isr
 .text.getOddParity
                0x00003804       0x50 .\CortexM3\ARM_GCC_541\Debug\soft_uart.o
                0x00003804                getOddParity
 .text.SU_PutChar
                0x00003854      0x12c .\CortexM3\ARM_GCC_541\Debug\soft_uart.o
                0x00003854                SU_PutChar
 .text.initOSDP
                0x00003980       0x48 .\CortexM3\ARM_GCC_541\Debug\osdp.o
                0x00003980                initOSDP
 .text.copyPanelBufI2C
                0x000039c8       0x68 .\CortexM3\ARM_GCC_541\Debug\osdp.o
                0x000039c8                copyPanelBufI2C
 .text.CopyI2cPanelBuffer
                0x00003a30       0x88 .\CortexM3\ARM_GCC_541\Debug\osdp.o
                0x00003a30                CopyI2cPanelBuffer
 .text.ClearOsdpBuffer
                0x00003ab8       0x44 .\CortexM3\ARM_GCC_541\Debug\osdp.o
                0x00003ab8                ClearOsdpBuffer
 .text.SendOSDP
                0x00003afc       0x8c .\CortexM3\ARM_GCC_541\Debug\osdp.o
                0x00003afc                SendOSDP
 .text.ReadOSDP
                0x00003b88      0x2dc .\CortexM3\ARM_GCC_541\Debug\osdp.o
                0x00003b88                ReadOSDP
 .text.SetPanelSpeed
                0x00003e64       0x98 .\CortexM3\ARM_GCC_541\Debug\osdp.o
                0x00003e64                SetPanelSpeed
 .text.initOSDPReaderUART
                0x00003efc       0x50 .\CortexM3\ARM_GCC_541\Debug\osdp.o
                0x00003efc                initOSDPReaderUART
 .text.OSDPReaderRxInt
                0x00003f4c      0x120 .\CortexM3\ARM_GCC_541\Debug\osdp.o
                0x00003f4c                OSDPReaderRxInt
 .text.copyReaderBufI2C
                0x0000406c       0x68 .\CortexM3\ARM_GCC_541\Debug\osdp.o
                0x0000406c                copyReaderBufI2C
 .text.KeepAliveInterruptHandler
                0x000040d4       0x14 .\CortexM3\ARM_GCC_541\Debug\osdp.o
                0x000040d4                KeepAliveInterruptHandler
 .text.ClearOsdpReaderBuffer
                0x000040e8       0x54 .\CortexM3\ARM_GCC_541\Debug\osdp.o
                0x000040e8                ClearOsdpReaderBuffer
 .text.SendOSDPReader
                0x0000413c       0x78 .\CortexM3\ARM_GCC_541\Debug\osdp.o
                0x0000413c                SendOSDPReader
 .text.ReadOSDPReader
                0x000041b4       0x38 .\CortexM3\ARM_GCC_541\Debug\osdp.o
                0x000041b4                ReadOSDPReader
 .text.SetReaderSpeed
                0x000041ec       0x8c .\CortexM3\ARM_GCC_541\Debug\osdp.o
                0x000041ec                SetReaderSpeed
 .text.CopyI2cReaderBuffer
                0x00004278       0x8c .\CortexM3\ARM_GCC_541\Debug\osdp.o
                0x00004278                CopyI2cReaderBuffer
 .text.HandleOSDP
                0x00004304      0x118 .\CortexM3\ARM_GCC_541\Debug\osdp.o
                0x00004304                HandleOSDP
 .text.Pass_OSDP
                0x0000441c       0x74 .\CortexM3\ARM_GCC_541\Debug\osdp.o
                0x0000441c                Pass_OSDP
 .text.ReadImageCard
                0x00004490       0xe0 .\CortexM3\ARM_GCC_541\Debug\toc.o
                0x00004490                ReadImageCard
 .text.initTocReaderUART
                0x00004570       0x48 .\CortexM3\ARM_GCC_541\Debug\toc.o
                0x00004570                initTocReaderUART
 .text.ImgRxInt
                0x000045b8      0x1b0 .\CortexM3\ARM_GCC_541\Debug\toc.o
                0x000045b8                ImgRxInt
 .text.resetImgBuf
                0x00004768       0x34 .\CortexM3\ARM_GCC_541\Debug\toc.o
                0x00004768                resetImgBuf
 .text.SendWaveLynxReader
                0x0000479c       0x4c .\CortexM3\ARM_GCC_541\Debug\toc.o
                0x0000479c                SendWaveLynxReader
 .text.MakeLineTransition
                0x000047e8       0x34 .\CortexM3\ARM_GCC_541\Debug\f2f.o
                0x000047e8                MakeLineTransition
 .text.SendF2F  0x0000481c       0xa8 .\CortexM3\ARM_GCC_541\Debug\f2f.o
                0x0000481c                SendF2F
 .text.ReadF2F  0x000048c4      0x280 .\CortexM3\ARM_GCC_541\Debug\f2f.o
                0x000048c4                ReadF2F
 .text.USBUART_PutDataBig
                0x00004b44       0x4c .\CortexM3\ARM_GCC_541\Debug\commandhandler.o
                0x00004b44                USBUART_PutDataBig
 .text.SendHID  0x00004b90      0x174 .\CortexM3\ARM_GCC_541\Debug\commandhandler.o
                0x00004b90                SendHID
 .text.POE_OIM_En
                0x00004d04       0x4c .\CortexM3\ARM_GCC_541\Debug\commandhandler.o
                0x00004d04                POE_OIM_En
 .text.rtc_write_reg
                0x00004d50       0x34 .\CortexM3\ARM_GCC_541\Debug\commandhandler.o
                0x00004d50                rtc_write_reg
 .text.rtc_write
                0x00004d84       0x48 .\CortexM3\ARM_GCC_541\Debug\commandhandler.o
                0x00004d84                rtc_write
 .text.rtc_read
                0x00004dcc       0x68 .\CortexM3\ARM_GCC_541\Debug\commandhandler.o
                0x00004dcc                rtc_read
 .text.HandleUSB
                0x00004e34      0x13c .\CortexM3\ARM_GCC_541\Debug\commandhandler.o
                0x00004e34                HandleUSB
 .text.commandSendF2F
                0x00004f70       0x34 .\CortexM3\ARM_GCC_541\Debug\commandhandler.o
                0x00004f70                commandSendF2F
 .text.commandSendWiegand
                0x00004fa4       0x30 .\CortexM3\ARM_GCC_541\Debug\commandhandler.o
                0x00004fa4                commandSendWiegand
 .text.commandSendTOC
                0x00004fd4       0x60 .\CortexM3\ARM_GCC_541\Debug\commandhandler.o
                0x00004fd4                commandSendTOC
 .text.commandSendPAC
                0x00005034       0x30 .\CortexM3\ARM_GCC_541\Debug\commandhandler.o
                0x00005034                commandSendPAC
 .text.commandReadTOC
                0x00005064       0x44 .\CortexM3\ARM_GCC_541\Debug\commandhandler.o
                0x00005064                commandReadTOC
 .text.HandleCommand
                0x000050a8      0x72c .\CortexM3\ARM_GCC_541\Debug\commandhandler.o
                0x000050a8                HandleCommand
 .text.CYMEMZERO
                0x000057d4       0x1c .\CortexM3\ARM_GCC_541\Debug\cyfitter_cfg.o
 .text.CYCONFIGCPY
                0x000057f0       0x20 .\CortexM3\ARM_GCC_541\Debug\cyfitter_cfg.o
 .text.CyClockStartupError
                0x00005810        0xc .\CortexM3\ARM_GCC_541\Debug\cyfitter_cfg.o
 .text.cfg_write_bytes32
                0x0000581c       0x74 .\CortexM3\ARM_GCC_541\Debug\cyfitter_cfg.o
 .text.ClockSetup
                0x00005890      0x1d4 .\CortexM3\ARM_GCC_541\Debug\cyfitter_cfg.o
 .text.AnalogSetDefault
                0x00005a64       0x44 .\CortexM3\ARM_GCC_541\Debug\cyfitter_cfg.o
 .text.cyfitter_cfg
                0x00005aa8      0x1e0 .\CortexM3\ARM_GCC_541\Debug\cyfitter_cfg.o
                0x00005aa8                cyfitter_cfg
 .text.IntDefaultHandler
                0x00005c88       0x14 .\CortexM3\ARM_GCC_541\Debug\Cm3Start.o
                0x00005c88                IntDefaultHandler
 .text.Start_c  0x00005c9c       0x98 .\CortexM3\ARM_GCC_541\Debug\Cm3Start.o
                0x00005c9c                Start_c
 .text.initialize_psoc
                0x00005d34       0x90 .\CortexM3\ARM_GCC_541\Debug\Cm3Start.o
                0x00005d34                initialize_psoc
 .text.RELAY_B_Write
                0x00005dc4       0x3c .\CortexM3\ARM_GCC_541\Debug\ext_pim.a(RELAY_B.o)
                0x00005dc4                RELAY_B_Write
 .text.SOUND_OUT_Write
                0x00005e00       0x3c .\CortexM3\ARM_GCC_541\Debug\ext_pim.a(SOUND_OUT.o)
                0x00005e00                SOUND_OUT_Write
 .text.Tamper_Timer_ISR_StartEx
                0x00005e3c       0x24 .\CortexM3\ARM_GCC_541\Debug\ext_pim.a(Tamper_Timer_ISR.o)
                0x00005e3c                Tamper_Timer_ISR_StartEx
 .text.Tamper_Timer_ISR_Interrupt
                0x00005e60       0xdc .\CortexM3\ARM_GCC_541\Debug\ext_pim.a(Tamper_Timer_ISR.o)
                0x00005e60                Tamper_Timer_ISR_Interrupt
 .text.Tamper_Timer_ISR_SetVector
                0x00005f3c       0x24 .\CortexM3\ARM_GCC_541\Debug\ext_pim.a(Tamper_Timer_ISR.o)
                0x00005f3c                Tamper_Timer_ISR_SetVector
 .text.Tamper_Timer_ISR_SetPriority
                0x00005f60       0x24 .\CortexM3\ARM_GCC_541\Debug\ext_pim.a(Tamper_Timer_ISR.o)
                0x00005f60                Tamper_Timer_ISR_SetPriority
 .text.Tamper_Timer_ISR_Enable
                0x00005f84       0x18 .\CortexM3\ARM_GCC_541\Debug\ext_pim.a(Tamper_Timer_ISR.o)
                0x00005f84                Tamper_Timer_ISR_Enable
 .text.Tamper_Timer_ISR_Disable
                0x00005f9c       0x18 .\CortexM3\ARM_GCC_541\Debug\ext_pim.a(Tamper_Timer_ISR.o)
                0x00005f9c                Tamper_Timer_ISR_Disable
 .text.PS_D0_Read
                0x00005fb4       0x1c .\CortexM3\ARM_GCC_541\Debug\ext_pim.a(PS_D0.o)
                0x00005fb4                PS_D0_Read
 .text.Pin_WD0_Read
                0x00005fd0       0x20 .\CortexM3\ARM_GCC_541\Debug\ext_pim.a(Pin_WD0.o)
                0x00005fd0                Pin_WD0_Read
 .text.UART_1_Start
                0x00005ff0       0x24 .\CortexM3\ARM_GCC_541\Debug\ext_pim.a(UART_1.o)
                0x00005ff0                UART_1_Start
 .text.UART_1_Init
                0x00006014       0x4c .\CortexM3\ARM_GCC_541\Debug\ext_pim.a(UART_1.o)
                0x00006014                UART_1_Init
 .text.UART_1_Enable
                0x00006060       0x5c .\CortexM3\ARM_GCC_541\Debug\ext_pim.a(UART_1.o)
                0x00006060                UART_1_Enable
 .text.UART_1_ReadControlRegister
                0x000060bc       0x18 .\CortexM3\ARM_GCC_541\Debug\ext_pim.a(UART_1.o)
                0x000060bc                UART_1_ReadControlRegister
 .text.UART_1_WriteControlRegister
                0x000060d4       0x20 .\CortexM3\ARM_GCC_541\Debug\ext_pim.a(UART_1.o)
                0x000060d4                UART_1_WriteControlRegister
 .text.UART_1_ReadRxStatus
                0x000060f4       0x24 .\CortexM3\ARM_GCC_541\Debug\ext_pim.a(UART_1.o)
                0x000060f4                UART_1_ReadRxStatus
 .text.UART_1_GetChar
                0x00006118       0x44 .\CortexM3\ARM_GCC_541\Debug\ext_pim.a(UART_1.o)
                0x00006118                UART_1_GetChar
 .text.UART_1_ClearRxBuffer
                0x0000615c       0x44 .\CortexM3\ARM_GCC_541\Debug\ext_pim.a(UART_1.o)
                0x0000615c                UART_1_ClearRxBuffer
 .text.UART_1_PutChar
                0x000061a0       0x34 .\CortexM3\ARM_GCC_541\Debug\ext_pim.a(UART_1.o)
                0x000061a0                UART_1_PutChar
 .text.TAMPER_OUT_Write
                0x000061d4       0x3c .\CortexM3\ARM_GCC_541\Debug\ext_pim.a(TAMPER_OUT.o)
                0x000061d4                TAMPER_OUT_Write
 .text.LEDG_OUT_Write
                0x00006210       0x3c .\CortexM3\ARM_GCC_541\Debug\ext_pim.a(LEDG_OUT.o)
                0x00006210                LEDG_OUT_Write
 .text.LEDR_OUT_Write
                0x0000624c       0x3c .\CortexM3\ARM_GCC_541\Debug\ext_pim.a(LEDR_OUT.o)
                0x0000624c                LEDR_OUT_Write
 .text.RELAY_A_Write
                0x00006288       0x3c .\CortexM3\ARM_GCC_541\Debug\ext_pim.a(RELAY_A.o)
                0x00006288                RELAY_A_Write
 .text.OptSelect_Write
                0x000062c4       0x20 .\CortexM3\ARM_GCC_541\Debug\ext_pim.a(OptSelect.o)
                0x000062c4                OptSelect_Write
 .text.Tamper_Timer_Init
                0x000062e4       0x9c .\CortexM3\ARM_GCC_541\Debug\ext_pim.a(Tamper_Timer.o)
                0x000062e4                Tamper_Timer_Init
 .text.Tamper_Timer_Enable
                0x00006380       0x48 .\CortexM3\ARM_GCC_541\Debug\ext_pim.a(Tamper_Timer.o)
                0x00006380                Tamper_Timer_Enable
 .text.Tamper_Timer_Start
                0x000063c8       0x24 .\CortexM3\ARM_GCC_541\Debug\ext_pim.a(Tamper_Timer.o)
                0x000063c8                Tamper_Timer_Start
 .text.Tamper_Timer_Stop
                0x000063ec       0x48 .\CortexM3\ARM_GCC_541\Debug\ext_pim.a(Tamper_Timer.o)
                0x000063ec                Tamper_Timer_Stop
 .text.Tamper_Timer_SetInterruptMode
                0x00006434       0x20 .\CortexM3\ARM_GCC_541\Debug\ext_pim.a(Tamper_Timer.o)
                0x00006434                Tamper_Timer_SetInterruptMode
 .text.Tamper_Timer_ReadStatusRegister
                0x00006454       0x18 .\CortexM3\ARM_GCC_541\Debug\ext_pim.a(Tamper_Timer.o)
                0x00006454                Tamper_Timer_ReadStatusRegister
 .text.Tamper_Timer_WritePeriod
                0x0000646c       0x24 .\CortexM3\ARM_GCC_541\Debug\ext_pim.a(Tamper_Timer.o)
                0x0000646c                Tamper_Timer_WritePeriod
 .text.Tamper_Timer_WriteCounter
                0x00006490       0x20 .\CortexM3\ARM_GCC_541\Debug\ext_pim.a(Tamper_Timer.o)
                0x00006490                Tamper_Timer_WriteCounter
 .text.UART_TIMER_Init
                0x000064b0       0x48 .\CortexM3\ARM_GCC_541\Debug\ext_pim.a(UART_TIMER.o)
                0x000064b0                UART_TIMER_Init
 .text.UART_TIMER_Enable
                0x000064f8       0x20 .\CortexM3\ARM_GCC_541\Debug\ext_pim.a(UART_TIMER.o)
                0x000064f8                UART_TIMER_Enable
 .text.UART_TIMER_Start
                0x00006518       0x24 .\CortexM3\ARM_GCC_541\Debug\ext_pim.a(UART_TIMER.o)
                0x00006518                UART_TIMER_Start
 .text.UART_TIMER_SetInterruptMode
                0x0000653c       0x20 .\CortexM3\ARM_GCC_541\Debug\ext_pim.a(UART_TIMER.o)
                0x0000653c                UART_TIMER_SetInterruptMode
 .text.UART_TIMER_ReadStatusRegister
                0x0000655c       0x18 .\CortexM3\ARM_GCC_541\Debug\ext_pim.a(UART_TIMER.o)
                0x0000655c                UART_TIMER_ReadStatusRegister
 .text.UART_TIMER_WritePeriod
                0x00006574       0x20 .\CortexM3\ARM_GCC_541\Debug\ext_pim.a(UART_TIMER.o)
                0x00006574                UART_TIMER_WritePeriod
 .text.UART_TIMER_ReadCapture
                0x00006594       0x18 .\CortexM3\ARM_GCC_541\Debug\ext_pim.a(UART_TIMER.o)
                0x00006594                UART_TIMER_ReadCapture
 .text.UART_TIMER_WriteCounter
                0x000065ac       0x20 .\CortexM3\ARM_GCC_541\Debug\ext_pim.a(UART_TIMER.o)
                0x000065ac                UART_TIMER_WriteCounter
 .text.UART_TIMER_ClearFIFO
                0x000065cc       0x1c .\CortexM3\ARM_GCC_541\Debug\ext_pim.a(UART_TIMER.o)
                0x000065cc                UART_TIMER_ClearFIFO
 .text.UART_TIMER_ISR_StartEx
                0x000065e8       0x24 .\CortexM3\ARM_GCC_541\Debug\ext_pim.a(UART_TIMER_ISR.o)
                0x000065e8                UART_TIMER_ISR_StartEx
 .text.UART_TIMER_ISR_Interrupt
                0x0000660c       0x18 .\CortexM3\ARM_GCC_541\Debug\ext_pim.a(UART_TIMER_ISR.o)
                0x0000660c                UART_TIMER_ISR_Interrupt
 .text.UART_TIMER_ISR_SetVector
                0x00006624       0x24 .\CortexM3\ARM_GCC_541\Debug\ext_pim.a(UART_TIMER_ISR.o)
                0x00006624                UART_TIMER_ISR_SetVector
 .text.UART_TIMER_ISR_SetPriority
                0x00006648       0x24 .\CortexM3\ARM_GCC_541\Debug\ext_pim.a(UART_TIMER_ISR.o)
                0x00006648                UART_TIMER_ISR_SetPriority
 .text.UART_TIMER_ISR_Enable
                0x0000666c       0x18 .\CortexM3\ARM_GCC_541\Debug\ext_pim.a(UART_TIMER_ISR.o)
                0x0000666c                UART_TIMER_ISR_Enable
 .text.UART_TIMER_ISR_Disable
                0x00006684       0x18 .\CortexM3\ARM_GCC_541\Debug\ext_pim.a(UART_TIMER_ISR.o)
                0x00006684                UART_TIMER_ISR_Disable
 .text.CySetTempInt
                0x0000669c       0x7c .\CortexM3\ARM_GCC_541\Debug\ext_pim.a(CyFlash.o)
 .text.CyFlashGetSpcAlgorithm
                0x00006718       0x70 .\CortexM3\ARM_GCC_541\Debug\ext_pim.a(CyFlash.o)
 .text.CySetTemp
                0x00006788       0x24 .\CortexM3\ARM_GCC_541\Debug\ext_pim.a(CyFlash.o)
                0x00006788                CySetTemp
 .text.CyEEPROM_Start
                0x000067ac       0x8c .\CortexM3\ARM_GCC_541\Debug\ext_pim.a(CyFlash.o)
                0x000067ac                CyEEPROM_Start
 .text.CyEEPROM_ReadReserve
                0x00006838       0x30 .\CortexM3\ARM_GCC_541\Debug\ext_pim.a(CyFlash.o)
                0x00006838                CyEEPROM_ReadReserve
 .text.CyEEPROM_ReadRelease
                0x00006868       0x20 .\CortexM3\ARM_GCC_541\Debug\ext_pim.a(CyFlash.o)
                0x00006868                CyEEPROM_ReadRelease
 .text.CyHalt   0x00006888       0x18 .\CortexM3\ARM_GCC_541\Debug\ext_pim.a(CyLib.o)
                0x00006888                CyHalt
 .text.CySoftwareReset
                0x000068a0       0x20 .\CortexM3\ARM_GCC_541\Debug\ext_pim.a(CyLib.o)
                0x000068a0                CySoftwareReset
 .text.CyDelay  0x000068c0       0x44 .\CortexM3\ARM_GCC_541\Debug\ext_pim.a(CyLib.o)
                0x000068c0                CyDelay
 .text.CyDelayUs
                0x00006904       0x28 .\CortexM3\ARM_GCC_541\Debug\ext_pim.a(CyLib.o)
                0x00006904                CyDelayUs
 .text.CyIntSetVector
                0x0000692c       0x50 .\CortexM3\ARM_GCC_541\Debug\ext_pim.a(CyLib.o)
                0x0000692c                CyIntSetVector
 .text.CyIntSetPriority
                0x0000697c       0x48 .\CortexM3\ARM_GCC_541\Debug\ext_pim.a(CyLib.o)
                0x0000697c                CyIntSetPriority
 .text.CyGetUniqueId
                0x000069c4       0xc4 .\CortexM3\ARM_GCC_541\Debug\ext_pim.a(CyLib.o)
                0x000069c4                CyGetUniqueId
 .text.CyPmReadStatus
                0x00006a88       0x5c .\CortexM3\ARM_GCC_541\Debug\ext_pim.a(cyPm.o)
                0x00006a88                CyPmReadStatus
 .text.CySpcStart
                0x00006ae4       0x48 .\CortexM3\ARM_GCC_541\Debug\ext_pim.a(CySpc.o)
                0x00006ae4                CySpcStart
 .text.CySpcReadData
                0x00006b2c       0x54 .\CortexM3\ARM_GCC_541\Debug\ext_pim.a(CySpc.o)
                0x00006b2c                CySpcReadData
 .text.CySpcLoadMultiByte
                0x00006b80       0xd0 .\CortexM3\ARM_GCC_541\Debug\ext_pim.a(CySpc.o)
                0x00006b80                CySpcLoadMultiByte
 .text.CySpcWriteRow
                0x00006c50       0x98 .\CortexM3\ARM_GCC_541\Debug\ext_pim.a(CySpc.o)
                0x00006c50                CySpcWriteRow
 .text.CySpcEraseSector
                0x00006ce8       0x70 .\CortexM3\ARM_GCC_541\Debug\ext_pim.a(CySpc.o)
                0x00006ce8                CySpcEraseSector
 .text.CySpcGetTemp
                0x00006d58       0x64 .\CortexM3\ARM_GCC_541\Debug\ext_pim.a(CySpc.o)
                0x00006d58                CySpcGetTemp
 .text.CySpcLock
                0x00006dbc       0x68 .\CortexM3\ARM_GCC_541\Debug\ext_pim.a(CySpc.o)
                0x00006dbc                CySpcLock
 .text.CySpcUnlock
                0x00006e24       0x50 .\CortexM3\ARM_GCC_541\Debug\ext_pim.a(CySpc.o)
                0x00006e24                CySpcUnlock
 .text.CySpcGetAlgorithm
                0x00006e74       0x44 .\CortexM3\ARM_GCC_541\Debug\ext_pim.a(CySpc.o)
                0x00006e74                CySpcGetAlgorithm
 .text.EZI2Cs_Stop
                0x00006eb8      0x108 .\CortexM3\ARM_GCC_541\Debug\ext_pim.a(EZI2Cs.o)
                0x00006eb8                EZI2Cs_Stop
 .text.Timeout_Timer_Init
                0x00006fc0       0x9c .\CortexM3\ARM_GCC_541\Debug\ext_pim.a(Timeout_Timer.o)
                0x00006fc0                Timeout_Timer_Init
 .text.Timeout_Timer_Enable
                0x0000705c       0x48 .\CortexM3\ARM_GCC_541\Debug\ext_pim.a(Timeout_Timer.o)
                0x0000705c                Timeout_Timer_Enable
 .text.Timeout_Timer_Start
                0x000070a4       0x24 .\CortexM3\ARM_GCC_541\Debug\ext_pim.a(Timeout_Timer.o)
                0x000070a4                Timeout_Timer_Start
 .text.Timeout_Timer_SetInterruptMode
                0x000070c8       0x20 .\CortexM3\ARM_GCC_541\Debug\ext_pim.a(Timeout_Timer.o)
                0x000070c8                Timeout_Timer_SetInterruptMode
 .text.Timeout_Timer_ReadStatusRegister
                0x000070e8       0x18 .\CortexM3\ARM_GCC_541\Debug\ext_pim.a(Timeout_Timer.o)
                0x000070e8                Timeout_Timer_ReadStatusRegister
 .text.Timeout_Timer_WritePeriod
                0x00007100       0x24 .\CortexM3\ARM_GCC_541\Debug\ext_pim.a(Timeout_Timer.o)
                0x00007100                Timeout_Timer_WritePeriod
 .text.Timeout_Timer_WriteCounter
                0x00007124       0x20 .\CortexM3\ARM_GCC_541\Debug\ext_pim.a(Timeout_Timer.o)
                0x00007124                Timeout_Timer_WriteCounter
 .text.Timeout_Timer_Isr_StartEx
                0x00007144       0x24 .\CortexM3\ARM_GCC_541\Debug\ext_pim.a(Timeout_Timer_Isr.o)
                0x00007144                Timeout_Timer_Isr_StartEx
 .text.Timeout_Timer_Isr_Interrupt
                0x00007168       0x6c .\CortexM3\ARM_GCC_541\Debug\ext_pim.a(Timeout_Timer_Isr.o)
                0x00007168                Timeout_Timer_Isr_Interrupt
 .text.Timeout_Timer_Isr_SetVector
                0x000071d4       0x24 .\CortexM3\ARM_GCC_541\Debug\ext_pim.a(Timeout_Timer_Isr.o)
                0x000071d4                Timeout_Timer_Isr_SetVector
 .text.Timeout_Timer_Isr_SetPriority
                0x000071f8       0x24 .\CortexM3\ARM_GCC_541\Debug\ext_pim.a(Timeout_Timer_Isr.o)
                0x000071f8                Timeout_Timer_Isr_SetPriority
 .text.Timeout_Timer_Isr_Enable
                0x0000721c       0x18 .\CortexM3\ARM_GCC_541\Debug\ext_pim.a(Timeout_Timer_Isr.o)
                0x0000721c                Timeout_Timer_Isr_Enable
 .text.Timeout_Timer_Isr_Disable
                0x00007234       0x18 .\CortexM3\ARM_GCC_541\Debug\ext_pim.a(Timeout_Timer_Isr.o)
                0x00007234                Timeout_Timer_Isr_Disable
 .text.Clock_5_Start
                0x0000724c       0x34 .\CortexM3\ARM_GCC_541\Debug\ext_pim.a(Clock_5.o)
                0x0000724c                Clock_5_Start
 .text.Clock_5_SetDividerRegister
                0x00007280      0x164 .\CortexM3\ARM_GCC_541\Debug\ext_pim.a(Clock_5.o)
                0x00007280                Clock_5_SetDividerRegister
 .text.Clock_5_GetDividerRegister
                0x000073e4       0x18 .\CortexM3\ARM_GCC_541\Debug\ext_pim.a(Clock_5.o)
                0x000073e4                Clock_5_GetDividerRegister
 .text.Clock_5_GetSourceRegister
                0x000073fc       0x1c .\CortexM3\ARM_GCC_541\Debug\ext_pim.a(Clock_5.o)
                0x000073fc                Clock_5_GetSourceRegister
 .text.isr_F2F_edge_StartEx
                0x00007418       0x24 .\CortexM3\ARM_GCC_541\Debug\ext_pim.a(isr_F2F_edge.o)
                0x00007418                isr_F2F_edge_StartEx
 .text.isr_F2F_edge_Interrupt
                0x0000743c       0x6c .\CortexM3\ARM_GCC_541\Debug\ext_pim.a(isr_F2F_edge.o)
                0x0000743c                isr_F2F_edge_Interrupt
 .text.isr_F2F_edge_SetVector
                0x000074a8       0x24 .\CortexM3\ARM_GCC_541\Debug\ext_pim.a(isr_F2F_edge.o)
                0x000074a8                isr_F2F_edge_SetVector
 .text.isr_F2F_edge_SetPriority
                0x000074cc       0x24 .\CortexM3\ARM_GCC_541\Debug\ext_pim.a(isr_F2F_edge.o)
                0x000074cc                isr_F2F_edge_SetPriority
 .text.isr_F2F_edge_Enable
                0x000074f0       0x18 .\CortexM3\ARM_GCC_541\Debug\ext_pim.a(isr_F2F_edge.o)
                0x000074f0                isr_F2F_edge_Enable
 .text.isr_F2F_edge_Disable
                0x00007508       0x18 .\CortexM3\ARM_GCC_541\Debug\ext_pim.a(isr_F2F_edge.o)
                0x00007508                isr_F2F_edge_Disable
 .text.FilterReg_Read
                0x00007520       0x18 .\CortexM3\ARM_GCC_541\Debug\ext_pim.a(FilterReg.o)
                0x00007520                FilterReg_Read
 .text.Mode_Sel_ACS_Write
                0x00007538       0x38 .\CortexM3\ARM_GCC_541\Debug\ext_pim.a(Mode_Sel_ACS.o)
                0x00007538                Mode_Sel_ACS_Write
 .text.TX_EN_Write
                0x00007570       0x3c .\CortexM3\ARM_GCC_541\Debug\ext_pim.a(TX_EN.o)
                0x00007570                TX_EN_Write
 .text.CR_DE_Write
                0x000075ac       0x3c .\CortexM3\ARM_GCC_541\Debug\ext_pim.a(CR_DE.o)
                0x000075ac                CR_DE_Write
 .text.Clock_6_Start
                0x000075e8       0x34 .\CortexM3\ARM_GCC_541\Debug\ext_pim.a(Clock_6.o)
                0x000075e8                Clock_6_Start
 .text.Clock_6_SetDividerRegister
                0x0000761c      0x164 .\CortexM3\ARM_GCC_541\Debug\ext_pim.a(Clock_6.o)
                0x0000761c                Clock_6_SetDividerRegister
 .text.Clock_6_GetDividerRegister
                0x00007780       0x18 .\CortexM3\ARM_GCC_541\Debug\ext_pim.a(Clock_6.o)
                0x00007780                Clock_6_GetDividerRegister
 .text.Clock_6_GetSourceRegister
                0x00007798       0x1c .\CortexM3\ARM_GCC_541\Debug\ext_pim.a(Clock_6.o)
                0x00007798                Clock_6_GetSourceRegister
 .text.Mode_Sel_CR_Write
                0x000077b4       0x3c .\CortexM3\ARM_GCC_541\Debug\ext_pim.a(Mode_Sel_CR.o)
                0x000077b4                Mode_Sel_CR_Write
 .text.isr_keepalive_StartEx
                0x000077f0       0x24 .\CortexM3\ARM_GCC_541\Debug\ext_pim.a(isr_keepalive.o)
                0x000077f0                isr_keepalive_StartEx
 .text.isr_keepalive_SetVector
                0x00007814       0x24 .\CortexM3\ARM_GCC_541\Debug\ext_pim.a(isr_keepalive.o)
                0x00007814                isr_keepalive_SetVector
 .text.isr_keepalive_SetPriority
                0x00007838       0x24 .\CortexM3\ARM_GCC_541\Debug\ext_pim.a(isr_keepalive.o)
                0x00007838                isr_keepalive_SetPriority
 .text.isr_keepalive_Enable
                0x0000785c       0x18 .\CortexM3\ARM_GCC_541\Debug\ext_pim.a(isr_keepalive.o)
                0x0000785c                isr_keepalive_Enable
 .text.isr_keepalive_GetState
                0x00007874       0x24 .\CortexM3\ARM_GCC_541\Debug\ext_pim.a(isr_keepalive.o)
                0x00007874                isr_keepalive_GetState
 .text.isr_keepalive_Disable
                0x00007898       0x18 .\CortexM3\ARM_GCC_541\Debug\ext_pim.a(isr_keepalive.o)
                0x00007898                isr_keepalive_Disable
 .text.OSDPReaderTimer_Init
                0x000078b0       0x4c .\CortexM3\ARM_GCC_541\Debug\ext_pim.a(OSDPReaderTimer.o)
                0x000078b0                OSDPReaderTimer_Init
 .text.OSDPReaderTimer_Enable
                0x000078fc       0x20 .\CortexM3\ARM_GCC_541\Debug\ext_pim.a(OSDPReaderTimer.o)
                0x000078fc                OSDPReaderTimer_Enable
 .text.OSDPReaderTimer_Start
                0x0000791c       0x24 .\CortexM3\ARM_GCC_541\Debug\ext_pim.a(OSDPReaderTimer.o)
                0x0000791c                OSDPReaderTimer_Start
 .text.OSDPReaderTimer_SetInterruptMode
                0x00007940       0x20 .\CortexM3\ARM_GCC_541\Debug\ext_pim.a(OSDPReaderTimer.o)
                0x00007940                OSDPReaderTimer_SetInterruptMode
 .text.OSDPReaderTimer_ReadStatusRegister
                0x00007960       0x18 .\CortexM3\ARM_GCC_541\Debug\ext_pim.a(OSDPReaderTimer.o)
                0x00007960                OSDPReaderTimer_ReadStatusRegister
 .text.OSDPReaderTimer_WritePeriod
                0x00007978       0x20 .\CortexM3\ARM_GCC_541\Debug\ext_pim.a(OSDPReaderTimer.o)
                0x00007978                OSDPReaderTimer_WritePeriod
 .text.OSDPReaderTimer_ReadCapture
                0x00007998       0x18 .\CortexM3\ARM_GCC_541\Debug\ext_pim.a(OSDPReaderTimer.o)
                0x00007998                OSDPReaderTimer_ReadCapture
 .text.OSDPReaderTimer_WriteCounter
                0x000079b0       0x20 .\CortexM3\ARM_GCC_541\Debug\ext_pim.a(OSDPReaderTimer.o)
                0x000079b0                OSDPReaderTimer_WriteCounter
 .text.OSDPReaderTimer_ClearFIFO
                0x000079d0       0x1c .\CortexM3\ARM_GCC_541\Debug\ext_pim.a(OSDPReaderTimer.o)
                0x000079d0                OSDPReaderTimer_ClearFIFO
 .text.isr_SW_Rst_Start
                0x000079ec       0x20 .\CortexM3\ARM_GCC_541\Debug\ext_pim.a(isr_SW_Rst.o)
                0x000079ec                isr_SW_Rst_Start
 .text.isr_SW_Rst_Interrupt
                0x00007a0c       0x58 .\CortexM3\ARM_GCC_541\Debug\ext_pim.a(isr_SW_Rst.o)
                0x00007a0c                isr_SW_Rst_Interrupt
 .text.isr_SW_Rst_SetVector
                0x00007a64       0x24 .\CortexM3\ARM_GCC_541\Debug\ext_pim.a(isr_SW_Rst.o)
                0x00007a64                isr_SW_Rst_SetVector
 .text.isr_SW_Rst_SetPriority
                0x00007a88       0x24 .\CortexM3\ARM_GCC_541\Debug\ext_pim.a(isr_SW_Rst.o)
                0x00007a88                isr_SW_Rst_SetPriority
 .text.isr_SW_Rst_Enable
                0x00007aac       0x18 .\CortexM3\ARM_GCC_541\Debug\ext_pim.a(isr_SW_Rst.o)
                0x00007aac                isr_SW_Rst_Enable
 .text.isr_SW_Rst_Disable
                0x00007ac4       0x18 .\CortexM3\ARM_GCC_541\Debug\ext_pim.a(isr_SW_Rst.o)
                0x00007ac4                isr_SW_Rst_Disable
 .text.LED_GRN_Write
                0x00007adc       0x3c .\CortexM3\ARM_GCC_541\Debug\ext_pim.a(LED_GRN.o)
                0x00007adc                LED_GRN_Write
 .text.LED_RED_Write
                0x00007b18       0x3c .\CortexM3\ARM_GCC_541\Debug\ext_pim.a(LED_RED.o)
                0x00007b18                LED_RED_Write
 .text.LED_YEL_Write
                0x00007b54       0x34 .\CortexM3\ARM_GCC_541\Debug\ext_pim.a(LED_YEL.o)
                0x00007b54                LED_YEL_Write
 .text.UART_ACS_Start
                0x00007b88       0x24 .\CortexM3\ARM_GCC_541\Debug\ext_pim.a(UART_ACS.o)
                0x00007b88                UART_ACS_Start
 .text.UART_ACS_Init
                0x00007bac       0x3c .\CortexM3\ARM_GCC_541\Debug\ext_pim.a(UART_ACS.o)
                0x00007bac                UART_ACS_Init
 .text.UART_ACS_Enable
                0x00007be8       0x50 .\CortexM3\ARM_GCC_541\Debug\ext_pim.a(UART_ACS.o)
                0x00007be8                UART_ACS_Enable
 .text.UART_ACS_ReadControlRegister
                0x00007c38       0x18 .\CortexM3\ARM_GCC_541\Debug\ext_pim.a(UART_ACS.o)
                0x00007c38                UART_ACS_ReadControlRegister
 .text.UART_ACS_WriteControlRegister
                0x00007c50       0x20 .\CortexM3\ARM_GCC_541\Debug\ext_pim.a(UART_ACS.o)
                0x00007c50                UART_ACS_WriteControlRegister
 .text.UART_ACS_SetRxInterruptMode
                0x00007c70       0x20 .\CortexM3\ARM_GCC_541\Debug\ext_pim.a(UART_ACS.o)
                0x00007c70                UART_ACS_SetRxInterruptMode
 .text.UART_ACS_GetChar
                0x00007c90       0xb4 .\CortexM3\ARM_GCC_541\Debug\ext_pim.a(UART_ACS.o)
                0x00007c90                UART_ACS_GetChar
 .text.UART_ACS_GetRxBufferSize
                0x00007d44       0x94 .\CortexM3\ARM_GCC_541\Debug\ext_pim.a(UART_ACS.o)
                0x00007d44                UART_ACS_GetRxBufferSize
 .text.UART_ACS_ClearRxBuffer
                0x00007dd8       0x80 .\CortexM3\ARM_GCC_541\Debug\ext_pim.a(UART_ACS.o)
                0x00007dd8                UART_ACS_ClearRxBuffer
 .text.UART_ACS_PutChar
                0x00007e58       0x34 .\CortexM3\ARM_GCC_541\Debug\ext_pim.a(UART_ACS.o)
                0x00007e58                UART_ACS_PutChar
 .text.UART_ACS_PutArray
                0x00007e8c       0x44 .\CortexM3\ARM_GCC_541\Debug\ext_pim.a(UART_ACS.o)
                0x00007e8c                UART_ACS_PutArray
 .text.UART_ACS_PutCRLF
                0x00007ed0       0x34 .\CortexM3\ARM_GCC_541\Debug\ext_pim.a(UART_ACS.o)
                0x00007ed0                UART_ACS_PutCRLF
 .text.UART_ACS_LoadRxConfig
                0x00007f04       0x2c .\CortexM3\ARM_GCC_541\Debug\ext_pim.a(UART_ACS.o)
                0x00007f04                UART_ACS_LoadRxConfig
 .text.UART_ACS_LoadTxConfig
                0x00007f30       0x2c .\CortexM3\ARM_GCC_541\Debug\ext_pim.a(UART_ACS.o)
                0x00007f30                UART_ACS_LoadTxConfig
 .text.UART_ACS_RXISR
                0x00007f5c       0xd8 .\CortexM3\ARM_GCC_541\Debug\ext_pim.a(UART_ACS_INT.o)
                0x00007f5c                UART_ACS_RXISR
 .text.UART_READER_Start
                0x00008034       0x24 .\CortexM3\ARM_GCC_541\Debug\ext_pim.a(UART_READER.o)
                0x00008034                UART_READER_Start
 .text.UART_READER_Init
                0x00008058       0x20 .\CortexM3\ARM_GCC_541\Debug\ext_pim.a(UART_READER.o)
                0x00008058                UART_READER_Init
 .text.UART_READER_Enable
                0x00008078       0x48 .\CortexM3\ARM_GCC_541\Debug\ext_pim.a(UART_READER.o)
                0x00008078                UART_READER_Enable
 .text.UART_READER_ReadControlRegister
                0x000080c0       0x18 .\CortexM3\ARM_GCC_541\Debug\ext_pim.a(UART_READER.o)
                0x000080c0                UART_READER_ReadControlRegister
 .text.UART_READER_WriteControlRegister
                0x000080d8       0x20 .\CortexM3\ARM_GCC_541\Debug\ext_pim.a(UART_READER.o)
                0x000080d8                UART_READER_WriteControlRegister
 .text.UART_READER_ReadRxData
                0x000080f8       0x1c .\CortexM3\ARM_GCC_541\Debug\ext_pim.a(UART_READER.o)
                0x000080f8                UART_READER_ReadRxData
 .text.UART_READER_ReadRxStatus
                0x00008114       0x24 .\CortexM3\ARM_GCC_541\Debug\ext_pim.a(UART_READER.o)
                0x00008114                UART_READER_ReadRxStatus
 .text.UART_READER_ClearRxBuffer
                0x00008138       0x44 .\CortexM3\ARM_GCC_541\Debug\ext_pim.a(UART_READER.o)
                0x00008138                UART_READER_ClearRxBuffer
 .text.UART_READER_PutChar
                0x0000817c       0x34 .\CortexM3\ARM_GCC_541\Debug\ext_pim.a(UART_READER.o)
                0x0000817c                UART_READER_PutChar
 .text.UART_READER_PutArray
                0x000081b0       0x44 .\CortexM3\ARM_GCC_541\Debug\ext_pim.a(UART_READER.o)
                0x000081b0                UART_READER_PutArray
 .text.UART_READER_ClearTxBuffer
                0x000081f4       0x44 .\CortexM3\ARM_GCC_541\Debug\ext_pim.a(UART_READER.o)
                0x000081f4                UART_READER_ClearTxBuffer
 .text.UART_READER_LoadRxConfig
                0x00008238       0x24 .\CortexM3\ARM_GCC_541\Debug\ext_pim.a(UART_READER.o)
                0x00008238                UART_READER_LoadRxConfig
 .text.UART_READER_LoadTxConfig
                0x0000825c       0x24 .\CortexM3\ARM_GCC_541\Debug\ext_pim.a(UART_READER.o)
                0x0000825c                UART_READER_LoadTxConfig
 .text.isr_READER_rx_StartEx
                0x00008280       0x24 .\CortexM3\ARM_GCC_541\Debug\ext_pim.a(isr_READER_rx.o)
                0x00008280                isr_READER_rx_StartEx
 .text.isr_READER_rx_SetVector
                0x000082a4       0x24 .\CortexM3\ARM_GCC_541\Debug\ext_pim.a(isr_READER_rx.o)
                0x000082a4                isr_READER_rx_SetVector
 .text.isr_READER_rx_SetPriority
                0x000082c8       0x24 .\CortexM3\ARM_GCC_541\Debug\ext_pim.a(isr_READER_rx.o)
                0x000082c8                isr_READER_rx_SetPriority
 .text.isr_READER_rx_Enable
                0x000082ec       0x18 .\CortexM3\ARM_GCC_541\Debug\ext_pim.a(isr_READER_rx.o)
                0x000082ec                isr_READER_rx_Enable
 .text.isr_READER_rx_Disable
                0x00008304       0x18 .\CortexM3\ARM_GCC_541\Debug\ext_pim.a(isr_READER_rx.o)
                0x00008304                isr_READER_rx_Disable
 .text.Pulse_50us_Init
                0x0000831c       0x48 .\CortexM3\ARM_GCC_541\Debug\ext_pim.a(Pulse_50us.o)
                0x0000831c                Pulse_50us_Init
 .text.Pulse_50us_Enable
                0x00008364       0x20 .\CortexM3\ARM_GCC_541\Debug\ext_pim.a(Pulse_50us.o)
                0x00008364                Pulse_50us_Enable
 .text.Pulse_50us_SetInterruptMode
                0x00008384       0x20 .\CortexM3\ARM_GCC_541\Debug\ext_pim.a(Pulse_50us.o)
                0x00008384                Pulse_50us_SetInterruptMode
 .text.Pulse_50us_ReadStatusRegister
                0x000083a4       0x18 .\CortexM3\ARM_GCC_541\Debug\ext_pim.a(Pulse_50us.o)
                0x000083a4                Pulse_50us_ReadStatusRegister
 .text.Pulse_50us_WriteControlRegister
                0x000083bc       0x20 .\CortexM3\ARM_GCC_541\Debug\ext_pim.a(Pulse_50us.o)
                0x000083bc                Pulse_50us_WriteControlRegister
 .text.Pulse_50us_WritePeriod
                0x000083dc       0x20 .\CortexM3\ARM_GCC_541\Debug\ext_pim.a(Pulse_50us.o)
                0x000083dc                Pulse_50us_WritePeriod
 .text.Pulse_50us_ReadCapture
                0x000083fc       0x18 .\CortexM3\ARM_GCC_541\Debug\ext_pim.a(Pulse_50us.o)
                0x000083fc                Pulse_50us_ReadCapture
 .text.Pulse_50us_WriteCounter
                0x00008414       0x20 .\CortexM3\ARM_GCC_541\Debug\ext_pim.a(Pulse_50us.o)
                0x00008414                Pulse_50us_WriteCounter
 .text.Pulse_50us_ClearFIFO
                0x00008434       0x1c .\CortexM3\ARM_GCC_541\Debug\ext_pim.a(Pulse_50us.o)
                0x00008434                Pulse_50us_ClearFIFO
 .text.Pulse_50us_RestoreConfig
                0x00008450       0x2c .\CortexM3\ARM_GCC_541\Debug\ext_pim.a(Pulse_50us_PM.o)
                0x00008450                Pulse_50us_RestoreConfig
 .text.isr_50us_StartEx
                0x0000847c       0x24 .\CortexM3\ARM_GCC_541\Debug\ext_pim.a(isr_50us.o)
                0x0000847c                isr_50us_StartEx
 .text.isr_50us_SetVector
                0x000084a0       0x24 .\CortexM3\ARM_GCC_541\Debug\ext_pim.a(isr_50us.o)
                0x000084a0                isr_50us_SetVector
 .text.isr_50us_SetPriority
                0x000084c4       0x24 .\CortexM3\ARM_GCC_541\Debug\ext_pim.a(isr_50us.o)
                0x000084c4                isr_50us_SetPriority
 .text.isr_50us_Enable
                0x000084e8       0x18 .\CortexM3\ARM_GCC_541\Debug\ext_pim.a(isr_50us.o)
                0x000084e8                isr_50us_Enable
 .text.isr_50us_GetState
                0x00008500       0x24 .\CortexM3\ARM_GCC_541\Debug\ext_pim.a(isr_50us.o)
                0x00008500                isr_50us_GetState
 .text.isr_50us_Disable
                0x00008524       0x18 .\CortexM3\ARM_GCC_541\Debug\ext_pim.a(isr_50us.o)
                0x00008524                isr_50us_Disable
 .text.PS_D1_Write
                0x0000853c       0x3c .\CortexM3\ARM_GCC_541\Debug\ext_pim.a(PS_D1.o)
                0x0000853c                PS_D1_Write
 .text.SF2F_Write
                0x00008578       0x34 .\CortexM3\ARM_GCC_541\Debug\ext_pim.a(SF2F.o)
                0x00008578                SF2F_Write
 .text.POE_RST_Write
                0x000085ac       0x34 .\CortexM3\ARM_GCC_541\Debug\ext_pim.a(POE_RST.o)
                0x000085ac                POE_RST_Write
 .text.POE_OIM_SDn_Write
                0x000085e0       0x3c .\CortexM3\ARM_GCC_541\Debug\ext_pim.a(POE_OIM_SDn.o)
                0x000085e0                POE_OIM_SDn_Write
 .text.USBUART_Start
                0x0000861c       0x3c .\CortexM3\ARM_GCC_541\Debug\ext_pim.a(USBUART.o)
                0x0000861c                USBUART_Start
 .text.USBUART_Init
                0x00008658      0x1a4 .\CortexM3\ARM_GCC_541\Debug\ext_pim.a(USBUART.o)
                0x00008658                USBUART_Init
 .text.USBUART_InitComponent
                0x000087fc      0x100 .\CortexM3\ARM_GCC_541\Debug\ext_pim.a(USBUART.o)
                0x000087fc                USBUART_InitComponent
 .text.USBUART_ReInitComponent
                0x000088fc       0x68 .\CortexM3\ARM_GCC_541\Debug\ext_pim.a(USBUART.o)
                0x000088fc                USBUART_ReInitComponent
 .text.USBUART_GetConfiguration
                0x00008964       0x18 .\CortexM3\ARM_GCC_541\Debug\ext_pim.a(USBUART.o)
                0x00008964                USBUART_GetConfiguration
 .text.USBUART_IsConfigurationChanged
                0x0000897c       0x30 .\CortexM3\ARM_GCC_541\Debug\ext_pim.a(USBUART.o)
                0x0000897c                USBUART_IsConfigurationChanged
 .text.USBUART_GetEPState
                0x000089ac       0x2c .\CortexM3\ARM_GCC_541\Debug\ext_pim.a(USBUART.o)
                0x000089ac                USBUART_GetEPState
 .text.USBUART_GetEPCount
                0x000089d8       0x60 .\CortexM3\ARM_GCC_541\Debug\ext_pim.a(USBUART.o)
                0x000089d8                USBUART_GetEPCount
 .text.USBUART_LoadInEP
                0x00008a38      0x108 .\CortexM3\ARM_GCC_541\Debug\ext_pim.a(USBUART.o)
                0x00008a38                USBUART_LoadInEP
 .text.USBUART_ReadOutEP
                0x00008b40       0x8c .\CortexM3\ARM_GCC_541\Debug\ext_pim.a(USBUART.o)
                0x00008b40                USBUART_ReadOutEP
 .text.USBUART_EnableOutEP
                0x00008bcc       0x5c .\CortexM3\ARM_GCC_541\Debug\ext_pim.a(USBUART.o)
                0x00008bcc                USBUART_EnableOutEP
 .text.USBUART_DispatchCDCClassRqst
                0x00008c28       0xe4 .\CortexM3\ARM_GCC_541\Debug\ext_pim.a(USBUART_cdc.o)
                0x00008c28                USBUART_DispatchCDCClassRqst
 .text.USBUART_GetInterfaceComPort
                0x00008d0c       0x60 .\CortexM3\ARM_GCC_541\Debug\ext_pim.a(USBUART_cdc.o)
                0x00008d0c                USBUART_GetInterfaceComPort
 .text.USBUART_CDC_Init
                0x00008d6c       0xa8 .\CortexM3\ARM_GCC_541\Debug\ext_pim.a(USBUART_cdc.o)
                0x00008d6c                USBUART_CDC_Init
 .text.USBUART_PutData
                0x00008e14       0x6c .\CortexM3\ARM_GCC_541\Debug\ext_pim.a(USBUART_cdc.o)
                0x00008e14                USBUART_PutData
 .text.USBUART_GetCount
                0x00008e80       0x54 .\CortexM3\ARM_GCC_541\Debug\ext_pim.a(USBUART_cdc.o)
                0x00008e80                USBUART_GetCount
 .text.USBUART_CDCIsReady
                0x00008ed4       0x24 .\CortexM3\ARM_GCC_541\Debug\ext_pim.a(USBUART_cdc.o)
                0x00008ed4                USBUART_CDCIsReady
 .text.USBUART_GetAll
                0x00008ef8       0x4c .\CortexM3\ARM_GCC_541\Debug\ext_pim.a(USBUART_cdc.o)
                0x00008ef8                USBUART_GetAll
 .text.USBUART_Cdc_EpInit
                0x00008f44       0x90 .\CortexM3\ARM_GCC_541\Debug\ext_pim.a(USBUART_cdc.o)
                0x00008f44                USBUART_Cdc_EpInit
 .text.USBUART_EP_0_ISR
                0x00008fd4       0xf8 .\CortexM3\ARM_GCC_541\Debug\ext_pim.a(USBUART_drv.o)
                0x00008fd4                USBUART_EP_0_ISR
 .text.USBUART_HandleSetup
                0x000090cc       0x88 .\CortexM3\ARM_GCC_541\Debug\ext_pim.a(USBUART_drv.o)
                0x000090cc                USBUART_HandleSetup
 .text.USBUART_HandleIN
                0x00009154       0x4c .\CortexM3\ARM_GCC_541\Debug\ext_pim.a(USBUART_drv.o)
                0x00009154                USBUART_HandleIN
 .text.USBUART_HandleOUT
                0x000091a0       0x58 .\CortexM3\ARM_GCC_541\Debug\ext_pim.a(USBUART_drv.o)
                0x000091a0                USBUART_HandleOUT
 .text.USBUART_LoadEP0
                0x000091f8       0xd0 .\CortexM3\ARM_GCC_541\Debug\ext_pim.a(USBUART_drv.o)
                0x000091f8                USBUART_LoadEP0
 .text.USBUART_InitControlRead
                0x000092c8       0x70 .\CortexM3\ARM_GCC_541\Debug\ext_pim.a(USBUART_drv.o)
                0x000092c8                USBUART_InitControlRead
 .text.USBUART_InitZeroLengthControlTransfer
                0x00009338       0x40 .\CortexM3\ARM_GCC_541\Debug\ext_pim.a(USBUART_drv.o)
                0x00009338                USBUART_InitZeroLengthControlTransfer
 .text.USBUART_ControlReadDataStage
                0x00009378        0xc .\CortexM3\ARM_GCC_541\Debug\ext_pim.a(USBUART_drv.o)
                0x00009378                USBUART_ControlReadDataStage
 .text.USBUART_ControlReadStatusStage
                0x00009384       0x40 .\CortexM3\ARM_GCC_541\Debug\ext_pim.a(USBUART_drv.o)
                0x00009384                USBUART_ControlReadStatusStage
 .text.USBUART_InitControlWrite
                0x000093c4       0x64 .\CortexM3\ARM_GCC_541\Debug\ext_pim.a(USBUART_drv.o)
                0x000093c4                USBUART_InitControlWrite
 .text.USBUART_ControlWriteDataStage
                0x00009428       0xb4 .\CortexM3\ARM_GCC_541\Debug\ext_pim.a(USBUART_drv.o)
                0x00009428                USBUART_ControlWriteDataStage
 .text.USBUART_ControlWriteStatusStage
                0x000094dc       0x24 .\CortexM3\ARM_GCC_541\Debug\ext_pim.a(USBUART_drv.o)
                0x000094dc                USBUART_ControlWriteStatusStage
 .text.USBUART_InitNoDataControlTransfer
                0x00009500       0x38 .\CortexM3\ARM_GCC_541\Debug\ext_pim.a(USBUART_drv.o)
                0x00009500                USBUART_InitNoDataControlTransfer
 .text.USBUART_NoDataControlStatusStage
                0x00009538       0x4c .\CortexM3\ARM_GCC_541\Debug\ext_pim.a(USBUART_drv.o)
                0x00009538                USBUART_NoDataControlStatusStage
 .text.USBUART_UpdateStatusBlock
                0x00009584       0x40 .\CortexM3\ARM_GCC_541\Debug\ext_pim.a(USBUART_drv.o)
                0x00009584                USBUART_UpdateStatusBlock
 .text.USBUART_InitializeStatusBlock
                0x000095c4       0x34 .\CortexM3\ARM_GCC_541\Debug\ext_pim.a(USBUART_drv.o)
                0x000095c4                USBUART_InitializeStatusBlock
 .text.USBUART_EP_1_ISR
                0x000095f8       0x48 .\CortexM3\ARM_GCC_541\Debug\ext_pim.a(USBUART_episr.o)
                0x000095f8                USBUART_EP_1_ISR
 .text.USBUART_EP_2_ISR
                0x00009640       0x4c .\CortexM3\ARM_GCC_541\Debug\ext_pim.a(USBUART_episr.o)
                0x00009640                USBUART_EP_2_ISR
 .text.USBUART_EP_3_ISR
                0x0000968c       0x54 .\CortexM3\ARM_GCC_541\Debug\ext_pim.a(USBUART_episr.o)
                0x0000968c                USBUART_EP_3_ISR
 .text.USBUART_SOF_ISR
                0x000096e0        0xc .\CortexM3\ARM_GCC_541\Debug\ext_pim.a(USBUART_episr.o)
                0x000096e0                USBUART_SOF_ISR
 .text.USBUART_BUS_RESET_ISR
                0x000096ec        0xc .\CortexM3\ARM_GCC_541\Debug\ext_pim.a(USBUART_episr.o)
                0x000096ec                USBUART_BUS_RESET_ISR
 .text.USBUART_DP_ISR
                0x000096f8        0xc .\CortexM3\ARM_GCC_541\Debug\ext_pim.a(USBUART_pm.o)
                0x000096f8                USBUART_DP_ISR
 .text.USBUART_HandleStandardRqst
                0x00009704      0x494 .\CortexM3\ARM_GCC_541\Debug\ext_pim.a(USBUART_std.o)
                0x00009704                USBUART_HandleStandardRqst
 .text.USBUART_ReadDieID
                0x00009b98       0xd8 .\CortexM3\ARM_GCC_541\Debug\ext_pim.a(USBUART_std.o)
                0x00009b98                USBUART_ReadDieID
 .text.USBUART_ConfigReg
                0x00009c70      0x138 .\CortexM3\ARM_GCC_541\Debug\ext_pim.a(USBUART_std.o)
                0x00009c70                USBUART_ConfigReg
 .text.USBUART_Config
                0x00009da8      0x3b4 .\CortexM3\ARM_GCC_541\Debug\ext_pim.a(USBUART_std.o)
                0x00009da8                USBUART_Config
 .text.USBUART_ConfigAltChanged
                0x0000a15c      0x25c .\CortexM3\ARM_GCC_541\Debug\ext_pim.a(USBUART_std.o)
                0x0000a15c                USBUART_ConfigAltChanged
 .text.USBUART_GetConfigTablePtr
                0x0000a3b8       0x50 .\CortexM3\ARM_GCC_541\Debug\ext_pim.a(USBUART_std.o)
                0x0000a3b8                USBUART_GetConfigTablePtr
 .text.USBUART_GetDeviceTablePtr
                0x0000a408       0x24 .\CortexM3\ARM_GCC_541\Debug\ext_pim.a(USBUART_std.o)
                0x0000a408                USBUART_GetDeviceTablePtr
 .text.USBUART_GetInterfaceClassTablePtr
                0x0000a42c       0x4c .\CortexM3\ARM_GCC_541\Debug\ext_pim.a(USBUART_std.o)
                0x0000a42c                USBUART_GetInterfaceClassTablePtr
 .text.USBUART_SetEndpointHalt
                0x0000a478       0xe8 .\CortexM3\ARM_GCC_541\Debug\ext_pim.a(USBUART_std.o)
                0x0000a478                USBUART_SetEndpointHalt
 .text.USBUART_ClearEndpointHalt
                0x0000a560      0x148 .\CortexM3\ARM_GCC_541\Debug\ext_pim.a(USBUART_std.o)
                0x0000a560                USBUART_ClearEndpointHalt
 .text.USBUART_ValidateAlternateSetting
                0x0000a6a8       0x70 .\CortexM3\ARM_GCC_541\Debug\ext_pim.a(USBUART_std.o)
                0x0000a6a8                USBUART_ValidateAlternateSetting
 .text.USBUART_HandleVendorRqst
                0x0000a718       0x34 .\CortexM3\ARM_GCC_541\Debug\ext_pim.a(USBUART_vnd.o)
                0x0000a718                USBUART_HandleVendorRqst
 .text.USBUART_Dp_ClearInterrupt
                0x0000a74c       0x20 .\CortexM3\ARM_GCC_541\Debug\ext_pim.a(USBUART_Dp.o)
                0x0000a74c                USBUART_Dp_ClearInterrupt
 .text.isr_Sleep_Start
                0x0000a76c       0x20 .\CortexM3\ARM_GCC_541\Debug\ext_pim.a(isr_Sleep.o)
                0x0000a76c                isr_Sleep_Start
 .text.isr_Sleep_Interrupt
                0x0000a78c       0x1c .\CortexM3\ARM_GCC_541\Debug\ext_pim.a(isr_Sleep.o)
                0x0000a78c                isr_Sleep_Interrupt
 .text.isr_Sleep_SetVector
                0x0000a7a8       0x24 .\CortexM3\ARM_GCC_541\Debug\ext_pim.a(isr_Sleep.o)
                0x0000a7a8                isr_Sleep_SetVector
 .text.isr_Sleep_SetPriority
                0x0000a7cc       0x24 .\CortexM3\ARM_GCC_541\Debug\ext_pim.a(isr_Sleep.o)
                0x0000a7cc                isr_Sleep_SetPriority
 .text.isr_Sleep_Enable
                0x0000a7f0       0x18 .\CortexM3\ARM_GCC_541\Debug\ext_pim.a(isr_Sleep.o)
                0x0000a7f0                isr_Sleep_Enable
 .text.isr_Sleep_Disable
                0x0000a808       0x18 .\CortexM3\ARM_GCC_541\Debug\ext_pim.a(isr_Sleep.o)
                0x0000a808                isr_Sleep_Disable
 .text.SleepTimer_Start
                0x0000a820       0x24 .\CortexM3\ARM_GCC_541\Debug\ext_pim.a(SleepTimer.o)
                0x0000a820                SleepTimer_Start
 .text.SleepTimer_Init
                0x0000a844       0x14 .\CortexM3\ARM_GCC_541\Debug\ext_pim.a(SleepTimer.o)
                0x0000a844                SleepTimer_Init
 .text.SleepTimer_Enable
                0x0000a858       0x78 .\CortexM3\ARM_GCC_541\Debug\ext_pim.a(SleepTimer.o)
                0x0000a858                SleepTimer_Enable
 .text.SleepTimer_EnableInt
                0x0000a8d0       0x34 .\CortexM3\ARM_GCC_541\Debug\ext_pim.a(SleepTimer.o)
                0x0000a8d0                SleepTimer_EnableInt
 .text.SleepTimer_SetInterval
                0x0000a904       0x48 .\CortexM3\ARM_GCC_541\Debug\ext_pim.a(SleepTimer.o)
                0x0000a904                SleepTimer_SetInterval
 .text.SleepTimer_GetStatus
                0x0000a94c       0x10 .\CortexM3\ARM_GCC_541\Debug\ext_pim.a(SleepTimer.o)
                0x0000a94c                SleepTimer_GetStatus
 .text.I2C_Master_Init
                0x0000a95c       0xa0 .\CortexM3\ARM_GCC_541\Debug\ext_pim.a(I2C_Master.o)
                0x0000a95c                I2C_Master_Init
 .text.I2C_Master_Enable
                0x0000a9fc       0x20 .\CortexM3\ARM_GCC_541\Debug\ext_pim.a(I2C_Master.o)
                0x0000a9fc                I2C_Master_Enable
 .text.I2C_Master_Start
                0x0000aa1c       0x2c .\CortexM3\ARM_GCC_541\Debug\ext_pim.a(I2C_Master.o)
                0x0000aa1c                I2C_Master_Start
 .text.I2C_Master_ISR
                0x0000aa48      0x408 .\CortexM3\ARM_GCC_541\Debug\ext_pim.a(I2C_Master_INT.o)
                0x0000aa48                I2C_Master_ISR
 .text.I2C_Master_MasterSendStart
                0x0000ae50       0xd8 .\CortexM3\ARM_GCC_541\Debug\ext_pim.a(I2C_Master_MASTER.o)
                0x0000ae50                I2C_Master_MasterSendStart
 .text.I2C_Master_MasterSendRestart
                0x0000af28       0xbc .\CortexM3\ARM_GCC_541\Debug\ext_pim.a(I2C_Master_MASTER.o)
                0x0000af28                I2C_Master_MasterSendRestart
 .text.I2C_Master_MasterSendStop
                0x0000afe4       0x70 .\CortexM3\ARM_GCC_541\Debug\ext_pim.a(I2C_Master_MASTER.o)
                0x0000afe4                I2C_Master_MasterSendStop
 .text.I2C_Master_MasterWriteByte
                0x0000b054       0xa0 .\CortexM3\ARM_GCC_541\Debug\ext_pim.a(I2C_Master_MASTER.o)
                0x0000b054                I2C_Master_MasterWriteByte
 .text.I2C_Master_MasterReadByte
                0x0000b0f4       0xb0 .\CortexM3\ARM_GCC_541\Debug\ext_pim.a(I2C_Master_MASTER.o)
                0x0000b0f4                I2C_Master_MasterReadByte
 .text.ST_LED_0_Write
                0x0000b1a4       0x3c .\CortexM3\ARM_GCC_541\Debug\ext_pim.a(ST_LED_0.o)
                0x0000b1a4                ST_LED_0_Write
 .text.ST_LED_1_Write
                0x0000b1e0       0x3c .\CortexM3\ARM_GCC_541\Debug\ext_pim.a(ST_LED_1.o)
                0x0000b1e0                ST_LED_1_Write
 .text.ST_LED_2_Write
                0x0000b21c       0x3c .\CortexM3\ARM_GCC_541\Debug\ext_pim.a(ST_LED_2.o)
                0x0000b21c                ST_LED_2_Write
 .text.EEPROM_Enable
                0x0000b258       0x10 .\CortexM3\ARM_GCC_541\Debug\ext_pim.a(EEPROM.o)
                0x0000b258                EEPROM_Enable
 .text.EEPROM_Start
                0x0000b268        0xc .\CortexM3\ARM_GCC_541\Debug\ext_pim.a(EEPROM.o)
                0x0000b268                EEPROM_Start
 .text.EEPROM_WriteByte
                0x0000b274      0x114 .\CortexM3\ARM_GCC_541\Debug\ext_pim.a(EEPROM.o)
                0x0000b274                EEPROM_WriteByte
 .text.EEPROM_ReadByte
                0x0000b388       0x3c .\CortexM3\ARM_GCC_541\Debug\ext_pim.a(EEPROM.o)
                0x0000b388                EEPROM_ReadByte
 .text.EEPROM_EraseSector
                0x0000b3c4       0x8c .\CortexM3\ARM_GCC_541\Debug\ext_pim.a(EEPROM.o)
                0x0000b3c4                EEPROM_EraseSector
 .text.isr_WD_SYNC_Start
                0x0000b450       0x20 .\CortexM3\ARM_GCC_541\Debug\ext_pim.a(isr_WD_SYNC.o)
                0x0000b450                isr_WD_SYNC_Start
 .text.isr_WD_SYNC_Interrupt
                0x0000b470       0xe4 .\CortexM3\ARM_GCC_541\Debug\ext_pim.a(isr_WD_SYNC.o)
                0x0000b470                isr_WD_SYNC_Interrupt
 .text.isr_WD_SYNC_SetVector
                0x0000b554       0x24 .\CortexM3\ARM_GCC_541\Debug\ext_pim.a(isr_WD_SYNC.o)
                0x0000b554                isr_WD_SYNC_SetVector
 .text.isr_WD_SYNC_SetPriority
                0x0000b578       0x24 .\CortexM3\ARM_GCC_541\Debug\ext_pim.a(isr_WD_SYNC.o)
                0x0000b578                isr_WD_SYNC_SetPriority
 .text.isr_WD_SYNC_Enable
                0x0000b59c       0x18 .\CortexM3\ARM_GCC_541\Debug\ext_pim.a(isr_WD_SYNC.o)
                0x0000b59c                isr_WD_SYNC_Enable
 .text.isr_WD_SYNC_GetState
                0x0000b5b4       0x24 .\CortexM3\ARM_GCC_541\Debug\ext_pim.a(isr_WD_SYNC.o)
                0x0000b5b4                isr_WD_SYNC_GetState
 .text.isr_WD_SYNC_Disable
                0x0000b5d8       0x18 .\CortexM3\ARM_GCC_541\Debug\ext_pim.a(isr_WD_SYNC.o)
                0x0000b5d8                isr_WD_SYNC_Disable
 .text.Status_Reg_HwPort_Read
                0x0000b5f0       0x18 .\CortexM3\ARM_GCC_541\Debug\ext_pim.a(Status_Reg_HwPort.o)
                0x0000b5f0                Status_Reg_HwPort_Read
 .text          0x0000b608       0x20 .\CortexM3\ARM_GCC_541\Debug\ext_pim.a(CyBootAsmGnu.o)
                0x0000b608                CyDelayCycles
                0x0000b618                CyEnterCriticalSection
                0x0000b620                CyExitCriticalSection
 .text.Pin_WD1_Read
                0x0000b628       0x1c .\CortexM3\ARM_GCC_541\Debug\ext_pim.a(Pin_WD1.o)
                0x0000b628                Pin_WD1_Read
 .text.FltrReg_Read
                0x0000b644       0x18 .\CortexM3\ARM_GCC_541\Debug\ext_pim.a(FltrReg.o)
                0x0000b644                FltrReg_Read
 .text.USBUART_DispatchClassRqst
                0x0000b65c       0x7c .\CortexM3\ARM_GCC_541\Debug\ext_pim.a(USBUART_cls.o)
                0x0000b65c                USBUART_DispatchClassRqst
 .text          0x0000b6d8      0x370 c:/program files (x86)/cypress/psoc creator/4.2/psoc creator/import/gnu/arm/5.4.1/bin/../lib/gcc/arm-none-eabi/5.4.1/armv7-m\libgcc.a(_arm_addsubdf3.o)
                0x0000b6d8                __aeabi_drsub
                0x0000b6e0                __aeabi_dsub
                0x0000b6e0                __subdf3
                0x0000b6e4                __aeabi_dadd
                0x0000b6e4                __adddf3
                0x0000b95c                __floatunsidf
                0x0000b95c                __aeabi_ui2d
                0x0000b97c                __floatsidf
                0x0000b97c                __aeabi_i2d
                0x0000b9a0                __aeabi_f2d
                0x0000b9a0                __extendsfdf2
                0x0000b9dc                __floatundidf
                0x0000b9dc                __aeabi_ul2d
                0x0000b9ec                __floatdidf
                0x0000b9ec                __aeabi_l2d
 .text          0x0000ba48      0x424 c:/program files (x86)/cypress/psoc creator/4.2/psoc creator/import/gnu/arm/5.4.1/bin/../lib/gcc/arm-none-eabi/5.4.1/armv7-m\libgcc.a(_arm_muldivdf3.o)
                0x0000ba48                __aeabi_dmul
                0x0000ba48                __muldf3
                0x0000bc9c                __divdf3
                0x0000bc9c                __aeabi_ddiv
 .text          0x0000be6c       0x50 c:/program files (x86)/cypress/psoc creator/4.2/psoc creator/import/gnu/arm/5.4.1/bin/../lib/gcc/arm-none-eabi/5.4.1/armv7-m\libgcc.a(_arm_fixdfsi.o)
                0x0000be6c                __aeabi_d2iz
                0x0000be6c                __fixdfsi
 .text.__errno  0x0000bebc        0xc c:/program files (x86)/cypress/psoc creator/4.2/psoc creator/import/gnu/arm/5.4.1/bin/../lib/gcc/arm-none-eabi/5.4.1/../../../../arm-none-eabi/lib/armv7-m\libg_nano.a(lib_a-errno.o)
                0x0000bebc                __errno
 .text.__libc_init_array
                0x0000bec8       0x4c c:/program files (x86)/cypress/psoc creator/4.2/psoc creator/import/gnu/arm/5.4.1/bin/../lib/gcc/arm-none-eabi/5.4.1/../../../../arm-none-eabi/lib/armv7-m\libg_nano.a(lib_a-init.o)
                0x0000bec8                __libc_init_array
 .text.memcpy   0x0000bf14       0x16 c:/program files (x86)/cypress/psoc creator/4.2/psoc creator/import/gnu/arm/5.4.1/bin/../lib/gcc/arm-none-eabi/5.4.1/../../../../arm-none-eabi/lib/armv7-m\libg_nano.a(lib_a-memcpy-stub.o)
                0x0000bf14                memcpy
 .text.memset   0x0000bf2a       0x10 c:/program files (x86)/cypress/psoc creator/4.2/psoc creator/import/gnu/arm/5.4.1/bin/../lib/gcc/arm-none-eabi/5.4.1/../../../../arm-none-eabi/lib/armv7-m\libg_nano.a(lib_a-memset.o)
                0x0000bf2a                memset
 *(.plt)
 *(.gnu.warning)
 *(.glue_7t)
 .glue_7t       0x0000bf3a        0x0 linker stubs
 *(.glue_7)
 .glue_7        0x0000bf3a        0x0 linker stubs
 *(.vfp11_veneer)
 .vfp11_veneer  0x0000bf3a        0x0 linker stubs
 *(.bootloader)
 *(.ARM.extab* .gnu.linkonce.armextab.*)
 *(.gcc_except_table)

.v4_bx          0x0000bf3c        0x0
 .v4_bx         0x0000bf3c        0x0 linker stubs

.iplt           0x0000bf3c        0x0
 .iplt          0x0000bf3c        0x0 c:/program files (x86)/cypress/psoc creator/4.2/psoc creator/import/gnu/arm/5.4.1/bin/../lib/gcc/arm-none-eabi/5.4.1/armv7-m/crtbegin.o

.eh_frame_hdr
 *(.eh_frame_hdr)

.eh_frame       0x0000bf3c        0x4
 *(.eh_frame)
 .eh_frame      0x0000bf3c        0x0 c:/program files (x86)/cypress/psoc creator/4.2/psoc creator/import/gnu/arm/5.4.1/bin/../lib/gcc/arm-none-eabi/5.4.1/armv7-m/crtbegin.o
 .eh_frame      0x0000bf3c        0x4 c:/program files (x86)/cypress/psoc creator/4.2/psoc creator/import/gnu/arm/5.4.1/bin/../lib/gcc/arm-none-eabi/5.4.1/armv7-m/crtend.o
                [!provide]                PROVIDE (__exidx_start, .)

.ARM.exidx
 *(.ARM.exidx* .gnu.linkonce.armexidx.*)
                0x0000bf40                __exidx_end = .

.rodata         0x0000bf40      0x278
 *(.rodata .rodata.* .gnu.linkonce.r.*)
 .rodata        0x0000bf40       0xce .\CortexM3\ARM_GCC_541\Debug\cyfitter_cfg.o
 *fill*         0x0000c00e        0x2 
 .rodata        0x0000c010       0x11 .\CortexM3\ARM_GCC_541\Debug\ext_pim.a(USBUART_std.o)
 *fill*         0x0000c021        0x3 
 .rodata        0x0000c024      0x15c .\CortexM3\ARM_GCC_541\Debug\ext_pim.a(USBUART_descr.o)
                0x0000c024                USBUART_DEVICE0_DESCR
                0x0000c038                USBUART_DEVICE0_CONFIGURATION0_DESCR
                0x0000c078                USBUART_STRING_DESCRIPTORS
                0x0000c118                USBUART_SN_STRING_DESCRIPTOR
                0x0000c11c                USBUART_DEVICE0_CONFIGURATION0_EP_SETTINGS_TABLE
                0x0000c134                USBUART_DEVICE0_CONFIGURATION0_INTERFACE_CLASS
                0x0000c138                USBUART_DEVICE0_CONFIGURATION0_TABLE
                0x0000c160                USBUART_DEVICE0_TABLE
                0x0000c178                USBUART_TABLE
 .rodata.str1.1
                0x0000c180        0x2 c:/program files (x86)/cypress/psoc creator/4.2/psoc creator/import/gnu/arm/5.4.1/bin/../lib/gcc/arm-none-eabi/5.4.1/../../../../arm-none-eabi/lib/armv7-m\libg_nano.a(lib_a-impure.o)
                0x0000c184                . = ALIGN (0x4)
 *fill*         0x0000c182        0x2 
 *(.init)
 .init          0x0000c184        0x4 c:/program files (x86)/cypress/psoc creator/4.2/psoc creator/import/gnu/arm/5.4.1/bin/../lib/gcc/arm-none-eabi/5.4.1/armv7-m/crti.o
                0x0000c184                _init
 .init          0x0000c188        0x8 c:/program files (x86)/cypress/psoc creator/4.2/psoc creator/import/gnu/arm/5.4.1/bin/../lib/gcc/arm-none-eabi/5.4.1/armv7-m/crtn.o
                0x0000c190                . = ALIGN (0x4)
                0x0000c190                __preinit_array_start = .
 *(.preinit_array)
                0x0000c190                __preinit_array_end = .
                0x0000c190                . = ALIGN (0x4)
                0x0000c190                __init_array_start = .
 *(SORT(.init_array.*))
 *(.init_array)
 .init_array    0x0000c190        0x4 c:/program files (x86)/cypress/psoc creator/4.2/psoc creator/import/gnu/arm/5.4.1/bin/../lib/gcc/arm-none-eabi/5.4.1/armv7-m/crtbegin.o
 .init_array    0x0000c194        0x4 .\CortexM3\ARM_GCC_541\Debug\Cm3Start.o
                0x0000c198                __init_array_end = .
                0x0000c198                . = ALIGN (0x4)
 *(.fini)
 .fini          0x0000c198        0x4 c:/program files (x86)/cypress/psoc creator/4.2/psoc creator/import/gnu/arm/5.4.1/bin/../lib/gcc/arm-none-eabi/5.4.1/armv7-m/crti.o
                0x0000c198                _fini
 .fini          0x0000c19c        0x8 c:/program files (x86)/cypress/psoc creator/4.2/psoc creator/import/gnu/arm/5.4.1/bin/../lib/gcc/arm-none-eabi/5.4.1/armv7-m/crtn.o
                0x0000c1a4                . = ALIGN (0x4)
                0x0000c1a4                __fini_array_start = .
 *(.fini_array)
 .fini_array    0x0000c1a4        0x4 c:/program files (x86)/cypress/psoc creator/4.2/psoc creator/import/gnu/arm/5.4.1/bin/../lib/gcc/arm-none-eabi/5.4.1/armv7-m/crtbegin.o
 *(SORT(.fini_array.*))
                0x0000c1a8                __fini_array_end = .
                0x0000c1a8                . = ALIGN (0x4)
 *crtbegin.o(.ctors)
 *(EXCLUDE_FILE(*crtend.o) .ctors)
 *(SORT(.ctors.*))
 *crtend.o(.ctors)
                0x0000c1a8                . = ALIGN (0x4)
 *crtbegin.o(.dtors)
 *(EXCLUDE_FILE(*crtend.o) .dtors)
 *(SORT(.dtors.*))
 *crtend.o(.dtors)
                0x0000c1a8                . = ALIGN (0x4)
                0x0000c1a8                __cy_regions = .
                0x0000c1a8        0x4 LONG 0xc1b8 __cy_region_init_ram
                0x0000c1ac        0x4 LONG 0x1fffc0c8 __cy_region_start_data
                0x0000c1b0        0x4 LONG 0xb0 __cy_region_init_size_ram
                0x0000c1b4        0x4 LONG 0x1fe0 __cy_region_zero_size_ram
                0x0000c1b8                __cy_regions_end = .
                0x0000c1b8                . = ALIGN (0x8)
                0x0000c1b8                _etext = .

.ramvectors     0x1fffc000       0xc0
                0x1fffc000                __cy_region_start_ram = .
 *(.ramvectors)
 .ramvectors    0x1fffc000       0xc0 .\CortexM3\ARM_GCC_541\Debug\Cm3Start.o
                0x1fffc000                CyRamVectors

.noinit         0x1fffc0c0        0x5
 *(.noinit)
 .noinit        0x1fffc0c0        0x4 .\CortexM3\ARM_GCC_541\Debug\Cm3Start.o
 .noinit        0x1fffc0c4        0x1 .\CortexM3\ARM_GCC_541\Debug\ext_pim.a(CyLib.o)
                0x1fffc0c4                CyResetStatus

.data           0x1fffc0c8       0xb0 load address 0x0000c1b8
                0x1fffc0c8                __cy_region_start_data = .
 *(.jcr)
 .jcr           0x1fffc0c8        0x0 c:/program files (x86)/cypress/psoc creator/4.2/psoc creator/import/gnu/arm/5.4.1/bin/../lib/gcc/arm-none-eabi/5.4.1/armv7-m/crtbegin.o
 .jcr           0x1fffc0c8        0x4 c:/program files (x86)/cypress/psoc creator/4.2/psoc creator/import/gnu/arm/5.4.1/bin/../lib/gcc/arm-none-eabi/5.4.1/armv7-m/crtend.o
 *(.got.plt)
 *(.got)
 *(.shdata)
 *(.data .data.* .gnu.linkonce.d.*)
 .data          0x1fffc0cc        0xd .\CortexM3\ARM_GCC_541\Debug\commandhandler.o
                0x1fffc0cc                poe_en_stat
                0x1fffc0d0                f2f_alive_message
 *fill*         0x1fffc0d9        0x3 
 .data          0x1fffc0dc       0x10 .\CortexM3\ARM_GCC_541\Debug\ext_pim.a(CyLib.o)
                0x1fffc0dc                cydelay_freq_hz
                0x1fffc0e0                cydelay_freq_khz
                0x1fffc0e4                cydelay_freq_mhz
                0x1fffc0e8                cydelay_32k_ms
 .data          0x1fffc0ec        0x6 .\CortexM3\ARM_GCC_541\Debug\ext_pim.a(EZI2Cs_PM.o)
                0x1fffc0ec                EZI2Cs_backup
 *fill*         0x1fffc0f2        0x2 
 .data          0x1fffc0f4       0x1a .\CortexM3\ARM_GCC_541\Debug\ext_pim.a(USBUART_cdc.o)
                0x1fffc0f4                USBUART_linesCoding
 *fill*         0x1fffc10e        0x2 
 .data.impure_data
                0x1fffc110       0x60 c:/program files (x86)/cypress/psoc creator/4.2/psoc creator/import/gnu/arm/5.4.1/bin/../lib/gcc/arm-none-eabi/5.4.1/../../../../arm-none-eabi/lib/armv7-m\libg_nano.a(lib_a-impure.o)
 .data._impure_ptr
                0x1fffc170        0x4 c:/program files (x86)/cypress/psoc creator/4.2/psoc creator/import/gnu/arm/5.4.1/bin/../lib/gcc/arm-none-eabi/5.4.1/../../../../arm-none-eabi/lib/armv7-m\libg_nano.a(lib_a-impure.o)
                0x1fffc170                _impure_ptr
                0x1fffc178                . = ALIGN (0x8)
 *fill*         0x1fffc174        0x4 
 *(.ram)
                0x1fffc178                _edata = .

.igot.plt       0x1fffc178        0x0 load address 0x0000c268
 .igot.plt      0x1fffc178        0x0 c:/program files (x86)/cypress/psoc creator/4.2/psoc creator/import/gnu/arm/5.4.1/bin/../lib/gcc/arm-none-eabi/5.4.1/armv7-m/crtbegin.o

.bss            0x1fffc178     0x1fe0 load address 0x0000c268
                0x1fffc178                PROVIDE (__bss_start__, .)
 *(.shbss)
 *(.bss .bss.* .gnu.linkonce.b.*)
 .bss           0x1fffc178       0x1c c:/program files (x86)/cypress/psoc creator/4.2/psoc creator/import/gnu/arm/5.4.1/bin/../lib/gcc/arm-none-eabi/5.4.1/armv7-m/crtbegin.o
 .bss           0x1fffc194        0x4 .\CortexM3\ARM_GCC_541\Debug\commandhandler.o
                0x1fffc194                usb_buf_len
 .bss           0x1fffc198        0x2 .\CortexM3\ARM_GCC_541\Debug\ext_pim.a(UART_1.o)
                0x1fffc198                UART_1_initVar
 .bss           0x1fffc19a        0x1 .\CortexM3\ARM_GCC_541\Debug\ext_pim.a(Tamper_Timer.o)
                0x1fffc19a                Tamper_Timer_initVar
 .bss           0x1fffc19b        0x1 .\CortexM3\ARM_GCC_541\Debug\ext_pim.a(UART_TIMER.o)
                0x1fffc19b                UART_TIMER_initVar
 .bss           0x1fffc19c       0x43 .\CortexM3\ARM_GCC_541\Debug\ext_pim.a(cyPm.o)
 *fill*         0x1fffc1df        0x1 
 .bss           0x1fffc1e0        0x8 .\CortexM3\ARM_GCC_541\Debug\ext_pim.a(CySpc.o)
                0x1fffc1e0                SpcLockState
 .bss           0x1fffc1e8        0x1 .\CortexM3\ARM_GCC_541\Debug\ext_pim.a(Timeout_Timer.o)
                0x1fffc1e8                Timeout_Timer_initVar
 .bss           0x1fffc1e9        0x1 .\CortexM3\ARM_GCC_541\Debug\ext_pim.a(OSDPReaderTimer.o)
                0x1fffc1e9                OSDPReaderTimer_initVar
 .bss           0x1fffc1ea        0x8 .\CortexM3\ARM_GCC_541\Debug\ext_pim.a(UART_ACS.o)
                0x1fffc1ea                UART_ACS_initVar
                0x1fffc1eb                UART_ACS_errorStatus
                0x1fffc1ec                UART_ACS_rxBufferRead
                0x1fffc1ee                UART_ACS_rxBufferWrite
                0x1fffc1f0                UART_ACS_rxBufferLoopDetect
                0x1fffc1f1                UART_ACS_rxBufferOverflow
 .bss           0x1fffc1f2        0x1 .\CortexM3\ARM_GCC_541\Debug\ext_pim.a(UART_READER.o)
                0x1fffc1f2                UART_READER_initVar
 *fill*         0x1fffc1f3        0x1 
 .bss           0x1fffc1f4        0x4 .\CortexM3\ARM_GCC_541\Debug\ext_pim.a(Pulse_50us_PM.o)
 .bss           0x1fffc1f8        0x1 .\CortexM3\ARM_GCC_541\Debug\ext_pim.a(USBUART.o)
                0x1fffc1f8                USBUART_initVar
 .bss           0x1fffc1f9        0x1 .\CortexM3\ARM_GCC_541\Debug\ext_pim.a(USBUART_cdc.o)
 *fill*         0x1fffc1fa        0x2 
 .bss           0x1fffc1fc        0x2 .\CortexM3\ARM_GCC_541\Debug\ext_pim.a(USBUART_std.o)
 .bss           0x1fffc1fe        0x1 .\CortexM3\ARM_GCC_541\Debug\ext_pim.a(SleepTimer.o)
                0x1fffc1fe                SleepTimer_initVar
 .bss           0x1fffc1ff        0x1 .\CortexM3\ARM_GCC_541\Debug\ext_pim.a(I2C_Master.o)
                0x1fffc1ff                I2C_Master_initVar
 *(COMMON)
 COMMON         0x1fffc200       0x59 .\CortexM3\ARM_GCC_541\Debug\main.o
                0x1fffc200                TOC_port_init
                0x1fffc204                bu
                0x1fffc214                tamper_out_polarity
                0x1fffc218                hw_old
                0x1fffc21c                tamperCR_polarity
                0x1fffc220                osdp_timeout
                0x1fffc224                currentAccessType
                0x1fffc228                card_in_buf
                0x1fffc22c                s
                0x1fffc254                card_ack
                0x1fffc258                tp_old
 *fill*         0x1fffc259        0x3 
 COMMON         0x1fffc25c      0x222 .\CortexM3\ARM_GCC_541\Debug\osdp.o
                0x1fffc25c                ori
                0x1fffc260                panelReadBuf
                0x1fffc2e2                OSDPReaderTask
                0x1fffc2e3                osdp_reader_msg_ready
                0x1fffc2e4                osdp_msg_header
                0x1fffc2ec                readerReadBuffer
                0x1fffc370                readerSendBuffer
                0x1fffc3f1                osdp_reader_msg_started
                0x1fffc3f4                osdp_reader_msg_header
                0x1fffc3fc                panelSendBuf
 *fill*         0x1fffc47e        0x2 
 COMMON         0x1fffc480     0x1789 .\CortexM3\ARM_GCC_541\Debug\toc.o
                0x1fffc480                tocTag
                0x1fffc481                readerbootloading
                0x1fffc484                tlv_data_len
                0x1fffc488                multi_byte_len
                0x1fffc48c                rxi
                0x1fffc490                tlv_len
                0x1fffc494                tlv_head_len
                0x1fffc498                ReaderRxBuffer
                0x1fffdc08                tlv_ready
 *fill*         0x1fffdc09        0x3 
 COMMON         0x1fffdc0c        0x8 .\CortexM3\ARM_GCC_541\Debug\f2f.o
                0x1fffdc0c                f2f_send_alive
                0x1fffdc10                f2f_alive_delay_cnt
 COMMON         0x1fffdc14      0x2f4 .\CortexM3\ARM_GCC_541\Debug\commandhandler.o
                0x1fffdc14                passmode_timeout
                0x1fffdc18                run_mode
                0x1fffdc1c                debug_msg_delay
                0x1fffdc20                tick_count
                0x1fffdc24                MyI2C_Regs
                0x1fffde00                usb_command_buffer
                0x1fffdf04                last_rx
 COMMON         0x1fffdf08        0x2 .\CortexM3\ARM_GCC_541\Debug\ext_pim.a(CyFlash.o)
                0x1fffdf08                dieTemperature
 *fill*         0x1fffdf0a        0x2 
 COMMON         0x1fffdf0c       0x11 .\CortexM3\ARM_GCC_541\Debug\ext_pim.a(EZI2Cs.o)
                0x1fffdf0c                EZI2Cs_bufSizeS1
                0x1fffdf0e                EZI2Cs_rwIndexS1
                0x1fffdf10                EZI2Cs_rwOffsetS1
                0x1fffdf12                EZI2Cs_wrProtectS1
                0x1fffdf14                EZI2Cs_curStatus
                0x1fffdf18                EZI2Cs_dataPtrS1
                0x1fffdf1c                EZI2Cs_curState
 *fill*         0x1fffdf1d        0x3 
 COMMON         0x1fffdf20        0xd .\CortexM3\ARM_GCC_541\Debug\ext_pim.a(isr_F2F_edge.o)
                0x1fffdf20                f2f_ack_delay_cnt
                0x1fffdf24                f2f_timeout
                0x1fffdf28                f2f_pulsewidth
                0x1fffdf2c                f2f_acknowledge_active
 *fill*         0x1fffdf2d        0x3 
 COMMON         0x1fffdf30        0x9 .\CortexM3\ARM_GCC_541\Debug\ext_pim.a(isr_SW_Rst.o)
                0x1fffdf30                buttonReleased
                0x1fffdf34                buttonDuration
                0x1fffdf38                buttonPressed
 *fill*         0x1fffdf39        0x3 
 COMMON         0x1fffdf3c      0x100 .\CortexM3\ARM_GCC_541\Debug\ext_pim.a(UART_ACS.o)
                0x1fffdf3c                UART_ACS_rxBuffer
 COMMON         0x1fffe03c       0x18 .\CortexM3\ARM_GCC_541\Debug\ext_pim.a(USBUART_cdc.o)
                0x1fffe03c                USBUART_linesChanged
                0x1fffe040                USBUART_cdcDataInEp
                0x1fffe044                USBUART_cdcCommInInterruptEp
                0x1fffe048                USBUART_cdcDataOutEp
                0x1fffe04c                USBUART_serialStateBitmap
                0x1fffe050                USBUART_linesControlBitmap
 COMMON         0x1fffe054       0x9a .\CortexM3\ARM_GCC_541\Debug\ext_pim.a(USBUART_drv.o)
                0x1fffe054                USBUART_lastPacketSize
                0x1fffe055                USBUART_device
                0x1fffe056                USBUART_transferByteCount
                0x1fffe058                USBUART_transferState
                0x1fffe05c                USBUART_interfaceSettingLast
                0x1fffe060                USBUART_currentTD
                0x1fffe06c                USBUART_interfaceNumber
                0x1fffe070                USBUART_interfaceClass
                0x1fffe074                USBUART_configurationChanged
                0x1fffe075                USBUART_ep0Mode
                0x1fffe076                USBUART_deviceAddress
                0x1fffe077                USBUART_configuration
                0x1fffe078                USBUART_ep0Count
                0x1fffe079                USBUART_deviceStatus
                0x1fffe07c                USBUART_EP
                0x1fffe0e8                USBUART_interfaceSetting
                0x1fffe0ea                USBUART_ep0Toggle
                0x1fffe0ec                USBUART_interfaceStatus
 COMMON         0x1fffe0ee        0x1 .\CortexM3\ARM_GCC_541\Debug\ext_pim.a(I2C_Master.o)
                0x1fffe0ee                I2C_Master_state
 *fill*         0x1fffe0ef        0x1 
 COMMON         0x1fffe0f0        0xf .\CortexM3\ARM_GCC_541\Debug\ext_pim.a(I2C_Master_MASTER.o)
                0x1fffe0f0                I2C_Master_mstrRdBufIndex
                0x1fffe0f1                I2C_Master_mstrWrBufIndex
                0x1fffe0f2                I2C_Master_mstrWrBufSize
                0x1fffe0f4                I2C_Master_mstrWrBufPtr
                0x1fffe0f8                I2C_Master_mstrRdBufPtr
                0x1fffe0fc                I2C_Master_mstrControl
                0x1fffe0fd                I2C_Master_mstrStatus
                0x1fffe0fe                I2C_Master_mstrRdBufSize
 *fill*         0x1fffe0ff        0x1 
 COMMON         0x1fffe100       0x31 .\CortexM3\ARM_GCC_541\Debug\ext_pim.a(isr_WD_SYNC.o)
                0x1fffe100                wiegandBuffer
                0x1fffe120                testBitCount
                0x1fffe124                wiegandBitCount
                0x1fffe128                isWiegandDataStart
                0x1fffe12c                wiegandByteCount
                0x1fffe130                isWiegandDataReady
 *fill*         0x1fffe131        0x3 
 COMMON         0x1fffe134       0x22 .\CortexM3\ARM_GCC_541\Debug\ext_pim.a(USBUART_descr.o)
                0x1fffe134                USBUART_idSerialNumberStringDescriptor
                0x1fffe158                . = ALIGN (0x8)
 *fill*         0x1fffe156        0x2 
 *(.ram.b)
                0x1fffe158                _end = .
                0x1fffe158                __end = .
                0x1fffe158                PROVIDE (end, .)
                0x1fffe158                PROVIDE (__bss_end__, .)
                0x0000c1b8                __cy_region_init_ram = LOADADDR (.data)
                0x000000b0                __cy_region_init_size_ram = (_edata - ADDR (.data))
                0x00001fe0                __cy_region_zero_size_ram = (_end - _edata)

.heap           0x1fffe158      0x800 load address 0x0000c268
                0x1fffe158                . = _end
                0x1fffe958                . = (. + 0x800)
 *fill*         0x1fffe158      0x800 
                0x1fffe958                __cy_heap_limit = .

.stack          0x20003200      0xe00
                0x20003200                __cy_stack_limit = .
                0x20004000                . = (. + 0xe00)
 *fill*         0x20003200      0xe00 
                0x00000001                ASSERT ((__cy_stack_limit >= __cy_heap_limit), region RAM overflowed with stack)

.cy_checksum_exclude
                0x0001ff00        0x0
 *(.cy_checksum_exclude)
                0x00000000                cy_checksum_exclude_size = (CY_APPL_LOADABLE == 0x1)?SIZEOF (.cy_checksum_exclude):0x0
                0x00000001                ASSERT ((cy_checksum_exclude_size <= CY_CHECKSUM_EXCLUDE_SIZE), CY_BOOT: Section .cy_checksum_exclude size exceedes specified limit.)

.cyloadermeta   0xf0000000       0x40
 *(.cyloadermeta)
 .cyloadermeta  0xf0000000       0x40 .\CortexM3\ARM_GCC_541\Debug\cybootloader.o
                0xf0000000                cy_meta_loader

.cyloadablemeta
                0x0001ffc0       0x40
 *(.cyloadablemeta)
 .cyloadablemeta
                0x0001ffc0       0x40 .\CortexM3\ARM_GCC_541\Debug\cymetadata.o
                0x0001ffc0                cy_meta_loadable

.cyconfigecc    0x80000580     0x1480
 *(.cyconfigecc)
 .cyconfigecc   0x80000580     0x1480 .\CortexM3\ARM_GCC_541\Debug\cymetadata.o
                0x80000580                cy_meta_configecc

.cycustnvl      0x90000000        0x4
 *(.cycustnvl)
 .cycustnvl     0x90000000        0x4 .\CortexM3\ARM_GCC_541\Debug\cybootloader.o
                0x90000000                cy_meta_custnvl

.cywolatch      0x90100000        0x4
 *(.cywolatch)
 .cywolatch     0x90100000        0x4 .\CortexM3\ARM_GCC_541\Debug\cybootloader.o
                0x90100000                cy_meta_wonvl

.cyeeprom       0x90200000        0x0
 *(.cyeeprom)
                0x00000001                ASSERT ((. <= ((0x90200000 + ee_offset) + ee_size)), .cyeeprom data will not fit in EEPROM)

.cyflashprotect
                0x90400000       0x80
 *(.cyflashprotect)
 .cyflashprotect
                0x90400000       0x80 .\CortexM3\ARM_GCC_541\Debug\cybootloader.o
                0x90400000                cy_meta_flashprotect

.cymeta         0x90500000        0xc
 *(.cymeta)
 .cymeta        0x90500000        0xc .\CortexM3\ARM_GCC_541\Debug\cybootloader.o
                0x90500000                cy_metadata

.rel.dyn        0x00020000        0x0 load address 0x9050000c
 .rel.iplt      0x00020000        0x0 c:/program files (x86)/cypress/psoc creator/4.2/psoc creator/import/gnu/arm/5.4.1/bin/../lib/gcc/arm-none-eabi/5.4.1/armv7-m/crtbegin.o

.stab
 *(.stab)

.stabstr
 *(.stabstr)

.debug
 *(.debug)

.line
 *(.line)

.debug_srcinfo
 *(.debug_srcinfo)

.debug_sfnames
 *(.debug_sfnames)

.debug_aranges  0x00000000     0x2088
 *(.debug_aranges)
 .debug_aranges
                0x00000000       0x28 .\CortexM3\ARM_GCC_541\Debug\main.o
 .debug_aranges
                0x00000028       0x50 .\CortexM3\ARM_GCC_541\Debug\wiegand.o
 .debug_aranges
                0x00000078       0x18 .\CortexM3\ARM_GCC_541\Debug\power.o
 .debug_aranges
                0x00000090       0x50 .\CortexM3\ARM_GCC_541\Debug\inout.o
 .debug_aranges
                0x000000e0       0x48 .\CortexM3\ARM_GCC_541\Debug\i2cuart.o
 .debug_aranges
                0x00000128       0x48 .\CortexM3\ARM_GCC_541\Debug\soft_uart.o
 .debug_aranges
                0x00000170       0xa8 .\CortexM3\ARM_GCC_541\Debug\osdp.o
 .debug_aranges
                0x00000218       0x50 .\CortexM3\ARM_GCC_541\Debug\toc.o
 .debug_aranges
                0x00000268       0x38 .\CortexM3\ARM_GCC_541\Debug\f2f.o
 .debug_aranges
                0x000002a0       0x18 .\CortexM3\ARM_GCC_541\Debug\rtc.o
 .debug_aranges
                0x000002b8       0x80 .\CortexM3\ARM_GCC_541\Debug\commandhandler.o
 .debug_aranges
                0x00000338       0x60 .\CortexM3\ARM_GCC_541\Debug\cyfitter_cfg.o
 .debug_aranges
                0x00000398       0x18 .\CortexM3\ARM_GCC_541\Debug\cymetadata.o
 .debug_aranges
                0x000003b0       0x48 .\CortexM3\ARM_GCC_541\Debug\Cm3Start.o
 .debug_aranges
                0x000003f8       0x18 .\CortexM3\ARM_GCC_541\Debug\cybootloader.o
 .debug_aranges
                0x00000410       0x38 .\CortexM3\ARM_GCC_541\Debug\ext_pim.a(RELAY_B.o)
 .debug_aranges
                0x00000448       0x38 .\CortexM3\ARM_GCC_541\Debug\ext_pim.a(SOUND_OUT.o)
 .debug_aranges
                0x00000480       0x80 .\CortexM3\ARM_GCC_541\Debug\ext_pim.a(Tamper_Timer_ISR.o)
 .debug_aranges
                0x00000500       0x38 .\CortexM3\ARM_GCC_541\Debug\ext_pim.a(PS_D0.o)
 .debug_aranges
                0x00000538       0x38 .\CortexM3\ARM_GCC_541\Debug\ext_pim.a(Pin_WD0.o)
 .debug_aranges
                0x00000570       0xf0 .\CortexM3\ARM_GCC_541\Debug\ext_pim.a(UART_1.o)
 .debug_aranges
                0x00000660       0x38 .\CortexM3\ARM_GCC_541\Debug\ext_pim.a(TAMPER_OUT.o)
 .debug_aranges
                0x00000698       0x38 .\CortexM3\ARM_GCC_541\Debug\ext_pim.a(LEDG_OUT.o)
 .debug_aranges
                0x000006d0       0x38 .\CortexM3\ARM_GCC_541\Debug\ext_pim.a(LEDR_OUT.o)
 .debug_aranges
                0x00000708       0x38 .\CortexM3\ARM_GCC_541\Debug\ext_pim.a(RELAY_A.o)
 .debug_aranges
                0x00000740       0x28 .\CortexM3\ARM_GCC_541\Debug\ext_pim.a(OptSelect.o)
 .debug_aranges
                0x00000768       0x88 .\CortexM3\ARM_GCC_541\Debug\ext_pim.a(Tamper_Timer.o)
 .debug_aranges
                0x000007f0       0x90 .\CortexM3\ARM_GCC_541\Debug\ext_pim.a(UART_TIMER.o)
 .debug_aranges
                0x00000880       0x80 .\CortexM3\ARM_GCC_541\Debug\ext_pim.a(UART_TIMER_ISR.o)
 .debug_aranges
                0x00000900       0x80 .\CortexM3\ARM_GCC_541\Debug\ext_pim.a(CyFlash.o)
 .debug_aranges
                0x00000980      0x2a0 .\CortexM3\ARM_GCC_541\Debug\ext_pim.a(CyLib.o)
 .debug_aranges
                0x00000c20       0x98 .\CortexM3\ARM_GCC_541\Debug\ext_pim.a(cyPm.o)
 .debug_aranges
                0x00000cb8       0x78 .\CortexM3\ARM_GCC_541\Debug\ext_pim.a(CySpc.o)
 .debug_aranges
                0x00000d30       0x58 .\CortexM3\ARM_GCC_541\Debug\ext_pim.a(EZI2Cs.o)
 .debug_aranges
                0x00000d88       0x38 .\CortexM3\ARM_GCC_541\Debug\ext_pim.a(EZI2Cs_PM.o)
 .debug_aranges
                0x00000dc0       0x20 .\CortexM3\ARM_GCC_541\Debug\ext_pim.a(EZI2Cs_INT.o)
 .debug_aranges
                0x00000de0       0x88 .\CortexM3\ARM_GCC_541\Debug\ext_pim.a(Timeout_Timer.o)
 .debug_aranges
                0x00000e68       0x80 .\CortexM3\ARM_GCC_541\Debug\ext_pim.a(Timeout_Timer_Isr.o)
 .debug_aranges
                0x00000ee8       0x70 .\CortexM3\ARM_GCC_541\Debug\ext_pim.a(Clock_5.o)
 .debug_aranges
                0x00000f58       0x80 .\CortexM3\ARM_GCC_541\Debug\ext_pim.a(isr_F2F_edge.o)
 .debug_aranges
                0x00000fd8       0x40 .\CortexM3\ARM_GCC_541\Debug\ext_pim.a(FilterReg.o)
 .debug_aranges
                0x00001018       0x38 .\CortexM3\ARM_GCC_541\Debug\ext_pim.a(Mode_Sel_ACS.o)
 .debug_aranges
                0x00001050       0x38 .\CortexM3\ARM_GCC_541\Debug\ext_pim.a(TX_EN.o)
 .debug_aranges
                0x00001088       0x38 .\CortexM3\ARM_GCC_541\Debug\ext_pim.a(CR_DE.o)
 .debug_aranges
                0x000010c0       0x80 .\CortexM3\ARM_GCC_541\Debug\ext_pim.a(Clock_6.o)
 .debug_aranges
                0x00001140       0x38 .\CortexM3\ARM_GCC_541\Debug\ext_pim.a(Mode_Sel_CR.o)
 .debug_aranges
                0x00001178       0x80 .\CortexM3\ARM_GCC_541\Debug\ext_pim.a(isr_keepalive.o)
 .debug_aranges
                0x000011f8       0x90 .\CortexM3\ARM_GCC_541\Debug\ext_pim.a(OSDPReaderTimer.o)
 .debug_aranges
                0x00001288       0x80 .\CortexM3\ARM_GCC_541\Debug\ext_pim.a(isr_SW_Rst.o)
 .debug_aranges
                0x00001308       0x38 .\CortexM3\ARM_GCC_541\Debug\ext_pim.a(LED_GRN.o)
 .debug_aranges
                0x00001340       0x38 .\CortexM3\ARM_GCC_541\Debug\ext_pim.a(LED_RED.o)
 .debug_aranges
                0x00001378       0x38 .\CortexM3\ARM_GCC_541\Debug\ext_pim.a(LED_YEL.o)
 .debug_aranges
                0x000013b0      0x100 .\CortexM3\ARM_GCC_541\Debug\ext_pim.a(UART_ACS.o)
 .debug_aranges
                0x000014b0       0x20 .\CortexM3\ARM_GCC_541\Debug\ext_pim.a(UART_ACS_INT.o)
 .debug_aranges
                0x000014d0      0x100 .\CortexM3\ARM_GCC_541\Debug\ext_pim.a(UART_READER.o)
 .debug_aranges
                0x000015d0       0x80 .\CortexM3\ARM_GCC_541\Debug\ext_pim.a(isr_READER_rx.o)
 .debug_aranges
                0x00001650       0x90 .\CortexM3\ARM_GCC_541\Debug\ext_pim.a(Pulse_50us.o)
 .debug_aranges
                0x000016e0       0x38 .\CortexM3\ARM_GCC_541\Debug\ext_pim.a(Pulse_50us_PM.o)
 .debug_aranges
                0x00001718       0x80 .\CortexM3\ARM_GCC_541\Debug\ext_pim.a(isr_50us.o)
 .debug_aranges
                0x00001798       0x38 .\CortexM3\ARM_GCC_541\Debug\ext_pim.a(PS_D1.o)
 .debug_aranges
                0x000017d0       0x38 .\CortexM3\ARM_GCC_541\Debug\ext_pim.a(SF2F.o)
 .debug_aranges
                0x00001808       0x38 .\CortexM3\ARM_GCC_541\Debug\ext_pim.a(POE_RST.o)
 .debug_aranges
                0x00001840       0x38 .\CortexM3\ARM_GCC_541\Debug\ext_pim.a(POE_OIM_SDn.o)
 .debug_aranges
                0x00001878       0xc8 .\CortexM3\ARM_GCC_541\Debug\ext_pim.a(USBUART.o)
 .debug_aranges
                0x00001940       0xe8 .\CortexM3\ARM_GCC_541\Debug\ext_pim.a(USBUART_cdc.o)
 .debug_aranges
                0x00001a28       0x98 .\CortexM3\ARM_GCC_541\Debug\ext_pim.a(USBUART_drv.o)
 .debug_aranges
                0x00001ac0       0x40 .\CortexM3\ARM_GCC_541\Debug\ext_pim.a(USBUART_episr.o)
 .debug_aranges
                0x00001b00       0x40 .\CortexM3\ARM_GCC_541\Debug\ext_pim.a(USBUART_pm.o)
 .debug_aranges
                0x00001b40       0x80 .\CortexM3\ARM_GCC_541\Debug\ext_pim.a(USBUART_std.o)
 .debug_aranges
                0x00001bc0       0x20 .\CortexM3\ARM_GCC_541\Debug\ext_pim.a(USBUART_vnd.o)
 .debug_aranges
                0x00001be0       0x48 .\CortexM3\ARM_GCC_541\Debug\ext_pim.a(USBUART_Dp.o)
 .debug_aranges
                0x00001c28       0x80 .\CortexM3\ARM_GCC_541\Debug\ext_pim.a(isr_Sleep.o)
 .debug_aranges
                0x00001ca8       0x58 .\CortexM3\ARM_GCC_541\Debug\ext_pim.a(SleepTimer.o)
 .debug_aranges
                0x00001d00       0x38 .\CortexM3\ARM_GCC_541\Debug\ext_pim.a(I2C_Master.o)
 .debug_aranges
                0x00001d38       0x20 .\CortexM3\ARM_GCC_541\Debug\ext_pim.a(I2C_Master_INT.o)
 .debug_aranges
                0x00001d58       0x80 .\CortexM3\ARM_GCC_541\Debug\ext_pim.a(I2C_Master_MASTER.o)
 .debug_aranges
                0x00001dd8       0x38 .\CortexM3\ARM_GCC_541\Debug\ext_pim.a(ST_LED_0.o)
 .debug_aranges
                0x00001e10       0x38 .\CortexM3\ARM_GCC_541\Debug\ext_pim.a(ST_LED_1.o)
 .debug_aranges
                0x00001e48       0x38 .\CortexM3\ARM_GCC_541\Debug\ext_pim.a(ST_LED_2.o)
 .debug_aranges
                0x00001e80       0x78 .\CortexM3\ARM_GCC_541\Debug\ext_pim.a(EEPROM.o)
 .debug_aranges
                0x00001ef8       0x80 .\CortexM3\ARM_GCC_541\Debug\ext_pim.a(isr_WD_SYNC.o)
 .debug_aranges
                0x00001f78       0x40 .\CortexM3\ARM_GCC_541\Debug\ext_pim.a(Status_Reg_HwPort.o)
 .debug_aranges
                0x00001fb8       0x20 .\CortexM3\ARM_GCC_541\Debug\ext_pim.a(CyBootAsmGnu.o)
 .debug_aranges
                0x00001fd8       0x38 .\CortexM3\ARM_GCC_541\Debug\ext_pim.a(Pin_WD1.o)
 .debug_aranges
                0x00002010       0x40 .\CortexM3\ARM_GCC_541\Debug\ext_pim.a(FltrReg.o)
 .debug_aranges
                0x00002050       0x20 .\CortexM3\ARM_GCC_541\Debug\ext_pim.a(USBUART_cls.o)
 .debug_aranges
                0x00002070       0x18 .\CortexM3\ARM_GCC_541\Debug\ext_pim.a(USBUART_descr.o)

.debug_pubnames
 *(.debug_pubnames)

.debug_info     0x00000000     0xf6be
 *(.debug_info .gnu.linkonce.wi.*)
 .debug_info    0x00000000      0x4dd .\CortexM3\ARM_GCC_541\Debug\main.o
 .debug_info    0x000004dd      0x53e .\CortexM3\ARM_GCC_541\Debug\wiegand.o
 .debug_info    0x00000a1b       0xae .\CortexM3\ARM_GCC_541\Debug\power.o
 .debug_info    0x00000ac9      0x514 .\CortexM3\ARM_GCC_541\Debug\inout.o
 .debug_info    0x00000fdd      0x4fe .\CortexM3\ARM_GCC_541\Debug\i2cuart.o
 .debug_info    0x000014db      0x2b9 .\CortexM3\ARM_GCC_541\Debug\soft_uart.o
 .debug_info    0x00001794      0x809 .\CortexM3\ARM_GCC_541\Debug\osdp.o
 .debug_info    0x00001f9d      0x5ed .\CortexM3\ARM_GCC_541\Debug\toc.o
 .debug_info    0x0000258a      0x585 .\CortexM3\ARM_GCC_541\Debug\f2f.o
 .debug_info    0x00002b0f       0xae .\CortexM3\ARM_GCC_541\Debug\rtc.o
 .debug_info    0x00002bbd      0x806 .\CortexM3\ARM_GCC_541\Debug\commandhandler.o
 .debug_info    0x000033c3      0x464 .\CortexM3\ARM_GCC_541\Debug\cyfitter_cfg.o
 .debug_info    0x00003827       0xd3 .\CortexM3\ARM_GCC_541\Debug\cymetadata.o
 .debug_info    0x000038fa      0x32b .\CortexM3\ARM_GCC_541\Debug\Cm3Start.o
 .debug_info    0x00003c25      0x16a .\CortexM3\ARM_GCC_541\Debug\cybootloader.o
 .debug_info    0x00003d8f      0x11e .\CortexM3\ARM_GCC_541\Debug\ext_pim.a(RELAY_B.o)
 .debug_info    0x00003ead      0x11e .\CortexM3\ARM_GCC_541\Debug\ext_pim.a(SOUND_OUT.o)
 .debug_info    0x00003fcb      0x3f6 .\CortexM3\ARM_GCC_541\Debug\ext_pim.a(Tamper_Timer_ISR.o)
 .debug_info    0x000043c1      0x11e .\CortexM3\ARM_GCC_541\Debug\ext_pim.a(PS_D0.o)
 .debug_info    0x000044df      0x11e .\CortexM3\ARM_GCC_541\Debug\ext_pim.a(Pin_WD0.o)
 .debug_info    0x000045fd      0x50a .\CortexM3\ARM_GCC_541\Debug\ext_pim.a(UART_1.o)
 .debug_info    0x00004b07      0x11e .\CortexM3\ARM_GCC_541\Debug\ext_pim.a(TAMPER_OUT.o)
 .debug_info    0x00004c25      0x11e .\CortexM3\ARM_GCC_541\Debug\ext_pim.a(LEDG_OUT.o)
 .debug_info    0x00004d43      0x11e .\CortexM3\ARM_GCC_541\Debug\ext_pim.a(LEDR_OUT.o)
 .debug_info    0x00004e61      0x11e .\CortexM3\ARM_GCC_541\Debug\ext_pim.a(RELAY_A.o)
 .debug_info    0x00004f7f       0xd7 .\CortexM3\ARM_GCC_541\Debug\ext_pim.a(OptSelect.o)
 .debug_info    0x00005056      0x245 .\CortexM3\ARM_GCC_541\Debug\ext_pim.a(Tamper_Timer.o)
 .debug_info    0x0000529b      0x23e .\CortexM3\ARM_GCC_541\Debug\ext_pim.a(UART_TIMER.o)
 .debug_info    0x000054d9      0x39c .\CortexM3\ARM_GCC_541\Debug\ext_pim.a(UART_TIMER_ISR.o)
 .debug_info    0x00005875      0x371 .\CortexM3\ARM_GCC_541\Debug\ext_pim.a(CyFlash.o)
 .debug_info    0x00005be6      0xe51 .\CortexM3\ARM_GCC_541\Debug\ext_pim.a(CyLib.o)
 .debug_info    0x00006a37      0x57a .\CortexM3\ARM_GCC_541\Debug\ext_pim.a(cyPm.o)
 .debug_info    0x00006fb1      0x45a .\CortexM3\ARM_GCC_541\Debug\ext_pim.a(CySpc.o)
 .debug_info    0x0000740b      0x2f1 .\CortexM3\ARM_GCC_541\Debug\ext_pim.a(EZI2Cs.o)
 .debug_info    0x000076fc      0x189 .\CortexM3\ARM_GCC_541\Debug\ext_pim.a(EZI2Cs_PM.o)
 .debug_info    0x00007885      0x159 .\CortexM3\ARM_GCC_541\Debug\ext_pim.a(EZI2Cs_INT.o)
 .debug_info    0x000079de      0x245 .\CortexM3\ARM_GCC_541\Debug\ext_pim.a(Timeout_Timer.o)
 .debug_info    0x00007c23      0x3e6 .\CortexM3\ARM_GCC_541\Debug\ext_pim.a(Timeout_Timer_Isr.o)
 .debug_info    0x00008009      0x25d .\CortexM3\ARM_GCC_541\Debug\ext_pim.a(Clock_5.o)
 .debug_info    0x00008266      0x3ec .\CortexM3\ARM_GCC_541\Debug\ext_pim.a(isr_F2F_edge.o)
 .debug_info    0x00008652      0x142 .\CortexM3\ARM_GCC_541\Debug\ext_pim.a(FilterReg.o)
 .debug_info    0x00008794      0x11e .\CortexM3\ARM_GCC_541\Debug\ext_pim.a(Mode_Sel_ACS.o)
 .debug_info    0x000088b2      0x11e .\CortexM3\ARM_GCC_541\Debug\ext_pim.a(TX_EN.o)
 .debug_info    0x000089d0      0x11e .\CortexM3\ARM_GCC_541\Debug\ext_pim.a(CR_DE.o)
 .debug_info    0x00008aee      0x299 .\CortexM3\ARM_GCC_541\Debug\ext_pim.a(Clock_6.o)
 .debug_info    0x00008d87      0x11e .\CortexM3\ARM_GCC_541\Debug\ext_pim.a(Mode_Sel_CR.o)
 .debug_info    0x00008ea5      0x241 .\CortexM3\ARM_GCC_541\Debug\ext_pim.a(isr_keepalive.o)
 .debug_info    0x000090e6      0x25b .\CortexM3\ARM_GCC_541\Debug\ext_pim.a(OSDPReaderTimer.o)
 .debug_info    0x00009341      0x3e2 .\CortexM3\ARM_GCC_541\Debug\ext_pim.a(isr_SW_Rst.o)
 .debug_info    0x00009723      0x11e .\CortexM3\ARM_GCC_541\Debug\ext_pim.a(LED_GRN.o)
 .debug_info    0x00009841      0x11e .\CortexM3\ARM_GCC_541\Debug\ext_pim.a(LED_RED.o)
 .debug_info    0x0000995f      0x11e .\CortexM3\ARM_GCC_541\Debug\ext_pim.a(LED_YEL.o)
 .debug_info    0x00009a7d      0x609 .\CortexM3\ARM_GCC_541\Debug\ext_pim.a(UART_ACS.o)
 .debug_info    0x0000a086      0x15a .\CortexM3\ARM_GCC_541\Debug\ext_pim.a(UART_ACS_INT.o)
 .debug_info    0x0000a1e0      0x51c .\CortexM3\ARM_GCC_541\Debug\ext_pim.a(UART_READER.o)
 .debug_info    0x0000a6fc      0x241 .\CortexM3\ARM_GCC_541\Debug\ext_pim.a(isr_READER_rx.o)
 .debug_info    0x0000a93d      0x23e .\CortexM3\ARM_GCC_541\Debug\ext_pim.a(Pulse_50us.o)
 .debug_info    0x0000ab7b      0x145 .\CortexM3\ARM_GCC_541\Debug\ext_pim.a(Pulse_50us_PM.o)
 .debug_info    0x0000acc0      0x241 .\CortexM3\ARM_GCC_541\Debug\ext_pim.a(isr_50us.o)
 .debug_info    0x0000af01      0x11e .\CortexM3\ARM_GCC_541\Debug\ext_pim.a(PS_D1.o)
 .debug_info    0x0000b01f      0x11e .\CortexM3\ARM_GCC_541\Debug\ext_pim.a(SF2F.o)
 .debug_info    0x0000b13d      0x11e .\CortexM3\ARM_GCC_541\Debug\ext_pim.a(POE_RST.o)
 .debug_info    0x0000b25b      0x11e .\CortexM3\ARM_GCC_541\Debug\ext_pim.a(POE_OIM_SDn.o)
 .debug_info    0x0000b379      0x717 .\CortexM3\ARM_GCC_541\Debug\ext_pim.a(USBUART.o)
 .debug_info    0x0000ba90      0x924 .\CortexM3\ARM_GCC_541\Debug\ext_pim.a(USBUART_cdc.o)
 .debug_info    0x0000c3b4      0x52d .\CortexM3\ARM_GCC_541\Debug\ext_pim.a(USBUART_drv.o)
 .debug_info    0x0000c8e1      0x23b .\CortexM3\ARM_GCC_541\Debug\ext_pim.a(USBUART_episr.o)
 .debug_info    0x0000cb1c      0x18d .\CortexM3\ARM_GCC_541\Debug\ext_pim.a(USBUART_pm.o)
 .debug_info    0x0000cca9      0x951 .\CortexM3\ARM_GCC_541\Debug\ext_pim.a(USBUART_std.o)
 .debug_info    0x0000d5fa       0xef .\CortexM3\ARM_GCC_541\Debug\ext_pim.a(USBUART_vnd.o)
 .debug_info    0x0000d6e9      0x171 .\CortexM3\ARM_GCC_541\Debug\ext_pim.a(USBUART_Dp.o)
 .debug_info    0x0000d85a      0x273 .\CortexM3\ARM_GCC_541\Debug\ext_pim.a(isr_Sleep.o)
 .debug_info    0x0000dacd      0x1ab .\CortexM3\ARM_GCC_541\Debug\ext_pim.a(SleepTimer.o)
 .debug_info    0x0000dc78      0x163 .\CortexM3\ARM_GCC_541\Debug\ext_pim.a(I2C_Master.o)
 .debug_info    0x0000dddb      0x156 .\CortexM3\ARM_GCC_541\Debug\ext_pim.a(I2C_Master_INT.o)
 .debug_info    0x0000df31      0x3f8 .\CortexM3\ARM_GCC_541\Debug\ext_pim.a(I2C_Master_MASTER.o)
 .debug_info    0x0000e329      0x11e .\CortexM3\ARM_GCC_541\Debug\ext_pim.a(ST_LED_0.o)
 .debug_info    0x0000e447      0x11e .\CortexM3\ARM_GCC_541\Debug\ext_pim.a(ST_LED_1.o)
 .debug_info    0x0000e565      0x11e .\CortexM3\ARM_GCC_541\Debug\ext_pim.a(ST_LED_2.o)
 .debug_info    0x0000e683      0x359 .\CortexM3\ARM_GCC_541\Debug\ext_pim.a(EEPROM.o)
 .debug_info    0x0000e9dc      0x432 .\CortexM3\ARM_GCC_541\Debug\ext_pim.a(isr_WD_SYNC.o)
 .debug_info    0x0000ee0e      0x142 .\CortexM3\ARM_GCC_541\Debug\ext_pim.a(Status_Reg_HwPort.o)
 .debug_info    0x0000ef50       0xa3 .\CortexM3\ARM_GCC_541\Debug\ext_pim.a(CyBootAsmGnu.o)
 .debug_info    0x0000eff3      0x11e .\CortexM3\ARM_GCC_541\Debug\ext_pim.a(Pin_WD1.o)
 .debug_info    0x0000f111      0x142 .\CortexM3\ARM_GCC_541\Debug\ext_pim.a(FltrReg.o)
 .debug_info    0x0000f253      0x1c8 .\CortexM3\ARM_GCC_541\Debug\ext_pim.a(USBUART_cls.o)
 .debug_info    0x0000f41b      0x2a3 .\CortexM3\ARM_GCC_541\Debug\ext_pim.a(USBUART_descr.o)

.debug_abbrev   0x00000000     0x5974
 *(.debug_abbrev)
 .debug_abbrev  0x00000000      0x16a .\CortexM3\ARM_GCC_541\Debug\main.o
 .debug_abbrev  0x0000016a      0x198 .\CortexM3\ARM_GCC_541\Debug\wiegand.o
 .debug_abbrev  0x00000302       0x4b .\CortexM3\ARM_GCC_541\Debug\power.o
 .debug_abbrev  0x0000034d      0x17d .\CortexM3\ARM_GCC_541\Debug\inout.o
 .debug_abbrev  0x000004ca      0x19c .\CortexM3\ARM_GCC_541\Debug\i2cuart.o
 .debug_abbrev  0x00000666      0x10d .\CortexM3\ARM_GCC_541\Debug\soft_uart.o
 .debug_abbrev  0x00000773      0x255 .\CortexM3\ARM_GCC_541\Debug\osdp.o
 .debug_abbrev  0x000009c8      0x1d2 .\CortexM3\ARM_GCC_541\Debug\toc.o
 .debug_abbrev  0x00000b9a      0x1b7 .\CortexM3\ARM_GCC_541\Debug\f2f.o
 .debug_abbrev  0x00000d51       0x4b .\CortexM3\ARM_GCC_541\Debug\rtc.o
 .debug_abbrev  0x00000d9c      0x1e6 .\CortexM3\ARM_GCC_541\Debug\commandhandler.o
 .debug_abbrev  0x00000f82      0x1e2 .\CortexM3\ARM_GCC_541\Debug\cyfitter_cfg.o
 .debug_abbrev  0x00001164       0x66 .\CortexM3\ARM_GCC_541\Debug\cymetadata.o
 .debug_abbrev  0x000011ca      0x1d6 .\CortexM3\ARM_GCC_541\Debug\Cm3Start.o
 .debug_abbrev  0x000013a0       0x77 .\CortexM3\ARM_GCC_541\Debug\cybootloader.o
 .debug_abbrev  0x00001417       0x90 .\CortexM3\ARM_GCC_541\Debug\ext_pim.a(RELAY_B.o)
 .debug_abbrev  0x000014a7       0x90 .\CortexM3\ARM_GCC_541\Debug\ext_pim.a(SOUND_OUT.o)
 .debug_abbrev  0x00001537      0x1ab .\CortexM3\ARM_GCC_541\Debug\ext_pim.a(Tamper_Timer_ISR.o)
 .debug_abbrev  0x000016e2       0x90 .\CortexM3\ARM_GCC_541\Debug\ext_pim.a(PS_D0.o)
 .debug_abbrev  0x00001772       0x90 .\CortexM3\ARM_GCC_541\Debug\ext_pim.a(Pin_WD0.o)
 .debug_abbrev  0x00001802      0x14b .\CortexM3\ARM_GCC_541\Debug\ext_pim.a(UART_1.o)
 .debug_abbrev  0x0000194d       0x90 .\CortexM3\ARM_GCC_541\Debug\ext_pim.a(TAMPER_OUT.o)
 .debug_abbrev  0x000019dd       0x90 .\CortexM3\ARM_GCC_541\Debug\ext_pim.a(LEDG_OUT.o)
 .debug_abbrev  0x00001a6d       0x90 .\CortexM3\ARM_GCC_541\Debug\ext_pim.a(LEDR_OUT.o)
 .debug_abbrev  0x00001afd       0x90 .\CortexM3\ARM_GCC_541\Debug\ext_pim.a(RELAY_A.o)
 .debug_abbrev  0x00001b8d       0x81 .\CortexM3\ARM_GCC_541\Debug\ext_pim.a(OptSelect.o)
 .debug_abbrev  0x00001c0e       0xe9 .\CortexM3\ARM_GCC_541\Debug\ext_pim.a(Tamper_Timer.o)
 .debug_abbrev  0x00001cf7      0x11b .\CortexM3\ARM_GCC_541\Debug\ext_pim.a(UART_TIMER.o)
 .debug_abbrev  0x00001e12      0x1b6 .\CortexM3\ARM_GCC_541\Debug\ext_pim.a(UART_TIMER_ISR.o)
 .debug_abbrev  0x00001fc8      0x13c .\CortexM3\ARM_GCC_541\Debug\ext_pim.a(CyFlash.o)
 .debug_abbrev  0x00002104      0x217 .\CortexM3\ARM_GCC_541\Debug\ext_pim.a(CyLib.o)
 .debug_abbrev  0x0000231b      0x161 .\CortexM3\ARM_GCC_541\Debug\ext_pim.a(cyPm.o)
 .debug_abbrev  0x0000247c      0x16c .\CortexM3\ARM_GCC_541\Debug\ext_pim.a(CySpc.o)
 .debug_abbrev  0x000025e8      0x150 .\CortexM3\ARM_GCC_541\Debug\ext_pim.a(EZI2Cs.o)
 .debug_abbrev  0x00002738       0xf8 .\CortexM3\ARM_GCC_541\Debug\ext_pim.a(EZI2Cs_PM.o)
 .debug_abbrev  0x00002830       0x81 .\CortexM3\ARM_GCC_541\Debug\ext_pim.a(EZI2Cs_INT.o)
 .debug_abbrev  0x000028b1       0xe9 .\CortexM3\ARM_GCC_541\Debug\ext_pim.a(Timeout_Timer.o)
 .debug_abbrev  0x0000299a      0x1c7 .\CortexM3\ARM_GCC_541\Debug\ext_pim.a(Timeout_Timer_Isr.o)
 .debug_abbrev  0x00002b61      0x11d .\CortexM3\ARM_GCC_541\Debug\ext_pim.a(Clock_5.o)
 .debug_abbrev  0x00002c7e      0x1c7 .\CortexM3\ARM_GCC_541\Debug\ext_pim.a(isr_F2F_edge.o)
 .debug_abbrev  0x00002e45       0xaa .\CortexM3\ARM_GCC_541\Debug\ext_pim.a(FilterReg.o)
 .debug_abbrev  0x00002eef       0x90 .\CortexM3\ARM_GCC_541\Debug\ext_pim.a(Mode_Sel_ACS.o)
 .debug_abbrev  0x00002f7f       0x90 .\CortexM3\ARM_GCC_541\Debug\ext_pim.a(TX_EN.o)
 .debug_abbrev  0x0000300f       0x90 .\CortexM3\ARM_GCC_541\Debug\ext_pim.a(CR_DE.o)
 .debug_abbrev  0x0000309f      0x11d .\CortexM3\ARM_GCC_541\Debug\ext_pim.a(Clock_6.o)
 .debug_abbrev  0x000031bc       0x90 .\CortexM3\ARM_GCC_541\Debug\ext_pim.a(Mode_Sel_CR.o)
 .debug_abbrev  0x0000324c      0x172 .\CortexM3\ARM_GCC_541\Debug\ext_pim.a(isr_keepalive.o)
 .debug_abbrev  0x000033be      0x11b .\CortexM3\ARM_GCC_541\Debug\ext_pim.a(OSDPReaderTimer.o)
 .debug_abbrev  0x000034d9      0x1b6 .\CortexM3\ARM_GCC_541\Debug\ext_pim.a(isr_SW_Rst.o)
 .debug_abbrev  0x0000368f       0x90 .\CortexM3\ARM_GCC_541\Debug\ext_pim.a(LED_GRN.o)
 .debug_abbrev  0x0000371f       0x90 .\CortexM3\ARM_GCC_541\Debug\ext_pim.a(LED_RED.o)
 .debug_abbrev  0x000037af       0x90 .\CortexM3\ARM_GCC_541\Debug\ext_pim.a(LED_YEL.o)
 .debug_abbrev  0x0000383f      0x177 .\CortexM3\ARM_GCC_541\Debug\ext_pim.a(UART_ACS.o)
 .debug_abbrev  0x000039b6       0x8a .\CortexM3\ARM_GCC_541\Debug\ext_pim.a(UART_ACS_INT.o)
 .debug_abbrev  0x00003a40      0x17b .\CortexM3\ARM_GCC_541\Debug\ext_pim.a(UART_READER.o)
 .debug_abbrev  0x00003bbb      0x172 .\CortexM3\ARM_GCC_541\Debug\ext_pim.a(isr_READER_rx.o)
 .debug_abbrev  0x00003d2d      0x11b .\CortexM3\ARM_GCC_541\Debug\ext_pim.a(Pulse_50us.o)
 .debug_abbrev  0x00003e48       0x8e .\CortexM3\ARM_GCC_541\Debug\ext_pim.a(Pulse_50us_PM.o)
 .debug_abbrev  0x00003ed6      0x172 .\CortexM3\ARM_GCC_541\Debug\ext_pim.a(isr_50us.o)
 .debug_abbrev  0x00004048       0x90 .\CortexM3\ARM_GCC_541\Debug\ext_pim.a(PS_D1.o)
 .debug_abbrev  0x000040d8       0x90 .\CortexM3\ARM_GCC_541\Debug\ext_pim.a(SF2F.o)
 .debug_abbrev  0x00004168       0x90 .\CortexM3\ARM_GCC_541\Debug\ext_pim.a(POE_RST.o)
 .debug_abbrev  0x000041f8       0x90 .\CortexM3\ARM_GCC_541\Debug\ext_pim.a(POE_OIM_SDn.o)
 .debug_abbrev  0x00004288      0x1f3 .\CortexM3\ARM_GCC_541\Debug\ext_pim.a(USBUART.o)
 .debug_abbrev  0x0000447b      0x233 .\CortexM3\ARM_GCC_541\Debug\ext_pim.a(USBUART_cdc.o)
 .debug_abbrev  0x000046ae      0x161 .\CortexM3\ARM_GCC_541\Debug\ext_pim.a(USBUART_drv.o)
 .debug_abbrev  0x0000480f       0xfd .\CortexM3\ARM_GCC_541\Debug\ext_pim.a(USBUART_episr.o)
 .debug_abbrev  0x0000490c       0xd1 .\CortexM3\ARM_GCC_541\Debug\ext_pim.a(USBUART_pm.o)
 .debug_abbrev  0x000049dd      0x1c2 .\CortexM3\ARM_GCC_541\Debug\ext_pim.a(USBUART_std.o)
 .debug_abbrev  0x00004b9f       0x9b .\CortexM3\ARM_GCC_541\Debug\ext_pim.a(USBUART_vnd.o)
 .debug_abbrev  0x00004c3a       0x90 .\CortexM3\ARM_GCC_541\Debug\ext_pim.a(USBUART_Dp.o)
 .debug_abbrev  0x00004cca      0x18a .\CortexM3\ARM_GCC_541\Debug\ext_pim.a(isr_Sleep.o)
 .debug_abbrev  0x00004e54       0xd3 .\CortexM3\ARM_GCC_541\Debug\ext_pim.a(SleepTimer.o)
 .debug_abbrev  0x00004f27       0xb9 .\CortexM3\ARM_GCC_541\Debug\ext_pim.a(I2C_Master.o)
 .debug_abbrev  0x00004fe0       0x81 .\CortexM3\ARM_GCC_541\Debug\ext_pim.a(I2C_Master_INT.o)
 .debug_abbrev  0x00005061      0x11e .\CortexM3\ARM_GCC_541\Debug\ext_pim.a(I2C_Master_MASTER.o)
 .debug_abbrev  0x0000517f       0x90 .\CortexM3\ARM_GCC_541\Debug\ext_pim.a(ST_LED_0.o)
 .debug_abbrev  0x0000520f       0x90 .\CortexM3\ARM_GCC_541\Debug\ext_pim.a(ST_LED_1.o)
 .debug_abbrev  0x0000529f       0x90 .\CortexM3\ARM_GCC_541\Debug\ext_pim.a(ST_LED_2.o)
 .debug_abbrev  0x0000532f      0x117 .\CortexM3\ARM_GCC_541\Debug\ext_pim.a(EEPROM.o)
 .debug_abbrev  0x00005446      0x1bd .\CortexM3\ARM_GCC_541\Debug\ext_pim.a(isr_WD_SYNC.o)
 .debug_abbrev  0x00005603       0xaa .\CortexM3\ARM_GCC_541\Debug\ext_pim.a(Status_Reg_HwPort.o)
 .debug_abbrev  0x000056ad       0x14 .\CortexM3\ARM_GCC_541\Debug\ext_pim.a(CyBootAsmGnu.o)
 .debug_abbrev  0x000056c1       0x90 .\CortexM3\ARM_GCC_541\Debug\ext_pim.a(Pin_WD1.o)
 .debug_abbrev  0x00005751       0xaa .\CortexM3\ARM_GCC_541\Debug\ext_pim.a(FltrReg.o)
 .debug_abbrev  0x000057fb       0xc5 .\CortexM3\ARM_GCC_541\Debug\ext_pim.a(USBUART_cls.o)
 .debug_abbrev  0x000058c0       0xb4 .\CortexM3\ARM_GCC_541\Debug\ext_pim.a(USBUART_descr.o)

.debug_line     0x00000000     0x865e
 *(.debug_line)
 .debug_line    0x00000000      0x1e3 .\CortexM3\ARM_GCC_541\Debug\main.o
 .debug_line    0x000001e3      0x26b .\CortexM3\ARM_GCC_541\Debug\wiegand.o
 .debug_line    0x0000044e      0x13f .\CortexM3\ARM_GCC_541\Debug\power.o
 .debug_line    0x0000058d      0x254 .\CortexM3\ARM_GCC_541\Debug\inout.o
 .debug_line    0x000007e1      0x265 .\CortexM3\ARM_GCC_541\Debug\i2cuart.o
 .debug_line    0x00000a46      0x241 .\CortexM3\ARM_GCC_541\Debug\soft_uart.o
 .debug_line    0x00000c87      0x48e .\CortexM3\ARM_GCC_541\Debug\osdp.o
 .debug_line    0x00001115      0x2a2 .\CortexM3\ARM_GCC_541\Debug\toc.o
 .debug_line    0x000013b7      0x283 .\CortexM3\ARM_GCC_541\Debug\f2f.o
 .debug_line    0x0000163a      0x13f .\CortexM3\ARM_GCC_541\Debug\rtc.o
 .debug_line    0x00001779      0x451 .\CortexM3\ARM_GCC_541\Debug\commandhandler.o
 .debug_line    0x00001bca        0x0 .\CortexM3\ARM_GCC_541\Debug\handle_commands.o
 .debug_line    0x00001bca      0x22a .\CortexM3\ARM_GCC_541\Debug\cyfitter_cfg.o
 .debug_line    0x00001df4      0x141 .\CortexM3\ARM_GCC_541\Debug\cymetadata.o
 .debug_line    0x00001f35      0x1db .\CortexM3\ARM_GCC_541\Debug\Cm3Start.o
 .debug_line    0x00002110       0x53 .\CortexM3\ARM_GCC_541\Debug\cybootloader.o
 .debug_line    0x00002163       0x97 .\CortexM3\ARM_GCC_541\Debug\ext_pim.a(RELAY_B.o)
 .debug_line    0x000021fa       0x99 .\CortexM3\ARM_GCC_541\Debug\ext_pim.a(SOUND_OUT.o)
 .debug_line    0x00002293      0x29e .\CortexM3\ARM_GCC_541\Debug\ext_pim.a(Tamper_Timer_ISR.o)
 .debug_line    0x00002531       0x95 .\CortexM3\ARM_GCC_541\Debug\ext_pim.a(PS_D0.o)
 .debug_line    0x000025c6       0x97 .\CortexM3\ARM_GCC_541\Debug\ext_pim.a(Pin_WD0.o)
 .debug_line    0x0000265d      0x2e5 .\CortexM3\ARM_GCC_541\Debug\ext_pim.a(UART_1.o)
 .debug_line    0x00002942       0x9a .\CortexM3\ARM_GCC_541\Debug\ext_pim.a(TAMPER_OUT.o)
 .debug_line    0x000029dc       0x98 .\CortexM3\ARM_GCC_541\Debug\ext_pim.a(LEDG_OUT.o)
 .debug_line    0x00002a74       0x98 .\CortexM3\ARM_GCC_541\Debug\ext_pim.a(LEDR_OUT.o)
 .debug_line    0x00002b0c       0x97 .\CortexM3\ARM_GCC_541\Debug\ext_pim.a(RELAY_A.o)
 .debug_line    0x00002ba3       0x72 .\CortexM3\ARM_GCC_541\Debug\ext_pim.a(OptSelect.o)
 .debug_line    0x00002c15      0x164 .\CortexM3\ARM_GCC_541\Debug\ext_pim.a(Tamper_Timer.o)
 .debug_line    0x00002d79      0x173 .\CortexM3\ARM_GCC_541\Debug\ext_pim.a(UART_TIMER.o)
 .debug_line    0x00002eec      0x272 .\CortexM3\ARM_GCC_541\Debug\ext_pim.a(UART_TIMER_ISR.o)
 .debug_line    0x0000315e      0x205 .\CortexM3\ARM_GCC_541\Debug\ext_pim.a(CyFlash.o)
 .debug_line    0x00003363      0x883 .\CortexM3\ARM_GCC_541\Debug\ext_pim.a(CyLib.o)
 .debug_line    0x00003be6      0x38e .\CortexM3\ARM_GCC_541\Debug\ext_pim.a(cyPm.o)
 .debug_line    0x00003f74      0x212 .\CortexM3\ARM_GCC_541\Debug\ext_pim.a(CySpc.o)
 .debug_line    0x00004186      0x12b .\CortexM3\ARM_GCC_541\Debug\ext_pim.a(EZI2Cs.o)
 .debug_line    0x000042b1       0xbc .\CortexM3\ARM_GCC_541\Debug\ext_pim.a(EZI2Cs_PM.o)
 .debug_line    0x0000436d       0xc4 .\CortexM3\ARM_GCC_541\Debug\ext_pim.a(EZI2Cs_INT.o)
 .debug_line    0x00004431      0x165 .\CortexM3\ARM_GCC_541\Debug\ext_pim.a(Timeout_Timer.o)
 .debug_line    0x00004596      0x295 .\CortexM3\ARM_GCC_541\Debug\ext_pim.a(Timeout_Timer_Isr.o)
 .debug_line    0x0000482b      0x1a6 .\CortexM3\ARM_GCC_541\Debug\ext_pim.a(Clock_5.o)
 .debug_line    0x000049d1      0x296 .\CortexM3\ARM_GCC_541\Debug\ext_pim.a(isr_F2F_edge.o)
 .debug_line    0x00004c67       0xad .\CortexM3\ARM_GCC_541\Debug\ext_pim.a(FilterReg.o)
 .debug_line    0x00004d14       0x9c .\CortexM3\ARM_GCC_541\Debug\ext_pim.a(Mode_Sel_ACS.o)
 .debug_line    0x00004db0       0x95 .\CortexM3\ARM_GCC_541\Debug\ext_pim.a(TX_EN.o)
 .debug_line    0x00004e45       0x95 .\CortexM3\ARM_GCC_541\Debug\ext_pim.a(CR_DE.o)
 .debug_line    0x00004eda      0x1ca .\CortexM3\ARM_GCC_541\Debug\ext_pim.a(Clock_6.o)
 .debug_line    0x000050a4       0x9b .\CortexM3\ARM_GCC_541\Debug\ext_pim.a(Mode_Sel_CR.o)
 .debug_line    0x0000513f      0x158 .\CortexM3\ARM_GCC_541\Debug\ext_pim.a(isr_keepalive.o)
 .debug_line    0x00005297      0x178 .\CortexM3\ARM_GCC_541\Debug\ext_pim.a(OSDPReaderTimer.o)
 .debug_line    0x0000540f      0x289 .\CortexM3\ARM_GCC_541\Debug\ext_pim.a(isr_SW_Rst.o)
 .debug_line    0x00005698       0x97 .\CortexM3\ARM_GCC_541\Debug\ext_pim.a(LED_GRN.o)
 .debug_line    0x0000572f       0x97 .\CortexM3\ARM_GCC_541\Debug\ext_pim.a(LED_RED.o)
 .debug_line    0x000057c6       0x97 .\CortexM3\ARM_GCC_541\Debug\ext_pim.a(LED_YEL.o)
 .debug_line    0x0000585d      0x32d .\CortexM3\ARM_GCC_541\Debug\ext_pim.a(UART_ACS.o)
 .debug_line    0x00005b8a       0x8e .\CortexM3\ARM_GCC_541\Debug\ext_pim.a(UART_ACS_INT.o)
 .debug_line    0x00005c18      0x305 .\CortexM3\ARM_GCC_541\Debug\ext_pim.a(UART_READER.o)
 .debug_line    0x00005f1d      0x158 .\CortexM3\ARM_GCC_541\Debug\ext_pim.a(isr_READER_rx.o)
 .debug_line    0x00006075      0x173 .\CortexM3\ARM_GCC_541\Debug\ext_pim.a(Pulse_50us.o)
 .debug_line    0x000061e8       0xb5 .\CortexM3\ARM_GCC_541\Debug\ext_pim.a(Pulse_50us_PM.o)
 .debug_line    0x0000629d      0x153 .\CortexM3\ARM_GCC_541\Debug\ext_pim.a(isr_50us.o)
 .debug_line    0x000063f0       0x95 .\CortexM3\ARM_GCC_541\Debug\ext_pim.a(PS_D1.o)
 .debug_line    0x00006485       0x94 .\CortexM3\ARM_GCC_541\Debug\ext_pim.a(SF2F.o)
 .debug_line    0x00006519       0x97 .\CortexM3\ARM_GCC_541\Debug\ext_pim.a(POE_RST.o)
 .debug_line    0x000065b0       0x9b .\CortexM3\ARM_GCC_541\Debug\ext_pim.a(POE_OIM_SDn.o)
 .debug_line    0x0000664b      0x307 .\CortexM3\ARM_GCC_541\Debug\ext_pim.a(USBUART.o)
 .debug_line    0x00006952      0x30c .\CortexM3\ARM_GCC_541\Debug\ext_pim.a(USBUART_cdc.o)
 .debug_line    0x00006c5e      0x21f .\CortexM3\ARM_GCC_541\Debug\ext_pim.a(USBUART_drv.o)
 .debug_line    0x00006e7d       0xf2 .\CortexM3\ARM_GCC_541\Debug\ext_pim.a(USBUART_episr.o)
 .debug_line    0x00006f6f       0xe6 .\CortexM3\ARM_GCC_541\Debug\ext_pim.a(USBUART_pm.o)
 .debug_line    0x00007055      0x475 .\CortexM3\ARM_GCC_541\Debug\ext_pim.a(USBUART_std.o)
 .debug_line    0x000074ca       0x79 .\CortexM3\ARM_GCC_541\Debug\ext_pim.a(USBUART_vnd.o)
 .debug_line    0x00007543       0xbf .\CortexM3\ARM_GCC_541\Debug\ext_pim.a(USBUART_Dp.o)
 .debug_line    0x00007602      0x156 .\CortexM3\ARM_GCC_541\Debug\ext_pim.a(isr_Sleep.o)
 .debug_line    0x00007758       0xfb .\CortexM3\ARM_GCC_541\Debug\ext_pim.a(SleepTimer.o)
 .debug_line    0x00007853       0xcf .\CortexM3\ARM_GCC_541\Debug\ext_pim.a(I2C_Master.o)
 .debug_line    0x00007922      0x14a .\CortexM3\ARM_GCC_541\Debug\ext_pim.a(I2C_Master_INT.o)
 .debug_line    0x00007a6c      0x21e .\CortexM3\ARM_GCC_541\Debug\ext_pim.a(I2C_Master_MASTER.o)
 .debug_line    0x00007c8a       0x98 .\CortexM3\ARM_GCC_541\Debug\ext_pim.a(ST_LED_0.o)
 .debug_line    0x00007d22       0x98 .\CortexM3\ARM_GCC_541\Debug\ext_pim.a(ST_LED_1.o)
 .debug_line    0x00007dba       0x98 .\CortexM3\ARM_GCC_541\Debug\ext_pim.a(ST_LED_2.o)
 .debug_line    0x00007e52      0x226 .\CortexM3\ARM_GCC_541\Debug\ext_pim.a(EEPROM.o)
 .debug_line    0x00008078      0x293 .\CortexM3\ARM_GCC_541\Debug\ext_pim.a(isr_WD_SYNC.o)
 .debug_line    0x0000830b       0xb5 .\CortexM3\ARM_GCC_541\Debug\ext_pim.a(Status_Reg_HwPort.o)
 .debug_line    0x000083c0       0x66 .\CortexM3\ARM_GCC_541\Debug\ext_pim.a(CyBootAsmGnu.o)
 .debug_line    0x00008426       0x97 .\CortexM3\ARM_GCC_541\Debug\ext_pim.a(Pin_WD1.o)
 .debug_line    0x000084bd       0xab .\CortexM3\ARM_GCC_541\Debug\ext_pim.a(FltrReg.o)
 .debug_line    0x00008568       0x95 .\CortexM3\ARM_GCC_541\Debug\ext_pim.a(USBUART_cls.o)
 .debug_line    0x000085fd       0x61 .\CortexM3\ARM_GCC_541\Debug\ext_pim.a(USBUART_descr.o)

.debug_frame    0x00000000     0x7734
 *(.debug_frame)
 .debug_frame   0x00000000       0x54 .\CortexM3\ARM_GCC_541\Debug\main.o
 .debug_frame   0x00000054       0xf8 .\CortexM3\ARM_GCC_541\Debug\wiegand.o
 .debug_frame   0x0000014c      0x128 .\CortexM3\ARM_GCC_541\Debug\inout.o
 .debug_frame   0x00000274       0xe8 .\CortexM3\ARM_GCC_541\Debug\i2cuart.o
 .debug_frame   0x0000035c      0x100 .\CortexM3\ARM_GCC_541\Debug\soft_uart.o
 .debug_frame   0x0000045c      0x2ac .\CortexM3\ARM_GCC_541\Debug\osdp.o
 .debug_frame   0x00000708      0x118 .\CortexM3\ARM_GCC_541\Debug\toc.o
 .debug_frame   0x00000820       0xa8 .\CortexM3\ARM_GCC_541\Debug\f2f.o
 .debug_frame   0x000008c8      0x1f4 .\CortexM3\ARM_GCC_541\Debug\commandhandler.o
 .debug_frame   0x00000abc      0x16c .\CortexM3\ARM_GCC_541\Debug\cyfitter_cfg.o
 .debug_frame   0x00000c28       0xd8 .\CortexM3\ARM_GCC_541\Debug\Cm3Start.o
 .debug_frame   0x00000d00       0xa8 .\CortexM3\ARM_GCC_541\Debug\ext_pim.a(RELAY_B.o)
 .debug_frame   0x00000da8       0xa8 .\CortexM3\ARM_GCC_541\Debug\ext_pim.a(SOUND_OUT.o)
 .debug_frame   0x00000e50      0x1e0 .\CortexM3\ARM_GCC_541\Debug\ext_pim.a(Tamper_Timer_ISR.o)
 .debug_frame   0x00001030       0xa8 .\CortexM3\ARM_GCC_541\Debug\ext_pim.a(PS_D0.o)
 .debug_frame   0x000010d8       0xa8 .\CortexM3\ARM_GCC_541\Debug\ext_pim.a(Pin_WD0.o)
 .debug_frame   0x00001180      0x424 .\CortexM3\ARM_GCC_541\Debug\ext_pim.a(UART_1.o)
 .debug_frame   0x000015a4       0xa8 .\CortexM3\ARM_GCC_541\Debug\ext_pim.a(TAMPER_OUT.o)
 .debug_frame   0x0000164c       0xa8 .\CortexM3\ARM_GCC_541\Debug\ext_pim.a(LEDG_OUT.o)
 .debug_frame   0x000016f4       0xa8 .\CortexM3\ARM_GCC_541\Debug\ext_pim.a(LEDR_OUT.o)
 .debug_frame   0x0000179c       0xa8 .\CortexM3\ARM_GCC_541\Debug\ext_pim.a(RELAY_A.o)
 .debug_frame   0x00001844       0x5c .\CortexM3\ARM_GCC_541\Debug\ext_pim.a(OptSelect.o)
 .debug_frame   0x000018a0      0x208 .\CortexM3\ARM_GCC_541\Debug\ext_pim.a(Tamper_Timer.o)
 .debug_frame   0x00001aa8      0x230 .\CortexM3\ARM_GCC_541\Debug\ext_pim.a(UART_TIMER.o)
 .debug_frame   0x00001cd8      0x1e0 .\CortexM3\ARM_GCC_541\Debug\ext_pim.a(UART_TIMER_ISR.o)
 .debug_frame   0x00001eb8      0x210 .\CortexM3\ARM_GCC_541\Debug\ext_pim.a(CyFlash.o)
 .debug_frame   0x000020c8      0xc0c .\CortexM3\ARM_GCC_541\Debug\ext_pim.a(CyLib.o)
 .debug_frame   0x00002cd4      0x234 .\CortexM3\ARM_GCC_541\Debug\ext_pim.a(cyPm.o)
 .debug_frame   0x00002f08      0x1f8 .\CortexM3\ARM_GCC_541\Debug\ext_pim.a(CySpc.o)
 .debug_frame   0x00003100      0x134 .\CortexM3\ARM_GCC_541\Debug\ext_pim.a(EZI2Cs.o)
 .debug_frame   0x00003234       0x94 .\CortexM3\ARM_GCC_541\Debug\ext_pim.a(EZI2Cs_PM.o)
 .debug_frame   0x000032c8       0x34 .\CortexM3\ARM_GCC_541\Debug\ext_pim.a(EZI2Cs_INT.o)
 .debug_frame   0x000032fc      0x208 .\CortexM3\ARM_GCC_541\Debug\ext_pim.a(Timeout_Timer.o)
 .debug_frame   0x00003504      0x1e0 .\CortexM3\ARM_GCC_541\Debug\ext_pim.a(Timeout_Timer_Isr.o)
 .debug_frame   0x000036e4      0x1b4 .\CortexM3\ARM_GCC_541\Debug\ext_pim.a(Clock_5.o)
 .debug_frame   0x00003898      0x1e0 .\CortexM3\ARM_GCC_541\Debug\ext_pim.a(isr_F2F_edge.o)
 .debug_frame   0x00003a78       0xd0 .\CortexM3\ARM_GCC_541\Debug\ext_pim.a(FilterReg.o)
 .debug_frame   0x00003b48       0xa8 .\CortexM3\ARM_GCC_541\Debug\ext_pim.a(Mode_Sel_ACS.o)
 .debug_frame   0x00003bf0       0xa8 .\CortexM3\ARM_GCC_541\Debug\ext_pim.a(TX_EN.o)
 .debug_frame   0x00003c98       0xa8 .\CortexM3\ARM_GCC_541\Debug\ext_pim.a(CR_DE.o)
 .debug_frame   0x00003d40      0x200 .\CortexM3\ARM_GCC_541\Debug\ext_pim.a(Clock_6.o)
 .debug_frame   0x00003f40       0xa8 .\CortexM3\ARM_GCC_541\Debug\ext_pim.a(Mode_Sel_CR.o)
 .debug_frame   0x00003fe8      0x1e8 .\CortexM3\ARM_GCC_541\Debug\ext_pim.a(isr_keepalive.o)
 .debug_frame   0x000041d0      0x230 .\CortexM3\ARM_GCC_541\Debug\ext_pim.a(OSDPReaderTimer.o)
 .debug_frame   0x00004400      0x1ec .\CortexM3\ARM_GCC_541\Debug\ext_pim.a(isr_SW_Rst.o)
 .debug_frame   0x000045ec       0xa8 .\CortexM3\ARM_GCC_541\Debug\ext_pim.a(LED_GRN.o)
 .debug_frame   0x00004694       0xa8 .\CortexM3\ARM_GCC_541\Debug\ext_pim.a(LED_RED.o)
 .debug_frame   0x0000473c       0xa8 .\CortexM3\ARM_GCC_541\Debug\ext_pim.a(LED_YEL.o)
 .debug_frame   0x000047e4      0x460 .\CortexM3\ARM_GCC_541\Debug\ext_pim.a(UART_ACS.o)
 .debug_frame   0x00004c44       0x38 .\CortexM3\ARM_GCC_541\Debug\ext_pim.a(UART_ACS_INT.o)
 .debug_frame   0x00004c7c      0x464 .\CortexM3\ARM_GCC_541\Debug\ext_pim.a(UART_READER.o)
 .debug_frame   0x000050e0      0x1e8 .\CortexM3\ARM_GCC_541\Debug\ext_pim.a(isr_READER_rx.o)
 .debug_frame   0x000052c8      0x230 .\CortexM3\ARM_GCC_541\Debug\ext_pim.a(Pulse_50us.o)
 .debug_frame   0x000054f8       0x80 .\CortexM3\ARM_GCC_541\Debug\ext_pim.a(Pulse_50us_PM.o)
 .debug_frame   0x00005578      0x1e8 .\CortexM3\ARM_GCC_541\Debug\ext_pim.a(isr_50us.o)
 .debug_frame   0x00005760       0xa8 .\CortexM3\ARM_GCC_541\Debug\ext_pim.a(PS_D1.o)
 .debug_frame   0x00005808       0xa8 .\CortexM3\ARM_GCC_541\Debug\ext_pim.a(SF2F.o)
 .debug_frame   0x000058b0       0xa8 .\CortexM3\ARM_GCC_541\Debug\ext_pim.a(POE_RST.o)
 .debug_frame   0x00005958       0xa8 .\CortexM3\ARM_GCC_541\Debug\ext_pim.a(POE_OIM_SDn.o)
 .debug_frame   0x00005a00      0x37c .\CortexM3\ARM_GCC_541\Debug\ext_pim.a(USBUART.o)
 .debug_frame   0x00005d7c      0x3ec .\CortexM3\ARM_GCC_541\Debug\ext_pim.a(USBUART_cdc.o)
 .debug_frame   0x00006168      0x23c .\CortexM3\ARM_GCC_541\Debug\ext_pim.a(USBUART_drv.o)
 .debug_frame   0x000063a4       0xbc .\CortexM3\ARM_GCC_541\Debug\ext_pim.a(USBUART_episr.o)
 .debug_frame   0x00006460       0xbc .\CortexM3\ARM_GCC_541\Debug\ext_pim.a(USBUART_pm.o)
 .debug_frame   0x0000651c      0x224 .\CortexM3\ARM_GCC_541\Debug\ext_pim.a(USBUART_std.o)
 .debug_frame   0x00006740       0x38 .\CortexM3\ARM_GCC_541\Debug\ext_pim.a(USBUART_vnd.o)
 .debug_frame   0x00006778       0xf4 .\CortexM3\ARM_GCC_541\Debug\ext_pim.a(USBUART_Dp.o)
 .debug_frame   0x0000686c      0x1e0 .\CortexM3\ARM_GCC_541\Debug\ext_pim.a(isr_Sleep.o)
 .debug_frame   0x00006a4c      0x12c .\CortexM3\ARM_GCC_541\Debug\ext_pim.a(SleepTimer.o)
 .debug_frame   0x00006b78       0x9c .\CortexM3\ARM_GCC_541\Debug\ext_pim.a(I2C_Master.o)
 .debug_frame   0x00006c14       0x38 .\CortexM3\ARM_GCC_541\Debug\ext_pim.a(I2C_Master_INT.o)
 .debug_frame   0x00006c4c      0x208 .\CortexM3\ARM_GCC_541\Debug\ext_pim.a(I2C_Master_MASTER.o)
 .debug_frame   0x00006e54       0xa8 .\CortexM3\ARM_GCC_541\Debug\ext_pim.a(ST_LED_0.o)
 .debug_frame   0x00006efc       0xa8 .\CortexM3\ARM_GCC_541\Debug\ext_pim.a(ST_LED_1.o)
 .debug_frame   0x00006fa4       0xa8 .\CortexM3\ARM_GCC_541\Debug\ext_pim.a(ST_LED_2.o)
 .debug_frame   0x0000704c      0x1c0 .\CortexM3\ARM_GCC_541\Debug\ext_pim.a(EEPROM.o)
 .debug_frame   0x0000720c      0x1ec .\CortexM3\ARM_GCC_541\Debug\ext_pim.a(isr_WD_SYNC.o)
 .debug_frame   0x000073f8       0xd0 .\CortexM3\ARM_GCC_541\Debug\ext_pim.a(Status_Reg_HwPort.o)
 .debug_frame   0x000074c8       0xa8 .\CortexM3\ARM_GCC_541\Debug\ext_pim.a(Pin_WD1.o)
 .debug_frame   0x00007570       0xd0 .\CortexM3\ARM_GCC_541\Debug\ext_pim.a(FltrReg.o)
 .debug_frame   0x00007640       0x38 .\CortexM3\ARM_GCC_541\Debug\ext_pim.a(USBUART_cls.o)
 .debug_frame   0x00007678       0x20 c:/program files (x86)/cypress/psoc creator/4.2/psoc creator/import/gnu/arm/5.4.1/bin/../lib/gcc/arm-none-eabi/5.4.1/../../../../arm-none-eabi/lib/armv7-m\libg_nano.a(lib_a-errno.o)
 .debug_frame   0x00007698       0x28 c:/program files (x86)/cypress/psoc creator/4.2/psoc creator/import/gnu/arm/5.4.1/bin/../lib/gcc/arm-none-eabi/5.4.1/../../../../arm-none-eabi/lib/armv7-m\libg_nano.a(lib_a-exit.o)
 .debug_frame   0x000076c0       0x2c c:/program files (x86)/cypress/psoc creator/4.2/psoc creator/import/gnu/arm/5.4.1/bin/../lib/gcc/arm-none-eabi/5.4.1/../../../../arm-none-eabi/lib/armv7-m\libg_nano.a(lib_a-init.o)
 .debug_frame   0x000076ec       0x28 c:/program files (x86)/cypress/psoc creator/4.2/psoc creator/import/gnu/arm/5.4.1/bin/../lib/gcc/arm-none-eabi/5.4.1/../../../../arm-none-eabi/lib/armv7-m\libg_nano.a(lib_a-memcpy-stub.o)
 .debug_frame   0x00007714       0x20 c:/program files (x86)/cypress/psoc creator/4.2/psoc creator/import/gnu/arm/5.4.1/bin/../lib/gcc/arm-none-eabi/5.4.1/../../../../arm-none-eabi/lib/armv7-m\libg_nano.a(lib_a-memset.o)

.debug_str      0x00000000     0x6390
 *(.debug_str)
 .debug_str     0x00000000      0x3dd .\CortexM3\ARM_GCC_541\Debug\main.o
                                0x44b (size before relaxing)
 .debug_str     0x000003dd       0xcf .\CortexM3\ARM_GCC_541\Debug\wiegand.o
                                0x482 (size before relaxing)
 .debug_str     0x000004ac        0x8 .\CortexM3\ARM_GCC_541\Debug\power.o
                                0x18c (size before relaxing)
 .debug_str     0x000004b4       0x97 .\CortexM3\ARM_GCC_541\Debug\inout.o
                                0x454 (size before relaxing)
 .debug_str     0x0000054b       0x65 .\CortexM3\ARM_GCC_541\Debug\i2cuart.o
                                0x428 (size before relaxing)
 .debug_str     0x000005b0       0x5b .\CortexM3\ARM_GCC_541\Debug\soft_uart.o
                                0x259 (size before relaxing)
 .debug_str     0x0000060b      0x209 .\CortexM3\ARM_GCC_541\Debug\osdp.o
                                0x5e6 (size before relaxing)
 .debug_str     0x00000814      0x101 .\CortexM3\ARM_GCC_541\Debug\toc.o
                                0x4ca (size before relaxing)
 .debug_str     0x00000915       0x77 .\CortexM3\ARM_GCC_541\Debug\f2f.o
                                0x468 (size before relaxing)
 .debug_str     0x0000098c        0x6 .\CortexM3\ARM_GCC_541\Debug\rtc.o
                                0x18a (size before relaxing)
 .debug_str     0x00000992      0x127 .\CortexM3\ARM_GCC_541\Debug\commandhandler.o
                                0x575 (size before relaxing)
 .debug_str     0x00000ab9       0x12 .\CortexM3\ARM_GCC_541\Debug\handle_commands.o
                                 0xcc (size before relaxing)
 .debug_str     0x00000acb      0x1f1 .\CortexM3\ARM_GCC_541\Debug\cyfitter_cfg.o
                                0x359 (size before relaxing)
 .debug_str     0x00000cbc       0x47 .\CortexM3\ARM_GCC_541\Debug\cymetadata.o
                                0x1c9 (size before relaxing)
 .debug_str     0x00000d03      0x11e .\CortexM3\ARM_GCC_541\Debug\Cm3Start.o
                                0x2ea (size before relaxing)
 .debug_str     0x00000e21       0x82 .\CortexM3\ARM_GCC_541\Debug\cybootloader.o
                                0x20a (size before relaxing)
 .debug_str     0x00000ea3       0x70 .\CortexM3\ARM_GCC_541\Debug\ext_pim.a(RELAY_B.o)
                                0x1ff (size before relaxing)
 .debug_str     0x00000f13       0x6f .\CortexM3\ARM_GCC_541\Debug\ext_pim.a(SOUND_OUT.o)
                                0x209 (size before relaxing)
 .debug_str     0x00000f82      0x1c1 .\CortexM3\ARM_GCC_541\Debug\ext_pim.a(Tamper_Timer_ISR.o)
                                0x49a (size before relaxing)
 .debug_str     0x00001143       0x5b .\CortexM3\ARM_GCC_541\Debug\ext_pim.a(PS_D0.o)
                                0x1f5 (size before relaxing)
 .debug_str     0x0000119e       0x65 .\CortexM3\ARM_GCC_541\Debug\ext_pim.a(Pin_WD0.o)
                                0x1ff (size before relaxing)
 .debug_str     0x00001203      0x2b0 .\CortexM3\ARM_GCC_541\Debug\ext_pim.a(UART_1.o)
                                0x46e (size before relaxing)
 .debug_str     0x000014b3       0x74 .\CortexM3\ARM_GCC_541\Debug\ext_pim.a(TAMPER_OUT.o)
                                0x20e (size before relaxing)
 .debug_str     0x00001527       0x6a .\CortexM3\ARM_GCC_541\Debug\ext_pim.a(LEDG_OUT.o)
                                0x204 (size before relaxing)
 .debug_str     0x00001591       0x6a .\CortexM3\ARM_GCC_541\Debug\ext_pim.a(LEDR_OUT.o)
                                0x204 (size before relaxing)
 .debug_str     0x000015fb       0x65 .\CortexM3\ARM_GCC_541\Debug\ext_pim.a(RELAY_A.o)
                                0x1ff (size before relaxing)
 .debug_str     0x00001660       0x42 .\CortexM3\ARM_GCC_541\Debug\ext_pim.a(OptSelect.o)
                                0x1ce (size before relaxing)
 .debug_str     0x000016a2      0x1ca .\CortexM3\ARM_GCC_541\Debug\ext_pim.a(Tamper_Timer.o)
                                0x378 (size before relaxing)
 .debug_str     0x0000186c      0x1b0 .\CortexM3\ARM_GCC_541\Debug\ext_pim.a(UART_TIMER.o)
                                0x36e (size before relaxing)
 .debug_str     0x00001a1c      0x164 .\CortexM3\ARM_GCC_541\Debug\ext_pim.a(UART_TIMER_ISR.o)
                                0x3fc (size before relaxing)
 .debug_str     0x00001b80      0x14c .\CortexM3\ARM_GCC_541\Debug\ext_pim.a(CyFlash.o)
                                0x309 (size before relaxing)
 .debug_str     0x00001ccc      0x7c6 .\CortexM3\ARM_GCC_541\Debug\ext_pim.a(CyLib.o)
                                0x9fd (size before relaxing)
 .debug_str     0x00002492      0x371 .\CortexM3\ARM_GCC_541\Debug\ext_pim.a(cyPm.o)
                                0x556 (size before relaxing)
 .debug_str     0x00002803      0x11f .\CortexM3\ARM_GCC_541\Debug\ext_pim.a(CySpc.o)
                                0x306 (size before relaxing)
 .debug_str     0x00002922      0x196 .\CortexM3\ARM_GCC_541\Debug\ext_pim.a(EZI2Cs.o)
                                0x35e (size before relaxing)
 .debug_str     0x00002ab8       0x65 .\CortexM3\ARM_GCC_541\Debug\ext_pim.a(EZI2Cs_PM.o)
                                0x259 (size before relaxing)
 .debug_str     0x00002b1d       0x41 .\CortexM3\ARM_GCC_541\Debug\ext_pim.a(EZI2Cs_INT.o)
                                0x25a (size before relaxing)
 .debug_str     0x00002b5e      0x1b1 .\CortexM3\ARM_GCC_541\Debug\ext_pim.a(Timeout_Timer.o)
                                0x388 (size before relaxing)
 .debug_str     0x00002d0f      0x1b5 .\CortexM3\ARM_GCC_541\Debug\ext_pim.a(Timeout_Timer_Isr.o)
                                0x47e (size before relaxing)
 .debug_str     0x00002ec4      0x162 .\CortexM3\ARM_GCC_541\Debug\ext_pim.a(Clock_5.o)
                                0x301 (size before relaxing)
 .debug_str     0x00003026      0x148 .\CortexM3\ARM_GCC_541\Debug\ext_pim.a(isr_F2F_edge.o)
                                0x42d (size before relaxing)
 .debug_str     0x0000316e       0x8e .\CortexM3\ARM_GCC_541\Debug\ext_pim.a(FilterReg.o)
                                0x23b (size before relaxing)
 .debug_str     0x000031fc       0x7e .\CortexM3\ARM_GCC_541\Debug\ext_pim.a(Mode_Sel_ACS.o)
                                0x218 (size before relaxing)
 .debug_str     0x0000327a       0x5b .\CortexM3\ARM_GCC_541\Debug\ext_pim.a(TX_EN.o)
                                0x1f5 (size before relaxing)
 .debug_str     0x000032d5       0x5b .\CortexM3\ARM_GCC_541\Debug\ext_pim.a(CR_DE.o)
                                0x1f5 (size before relaxing)
 .debug_str     0x00003330      0x152 .\CortexM3\ARM_GCC_541\Debug\ext_pim.a(Clock_6.o)
                                0x33c (size before relaxing)
 .debug_str     0x00003482       0x79 .\CortexM3\ARM_GCC_541\Debug\ext_pim.a(Mode_Sel_CR.o)
                                0x213 (size before relaxing)
 .debug_str     0x000034fb      0x156 .\CortexM3\ARM_GCC_541\Debug\ext_pim.a(isr_keepalive.o)
                                0x329 (size before relaxing)
 .debug_str     0x00003651      0x20a .\CortexM3\ARM_GCC_541\Debug\ext_pim.a(OSDPReaderTimer.o)
                                0x3d5 (size before relaxing)
 .debug_str     0x0000385b      0x137 .\CortexM3\ARM_GCC_541\Debug\ext_pim.a(isr_SW_Rst.o)
                                0x3fb (size before relaxing)
 .debug_str     0x00003992       0x65 .\CortexM3\ARM_GCC_541\Debug\ext_pim.a(LED_GRN.o)
                                0x1ff (size before relaxing)
 .debug_str     0x000039f7       0x65 .\CortexM3\ARM_GCC_541\Debug\ext_pim.a(LED_RED.o)
                                0x1ff (size before relaxing)
 .debug_str     0x00003a5c       0x65 .\CortexM3\ARM_GCC_541\Debug\ext_pim.a(LED_YEL.o)
                                0x1ff (size before relaxing)
 .debug_str     0x00003ac1      0x35a .\CortexM3\ARM_GCC_541\Debug\ext_pim.a(UART_ACS.o)
                                0x592 (size before relaxing)
 .debug_str     0x00003e1b       0x5b .\CortexM3\ARM_GCC_541\Debug\ext_pim.a(UART_ACS_INT.o)
                                0x285 (size before relaxing)
 .debug_str     0x00003e76      0x2fd .\CortexM3\ARM_GCC_541\Debug\ext_pim.a(UART_READER.o)
                                0x528 (size before relaxing)
 .debug_str     0x00004173      0x156 .\CortexM3\ARM_GCC_541\Debug\ext_pim.a(isr_READER_rx.o)
                                0x329 (size before relaxing)
 .debug_str     0x000042c9      0x1b0 .\CortexM3\ARM_GCC_541\Debug\ext_pim.a(Pulse_50us.o)
                                0x36e (size before relaxing)
 .debug_str     0x00004479       0xe5 .\CortexM3\ARM_GCC_541\Debug\ext_pim.a(Pulse_50us_PM.o)
                                0x27e (size before relaxing)
 .debug_str     0x0000455e      0x110 .\CortexM3\ARM_GCC_541\Debug\ext_pim.a(isr_50us.o)
                                0x2e3 (size before relaxing)
 .debug_str     0x0000466e       0x5b .\CortexM3\ARM_GCC_541\Debug\ext_pim.a(PS_D1.o)
                                0x1f5 (size before relaxing)
 .debug_str     0x000046c9       0x56 .\CortexM3\ARM_GCC_541\Debug\ext_pim.a(SF2F.o)
                                0x1f0 (size before relaxing)
 .debug_str     0x0000471f       0x65 .\CortexM3\ARM_GCC_541\Debug\ext_pim.a(POE_RST.o)
                                0x1ff (size before relaxing)
 .debug_str     0x00004784       0x79 .\CortexM3\ARM_GCC_541\Debug\ext_pim.a(POE_OIM_SDn.o)
                                0x213 (size before relaxing)
 .debug_str     0x000047fd      0x412 .\CortexM3\ARM_GCC_541\Debug\ext_pim.a(USBUART.o)
                                0x5fe (size before relaxing)
 .debug_str     0x00004c0f      0x4ac .\CortexM3\ARM_GCC_541\Debug\ext_pim.a(USBUART_cdc.o)
                                0x72d (size before relaxing)
 .debug_str     0x000050bb      0x296 .\CortexM3\ARM_GCC_541\Debug\ext_pim.a(USBUART_drv.o)
                                0x60d (size before relaxing)
 .debug_str     0x00005351       0x80 .\CortexM3\ARM_GCC_541\Debug\ext_pim.a(USBUART_episr.o)
                                0x2da (size before relaxing)
 .debug_str     0x000053d1       0xa0 .\CortexM3\ARM_GCC_541\Debug\ext_pim.a(USBUART_pm.o)
                                0x27e (size before relaxing)
 .debug_str     0x00005471      0x29a .\CortexM3\ARM_GCC_541\Debug\ext_pim.a(USBUART_std.o)
                                0x755 (size before relaxing)
 .debug_str     0x0000570b       0x3e .\CortexM3\ARM_GCC_541\Debug\ext_pim.a(USBUART_vnd.o)
                                0x200 (size before relaxing)
 .debug_str     0x00005749       0xb3 .\CortexM3\ARM_GCC_541\Debug\ext_pim.a(USBUART_Dp.o)
                                0x254 (size before relaxing)
 .debug_str     0x000057fc      0x133 .\CortexM3\ARM_GCC_541\Debug\ext_pim.a(isr_Sleep.o)
                                0x311 (size before relaxing)
 .debug_str     0x0000592f       0xc5 .\CortexM3\ARM_GCC_541\Debug\ext_pim.a(SleepTimer.o)
                                0x282 (size before relaxing)
 .debug_str     0x000059f4       0xd5 .\CortexM3\ARM_GCC_541\Debug\ext_pim.a(I2C_Master.o)
                                0x284 (size before relaxing)
 .debug_str     0x00005ac9       0xb0 .\CortexM3\ARM_GCC_541\Debug\ext_pim.a(I2C_Master_INT.o)
                                0x2b8 (size before relaxing)
 .debug_str     0x00005b79      0x1d2 .\CortexM3\ARM_GCC_541\Debug\ext_pim.a(I2C_Master_MASTER.o)
                                0x458 (size before relaxing)
 .debug_str     0x00005d4b       0x6a .\CortexM3\ARM_GCC_541\Debug\ext_pim.a(ST_LED_0.o)
                                0x204 (size before relaxing)
 .debug_str     0x00005db5       0x6a .\CortexM3\ARM_GCC_541\Debug\ext_pim.a(ST_LED_1.o)
                                0x204 (size before relaxing)
 .debug_str     0x00005e1f       0x6a .\CortexM3\ARM_GCC_541\Debug\ext_pim.a(ST_LED_2.o)
                                0x204 (size before relaxing)
 .debug_str     0x00005e89       0xe0 .\CortexM3\ARM_GCC_541\Debug\ext_pim.a(EEPROM.o)
                                0x2f7 (size before relaxing)
 .debug_str     0x00005f69      0x13f .\CortexM3\ARM_GCC_541\Debug\ext_pim.a(isr_WD_SYNC.o)
                                0x473 (size before relaxing)
 .debug_str     0x000060a8       0xbe .\CortexM3\ARM_GCC_541\Debug\ext_pim.a(Status_Reg_HwPort.o)
                                0x242 (size before relaxing)
 .debug_str     0x00006166       0x65 .\CortexM3\ARM_GCC_541\Debug\ext_pim.a(Pin_WD1.o)
                                0x1ff (size before relaxing)
 .debug_str     0x000061cb       0x82 .\CortexM3\ARM_GCC_541\Debug\ext_pim.a(FltrReg.o)
                                0x22f (size before relaxing)
 .debug_str     0x0000624d       0x3f .\CortexM3\ARM_GCC_541\Debug\ext_pim.a(USBUART_cls.o)
                                0x2a2 (size before relaxing)
 .debug_str     0x0000628c      0x104 .\CortexM3\ARM_GCC_541\Debug\ext_pim.a(USBUART_descr.o)
                                0x36c (size before relaxing)

.debug_loc
 *(.debug_loc)

.debug_macinfo
 *(.debug_macinfo)

.debug_ranges   0x00000000     0x1ae0
 *(.debug_ranges)
 .debug_ranges  0x00000000       0x18 .\CortexM3\ARM_GCC_541\Debug\main.o
 .debug_ranges  0x00000018       0x40 .\CortexM3\ARM_GCC_541\Debug\wiegand.o
 .debug_ranges  0x00000058       0x40 .\CortexM3\ARM_GCC_541\Debug\inout.o
 .debug_ranges  0x00000098       0x38 .\CortexM3\ARM_GCC_541\Debug\i2cuart.o
 .debug_ranges  0x000000d0       0x38 .\CortexM3\ARM_GCC_541\Debug\soft_uart.o
 .debug_ranges  0x00000108       0x98 .\CortexM3\ARM_GCC_541\Debug\osdp.o
 .debug_ranges  0x000001a0       0x40 .\CortexM3\ARM_GCC_541\Debug\toc.o
 .debug_ranges  0x000001e0       0x28 .\CortexM3\ARM_GCC_541\Debug\f2f.o
 .debug_ranges  0x00000208       0x70 .\CortexM3\ARM_GCC_541\Debug\commandhandler.o
 .debug_ranges  0x00000278       0x50 .\CortexM3\ARM_GCC_541\Debug\cyfitter_cfg.o
 .debug_ranges  0x000002c8       0x38 .\CortexM3\ARM_GCC_541\Debug\Cm3Start.o
 .debug_ranges  0x00000300       0x28 .\CortexM3\ARM_GCC_541\Debug\ext_pim.a(RELAY_B.o)
 .debug_ranges  0x00000328       0x28 .\CortexM3\ARM_GCC_541\Debug\ext_pim.a(SOUND_OUT.o)
 .debug_ranges  0x00000350       0x70 .\CortexM3\ARM_GCC_541\Debug\ext_pim.a(Tamper_Timer_ISR.o)
 .debug_ranges  0x000003c0       0x28 .\CortexM3\ARM_GCC_541\Debug\ext_pim.a(PS_D0.o)
 .debug_ranges  0x000003e8       0x28 .\CortexM3\ARM_GCC_541\Debug\ext_pim.a(Pin_WD0.o)
 .debug_ranges  0x00000410       0xe0 .\CortexM3\ARM_GCC_541\Debug\ext_pim.a(UART_1.o)
 .debug_ranges  0x000004f0       0x28 .\CortexM3\ARM_GCC_541\Debug\ext_pim.a(TAMPER_OUT.o)
 .debug_ranges  0x00000518       0x28 .\CortexM3\ARM_GCC_541\Debug\ext_pim.a(LEDG_OUT.o)
 .debug_ranges  0x00000540       0x28 .\CortexM3\ARM_GCC_541\Debug\ext_pim.a(LEDR_OUT.o)
 .debug_ranges  0x00000568       0x28 .\CortexM3\ARM_GCC_541\Debug\ext_pim.a(RELAY_A.o)
 .debug_ranges  0x00000590       0x18 .\CortexM3\ARM_GCC_541\Debug\ext_pim.a(OptSelect.o)
 .debug_ranges  0x000005a8       0x78 .\CortexM3\ARM_GCC_541\Debug\ext_pim.a(Tamper_Timer.o)
 .debug_ranges  0x00000620       0x80 .\CortexM3\ARM_GCC_541\Debug\ext_pim.a(UART_TIMER.o)
 .debug_ranges  0x000006a0       0x70 .\CortexM3\ARM_GCC_541\Debug\ext_pim.a(UART_TIMER_ISR.o)
 .debug_ranges  0x00000710       0x70 .\CortexM3\ARM_GCC_541\Debug\ext_pim.a(CyFlash.o)
 .debug_ranges  0x00000780      0x290 .\CortexM3\ARM_GCC_541\Debug\ext_pim.a(CyLib.o)
 .debug_ranges  0x00000a10       0x88 .\CortexM3\ARM_GCC_541\Debug\ext_pim.a(cyPm.o)
 .debug_ranges  0x00000a98       0x68 .\CortexM3\ARM_GCC_541\Debug\ext_pim.a(CySpc.o)
 .debug_ranges  0x00000b00       0x48 .\CortexM3\ARM_GCC_541\Debug\ext_pim.a(EZI2Cs.o)
 .debug_ranges  0x00000b48       0x28 .\CortexM3\ARM_GCC_541\Debug\ext_pim.a(EZI2Cs_PM.o)
 .debug_ranges  0x00000b70       0x10 .\CortexM3\ARM_GCC_541\Debug\ext_pim.a(EZI2Cs_INT.o)
 .debug_ranges  0x00000b80       0x78 .\CortexM3\ARM_GCC_541\Debug\ext_pim.a(Timeout_Timer.o)
 .debug_ranges  0x00000bf8       0x70 .\CortexM3\ARM_GCC_541\Debug\ext_pim.a(Timeout_Timer_Isr.o)
 .debug_ranges  0x00000c68       0x60 .\CortexM3\ARM_GCC_541\Debug\ext_pim.a(Clock_5.o)
 .debug_ranges  0x00000cc8       0x70 .\CortexM3\ARM_GCC_541\Debug\ext_pim.a(isr_F2F_edge.o)
 .debug_ranges  0x00000d38       0x30 .\CortexM3\ARM_GCC_541\Debug\ext_pim.a(FilterReg.o)
 .debug_ranges  0x00000d68       0x28 .\CortexM3\ARM_GCC_541\Debug\ext_pim.a(Mode_Sel_ACS.o)
 .debug_ranges  0x00000d90       0x28 .\CortexM3\ARM_GCC_541\Debug\ext_pim.a(TX_EN.o)
 .debug_ranges  0x00000db8       0x28 .\CortexM3\ARM_GCC_541\Debug\ext_pim.a(CR_DE.o)
 .debug_ranges  0x00000de0       0x70 .\CortexM3\ARM_GCC_541\Debug\ext_pim.a(Clock_6.o)
 .debug_ranges  0x00000e50       0x28 .\CortexM3\ARM_GCC_541\Debug\ext_pim.a(Mode_Sel_CR.o)
 .debug_ranges  0x00000e78       0x70 .\CortexM3\ARM_GCC_541\Debug\ext_pim.a(isr_keepalive.o)
 .debug_ranges  0x00000ee8       0x80 .\CortexM3\ARM_GCC_541\Debug\ext_pim.a(OSDPReaderTimer.o)
 .debug_ranges  0x00000f68       0x70 .\CortexM3\ARM_GCC_541\Debug\ext_pim.a(isr_SW_Rst.o)
 .debug_ranges  0x00000fd8       0x28 .\CortexM3\ARM_GCC_541\Debug\ext_pim.a(LED_GRN.o)
 .debug_ranges  0x00001000       0x28 .\CortexM3\ARM_GCC_541\Debug\ext_pim.a(LED_RED.o)
 .debug_ranges  0x00001028       0x28 .\CortexM3\ARM_GCC_541\Debug\ext_pim.a(LED_YEL.o)
 .debug_ranges  0x00001050       0xf0 .\CortexM3\ARM_GCC_541\Debug\ext_pim.a(UART_ACS.o)
 .debug_ranges  0x00001140       0x10 .\CortexM3\ARM_GCC_541\Debug\ext_pim.a(UART_ACS_INT.o)
 .debug_ranges  0x00001150       0xf0 .\CortexM3\ARM_GCC_541\Debug\ext_pim.a(UART_READER.o)
 .debug_ranges  0x00001240       0x70 .\CortexM3\ARM_GCC_541\Debug\ext_pim.a(isr_READER_rx.o)
 .debug_ranges  0x000012b0       0x80 .\CortexM3\ARM_GCC_541\Debug\ext_pim.a(Pulse_50us.o)
 .debug_ranges  0x00001330       0x28 .\CortexM3\ARM_GCC_541\Debug\ext_pim.a(Pulse_50us_PM.o)
 .debug_ranges  0x00001358       0x70 .\CortexM3\ARM_GCC_541\Debug\ext_pim.a(isr_50us.o)
 .debug_ranges  0x000013c8       0x28 .\CortexM3\ARM_GCC_541\Debug\ext_pim.a(PS_D1.o)
 .debug_ranges  0x000013f0       0x28 .\CortexM3\ARM_GCC_541\Debug\ext_pim.a(SF2F.o)
 .debug_ranges  0x00001418       0x28 .\CortexM3\ARM_GCC_541\Debug\ext_pim.a(POE_RST.o)
 .debug_ranges  0x00001440       0x28 .\CortexM3\ARM_GCC_541\Debug\ext_pim.a(POE_OIM_SDn.o)
 .debug_ranges  0x00001468       0xb8 .\CortexM3\ARM_GCC_541\Debug\ext_pim.a(USBUART.o)
 .debug_ranges  0x00001520       0xd8 .\CortexM3\ARM_GCC_541\Debug\ext_pim.a(USBUART_cdc.o)
 .debug_ranges  0x000015f8       0x88 .\CortexM3\ARM_GCC_541\Debug\ext_pim.a(USBUART_drv.o)
 .debug_ranges  0x00001680       0x30 .\CortexM3\ARM_GCC_541\Debug\ext_pim.a(USBUART_episr.o)
 .debug_ranges  0x000016b0       0x30 .\CortexM3\ARM_GCC_541\Debug\ext_pim.a(USBUART_pm.o)
 .debug_ranges  0x000016e0       0x70 .\CortexM3\ARM_GCC_541\Debug\ext_pim.a(USBUART_std.o)
 .debug_ranges  0x00001750       0x10 .\CortexM3\ARM_GCC_541\Debug\ext_pim.a(USBUART_vnd.o)
 .debug_ranges  0x00001760       0x38 .\CortexM3\ARM_GCC_541\Debug\ext_pim.a(USBUART_Dp.o)
 .debug_ranges  0x00001798       0x70 .\CortexM3\ARM_GCC_541\Debug\ext_pim.a(isr_Sleep.o)
 .debug_ranges  0x00001808       0x48 .\CortexM3\ARM_GCC_541\Debug\ext_pim.a(SleepTimer.o)
 .debug_ranges  0x00001850       0x28 .\CortexM3\ARM_GCC_541\Debug\ext_pim.a(I2C_Master.o)
 .debug_ranges  0x00001878       0x10 .\CortexM3\ARM_GCC_541\Debug\ext_pim.a(I2C_Master_INT.o)
 .debug_ranges  0x00001888       0x70 .\CortexM3\ARM_GCC_541\Debug\ext_pim.a(I2C_Master_MASTER.o)
 .debug_ranges  0x000018f8       0x28 .\CortexM3\ARM_GCC_541\Debug\ext_pim.a(ST_LED_0.o)
 .debug_ranges  0x00001920       0x28 .\CortexM3\ARM_GCC_541\Debug\ext_pim.a(ST_LED_1.o)
 .debug_ranges  0x00001948       0x28 .\CortexM3\ARM_GCC_541\Debug\ext_pim.a(ST_LED_2.o)
 .debug_ranges  0x00001970       0x68 .\CortexM3\ARM_GCC_541\Debug\ext_pim.a(EEPROM.o)
 .debug_ranges  0x000019d8       0x70 .\CortexM3\ARM_GCC_541\Debug\ext_pim.a(isr_WD_SYNC.o)
 .debug_ranges  0x00001a48       0x30 .\CortexM3\ARM_GCC_541\Debug\ext_pim.a(Status_Reg_HwPort.o)
 .debug_ranges  0x00001a78       0x28 .\CortexM3\ARM_GCC_541\Debug\ext_pim.a(Pin_WD1.o)
 .debug_ranges  0x00001aa0       0x30 .\CortexM3\ARM_GCC_541\Debug\ext_pim.a(FltrReg.o)
 .debug_ranges  0x00001ad0       0x10 .\CortexM3\ARM_GCC_541\Debug\ext_pim.a(USBUART_cls.o)

.comment        0x00000000       0x6e
 .comment       0x00000000       0x6e .\CortexM3\ARM_GCC_541\Debug\main.o
                                 0x6f (size before relaxing)
 .comment       0x0000006e       0x6f .\CortexM3\ARM_GCC_541\Debug\wiegand.o
 .comment       0x0000006e       0x6f .\CortexM3\ARM_GCC_541\Debug\power.o
 .comment       0x0000006e       0x6f .\CortexM3\ARM_GCC_541\Debug\inout.o
 .comment       0x0000006e       0x6f .\CortexM3\ARM_GCC_541\Debug\i2cuart.o
 .comment       0x0000006e       0x6f .\CortexM3\ARM_GCC_541\Debug\soft_uart.o
 .comment       0x0000006e       0x6f .\CortexM3\ARM_GCC_541\Debug\osdp.o
 .comment       0x0000006e       0x6f .\CortexM3\ARM_GCC_541\Debug\toc.o
 .comment       0x0000006e       0x6f .\CortexM3\ARM_GCC_541\Debug\f2f.o
 .comment       0x0000006e       0x6f .\CortexM3\ARM_GCC_541\Debug\rtc.o
 .comment       0x0000006e       0x6f .\CortexM3\ARM_GCC_541\Debug\commandhandler.o
 .comment       0x0000006e       0x6f .\CortexM3\ARM_GCC_541\Debug\handle_commands.o
 .comment       0x0000006e       0x6f .\CortexM3\ARM_GCC_541\Debug\cyfitter_cfg.o
 .comment       0x0000006e       0x6f .\CortexM3\ARM_GCC_541\Debug\cymetadata.o
 .comment       0x0000006e       0x6f .\CortexM3\ARM_GCC_541\Debug\Cm3Start.o
 .comment       0x0000006e       0x6f .\CortexM3\ARM_GCC_541\Debug\cybootloader.o
 .comment       0x0000006e       0x6f .\CortexM3\ARM_GCC_541\Debug\ext_pim.a(RELAY_B.o)
 .comment       0x0000006e       0x6f .\CortexM3\ARM_GCC_541\Debug\ext_pim.a(SOUND_OUT.o)
 .comment       0x0000006e       0x6f .\CortexM3\ARM_GCC_541\Debug\ext_pim.a(Tamper_Timer_ISR.o)
 .comment       0x0000006e       0x6f .\CortexM3\ARM_GCC_541\Debug\ext_pim.a(PS_D0.o)
 .comment       0x0000006e       0x6f .\CortexM3\ARM_GCC_541\Debug\ext_pim.a(Pin_WD0.o)
 .comment       0x0000006e       0x6f .\CortexM3\ARM_GCC_541\Debug\ext_pim.a(UART_1.o)
 .comment       0x0000006e       0x6f .\CortexM3\ARM_GCC_541\Debug\ext_pim.a(TAMPER_OUT.o)
 .comment       0x0000006e       0x6f .\CortexM3\ARM_GCC_541\Debug\ext_pim.a(LEDG_OUT.o)
 .comment       0x0000006e       0x6f .\CortexM3\ARM_GCC_541\Debug\ext_pim.a(LEDR_OUT.o)
 .comment       0x0000006e       0x6f .\CortexM3\ARM_GCC_541\Debug\ext_pim.a(RELAY_A.o)
 .comment       0x0000006e       0x6f .\CortexM3\ARM_GCC_541\Debug\ext_pim.a(OptSelect.o)
 .comment       0x0000006e       0x6f .\CortexM3\ARM_GCC_541\Debug\ext_pim.a(Tamper_Timer.o)
 .comment       0x0000006e       0x6f .\CortexM3\ARM_GCC_541\Debug\ext_pim.a(UART_TIMER.o)
 .comment       0x0000006e       0x6f .\CortexM3\ARM_GCC_541\Debug\ext_pim.a(UART_TIMER_ISR.o)
 .comment       0x0000006e       0x6f .\CortexM3\ARM_GCC_541\Debug\ext_pim.a(CyFlash.o)
 .comment       0x0000006e       0x6f .\CortexM3\ARM_GCC_541\Debug\ext_pim.a(CyLib.o)
 .comment       0x0000006e       0x6f .\CortexM3\ARM_GCC_541\Debug\ext_pim.a(cyPm.o)
 .comment       0x0000006e       0x6f .\CortexM3\ARM_GCC_541\Debug\ext_pim.a(CySpc.o)
 .comment       0x0000006e       0x6f .\CortexM3\ARM_GCC_541\Debug\ext_pim.a(EZI2Cs.o)
 .comment       0x0000006e       0x6f .\CortexM3\ARM_GCC_541\Debug\ext_pim.a(EZI2Cs_PM.o)
 .comment       0x0000006e       0x6f .\CortexM3\ARM_GCC_541\Debug\ext_pim.a(EZI2Cs_INT.o)
 .comment       0x0000006e       0x6f .\CortexM3\ARM_GCC_541\Debug\ext_pim.a(Timeout_Timer.o)
 .comment       0x0000006e       0x6f .\CortexM3\ARM_GCC_541\Debug\ext_pim.a(Timeout_Timer_Isr.o)
 .comment       0x0000006e       0x6f .\CortexM3\ARM_GCC_541\Debug\ext_pim.a(Clock_5.o)
 .comment       0x0000006e       0x6f .\CortexM3\ARM_GCC_541\Debug\ext_pim.a(isr_F2F_edge.o)
 .comment       0x0000006e       0x6f .\CortexM3\ARM_GCC_541\Debug\ext_pim.a(FilterReg.o)
 .comment       0x0000006e       0x6f .\CortexM3\ARM_GCC_541\Debug\ext_pim.a(Mode_Sel_ACS.o)
 .comment       0x0000006e       0x6f .\CortexM3\ARM_GCC_541\Debug\ext_pim.a(TX_EN.o)
 .comment       0x0000006e       0x6f .\CortexM3\ARM_GCC_541\Debug\ext_pim.a(CR_DE.o)
 .comment       0x0000006e       0x6f .\CortexM3\ARM_GCC_541\Debug\ext_pim.a(Clock_6.o)
 .comment       0x0000006e       0x6f .\CortexM3\ARM_GCC_541\Debug\ext_pim.a(Mode_Sel_CR.o)
 .comment       0x0000006e       0x6f .\CortexM3\ARM_GCC_541\Debug\ext_pim.a(isr_keepalive.o)
 .comment       0x0000006e       0x6f .\CortexM3\ARM_GCC_541\Debug\ext_pim.a(OSDPReaderTimer.o)
 .comment       0x0000006e       0x6f .\CortexM3\ARM_GCC_541\Debug\ext_pim.a(isr_SW_Rst.o)
 .comment       0x0000006e       0x6f .\CortexM3\ARM_GCC_541\Debug\ext_pim.a(LED_GRN.o)
 .comment       0x0000006e       0x6f .\CortexM3\ARM_GCC_541\Debug\ext_pim.a(LED_RED.o)
 .comment       0x0000006e       0x6f .\CortexM3\ARM_GCC_541\Debug\ext_pim.a(LED_YEL.o)
 .comment       0x0000006e       0x6f .\CortexM3\ARM_GCC_541\Debug\ext_pim.a(UART_ACS.o)
 .comment       0x0000006e       0x6f .\CortexM3\ARM_GCC_541\Debug\ext_pim.a(UART_ACS_INT.o)
 .comment       0x0000006e       0x6f .\CortexM3\ARM_GCC_541\Debug\ext_pim.a(UART_READER.o)
 .comment       0x0000006e       0x6f .\CortexM3\ARM_GCC_541\Debug\ext_pim.a(isr_READER_rx.o)
 .comment       0x0000006e       0x6f .\CortexM3\ARM_GCC_541\Debug\ext_pim.a(Pulse_50us.o)
 .comment       0x0000006e       0x6f .\CortexM3\ARM_GCC_541\Debug\ext_pim.a(Pulse_50us_PM.o)
 .comment       0x0000006e       0x6f .\CortexM3\ARM_GCC_541\Debug\ext_pim.a(isr_50us.o)
 .comment       0x0000006e       0x6f .\CortexM3\ARM_GCC_541\Debug\ext_pim.a(PS_D1.o)
 .comment       0x0000006e       0x6f .\CortexM3\ARM_GCC_541\Debug\ext_pim.a(SF2F.o)
 .comment       0x0000006e       0x6f .\CortexM3\ARM_GCC_541\Debug\ext_pim.a(POE_RST.o)
 .comment       0x0000006e       0x6f .\CortexM3\ARM_GCC_541\Debug\ext_pim.a(POE_OIM_SDn.o)
 .comment       0x0000006e       0x6f .\CortexM3\ARM_GCC_541\Debug\ext_pim.a(USBUART.o)
 .comment       0x0000006e       0x6f .\CortexM3\ARM_GCC_541\Debug\ext_pim.a(USBUART_cdc.o)
 .comment       0x0000006e       0x6f .\CortexM3\ARM_GCC_541\Debug\ext_pim.a(USBUART_drv.o)
 .comment       0x0000006e       0x6f .\CortexM3\ARM_GCC_541\Debug\ext_pim.a(USBUART_episr.o)
 .comment       0x0000006e       0x6f .\CortexM3\ARM_GCC_541\Debug\ext_pim.a(USBUART_pm.o)
 .comment       0x0000006e       0x6f .\CortexM3\ARM_GCC_541\Debug\ext_pim.a(USBUART_std.o)
 .comment       0x0000006e       0x6f .\CortexM3\ARM_GCC_541\Debug\ext_pim.a(USBUART_vnd.o)
 .comment       0x0000006e       0x6f .\CortexM3\ARM_GCC_541\Debug\ext_pim.a(USBUART_Dp.o)
 .comment       0x0000006e       0x6f .\CortexM3\ARM_GCC_541\Debug\ext_pim.a(isr_Sleep.o)
 .comment       0x0000006e       0x6f .\CortexM3\ARM_GCC_541\Debug\ext_pim.a(SleepTimer.o)
 .comment       0x0000006e       0x6f .\CortexM3\ARM_GCC_541\Debug\ext_pim.a(I2C_Master.o)
 .comment       0x0000006e       0x6f .\CortexM3\ARM_GCC_541\Debug\ext_pim.a(I2C_Master_INT.o)
 .comment       0x0000006e       0x6f .\CortexM3\ARM_GCC_541\Debug\ext_pim.a(I2C_Master_MASTER.o)
 .comment       0x0000006e       0x6f .\CortexM3\ARM_GCC_541\Debug\ext_pim.a(ST_LED_0.o)
 .comment       0x0000006e       0x6f .\CortexM3\ARM_GCC_541\Debug\ext_pim.a(ST_LED_1.o)
 .comment       0x0000006e       0x6f .\CortexM3\ARM_GCC_541\Debug\ext_pim.a(ST_LED_2.o)
 .comment       0x0000006e       0x6f .\CortexM3\ARM_GCC_541\Debug\ext_pim.a(EEPROM.o)
 .comment       0x0000006e       0x6f .\CortexM3\ARM_GCC_541\Debug\ext_pim.a(isr_WD_SYNC.o)
 .comment       0x0000006e       0x6f .\CortexM3\ARM_GCC_541\Debug\ext_pim.a(Status_Reg_HwPort.o)
 .comment       0x0000006e       0x6f .\CortexM3\ARM_GCC_541\Debug\ext_pim.a(Pin_WD1.o)
 .comment       0x0000006e       0x6f .\CortexM3\ARM_GCC_541\Debug\ext_pim.a(FltrReg.o)
 .comment       0x0000006e       0x6f .\CortexM3\ARM_GCC_541\Debug\ext_pim.a(USBUART_cls.o)
 .comment       0x0000006e       0x6f .\CortexM3\ARM_GCC_541\Debug\ext_pim.a(USBUART_descr.o)

.debug_weaknames
 *(.debug_weaknames)

.debug_funcnames
 *(.debug_funcnames)

.debug_typenames
 *(.debug_typenames)

.debug_varnames
 *(.debug_varnames)

.note.gnu.arm.ident
 *(.note.gnu.arm.ident)

.ARM.attributes
                0x00000000       0x29
 *(.ARM.attributes)
 .ARM.attributes
                0x00000000       0x1d c:/program files (x86)/cypress/psoc creator/4.2/psoc creator/import/gnu/arm/5.4.1/bin/../lib/gcc/arm-none-eabi/5.4.1/armv7-m/crti.o
 .ARM.attributes
                0x0000001d       0x2d c:/program files (x86)/cypress/psoc creator/4.2/psoc creator/import/gnu/arm/5.4.1/bin/../lib/gcc/arm-none-eabi/5.4.1/armv7-m/crtbegin.o
 .ARM.attributes
                0x0000004a       0x1b c:/program files (x86)/cypress/psoc creator/4.2/psoc creator/import/gnu/arm/5.4.1/bin/../lib/gcc/arm-none-eabi/5.4.1/../../../../arm-none-eabi/lib/armv7-m/crt0.o
 .ARM.attributes
                0x00000065       0x33 .\CortexM3\ARM_GCC_541\Debug\main.o
 .ARM.attributes
                0x00000098       0x33 .\CortexM3\ARM_GCC_541\Debug\wiegand.o
 .ARM.attributes
                0x000000cb       0x33 .\CortexM3\ARM_GCC_541\Debug\power.o
 .ARM.attributes
                0x000000fe       0x33 .\CortexM3\ARM_GCC_541\Debug\inout.o
 .ARM.attributes
                0x00000131       0x33 .\CortexM3\ARM_GCC_541\Debug\i2cuart.o
 .ARM.attributes
                0x00000164       0x33 .\CortexM3\ARM_GCC_541\Debug\soft_uart.o
 .ARM.attributes
                0x00000197       0x33 .\CortexM3\ARM_GCC_541\Debug\osdp.o
 .ARM.attributes
                0x000001ca       0x33 .\CortexM3\ARM_GCC_541\Debug\toc.o
 .ARM.attributes
                0x000001fd       0x33 .\CortexM3\ARM_GCC_541\Debug\f2f.o
 .ARM.attributes
                0x00000230       0x33 .\CortexM3\ARM_GCC_541\Debug\rtc.o
 .ARM.attributes
                0x00000263       0x33 .\CortexM3\ARM_GCC_541\Debug\commandhandler.o
 .ARM.attributes
                0x00000296       0x33 .\CortexM3\ARM_GCC_541\Debug\handle_commands.o
 .ARM.attributes
                0x000002c9       0x33 .\CortexM3\ARM_GCC_541\Debug\cyfitter_cfg.o
 .ARM.attributes
                0x000002fc       0x33 .\CortexM3\ARM_GCC_541\Debug\cymetadata.o
 .ARM.attributes
                0x0000032f       0x33 .\CortexM3\ARM_GCC_541\Debug\Cm3Start.o
 .ARM.attributes
                0x00000362       0x33 .\CortexM3\ARM_GCC_541\Debug\cybootloader.o
 .ARM.attributes
                0x00000395       0x33 .\CortexM3\ARM_GCC_541\Debug\ext_pim.a(RELAY_B.o)
 .ARM.attributes
                0x000003c8       0x33 .\CortexM3\ARM_GCC_541\Debug\ext_pim.a(SOUND_OUT.o)
 .ARM.attributes
                0x000003fb       0x33 .\CortexM3\ARM_GCC_541\Debug\ext_pim.a(Tamper_Timer_ISR.o)
 .ARM.attributes
                0x0000042e       0x33 .\CortexM3\ARM_GCC_541\Debug\ext_pim.a(PS_D0.o)
 .ARM.attributes
                0x00000461       0x33 .\CortexM3\ARM_GCC_541\Debug\ext_pim.a(Pin_WD0.o)
 .ARM.attributes
                0x00000494       0x33 .\CortexM3\ARM_GCC_541\Debug\ext_pim.a(UART_1.o)
 .ARM.attributes
                0x000004c7       0x33 .\CortexM3\ARM_GCC_541\Debug\ext_pim.a(TAMPER_OUT.o)
 .ARM.attributes
                0x000004fa       0x33 .\CortexM3\ARM_GCC_541\Debug\ext_pim.a(LEDG_OUT.o)
 .ARM.attributes
                0x0000052d       0x33 .\CortexM3\ARM_GCC_541\Debug\ext_pim.a(LEDR_OUT.o)
 .ARM.attributes
                0x00000560       0x33 .\CortexM3\ARM_GCC_541\Debug\ext_pim.a(RELAY_A.o)
 .ARM.attributes
                0x00000593       0x33 .\CortexM3\ARM_GCC_541\Debug\ext_pim.a(OptSelect.o)
 .ARM.attributes
                0x000005c6       0x33 .\CortexM3\ARM_GCC_541\Debug\ext_pim.a(Tamper_Timer.o)
 .ARM.attributes
                0x000005f9       0x33 .\CortexM3\ARM_GCC_541\Debug\ext_pim.a(UART_TIMER.o)
 .ARM.attributes
                0x0000062c       0x33 .\CortexM3\ARM_GCC_541\Debug\ext_pim.a(UART_TIMER_ISR.o)
 .ARM.attributes
                0x0000065f       0x33 .\CortexM3\ARM_GCC_541\Debug\ext_pim.a(CyFlash.o)
 .ARM.attributes
                0x00000692       0x33 .\CortexM3\ARM_GCC_541\Debug\ext_pim.a(CyLib.o)
 .ARM.attributes
                0x000006c5       0x33 .\CortexM3\ARM_GCC_541\Debug\ext_pim.a(cyPm.o)
 .ARM.attributes
                0x000006f8       0x33 .\CortexM3\ARM_GCC_541\Debug\ext_pim.a(CySpc.o)
 .ARM.attributes
                0x0000072b       0x33 .\CortexM3\ARM_GCC_541\Debug\ext_pim.a(EZI2Cs.o)
 .ARM.attributes
                0x0000075e       0x33 .\CortexM3\ARM_GCC_541\Debug\ext_pim.a(EZI2Cs_PM.o)
 .ARM.attributes
                0x00000791       0x33 .\CortexM3\ARM_GCC_541\Debug\ext_pim.a(EZI2Cs_INT.o)
 .ARM.attributes
                0x000007c4       0x33 .\CortexM3\ARM_GCC_541\Debug\ext_pim.a(Timeout_Timer.o)
 .ARM.attributes
                0x000007f7       0x33 .\CortexM3\ARM_GCC_541\Debug\ext_pim.a(Timeout_Timer_Isr.o)
 .ARM.attributes
                0x0000082a       0x33 .\CortexM3\ARM_GCC_541\Debug\ext_pim.a(Clock_5.o)
 .ARM.attributes
                0x0000085d       0x33 .\CortexM3\ARM_GCC_541\Debug\ext_pim.a(isr_F2F_edge.o)
 .ARM.attributes
                0x00000890       0x33 .\CortexM3\ARM_GCC_541\Debug\ext_pim.a(FilterReg.o)
 .ARM.attributes
                0x000008c3       0x33 .\CortexM3\ARM_GCC_541\Debug\ext_pim.a(Mode_Sel_ACS.o)
 .ARM.attributes
                0x000008f6       0x33 .\CortexM3\ARM_GCC_541\Debug\ext_pim.a(TX_EN.o)
 .ARM.attributes
                0x00000929       0x33 .\CortexM3\ARM_GCC_541\Debug\ext_pim.a(CR_DE.o)
 .ARM.attributes
                0x0000095c       0x33 .\CortexM3\ARM_GCC_541\Debug\ext_pim.a(Clock_6.o)
 .ARM.attributes
                0x0000098f       0x33 .\CortexM3\ARM_GCC_541\Debug\ext_pim.a(Mode_Sel_CR.o)
 .ARM.attributes
                0x000009c2       0x33 .\CortexM3\ARM_GCC_541\Debug\ext_pim.a(isr_keepalive.o)
 .ARM.attributes
                0x000009f5       0x33 .\CortexM3\ARM_GCC_541\Debug\ext_pim.a(OSDPReaderTimer.o)
 .ARM.attributes
                0x00000a28       0x33 .\CortexM3\ARM_GCC_541\Debug\ext_pim.a(isr_SW_Rst.o)
 .ARM.attributes
                0x00000a5b       0x33 .\CortexM3\ARM_GCC_541\Debug\ext_pim.a(LED_GRN.o)
 .ARM.attributes
                0x00000a8e       0x33 .\CortexM3\ARM_GCC_541\Debug\ext_pim.a(LED_RED.o)
 .ARM.attributes
                0x00000ac1       0x33 .\CortexM3\ARM_GCC_541\Debug\ext_pim.a(LED_YEL.o)
 .ARM.attributes
                0x00000af4       0x33 .\CortexM3\ARM_GCC_541\Debug\ext_pim.a(UART_ACS.o)
 .ARM.attributes
                0x00000b27       0x33 .\CortexM3\ARM_GCC_541\Debug\ext_pim.a(UART_ACS_INT.o)
 .ARM.attributes
                0x00000b5a       0x33 .\CortexM3\ARM_GCC_541\Debug\ext_pim.a(UART_READER.o)
 .ARM.attributes
                0x00000b8d       0x33 .\CortexM3\ARM_GCC_541\Debug\ext_pim.a(isr_READER_rx.o)
 .ARM.attributes
                0x00000bc0       0x33 .\CortexM3\ARM_GCC_541\Debug\ext_pim.a(Pulse_50us.o)
 .ARM.attributes
                0x00000bf3       0x33 .\CortexM3\ARM_GCC_541\Debug\ext_pim.a(Pulse_50us_PM.o)
 .ARM.attributes
                0x00000c26       0x33 .\CortexM3\ARM_GCC_541\Debug\ext_pim.a(isr_50us.o)
 .ARM.attributes
                0x00000c59       0x33 .\CortexM3\ARM_GCC_541\Debug\ext_pim.a(PS_D1.o)
 .ARM.attributes
                0x00000c8c       0x33 .\CortexM3\ARM_GCC_541\Debug\ext_pim.a(SF2F.o)
 .ARM.attributes
                0x00000cbf       0x33 .\CortexM3\ARM_GCC_541\Debug\ext_pim.a(POE_RST.o)
 .ARM.attributes
                0x00000cf2       0x33 .\CortexM3\ARM_GCC_541\Debug\ext_pim.a(POE_OIM_SDn.o)
 .ARM.attributes
                0x00000d25       0x33 .\CortexM3\ARM_GCC_541\Debug\ext_pim.a(USBUART.o)
 .ARM.attributes
                0x00000d58       0x33 .\CortexM3\ARM_GCC_541\Debug\ext_pim.a(USBUART_cdc.o)
 .ARM.attributes
                0x00000d8b       0x33 .\CortexM3\ARM_GCC_541\Debug\ext_pim.a(USBUART_drv.o)
 .ARM.attributes
                0x00000dbe       0x33 .\CortexM3\ARM_GCC_541\Debug\ext_pim.a(USBUART_episr.o)
 .ARM.attributes
                0x00000df1       0x33 .\CortexM3\ARM_GCC_541\Debug\ext_pim.a(USBUART_pm.o)
 .ARM.attributes
                0x00000e24       0x33 .\CortexM3\ARM_GCC_541\Debug\ext_pim.a(USBUART_std.o)
 .ARM.attributes
                0x00000e57       0x33 .\CortexM3\ARM_GCC_541\Debug\ext_pim.a(USBUART_vnd.o)
 .ARM.attributes
                0x00000e8a       0x33 .\CortexM3\ARM_GCC_541\Debug\ext_pim.a(USBUART_Dp.o)
 .ARM.attributes
                0x00000ebd       0x33 .\CortexM3\ARM_GCC_541\Debug\ext_pim.a(isr_Sleep.o)
 .ARM.attributes
                0x00000ef0       0x33 .\CortexM3\ARM_GCC_541\Debug\ext_pim.a(SleepTimer.o)
 .ARM.attributes
                0x00000f23       0x33 .\CortexM3\ARM_GCC_541\Debug\ext_pim.a(I2C_Master.o)
 .ARM.attributes
                0x00000f56       0x33 .\CortexM3\ARM_GCC_541\Debug\ext_pim.a(I2C_Master_INT.o)
 .ARM.attributes
                0x00000f89       0x33 .\CortexM3\ARM_GCC_541\Debug\ext_pim.a(I2C_Master_MASTER.o)
 .ARM.attributes
                0x00000fbc       0x33 .\CortexM3\ARM_GCC_541\Debug\ext_pim.a(ST_LED_0.o)
 .ARM.attributes
                0x00000fef       0x33 .\CortexM3\ARM_GCC_541\Debug\ext_pim.a(ST_LED_1.o)
 .ARM.attributes
                0x00001022       0x33 .\CortexM3\ARM_GCC_541\Debug\ext_pim.a(ST_LED_2.o)
 .ARM.attributes
                0x00001055       0x33 .\CortexM3\ARM_GCC_541\Debug\ext_pim.a(EEPROM.o)
 .ARM.attributes
                0x00001088       0x33 .\CortexM3\ARM_GCC_541\Debug\ext_pim.a(isr_WD_SYNC.o)
 .ARM.attributes
                0x000010bb       0x33 .\CortexM3\ARM_GCC_541\Debug\ext_pim.a(Status_Reg_HwPort.o)
 .ARM.attributes
                0x000010ee       0x21 .\CortexM3\ARM_GCC_541\Debug\ext_pim.a(CyBootAsmGnu.o)
 .ARM.attributes
                0x0000110f       0x33 .\CortexM3\ARM_GCC_541\Debug\ext_pim.a(Pin_WD1.o)
 .ARM.attributes
                0x00001142       0x33 .\CortexM3\ARM_GCC_541\Debug\ext_pim.a(FltrReg.o)
 .ARM.attributes
                0x00001175       0x33 .\CortexM3\ARM_GCC_541\Debug\ext_pim.a(USBUART_cls.o)
 .ARM.attributes
                0x000011a8       0x33 .\CortexM3\ARM_GCC_541\Debug\ext_pim.a(USBUART_descr.o)
 .ARM.attributes
                0x000011db       0x1d c:/program files (x86)/cypress/psoc creator/4.2/psoc creator/import/gnu/arm/5.4.1/bin/../lib/gcc/arm-none-eabi/5.4.1/armv7-m\libgcc.a(_arm_addsubdf3.o)
 .ARM.attributes
                0x000011f8       0x1d c:/program files (x86)/cypress/psoc creator/4.2/psoc creator/import/gnu/arm/5.4.1/bin/../lib/gcc/arm-none-eabi/5.4.1/armv7-m\libgcc.a(_arm_muldivdf3.o)
 .ARM.attributes
                0x00001215       0x1d c:/program files (x86)/cypress/psoc creator/4.2/psoc creator/import/gnu/arm/5.4.1/bin/../lib/gcc/arm-none-eabi/5.4.1/armv7-m\libgcc.a(_arm_fixdfsi.o)
 .ARM.attributes
                0x00001232       0x2d c:/program files (x86)/cypress/psoc creator/4.2/psoc creator/import/gnu/arm/5.4.1/bin/../lib/gcc/arm-none-eabi/5.4.1/../../../../arm-none-eabi/lib/armv7-m\libg_nano.a(lib_a-errno.o)
 .ARM.attributes
                0x0000125f       0x2d c:/program files (x86)/cypress/psoc creator/4.2/psoc creator/import/gnu/arm/5.4.1/bin/../lib/gcc/arm-none-eabi/5.4.1/../../../../arm-none-eabi/lib/armv7-m\libg_nano.a(lib_a-exit.o)
 .ARM.attributes
                0x0000128c       0x2d c:/program files (x86)/cypress/psoc creator/4.2/psoc creator/import/gnu/arm/5.4.1/bin/../lib/gcc/arm-none-eabi/5.4.1/../../../../arm-none-eabi/lib/armv7-m\libg_nano.a(lib_a-impure.o)
 .ARM.attributes
                0x000012b9       0x2d c:/program files (x86)/cypress/psoc creator/4.2/psoc creator/import/gnu/arm/5.4.1/bin/../lib/gcc/arm-none-eabi/5.4.1/../../../../arm-none-eabi/lib/armv7-m\libg_nano.a(lib_a-init.o)
 .ARM.attributes
                0x000012e6       0x2d c:/program files (x86)/cypress/psoc creator/4.2/psoc creator/import/gnu/arm/5.4.1/bin/../lib/gcc/arm-none-eabi/5.4.1/../../../../arm-none-eabi/lib/armv7-m\libg_nano.a(lib_a-memcpy-stub.o)
 .ARM.attributes
                0x00001313       0x2d c:/program files (x86)/cypress/psoc creator/4.2/psoc creator/import/gnu/arm/5.4.1/bin/../lib/gcc/arm-none-eabi/5.4.1/../../../../arm-none-eabi/lib/armv7-m\libg_nano.a(lib_a-memset.o)
 .ARM.attributes
                0x00001340       0x2d c:/program files (x86)/cypress/psoc creator/4.2/psoc creator/import/gnu/arm/5.4.1/bin/../lib/gcc/arm-none-eabi/5.4.1/armv7-m/crtend.o
 .ARM.attributes
                0x0000136d       0x1d c:/program files (x86)/cypress/psoc creator/4.2/psoc creator/import/gnu/arm/5.4.1/bin/../lib/gcc/arm-none-eabi/5.4.1/armv7-m/crtn.o

/DISCARD/
 *(.note.GNU-stack)
OUTPUT(D:\ext\psoc_dual\nanoNxt_ICM3\ext_pim.cydsn\CortexM3\ARM_GCC_541\Debug\ext_pim.elf elf32-littlearm)
