ARM GAS  C:\Users\ilya\AppData\Local\Temp\ccCLq5iI.s 			page 1


   1              		.syntax unified
   2              		.cpu cortex-m3
   3              		.fpu softvfp
   4              		.eabi_attribute 20, 1
   5              		.eabi_attribute 21, 1
   6              		.eabi_attribute 23, 3
   7              		.eabi_attribute 24, 1
   8              		.eabi_attribute 25, 1
   9              		.eabi_attribute 26, 1
  10              		.eabi_attribute 30, 6
  11              		.eabi_attribute 34, 1
  12              		.eabi_attribute 18, 4
  13              		.thumb
  14              		.syntax unified
  15              		.file	"EZI2Cs_PM.c"
  16              		.text
  17              	.Ltext0:
  18              		.cfi_sections	.debug_frame
  19              		.global	EZI2Cs_backup
  20              		.data
  21              		.align	2
  22              		.type	EZI2Cs_backup, %object
  23              		.size	EZI2Cs_backup, 6
  24              	EZI2Cs_backup:
  25 0000 00       		.byte	0
  26 0001 81       		.byte	-127
  27 0002 38       		.byte	56
  28 0003 01       		.byte	1
  29 0004 07       		.byte	7
  30 0005 00       		.byte	0
  31              		.section	.text.EZI2Cs_SaveConfig,"ax",%progbits
  32              		.align	2
  33              		.global	EZI2Cs_SaveConfig
  34              		.thumb
  35              		.thumb_func
  36              		.type	EZI2Cs_SaveConfig, %function
  37              	EZI2Cs_SaveConfig:
  38              	.LFB0:
  39              		.file 1 "Generated_Source\\PSoC5\\EZI2Cs_PM.c"
   1:Generated_Source\PSoC5/EZI2Cs_PM.c **** /*******************************************************************************
   2:Generated_Source\PSoC5/EZI2Cs_PM.c **** * File Name: EZI2Cs_PM.c
   3:Generated_Source\PSoC5/EZI2Cs_PM.c **** * Version 2.0
   4:Generated_Source\PSoC5/EZI2Cs_PM.c **** *
   5:Generated_Source\PSoC5/EZI2Cs_PM.c **** * Description:
   6:Generated_Source\PSoC5/EZI2Cs_PM.c **** *  This file contains the API for the proper switching to/from the low power
   7:Generated_Source\PSoC5/EZI2Cs_PM.c **** *  modes.
   8:Generated_Source\PSoC5/EZI2Cs_PM.c **** *
   9:Generated_Source\PSoC5/EZI2Cs_PM.c **** ********************************************************************************
  10:Generated_Source\PSoC5/EZI2Cs_PM.c **** * Copyright 2008-2015, Cypress Semiconductor Corporation.  All rights reserved.
  11:Generated_Source\PSoC5/EZI2Cs_PM.c **** * You may use this file only in accordance with the license, terms, conditions,
  12:Generated_Source\PSoC5/EZI2Cs_PM.c **** * disclaimers, and limitations in the end user license agreement accompanying
  13:Generated_Source\PSoC5/EZI2Cs_PM.c **** * the software package with which this file was provided.
  14:Generated_Source\PSoC5/EZI2Cs_PM.c **** *******************************************************************************/
  15:Generated_Source\PSoC5/EZI2Cs_PM.c **** 
  16:Generated_Source\PSoC5/EZI2Cs_PM.c **** #include "EZI2Cs_PVT.h"
  17:Generated_Source\PSoC5/EZI2Cs_PM.c **** 
  18:Generated_Source\PSoC5/EZI2Cs_PM.c **** EZI2Cs_BACKUP_STRUCT EZI2Cs_backup =
ARM GAS  C:\Users\ilya\AppData\Local\Temp\ccCLq5iI.s 			page 2


  19:Generated_Source\PSoC5/EZI2Cs_PM.c **** {
  20:Generated_Source\PSoC5/EZI2Cs_PM.c ****     EZI2Cs_DISABLED,
  21:Generated_Source\PSoC5/EZI2Cs_PM.c ****     EZI2Cs_DEFAULT_XCFG,
  22:Generated_Source\PSoC5/EZI2Cs_PM.c ****     EZI2Cs_DEFAULT_ADDR,
  23:Generated_Source\PSoC5/EZI2Cs_PM.c ****     EZI2Cs_DEFAULT_CFG,
  24:Generated_Source\PSoC5/EZI2Cs_PM.c ****     EZI2Cs_DEFAULT_CLKDIV1,
  25:Generated_Source\PSoC5/EZI2Cs_PM.c ****     EZI2Cs_DEFAULT_CLKDIV2
  26:Generated_Source\PSoC5/EZI2Cs_PM.c **** };
  27:Generated_Source\PSoC5/EZI2Cs_PM.c **** 
  28:Generated_Source\PSoC5/EZI2Cs_PM.c **** #if (EZI2Cs_WAKEUP_ENABLED)
  29:Generated_Source\PSoC5/EZI2Cs_PM.c ****     volatile uint8 EZI2Cs_wakeupSource;
  30:Generated_Source\PSoC5/EZI2Cs_PM.c **** #endif /* (EZI2Cs_WAKEUP_ENABLED) */
  31:Generated_Source\PSoC5/EZI2Cs_PM.c **** 
  32:Generated_Source\PSoC5/EZI2Cs_PM.c **** 
  33:Generated_Source\PSoC5/EZI2Cs_PM.c **** /*******************************************************************************
  34:Generated_Source\PSoC5/EZI2Cs_PM.c **** * Function Name: EZI2Cs_SaveConfig
  35:Generated_Source\PSoC5/EZI2Cs_PM.c **** ********************************************************************************
  36:Generated_Source\PSoC5/EZI2Cs_PM.c **** *
  37:Generated_Source\PSoC5/EZI2Cs_PM.c **** * Summary:
  38:Generated_Source\PSoC5/EZI2Cs_PM.c **** *  The Enable wakeup from Sleep Mode selection influences this function
  39:Generated_Source\PSoC5/EZI2Cs_PM.c **** *  implementation:
  40:Generated_Source\PSoC5/EZI2Cs_PM.c **** *   Unchecked: Stores the component non-retention configuration registers.
  41:Generated_Source\PSoC5/EZI2Cs_PM.c **** *   Checked:   Enables backup regulator of the I2C hardware. If a transaction
  42:Generated_Source\PSoC5/EZI2Cs_PM.c **** *              intended for component executes during this function call,
  43:Generated_Source\PSoC5/EZI2Cs_PM.c **** *              it waits until the current transaction is completed and
  44:Generated_Source\PSoC5/EZI2Cs_PM.c **** *              I2C hardware is ready to go to sleep mode. All subsequent
  45:Generated_Source\PSoC5/EZI2Cs_PM.c **** *              I2C traffic is NAKed until the device is put to sleep mode.
  46:Generated_Source\PSoC5/EZI2Cs_PM.c **** *
  47:Generated_Source\PSoC5/EZI2Cs_PM.c **** * Parameters:
  48:Generated_Source\PSoC5/EZI2Cs_PM.c **** *  None.
  49:Generated_Source\PSoC5/EZI2Cs_PM.c **** *
  50:Generated_Source\PSoC5/EZI2Cs_PM.c **** * Return:
  51:Generated_Source\PSoC5/EZI2Cs_PM.c **** *  None.
  52:Generated_Source\PSoC5/EZI2Cs_PM.c **** *
  53:Generated_Source\PSoC5/EZI2Cs_PM.c **** * Global variables:
  54:Generated_Source\PSoC5/EZI2Cs_PM.c **** *  EZI2Cs_backup - The non-retention registers are saved to.
  55:Generated_Source\PSoC5/EZI2Cs_PM.c **** *
  56:Generated_Source\PSoC5/EZI2Cs_PM.c **** * Reentrant:
  57:Generated_Source\PSoC5/EZI2Cs_PM.c **** *  No.
  58:Generated_Source\PSoC5/EZI2Cs_PM.c **** *
  59:Generated_Source\PSoC5/EZI2Cs_PM.c **** *******************************************************************************/
  60:Generated_Source\PSoC5/EZI2Cs_PM.c **** void EZI2Cs_SaveConfig(void) 
  61:Generated_Source\PSoC5/EZI2Cs_PM.c **** {
  40              		.loc 1 61 0
  41              		.cfi_startproc
  42              		@ args = 0, pretend = 0, frame = 0
  43              		@ frame_needed = 1, uses_anonymous_args = 0
  44              		@ link register save eliminated.
  45 0000 80B4     		push	{r7}
  46              		.cfi_def_cfa_offset 4
  47              		.cfi_offset 7, -4
  48 0002 00AF     		add	r7, sp, #0
  49              		.cfi_def_cfa_register 7
  62:Generated_Source\PSoC5/EZI2Cs_PM.c **** #if (EZI2Cs_WAKEUP_ENABLED)
  63:Generated_Source\PSoC5/EZI2Cs_PM.c ****     uint8 interruptState;
  64:Generated_Source\PSoC5/EZI2Cs_PM.c **** #endif /* (EZI2Cs_WAKEUP_ENABLED) */
  65:Generated_Source\PSoC5/EZI2Cs_PM.c **** 
ARM GAS  C:\Users\ilya\AppData\Local\Temp\ccCLq5iI.s 			page 3


  66:Generated_Source\PSoC5/EZI2Cs_PM.c ****     /* Store component configuration into backup structure */
  67:Generated_Source\PSoC5/EZI2Cs_PM.c ****     EZI2Cs_backup.cfg     = EZI2Cs_CFG_REG;
  50              		.loc 1 67 0
  51 0004 0E4B     		ldr	r3, .L2
  52 0006 1B78     		ldrb	r3, [r3]
  53 0008 DAB2     		uxtb	r2, r3
  54 000a 0E4B     		ldr	r3, .L2+4
  55 000c DA70     		strb	r2, [r3, #3]
  68:Generated_Source\PSoC5/EZI2Cs_PM.c ****     EZI2Cs_backup.xcfg    = EZI2Cs_XCFG_REG;
  56              		.loc 1 68 0
  57 000e 0E4B     		ldr	r3, .L2+8
  58 0010 1B78     		ldrb	r3, [r3]
  59 0012 DAB2     		uxtb	r2, r3
  60 0014 0B4B     		ldr	r3, .L2+4
  61 0016 5A70     		strb	r2, [r3, #1]
  69:Generated_Source\PSoC5/EZI2Cs_PM.c ****     EZI2Cs_backup.adr     = EZI2Cs_ADDR_REG;
  62              		.loc 1 69 0
  63 0018 0C4B     		ldr	r3, .L2+12
  64 001a 1B78     		ldrb	r3, [r3]
  65 001c DAB2     		uxtb	r2, r3
  66 001e 094B     		ldr	r3, .L2+4
  67 0020 9A70     		strb	r2, [r3, #2]
  70:Generated_Source\PSoC5/EZI2Cs_PM.c ****     EZI2Cs_backup.clkDiv1 = EZI2Cs_CLKDIV1_REG;
  68              		.loc 1 70 0
  69 0022 0B4B     		ldr	r3, .L2+16
  70 0024 1B78     		ldrb	r3, [r3]
  71 0026 DAB2     		uxtb	r2, r3
  72 0028 064B     		ldr	r3, .L2+4
  73 002a 1A71     		strb	r2, [r3, #4]
  71:Generated_Source\PSoC5/EZI2Cs_PM.c ****     EZI2Cs_backup.clkDiv2 = EZI2Cs_CLKDIV2_REG;
  74              		.loc 1 71 0
  75 002c 094B     		ldr	r3, .L2+20
  76 002e 1B78     		ldrb	r3, [r3]
  77 0030 DAB2     		uxtb	r2, r3
  78 0032 044B     		ldr	r3, .L2+4
  79 0034 5A71     		strb	r2, [r3, #5]
  72:Generated_Source\PSoC5/EZI2Cs_PM.c **** 
  73:Generated_Source\PSoC5/EZI2Cs_PM.c **** #if (EZI2Cs_WAKEUP_ENABLED)
  74:Generated_Source\PSoC5/EZI2Cs_PM.c ****     /* Enable I2C backup regulator */
  75:Generated_Source\PSoC5/EZI2Cs_PM.c ****     interruptState = CyEnterCriticalSection();
  76:Generated_Source\PSoC5/EZI2Cs_PM.c ****     EZI2Cs_PWRSYS_CR1_REG |= EZI2Cs_PWRSYS_CR1_I2C_BACKUP;
  77:Generated_Source\PSoC5/EZI2Cs_PM.c ****     CyExitCriticalSection(interruptState);
  78:Generated_Source\PSoC5/EZI2Cs_PM.c **** 
  79:Generated_Source\PSoC5/EZI2Cs_PM.c ****     /* Wait for completion of the current transaction. The following
  80:Generated_Source\PSoC5/EZI2Cs_PM.c ****     * transactions have to be NACKed until the device enters the low power mode.
  81:Generated_Source\PSoC5/EZI2Cs_PM.c ****     * After a wakeup, the force NACK bit is cleared automatically.
  82:Generated_Source\PSoC5/EZI2Cs_PM.c ****     */
  83:Generated_Source\PSoC5/EZI2Cs_PM.c ****     EZI2Cs_XCFG_REG |= EZI2Cs_XCFG_FORCE_NACK;
  84:Generated_Source\PSoC5/EZI2Cs_PM.c ****     while (0u == (EZI2Cs_XCFG_REG & EZI2Cs_XCFG_SLEEP_READY))
  85:Generated_Source\PSoC5/EZI2Cs_PM.c ****     {
  86:Generated_Source\PSoC5/EZI2Cs_PM.c ****     }
  87:Generated_Source\PSoC5/EZI2Cs_PM.c **** 
  88:Generated_Source\PSoC5/EZI2Cs_PM.c ****      /* Setup wakeup interrupt */
  89:Generated_Source\PSoC5/EZI2Cs_PM.c ****     EZI2Cs_DisableInt();
  90:Generated_Source\PSoC5/EZI2Cs_PM.c ****     EZI2Cs_wakeupSource = 0u; /* Clear wakeup event */
  91:Generated_Source\PSoC5/EZI2Cs_PM.c ****     (void) CyIntSetVector(EZI2Cs_ISR_NUMBER, &EZI2Cs_WAKEUP_ISR);
  92:Generated_Source\PSoC5/EZI2Cs_PM.c ****     EZI2Cs_EnableInt();
ARM GAS  C:\Users\ilya\AppData\Local\Temp\ccCLq5iI.s 			page 4


  93:Generated_Source\PSoC5/EZI2Cs_PM.c **** #endif /* (EZI2Cs_WAKEUP_ENABLED) */
  94:Generated_Source\PSoC5/EZI2Cs_PM.c **** }
  80              		.loc 1 94 0
  81 0036 00BF     		nop
  82 0038 BD46     		mov	sp, r7
  83              		.cfi_def_cfa_register 13
  84              		@ sp needed
  85 003a 80BC     		pop	{r7}
  86              		.cfi_restore 7
  87              		.cfi_def_cfa_offset 0
  88 003c 7047     		bx	lr
  89              	.L3:
  90 003e 00BF     		.align	2
  91              	.L2:
  92 0040 D6490040 		.word	1073760726
  93 0044 00000000 		.word	EZI2Cs_backup
  94 0048 C8490040 		.word	1073760712
  95 004c CA490040 		.word	1073760714
  96 0050 DB490040 		.word	1073760731
  97 0054 DC490040 		.word	1073760732
  98              		.cfi_endproc
  99              	.LFE0:
 100              		.size	EZI2Cs_SaveConfig, .-EZI2Cs_SaveConfig
 101              		.section	.text.EZI2Cs_RestoreConfig,"ax",%progbits
 102              		.align	2
 103              		.global	EZI2Cs_RestoreConfig
 104              		.thumb
 105              		.thumb_func
 106              		.type	EZI2Cs_RestoreConfig, %function
 107              	EZI2Cs_RestoreConfig:
 108              	.LFB1:
  95:Generated_Source\PSoC5/EZI2Cs_PM.c **** 
  96:Generated_Source\PSoC5/EZI2Cs_PM.c **** 
  97:Generated_Source\PSoC5/EZI2Cs_PM.c **** /*******************************************************************************
  98:Generated_Source\PSoC5/EZI2Cs_PM.c **** * Function Name: EZI2Cs_RestoreConfig
  99:Generated_Source\PSoC5/EZI2Cs_PM.c **** ********************************************************************************
 100:Generated_Source\PSoC5/EZI2Cs_PM.c **** *
 101:Generated_Source\PSoC5/EZI2Cs_PM.c **** * Summary:
 102:Generated_Source\PSoC5/EZI2Cs_PM.c **** *  The Enable wakeup from Sleep Mode selection influences this function
 103:Generated_Source\PSoC5/EZI2Cs_PM.c **** *  implementation:
 104:Generated_Source\PSoC5/EZI2Cs_PM.c **** *   Unchecked: Restores the component non-retention configuration registers
 105:Generated_Source\PSoC5/EZI2Cs_PM.c **** *              to the state they were in before I2C_Sleep() or I2C_SaveConfig()
 106:Generated_Source\PSoC5/EZI2Cs_PM.c **** *              was called.
 107:Generated_Source\PSoC5/EZI2Cs_PM.c **** *   Checked:   Disables the backup regulator of the I2C hardware. Sets up the
 108:Generated_Source\PSoC5/EZI2Cs_PM.c **** *              regular component interrupt handler and generates the component
 109:Generated_Source\PSoC5/EZI2Cs_PM.c **** *              interrupt if it was wake up source to release the bus and
 110:Generated_Source\PSoC5/EZI2Cs_PM.c **** *              continue in-coming I2C transaction.
 111:Generated_Source\PSoC5/EZI2Cs_PM.c **** *
 112:Generated_Source\PSoC5/EZI2Cs_PM.c **** * Parameters:
 113:Generated_Source\PSoC5/EZI2Cs_PM.c **** *  None.
 114:Generated_Source\PSoC5/EZI2Cs_PM.c **** *
 115:Generated_Source\PSoC5/EZI2Cs_PM.c **** * Return:
 116:Generated_Source\PSoC5/EZI2Cs_PM.c **** *  None.
 117:Generated_Source\PSoC5/EZI2Cs_PM.c **** *
 118:Generated_Source\PSoC5/EZI2Cs_PM.c **** * Global variables:
 119:Generated_Source\PSoC5/EZI2Cs_PM.c **** *  EZI2Cs_backup - the non-retention registers are restored from.
 120:Generated_Source\PSoC5/EZI2Cs_PM.c **** *
ARM GAS  C:\Users\ilya\AppData\Local\Temp\ccCLq5iI.s 			page 5


 121:Generated_Source\PSoC5/EZI2Cs_PM.c **** * Reentrant:
 122:Generated_Source\PSoC5/EZI2Cs_PM.c **** *  No.
 123:Generated_Source\PSoC5/EZI2Cs_PM.c **** *
 124:Generated_Source\PSoC5/EZI2Cs_PM.c **** * Side Effects:
 125:Generated_Source\PSoC5/EZI2Cs_PM.c **** *  Calling this function before EZI2Cs_SaveConfig() or
 126:Generated_Source\PSoC5/EZI2Cs_PM.c **** *  EZI2Cs_Sleep() may produce unexpected behavior.
 127:Generated_Source\PSoC5/EZI2Cs_PM.c **** *
 128:Generated_Source\PSoC5/EZI2Cs_PM.c **** *******************************************************************************/
 129:Generated_Source\PSoC5/EZI2Cs_PM.c **** void EZI2Cs_RestoreConfig(void) 
 130:Generated_Source\PSoC5/EZI2Cs_PM.c **** {
 109              		.loc 1 130 0
 110              		.cfi_startproc
 111              		@ args = 0, pretend = 0, frame = 8
 112              		@ frame_needed = 1, uses_anonymous_args = 0
 113 0000 80B5     		push	{r7, lr}
 114              		.cfi_def_cfa_offset 8
 115              		.cfi_offset 7, -8
 116              		.cfi_offset 14, -4
 117 0002 82B0     		sub	sp, sp, #8
 118              		.cfi_def_cfa_offset 16
 119 0004 00AF     		add	r7, sp, #0
 120              		.cfi_def_cfa_register 7
 131:Generated_Source\PSoC5/EZI2Cs_PM.c ****     uint8 intState;
 132:Generated_Source\PSoC5/EZI2Cs_PM.c **** 
 133:Generated_Source\PSoC5/EZI2Cs_PM.c ****     if (0u != (EZI2Cs_PWRSYS_CR1_I2C_BACKUP & EZI2Cs_PWRSYS_CR1_REG))
 121              		.loc 1 133 0
 122 0006 184B     		ldr	r3, .L8
 123 0008 1B78     		ldrb	r3, [r3]
 124 000a DBB2     		uxtb	r3, r3
 125 000c 03F00403 		and	r3, r3, #4
 126 0010 DBB2     		uxtb	r3, r3
 127 0012 002B     		cmp	r3, #0
 128 0014 10D0     		beq	.L5
 134:Generated_Source\PSoC5/EZI2Cs_PM.c ****     /* Exit from Sleep */
 135:Generated_Source\PSoC5/EZI2Cs_PM.c ****     {
 136:Generated_Source\PSoC5/EZI2Cs_PM.c ****         /* Disable I2C backup regulator */
 137:Generated_Source\PSoC5/EZI2Cs_PM.c ****         intState = CyEnterCriticalSection();
 129              		.loc 1 137 0
 130 0016 FFF7FEFF 		bl	CyEnterCriticalSection
 131 001a 0346     		mov	r3, r0
 132 001c FB71     		strb	r3, [r7, #7]
 138:Generated_Source\PSoC5/EZI2Cs_PM.c ****         EZI2Cs_PWRSYS_CR1_REG &= (uint8) ~EZI2Cs_PWRSYS_CR1_I2C_BACKUP;
 133              		.loc 1 138 0
 134 001e 124A     		ldr	r2, .L8
 135 0020 114B     		ldr	r3, .L8
 136 0022 1B78     		ldrb	r3, [r3]
 137 0024 DBB2     		uxtb	r3, r3
 138 0026 23F00403 		bic	r3, r3, #4
 139 002a DBB2     		uxtb	r3, r3
 140 002c 1370     		strb	r3, [r2]
 139:Generated_Source\PSoC5/EZI2Cs_PM.c ****         CyExitCriticalSection(intState);
 141              		.loc 1 139 0
 142 002e FB79     		ldrb	r3, [r7, #7]	@ zero_extendqisi2
 143 0030 1846     		mov	r0, r3
 144 0032 FFF7FEFF 		bl	CyExitCriticalSection
 140:Generated_Source\PSoC5/EZI2Cs_PM.c ****     }
 141:Generated_Source\PSoC5/EZI2Cs_PM.c ****     else /* Exit from Hibernate (bit is cleared) or wakeup disabled */
ARM GAS  C:\Users\ilya\AppData\Local\Temp\ccCLq5iI.s 			page 6


 142:Generated_Source\PSoC5/EZI2Cs_PM.c ****     {
 143:Generated_Source\PSoC5/EZI2Cs_PM.c ****     #if (EZI2Cs_WAKEUP_ENABLED)
 144:Generated_Source\PSoC5/EZI2Cs_PM.c ****         /* Disable power to I2C block before register restore */
 145:Generated_Source\PSoC5/EZI2Cs_PM.c ****         intState = CyEnterCriticalSection();
 146:Generated_Source\PSoC5/EZI2Cs_PM.c ****         EZI2Cs_PM_ACT_CFG_REG  &= (uint8) ~EZI2Cs_ACT_PWR_EN;
 147:Generated_Source\PSoC5/EZI2Cs_PM.c ****         EZI2Cs_PM_STBY_CFG_REG &= (uint8) ~EZI2Cs_STBY_PWR_EN;
 148:Generated_Source\PSoC5/EZI2Cs_PM.c ****         CyExitCriticalSection(intState);
 149:Generated_Source\PSoC5/EZI2Cs_PM.c **** 
 150:Generated_Source\PSoC5/EZI2Cs_PM.c ****         /* Enable component after restore complete */
 151:Generated_Source\PSoC5/EZI2Cs_PM.c ****         EZI2Cs_backup.enableState = EZI2Cs_ENABLED;
 152:Generated_Source\PSoC5/EZI2Cs_PM.c ****     #endif /* (EZI2Cs_WAKEUP_ENABLED) */
 153:Generated_Source\PSoC5/EZI2Cs_PM.c **** 
 154:Generated_Source\PSoC5/EZI2Cs_PM.c ****         /* Restore component registers: Hibernate disable power */
 155:Generated_Source\PSoC5/EZI2Cs_PM.c ****         EZI2Cs_CFG_REG     = EZI2Cs_backup.cfg;
 156:Generated_Source\PSoC5/EZI2Cs_PM.c ****         EZI2Cs_XCFG_REG    = EZI2Cs_backup.xcfg;
 157:Generated_Source\PSoC5/EZI2Cs_PM.c ****         EZI2Cs_ADDR_REG    = EZI2Cs_backup.adr;
 158:Generated_Source\PSoC5/EZI2Cs_PM.c ****         EZI2Cs_CLKDIV1_REG = EZI2Cs_backup.clkDiv1;
 159:Generated_Source\PSoC5/EZI2Cs_PM.c ****         EZI2Cs_CLKDIV2_REG = EZI2Cs_backup.clkDiv2;
 160:Generated_Source\PSoC5/EZI2Cs_PM.c ****     }
 161:Generated_Source\PSoC5/EZI2Cs_PM.c **** 
 162:Generated_Source\PSoC5/EZI2Cs_PM.c **** #if (EZI2Cs_WAKEUP_ENABLED)
 163:Generated_Source\PSoC5/EZI2Cs_PM.c ****     /* Set I2C interrupt to be pending if component is source of wake up */
 164:Generated_Source\PSoC5/EZI2Cs_PM.c ****     EZI2Cs_DisableInt();
 165:Generated_Source\PSoC5/EZI2Cs_PM.c ****     (void) CyIntSetVector(EZI2Cs_ISR_NUMBER, &EZI2Cs_ISR);
 166:Generated_Source\PSoC5/EZI2Cs_PM.c ****     if (0u != EZI2Cs_wakeupSource)
 167:Generated_Source\PSoC5/EZI2Cs_PM.c ****     {
 168:Generated_Source\PSoC5/EZI2Cs_PM.c ****         /* Generate interrupt to release I2C bus */
 169:Generated_Source\PSoC5/EZI2Cs_PM.c ****         (void) CyIntSetPending(EZI2Cs_ISR_NUMBER);
 170:Generated_Source\PSoC5/EZI2Cs_PM.c ****     }
 171:Generated_Source\PSoC5/EZI2Cs_PM.c ****     EZI2Cs_EnableInt();
 172:Generated_Source\PSoC5/EZI2Cs_PM.c **** #endif /* (EZI2Cs_WAKEUP_ENABLED) */
 173:Generated_Source\PSoC5/EZI2Cs_PM.c **** }
 145              		.loc 1 173 0
 146 0036 13E0     		b	.L7
 147              	.L5:
 155:Generated_Source\PSoC5/EZI2Cs_PM.c ****         EZI2Cs_XCFG_REG    = EZI2Cs_backup.xcfg;
 148              		.loc 1 155 0
 149 0038 0C4B     		ldr	r3, .L8+4
 150 003a 0D4A     		ldr	r2, .L8+8
 151 003c D278     		ldrb	r2, [r2, #3]	@ zero_extendqisi2
 152 003e 1A70     		strb	r2, [r3]
 156:Generated_Source\PSoC5/EZI2Cs_PM.c ****         EZI2Cs_ADDR_REG    = EZI2Cs_backup.adr;
 153              		.loc 1 156 0
 154 0040 0C4B     		ldr	r3, .L8+12
 155 0042 0B4A     		ldr	r2, .L8+8
 156 0044 5278     		ldrb	r2, [r2, #1]	@ zero_extendqisi2
 157 0046 1A70     		strb	r2, [r3]
 157:Generated_Source\PSoC5/EZI2Cs_PM.c ****         EZI2Cs_CLKDIV1_REG = EZI2Cs_backup.clkDiv1;
 158              		.loc 1 157 0
 159 0048 0B4B     		ldr	r3, .L8+16
 160 004a 094A     		ldr	r2, .L8+8
 161 004c 9278     		ldrb	r2, [r2, #2]	@ zero_extendqisi2
 162 004e 1A70     		strb	r2, [r3]
 158:Generated_Source\PSoC5/EZI2Cs_PM.c ****         EZI2Cs_CLKDIV2_REG = EZI2Cs_backup.clkDiv2;
 163              		.loc 1 158 0
 164 0050 0A4B     		ldr	r3, .L8+20
 165 0052 074A     		ldr	r2, .L8+8
ARM GAS  C:\Users\ilya\AppData\Local\Temp\ccCLq5iI.s 			page 7


 166 0054 1279     		ldrb	r2, [r2, #4]	@ zero_extendqisi2
 167 0056 1A70     		strb	r2, [r3]
 159:Generated_Source\PSoC5/EZI2Cs_PM.c ****     }
 168              		.loc 1 159 0
 169 0058 094B     		ldr	r3, .L8+24
 170 005a 054A     		ldr	r2, .L8+8
 171 005c 5279     		ldrb	r2, [r2, #5]	@ zero_extendqisi2
 172 005e 1A70     		strb	r2, [r3]
 173              	.L7:
 174              		.loc 1 173 0
 175 0060 00BF     		nop
 176 0062 0837     		adds	r7, r7, #8
 177              		.cfi_def_cfa_offset 8
 178 0064 BD46     		mov	sp, r7
 179              		.cfi_def_cfa_register 13
 180              		@ sp needed
 181 0066 80BD     		pop	{r7, pc}
 182              	.L9:
 183              		.align	2
 184              	.L8:
 185 0068 31430040 		.word	1073759025
 186 006c D6490040 		.word	1073760726
 187 0070 00000000 		.word	EZI2Cs_backup
 188 0074 C8490040 		.word	1073760712
 189 0078 CA490040 		.word	1073760714
 190 007c DB490040 		.word	1073760731
 191 0080 DC490040 		.word	1073760732
 192              		.cfi_endproc
 193              	.LFE1:
 194              		.size	EZI2Cs_RestoreConfig, .-EZI2Cs_RestoreConfig
 195              		.section	.text.EZI2Cs_Sleep,"ax",%progbits
 196              		.align	2
 197              		.global	EZI2Cs_Sleep
 198              		.thumb
 199              		.thumb_func
 200              		.type	EZI2Cs_Sleep, %function
 201              	EZI2Cs_Sleep:
 202              	.LFB2:
 174:Generated_Source\PSoC5/EZI2Cs_PM.c **** 
 175:Generated_Source\PSoC5/EZI2Cs_PM.c **** 
 176:Generated_Source\PSoC5/EZI2Cs_PM.c **** /*******************************************************************************
 177:Generated_Source\PSoC5/EZI2Cs_PM.c **** * Function Name: EZI2Cs_Sleep
 178:Generated_Source\PSoC5/EZI2Cs_PM.c **** ********************************************************************************
 179:Generated_Source\PSoC5/EZI2Cs_PM.c **** *
 180:Generated_Source\PSoC5/EZI2Cs_PM.c **** * Summary:
 181:Generated_Source\PSoC5/EZI2Cs_PM.c **** *  This is the preferred method to prepare the component before device enters
 182:Generated_Source\PSoC5/EZI2Cs_PM.c **** *  sleep mode.
 183:Generated_Source\PSoC5/EZI2Cs_PM.c **** *  The Enable wakeup from Sleep Mode selection influences this function
 184:Generated_Source\PSoC5/EZI2Cs_PM.c **** *  implementation:
 185:Generated_Source\PSoC5/EZI2Cs_PM.c **** *   Unchecked: Checks current EZI2C component state, saves it, and disables the
 186:Generated_Source\PSoC5/EZI2Cs_PM.c **** *              component by calling EZI2C_Stop() if it is currently enabled.
 187:Generated_Source\PSoC5/EZI2Cs_PM.c **** *              EZI2C_SaveConfig() is then called to save the component
 188:Generated_Source\PSoC5/EZI2Cs_PM.c **** *              non-retention configuration registers.
 189:Generated_Source\PSoC5/EZI2Cs_PM.c **** *   Checked:   If a transaction intended for component is in progress during
 190:Generated_Source\PSoC5/EZI2Cs_PM.c **** *              this function call, it waits until the current transaction is
 191:Generated_Source\PSoC5/EZI2Cs_PM.c **** *              completed. All subsequent I2C traffic intended for component is
 192:Generated_Source\PSoC5/EZI2Cs_PM.c **** *              NAKed until the device is put to sleep mode. The address match
ARM GAS  C:\Users\ilya\AppData\Local\Temp\ccCLq5iI.s 			page 8


 193:Generated_Source\PSoC5/EZI2Cs_PM.c **** *              event wakes up the device.
 194:Generated_Source\PSoC5/EZI2Cs_PM.c **** *
 195:Generated_Source\PSoC5/EZI2Cs_PM.c **** *  Call the EZI2C_Sleep() function before calling the CyPmSleep() or the
 196:Generated_Source\PSoC5/EZI2Cs_PM.c **** *  CyPmHibernate() function. Refer to the PSoC Creator System Reference Guide
 197:Generated_Source\PSoC5/EZI2Cs_PM.c **** *  for more information about power-management functions.
 198:Generated_Source\PSoC5/EZI2Cs_PM.c **** *
 199:Generated_Source\PSoC5/EZI2Cs_PM.c **** * Parameters:
 200:Generated_Source\PSoC5/EZI2Cs_PM.c **** *  None.
 201:Generated_Source\PSoC5/EZI2Cs_PM.c **** *
 202:Generated_Source\PSoC5/EZI2Cs_PM.c **** * Return:
 203:Generated_Source\PSoC5/EZI2Cs_PM.c **** *  None.
 204:Generated_Source\PSoC5/EZI2Cs_PM.c **** *
 205:Generated_Source\PSoC5/EZI2Cs_PM.c **** * Global variables:
 206:Generated_Source\PSoC5/EZI2Cs_PM.c **** *  EZI2Cs_backup - The non retention registers are saved to. Changed
 207:Generated_Source\PSoC5/EZI2Cs_PM.c **** *  by EZI2Cs_SaveConfig() function call.
 208:Generated_Source\PSoC5/EZI2Cs_PM.c **** *
 209:Generated_Source\PSoC5/EZI2Cs_PM.c **** * Reentrant:
 210:Generated_Source\PSoC5/EZI2Cs_PM.c **** *  No.
 211:Generated_Source\PSoC5/EZI2Cs_PM.c **** *
 212:Generated_Source\PSoC5/EZI2Cs_PM.c **** *******************************************************************************/
 213:Generated_Source\PSoC5/EZI2Cs_PM.c **** void EZI2Cs_Sleep(void) 
 214:Generated_Source\PSoC5/EZI2Cs_PM.c **** {
 203              		.loc 1 214 0
 204              		.cfi_startproc
 205              		@ args = 0, pretend = 0, frame = 0
 206              		@ frame_needed = 1, uses_anonymous_args = 0
 207 0000 80B5     		push	{r7, lr}
 208              		.cfi_def_cfa_offset 8
 209              		.cfi_offset 7, -8
 210              		.cfi_offset 14, -4
 211 0002 00AF     		add	r7, sp, #0
 212              		.cfi_def_cfa_register 7
 215:Generated_Source\PSoC5/EZI2Cs_PM.c **** #if (EZI2Cs_WAKEUP_ENABLED)
 216:Generated_Source\PSoC5/EZI2Cs_PM.c ****     /* Do not re-enable component in EZI2Cs_Wakeup(). It remains enabled as it is wakeup source */
 217:Generated_Source\PSoC5/EZI2Cs_PM.c ****     EZI2Cs_backup.enableState = EZI2Cs_DISABLED;
 218:Generated_Source\PSoC5/EZI2Cs_PM.c **** #else
 219:Generated_Source\PSoC5/EZI2Cs_PM.c ****     /* Store component state enabled or disable to restore after wakeup */
 220:Generated_Source\PSoC5/EZI2Cs_PM.c ****     EZI2Cs_backup.enableState = (EZI2Cs_PM_ACT_CFG_REG & EZI2Cs_ACT_PWR_EN);
 213              		.loc 1 220 0
 214 0004 084B     		ldr	r3, .L12
 215 0006 1B78     		ldrb	r3, [r3]
 216 0008 DBB2     		uxtb	r3, r3
 217 000a 03F00403 		and	r3, r3, #4
 218 000e DAB2     		uxtb	r2, r3
 219 0010 064B     		ldr	r3, .L12+4
 220 0012 1A70     		strb	r2, [r3]
 221:Generated_Source\PSoC5/EZI2Cs_PM.c **** 
 222:Generated_Source\PSoC5/EZI2Cs_PM.c ****     if (0u != EZI2Cs_backup.enableState)
 221              		.loc 1 222 0
 222 0014 054B     		ldr	r3, .L12+4
 223 0016 1B78     		ldrb	r3, [r3]	@ zero_extendqisi2
 224 0018 002B     		cmp	r3, #0
 225 001a 01D0     		beq	.L11
 223:Generated_Source\PSoC5/EZI2Cs_PM.c ****     {
 224:Generated_Source\PSoC5/EZI2Cs_PM.c ****         /* Disable component before enter Sleep */
 225:Generated_Source\PSoC5/EZI2Cs_PM.c ****         EZI2Cs_Stop();
 226              		.loc 1 225 0
ARM GAS  C:\Users\ilya\AppData\Local\Temp\ccCLq5iI.s 			page 9


 227 001c FFF7FEFF 		bl	EZI2Cs_Stop
 228              	.L11:
 226:Generated_Source\PSoC5/EZI2Cs_PM.c ****     }
 227:Generated_Source\PSoC5/EZI2Cs_PM.c **** #endif /* (EZI2Cs_WAKEUP_ENABLED) */
 228:Generated_Source\PSoC5/EZI2Cs_PM.c **** 
 229:Generated_Source\PSoC5/EZI2Cs_PM.c ****     EZI2Cs_SaveConfig();
 229              		.loc 1 229 0
 230 0020 FFF7FEFF 		bl	EZI2Cs_SaveConfig
 230:Generated_Source\PSoC5/EZI2Cs_PM.c **** }
 231              		.loc 1 230 0
 232 0024 00BF     		nop
 233 0026 80BD     		pop	{r7, pc}
 234              	.L13:
 235              		.align	2
 236              	.L12:
 237 0028 A5430040 		.word	1073759141
 238 002c 00000000 		.word	EZI2Cs_backup
 239              		.cfi_endproc
 240              	.LFE2:
 241              		.size	EZI2Cs_Sleep, .-EZI2Cs_Sleep
 242              		.section	.text.EZI2Cs_Wakeup,"ax",%progbits
 243              		.align	2
 244              		.global	EZI2Cs_Wakeup
 245              		.thumb
 246              		.thumb_func
 247              		.type	EZI2Cs_Wakeup, %function
 248              	EZI2Cs_Wakeup:
 249              	.LFB3:
 231:Generated_Source\PSoC5/EZI2Cs_PM.c **** 
 232:Generated_Source\PSoC5/EZI2Cs_PM.c **** 
 233:Generated_Source\PSoC5/EZI2Cs_PM.c **** /*******************************************************************************
 234:Generated_Source\PSoC5/EZI2Cs_PM.c **** * Function Name: EZI2Cs_Wakeup
 235:Generated_Source\PSoC5/EZI2Cs_PM.c **** ********************************************************************************
 236:Generated_Source\PSoC5/EZI2Cs_PM.c **** *
 237:Generated_Source\PSoC5/EZI2Cs_PM.c **** * Summary:
 238:Generated_Source\PSoC5/EZI2Cs_PM.c **** *  This is the preferred method to prepare the component for active mode
 239:Generated_Source\PSoC5/EZI2Cs_PM.c **** *  operation (when device exits sleep mode).
 240:Generated_Source\PSoC5/EZI2Cs_PM.c **** *  The Enable wakeup from Sleep Mode selection influences this function
 241:Generated_Source\PSoC5/EZI2Cs_PM.c **** *  implementation:
 242:Generated_Source\PSoC5/EZI2Cs_PM.c **** *   Unchecked: Restores the component non-retention configuration registers
 243:Generated_Source\PSoC5/EZI2Cs_PM.c **** *              by calling EZI2C_RestoreConfig(). If the component was enabled
 244:Generated_Source\PSoC5/EZI2Cs_PM.c **** *              before the EZI2C_Sleep() function was called, EZI2C_Wakeup()
 245:Generated_Source\PSoC5/EZI2Cs_PM.c **** *              re-enables it.
 246:Generated_Source\PSoC5/EZI2Cs_PM.c **** *   Checked:   Disables the backup regulator of I2C hardware. The incoming
 247:Generated_Source\PSoC5/EZI2Cs_PM.c **** *              transaction continues as soon as the regular EZI2C interrupt
 248:Generated_Source\PSoC5/EZI2Cs_PM.c **** *              handler is set up (global interrupts has to be  enabled to
 249:Generated_Source\PSoC5/EZI2Cs_PM.c **** *              service EZI2C component interrupt).
 250:Generated_Source\PSoC5/EZI2Cs_PM.c **** *
 251:Generated_Source\PSoC5/EZI2Cs_PM.c **** * Parameters:
 252:Generated_Source\PSoC5/EZI2Cs_PM.c **** *  None.
 253:Generated_Source\PSoC5/EZI2Cs_PM.c **** *
 254:Generated_Source\PSoC5/EZI2Cs_PM.c **** * Return:
 255:Generated_Source\PSoC5/EZI2Cs_PM.c **** *  None.
 256:Generated_Source\PSoC5/EZI2Cs_PM.c **** *
 257:Generated_Source\PSoC5/EZI2Cs_PM.c **** * Global variables:
 258:Generated_Source\PSoC5/EZI2Cs_PM.c **** *  EZI2Cs_backup - The non retention registers are restored from.
 259:Generated_Source\PSoC5/EZI2Cs_PM.c **** *
ARM GAS  C:\Users\ilya\AppData\Local\Temp\ccCLq5iI.s 			page 10


 260:Generated_Source\PSoC5/EZI2Cs_PM.c **** * Reentrant:
 261:Generated_Source\PSoC5/EZI2Cs_PM.c **** *  No.
 262:Generated_Source\PSoC5/EZI2Cs_PM.c **** *
 263:Generated_Source\PSoC5/EZI2Cs_PM.c **** * Side Effects:
 264:Generated_Source\PSoC5/EZI2Cs_PM.c **** *  Calling this function before EZI2Cs_SaveConfig() or
 265:Generated_Source\PSoC5/EZI2Cs_PM.c **** *  EZI2Cs_Sleep() will lead to unpredictable results.
 266:Generated_Source\PSoC5/EZI2Cs_PM.c **** *
 267:Generated_Source\PSoC5/EZI2Cs_PM.c **** *******************************************************************************/
 268:Generated_Source\PSoC5/EZI2Cs_PM.c **** void EZI2Cs_Wakeup(void) 
 269:Generated_Source\PSoC5/EZI2Cs_PM.c **** {
 250              		.loc 1 269 0
 251              		.cfi_startproc
 252              		@ args = 0, pretend = 0, frame = 0
 253              		@ frame_needed = 1, uses_anonymous_args = 0
 254 0000 80B5     		push	{r7, lr}
 255              		.cfi_def_cfa_offset 8
 256              		.cfi_offset 7, -8
 257              		.cfi_offset 14, -4
 258 0002 00AF     		add	r7, sp, #0
 259              		.cfi_def_cfa_register 7
 270:Generated_Source\PSoC5/EZI2Cs_PM.c ****     EZI2Cs_RestoreConfig();
 260              		.loc 1 270 0
 261 0004 FFF7FEFF 		bl	EZI2Cs_RestoreConfig
 271:Generated_Source\PSoC5/EZI2Cs_PM.c **** 
 272:Generated_Source\PSoC5/EZI2Cs_PM.c ****     if (0u != EZI2Cs_backup.enableState)
 262              		.loc 1 272 0
 263 0008 034B     		ldr	r3, .L17
 264 000a 1B78     		ldrb	r3, [r3]	@ zero_extendqisi2
 265 000c 002B     		cmp	r3, #0
 266 000e 01D0     		beq	.L16
 273:Generated_Source\PSoC5/EZI2Cs_PM.c ****     {
 274:Generated_Source\PSoC5/EZI2Cs_PM.c ****         /* Enable component as it was enabled before Sleep */
 275:Generated_Source\PSoC5/EZI2Cs_PM.c ****         EZI2Cs_Enable();
 267              		.loc 1 275 0
 268 0010 FFF7FEFF 		bl	EZI2Cs_Enable
 269              	.L16:
 276:Generated_Source\PSoC5/EZI2Cs_PM.c ****     }
 277:Generated_Source\PSoC5/EZI2Cs_PM.c **** }
 270              		.loc 1 277 0
 271 0014 00BF     		nop
 272 0016 80BD     		pop	{r7, pc}
 273              	.L18:
 274              		.align	2
 275              	.L17:
 276 0018 00000000 		.word	EZI2Cs_backup
 277              		.cfi_endproc
 278              	.LFE3:
 279              		.size	EZI2Cs_Wakeup, .-EZI2Cs_Wakeup
 280              		.text
 281              	.Letext0:
 282              		.file 2 "Generated_Source\\PSoC5\\cytypes.h"
 283              		.file 3 "Generated_Source\\PSoC5\\EZI2Cs.h"