ARM GAS  C:\Users\Rajesh\AppData\Local\Temp\ccNpFtMg.s 			page 1


   1              		.syntax unified
   2              		.cpu cortex-m3
   3              		.fpu softvfp
   4              		.eabi_attribute 20, 1
   5              		.eabi_attribute 21, 1
   6              		.eabi_attribute 23, 3
   7              		.eabi_attribute 24, 1
   8              		.eabi_attribute 25, 1
   9              		.eabi_attribute 26, 1
  10              		.eabi_attribute 30, 6
  11              		.eabi_attribute 34, 1
  12              		.eabi_attribute 18, 4
  13              		.thumb
  14              		.syntax unified
  15              		.file	"i2cuart.c"
  16              		.text
  17              	.Ltext0:
  18              		.cfi_sections	.debug_frame
  19              		.comm	s,40,4
  20              		.comm	currentAccessType,1,1
  21              		.comm	hw_old,1,1
  22              		.comm	tp_old,1,1
  23              		.comm	tamperCR_polarity,4,4
  24              		.comm	tamper_out_polarity,4,4
  25              		.comm	card_ack,4,4
  26              		.comm	card_in_buf,4,4
  27              		.comm	osdp_timeout,4,4
  28              		.section	.text.initI2C,"ax",%progbits
  29              		.align	2
  30              		.global	initI2C
  31              		.thumb
  32              		.thumb_func
  33              		.type	initI2C, %function
  34              	initI2C:
  35              	.LFB63:
  36              		.file 1 "i2cuart.c"
   1:i2cuart.c     **** /* =======================================
   2:i2cuart.c     ****  *
   3:i2cuart.c     ****  * Copyright YOUR COMPANY, THE YEAR
   4:i2cuart.c     ****  * All Rights Reserved
   5:i2cuart.c     ****  * UNPUBLISHED, LICENSED SOFTWARE.
   6:i2cuart.c     ****  *
   7:i2cuart.c     ****  * CONFIDENTIAL AND PROPRIETARY INFORMATION
   8:i2cuart.c     ****  * WHICH IS THE PROPERTY OF your company.
   9:i2cuart.c     ****  *
  10:i2cuart.c     ****  * ========================================
  11:i2cuart.c     **** */
  12:i2cuart.c     **** 
  13:i2cuart.c     **** 
  14:i2cuart.c     **** #include <project.h>
  15:i2cuart.c     **** #include "system.h"
  16:i2cuart.c     **** #include "LED_0.h"
  17:i2cuart.c     **** #include "LED_1.h"
  18:i2cuart.c     **** #include "LED_2.h"
  19:i2cuart.c     **** #include "i2cuart.h"
  20:i2cuart.c     **** #include "osdp.h"
  21:i2cuart.c     **** 
ARM GAS  C:\Users\Rajesh\AppData\Local\Temp\ccNpFtMg.s 			page 2


  22:i2cuart.c     **** 
  23:i2cuart.c     **** void initI2C(){
  37              		.loc 1 23 0
  38              		.cfi_startproc
  39              		@ args = 0, pretend = 0, frame = 0
  40              		@ frame_needed = 1, uses_anonymous_args = 0
  41 0000 80B5     		push	{r7, lr}
  42              		.cfi_def_cfa_offset 8
  43              		.cfi_offset 7, -8
  44              		.cfi_offset 14, -4
  45 0002 00AF     		add	r7, sp, #0
  46              		.cfi_def_cfa_register 7
  24:i2cuart.c     ****     	/* Starting EZI2C */
  25:i2cuart.c     ****     ClearBufferI2C();
  47              		.loc 1 25 0
  48 0004 FFF7FEFF 		bl	ClearBufferI2C
  26:i2cuart.c     **** 	EZI2Cs_Start();
  49              		.loc 1 26 0
  50 0008 FFF7FEFF 		bl	EZI2Cs_Start
  27:i2cuart.c     ****     EZI2Cs_SetBuffer1(sizeof(MyI2C_Regs), sizeof(MyI2C_Regs), (volatile uint8 *) &MyI2C_Regs );
  51              		.loc 1 27 0
  52 000c 044A     		ldr	r2, .L2
  53 000e 4FF4EE71 		mov	r1, #476
  54 0012 4FF4EE70 		mov	r0, #476
  55 0016 FFF7FEFF 		bl	EZI2Cs_SetBuffer1
  28:i2cuart.c     ****  
  29:i2cuart.c     **** }
  56              		.loc 1 29 0
  57 001a 00BF     		nop
  58 001c 80BD     		pop	{r7, pc}
  59              	.L3:
  60 001e 00BF     		.align	2
  61              	.L2:
  62 0020 00000000 		.word	MyI2C_Regs
  63              		.cfi_endproc
  64              	.LFE63:
  65              		.size	initI2C, .-initI2C
  66              		.section	.text.ClearBufferI2C,"ax",%progbits
  67              		.align	2
  68              		.global	ClearBufferI2C
  69              		.thumb
  70              		.thumb_func
  71              		.type	ClearBufferI2C, %function
  72              	ClearBufferI2C:
  73              	.LFB64:
  30:i2cuart.c     **** void ClearBufferI2C(){
  74              		.loc 1 30 0
  75              		.cfi_startproc
  76              		@ args = 0, pretend = 0, frame = 0
  77              		@ frame_needed = 1, uses_anonymous_args = 0
  78 0000 80B5     		push	{r7, lr}
  79              		.cfi_def_cfa_offset 8
  80              		.cfi_offset 7, -8
  81              		.cfi_offset 14, -4
  82 0002 00AF     		add	r7, sp, #0
  83              		.cfi_def_cfa_register 7
  31:i2cuart.c     ****    memset(&MyI2C_Regs, 0, sizeof(MyI2C_Regs));
ARM GAS  C:\Users\Rajesh\AppData\Local\Temp\ccNpFtMg.s 			page 3


  84              		.loc 1 31 0
  85 0004 4FF4EE72 		mov	r2, #476
  86 0008 0021     		movs	r1, #0
  87 000a 0248     		ldr	r0, .L5
  88 000c FFF7FEFF 		bl	memset
  32:i2cuart.c     **** }
  89              		.loc 1 32 0
  90 0010 00BF     		nop
  91 0012 80BD     		pop	{r7, pc}
  92              	.L6:
  93              		.align	2
  94              	.L5:
  95 0014 00000000 		.word	MyI2C_Regs
  96              		.cfi_endproc
  97              	.LFE64:
  98              		.size	ClearBufferI2C, .-ClearBufferI2C
  99              		.section	.text.ClearBuffer,"ax",%progbits
 100              		.align	2
 101              		.global	ClearBuffer
 102              		.thumb
 103              		.thumb_func
 104              		.type	ClearBuffer, %function
 105              	ClearBuffer:
 106              	.LFB65:
  33:i2cuart.c     **** void ClearBuffer()
  34:i2cuart.c     **** {
 107              		.loc 1 34 0
 108              		.cfi_startproc
 109              		@ args = 0, pretend = 0, frame = 8
 110              		@ frame_needed = 1, uses_anonymous_args = 0
 111 0000 80B5     		push	{r7, lr}
 112              		.cfi_def_cfa_offset 8
 113              		.cfi_offset 7, -8
 114              		.cfi_offset 14, -4
 115 0002 82B0     		sub	sp, sp, #8
 116              		.cfi_def_cfa_offset 16
 117 0004 00AF     		add	r7, sp, #0
 118              		.cfi_def_cfa_register 7
  35:i2cuart.c     ****     int i;
  36:i2cuart.c     ****     for(i=0; i < BUFFER_LENGTH; i++)
 119              		.loc 1 36 0
 120 0006 0023     		movs	r3, #0
 121 0008 7B60     		str	r3, [r7, #4]
 122 000a 0CE0     		b	.L8
 123              	.L9:
  37:i2cuart.c     ****     {
  38:i2cuart.c     ****         MyI2C_Regs.buffer[i] = 0;
 124              		.loc 1 38 0 discriminator 3
 125 000c 094A     		ldr	r2, .L10
 126 000e 7B68     		ldr	r3, [r7, #4]
 127 0010 1344     		add	r3, r3, r2
 128 0012 03F5B273 		add	r3, r3, #356
 129 0016 0022     		movs	r2, #0
 130 0018 1A70     		strb	r2, [r3]
  39:i2cuart.c     ****         CyDelayUs(1u); //need little delay for Release
 131              		.loc 1 39 0 discriminator 3
 132 001a 0120     		movs	r0, #1
ARM GAS  C:\Users\Rajesh\AppData\Local\Temp\ccNpFtMg.s 			page 4


 133 001c FFF7FEFF 		bl	CyDelayUs
  36:i2cuart.c     ****     {
 134              		.loc 1 36 0 discriminator 3
 135 0020 7B68     		ldr	r3, [r7, #4]
 136 0022 0133     		adds	r3, r3, #1
 137 0024 7B60     		str	r3, [r7, #4]
 138              	.L8:
  36:i2cuart.c     ****     {
 139              		.loc 1 36 0 is_stmt 0 discriminator 1
 140 0026 7B68     		ldr	r3, [r7, #4]
 141 0028 132B     		cmp	r3, #19
 142 002a EFDD     		ble	.L9
  40:i2cuart.c     ****     }
  41:i2cuart.c     **** }
 143              		.loc 1 41 0 is_stmt 1
 144 002c 00BF     		nop
 145 002e 0837     		adds	r7, r7, #8
 146              		.cfi_def_cfa_offset 8
 147 0030 BD46     		mov	sp, r7
 148              		.cfi_def_cfa_register 13
 149              		@ sp needed
 150 0032 80BD     		pop	{r7, pc}
 151              	.L11:
 152              		.align	2
 153              	.L10:
 154 0034 00000000 		.word	MyI2C_Regs
 155              		.cfi_endproc
 156              	.LFE65:
 157              		.size	ClearBuffer, .-ClearBuffer
 158              		.section	.text.SendPAC,"ax",%progbits
 159              		.align	2
 160              		.global	SendPAC
 161              		.thumb
 162              		.thumb_func
 163              		.type	SendPAC, %function
 164              	SendPAC:
 165              	.LFB66:
  42:i2cuart.c     **** 
  43:i2cuart.c     **** void SendPAC(unsigned char *bufp)
  44:i2cuart.c     **** {
 166              		.loc 1 44 0
 167              		.cfi_startproc
 168              		@ args = 0, pretend = 0, frame = 16
 169              		@ frame_needed = 1, uses_anonymous_args = 0
 170 0000 80B5     		push	{r7, lr}
 171              		.cfi_def_cfa_offset 8
 172              		.cfi_offset 7, -8
 173              		.cfi_offset 14, -4
 174 0002 84B0     		sub	sp, sp, #16
 175              		.cfi_def_cfa_offset 24
 176 0004 00AF     		add	r7, sp, #0
 177              		.cfi_def_cfa_register 7
 178 0006 7860     		str	r0, [r7, #4]
  45:i2cuart.c     ****     int i,j;
  46:i2cuart.c     ****     LED_GRN_Write(ON);
 179              		.loc 1 46 0
 180 0008 0020     		movs	r0, #0
ARM GAS  C:\Users\Rajesh\AppData\Local\Temp\ccNpFtMg.s 			page 5


 181 000a FFF7FEFF 		bl	LED_GRN_Write
  47:i2cuart.c     ****     LED_YEL_Write(ON);
 182              		.loc 1 47 0
 183 000e 0020     		movs	r0, #0
 184 0010 FFF7FEFF 		bl	LED_YEL_Write
  48:i2cuart.c     ****   
  49:i2cuart.c     ****     for( i = 0; i < 20; i++)
 185              		.loc 1 49 0
 186 0014 0023     		movs	r3, #0
 187 0016 FB60     		str	r3, [r7, #12]
 188 0018 12E0     		b	.L13
 189              	.L16:
  50:i2cuart.c     ****     {
  51:i2cuart.c     ****         for( j= 0; j < PAC_LENGTH ; j++)
 190              		.loc 1 51 0
 191 001a 0023     		movs	r3, #0
 192 001c BB60     		str	r3, [r7, #8]
 193 001e 09E0     		b	.L14
 194              	.L15:
  52:i2cuart.c     ****          UART_1_PutChar(bufp[j]);
 195              		.loc 1 52 0 discriminator 3
 196 0020 BB68     		ldr	r3, [r7, #8]
 197 0022 7A68     		ldr	r2, [r7, #4]
 198 0024 1344     		add	r3, r3, r2
 199 0026 1B78     		ldrb	r3, [r3]	@ zero_extendqisi2
 200 0028 1846     		mov	r0, r3
 201 002a FFF7FEFF 		bl	UART_1_PutChar
  51:i2cuart.c     ****          UART_1_PutChar(bufp[j]);
 202              		.loc 1 51 0 discriminator 3
 203 002e BB68     		ldr	r3, [r7, #8]
 204 0030 0133     		adds	r3, r3, #1
 205 0032 BB60     		str	r3, [r7, #8]
 206              	.L14:
  51:i2cuart.c     ****          UART_1_PutChar(bufp[j]);
 207              		.loc 1 51 0 is_stmt 0 discriminator 1
 208 0034 BB68     		ldr	r3, [r7, #8]
 209 0036 0B2B     		cmp	r3, #11
 210 0038 F2DD     		ble	.L15
  49:i2cuart.c     ****     {
 211              		.loc 1 49 0 is_stmt 1 discriminator 2
 212 003a FB68     		ldr	r3, [r7, #12]
 213 003c 0133     		adds	r3, r3, #1
 214 003e FB60     		str	r3, [r7, #12]
 215              	.L13:
  49:i2cuart.c     ****     {
 216              		.loc 1 49 0 is_stmt 0 discriminator 1
 217 0040 FB68     		ldr	r3, [r7, #12]
 218 0042 132B     		cmp	r3, #19
 219 0044 E9DD     		ble	.L16
  53:i2cuart.c     ****     }
  54:i2cuart.c     **** 
  55:i2cuart.c     ****     LED_GRN_Write(OFF);
 220              		.loc 1 55 0 is_stmt 1
 221 0046 0120     		movs	r0, #1
 222 0048 FFF7FEFF 		bl	LED_GRN_Write
  56:i2cuart.c     ****     LED_YEL_Write(OFF);
 223              		.loc 1 56 0
ARM GAS  C:\Users\Rajesh\AppData\Local\Temp\ccNpFtMg.s 			page 6


 224 004c 0120     		movs	r0, #1
 225 004e FFF7FEFF 		bl	LED_YEL_Write
  57:i2cuart.c     **** }
 226              		.loc 1 57 0
 227 0052 00BF     		nop
 228 0054 1037     		adds	r7, r7, #16
 229              		.cfi_def_cfa_offset 8
 230 0056 BD46     		mov	sp, r7
 231              		.cfi_def_cfa_register 13
 232              		@ sp needed
 233 0058 80BD     		pop	{r7, pc}
 234              		.cfi_endproc
 235              	.LFE66:
 236              		.size	SendPAC, .-SendPAC
 237 005a 00BF     		.section	.text.ReadPAC,"ax",%progbits
 238              		.align	2
 239              		.global	ReadPAC
 240              		.thumb
 241              		.thumb_func
 242              		.type	ReadPAC, %function
 243              	ReadPAC:
 244              	.LFB67:
  58:i2cuart.c     **** 
  59:i2cuart.c     **** int ReadPAC(int passmode)
  60:i2cuart.c     **** {
 245              		.loc 1 60 0
 246              		.cfi_startproc
 247              		@ args = 0, pretend = 0, frame = 48
 248              		@ frame_needed = 1, uses_anonymous_args = 0
 249 0000 80B5     		push	{r7, lr}
 250              		.cfi_def_cfa_offset 8
 251              		.cfi_offset 7, -8
 252              		.cfi_offset 14, -4
 253 0002 8CB0     		sub	sp, sp, #48
 254              		.cfi_def_cfa_offset 56
 255 0004 00AF     		add	r7, sp, #0
 256              		.cfi_def_cfa_register 7
 257 0006 7860     		str	r0, [r7, #4]
  61:i2cuart.c     ****     int byteCount =0;
 258              		.loc 1 61 0
 259 0008 0023     		movs	r3, #0
 260 000a FB62     		str	r3, [r7, #44]
  62:i2cuart.c     ****     char tmp;
  63:i2cuart.c     ****     char ret = 0;
 261              		.loc 1 63 0
 262 000c 0023     		movs	r3, #0
 263 000e 87F82B30 		strb	r3, [r7, #43]
  64:i2cuart.c     ****     unsigned char buffer[BUFFER_LENGTH];  
  65:i2cuart.c     ****     int i;
  66:i2cuart.c     **** 
  67:i2cuart.c     ****     if(UART_1_ReadRxStatus() ==   UART_1_RX_STS_FIFO_NOTEMPTY)
 264              		.loc 1 67 0
 265 0012 FFF7FEFF 		bl	UART_1_ReadRxStatus
 266 0016 0346     		mov	r3, r0
 267 0018 202B     		cmp	r3, #32
 268 001a 76D1     		bne	.L18
  68:i2cuart.c     ****     {
ARM GAS  C:\Users\Rajesh\AppData\Local\Temp\ccNpFtMg.s 			page 7


  69:i2cuart.c     ****         Timeout_Timer_Isr_Disable();
 269              		.loc 1 69 0
 270 001c FFF7FEFF 		bl	Timeout_Timer_Isr_Disable
  70:i2cuart.c     ****         passmode_timeout = 0;
 271              		.loc 1 70 0
 272 0020 3D4B     		ldr	r3, .L28
 273 0022 0022     		movs	r2, #0
 274 0024 1A60     		str	r2, [r3]
  71:i2cuart.c     ****         Timeout_Timer_Isr_Enable();
 275              		.loc 1 71 0
 276 0026 FFF7FEFF 		bl	Timeout_Timer_Isr_Enable
  72:i2cuart.c     ****         while(byteCount < PAC_LENGTH)
 277              		.loc 1 72 0
 278 002a 2CE0     		b	.L19
 279              	.L23:
  73:i2cuart.c     ****         {
  74:i2cuart.c     ****             if(UART_1_ReadRxStatus() ==   UART_1_RX_STS_FIFO_NOTEMPTY)
 280              		.loc 1 74 0
 281 002c FFF7FEFF 		bl	UART_1_ReadRxStatus
 282 0030 0346     		mov	r3, r0
 283 0032 202B     		cmp	r3, #32
 284 0034 20D1     		bne	.L20
  75:i2cuart.c     ****             {
  76:i2cuart.c     ****                 tmp = UART_1_GetChar();
 285              		.loc 1 76 0
 286 0036 FFF7FEFF 		bl	UART_1_GetChar
 287 003a 0346     		mov	r3, r0
 288 003c 87F82330 		strb	r3, [r7, #35]
  77:i2cuart.c     ****                 if(tmp == 0x02)
 289              		.loc 1 77 0
 290 0040 97F82330 		ldrb	r3, [r7, #35]	@ zero_extendqisi2
 291 0044 022B     		cmp	r3, #2
 292 0046 0AD1     		bne	.L21
  78:i2cuart.c     ****                 {
  79:i2cuart.c     ****                     buffer[byteCount] = tmp;
 293              		.loc 1 79 0
 294 0048 07F10C02 		add	r2, r7, #12
 295 004c FB6A     		ldr	r3, [r7, #44]
 296 004e 1344     		add	r3, r3, r2
 297 0050 97F82320 		ldrb	r2, [r7, #35]
 298 0054 1A70     		strb	r2, [r3]
  80:i2cuart.c     ****                     byteCount++;
 299              		.loc 1 80 0
 300 0056 FB6A     		ldr	r3, [r7, #44]
 301 0058 0133     		adds	r3, r3, #1
 302 005a FB62     		str	r3, [r7, #44]
 303 005c 0CE0     		b	.L20
 304              	.L21:
  81:i2cuart.c     ****                 }
  82:i2cuart.c     ****                 else if(byteCount > 0)
 305              		.loc 1 82 0
 306 005e FB6A     		ldr	r3, [r7, #44]
 307 0060 002B     		cmp	r3, #0
 308 0062 09DD     		ble	.L20
  83:i2cuart.c     ****                 {
  84:i2cuart.c     ****                     buffer[byteCount] = tmp;
 309              		.loc 1 84 0
ARM GAS  C:\Users\Rajesh\AppData\Local\Temp\ccNpFtMg.s 			page 8


 310 0064 07F10C02 		add	r2, r7, #12
 311 0068 FB6A     		ldr	r3, [r7, #44]
 312 006a 1344     		add	r3, r3, r2
 313 006c 97F82320 		ldrb	r2, [r7, #35]
 314 0070 1A70     		strb	r2, [r3]
  85:i2cuart.c     ****                     byteCount++;
 315              		.loc 1 85 0
 316 0072 FB6A     		ldr	r3, [r7, #44]
 317 0074 0133     		adds	r3, r3, #1
 318 0076 FB62     		str	r3, [r7, #44]
 319              	.L20:
  86:i2cuart.c     ****                 }
  87:i2cuart.c     ****             }
  88:i2cuart.c     ****             if (passmode_timeout > 2000) return(0);
 320              		.loc 1 88 0
 321 0078 274B     		ldr	r3, .L28
 322 007a 1B68     		ldr	r3, [r3]
 323 007c B3F5FA6F 		cmp	r3, #2000
 324 0080 01DD     		ble	.L19
 325              		.loc 1 88 0 is_stmt 0 discriminator 1
 326 0082 0023     		movs	r3, #0
 327 0084 43E0     		b	.L27
 328              	.L19:
  72:i2cuart.c     ****         {
 329              		.loc 1 72 0 is_stmt 1
 330 0086 FB6A     		ldr	r3, [r7, #44]
 331 0088 0B2B     		cmp	r3, #11
 332 008a CFDD     		ble	.L23
  89:i2cuart.c     ****         }
  90:i2cuart.c     ****         
  91:i2cuart.c     ****         
  92:i2cuart.c     ****         MyI2C_Regs.data_length[0] = 0;
 333              		.loc 1 92 0
 334 008c 234B     		ldr	r3, .L28+4
 335 008e 0022     		movs	r2, #0
 336 0090 DA71     		strb	r2, [r3, #7]
  93:i2cuart.c     ****         MyI2C_Regs.data_length[1] = byteCount<<3;
 337              		.loc 1 93 0
 338 0092 FB6A     		ldr	r3, [r7, #44]
 339 0094 DBB2     		uxtb	r3, r3
 340 0096 DB00     		lsls	r3, r3, #3
 341 0098 DAB2     		uxtb	r2, r3
 342 009a 204B     		ldr	r3, .L28+4
 343 009c 1A72     		strb	r2, [r3, #8]
  94:i2cuart.c     **** 
  95:i2cuart.c     ****         
  96:i2cuart.c     ****         if ( passmode)
 344              		.loc 1 96 0
 345 009e 7B68     		ldr	r3, [r7, #4]
 346 00a0 002B     		cmp	r3, #0
 347 00a2 05D0     		beq	.L24
  97:i2cuart.c     ****         {
  98:i2cuart.c     ****             SendPAC(buffer);
 348              		.loc 1 98 0
 349 00a4 07F10C03 		add	r3, r7, #12
 350 00a8 1846     		mov	r0, r3
 351 00aa FFF7FEFF 		bl	SendPAC
ARM GAS  C:\Users\Rajesh\AppData\Local\Temp\ccNpFtMg.s 			page 9


 352 00ae 2CE0     		b	.L18
 353              	.L24:
  99:i2cuart.c     ****         }
 100:i2cuart.c     ****         else
 101:i2cuart.c     ****         {
 102:i2cuart.c     ****             for (i=0; i<PAC_LENGTH; i++)
 354              		.loc 1 102 0
 355 00b0 0023     		movs	r3, #0
 356 00b2 7B62     		str	r3, [r7, #36]
 357 00b4 11E0     		b	.L25
 358              	.L26:
 103:i2cuart.c     ****             {
 104:i2cuart.c     ****                 MyI2C_Regs.buffer[i] = buffer[i];
 359              		.loc 1 104 0 discriminator 3
 360 00b6 07F10C02 		add	r2, r7, #12
 361 00ba 7B6A     		ldr	r3, [r7, #36]
 362 00bc 1344     		add	r3, r3, r2
 363 00be 1978     		ldrb	r1, [r3]	@ zero_extendqisi2
 364 00c0 164A     		ldr	r2, .L28+4
 365 00c2 7B6A     		ldr	r3, [r7, #36]
 366 00c4 1344     		add	r3, r3, r2
 367 00c6 03F5B273 		add	r3, r3, #356
 368 00ca 0A46     		mov	r2, r1
 369 00cc 1A70     		strb	r2, [r3]
 105:i2cuart.c     ****                 CyDelayUs(1u);  //add some delay for I2C
 370              		.loc 1 105 0 discriminator 3
 371 00ce 0120     		movs	r0, #1
 372 00d0 FFF7FEFF 		bl	CyDelayUs
 102:i2cuart.c     ****             {
 373              		.loc 1 102 0 discriminator 3
 374 00d4 7B6A     		ldr	r3, [r7, #36]
 375 00d6 0133     		adds	r3, r3, #1
 376 00d8 7B62     		str	r3, [r7, #36]
 377              	.L25:
 102:i2cuart.c     ****             {
 378              		.loc 1 102 0 is_stmt 0 discriminator 1
 379 00da 7B6A     		ldr	r3, [r7, #36]
 380 00dc 0B2B     		cmp	r3, #11
 381 00de EADD     		ble	.L26
 106:i2cuart.c     ****             }
 107:i2cuart.c     ****             UART_1_ClearRxBuffer();
 382              		.loc 1 107 0 is_stmt 1
 383 00e0 FFF7FEFF 		bl	UART_1_ClearRxBuffer
 108:i2cuart.c     ****             card_in_buf = 1;
 384              		.loc 1 108 0
 385 00e4 0E4B     		ldr	r3, .L28+8
 386 00e6 0122     		movs	r2, #1
 387 00e8 1A60     		str	r2, [r3]
 109:i2cuart.c     ****             card_ack = 0;
 388              		.loc 1 109 0
 389 00ea 0E4B     		ldr	r3, .L28+12
 390 00ec 0022     		movs	r2, #0
 391 00ee 1A60     		str	r2, [r3]
 110:i2cuart.c     ****             MyI2C_Regs.status_out |= STAT_CHANGE | STAT_CARD_IN;
 392              		.loc 1 110 0
 393 00f0 0A4B     		ldr	r3, .L28+4
 394 00f2 1B78     		ldrb	r3, [r3]	@ zero_extendqisi2
ARM GAS  C:\Users\Rajesh\AppData\Local\Temp\ccNpFtMg.s 			page 10


 395 00f4 43F00303 		orr	r3, r3, #3
 396 00f8 DAB2     		uxtb	r2, r3
 397 00fa 084B     		ldr	r3, .L28+4
 398 00fc 1A70     		strb	r2, [r3]
 111:i2cuart.c     ****             MyI2C_Regs.cmd = CMD_NONE;
 399              		.loc 1 111 0
 400 00fe 074B     		ldr	r3, .L28+4
 401 0100 0022     		movs	r2, #0
 402 0102 9A70     		strb	r2, [r3, #2]
 112:i2cuart.c     **** //            MyI2C_Regs.buffer1[13]++;
 113:i2cuart.c     ****             ret = 1;
 403              		.loc 1 113 0
 404 0104 0123     		movs	r3, #1
 405 0106 87F82B30 		strb	r3, [r7, #43]
 406              	.L18:
 114:i2cuart.c     ****         }
 115:i2cuart.c     ****     }
 116:i2cuart.c     ****     return ret;
 407              		.loc 1 116 0
 408 010a 97F82B30 		ldrb	r3, [r7, #43]	@ zero_extendqisi2
 409              	.L27:
 117:i2cuart.c     **** }
 410              		.loc 1 117 0 discriminator 1
 411 010e 1846     		mov	r0, r3
 412 0110 3037     		adds	r7, r7, #48
 413              		.cfi_def_cfa_offset 8
 414 0112 BD46     		mov	sp, r7
 415              		.cfi_def_cfa_register 13
 416              		@ sp needed
 417 0114 80BD     		pop	{r7, pc}
 418              	.L29:
 419 0116 00BF     		.align	2
 420              	.L28:
 421 0118 00000000 		.word	passmode_timeout
 422 011c 00000000 		.word	MyI2C_Regs
 423 0120 00000000 		.word	card_in_buf
 424 0124 00000000 		.word	card_ack
 425              		.cfi_endproc
 426              	.LFE67:
 427              		.size	ReadPAC, .-ReadPAC
 428              		.section	.text.SetupUART,"ax",%progbits
 429              		.align	2
 430              		.global	SetupUART
 431              		.thumb
 432              		.thumb_func
 433              		.type	SetupUART, %function
 434              	SetupUART:
 435              	.LFB68:
 118:i2cuart.c     **** 
 119:i2cuart.c     **** void SetupUART(char accessType)
 120:i2cuart.c     **** {
 436              		.loc 1 120 0
 437              		.cfi_startproc
 438              		@ args = 0, pretend = 0, frame = 8
 439              		@ frame_needed = 1, uses_anonymous_args = 0
 440 0000 80B5     		push	{r7, lr}
 441              		.cfi_def_cfa_offset 8
ARM GAS  C:\Users\Rajesh\AppData\Local\Temp\ccNpFtMg.s 			page 11


 442              		.cfi_offset 7, -8
 443              		.cfi_offset 14, -4
 444 0002 82B0     		sub	sp, sp, #8
 445              		.cfi_def_cfa_offset 16
 446 0004 00AF     		add	r7, sp, #0
 447              		.cfi_def_cfa_register 7
 448 0006 0346     		mov	r3, r0
 449 0008 FB71     		strb	r3, [r7, #7]
 121:i2cuart.c     ****     if(currentAccessType != accessType)
 450              		.loc 1 121 0
 451 000a 0D4B     		ldr	r3, .L36
 452 000c 1B78     		ldrb	r3, [r3]	@ zero_extendqisi2
 453 000e FA79     		ldrb	r2, [r7, #7]	@ zero_extendqisi2
 454 0010 9A42     		cmp	r2, r3
 455 0012 10D0     		beq	.L35
 122:i2cuart.c     ****     {
 123:i2cuart.c     ****         switch(accessType)
 456              		.loc 1 123 0
 457 0014 FB79     		ldrb	r3, [r7, #7]	@ zero_extendqisi2
 458 0016 0C2B     		cmp	r3, #12
 459 0018 02D0     		beq	.L33
 460 001a 1A2B     		cmp	r3, #26
 461 001c 04D0     		beq	.L34
 462 001e 07E0     		b	.L32
 463              	.L33:
 124:i2cuart.c     ****         {
 125:i2cuart.c     ****             case PAC:
 126:i2cuart.c     ****                OptSelect_Write(0);
 464              		.loc 1 126 0
 465 0020 0020     		movs	r0, #0
 466 0022 FFF7FEFF 		bl	OptSelect_Write
 127:i2cuart.c     ****                 break;
 467              		.loc 1 127 0
 468 0026 03E0     		b	.L32
 469              	.L34:
 128:i2cuart.c     ****             case HID:
 129:i2cuart.c     ****                OptSelect_Write(1);
 470              		.loc 1 129 0
 471 0028 0120     		movs	r0, #1
 472 002a FFF7FEFF 		bl	OptSelect_Write
 130:i2cuart.c     ****                 break;
 473              		.loc 1 130 0
 474 002e 00BF     		nop
 475              	.L32:
 131:i2cuart.c     ****                 
 132:i2cuart.c     ****         }
 133:i2cuart.c     ****         currentAccessType = accessType;
 476              		.loc 1 133 0
 477 0030 034A     		ldr	r2, .L36
 478 0032 FB79     		ldrb	r3, [r7, #7]
 479 0034 1370     		strb	r3, [r2]
 480              	.L35:
 134:i2cuart.c     ****     }
 135:i2cuart.c     **** }
 481              		.loc 1 135 0
 482 0036 00BF     		nop
 483 0038 0837     		adds	r7, r7, #8
ARM GAS  C:\Users\Rajesh\AppData\Local\Temp\ccNpFtMg.s 			page 12


 484              		.cfi_def_cfa_offset 8
 485 003a BD46     		mov	sp, r7
 486              		.cfi_def_cfa_register 13
 487              		@ sp needed
 488 003c 80BD     		pop	{r7, pc}
 489              	.L37:
 490 003e 00BF     		.align	2
 491              	.L36:
 492 0040 00000000 		.word	currentAccessType
 493              		.cfi_endproc
 494              	.LFE68:
 495              		.size	SetupUART, .-SetupUART
 496              		.text
 497              	.Letext0:
 498              		.file 2 "c:\\program files (x86)\\cypress\\psoc creator\\4.2\\psoc creator\\import\\gnu\\arm\\5.4.
 499              		.file 3 "c:\\program files (x86)\\cypress\\psoc creator\\4.2\\psoc creator\\import\\gnu\\arm\\5.4.
 500              		.file 4 "Generated_Source\\PSoC5/cytypes.h"
 501              		.file 5 "softuart.h"
 502              		.file 6 "system.h"
 503              		.file 7 "Generated_Source\\PSoC5/core_cm3.h"
 504              		.file 8 "osdp.h"