ARM GAS  C:\Users\Rajesh\AppData\Local\Temp\ccxRzy8e.s 			page 1


   1              		.syntax unified
   2              		.cpu cortex-m3
   3              		.fpu softvfp
   4              		.eabi_attribute 20, 1
   5              		.eabi_attribute 21, 1
   6              		.eabi_attribute 23, 3
   7              		.eabi_attribute 24, 1
   8              		.eabi_attribute 25, 1
   9              		.eabi_attribute 26, 1
  10              		.eabi_attribute 30, 6
  11              		.eabi_attribute 34, 1
  12              		.eabi_attribute 18, 4
  13              		.thumb
  14              		.syntax unified
  15              		.file	"isr_SW_Rst.c"
  16              		.text
  17              	.Ltext0:
  18              		.cfi_sections	.debug_frame
  19              		.comm	s,40,4
  20              		.comm	currentAccessType,1,1
  21              		.comm	hw_old,1,1
  22              		.comm	tp_old,1,1
  23              		.comm	tamperCR_polarity,4,4
  24              		.comm	tamper_out_polarity,4,4
  25              		.comm	card_ack,4,4
  26              		.comm	card_in_buf,4,4
  27              		.comm	buttonPressed,1,1
  28              		.comm	buttonReleased,1,1
  29              		.comm	buttonDuration,4,4
  30              		.section	.text.isr_SW_Rst_Start,"ax",%progbits
  31              		.align	2
  32              		.global	isr_SW_Rst_Start
  33              		.thumb
  34              		.thumb_func
  35              		.type	isr_SW_Rst_Start, %function
  36              	isr_SW_Rst_Start:
  37              	.LFB63:
  38              		.file 1 "Generated_Source\\PSoC5\\isr_SW_Rst.c"
   1:Generated_Source\PSoC5/isr_SW_Rst.c **** /*******************************************************************************
   2:Generated_Source\PSoC5/isr_SW_Rst.c **** * File Name: isr_SW_Rst.c  
   3:Generated_Source\PSoC5/isr_SW_Rst.c **** * Version 1.70
   4:Generated_Source\PSoC5/isr_SW_Rst.c **** *
   5:Generated_Source\PSoC5/isr_SW_Rst.c **** *  Description:
   6:Generated_Source\PSoC5/isr_SW_Rst.c **** *   API for controlling the state of an interrupt.
   7:Generated_Source\PSoC5/isr_SW_Rst.c **** *
   8:Generated_Source\PSoC5/isr_SW_Rst.c **** *
   9:Generated_Source\PSoC5/isr_SW_Rst.c **** *  Note:
  10:Generated_Source\PSoC5/isr_SW_Rst.c **** *
  11:Generated_Source\PSoC5/isr_SW_Rst.c **** ********************************************************************************
  12:Generated_Source\PSoC5/isr_SW_Rst.c **** * Copyright 2008-2015, Cypress Semiconductor Corporation.  All rights reserved.
  13:Generated_Source\PSoC5/isr_SW_Rst.c **** * You may use this file only in accordance with the license, terms, conditions, 
  14:Generated_Source\PSoC5/isr_SW_Rst.c **** * disclaimers, and limitations in the end user license agreement accompanying 
  15:Generated_Source\PSoC5/isr_SW_Rst.c **** * the software package with which this file was provided.
  16:Generated_Source\PSoC5/isr_SW_Rst.c **** *******************************************************************************/
  17:Generated_Source\PSoC5/isr_SW_Rst.c **** 
  18:Generated_Source\PSoC5/isr_SW_Rst.c **** 
  19:Generated_Source\PSoC5/isr_SW_Rst.c **** #include <cydevice_trm.h>
ARM GAS  C:\Users\Rajesh\AppData\Local\Temp\ccxRzy8e.s 			page 2


  20:Generated_Source\PSoC5/isr_SW_Rst.c **** #include <CyLib.h>
  21:Generated_Source\PSoC5/isr_SW_Rst.c **** #include <isr_SW_Rst.h>
  22:Generated_Source\PSoC5/isr_SW_Rst.c **** 
  23:Generated_Source\PSoC5/isr_SW_Rst.c **** 
  24:Generated_Source\PSoC5/isr_SW_Rst.c **** #if !defined(isr_SW_Rst__REMOVED) /* Check for removal by optimization */
  25:Generated_Source\PSoC5/isr_SW_Rst.c **** 
  26:Generated_Source\PSoC5/isr_SW_Rst.c **** /*******************************************************************************
  27:Generated_Source\PSoC5/isr_SW_Rst.c **** *  Place your includes, defines and code here 
  28:Generated_Source\PSoC5/isr_SW_Rst.c **** ********************************************************************************/
  29:Generated_Source\PSoC5/isr_SW_Rst.c **** /* `#START isr_SW_Rst_intc` */
  30:Generated_Source\PSoC5/isr_SW_Rst.c **** #include "FltrReg.h"
  31:Generated_Source\PSoC5/isr_SW_Rst.c **** #include "LED_GRN.h"
  32:Generated_Source\PSoC5/isr_SW_Rst.c **** #include "system.h"
  33:Generated_Source\PSoC5/isr_SW_Rst.c ****     
  34:Generated_Source\PSoC5/isr_SW_Rst.c **** char buttonPressed;
  35:Generated_Source\PSoC5/isr_SW_Rst.c **** char buttonReleased;
  36:Generated_Source\PSoC5/isr_SW_Rst.c **** long buttonDuration;
  37:Generated_Source\PSoC5/isr_SW_Rst.c ****     
  38:Generated_Source\PSoC5/isr_SW_Rst.c ****     
  39:Generated_Source\PSoC5/isr_SW_Rst.c ****     
  40:Generated_Source\PSoC5/isr_SW_Rst.c **** /* `#END` */
  41:Generated_Source\PSoC5/isr_SW_Rst.c **** 
  42:Generated_Source\PSoC5/isr_SW_Rst.c **** #ifndef CYINT_IRQ_BASE
  43:Generated_Source\PSoC5/isr_SW_Rst.c **** #define CYINT_IRQ_BASE      16
  44:Generated_Source\PSoC5/isr_SW_Rst.c **** #endif /* CYINT_IRQ_BASE */
  45:Generated_Source\PSoC5/isr_SW_Rst.c **** #ifndef CYINT_VECT_TABLE
  46:Generated_Source\PSoC5/isr_SW_Rst.c **** #define CYINT_VECT_TABLE    ((cyisraddress **) CYREG_NVIC_VECT_OFFSET)
  47:Generated_Source\PSoC5/isr_SW_Rst.c **** #endif /* CYINT_VECT_TABLE */
  48:Generated_Source\PSoC5/isr_SW_Rst.c **** 
  49:Generated_Source\PSoC5/isr_SW_Rst.c **** /* Declared in startup, used to set unused interrupts to. */
  50:Generated_Source\PSoC5/isr_SW_Rst.c **** CY_ISR_PROTO(IntDefaultHandler);
  51:Generated_Source\PSoC5/isr_SW_Rst.c **** 
  52:Generated_Source\PSoC5/isr_SW_Rst.c **** 
  53:Generated_Source\PSoC5/isr_SW_Rst.c **** /*******************************************************************************
  54:Generated_Source\PSoC5/isr_SW_Rst.c **** * Function Name: isr_SW_Rst_Start
  55:Generated_Source\PSoC5/isr_SW_Rst.c **** ********************************************************************************
  56:Generated_Source\PSoC5/isr_SW_Rst.c **** *
  57:Generated_Source\PSoC5/isr_SW_Rst.c **** * Summary:
  58:Generated_Source\PSoC5/isr_SW_Rst.c **** *  Set up the interrupt and enable it. This function disables the interrupt, 
  59:Generated_Source\PSoC5/isr_SW_Rst.c **** *  sets the default interrupt vector, sets the priority from the value in the
  60:Generated_Source\PSoC5/isr_SW_Rst.c **** *  Design Wide Resources Interrupt Editor, then enables the interrupt to the 
  61:Generated_Source\PSoC5/isr_SW_Rst.c **** *  interrupt controller.
  62:Generated_Source\PSoC5/isr_SW_Rst.c **** *
  63:Generated_Source\PSoC5/isr_SW_Rst.c **** * Parameters:  
  64:Generated_Source\PSoC5/isr_SW_Rst.c **** *   None
  65:Generated_Source\PSoC5/isr_SW_Rst.c **** *
  66:Generated_Source\PSoC5/isr_SW_Rst.c **** * Return:
  67:Generated_Source\PSoC5/isr_SW_Rst.c **** *   None
  68:Generated_Source\PSoC5/isr_SW_Rst.c **** *
  69:Generated_Source\PSoC5/isr_SW_Rst.c **** *******************************************************************************/
  70:Generated_Source\PSoC5/isr_SW_Rst.c **** void isr_SW_Rst_Start(void)
  71:Generated_Source\PSoC5/isr_SW_Rst.c **** {
  39              		.loc 1 71 0
  40              		.cfi_startproc
  41              		@ args = 0, pretend = 0, frame = 0
  42              		@ frame_needed = 1, uses_anonymous_args = 0
  43 0000 80B5     		push	{r7, lr}
ARM GAS  C:\Users\Rajesh\AppData\Local\Temp\ccxRzy8e.s 			page 3


  44              		.cfi_def_cfa_offset 8
  45              		.cfi_offset 7, -8
  46              		.cfi_offset 14, -4
  47 0002 00AF     		add	r7, sp, #0
  48              		.cfi_def_cfa_register 7
  72:Generated_Source\PSoC5/isr_SW_Rst.c ****     /* For all we know the interrupt is active. */
  73:Generated_Source\PSoC5/isr_SW_Rst.c ****     isr_SW_Rst_Disable();
  49              		.loc 1 73 0
  50 0004 FFF7FEFF 		bl	isr_SW_Rst_Disable
  74:Generated_Source\PSoC5/isr_SW_Rst.c **** 
  75:Generated_Source\PSoC5/isr_SW_Rst.c ****     /* Set the ISR to point to the isr_SW_Rst Interrupt. */
  76:Generated_Source\PSoC5/isr_SW_Rst.c ****     isr_SW_Rst_SetVector(&isr_SW_Rst_Interrupt);
  51              		.loc 1 76 0
  52 0008 0448     		ldr	r0, .L2
  53 000a FFF7FEFF 		bl	isr_SW_Rst_SetVector
  77:Generated_Source\PSoC5/isr_SW_Rst.c **** 
  78:Generated_Source\PSoC5/isr_SW_Rst.c ****     /* Set the priority. */
  79:Generated_Source\PSoC5/isr_SW_Rst.c ****     isr_SW_Rst_SetPriority((uint8)isr_SW_Rst_INTC_PRIOR_NUMBER);
  54              		.loc 1 79 0
  55 000e 0720     		movs	r0, #7
  56 0010 FFF7FEFF 		bl	isr_SW_Rst_SetPriority
  80:Generated_Source\PSoC5/isr_SW_Rst.c **** 
  81:Generated_Source\PSoC5/isr_SW_Rst.c ****     /* Enable it. */
  82:Generated_Source\PSoC5/isr_SW_Rst.c ****     isr_SW_Rst_Enable();
  57              		.loc 1 82 0
  58 0014 FFF7FEFF 		bl	isr_SW_Rst_Enable
  83:Generated_Source\PSoC5/isr_SW_Rst.c **** }
  59              		.loc 1 83 0
  60 0018 00BF     		nop
  61 001a 80BD     		pop	{r7, pc}
  62              	.L3:
  63              		.align	2
  64              	.L2:
  65 001c 00000000 		.word	isr_SW_Rst_Interrupt
  66              		.cfi_endproc
  67              	.LFE63:
  68              		.size	isr_SW_Rst_Start, .-isr_SW_Rst_Start
  69              		.section	.text.isr_SW_Rst_StartEx,"ax",%progbits
  70              		.align	2
  71              		.global	isr_SW_Rst_StartEx
  72              		.thumb
  73              		.thumb_func
  74              		.type	isr_SW_Rst_StartEx, %function
  75              	isr_SW_Rst_StartEx:
  76              	.LFB64:
  84:Generated_Source\PSoC5/isr_SW_Rst.c **** 
  85:Generated_Source\PSoC5/isr_SW_Rst.c **** 
  86:Generated_Source\PSoC5/isr_SW_Rst.c **** /*******************************************************************************
  87:Generated_Source\PSoC5/isr_SW_Rst.c **** * Function Name: isr_SW_Rst_StartEx
  88:Generated_Source\PSoC5/isr_SW_Rst.c **** ********************************************************************************
  89:Generated_Source\PSoC5/isr_SW_Rst.c **** *
  90:Generated_Source\PSoC5/isr_SW_Rst.c **** * Summary:
  91:Generated_Source\PSoC5/isr_SW_Rst.c **** *  Sets up the interrupt and enables it. This function disables the interrupt,
  92:Generated_Source\PSoC5/isr_SW_Rst.c **** *  sets the interrupt vector based on the address passed in, sets the priority 
  93:Generated_Source\PSoC5/isr_SW_Rst.c **** *  from the value in the Design Wide Resources Interrupt Editor, then enables 
  94:Generated_Source\PSoC5/isr_SW_Rst.c **** *  the interrupt to the interrupt controller.
  95:Generated_Source\PSoC5/isr_SW_Rst.c **** *  
ARM GAS  C:\Users\Rajesh\AppData\Local\Temp\ccxRzy8e.s 			page 4


  96:Generated_Source\PSoC5/isr_SW_Rst.c **** *  When defining ISR functions, the CY_ISR and CY_ISR_PROTO macros should be 
  97:Generated_Source\PSoC5/isr_SW_Rst.c **** *  used to provide consistent definition across compilers:
  98:Generated_Source\PSoC5/isr_SW_Rst.c **** *  
  99:Generated_Source\PSoC5/isr_SW_Rst.c **** *  Function definition example:
 100:Generated_Source\PSoC5/isr_SW_Rst.c **** *   CY_ISR(MyISR)
 101:Generated_Source\PSoC5/isr_SW_Rst.c **** *   {
 102:Generated_Source\PSoC5/isr_SW_Rst.c **** *   }
 103:Generated_Source\PSoC5/isr_SW_Rst.c **** *   Function prototype example:
 104:Generated_Source\PSoC5/isr_SW_Rst.c **** *   CY_ISR_PROTO(MyISR);
 105:Generated_Source\PSoC5/isr_SW_Rst.c **** *
 106:Generated_Source\PSoC5/isr_SW_Rst.c **** * Parameters:  
 107:Generated_Source\PSoC5/isr_SW_Rst.c **** *   address: Address of the ISR to set in the interrupt vector table.
 108:Generated_Source\PSoC5/isr_SW_Rst.c **** *
 109:Generated_Source\PSoC5/isr_SW_Rst.c **** * Return:
 110:Generated_Source\PSoC5/isr_SW_Rst.c **** *   None
 111:Generated_Source\PSoC5/isr_SW_Rst.c **** *
 112:Generated_Source\PSoC5/isr_SW_Rst.c **** *******************************************************************************/
 113:Generated_Source\PSoC5/isr_SW_Rst.c **** void isr_SW_Rst_StartEx(cyisraddress address)
 114:Generated_Source\PSoC5/isr_SW_Rst.c **** {
  77              		.loc 1 114 0
  78              		.cfi_startproc
  79              		@ args = 0, pretend = 0, frame = 8
  80              		@ frame_needed = 1, uses_anonymous_args = 0
  81 0000 80B5     		push	{r7, lr}
  82              		.cfi_def_cfa_offset 8
  83              		.cfi_offset 7, -8
  84              		.cfi_offset 14, -4
  85 0002 82B0     		sub	sp, sp, #8
  86              		.cfi_def_cfa_offset 16
  87 0004 00AF     		add	r7, sp, #0
  88              		.cfi_def_cfa_register 7
  89 0006 7860     		str	r0, [r7, #4]
 115:Generated_Source\PSoC5/isr_SW_Rst.c ****     /* For all we know the interrupt is active. */
 116:Generated_Source\PSoC5/isr_SW_Rst.c ****     isr_SW_Rst_Disable();
  90              		.loc 1 116 0
  91 0008 FFF7FEFF 		bl	isr_SW_Rst_Disable
 117:Generated_Source\PSoC5/isr_SW_Rst.c **** 
 118:Generated_Source\PSoC5/isr_SW_Rst.c ****     /* Set the ISR to point to the isr_SW_Rst Interrupt. */
 119:Generated_Source\PSoC5/isr_SW_Rst.c ****     isr_SW_Rst_SetVector(address);
  92              		.loc 1 119 0
  93 000c 7868     		ldr	r0, [r7, #4]
  94 000e FFF7FEFF 		bl	isr_SW_Rst_SetVector
 120:Generated_Source\PSoC5/isr_SW_Rst.c **** 
 121:Generated_Source\PSoC5/isr_SW_Rst.c ****     /* Set the priority. */
 122:Generated_Source\PSoC5/isr_SW_Rst.c ****     isr_SW_Rst_SetPriority((uint8)isr_SW_Rst_INTC_PRIOR_NUMBER);
  95              		.loc 1 122 0
  96 0012 0720     		movs	r0, #7
  97 0014 FFF7FEFF 		bl	isr_SW_Rst_SetPriority
 123:Generated_Source\PSoC5/isr_SW_Rst.c **** 
 124:Generated_Source\PSoC5/isr_SW_Rst.c ****     /* Enable it. */
 125:Generated_Source\PSoC5/isr_SW_Rst.c ****     isr_SW_Rst_Enable();
  98              		.loc 1 125 0
  99 0018 FFF7FEFF 		bl	isr_SW_Rst_Enable
 126:Generated_Source\PSoC5/isr_SW_Rst.c **** }
 100              		.loc 1 126 0
 101 001c 00BF     		nop
 102 001e 0837     		adds	r7, r7, #8
ARM GAS  C:\Users\Rajesh\AppData\Local\Temp\ccxRzy8e.s 			page 5


 103              		.cfi_def_cfa_offset 8
 104 0020 BD46     		mov	sp, r7
 105              		.cfi_def_cfa_register 13
 106              		@ sp needed
 107 0022 80BD     		pop	{r7, pc}
 108              		.cfi_endproc
 109              	.LFE64:
 110              		.size	isr_SW_Rst_StartEx, .-isr_SW_Rst_StartEx
 111              		.section	.text.isr_SW_Rst_Stop,"ax",%progbits
 112              		.align	2
 113              		.global	isr_SW_Rst_Stop
 114              		.thumb
 115              		.thumb_func
 116              		.type	isr_SW_Rst_Stop, %function
 117              	isr_SW_Rst_Stop:
 118              	.LFB65:
 127:Generated_Source\PSoC5/isr_SW_Rst.c **** 
 128:Generated_Source\PSoC5/isr_SW_Rst.c **** 
 129:Generated_Source\PSoC5/isr_SW_Rst.c **** /*******************************************************************************
 130:Generated_Source\PSoC5/isr_SW_Rst.c **** * Function Name: isr_SW_Rst_Stop
 131:Generated_Source\PSoC5/isr_SW_Rst.c **** ********************************************************************************
 132:Generated_Source\PSoC5/isr_SW_Rst.c **** *
 133:Generated_Source\PSoC5/isr_SW_Rst.c **** * Summary:
 134:Generated_Source\PSoC5/isr_SW_Rst.c **** *   Disables and removes the interrupt.
 135:Generated_Source\PSoC5/isr_SW_Rst.c **** *
 136:Generated_Source\PSoC5/isr_SW_Rst.c **** * Parameters:  
 137:Generated_Source\PSoC5/isr_SW_Rst.c **** *   None
 138:Generated_Source\PSoC5/isr_SW_Rst.c **** *
 139:Generated_Source\PSoC5/isr_SW_Rst.c **** * Return:
 140:Generated_Source\PSoC5/isr_SW_Rst.c **** *   None
 141:Generated_Source\PSoC5/isr_SW_Rst.c **** *
 142:Generated_Source\PSoC5/isr_SW_Rst.c **** *******************************************************************************/
 143:Generated_Source\PSoC5/isr_SW_Rst.c **** void isr_SW_Rst_Stop(void)
 144:Generated_Source\PSoC5/isr_SW_Rst.c **** {
 119              		.loc 1 144 0
 120              		.cfi_startproc
 121              		@ args = 0, pretend = 0, frame = 0
 122              		@ frame_needed = 1, uses_anonymous_args = 0
 123 0000 80B5     		push	{r7, lr}
 124              		.cfi_def_cfa_offset 8
 125              		.cfi_offset 7, -8
 126              		.cfi_offset 14, -4
 127 0002 00AF     		add	r7, sp, #0
 128              		.cfi_def_cfa_register 7
 145:Generated_Source\PSoC5/isr_SW_Rst.c ****     /* Disable this interrupt. */
 146:Generated_Source\PSoC5/isr_SW_Rst.c ****     isr_SW_Rst_Disable();
 129              		.loc 1 146 0
 130 0004 FFF7FEFF 		bl	isr_SW_Rst_Disable
 147:Generated_Source\PSoC5/isr_SW_Rst.c **** 
 148:Generated_Source\PSoC5/isr_SW_Rst.c ****     /* Set the ISR to point to the passive one. */
 149:Generated_Source\PSoC5/isr_SW_Rst.c ****     isr_SW_Rst_SetVector(&IntDefaultHandler);
 131              		.loc 1 149 0
 132 0008 0248     		ldr	r0, .L6
 133 000a FFF7FEFF 		bl	isr_SW_Rst_SetVector
 150:Generated_Source\PSoC5/isr_SW_Rst.c **** }
 134              		.loc 1 150 0
 135 000e 00BF     		nop
ARM GAS  C:\Users\Rajesh\AppData\Local\Temp\ccxRzy8e.s 			page 6


 136 0010 80BD     		pop	{r7, pc}
 137              	.L7:
 138 0012 00BF     		.align	2
 139              	.L6:
 140 0014 00000000 		.word	IntDefaultHandler
 141              		.cfi_endproc
 142              	.LFE65:
 143              		.size	isr_SW_Rst_Stop, .-isr_SW_Rst_Stop
 144              		.section	.text.isr_SW_Rst_Interrupt,"ax",%progbits
 145              		.align	2
 146              		.global	isr_SW_Rst_Interrupt
 147              		.thumb
 148              		.thumb_func
 149              		.type	isr_SW_Rst_Interrupt, %function
 150              	isr_SW_Rst_Interrupt:
 151              	.LFB66:
 151:Generated_Source\PSoC5/isr_SW_Rst.c **** 
 152:Generated_Source\PSoC5/isr_SW_Rst.c **** 
 153:Generated_Source\PSoC5/isr_SW_Rst.c **** /*******************************************************************************
 154:Generated_Source\PSoC5/isr_SW_Rst.c **** * Function Name: isr_SW_Rst_Interrupt
 155:Generated_Source\PSoC5/isr_SW_Rst.c **** ********************************************************************************
 156:Generated_Source\PSoC5/isr_SW_Rst.c **** *
 157:Generated_Source\PSoC5/isr_SW_Rst.c **** * Summary:
 158:Generated_Source\PSoC5/isr_SW_Rst.c **** *   The default Interrupt Service Routine for isr_SW_Rst.
 159:Generated_Source\PSoC5/isr_SW_Rst.c **** *
 160:Generated_Source\PSoC5/isr_SW_Rst.c **** *   Add custom code between the coments to keep the next version of this file
 161:Generated_Source\PSoC5/isr_SW_Rst.c **** *   from over writting your code.
 162:Generated_Source\PSoC5/isr_SW_Rst.c **** *
 163:Generated_Source\PSoC5/isr_SW_Rst.c **** * Parameters:  
 164:Generated_Source\PSoC5/isr_SW_Rst.c **** *
 165:Generated_Source\PSoC5/isr_SW_Rst.c **** * Return:
 166:Generated_Source\PSoC5/isr_SW_Rst.c **** *   None
 167:Generated_Source\PSoC5/isr_SW_Rst.c **** *
 168:Generated_Source\PSoC5/isr_SW_Rst.c **** *******************************************************************************/
 169:Generated_Source\PSoC5/isr_SW_Rst.c **** CY_ISR(isr_SW_Rst_Interrupt)
 170:Generated_Source\PSoC5/isr_SW_Rst.c **** {
 152              		.loc 1 170 0
 153              		.cfi_startproc
 154              		@ args = 0, pretend = 0, frame = 8
 155              		@ frame_needed = 1, uses_anonymous_args = 0
 156 0000 80B5     		push	{r7, lr}
 157              		.cfi_def_cfa_offset 8
 158              		.cfi_offset 7, -8
 159              		.cfi_offset 14, -4
 160 0002 82B0     		sub	sp, sp, #8
 161              		.cfi_def_cfa_offset 16
 162 0004 00AF     		add	r7, sp, #0
 163              		.cfi_def_cfa_register 7
 171:Generated_Source\PSoC5/isr_SW_Rst.c ****     #ifdef isr_SW_Rst_INTERRUPT_INTERRUPT_CALLBACK
 172:Generated_Source\PSoC5/isr_SW_Rst.c ****         isr_SW_Rst_Interrupt_InterruptCallback();
 173:Generated_Source\PSoC5/isr_SW_Rst.c ****     #endif /* isr_SW_Rst_INTERRUPT_INTERRUPT_CALLBACK */ 
 174:Generated_Source\PSoC5/isr_SW_Rst.c **** 
 175:Generated_Source\PSoC5/isr_SW_Rst.c ****     /*  Place your Interrupt code here. */
 176:Generated_Source\PSoC5/isr_SW_Rst.c ****     /* `#START isr_SW_Rst_Interrupt` */
 177:Generated_Source\PSoC5/isr_SW_Rst.c ****     uint8 status_reg;
 178:Generated_Source\PSoC5/isr_SW_Rst.c ****     
 179:Generated_Source\PSoC5/isr_SW_Rst.c ****     status_reg = FltrReg_Read();
ARM GAS  C:\Users\Rajesh\AppData\Local\Temp\ccxRzy8e.s 			page 7


 164              		.loc 1 179 0
 165 0006 FFF7FEFF 		bl	FltrReg_Read
 166 000a 0346     		mov	r3, r0
 167 000c FB71     		strb	r3, [r7, #7]
 180:Generated_Source\PSoC5/isr_SW_Rst.c ****     if (status_reg & 0x1){
 168              		.loc 1 180 0
 169 000e FB79     		ldrb	r3, [r7, #7]	@ zero_extendqisi2
 170 0010 03F00103 		and	r3, r3, #1
 171 0014 002B     		cmp	r3, #0
 172 0016 0CD0     		beq	.L9
 181:Generated_Source\PSoC5/isr_SW_Rst.c ****         LED_GRN_Write(ON); //on
 173              		.loc 1 181 0
 174 0018 0020     		movs	r0, #0
 175 001a FFF7FEFF 		bl	LED_GRN_Write
 182:Generated_Source\PSoC5/isr_SW_Rst.c ****         buttonPressed = 1;
 176              		.loc 1 182 0
 177 001e 0B4B     		ldr	r3, .L12
 178 0020 0122     		movs	r2, #1
 179 0022 1A70     		strb	r2, [r3]
 183:Generated_Source\PSoC5/isr_SW_Rst.c ****         buttonReleased = 0;
 180              		.loc 1 183 0
 181 0024 0A4B     		ldr	r3, .L12+4
 182 0026 0022     		movs	r2, #0
 183 0028 1A70     		strb	r2, [r3]
 184:Generated_Source\PSoC5/isr_SW_Rst.c ****         buttonDuration = 0;
 184              		.loc 1 184 0
 185 002a 0A4B     		ldr	r3, .L12+8
 186 002c 0022     		movs	r2, #0
 187 002e 1A60     		str	r2, [r3]
 185:Generated_Source\PSoC5/isr_SW_Rst.c ****     }else{
 186:Generated_Source\PSoC5/isr_SW_Rst.c ****         LED_GRN_Write(OFF); //off
 187:Generated_Source\PSoC5/isr_SW_Rst.c ****         buttonPressed = 0;
 188:Generated_Source\PSoC5/isr_SW_Rst.c ****         buttonReleased = 1;
 189:Generated_Source\PSoC5/isr_SW_Rst.c ****     }
 190:Generated_Source\PSoC5/isr_SW_Rst.c ****     /* `#END` */
 191:Generated_Source\PSoC5/isr_SW_Rst.c **** }
 188              		.loc 1 191 0
 189 0030 08E0     		b	.L11
 190              	.L9:
 186:Generated_Source\PSoC5/isr_SW_Rst.c ****         buttonPressed = 0;
 191              		.loc 1 186 0
 192 0032 0120     		movs	r0, #1
 193 0034 FFF7FEFF 		bl	LED_GRN_Write
 187:Generated_Source\PSoC5/isr_SW_Rst.c ****         buttonReleased = 1;
 194              		.loc 1 187 0
 195 0038 044B     		ldr	r3, .L12
 196 003a 0022     		movs	r2, #0
 197 003c 1A70     		strb	r2, [r3]
 188:Generated_Source\PSoC5/isr_SW_Rst.c ****     }
 198              		.loc 1 188 0
 199 003e 044B     		ldr	r3, .L12+4
 200 0040 0122     		movs	r2, #1
 201 0042 1A70     		strb	r2, [r3]
 202              	.L11:
 203              		.loc 1 191 0
 204 0044 00BF     		nop
 205 0046 0837     		adds	r7, r7, #8
ARM GAS  C:\Users\Rajesh\AppData\Local\Temp\ccxRzy8e.s 			page 8


 206              		.cfi_def_cfa_offset 8
 207 0048 BD46     		mov	sp, r7
 208              		.cfi_def_cfa_register 13
 209              		@ sp needed
 210 004a 80BD     		pop	{r7, pc}
 211              	.L13:
 212              		.align	2
 213              	.L12:
 214 004c 00000000 		.word	buttonPressed
 215 0050 00000000 		.word	buttonReleased
 216 0054 00000000 		.word	buttonDuration
 217              		.cfi_endproc
 218              	.LFE66:
 219              		.size	isr_SW_Rst_Interrupt, .-isr_SW_Rst_Interrupt
 220              		.section	.text.isr_SW_Rst_SetVector,"ax",%progbits
 221              		.align	2
 222              		.global	isr_SW_Rst_SetVector
 223              		.thumb
 224              		.thumb_func
 225              		.type	isr_SW_Rst_SetVector, %function
 226              	isr_SW_Rst_SetVector:
 227              	.LFB67:
 192:Generated_Source\PSoC5/isr_SW_Rst.c **** 
 193:Generated_Source\PSoC5/isr_SW_Rst.c **** 
 194:Generated_Source\PSoC5/isr_SW_Rst.c **** /*******************************************************************************
 195:Generated_Source\PSoC5/isr_SW_Rst.c **** * Function Name: isr_SW_Rst_SetVector
 196:Generated_Source\PSoC5/isr_SW_Rst.c **** ********************************************************************************
 197:Generated_Source\PSoC5/isr_SW_Rst.c **** *
 198:Generated_Source\PSoC5/isr_SW_Rst.c **** * Summary:
 199:Generated_Source\PSoC5/isr_SW_Rst.c **** *   Change the ISR vector for the Interrupt. Note calling isr_SW_Rst_Start
 200:Generated_Source\PSoC5/isr_SW_Rst.c **** *   will override any effect this method would have had. To set the vector 
 201:Generated_Source\PSoC5/isr_SW_Rst.c **** *   before the component has been started use isr_SW_Rst_StartEx instead.
 202:Generated_Source\PSoC5/isr_SW_Rst.c **** * 
 203:Generated_Source\PSoC5/isr_SW_Rst.c **** *   When defining ISR functions, the CY_ISR and CY_ISR_PROTO macros should be 
 204:Generated_Source\PSoC5/isr_SW_Rst.c **** *   used to provide consistent definition across compilers:
 205:Generated_Source\PSoC5/isr_SW_Rst.c **** *
 206:Generated_Source\PSoC5/isr_SW_Rst.c **** *   Function definition example:
 207:Generated_Source\PSoC5/isr_SW_Rst.c **** *   CY_ISR(MyISR)
 208:Generated_Source\PSoC5/isr_SW_Rst.c **** *   {
 209:Generated_Source\PSoC5/isr_SW_Rst.c **** *   }
 210:Generated_Source\PSoC5/isr_SW_Rst.c **** *
 211:Generated_Source\PSoC5/isr_SW_Rst.c **** *   Function prototype example:
 212:Generated_Source\PSoC5/isr_SW_Rst.c **** *     CY_ISR_PROTO(MyISR);
 213:Generated_Source\PSoC5/isr_SW_Rst.c **** *
 214:Generated_Source\PSoC5/isr_SW_Rst.c **** * Parameters:
 215:Generated_Source\PSoC5/isr_SW_Rst.c **** *   address: Address of the ISR to set in the interrupt vector table.
 216:Generated_Source\PSoC5/isr_SW_Rst.c **** *
 217:Generated_Source\PSoC5/isr_SW_Rst.c **** * Return:
 218:Generated_Source\PSoC5/isr_SW_Rst.c **** *   None
 219:Generated_Source\PSoC5/isr_SW_Rst.c **** *
 220:Generated_Source\PSoC5/isr_SW_Rst.c **** *******************************************************************************/
 221:Generated_Source\PSoC5/isr_SW_Rst.c **** void isr_SW_Rst_SetVector(cyisraddress address)
 222:Generated_Source\PSoC5/isr_SW_Rst.c **** {
 228              		.loc 1 222 0
 229              		.cfi_startproc
 230              		@ args = 0, pretend = 0, frame = 16
 231              		@ frame_needed = 1, uses_anonymous_args = 0
ARM GAS  C:\Users\Rajesh\AppData\Local\Temp\ccxRzy8e.s 			page 9


 232              		@ link register save eliminated.
 233 0000 80B4     		push	{r7}
 234              		.cfi_def_cfa_offset 4
 235              		.cfi_offset 7, -4
 236 0002 85B0     		sub	sp, sp, #20
 237              		.cfi_def_cfa_offset 24
 238 0004 00AF     		add	r7, sp, #0
 239              		.cfi_def_cfa_register 7
 240 0006 7860     		str	r0, [r7, #4]
 223:Generated_Source\PSoC5/isr_SW_Rst.c ****     cyisraddress * ramVectorTable;
 224:Generated_Source\PSoC5/isr_SW_Rst.c **** 
 225:Generated_Source\PSoC5/isr_SW_Rst.c ****     ramVectorTable = (cyisraddress *) *CYINT_VECT_TABLE;
 241              		.loc 1 225 0
 242 0008 054B     		ldr	r3, .L15
 243 000a 1B68     		ldr	r3, [r3]
 244 000c FB60     		str	r3, [r7, #12]
 226:Generated_Source\PSoC5/isr_SW_Rst.c **** 
 227:Generated_Source\PSoC5/isr_SW_Rst.c ****     ramVectorTable[CYINT_IRQ_BASE + (uint32)isr_SW_Rst__INTC_NUMBER] = address;
 245              		.loc 1 227 0
 246 000e FB68     		ldr	r3, [r7, #12]
 247 0010 6433     		adds	r3, r3, #100
 248 0012 7A68     		ldr	r2, [r7, #4]
 249 0014 1A60     		str	r2, [r3]
 228:Generated_Source\PSoC5/isr_SW_Rst.c **** }
 250              		.loc 1 228 0
 251 0016 00BF     		nop
 252 0018 1437     		adds	r7, r7, #20
 253              		.cfi_def_cfa_offset 4
 254 001a BD46     		mov	sp, r7
 255              		.cfi_def_cfa_register 13
 256              		@ sp needed
 257 001c 80BC     		pop	{r7}
 258              		.cfi_restore 7
 259              		.cfi_def_cfa_offset 0
 260 001e 7047     		bx	lr
 261              	.L16:
 262              		.align	2
 263              	.L15:
 264 0020 08ED00E0 		.word	-536810232
 265              		.cfi_endproc
 266              	.LFE67:
 267              		.size	isr_SW_Rst_SetVector, .-isr_SW_Rst_SetVector
 268              		.section	.text.isr_SW_Rst_GetVector,"ax",%progbits
 269              		.align	2
 270              		.global	isr_SW_Rst_GetVector
 271              		.thumb
 272              		.thumb_func
 273              		.type	isr_SW_Rst_GetVector, %function
 274              	isr_SW_Rst_GetVector:
 275              	.LFB68:
 229:Generated_Source\PSoC5/isr_SW_Rst.c **** 
 230:Generated_Source\PSoC5/isr_SW_Rst.c **** 
 231:Generated_Source\PSoC5/isr_SW_Rst.c **** /*******************************************************************************
 232:Generated_Source\PSoC5/isr_SW_Rst.c **** * Function Name: isr_SW_Rst_GetVector
 233:Generated_Source\PSoC5/isr_SW_Rst.c **** ********************************************************************************
 234:Generated_Source\PSoC5/isr_SW_Rst.c **** *
 235:Generated_Source\PSoC5/isr_SW_Rst.c **** * Summary:
ARM GAS  C:\Users\Rajesh\AppData\Local\Temp\ccxRzy8e.s 			page 10


 236:Generated_Source\PSoC5/isr_SW_Rst.c **** *   Gets the "address" of the current ISR vector for the Interrupt.
 237:Generated_Source\PSoC5/isr_SW_Rst.c **** *
 238:Generated_Source\PSoC5/isr_SW_Rst.c **** * Parameters:
 239:Generated_Source\PSoC5/isr_SW_Rst.c **** *   None
 240:Generated_Source\PSoC5/isr_SW_Rst.c **** *
 241:Generated_Source\PSoC5/isr_SW_Rst.c **** * Return:
 242:Generated_Source\PSoC5/isr_SW_Rst.c **** *   Address of the ISR in the interrupt vector table.
 243:Generated_Source\PSoC5/isr_SW_Rst.c **** *
 244:Generated_Source\PSoC5/isr_SW_Rst.c **** *******************************************************************************/
 245:Generated_Source\PSoC5/isr_SW_Rst.c **** cyisraddress isr_SW_Rst_GetVector(void)
 246:Generated_Source\PSoC5/isr_SW_Rst.c **** {
 276              		.loc 1 246 0
 277              		.cfi_startproc
 278              		@ args = 0, pretend = 0, frame = 8
 279              		@ frame_needed = 1, uses_anonymous_args = 0
 280              		@ link register save eliminated.
 281 0000 80B4     		push	{r7}
 282              		.cfi_def_cfa_offset 4
 283              		.cfi_offset 7, -4
 284 0002 83B0     		sub	sp, sp, #12
 285              		.cfi_def_cfa_offset 16
 286 0004 00AF     		add	r7, sp, #0
 287              		.cfi_def_cfa_register 7
 247:Generated_Source\PSoC5/isr_SW_Rst.c ****     cyisraddress * ramVectorTable;
 248:Generated_Source\PSoC5/isr_SW_Rst.c **** 
 249:Generated_Source\PSoC5/isr_SW_Rst.c ****     ramVectorTable = (cyisraddress *) *CYINT_VECT_TABLE;
 288              		.loc 1 249 0
 289 0006 054B     		ldr	r3, .L19
 290 0008 1B68     		ldr	r3, [r3]
 291 000a 7B60     		str	r3, [r7, #4]
 250:Generated_Source\PSoC5/isr_SW_Rst.c **** 
 251:Generated_Source\PSoC5/isr_SW_Rst.c ****     return ramVectorTable[CYINT_IRQ_BASE + (uint32)isr_SW_Rst__INTC_NUMBER];
 292              		.loc 1 251 0
 293 000c 7B68     		ldr	r3, [r7, #4]
 294 000e 5B6E     		ldr	r3, [r3, #100]
 252:Generated_Source\PSoC5/isr_SW_Rst.c **** }
 295              		.loc 1 252 0
 296 0010 1846     		mov	r0, r3
 297 0012 0C37     		adds	r7, r7, #12
 298              		.cfi_def_cfa_offset 4
 299 0014 BD46     		mov	sp, r7
 300              		.cfi_def_cfa_register 13
 301              		@ sp needed
 302 0016 80BC     		pop	{r7}
 303              		.cfi_restore 7
 304              		.cfi_def_cfa_offset 0
 305 0018 7047     		bx	lr
 306              	.L20:
 307 001a 00BF     		.align	2
 308              	.L19:
 309 001c 08ED00E0 		.word	-536810232
 310              		.cfi_endproc
 311              	.LFE68:
 312              		.size	isr_SW_Rst_GetVector, .-isr_SW_Rst_GetVector
 313              		.section	.text.isr_SW_Rst_SetPriority,"ax",%progbits
 314              		.align	2
 315              		.global	isr_SW_Rst_SetPriority
ARM GAS  C:\Users\Rajesh\AppData\Local\Temp\ccxRzy8e.s 			page 11


 316              		.thumb
 317              		.thumb_func
 318              		.type	isr_SW_Rst_SetPriority, %function
 319              	isr_SW_Rst_SetPriority:
 320              	.LFB69:
 253:Generated_Source\PSoC5/isr_SW_Rst.c **** 
 254:Generated_Source\PSoC5/isr_SW_Rst.c **** 
 255:Generated_Source\PSoC5/isr_SW_Rst.c **** /*******************************************************************************
 256:Generated_Source\PSoC5/isr_SW_Rst.c **** * Function Name: isr_SW_Rst_SetPriority
 257:Generated_Source\PSoC5/isr_SW_Rst.c **** ********************************************************************************
 258:Generated_Source\PSoC5/isr_SW_Rst.c **** *
 259:Generated_Source\PSoC5/isr_SW_Rst.c **** * Summary:
 260:Generated_Source\PSoC5/isr_SW_Rst.c **** *   Sets the Priority of the Interrupt. 
 261:Generated_Source\PSoC5/isr_SW_Rst.c **** *
 262:Generated_Source\PSoC5/isr_SW_Rst.c **** *   Note calling isr_SW_Rst_Start or isr_SW_Rst_StartEx will 
 263:Generated_Source\PSoC5/isr_SW_Rst.c **** *   override any effect this API would have had. This API should only be called
 264:Generated_Source\PSoC5/isr_SW_Rst.c **** *   after isr_SW_Rst_Start or isr_SW_Rst_StartEx has been called. 
 265:Generated_Source\PSoC5/isr_SW_Rst.c **** *   To set the initial priority for the component, use the Design-Wide Resources
 266:Generated_Source\PSoC5/isr_SW_Rst.c **** *   Interrupt Editor.
 267:Generated_Source\PSoC5/isr_SW_Rst.c **** *
 268:Generated_Source\PSoC5/isr_SW_Rst.c **** *   Note This API has no effect on Non-maskable interrupt NMI).
 269:Generated_Source\PSoC5/isr_SW_Rst.c **** *
 270:Generated_Source\PSoC5/isr_SW_Rst.c **** * Parameters:
 271:Generated_Source\PSoC5/isr_SW_Rst.c **** *   priority: Priority of the interrupt, 0 being the highest priority
 272:Generated_Source\PSoC5/isr_SW_Rst.c **** *             PSoC 3 and PSoC 5LP: Priority is from 0 to 7.
 273:Generated_Source\PSoC5/isr_SW_Rst.c **** *             PSoC 4: Priority is from 0 to 3.
 274:Generated_Source\PSoC5/isr_SW_Rst.c **** *
 275:Generated_Source\PSoC5/isr_SW_Rst.c **** * Return:
 276:Generated_Source\PSoC5/isr_SW_Rst.c **** *   None
 277:Generated_Source\PSoC5/isr_SW_Rst.c **** *
 278:Generated_Source\PSoC5/isr_SW_Rst.c **** *******************************************************************************/
 279:Generated_Source\PSoC5/isr_SW_Rst.c **** void isr_SW_Rst_SetPriority(uint8 priority)
 280:Generated_Source\PSoC5/isr_SW_Rst.c **** {
 321              		.loc 1 280 0
 322              		.cfi_startproc
 323              		@ args = 0, pretend = 0, frame = 8
 324              		@ frame_needed = 1, uses_anonymous_args = 0
 325              		@ link register save eliminated.
 326 0000 80B4     		push	{r7}
 327              		.cfi_def_cfa_offset 4
 328              		.cfi_offset 7, -4
 329 0002 83B0     		sub	sp, sp, #12
 330              		.cfi_def_cfa_offset 16
 331 0004 00AF     		add	r7, sp, #0
 332              		.cfi_def_cfa_register 7
 333 0006 0346     		mov	r3, r0
 334 0008 FB71     		strb	r3, [r7, #7]
 281:Generated_Source\PSoC5/isr_SW_Rst.c ****     *isr_SW_Rst_INTC_PRIOR = priority << 5;
 335              		.loc 1 281 0
 336 000a 054A     		ldr	r2, .L22
 337 000c FB79     		ldrb	r3, [r7, #7]
 338 000e 5B01     		lsls	r3, r3, #5
 339 0010 DBB2     		uxtb	r3, r3
 340 0012 1370     		strb	r3, [r2]
 282:Generated_Source\PSoC5/isr_SW_Rst.c **** }
 341              		.loc 1 282 0
 342 0014 00BF     		nop
ARM GAS  C:\Users\Rajesh\AppData\Local\Temp\ccxRzy8e.s 			page 12


 343 0016 0C37     		adds	r7, r7, #12
 344              		.cfi_def_cfa_offset 4
 345 0018 BD46     		mov	sp, r7
 346              		.cfi_def_cfa_register 13
 347              		@ sp needed
 348 001a 80BC     		pop	{r7}
 349              		.cfi_restore 7
 350              		.cfi_def_cfa_offset 0
 351 001c 7047     		bx	lr
 352              	.L23:
 353 001e 00BF     		.align	2
 354              	.L22:
 355 0020 09E400E0 		.word	-536812535
 356              		.cfi_endproc
 357              	.LFE69:
 358              		.size	isr_SW_Rst_SetPriority, .-isr_SW_Rst_SetPriority
 359              		.section	.text.isr_SW_Rst_GetPriority,"ax",%progbits
 360              		.align	2
 361              		.global	isr_SW_Rst_GetPriority
 362              		.thumb
 363              		.thumb_func
 364              		.type	isr_SW_Rst_GetPriority, %function
 365              	isr_SW_Rst_GetPriority:
 366              	.LFB70:
 283:Generated_Source\PSoC5/isr_SW_Rst.c **** 
 284:Generated_Source\PSoC5/isr_SW_Rst.c **** 
 285:Generated_Source\PSoC5/isr_SW_Rst.c **** /*******************************************************************************
 286:Generated_Source\PSoC5/isr_SW_Rst.c **** * Function Name: isr_SW_Rst_GetPriority
 287:Generated_Source\PSoC5/isr_SW_Rst.c **** ********************************************************************************
 288:Generated_Source\PSoC5/isr_SW_Rst.c **** *
 289:Generated_Source\PSoC5/isr_SW_Rst.c **** * Summary:
 290:Generated_Source\PSoC5/isr_SW_Rst.c **** *   Gets the Priority of the Interrupt.
 291:Generated_Source\PSoC5/isr_SW_Rst.c **** *
 292:Generated_Source\PSoC5/isr_SW_Rst.c **** * Parameters:
 293:Generated_Source\PSoC5/isr_SW_Rst.c **** *   None
 294:Generated_Source\PSoC5/isr_SW_Rst.c **** *
 295:Generated_Source\PSoC5/isr_SW_Rst.c **** * Return:
 296:Generated_Source\PSoC5/isr_SW_Rst.c **** *   Priority of the interrupt, 0 being the highest priority
 297:Generated_Source\PSoC5/isr_SW_Rst.c **** *    PSoC 3 and PSoC 5LP: Priority is from 0 to 7.
 298:Generated_Source\PSoC5/isr_SW_Rst.c **** *    PSoC 4: Priority is from 0 to 3.
 299:Generated_Source\PSoC5/isr_SW_Rst.c **** *
 300:Generated_Source\PSoC5/isr_SW_Rst.c **** *******************************************************************************/
 301:Generated_Source\PSoC5/isr_SW_Rst.c **** uint8 isr_SW_Rst_GetPriority(void)
 302:Generated_Source\PSoC5/isr_SW_Rst.c **** {
 367              		.loc 1 302 0
 368              		.cfi_startproc
 369              		@ args = 0, pretend = 0, frame = 8
 370              		@ frame_needed = 1, uses_anonymous_args = 0
 371              		@ link register save eliminated.
 372 0000 80B4     		push	{r7}
 373              		.cfi_def_cfa_offset 4
 374              		.cfi_offset 7, -4
 375 0002 83B0     		sub	sp, sp, #12
 376              		.cfi_def_cfa_offset 16
 377 0004 00AF     		add	r7, sp, #0
 378              		.cfi_def_cfa_register 7
 303:Generated_Source\PSoC5/isr_SW_Rst.c ****     uint8 priority;
ARM GAS  C:\Users\Rajesh\AppData\Local\Temp\ccxRzy8e.s 			page 13


 304:Generated_Source\PSoC5/isr_SW_Rst.c **** 
 305:Generated_Source\PSoC5/isr_SW_Rst.c **** 
 306:Generated_Source\PSoC5/isr_SW_Rst.c ****     priority = *isr_SW_Rst_INTC_PRIOR >> 5;
 379              		.loc 1 306 0
 380 0006 054B     		ldr	r3, .L26
 381 0008 1B78     		ldrb	r3, [r3]
 382 000a DBB2     		uxtb	r3, r3
 383 000c 5B09     		lsrs	r3, r3, #5
 384 000e FB71     		strb	r3, [r7, #7]
 307:Generated_Source\PSoC5/isr_SW_Rst.c **** 
 308:Generated_Source\PSoC5/isr_SW_Rst.c ****     return priority;
 385              		.loc 1 308 0
 386 0010 FB79     		ldrb	r3, [r7, #7]	@ zero_extendqisi2
 309:Generated_Source\PSoC5/isr_SW_Rst.c **** }
 387              		.loc 1 309 0
 388 0012 1846     		mov	r0, r3
 389 0014 0C37     		adds	r7, r7, #12
 390              		.cfi_def_cfa_offset 4
 391 0016 BD46     		mov	sp, r7
 392              		.cfi_def_cfa_register 13
 393              		@ sp needed
 394 0018 80BC     		pop	{r7}
 395              		.cfi_restore 7
 396              		.cfi_def_cfa_offset 0
 397 001a 7047     		bx	lr
 398              	.L27:
 399              		.align	2
 400              	.L26:
 401 001c 09E400E0 		.word	-536812535
 402              		.cfi_endproc
 403              	.LFE70:
 404              		.size	isr_SW_Rst_GetPriority, .-isr_SW_Rst_GetPriority
 405              		.section	.text.isr_SW_Rst_Enable,"ax",%progbits
 406              		.align	2
 407              		.global	isr_SW_Rst_Enable
 408              		.thumb
 409              		.thumb_func
 410              		.type	isr_SW_Rst_Enable, %function
 411              	isr_SW_Rst_Enable:
 412              	.LFB71:
 310:Generated_Source\PSoC5/isr_SW_Rst.c **** 
 311:Generated_Source\PSoC5/isr_SW_Rst.c **** 
 312:Generated_Source\PSoC5/isr_SW_Rst.c **** /*******************************************************************************
 313:Generated_Source\PSoC5/isr_SW_Rst.c **** * Function Name: isr_SW_Rst_Enable
 314:Generated_Source\PSoC5/isr_SW_Rst.c **** ********************************************************************************
 315:Generated_Source\PSoC5/isr_SW_Rst.c **** *
 316:Generated_Source\PSoC5/isr_SW_Rst.c **** * Summary:
 317:Generated_Source\PSoC5/isr_SW_Rst.c **** *   Enables the interrupt to the interrupt controller. Do not call this function
 318:Generated_Source\PSoC5/isr_SW_Rst.c **** *   unless ISR_Start() has been called or the functionality of the ISR_Start() 
 319:Generated_Source\PSoC5/isr_SW_Rst.c **** *   function, which sets the vector and the priority, has been called.
 320:Generated_Source\PSoC5/isr_SW_Rst.c **** *
 321:Generated_Source\PSoC5/isr_SW_Rst.c **** * Parameters:
 322:Generated_Source\PSoC5/isr_SW_Rst.c **** *   None
 323:Generated_Source\PSoC5/isr_SW_Rst.c **** *
 324:Generated_Source\PSoC5/isr_SW_Rst.c **** * Return:
 325:Generated_Source\PSoC5/isr_SW_Rst.c **** *   None
 326:Generated_Source\PSoC5/isr_SW_Rst.c **** *
ARM GAS  C:\Users\Rajesh\AppData\Local\Temp\ccxRzy8e.s 			page 14


 327:Generated_Source\PSoC5/isr_SW_Rst.c **** *******************************************************************************/
 328:Generated_Source\PSoC5/isr_SW_Rst.c **** void isr_SW_Rst_Enable(void)
 329:Generated_Source\PSoC5/isr_SW_Rst.c **** {
 413              		.loc 1 329 0
 414              		.cfi_startproc
 415              		@ args = 0, pretend = 0, frame = 0
 416              		@ frame_needed = 1, uses_anonymous_args = 0
 417              		@ link register save eliminated.
 418 0000 80B4     		push	{r7}
 419              		.cfi_def_cfa_offset 4
 420              		.cfi_offset 7, -4
 421 0002 00AF     		add	r7, sp, #0
 422              		.cfi_def_cfa_register 7
 330:Generated_Source\PSoC5/isr_SW_Rst.c ****     /* Enable the general interrupt. */
 331:Generated_Source\PSoC5/isr_SW_Rst.c ****     *isr_SW_Rst_INTC_SET_EN = isr_SW_Rst__INTC_MASK;
 423              		.loc 1 331 0
 424 0004 034B     		ldr	r3, .L29
 425 0006 4FF40072 		mov	r2, #512
 426 000a 1A60     		str	r2, [r3]
 332:Generated_Source\PSoC5/isr_SW_Rst.c **** }
 427              		.loc 1 332 0
 428 000c 00BF     		nop
 429 000e BD46     		mov	sp, r7
 430              		.cfi_def_cfa_register 13
 431              		@ sp needed
 432 0010 80BC     		pop	{r7}
 433              		.cfi_restore 7
 434              		.cfi_def_cfa_offset 0
 435 0012 7047     		bx	lr
 436              	.L30:
 437              		.align	2
 438              	.L29:
 439 0014 00E100E0 		.word	-536813312
 440              		.cfi_endproc
 441              	.LFE71:
 442              		.size	isr_SW_Rst_Enable, .-isr_SW_Rst_Enable
 443              		.section	.text.isr_SW_Rst_GetState,"ax",%progbits
 444              		.align	2
 445              		.global	isr_SW_Rst_GetState
 446              		.thumb
 447              		.thumb_func
 448              		.type	isr_SW_Rst_GetState, %function
 449              	isr_SW_Rst_GetState:
 450              	.LFB72:
 333:Generated_Source\PSoC5/isr_SW_Rst.c **** 
 334:Generated_Source\PSoC5/isr_SW_Rst.c **** 
 335:Generated_Source\PSoC5/isr_SW_Rst.c **** /*******************************************************************************
 336:Generated_Source\PSoC5/isr_SW_Rst.c **** * Function Name: isr_SW_Rst_GetState
 337:Generated_Source\PSoC5/isr_SW_Rst.c **** ********************************************************************************
 338:Generated_Source\PSoC5/isr_SW_Rst.c **** *
 339:Generated_Source\PSoC5/isr_SW_Rst.c **** * Summary:
 340:Generated_Source\PSoC5/isr_SW_Rst.c **** *   Gets the state (enabled, disabled) of the Interrupt.
 341:Generated_Source\PSoC5/isr_SW_Rst.c **** *
 342:Generated_Source\PSoC5/isr_SW_Rst.c **** * Parameters:
 343:Generated_Source\PSoC5/isr_SW_Rst.c **** *   None
 344:Generated_Source\PSoC5/isr_SW_Rst.c **** *
 345:Generated_Source\PSoC5/isr_SW_Rst.c **** * Return:
ARM GAS  C:\Users\Rajesh\AppData\Local\Temp\ccxRzy8e.s 			page 15


 346:Generated_Source\PSoC5/isr_SW_Rst.c **** *   1 if enabled, 0 if disabled.
 347:Generated_Source\PSoC5/isr_SW_Rst.c **** *
 348:Generated_Source\PSoC5/isr_SW_Rst.c **** *******************************************************************************/
 349:Generated_Source\PSoC5/isr_SW_Rst.c **** uint8 isr_SW_Rst_GetState(void)
 350:Generated_Source\PSoC5/isr_SW_Rst.c **** {
 451              		.loc 1 350 0
 452              		.cfi_startproc
 453              		@ args = 0, pretend = 0, frame = 0
 454              		@ frame_needed = 1, uses_anonymous_args = 0
 455              		@ link register save eliminated.
 456 0000 80B4     		push	{r7}
 457              		.cfi_def_cfa_offset 4
 458              		.cfi_offset 7, -4
 459 0002 00AF     		add	r7, sp, #0
 460              		.cfi_def_cfa_register 7
 351:Generated_Source\PSoC5/isr_SW_Rst.c ****     /* Get the state of the general interrupt. */
 352:Generated_Source\PSoC5/isr_SW_Rst.c ****     return ((*isr_SW_Rst_INTC_SET_EN & (uint32)isr_SW_Rst__INTC_MASK) != 0u) ? 1u:0u;
 461              		.loc 1 352 0
 462 0004 064B     		ldr	r3, .L35
 463 0006 1B68     		ldr	r3, [r3]
 464 0008 03F40073 		and	r3, r3, #512
 465 000c 002B     		cmp	r3, #0
 466 000e 01D0     		beq	.L32
 467              		.loc 1 352 0 is_stmt 0 discriminator 1
 468 0010 0123     		movs	r3, #1
 469 0012 00E0     		b	.L33
 470              	.L32:
 471              		.loc 1 352 0 discriminator 2
 472 0014 0023     		movs	r3, #0
 473              	.L33:
 353:Generated_Source\PSoC5/isr_SW_Rst.c **** }
 474              		.loc 1 353 0 is_stmt 1 discriminator 4
 475 0016 1846     		mov	r0, r3
 476 0018 BD46     		mov	sp, r7
 477              		.cfi_def_cfa_register 13
 478              		@ sp needed
 479 001a 80BC     		pop	{r7}
 480              		.cfi_restore 7
 481              		.cfi_def_cfa_offset 0
 482 001c 7047     		bx	lr
 483              	.L36:
 484 001e 00BF     		.align	2
 485              	.L35:
 486 0020 00E100E0 		.word	-536813312
 487              		.cfi_endproc
 488              	.LFE72:
 489              		.size	isr_SW_Rst_GetState, .-isr_SW_Rst_GetState
 490              		.section	.text.isr_SW_Rst_Disable,"ax",%progbits
 491              		.align	2
 492              		.global	isr_SW_Rst_Disable
 493              		.thumb
 494              		.thumb_func
 495              		.type	isr_SW_Rst_Disable, %function
 496              	isr_SW_Rst_Disable:
 497              	.LFB73:
 354:Generated_Source\PSoC5/isr_SW_Rst.c **** 
 355:Generated_Source\PSoC5/isr_SW_Rst.c **** 
ARM GAS  C:\Users\Rajesh\AppData\Local\Temp\ccxRzy8e.s 			page 16


 356:Generated_Source\PSoC5/isr_SW_Rst.c **** /*******************************************************************************
 357:Generated_Source\PSoC5/isr_SW_Rst.c **** * Function Name: isr_SW_Rst_Disable
 358:Generated_Source\PSoC5/isr_SW_Rst.c **** ********************************************************************************
 359:Generated_Source\PSoC5/isr_SW_Rst.c **** *
 360:Generated_Source\PSoC5/isr_SW_Rst.c **** * Summary:
 361:Generated_Source\PSoC5/isr_SW_Rst.c **** *   Disables the Interrupt in the interrupt controller.
 362:Generated_Source\PSoC5/isr_SW_Rst.c **** *
 363:Generated_Source\PSoC5/isr_SW_Rst.c **** * Parameters:
 364:Generated_Source\PSoC5/isr_SW_Rst.c **** *   None
 365:Generated_Source\PSoC5/isr_SW_Rst.c **** *
 366:Generated_Source\PSoC5/isr_SW_Rst.c **** * Return:
 367:Generated_Source\PSoC5/isr_SW_Rst.c **** *   None
 368:Generated_Source\PSoC5/isr_SW_Rst.c **** *
 369:Generated_Source\PSoC5/isr_SW_Rst.c **** *******************************************************************************/
 370:Generated_Source\PSoC5/isr_SW_Rst.c **** void isr_SW_Rst_Disable(void)
 371:Generated_Source\PSoC5/isr_SW_Rst.c **** {
 498              		.loc 1 371 0
 499              		.cfi_startproc
 500              		@ args = 0, pretend = 0, frame = 0
 501              		@ frame_needed = 1, uses_anonymous_args = 0
 502              		@ link register save eliminated.
 503 0000 80B4     		push	{r7}
 504              		.cfi_def_cfa_offset 4
 505              		.cfi_offset 7, -4
 506 0002 00AF     		add	r7, sp, #0
 507              		.cfi_def_cfa_register 7
 372:Generated_Source\PSoC5/isr_SW_Rst.c ****     /* Disable the general interrupt. */
 373:Generated_Source\PSoC5/isr_SW_Rst.c ****     *isr_SW_Rst_INTC_CLR_EN = isr_SW_Rst__INTC_MASK;
 508              		.loc 1 373 0
 509 0004 034B     		ldr	r3, .L38
 510 0006 4FF40072 		mov	r2, #512
 511 000a 1A60     		str	r2, [r3]
 374:Generated_Source\PSoC5/isr_SW_Rst.c **** }
 512              		.loc 1 374 0
 513 000c 00BF     		nop
 514 000e BD46     		mov	sp, r7
 515              		.cfi_def_cfa_register 13
 516              		@ sp needed
 517 0010 80BC     		pop	{r7}
 518              		.cfi_restore 7
 519              		.cfi_def_cfa_offset 0
 520 0012 7047     		bx	lr
 521              	.L39:
 522              		.align	2
 523              	.L38:
 524 0014 80E100E0 		.word	-536813184
 525              		.cfi_endproc
 526              	.LFE73:
 527              		.size	isr_SW_Rst_Disable, .-isr_SW_Rst_Disable
 528              		.section	.text.isr_SW_Rst_SetPending,"ax",%progbits
 529              		.align	2
 530              		.global	isr_SW_Rst_SetPending
 531              		.thumb
 532              		.thumb_func
 533              		.type	isr_SW_Rst_SetPending, %function
 534              	isr_SW_Rst_SetPending:
 535              	.LFB74:
ARM GAS  C:\Users\Rajesh\AppData\Local\Temp\ccxRzy8e.s 			page 17


 375:Generated_Source\PSoC5/isr_SW_Rst.c **** 
 376:Generated_Source\PSoC5/isr_SW_Rst.c **** 
 377:Generated_Source\PSoC5/isr_SW_Rst.c **** /*******************************************************************************
 378:Generated_Source\PSoC5/isr_SW_Rst.c **** * Function Name: isr_SW_Rst_SetPending
 379:Generated_Source\PSoC5/isr_SW_Rst.c **** ********************************************************************************
 380:Generated_Source\PSoC5/isr_SW_Rst.c **** *
 381:Generated_Source\PSoC5/isr_SW_Rst.c **** * Summary:
 382:Generated_Source\PSoC5/isr_SW_Rst.c **** *   Causes the Interrupt to enter the pending state, a software method of
 383:Generated_Source\PSoC5/isr_SW_Rst.c **** *   generating the interrupt.
 384:Generated_Source\PSoC5/isr_SW_Rst.c **** *
 385:Generated_Source\PSoC5/isr_SW_Rst.c **** * Parameters:
 386:Generated_Source\PSoC5/isr_SW_Rst.c **** *   None
 387:Generated_Source\PSoC5/isr_SW_Rst.c **** *
 388:Generated_Source\PSoC5/isr_SW_Rst.c **** * Return:
 389:Generated_Source\PSoC5/isr_SW_Rst.c **** *   None
 390:Generated_Source\PSoC5/isr_SW_Rst.c **** *
 391:Generated_Source\PSoC5/isr_SW_Rst.c **** * Side Effects:
 392:Generated_Source\PSoC5/isr_SW_Rst.c **** *   If interrupts are enabled and the interrupt is set up properly, the ISR is
 393:Generated_Source\PSoC5/isr_SW_Rst.c **** *   entered (depending on the priority of this interrupt and other pending 
 394:Generated_Source\PSoC5/isr_SW_Rst.c **** *   interrupts).
 395:Generated_Source\PSoC5/isr_SW_Rst.c **** *
 396:Generated_Source\PSoC5/isr_SW_Rst.c **** *******************************************************************************/
 397:Generated_Source\PSoC5/isr_SW_Rst.c **** void isr_SW_Rst_SetPending(void)
 398:Generated_Source\PSoC5/isr_SW_Rst.c **** {
 536              		.loc 1 398 0
 537              		.cfi_startproc
 538              		@ args = 0, pretend = 0, frame = 0
 539              		@ frame_needed = 1, uses_anonymous_args = 0
 540              		@ link register save eliminated.
 541 0000 80B4     		push	{r7}
 542              		.cfi_def_cfa_offset 4
 543              		.cfi_offset 7, -4
 544 0002 00AF     		add	r7, sp, #0
 545              		.cfi_def_cfa_register 7
 399:Generated_Source\PSoC5/isr_SW_Rst.c ****     *isr_SW_Rst_INTC_SET_PD = isr_SW_Rst__INTC_MASK;
 546              		.loc 1 399 0
 547 0004 034B     		ldr	r3, .L41
 548 0006 4FF40072 		mov	r2, #512
 549 000a 1A60     		str	r2, [r3]
 400:Generated_Source\PSoC5/isr_SW_Rst.c **** }
 550              		.loc 1 400 0
 551 000c 00BF     		nop
 552 000e BD46     		mov	sp, r7
 553              		.cfi_def_cfa_register 13
 554              		@ sp needed
 555 0010 80BC     		pop	{r7}
 556              		.cfi_restore 7
 557              		.cfi_def_cfa_offset 0
 558 0012 7047     		bx	lr
 559              	.L42:
 560              		.align	2
 561              	.L41:
 562 0014 00E200E0 		.word	-536813056
 563              		.cfi_endproc
 564              	.LFE74:
 565              		.size	isr_SW_Rst_SetPending, .-isr_SW_Rst_SetPending
 566              		.section	.text.isr_SW_Rst_ClearPending,"ax",%progbits
ARM GAS  C:\Users\Rajesh\AppData\Local\Temp\ccxRzy8e.s 			page 18


 567              		.align	2
 568              		.global	isr_SW_Rst_ClearPending
 569              		.thumb
 570              		.thumb_func
 571              		.type	isr_SW_Rst_ClearPending, %function
 572              	isr_SW_Rst_ClearPending:
 573              	.LFB75:
 401:Generated_Source\PSoC5/isr_SW_Rst.c **** 
 402:Generated_Source\PSoC5/isr_SW_Rst.c **** 
 403:Generated_Source\PSoC5/isr_SW_Rst.c **** /*******************************************************************************
 404:Generated_Source\PSoC5/isr_SW_Rst.c **** * Function Name: isr_SW_Rst_ClearPending
 405:Generated_Source\PSoC5/isr_SW_Rst.c **** ********************************************************************************
 406:Generated_Source\PSoC5/isr_SW_Rst.c **** *
 407:Generated_Source\PSoC5/isr_SW_Rst.c **** * Summary:
 408:Generated_Source\PSoC5/isr_SW_Rst.c **** *   Clears a pending interrupt in the interrupt controller.
 409:Generated_Source\PSoC5/isr_SW_Rst.c **** *
 410:Generated_Source\PSoC5/isr_SW_Rst.c **** *   Note Some interrupt sources are clear-on-read and require the block 
 411:Generated_Source\PSoC5/isr_SW_Rst.c **** *   interrupt/status register to be read/cleared with the appropriate block API 
 412:Generated_Source\PSoC5/isr_SW_Rst.c **** *   (GPIO, UART, and so on). Otherwise the ISR will continue to remain in 
 413:Generated_Source\PSoC5/isr_SW_Rst.c **** *   pending state even though the interrupt itself is cleared using this API.
 414:Generated_Source\PSoC5/isr_SW_Rst.c **** *
 415:Generated_Source\PSoC5/isr_SW_Rst.c **** * Parameters:
 416:Generated_Source\PSoC5/isr_SW_Rst.c **** *   None
 417:Generated_Source\PSoC5/isr_SW_Rst.c **** *
 418:Generated_Source\PSoC5/isr_SW_Rst.c **** * Return:
 419:Generated_Source\PSoC5/isr_SW_Rst.c **** *   None
 420:Generated_Source\PSoC5/isr_SW_Rst.c **** *
 421:Generated_Source\PSoC5/isr_SW_Rst.c **** *******************************************************************************/
 422:Generated_Source\PSoC5/isr_SW_Rst.c **** void isr_SW_Rst_ClearPending(void)
 423:Generated_Source\PSoC5/isr_SW_Rst.c **** {
 574              		.loc 1 423 0
 575              		.cfi_startproc
 576              		@ args = 0, pretend = 0, frame = 0
 577              		@ frame_needed = 1, uses_anonymous_args = 0
 578              		@ link register save eliminated.
 579 0000 80B4     		push	{r7}
 580              		.cfi_def_cfa_offset 4
 581              		.cfi_offset 7, -4
 582 0002 00AF     		add	r7, sp, #0
 583              		.cfi_def_cfa_register 7
 424:Generated_Source\PSoC5/isr_SW_Rst.c ****     *isr_SW_Rst_INTC_CLR_PD = isr_SW_Rst__INTC_MASK;
 584              		.loc 1 424 0
 585 0004 034B     		ldr	r3, .L44
 586 0006 4FF40072 		mov	r2, #512
 587 000a 1A60     		str	r2, [r3]
 425:Generated_Source\PSoC5/isr_SW_Rst.c **** }
 588              		.loc 1 425 0
 589 000c 00BF     		nop
 590 000e BD46     		mov	sp, r7
 591              		.cfi_def_cfa_register 13
 592              		@ sp needed
 593 0010 80BC     		pop	{r7}
 594              		.cfi_restore 7
 595              		.cfi_def_cfa_offset 0
 596 0012 7047     		bx	lr
 597              	.L45:
 598              		.align	2
ARM GAS  C:\Users\Rajesh\AppData\Local\Temp\ccxRzy8e.s 			page 19


 599              	.L44:
 600 0014 80E200E0 		.word	-536812928
 601              		.cfi_endproc
 602              	.LFE75:
 603              		.size	isr_SW_Rst_ClearPending, .-isr_SW_Rst_ClearPending
 604              		.text
 605              	.Letext0:
 606              		.file 2 "c:\\program files (x86)\\cypress\\psoc creator\\4.2\\psoc creator\\import\\gnu\\arm\\5.4.
 607              		.file 3 "c:\\program files (x86)\\cypress\\psoc creator\\4.2\\psoc creator\\import\\gnu\\arm\\5.4.
 608              		.file 4 "Generated_Source\\PSoC5/cytypes.h"
 609              		.file 5 "./softuart.h"
 610              		.file 6 "Generated_Source\\PSoC5/core_cm3.h"
 611              		.file 7 "./system.h"