ARM GAS  C:\Users\Rajesh\AppData\Local\Temp\ccGFzA0n.s 			page 1


   1              		.syntax unified
   2              		.cpu cortex-m3
   3              		.fpu softvfp
   4              		.eabi_attribute 20, 1
   5              		.eabi_attribute 21, 1
   6              		.eabi_attribute 23, 3
   7              		.eabi_attribute 24, 1
   8              		.eabi_attribute 25, 1
   9              		.eabi_attribute 26, 1
  10              		.eabi_attribute 30, 6
  11              		.eabi_attribute 34, 1
  12              		.eabi_attribute 18, 4
  13              		.thumb
  14              		.syntax unified
  15              		.file	"Tamper_Timer_ISR.c"
  16              		.text
  17              	.Ltext0:
  18              		.cfi_sections	.debug_frame
  19              		.comm	s,40,4
  20              		.comm	currentAccessType,1,1
  21              		.comm	hw_old,1,1
  22              		.comm	tp_old,1,1
  23              		.comm	tamperCR_polarity,4,4
  24              		.comm	tamper_out_polarity,4,4
  25              		.comm	card_ack,4,4
  26              		.comm	card_in_buf,4,4
  27              		.section	.text.Tamper_Timer_ISR_Start,"ax",%progbits
  28              		.align	2
  29              		.global	Tamper_Timer_ISR_Start
  30              		.thumb
  31              		.thumb_func
  32              		.type	Tamper_Timer_ISR_Start, %function
  33              	Tamper_Timer_ISR_Start:
  34              	.LFB63:
  35              		.file 1 "Generated_Source\\PSoC5\\Tamper_Timer_ISR.c"
   1:Generated_Source\PSoC5/Tamper_Timer_ISR.c **** /*******************************************************************************
   2:Generated_Source\PSoC5/Tamper_Timer_ISR.c **** * File Name: Tamper_Timer_ISR.c  
   3:Generated_Source\PSoC5/Tamper_Timer_ISR.c **** * Version 1.70
   4:Generated_Source\PSoC5/Tamper_Timer_ISR.c **** *
   5:Generated_Source\PSoC5/Tamper_Timer_ISR.c **** *  Description:
   6:Generated_Source\PSoC5/Tamper_Timer_ISR.c **** *   API for controlling the state of an interrupt.
   7:Generated_Source\PSoC5/Tamper_Timer_ISR.c **** *
   8:Generated_Source\PSoC5/Tamper_Timer_ISR.c **** *
   9:Generated_Source\PSoC5/Tamper_Timer_ISR.c **** *  Note:
  10:Generated_Source\PSoC5/Tamper_Timer_ISR.c **** *
  11:Generated_Source\PSoC5/Tamper_Timer_ISR.c **** ********************************************************************************
  12:Generated_Source\PSoC5/Tamper_Timer_ISR.c **** * Copyright 2008-2015, Cypress Semiconductor Corporation.  All rights reserved.
  13:Generated_Source\PSoC5/Tamper_Timer_ISR.c **** * You may use this file only in accordance with the license, terms, conditions, 
  14:Generated_Source\PSoC5/Tamper_Timer_ISR.c **** * disclaimers, and limitations in the end user license agreement accompanying 
  15:Generated_Source\PSoC5/Tamper_Timer_ISR.c **** * the software package with which this file was provided.
  16:Generated_Source\PSoC5/Tamper_Timer_ISR.c **** *******************************************************************************/
  17:Generated_Source\PSoC5/Tamper_Timer_ISR.c **** 
  18:Generated_Source\PSoC5/Tamper_Timer_ISR.c **** 
  19:Generated_Source\PSoC5/Tamper_Timer_ISR.c **** #include <cydevice_trm.h>
  20:Generated_Source\PSoC5/Tamper_Timer_ISR.c **** #include <CyLib.h>
  21:Generated_Source\PSoC5/Tamper_Timer_ISR.c **** #include <Tamper_Timer_ISR.h>
  22:Generated_Source\PSoC5/Tamper_Timer_ISR.c **** 
ARM GAS  C:\Users\Rajesh\AppData\Local\Temp\ccGFzA0n.s 			page 2


  23:Generated_Source\PSoC5/Tamper_Timer_ISR.c **** 
  24:Generated_Source\PSoC5/Tamper_Timer_ISR.c **** #if !defined(Tamper_Timer_ISR__REMOVED) /* Check for removal by optimization */
  25:Generated_Source\PSoC5/Tamper_Timer_ISR.c **** 
  26:Generated_Source\PSoC5/Tamper_Timer_ISR.c **** /*******************************************************************************
  27:Generated_Source\PSoC5/Tamper_Timer_ISR.c **** *  Place your includes, defines and code here 
  28:Generated_Source\PSoC5/Tamper_Timer_ISR.c **** ********************************************************************************/
  29:Generated_Source\PSoC5/Tamper_Timer_ISR.c **** /* `#START Tamper_Timer_ISR_intc` */
  30:Generated_Source\PSoC5/Tamper_Timer_ISR.c **** #include "Tamper_Timer.h"
  31:Generated_Source\PSoC5/Tamper_Timer_ISR.c **** #include "inout.h"
  32:Generated_Source\PSoC5/Tamper_Timer_ISR.c **** #include "system.h"
  33:Generated_Source\PSoC5/Tamper_Timer_ISR.c **** #include "PS_D1.h"
  34:Generated_Source\PSoC5/Tamper_Timer_ISR.c **** /* `#END` */
  35:Generated_Source\PSoC5/Tamper_Timer_ISR.c **** 
  36:Generated_Source\PSoC5/Tamper_Timer_ISR.c **** #ifndef CYINT_IRQ_BASE
  37:Generated_Source\PSoC5/Tamper_Timer_ISR.c **** #define CYINT_IRQ_BASE      16
  38:Generated_Source\PSoC5/Tamper_Timer_ISR.c **** #endif /* CYINT_IRQ_BASE */
  39:Generated_Source\PSoC5/Tamper_Timer_ISR.c **** #ifndef CYINT_VECT_TABLE
  40:Generated_Source\PSoC5/Tamper_Timer_ISR.c **** #define CYINT_VECT_TABLE    ((cyisraddress **) CYREG_NVIC_VECT_OFFSET)
  41:Generated_Source\PSoC5/Tamper_Timer_ISR.c **** #endif /* CYINT_VECT_TABLE */
  42:Generated_Source\PSoC5/Tamper_Timer_ISR.c **** 
  43:Generated_Source\PSoC5/Tamper_Timer_ISR.c **** /* Declared in startup, used to set unused interrupts to. */
  44:Generated_Source\PSoC5/Tamper_Timer_ISR.c **** CY_ISR_PROTO(IntDefaultHandler);
  45:Generated_Source\PSoC5/Tamper_Timer_ISR.c **** 
  46:Generated_Source\PSoC5/Tamper_Timer_ISR.c **** 
  47:Generated_Source\PSoC5/Tamper_Timer_ISR.c **** /*******************************************************************************
  48:Generated_Source\PSoC5/Tamper_Timer_ISR.c **** * Function Name: Tamper_Timer_ISR_Start
  49:Generated_Source\PSoC5/Tamper_Timer_ISR.c **** ********************************************************************************
  50:Generated_Source\PSoC5/Tamper_Timer_ISR.c **** *
  51:Generated_Source\PSoC5/Tamper_Timer_ISR.c **** * Summary:
  52:Generated_Source\PSoC5/Tamper_Timer_ISR.c **** *  Set up the interrupt and enable it. This function disables the interrupt, 
  53:Generated_Source\PSoC5/Tamper_Timer_ISR.c **** *  sets the default interrupt vector, sets the priority from the value in the
  54:Generated_Source\PSoC5/Tamper_Timer_ISR.c **** *  Design Wide Resources Interrupt Editor, then enables the interrupt to the 
  55:Generated_Source\PSoC5/Tamper_Timer_ISR.c **** *  interrupt controller.
  56:Generated_Source\PSoC5/Tamper_Timer_ISR.c **** *
  57:Generated_Source\PSoC5/Tamper_Timer_ISR.c **** * Parameters:  
  58:Generated_Source\PSoC5/Tamper_Timer_ISR.c **** *   None
  59:Generated_Source\PSoC5/Tamper_Timer_ISR.c **** *
  60:Generated_Source\PSoC5/Tamper_Timer_ISR.c **** * Return:
  61:Generated_Source\PSoC5/Tamper_Timer_ISR.c **** *   None
  62:Generated_Source\PSoC5/Tamper_Timer_ISR.c **** *
  63:Generated_Source\PSoC5/Tamper_Timer_ISR.c **** *******************************************************************************/
  64:Generated_Source\PSoC5/Tamper_Timer_ISR.c **** void Tamper_Timer_ISR_Start(void)
  65:Generated_Source\PSoC5/Tamper_Timer_ISR.c **** {
  36              		.loc 1 65 0
  37              		.cfi_startproc
  38              		@ args = 0, pretend = 0, frame = 0
  39              		@ frame_needed = 1, uses_anonymous_args = 0
  40 0000 80B5     		push	{r7, lr}
  41              		.cfi_def_cfa_offset 8
  42              		.cfi_offset 7, -8
  43              		.cfi_offset 14, -4
  44 0002 00AF     		add	r7, sp, #0
  45              		.cfi_def_cfa_register 7
  66:Generated_Source\PSoC5/Tamper_Timer_ISR.c ****     /* For all we know the interrupt is active. */
  67:Generated_Source\PSoC5/Tamper_Timer_ISR.c ****     Tamper_Timer_ISR_Disable();
  46              		.loc 1 67 0
  47 0004 FFF7FEFF 		bl	Tamper_Timer_ISR_Disable
ARM GAS  C:\Users\Rajesh\AppData\Local\Temp\ccGFzA0n.s 			page 3


  68:Generated_Source\PSoC5/Tamper_Timer_ISR.c **** 
  69:Generated_Source\PSoC5/Tamper_Timer_ISR.c ****     /* Set the ISR to point to the Tamper_Timer_ISR Interrupt. */
  70:Generated_Source\PSoC5/Tamper_Timer_ISR.c ****     Tamper_Timer_ISR_SetVector(&Tamper_Timer_ISR_Interrupt);
  48              		.loc 1 70 0
  49 0008 0448     		ldr	r0, .L2
  50 000a FFF7FEFF 		bl	Tamper_Timer_ISR_SetVector
  71:Generated_Source\PSoC5/Tamper_Timer_ISR.c **** 
  72:Generated_Source\PSoC5/Tamper_Timer_ISR.c ****     /* Set the priority. */
  73:Generated_Source\PSoC5/Tamper_Timer_ISR.c ****     Tamper_Timer_ISR_SetPriority((uint8)Tamper_Timer_ISR_INTC_PRIOR_NUMBER);
  51              		.loc 1 73 0
  52 000e 0720     		movs	r0, #7
  53 0010 FFF7FEFF 		bl	Tamper_Timer_ISR_SetPriority
  74:Generated_Source\PSoC5/Tamper_Timer_ISR.c **** 
  75:Generated_Source\PSoC5/Tamper_Timer_ISR.c ****     /* Enable it. */
  76:Generated_Source\PSoC5/Tamper_Timer_ISR.c ****     Tamper_Timer_ISR_Enable();
  54              		.loc 1 76 0
  55 0014 FFF7FEFF 		bl	Tamper_Timer_ISR_Enable
  77:Generated_Source\PSoC5/Tamper_Timer_ISR.c **** }
  56              		.loc 1 77 0
  57 0018 00BF     		nop
  58 001a 80BD     		pop	{r7, pc}
  59              	.L3:
  60              		.align	2
  61              	.L2:
  62 001c 00000000 		.word	Tamper_Timer_ISR_Interrupt
  63              		.cfi_endproc
  64              	.LFE63:
  65              		.size	Tamper_Timer_ISR_Start, .-Tamper_Timer_ISR_Start
  66              		.section	.text.Tamper_Timer_ISR_StartEx,"ax",%progbits
  67              		.align	2
  68              		.global	Tamper_Timer_ISR_StartEx
  69              		.thumb
  70              		.thumb_func
  71              		.type	Tamper_Timer_ISR_StartEx, %function
  72              	Tamper_Timer_ISR_StartEx:
  73              	.LFB64:
  78:Generated_Source\PSoC5/Tamper_Timer_ISR.c **** 
  79:Generated_Source\PSoC5/Tamper_Timer_ISR.c **** 
  80:Generated_Source\PSoC5/Tamper_Timer_ISR.c **** /*******************************************************************************
  81:Generated_Source\PSoC5/Tamper_Timer_ISR.c **** * Function Name: Tamper_Timer_ISR_StartEx
  82:Generated_Source\PSoC5/Tamper_Timer_ISR.c **** ********************************************************************************
  83:Generated_Source\PSoC5/Tamper_Timer_ISR.c **** *
  84:Generated_Source\PSoC5/Tamper_Timer_ISR.c **** * Summary:
  85:Generated_Source\PSoC5/Tamper_Timer_ISR.c **** *  Sets up the interrupt and enables it. This function disables the interrupt,
  86:Generated_Source\PSoC5/Tamper_Timer_ISR.c **** *  sets the interrupt vector based on the address passed in, sets the priority 
  87:Generated_Source\PSoC5/Tamper_Timer_ISR.c **** *  from the value in the Design Wide Resources Interrupt Editor, then enables 
  88:Generated_Source\PSoC5/Tamper_Timer_ISR.c **** *  the interrupt to the interrupt controller.
  89:Generated_Source\PSoC5/Tamper_Timer_ISR.c **** *  
  90:Generated_Source\PSoC5/Tamper_Timer_ISR.c **** *  When defining ISR functions, the CY_ISR and CY_ISR_PROTO macros should be 
  91:Generated_Source\PSoC5/Tamper_Timer_ISR.c **** *  used to provide consistent definition across compilers:
  92:Generated_Source\PSoC5/Tamper_Timer_ISR.c **** *  
  93:Generated_Source\PSoC5/Tamper_Timer_ISR.c **** *  Function definition example:
  94:Generated_Source\PSoC5/Tamper_Timer_ISR.c **** *   CY_ISR(MyISR)
  95:Generated_Source\PSoC5/Tamper_Timer_ISR.c **** *   {
  96:Generated_Source\PSoC5/Tamper_Timer_ISR.c **** *   }
  97:Generated_Source\PSoC5/Tamper_Timer_ISR.c **** *   Function prototype example:
  98:Generated_Source\PSoC5/Tamper_Timer_ISR.c **** *   CY_ISR_PROTO(MyISR);
ARM GAS  C:\Users\Rajesh\AppData\Local\Temp\ccGFzA0n.s 			page 4


  99:Generated_Source\PSoC5/Tamper_Timer_ISR.c **** *
 100:Generated_Source\PSoC5/Tamper_Timer_ISR.c **** * Parameters:  
 101:Generated_Source\PSoC5/Tamper_Timer_ISR.c **** *   address: Address of the ISR to set in the interrupt vector table.
 102:Generated_Source\PSoC5/Tamper_Timer_ISR.c **** *
 103:Generated_Source\PSoC5/Tamper_Timer_ISR.c **** * Return:
 104:Generated_Source\PSoC5/Tamper_Timer_ISR.c **** *   None
 105:Generated_Source\PSoC5/Tamper_Timer_ISR.c **** *
 106:Generated_Source\PSoC5/Tamper_Timer_ISR.c **** *******************************************************************************/
 107:Generated_Source\PSoC5/Tamper_Timer_ISR.c **** void Tamper_Timer_ISR_StartEx(cyisraddress address)
 108:Generated_Source\PSoC5/Tamper_Timer_ISR.c **** {
  74              		.loc 1 108 0
  75              		.cfi_startproc
  76              		@ args = 0, pretend = 0, frame = 8
  77              		@ frame_needed = 1, uses_anonymous_args = 0
  78 0000 80B5     		push	{r7, lr}
  79              		.cfi_def_cfa_offset 8
  80              		.cfi_offset 7, -8
  81              		.cfi_offset 14, -4
  82 0002 82B0     		sub	sp, sp, #8
  83              		.cfi_def_cfa_offset 16
  84 0004 00AF     		add	r7, sp, #0
  85              		.cfi_def_cfa_register 7
  86 0006 7860     		str	r0, [r7, #4]
 109:Generated_Source\PSoC5/Tamper_Timer_ISR.c ****     /* For all we know the interrupt is active. */
 110:Generated_Source\PSoC5/Tamper_Timer_ISR.c ****     Tamper_Timer_ISR_Disable();
  87              		.loc 1 110 0
  88 0008 FFF7FEFF 		bl	Tamper_Timer_ISR_Disable
 111:Generated_Source\PSoC5/Tamper_Timer_ISR.c **** 
 112:Generated_Source\PSoC5/Tamper_Timer_ISR.c ****     /* Set the ISR to point to the Tamper_Timer_ISR Interrupt. */
 113:Generated_Source\PSoC5/Tamper_Timer_ISR.c ****     Tamper_Timer_ISR_SetVector(address);
  89              		.loc 1 113 0
  90 000c 7868     		ldr	r0, [r7, #4]
  91 000e FFF7FEFF 		bl	Tamper_Timer_ISR_SetVector
 114:Generated_Source\PSoC5/Tamper_Timer_ISR.c **** 
 115:Generated_Source\PSoC5/Tamper_Timer_ISR.c ****     /* Set the priority. */
 116:Generated_Source\PSoC5/Tamper_Timer_ISR.c ****     Tamper_Timer_ISR_SetPriority((uint8)Tamper_Timer_ISR_INTC_PRIOR_NUMBER);
  92              		.loc 1 116 0
  93 0012 0720     		movs	r0, #7
  94 0014 FFF7FEFF 		bl	Tamper_Timer_ISR_SetPriority
 117:Generated_Source\PSoC5/Tamper_Timer_ISR.c **** 
 118:Generated_Source\PSoC5/Tamper_Timer_ISR.c ****     /* Enable it. */
 119:Generated_Source\PSoC5/Tamper_Timer_ISR.c ****     Tamper_Timer_ISR_Enable();
  95              		.loc 1 119 0
  96 0018 FFF7FEFF 		bl	Tamper_Timer_ISR_Enable
 120:Generated_Source\PSoC5/Tamper_Timer_ISR.c **** }
  97              		.loc 1 120 0
  98 001c 00BF     		nop
  99 001e 0837     		adds	r7, r7, #8
 100              		.cfi_def_cfa_offset 8
 101 0020 BD46     		mov	sp, r7
 102              		.cfi_def_cfa_register 13
 103              		@ sp needed
 104 0022 80BD     		pop	{r7, pc}
 105              		.cfi_endproc
 106              	.LFE64:
 107              		.size	Tamper_Timer_ISR_StartEx, .-Tamper_Timer_ISR_StartEx
 108              		.section	.text.Tamper_Timer_ISR_Stop,"ax",%progbits
ARM GAS  C:\Users\Rajesh\AppData\Local\Temp\ccGFzA0n.s 			page 5


 109              		.align	2
 110              		.global	Tamper_Timer_ISR_Stop
 111              		.thumb
 112              		.thumb_func
 113              		.type	Tamper_Timer_ISR_Stop, %function
 114              	Tamper_Timer_ISR_Stop:
 115              	.LFB65:
 121:Generated_Source\PSoC5/Tamper_Timer_ISR.c **** 
 122:Generated_Source\PSoC5/Tamper_Timer_ISR.c **** 
 123:Generated_Source\PSoC5/Tamper_Timer_ISR.c **** /*******************************************************************************
 124:Generated_Source\PSoC5/Tamper_Timer_ISR.c **** * Function Name: Tamper_Timer_ISR_Stop
 125:Generated_Source\PSoC5/Tamper_Timer_ISR.c **** ********************************************************************************
 126:Generated_Source\PSoC5/Tamper_Timer_ISR.c **** *
 127:Generated_Source\PSoC5/Tamper_Timer_ISR.c **** * Summary:
 128:Generated_Source\PSoC5/Tamper_Timer_ISR.c **** *   Disables and removes the interrupt.
 129:Generated_Source\PSoC5/Tamper_Timer_ISR.c **** *
 130:Generated_Source\PSoC5/Tamper_Timer_ISR.c **** * Parameters:  
 131:Generated_Source\PSoC5/Tamper_Timer_ISR.c **** *   None
 132:Generated_Source\PSoC5/Tamper_Timer_ISR.c **** *
 133:Generated_Source\PSoC5/Tamper_Timer_ISR.c **** * Return:
 134:Generated_Source\PSoC5/Tamper_Timer_ISR.c **** *   None
 135:Generated_Source\PSoC5/Tamper_Timer_ISR.c **** *
 136:Generated_Source\PSoC5/Tamper_Timer_ISR.c **** *******************************************************************************/
 137:Generated_Source\PSoC5/Tamper_Timer_ISR.c **** void Tamper_Timer_ISR_Stop(void)
 138:Generated_Source\PSoC5/Tamper_Timer_ISR.c **** {
 116              		.loc 1 138 0
 117              		.cfi_startproc
 118              		@ args = 0, pretend = 0, frame = 0
 119              		@ frame_needed = 1, uses_anonymous_args = 0
 120 0000 80B5     		push	{r7, lr}
 121              		.cfi_def_cfa_offset 8
 122              		.cfi_offset 7, -8
 123              		.cfi_offset 14, -4
 124 0002 00AF     		add	r7, sp, #0
 125              		.cfi_def_cfa_register 7
 139:Generated_Source\PSoC5/Tamper_Timer_ISR.c ****     /* Disable this interrupt. */
 140:Generated_Source\PSoC5/Tamper_Timer_ISR.c ****     Tamper_Timer_ISR_Disable();
 126              		.loc 1 140 0
 127 0004 FFF7FEFF 		bl	Tamper_Timer_ISR_Disable
 141:Generated_Source\PSoC5/Tamper_Timer_ISR.c **** 
 142:Generated_Source\PSoC5/Tamper_Timer_ISR.c ****     /* Set the ISR to point to the passive one. */
 143:Generated_Source\PSoC5/Tamper_Timer_ISR.c ****     Tamper_Timer_ISR_SetVector(&IntDefaultHandler);
 128              		.loc 1 143 0
 129 0008 0248     		ldr	r0, .L6
 130 000a FFF7FEFF 		bl	Tamper_Timer_ISR_SetVector
 144:Generated_Source\PSoC5/Tamper_Timer_ISR.c **** }
 131              		.loc 1 144 0
 132 000e 00BF     		nop
 133 0010 80BD     		pop	{r7, pc}
 134              	.L7:
 135 0012 00BF     		.align	2
 136              	.L6:
 137 0014 00000000 		.word	IntDefaultHandler
 138              		.cfi_endproc
 139              	.LFE65:
 140              		.size	Tamper_Timer_ISR_Stop, .-Tamper_Timer_ISR_Stop
 141              		.section	.text.Tamper_Timer_ISR_Interrupt,"ax",%progbits
ARM GAS  C:\Users\Rajesh\AppData\Local\Temp\ccGFzA0n.s 			page 6


 142              		.align	2
 143              		.global	Tamper_Timer_ISR_Interrupt
 144              		.thumb
 145              		.thumb_func
 146              		.type	Tamper_Timer_ISR_Interrupt, %function
 147              	Tamper_Timer_ISR_Interrupt:
 148              	.LFB66:
 145:Generated_Source\PSoC5/Tamper_Timer_ISR.c **** 
 146:Generated_Source\PSoC5/Tamper_Timer_ISR.c **** 
 147:Generated_Source\PSoC5/Tamper_Timer_ISR.c **** /*******************************************************************************
 148:Generated_Source\PSoC5/Tamper_Timer_ISR.c **** * Function Name: Tamper_Timer_ISR_Interrupt
 149:Generated_Source\PSoC5/Tamper_Timer_ISR.c **** ********************************************************************************
 150:Generated_Source\PSoC5/Tamper_Timer_ISR.c **** *
 151:Generated_Source\PSoC5/Tamper_Timer_ISR.c **** * Summary:
 152:Generated_Source\PSoC5/Tamper_Timer_ISR.c **** *   The default Interrupt Service Routine for Tamper_Timer_ISR.
 153:Generated_Source\PSoC5/Tamper_Timer_ISR.c **** *
 154:Generated_Source\PSoC5/Tamper_Timer_ISR.c **** *   Add custom code between the coments to keep the next version of this file
 155:Generated_Source\PSoC5/Tamper_Timer_ISR.c **** *   from over writting your code.
 156:Generated_Source\PSoC5/Tamper_Timer_ISR.c **** *
 157:Generated_Source\PSoC5/Tamper_Timer_ISR.c **** * Parameters:  
 158:Generated_Source\PSoC5/Tamper_Timer_ISR.c **** *
 159:Generated_Source\PSoC5/Tamper_Timer_ISR.c **** * Return:
 160:Generated_Source\PSoC5/Tamper_Timer_ISR.c **** *   None
 161:Generated_Source\PSoC5/Tamper_Timer_ISR.c **** *
 162:Generated_Source\PSoC5/Tamper_Timer_ISR.c **** *******************************************************************************/
 163:Generated_Source\PSoC5/Tamper_Timer_ISR.c **** CY_ISR(Tamper_Timer_ISR_Interrupt)
 164:Generated_Source\PSoC5/Tamper_Timer_ISR.c **** {
 149              		.loc 1 164 0
 150              		.cfi_startproc
 151              		@ args = 0, pretend = 0, frame = 0
 152              		@ frame_needed = 1, uses_anonymous_args = 0
 153 0000 80B5     		push	{r7, lr}
 154              		.cfi_def_cfa_offset 8
 155              		.cfi_offset 7, -8
 156              		.cfi_offset 14, -4
 157 0002 00AF     		add	r7, sp, #0
 158              		.cfi_def_cfa_register 7
 165:Generated_Source\PSoC5/Tamper_Timer_ISR.c ****     #ifdef Tamper_Timer_ISR_INTERRUPT_INTERRUPT_CALLBACK
 166:Generated_Source\PSoC5/Tamper_Timer_ISR.c ****         Tamper_Timer_ISR_Interrupt_InterruptCallback();
 167:Generated_Source\PSoC5/Tamper_Timer_ISR.c ****     #endif /* Tamper_Timer_ISR_INTERRUPT_INTERRUPT_CALLBACK */ 
 168:Generated_Source\PSoC5/Tamper_Timer_ISR.c **** 
 169:Generated_Source\PSoC5/Tamper_Timer_ISR.c ****     /*  Place your Interrupt code here. */
 170:Generated_Source\PSoC5/Tamper_Timer_ISR.c ****     /* `#START Tamper_Timer_ISR_Interrupt` */
 171:Generated_Source\PSoC5/Tamper_Timer_ISR.c ****     //This is a 1 ms timer interrupt
 172:Generated_Source\PSoC5/Tamper_Timer_ISR.c ****     Tamper_Timer_ReadStatusRegister();
 159              		.loc 1 172 0
 160 0004 FFF7FEFF 		bl	Tamper_Timer_ReadStatusRegister
 173:Generated_Source\PSoC5/Tamper_Timer_ISR.c ****     
 174:Generated_Source\PSoC5/Tamper_Timer_ISR.c ****     switch(run_mode)
 161              		.loc 1 174 0
 162 0008 2C4B     		ldr	r3, .L20
 163 000a 1B78     		ldrb	r3, [r3]	@ zero_extendqisi2
 164 000c 362B     		cmp	r3, #54
 165 000e 04DC     		bgt	.L10
 166 0010 342B     		cmp	r3, #52
 167 0012 32DA     		bge	.L11
 168 0014 052B     		cmp	r3, #5
ARM GAS  C:\Users\Rajesh\AppData\Local\Temp\ccGFzA0n.s 			page 7


 169 0016 06D0     		beq	.L12
 170 0018 41E0     		b	.L9
 171              	.L10:
 172 001a 382B     		cmp	r3, #56
 173 001c 2DD0     		beq	.L11
 174 001e 382B     		cmp	r3, #56
 175 0020 01DB     		blt	.L12
 176 0022 692B     		cmp	r3, #105
 177 0024 3BD1     		bne	.L9
 178              	.L12:
 175:Generated_Source\PSoC5/Tamper_Timer_ISR.c ****     {
 176:Generated_Source\PSoC5/Tamper_Timer_ISR.c ****         case MODE_F2F:
 177:Generated_Source\PSoC5/Tamper_Timer_ISR.c ****         case MODE_F2F + BASE_TOC:
 178:Generated_Source\PSoC5/Tamper_Timer_ISR.c ****         case MODE_F2F + BASE_PASS:    
 179:Generated_Source\PSoC5/Tamper_Timer_ISR.c ****             if ( f2f_acknowledge_active ){
 179              		.loc 1 179 0
 180 0026 264B     		ldr	r3, .L20+4
 181 0028 1B78     		ldrb	r3, [r3]	@ zero_extendqisi2
 182 002a 002B     		cmp	r3, #0
 183 002c 16D0     		beq	.L13
 180:Generated_Source\PSoC5/Tamper_Timer_ISR.c ****                 f2f_ack_delay_cnt++;
 184              		.loc 1 180 0
 185 002e 254B     		ldr	r3, .L20+8
 186 0030 1B78     		ldrb	r3, [r3]	@ zero_extendqisi2
 187 0032 0133     		adds	r3, r3, #1
 188 0034 DAB2     		uxtb	r2, r3
 189 0036 234B     		ldr	r3, .L20+8
 190 0038 1A70     		strb	r2, [r3]
 181:Generated_Source\PSoC5/Tamper_Timer_ISR.c ****                 if (f2f_ack_delay_cnt == 30){
 191              		.loc 1 181 0
 192 003a 224B     		ldr	r3, .L20+8
 193 003c 1B78     		ldrb	r3, [r3]	@ zero_extendqisi2
 194 003e 1E2B     		cmp	r3, #30
 195 0040 02D1     		bne	.L14
 182:Generated_Source\PSoC5/Tamper_Timer_ISR.c ****                     PS_D1_Write(1);
 196              		.loc 1 182 0
 197 0042 0120     		movs	r0, #1
 198 0044 FFF7FEFF 		bl	PS_D1_Write
 199              	.L14:
 183:Generated_Source\PSoC5/Tamper_Timer_ISR.c ****                 }
 184:Generated_Source\PSoC5/Tamper_Timer_ISR.c ****                 if (f2f_ack_delay_cnt > 35){
 200              		.loc 1 184 0
 201 0048 1E4B     		ldr	r3, .L20+8
 202 004a 1B78     		ldrb	r3, [r3]	@ zero_extendqisi2
 203 004c 232B     		cmp	r3, #35
 204 004e 05D9     		bls	.L13
 185:Generated_Source\PSoC5/Tamper_Timer_ISR.c ****                     PS_D1_Write(0);
 205              		.loc 1 185 0
 206 0050 0020     		movs	r0, #0
 207 0052 FFF7FEFF 		bl	PS_D1_Write
 186:Generated_Source\PSoC5/Tamper_Timer_ISR.c ****                     f2f_acknowledge_active = 0;
 208              		.loc 1 186 0
 209 0056 1A4B     		ldr	r3, .L20+4
 210 0058 0022     		movs	r2, #0
 211 005a 1A70     		strb	r2, [r3]
 212              	.L13:
 187:Generated_Source\PSoC5/Tamper_Timer_ISR.c ****                 }
ARM GAS  C:\Users\Rajesh\AppData\Local\Temp\ccGFzA0n.s 			page 8


 188:Generated_Source\PSoC5/Tamper_Timer_ISR.c ****             }        
 189:Generated_Source\PSoC5/Tamper_Timer_ISR.c ****             f2f_alive_delay_cnt++;
 213              		.loc 1 189 0
 214 005c 1A4B     		ldr	r3, .L20+12
 215 005e 1B68     		ldr	r3, [r3]
 216 0060 0133     		adds	r3, r3, #1
 217 0062 194A     		ldr	r2, .L20+12
 218 0064 1360     		str	r3, [r2]
 190:Generated_Source\PSoC5/Tamper_Timer_ISR.c ****             if ( f2f_alive_delay_cnt == 5000)
 219              		.loc 1 190 0
 220 0066 184B     		ldr	r3, .L20+12
 221 0068 1B68     		ldr	r3, [r3]
 222 006a 41F28832 		movw	r2, #5000
 223 006e 9342     		cmp	r3, r2
 224 0070 12D1     		bne	.L18
 191:Generated_Source\PSoC5/Tamper_Timer_ISR.c ****             {
 192:Generated_Source\PSoC5/Tamper_Timer_ISR.c ****                 f2f_send_alive = 1;
 225              		.loc 1 192 0
 226 0072 164B     		ldr	r3, .L20+16
 227 0074 0122     		movs	r2, #1
 228 0076 1A70     		strb	r2, [r3]
 193:Generated_Source\PSoC5/Tamper_Timer_ISR.c ****             }
 194:Generated_Source\PSoC5/Tamper_Timer_ISR.c ****             break;
 229              		.loc 1 194 0
 230 0078 0EE0     		b	.L18
 231              	.L11:
 195:Generated_Source\PSoC5/Tamper_Timer_ISR.c ****         case BASE_TOC + MODE_WIEGAND:
 196:Generated_Source\PSoC5/Tamper_Timer_ISR.c ****         case BASE_TOC + MODE_PAC:
 197:Generated_Source\PSoC5/Tamper_Timer_ISR.c **** //        case BASE_TOC + MODE_F2F:
 198:Generated_Source\PSoC5/Tamper_Timer_ISR.c ****         case BASE_TOC + MODE_HID:
 199:Generated_Source\PSoC5/Tamper_Timer_ISR.c ****         case BASE_TOC + MODE_OSDP:
 200:Generated_Source\PSoC5/Tamper_Timer_ISR.c ****             debug_msg_delay++;
 232              		.loc 1 200 0
 233 007a 154B     		ldr	r3, .L20+20
 234 007c 1B68     		ldr	r3, [r3]
 235 007e 0133     		adds	r3, r3, #1
 236 0080 134A     		ldr	r2, .L20+20
 237 0082 1360     		str	r3, [r2]
 201:Generated_Source\PSoC5/Tamper_Timer_ISR.c ****             if (debug_msg_delay >= 5000) //5 seconds
 238              		.loc 1 201 0
 239 0084 124B     		ldr	r3, .L20+20
 240 0086 1B68     		ldr	r3, [r3]
 241 0088 41F28732 		movw	r2, #4999
 242 008c 9342     		cmp	r3, r2
 243 008e 05DD     		ble	.L19
 202:Generated_Source\PSoC5/Tamper_Timer_ISR.c ****             {
 203:Generated_Source\PSoC5/Tamper_Timer_ISR.c ****                 debug_msg_delay = 0;
 244              		.loc 1 203 0
 245 0090 0F4B     		ldr	r3, .L20+20
 246 0092 0022     		movs	r2, #0
 247 0094 1A60     		str	r2, [r3]
 204:Generated_Source\PSoC5/Tamper_Timer_ISR.c **** //                sendDebugMsg = 1; //0 yqh debug, clear in main() after sent.
 205:Generated_Source\PSoC5/Tamper_Timer_ISR.c ****             }
 206:Generated_Source\PSoC5/Tamper_Timer_ISR.c ****             break;
 248              		.loc 1 206 0
 249 0096 01E0     		b	.L19
 250              	.L18:
ARM GAS  C:\Users\Rajesh\AppData\Local\Temp\ccGFzA0n.s 			page 9


 194:Generated_Source\PSoC5/Tamper_Timer_ISR.c ****         case BASE_TOC + MODE_WIEGAND:
 251              		.loc 1 194 0
 252 0098 00BF     		nop
 253 009a 00E0     		b	.L9
 254              	.L19:
 255              		.loc 1 206 0
 256 009c 00BF     		nop
 257              	.L9:
 207:Generated_Source\PSoC5/Tamper_Timer_ISR.c ****         default:;
 208:Generated_Source\PSoC5/Tamper_Timer_ISR.c ****     }
 209:Generated_Source\PSoC5/Tamper_Timer_ISR.c **** 
 210:Generated_Source\PSoC5/Tamper_Timer_ISR.c ****     if (buttonPressed){
 258              		.loc 1 210 0
 259 009e 0D4B     		ldr	r3, .L20+24
 260 00a0 1B78     		ldrb	r3, [r3]	@ zero_extendqisi2
 261 00a2 002B     		cmp	r3, #0
 262 00a4 04D0     		beq	.L17
 211:Generated_Source\PSoC5/Tamper_Timer_ISR.c ****         buttonDuration++;
 263              		.loc 1 211 0
 264 00a6 0C4B     		ldr	r3, .L20+28
 265 00a8 1B68     		ldr	r3, [r3]
 266 00aa 0133     		adds	r3, r3, #1
 267 00ac 0A4A     		ldr	r2, .L20+28
 268 00ae 1360     		str	r3, [r2]
 269              	.L17:
 212:Generated_Source\PSoC5/Tamper_Timer_ISR.c ****     }    
 213:Generated_Source\PSoC5/Tamper_Timer_ISR.c ****     HandleOutputs();
 270              		.loc 1 213 0
 271 00b0 FFF7FEFF 		bl	HandleOutputs
 214:Generated_Source\PSoC5/Tamper_Timer_ISR.c ****     HandleInputs();
 272              		.loc 1 214 0
 273 00b4 FFF7FEFF 		bl	HandleInputs
 215:Generated_Source\PSoC5/Tamper_Timer_ISR.c ****    
 216:Generated_Source\PSoC5/Tamper_Timer_ISR.c ****     /* `#END` */
 217:Generated_Source\PSoC5/Tamper_Timer_ISR.c **** }
 274              		.loc 1 217 0
 275 00b8 00BF     		nop
 276 00ba 80BD     		pop	{r7, pc}
 277              	.L21:
 278              		.align	2
 279              	.L20:
 280 00bc 00000000 		.word	run_mode
 281 00c0 00000000 		.word	f2f_acknowledge_active
 282 00c4 00000000 		.word	f2f_ack_delay_cnt
 283 00c8 00000000 		.word	f2f_alive_delay_cnt
 284 00cc 00000000 		.word	f2f_send_alive
 285 00d0 00000000 		.word	debug_msg_delay
 286 00d4 00000000 		.word	buttonPressed
 287 00d8 00000000 		.word	buttonDuration
 288              		.cfi_endproc
 289              	.LFE66:
 290              		.size	Tamper_Timer_ISR_Interrupt, .-Tamper_Timer_ISR_Interrupt
 291              		.section	.text.Tamper_Timer_ISR_SetVector,"ax",%progbits
 292              		.align	2
 293              		.global	Tamper_Timer_ISR_SetVector
 294              		.thumb
 295              		.thumb_func
ARM GAS  C:\Users\Rajesh\AppData\Local\Temp\ccGFzA0n.s 			page 10


 296              		.type	Tamper_Timer_ISR_SetVector, %function
 297              	Tamper_Timer_ISR_SetVector:
 298              	.LFB67:
 218:Generated_Source\PSoC5/Tamper_Timer_ISR.c **** 
 219:Generated_Source\PSoC5/Tamper_Timer_ISR.c **** 
 220:Generated_Source\PSoC5/Tamper_Timer_ISR.c **** /*******************************************************************************
 221:Generated_Source\PSoC5/Tamper_Timer_ISR.c **** * Function Name: Tamper_Timer_ISR_SetVector
 222:Generated_Source\PSoC5/Tamper_Timer_ISR.c **** ********************************************************************************
 223:Generated_Source\PSoC5/Tamper_Timer_ISR.c **** *
 224:Generated_Source\PSoC5/Tamper_Timer_ISR.c **** * Summary:
 225:Generated_Source\PSoC5/Tamper_Timer_ISR.c **** *   Change the ISR vector for the Interrupt. Note calling Tamper_Timer_ISR_Start
 226:Generated_Source\PSoC5/Tamper_Timer_ISR.c **** *   will override any effect this method would have had. To set the vector 
 227:Generated_Source\PSoC5/Tamper_Timer_ISR.c **** *   before the component has been started use Tamper_Timer_ISR_StartEx instead.
 228:Generated_Source\PSoC5/Tamper_Timer_ISR.c **** * 
 229:Generated_Source\PSoC5/Tamper_Timer_ISR.c **** *   When defining ISR functions, the CY_ISR and CY_ISR_PROTO macros should be 
 230:Generated_Source\PSoC5/Tamper_Timer_ISR.c **** *   used to provide consistent definition across compilers:
 231:Generated_Source\PSoC5/Tamper_Timer_ISR.c **** *
 232:Generated_Source\PSoC5/Tamper_Timer_ISR.c **** *   Function definition example:
 233:Generated_Source\PSoC5/Tamper_Timer_ISR.c **** *   CY_ISR(MyISR)
 234:Generated_Source\PSoC5/Tamper_Timer_ISR.c **** *   {
 235:Generated_Source\PSoC5/Tamper_Timer_ISR.c **** *   }
 236:Generated_Source\PSoC5/Tamper_Timer_ISR.c **** *
 237:Generated_Source\PSoC5/Tamper_Timer_ISR.c **** *   Function prototype example:
 238:Generated_Source\PSoC5/Tamper_Timer_ISR.c **** *     CY_ISR_PROTO(MyISR);
 239:Generated_Source\PSoC5/Tamper_Timer_ISR.c **** *
 240:Generated_Source\PSoC5/Tamper_Timer_ISR.c **** * Parameters:
 241:Generated_Source\PSoC5/Tamper_Timer_ISR.c **** *   address: Address of the ISR to set in the interrupt vector table.
 242:Generated_Source\PSoC5/Tamper_Timer_ISR.c **** *
 243:Generated_Source\PSoC5/Tamper_Timer_ISR.c **** * Return:
 244:Generated_Source\PSoC5/Tamper_Timer_ISR.c **** *   None
 245:Generated_Source\PSoC5/Tamper_Timer_ISR.c **** *
 246:Generated_Source\PSoC5/Tamper_Timer_ISR.c **** *******************************************************************************/
 247:Generated_Source\PSoC5/Tamper_Timer_ISR.c **** void Tamper_Timer_ISR_SetVector(cyisraddress address)
 248:Generated_Source\PSoC5/Tamper_Timer_ISR.c **** {
 299              		.loc 1 248 0
 300              		.cfi_startproc
 301              		@ args = 0, pretend = 0, frame = 16
 302              		@ frame_needed = 1, uses_anonymous_args = 0
 303              		@ link register save eliminated.
 304 0000 80B4     		push	{r7}
 305              		.cfi_def_cfa_offset 4
 306              		.cfi_offset 7, -4
 307 0002 85B0     		sub	sp, sp, #20
 308              		.cfi_def_cfa_offset 24
 309 0004 00AF     		add	r7, sp, #0
 310              		.cfi_def_cfa_register 7
 311 0006 7860     		str	r0, [r7, #4]
 249:Generated_Source\PSoC5/Tamper_Timer_ISR.c ****     cyisraddress * ramVectorTable;
 250:Generated_Source\PSoC5/Tamper_Timer_ISR.c **** 
 251:Generated_Source\PSoC5/Tamper_Timer_ISR.c ****     ramVectorTable = (cyisraddress *) *CYINT_VECT_TABLE;
 312              		.loc 1 251 0
 313 0008 054B     		ldr	r3, .L23
 314 000a 1B68     		ldr	r3, [r3]
 315 000c FB60     		str	r3, [r7, #12]
 252:Generated_Source\PSoC5/Tamper_Timer_ISR.c **** 
 253:Generated_Source\PSoC5/Tamper_Timer_ISR.c ****     ramVectorTable[CYINT_IRQ_BASE + (uint32)Tamper_Timer_ISR__INTC_NUMBER] = address;
 316              		.loc 1 253 0
ARM GAS  C:\Users\Rajesh\AppData\Local\Temp\ccGFzA0n.s 			page 11


 317 000e FB68     		ldr	r3, [r7, #12]
 318 0010 8433     		adds	r3, r3, #132
 319 0012 7A68     		ldr	r2, [r7, #4]
 320 0014 1A60     		str	r2, [r3]
 254:Generated_Source\PSoC5/Tamper_Timer_ISR.c **** }
 321              		.loc 1 254 0
 322 0016 00BF     		nop
 323 0018 1437     		adds	r7, r7, #20
 324              		.cfi_def_cfa_offset 4
 325 001a BD46     		mov	sp, r7
 326              		.cfi_def_cfa_register 13
 327              		@ sp needed
 328 001c 80BC     		pop	{r7}
 329              		.cfi_restore 7
 330              		.cfi_def_cfa_offset 0
 331 001e 7047     		bx	lr
 332              	.L24:
 333              		.align	2
 334              	.L23:
 335 0020 08ED00E0 		.word	-536810232
 336              		.cfi_endproc
 337              	.LFE67:
 338              		.size	Tamper_Timer_ISR_SetVector, .-Tamper_Timer_ISR_SetVector
 339              		.section	.text.Tamper_Timer_ISR_GetVector,"ax",%progbits
 340              		.align	2
 341              		.global	Tamper_Timer_ISR_GetVector
 342              		.thumb
 343              		.thumb_func
 344              		.type	Tamper_Timer_ISR_GetVector, %function
 345              	Tamper_Timer_ISR_GetVector:
 346              	.LFB68:
 255:Generated_Source\PSoC5/Tamper_Timer_ISR.c **** 
 256:Generated_Source\PSoC5/Tamper_Timer_ISR.c **** 
 257:Generated_Source\PSoC5/Tamper_Timer_ISR.c **** /*******************************************************************************
 258:Generated_Source\PSoC5/Tamper_Timer_ISR.c **** * Function Name: Tamper_Timer_ISR_GetVector
 259:Generated_Source\PSoC5/Tamper_Timer_ISR.c **** ********************************************************************************
 260:Generated_Source\PSoC5/Tamper_Timer_ISR.c **** *
 261:Generated_Source\PSoC5/Tamper_Timer_ISR.c **** * Summary:
 262:Generated_Source\PSoC5/Tamper_Timer_ISR.c **** *   Gets the "address" of the current ISR vector for the Interrupt.
 263:Generated_Source\PSoC5/Tamper_Timer_ISR.c **** *
 264:Generated_Source\PSoC5/Tamper_Timer_ISR.c **** * Parameters:
 265:Generated_Source\PSoC5/Tamper_Timer_ISR.c **** *   None
 266:Generated_Source\PSoC5/Tamper_Timer_ISR.c **** *
 267:Generated_Source\PSoC5/Tamper_Timer_ISR.c **** * Return:
 268:Generated_Source\PSoC5/Tamper_Timer_ISR.c **** *   Address of the ISR in the interrupt vector table.
 269:Generated_Source\PSoC5/Tamper_Timer_ISR.c **** *
 270:Generated_Source\PSoC5/Tamper_Timer_ISR.c **** *******************************************************************************/
 271:Generated_Source\PSoC5/Tamper_Timer_ISR.c **** cyisraddress Tamper_Timer_ISR_GetVector(void)
 272:Generated_Source\PSoC5/Tamper_Timer_ISR.c **** {
 347              		.loc 1 272 0
 348              		.cfi_startproc
 349              		@ args = 0, pretend = 0, frame = 8
 350              		@ frame_needed = 1, uses_anonymous_args = 0
 351              		@ link register save eliminated.
 352 0000 80B4     		push	{r7}
 353              		.cfi_def_cfa_offset 4
 354              		.cfi_offset 7, -4
ARM GAS  C:\Users\Rajesh\AppData\Local\Temp\ccGFzA0n.s 			page 12


 355 0002 83B0     		sub	sp, sp, #12
 356              		.cfi_def_cfa_offset 16
 357 0004 00AF     		add	r7, sp, #0
 358              		.cfi_def_cfa_register 7
 273:Generated_Source\PSoC5/Tamper_Timer_ISR.c ****     cyisraddress * ramVectorTable;
 274:Generated_Source\PSoC5/Tamper_Timer_ISR.c **** 
 275:Generated_Source\PSoC5/Tamper_Timer_ISR.c ****     ramVectorTable = (cyisraddress *) *CYINT_VECT_TABLE;
 359              		.loc 1 275 0
 360 0006 054B     		ldr	r3, .L27
 361 0008 1B68     		ldr	r3, [r3]
 362 000a 7B60     		str	r3, [r7, #4]
 276:Generated_Source\PSoC5/Tamper_Timer_ISR.c **** 
 277:Generated_Source\PSoC5/Tamper_Timer_ISR.c ****     return ramVectorTable[CYINT_IRQ_BASE + (uint32)Tamper_Timer_ISR__INTC_NUMBER];
 363              		.loc 1 277 0
 364 000c 7B68     		ldr	r3, [r7, #4]
 365 000e D3F88430 		ldr	r3, [r3, #132]
 278:Generated_Source\PSoC5/Tamper_Timer_ISR.c **** }
 366              		.loc 1 278 0
 367 0012 1846     		mov	r0, r3
 368 0014 0C37     		adds	r7, r7, #12
 369              		.cfi_def_cfa_offset 4
 370 0016 BD46     		mov	sp, r7
 371              		.cfi_def_cfa_register 13
 372              		@ sp needed
 373 0018 80BC     		pop	{r7}
 374              		.cfi_restore 7
 375              		.cfi_def_cfa_offset 0
 376 001a 7047     		bx	lr
 377              	.L28:
 378              		.align	2
 379              	.L27:
 380 001c 08ED00E0 		.word	-536810232
 381              		.cfi_endproc
 382              	.LFE68:
 383              		.size	Tamper_Timer_ISR_GetVector, .-Tamper_Timer_ISR_GetVector
 384              		.section	.text.Tamper_Timer_ISR_SetPriority,"ax",%progbits
 385              		.align	2
 386              		.global	Tamper_Timer_ISR_SetPriority
 387              		.thumb
 388              		.thumb_func
 389              		.type	Tamper_Timer_ISR_SetPriority, %function
 390              	Tamper_Timer_ISR_SetPriority:
 391              	.LFB69:
 279:Generated_Source\PSoC5/Tamper_Timer_ISR.c **** 
 280:Generated_Source\PSoC5/Tamper_Timer_ISR.c **** 
 281:Generated_Source\PSoC5/Tamper_Timer_ISR.c **** /*******************************************************************************
 282:Generated_Source\PSoC5/Tamper_Timer_ISR.c **** * Function Name: Tamper_Timer_ISR_SetPriority
 283:Generated_Source\PSoC5/Tamper_Timer_ISR.c **** ********************************************************************************
 284:Generated_Source\PSoC5/Tamper_Timer_ISR.c **** *
 285:Generated_Source\PSoC5/Tamper_Timer_ISR.c **** * Summary:
 286:Generated_Source\PSoC5/Tamper_Timer_ISR.c **** *   Sets the Priority of the Interrupt. 
 287:Generated_Source\PSoC5/Tamper_Timer_ISR.c **** *
 288:Generated_Source\PSoC5/Tamper_Timer_ISR.c **** *   Note calling Tamper_Timer_ISR_Start or Tamper_Timer_ISR_StartEx will 
 289:Generated_Source\PSoC5/Tamper_Timer_ISR.c **** *   override any effect this API would have had. This API should only be called
 290:Generated_Source\PSoC5/Tamper_Timer_ISR.c **** *   after Tamper_Timer_ISR_Start or Tamper_Timer_ISR_StartEx has been called. 
 291:Generated_Source\PSoC5/Tamper_Timer_ISR.c **** *   To set the initial priority for the component, use the Design-Wide Resources
 292:Generated_Source\PSoC5/Tamper_Timer_ISR.c **** *   Interrupt Editor.
ARM GAS  C:\Users\Rajesh\AppData\Local\Temp\ccGFzA0n.s 			page 13


 293:Generated_Source\PSoC5/Tamper_Timer_ISR.c **** *
 294:Generated_Source\PSoC5/Tamper_Timer_ISR.c **** *   Note This API has no effect on Non-maskable interrupt NMI).
 295:Generated_Source\PSoC5/Tamper_Timer_ISR.c **** *
 296:Generated_Source\PSoC5/Tamper_Timer_ISR.c **** * Parameters:
 297:Generated_Source\PSoC5/Tamper_Timer_ISR.c **** *   priority: Priority of the interrupt, 0 being the highest priority
 298:Generated_Source\PSoC5/Tamper_Timer_ISR.c **** *             PSoC 3 and PSoC 5LP: Priority is from 0 to 7.
 299:Generated_Source\PSoC5/Tamper_Timer_ISR.c **** *             PSoC 4: Priority is from 0 to 3.
 300:Generated_Source\PSoC5/Tamper_Timer_ISR.c **** *
 301:Generated_Source\PSoC5/Tamper_Timer_ISR.c **** * Return:
 302:Generated_Source\PSoC5/Tamper_Timer_ISR.c **** *   None
 303:Generated_Source\PSoC5/Tamper_Timer_ISR.c **** *
 304:Generated_Source\PSoC5/Tamper_Timer_ISR.c **** *******************************************************************************/
 305:Generated_Source\PSoC5/Tamper_Timer_ISR.c **** void Tamper_Timer_ISR_SetPriority(uint8 priority)
 306:Generated_Source\PSoC5/Tamper_Timer_ISR.c **** {
 392              		.loc 1 306 0
 393              		.cfi_startproc
 394              		@ args = 0, pretend = 0, frame = 8
 395              		@ frame_needed = 1, uses_anonymous_args = 0
 396              		@ link register save eliminated.
 397 0000 80B4     		push	{r7}
 398              		.cfi_def_cfa_offset 4
 399              		.cfi_offset 7, -4
 400 0002 83B0     		sub	sp, sp, #12
 401              		.cfi_def_cfa_offset 16
 402 0004 00AF     		add	r7, sp, #0
 403              		.cfi_def_cfa_register 7
 404 0006 0346     		mov	r3, r0
 405 0008 FB71     		strb	r3, [r7, #7]
 307:Generated_Source\PSoC5/Tamper_Timer_ISR.c ****     *Tamper_Timer_ISR_INTC_PRIOR = priority << 5;
 406              		.loc 1 307 0
 407 000a 054A     		ldr	r2, .L30
 408 000c FB79     		ldrb	r3, [r7, #7]
 409 000e 5B01     		lsls	r3, r3, #5
 410 0010 DBB2     		uxtb	r3, r3
 411 0012 1370     		strb	r3, [r2]
 308:Generated_Source\PSoC5/Tamper_Timer_ISR.c **** }
 412              		.loc 1 308 0
 413 0014 00BF     		nop
 414 0016 0C37     		adds	r7, r7, #12
 415              		.cfi_def_cfa_offset 4
 416 0018 BD46     		mov	sp, r7
 417              		.cfi_def_cfa_register 13
 418              		@ sp needed
 419 001a 80BC     		pop	{r7}
 420              		.cfi_restore 7
 421              		.cfi_def_cfa_offset 0
 422 001c 7047     		bx	lr
 423              	.L31:
 424 001e 00BF     		.align	2
 425              	.L30:
 426 0020 11E400E0 		.word	-536812527
 427              		.cfi_endproc
 428              	.LFE69:
 429              		.size	Tamper_Timer_ISR_SetPriority, .-Tamper_Timer_ISR_SetPriority
 430              		.section	.text.Tamper_Timer_ISR_GetPriority,"ax",%progbits
 431              		.align	2
 432              		.global	Tamper_Timer_ISR_GetPriority
ARM GAS  C:\Users\Rajesh\AppData\Local\Temp\ccGFzA0n.s 			page 14


 433              		.thumb
 434              		.thumb_func
 435              		.type	Tamper_Timer_ISR_GetPriority, %function
 436              	Tamper_Timer_ISR_GetPriority:
 437              	.LFB70:
 309:Generated_Source\PSoC5/Tamper_Timer_ISR.c **** 
 310:Generated_Source\PSoC5/Tamper_Timer_ISR.c **** 
 311:Generated_Source\PSoC5/Tamper_Timer_ISR.c **** /*******************************************************************************
 312:Generated_Source\PSoC5/Tamper_Timer_ISR.c **** * Function Name: Tamper_Timer_ISR_GetPriority
 313:Generated_Source\PSoC5/Tamper_Timer_ISR.c **** ********************************************************************************
 314:Generated_Source\PSoC5/Tamper_Timer_ISR.c **** *
 315:Generated_Source\PSoC5/Tamper_Timer_ISR.c **** * Summary:
 316:Generated_Source\PSoC5/Tamper_Timer_ISR.c **** *   Gets the Priority of the Interrupt.
 317:Generated_Source\PSoC5/Tamper_Timer_ISR.c **** *
 318:Generated_Source\PSoC5/Tamper_Timer_ISR.c **** * Parameters:
 319:Generated_Source\PSoC5/Tamper_Timer_ISR.c **** *   None
 320:Generated_Source\PSoC5/Tamper_Timer_ISR.c **** *
 321:Generated_Source\PSoC5/Tamper_Timer_ISR.c **** * Return:
 322:Generated_Source\PSoC5/Tamper_Timer_ISR.c **** *   Priority of the interrupt, 0 being the highest priority
 323:Generated_Source\PSoC5/Tamper_Timer_ISR.c **** *    PSoC 3 and PSoC 5LP: Priority is from 0 to 7.
 324:Generated_Source\PSoC5/Tamper_Timer_ISR.c **** *    PSoC 4: Priority is from 0 to 3.
 325:Generated_Source\PSoC5/Tamper_Timer_ISR.c **** *
 326:Generated_Source\PSoC5/Tamper_Timer_ISR.c **** *******************************************************************************/
 327:Generated_Source\PSoC5/Tamper_Timer_ISR.c **** uint8 Tamper_Timer_ISR_GetPriority(void)
 328:Generated_Source\PSoC5/Tamper_Timer_ISR.c **** {
 438              		.loc 1 328 0
 439              		.cfi_startproc
 440              		@ args = 0, pretend = 0, frame = 8
 441              		@ frame_needed = 1, uses_anonymous_args = 0
 442              		@ link register save eliminated.
 443 0000 80B4     		push	{r7}
 444              		.cfi_def_cfa_offset 4
 445              		.cfi_offset 7, -4
 446 0002 83B0     		sub	sp, sp, #12
 447              		.cfi_def_cfa_offset 16
 448 0004 00AF     		add	r7, sp, #0
 449              		.cfi_def_cfa_register 7
 329:Generated_Source\PSoC5/Tamper_Timer_ISR.c ****     uint8 priority;
 330:Generated_Source\PSoC5/Tamper_Timer_ISR.c **** 
 331:Generated_Source\PSoC5/Tamper_Timer_ISR.c **** 
 332:Generated_Source\PSoC5/Tamper_Timer_ISR.c ****     priority = *Tamper_Timer_ISR_INTC_PRIOR >> 5;
 450              		.loc 1 332 0
 451 0006 054B     		ldr	r3, .L34
 452 0008 1B78     		ldrb	r3, [r3]
 453 000a DBB2     		uxtb	r3, r3
 454 000c 5B09     		lsrs	r3, r3, #5
 455 000e FB71     		strb	r3, [r7, #7]
 333:Generated_Source\PSoC5/Tamper_Timer_ISR.c **** 
 334:Generated_Source\PSoC5/Tamper_Timer_ISR.c ****     return priority;
 456              		.loc 1 334 0
 457 0010 FB79     		ldrb	r3, [r7, #7]	@ zero_extendqisi2
 335:Generated_Source\PSoC5/Tamper_Timer_ISR.c **** }
 458              		.loc 1 335 0
 459 0012 1846     		mov	r0, r3
 460 0014 0C37     		adds	r7, r7, #12
 461              		.cfi_def_cfa_offset 4
 462 0016 BD46     		mov	sp, r7
ARM GAS  C:\Users\Rajesh\AppData\Local\Temp\ccGFzA0n.s 			page 15


 463              		.cfi_def_cfa_register 13
 464              		@ sp needed
 465 0018 80BC     		pop	{r7}
 466              		.cfi_restore 7
 467              		.cfi_def_cfa_offset 0
 468 001a 7047     		bx	lr
 469              	.L35:
 470              		.align	2
 471              	.L34:
 472 001c 11E400E0 		.word	-536812527
 473              		.cfi_endproc
 474              	.LFE70:
 475              		.size	Tamper_Timer_ISR_GetPriority, .-Tamper_Timer_ISR_GetPriority
 476              		.section	.text.Tamper_Timer_ISR_Enable,"ax",%progbits
 477              		.align	2
 478              		.global	Tamper_Timer_ISR_Enable
 479              		.thumb
 480              		.thumb_func
 481              		.type	Tamper_Timer_ISR_Enable, %function
 482              	Tamper_Timer_ISR_Enable:
 483              	.LFB71:
 336:Generated_Source\PSoC5/Tamper_Timer_ISR.c **** 
 337:Generated_Source\PSoC5/Tamper_Timer_ISR.c **** 
 338:Generated_Source\PSoC5/Tamper_Timer_ISR.c **** /*******************************************************************************
 339:Generated_Source\PSoC5/Tamper_Timer_ISR.c **** * Function Name: Tamper_Timer_ISR_Enable
 340:Generated_Source\PSoC5/Tamper_Timer_ISR.c **** ********************************************************************************
 341:Generated_Source\PSoC5/Tamper_Timer_ISR.c **** *
 342:Generated_Source\PSoC5/Tamper_Timer_ISR.c **** * Summary:
 343:Generated_Source\PSoC5/Tamper_Timer_ISR.c **** *   Enables the interrupt to the interrupt controller. Do not call this function
 344:Generated_Source\PSoC5/Tamper_Timer_ISR.c **** *   unless ISR_Start() has been called or the functionality of the ISR_Start() 
 345:Generated_Source\PSoC5/Tamper_Timer_ISR.c **** *   function, which sets the vector and the priority, has been called.
 346:Generated_Source\PSoC5/Tamper_Timer_ISR.c **** *
 347:Generated_Source\PSoC5/Tamper_Timer_ISR.c **** * Parameters:
 348:Generated_Source\PSoC5/Tamper_Timer_ISR.c **** *   None
 349:Generated_Source\PSoC5/Tamper_Timer_ISR.c **** *
 350:Generated_Source\PSoC5/Tamper_Timer_ISR.c **** * Return:
 351:Generated_Source\PSoC5/Tamper_Timer_ISR.c **** *   None
 352:Generated_Source\PSoC5/Tamper_Timer_ISR.c **** *
 353:Generated_Source\PSoC5/Tamper_Timer_ISR.c **** *******************************************************************************/
 354:Generated_Source\PSoC5/Tamper_Timer_ISR.c **** void Tamper_Timer_ISR_Enable(void)
 355:Generated_Source\PSoC5/Tamper_Timer_ISR.c **** {
 484              		.loc 1 355 0
 485              		.cfi_startproc
 486              		@ args = 0, pretend = 0, frame = 0
 487              		@ frame_needed = 1, uses_anonymous_args = 0
 488              		@ link register save eliminated.
 489 0000 80B4     		push	{r7}
 490              		.cfi_def_cfa_offset 4
 491              		.cfi_offset 7, -4
 492 0002 00AF     		add	r7, sp, #0
 493              		.cfi_def_cfa_register 7
 356:Generated_Source\PSoC5/Tamper_Timer_ISR.c ****     /* Enable the general interrupt. */
 357:Generated_Source\PSoC5/Tamper_Timer_ISR.c ****     *Tamper_Timer_ISR_INTC_SET_EN = Tamper_Timer_ISR__INTC_MASK;
 494              		.loc 1 357 0
 495 0004 034B     		ldr	r3, .L37
 496 0006 4FF40032 		mov	r2, #131072
 497 000a 1A60     		str	r2, [r3]
ARM GAS  C:\Users\Rajesh\AppData\Local\Temp\ccGFzA0n.s 			page 16


 358:Generated_Source\PSoC5/Tamper_Timer_ISR.c **** }
 498              		.loc 1 358 0
 499 000c 00BF     		nop
 500 000e BD46     		mov	sp, r7
 501              		.cfi_def_cfa_register 13
 502              		@ sp needed
 503 0010 80BC     		pop	{r7}
 504              		.cfi_restore 7
 505              		.cfi_def_cfa_offset 0
 506 0012 7047     		bx	lr
 507              	.L38:
 508              		.align	2
 509              	.L37:
 510 0014 00E100E0 		.word	-536813312
 511              		.cfi_endproc
 512              	.LFE71:
 513              		.size	Tamper_Timer_ISR_Enable, .-Tamper_Timer_ISR_Enable
 514              		.section	.text.Tamper_Timer_ISR_GetState,"ax",%progbits
 515              		.align	2
 516              		.global	Tamper_Timer_ISR_GetState
 517              		.thumb
 518              		.thumb_func
 519              		.type	Tamper_Timer_ISR_GetState, %function
 520              	Tamper_Timer_ISR_GetState:
 521              	.LFB72:
 359:Generated_Source\PSoC5/Tamper_Timer_ISR.c **** 
 360:Generated_Source\PSoC5/Tamper_Timer_ISR.c **** 
 361:Generated_Source\PSoC5/Tamper_Timer_ISR.c **** /*******************************************************************************
 362:Generated_Source\PSoC5/Tamper_Timer_ISR.c **** * Function Name: Tamper_Timer_ISR_GetState
 363:Generated_Source\PSoC5/Tamper_Timer_ISR.c **** ********************************************************************************
 364:Generated_Source\PSoC5/Tamper_Timer_ISR.c **** *
 365:Generated_Source\PSoC5/Tamper_Timer_ISR.c **** * Summary:
 366:Generated_Source\PSoC5/Tamper_Timer_ISR.c **** *   Gets the state (enabled, disabled) of the Interrupt.
 367:Generated_Source\PSoC5/Tamper_Timer_ISR.c **** *
 368:Generated_Source\PSoC5/Tamper_Timer_ISR.c **** * Parameters:
 369:Generated_Source\PSoC5/Tamper_Timer_ISR.c **** *   None
 370:Generated_Source\PSoC5/Tamper_Timer_ISR.c **** *
 371:Generated_Source\PSoC5/Tamper_Timer_ISR.c **** * Return:
 372:Generated_Source\PSoC5/Tamper_Timer_ISR.c **** *   1 if enabled, 0 if disabled.
 373:Generated_Source\PSoC5/Tamper_Timer_ISR.c **** *
 374:Generated_Source\PSoC5/Tamper_Timer_ISR.c **** *******************************************************************************/
 375:Generated_Source\PSoC5/Tamper_Timer_ISR.c **** uint8 Tamper_Timer_ISR_GetState(void)
 376:Generated_Source\PSoC5/Tamper_Timer_ISR.c **** {
 522              		.loc 1 376 0
 523              		.cfi_startproc
 524              		@ args = 0, pretend = 0, frame = 0
 525              		@ frame_needed = 1, uses_anonymous_args = 0
 526              		@ link register save eliminated.
 527 0000 80B4     		push	{r7}
 528              		.cfi_def_cfa_offset 4
 529              		.cfi_offset 7, -4
 530 0002 00AF     		add	r7, sp, #0
 531              		.cfi_def_cfa_register 7
 377:Generated_Source\PSoC5/Tamper_Timer_ISR.c ****     /* Get the state of the general interrupt. */
 378:Generated_Source\PSoC5/Tamper_Timer_ISR.c ****     return ((*Tamper_Timer_ISR_INTC_SET_EN & (uint32)Tamper_Timer_ISR__INTC_MASK) != 0u) ? 1u:0u;
 532              		.loc 1 378 0
 533 0004 064B     		ldr	r3, .L43
ARM GAS  C:\Users\Rajesh\AppData\Local\Temp\ccGFzA0n.s 			page 17


 534 0006 1B68     		ldr	r3, [r3]
 535 0008 03F40033 		and	r3, r3, #131072
 536 000c 002B     		cmp	r3, #0
 537 000e 01D0     		beq	.L40
 538              		.loc 1 378 0 is_stmt 0 discriminator 1
 539 0010 0123     		movs	r3, #1
 540 0012 00E0     		b	.L41
 541              	.L40:
 542              		.loc 1 378 0 discriminator 2
 543 0014 0023     		movs	r3, #0
 544              	.L41:
 379:Generated_Source\PSoC5/Tamper_Timer_ISR.c **** }
 545              		.loc 1 379 0 is_stmt 1 discriminator 4
 546 0016 1846     		mov	r0, r3
 547 0018 BD46     		mov	sp, r7
 548              		.cfi_def_cfa_register 13
 549              		@ sp needed
 550 001a 80BC     		pop	{r7}
 551              		.cfi_restore 7
 552              		.cfi_def_cfa_offset 0
 553 001c 7047     		bx	lr
 554              	.L44:
 555 001e 00BF     		.align	2
 556              	.L43:
 557 0020 00E100E0 		.word	-536813312
 558              		.cfi_endproc
 559              	.LFE72:
 560              		.size	Tamper_Timer_ISR_GetState, .-Tamper_Timer_ISR_GetState
 561              		.section	.text.Tamper_Timer_ISR_Disable,"ax",%progbits
 562              		.align	2
 563              		.global	Tamper_Timer_ISR_Disable
 564              		.thumb
 565              		.thumb_func
 566              		.type	Tamper_Timer_ISR_Disable, %function
 567              	Tamper_Timer_ISR_Disable:
 568              	.LFB73:
 380:Generated_Source\PSoC5/Tamper_Timer_ISR.c **** 
 381:Generated_Source\PSoC5/Tamper_Timer_ISR.c **** 
 382:Generated_Source\PSoC5/Tamper_Timer_ISR.c **** /*******************************************************************************
 383:Generated_Source\PSoC5/Tamper_Timer_ISR.c **** * Function Name: Tamper_Timer_ISR_Disable
 384:Generated_Source\PSoC5/Tamper_Timer_ISR.c **** ********************************************************************************
 385:Generated_Source\PSoC5/Tamper_Timer_ISR.c **** *
 386:Generated_Source\PSoC5/Tamper_Timer_ISR.c **** * Summary:
 387:Generated_Source\PSoC5/Tamper_Timer_ISR.c **** *   Disables the Interrupt in the interrupt controller.
 388:Generated_Source\PSoC5/Tamper_Timer_ISR.c **** *
 389:Generated_Source\PSoC5/Tamper_Timer_ISR.c **** * Parameters:
 390:Generated_Source\PSoC5/Tamper_Timer_ISR.c **** *   None
 391:Generated_Source\PSoC5/Tamper_Timer_ISR.c **** *
 392:Generated_Source\PSoC5/Tamper_Timer_ISR.c **** * Return:
 393:Generated_Source\PSoC5/Tamper_Timer_ISR.c **** *   None
 394:Generated_Source\PSoC5/Tamper_Timer_ISR.c **** *
 395:Generated_Source\PSoC5/Tamper_Timer_ISR.c **** *******************************************************************************/
 396:Generated_Source\PSoC5/Tamper_Timer_ISR.c **** void Tamper_Timer_ISR_Disable(void)
 397:Generated_Source\PSoC5/Tamper_Timer_ISR.c **** {
 569              		.loc 1 397 0
 570              		.cfi_startproc
 571              		@ args = 0, pretend = 0, frame = 0
ARM GAS  C:\Users\Rajesh\AppData\Local\Temp\ccGFzA0n.s 			page 18


 572              		@ frame_needed = 1, uses_anonymous_args = 0
 573              		@ link register save eliminated.
 574 0000 80B4     		push	{r7}
 575              		.cfi_def_cfa_offset 4
 576              		.cfi_offset 7, -4
 577 0002 00AF     		add	r7, sp, #0
 578              		.cfi_def_cfa_register 7
 398:Generated_Source\PSoC5/Tamper_Timer_ISR.c ****     /* Disable the general interrupt. */
 399:Generated_Source\PSoC5/Tamper_Timer_ISR.c ****     *Tamper_Timer_ISR_INTC_CLR_EN = Tamper_Timer_ISR__INTC_MASK;
 579              		.loc 1 399 0
 580 0004 034B     		ldr	r3, .L46
 581 0006 4FF40032 		mov	r2, #131072
 582 000a 1A60     		str	r2, [r3]
 400:Generated_Source\PSoC5/Tamper_Timer_ISR.c **** }
 583              		.loc 1 400 0
 584 000c 00BF     		nop
 585 000e BD46     		mov	sp, r7
 586              		.cfi_def_cfa_register 13
 587              		@ sp needed
 588 0010 80BC     		pop	{r7}
 589              		.cfi_restore 7
 590              		.cfi_def_cfa_offset 0
 591 0012 7047     		bx	lr
 592              	.L47:
 593              		.align	2
 594              	.L46:
 595 0014 80E100E0 		.word	-536813184
 596              		.cfi_endproc
 597              	.LFE73:
 598              		.size	Tamper_Timer_ISR_Disable, .-Tamper_Timer_ISR_Disable
 599              		.section	.text.Tamper_Timer_ISR_SetPending,"ax",%progbits
 600              		.align	2
 601              		.global	Tamper_Timer_ISR_SetPending
 602              		.thumb
 603              		.thumb_func
 604              		.type	Tamper_Timer_ISR_SetPending, %function
 605              	Tamper_Timer_ISR_SetPending:
 606              	.LFB74:
 401:Generated_Source\PSoC5/Tamper_Timer_ISR.c **** 
 402:Generated_Source\PSoC5/Tamper_Timer_ISR.c **** 
 403:Generated_Source\PSoC5/Tamper_Timer_ISR.c **** /*******************************************************************************
 404:Generated_Source\PSoC5/Tamper_Timer_ISR.c **** * Function Name: Tamper_Timer_ISR_SetPending
 405:Generated_Source\PSoC5/Tamper_Timer_ISR.c **** ********************************************************************************
 406:Generated_Source\PSoC5/Tamper_Timer_ISR.c **** *
 407:Generated_Source\PSoC5/Tamper_Timer_ISR.c **** * Summary:
 408:Generated_Source\PSoC5/Tamper_Timer_ISR.c **** *   Causes the Interrupt to enter the pending state, a software method of
 409:Generated_Source\PSoC5/Tamper_Timer_ISR.c **** *   generating the interrupt.
 410:Generated_Source\PSoC5/Tamper_Timer_ISR.c **** *
 411:Generated_Source\PSoC5/Tamper_Timer_ISR.c **** * Parameters:
 412:Generated_Source\PSoC5/Tamper_Timer_ISR.c **** *   None
 413:Generated_Source\PSoC5/Tamper_Timer_ISR.c **** *
 414:Generated_Source\PSoC5/Tamper_Timer_ISR.c **** * Return:
 415:Generated_Source\PSoC5/Tamper_Timer_ISR.c **** *   None
 416:Generated_Source\PSoC5/Tamper_Timer_ISR.c **** *
 417:Generated_Source\PSoC5/Tamper_Timer_ISR.c **** * Side Effects:
 418:Generated_Source\PSoC5/Tamper_Timer_ISR.c **** *   If interrupts are enabled and the interrupt is set up properly, the ISR is
 419:Generated_Source\PSoC5/Tamper_Timer_ISR.c **** *   entered (depending on the priority of this interrupt and other pending 
ARM GAS  C:\Users\Rajesh\AppData\Local\Temp\ccGFzA0n.s 			page 19


 420:Generated_Source\PSoC5/Tamper_Timer_ISR.c **** *   interrupts).
 421:Generated_Source\PSoC5/Tamper_Timer_ISR.c **** *
 422:Generated_Source\PSoC5/Tamper_Timer_ISR.c **** *******************************************************************************/
 423:Generated_Source\PSoC5/Tamper_Timer_ISR.c **** void Tamper_Timer_ISR_SetPending(void)
 424:Generated_Source\PSoC5/Tamper_Timer_ISR.c **** {
 607              		.loc 1 424 0
 608              		.cfi_startproc
 609              		@ args = 0, pretend = 0, frame = 0
 610              		@ frame_needed = 1, uses_anonymous_args = 0
 611              		@ link register save eliminated.
 612 0000 80B4     		push	{r7}
 613              		.cfi_def_cfa_offset 4
 614              		.cfi_offset 7, -4
 615 0002 00AF     		add	r7, sp, #0
 616              		.cfi_def_cfa_register 7
 425:Generated_Source\PSoC5/Tamper_Timer_ISR.c ****     *Tamper_Timer_ISR_INTC_SET_PD = Tamper_Timer_ISR__INTC_MASK;
 617              		.loc 1 425 0
 618 0004 034B     		ldr	r3, .L49
 619 0006 4FF40032 		mov	r2, #131072
 620 000a 1A60     		str	r2, [r3]
 426:Generated_Source\PSoC5/Tamper_Timer_ISR.c **** }
 621              		.loc 1 426 0
 622 000c 00BF     		nop
 623 000e BD46     		mov	sp, r7
 624              		.cfi_def_cfa_register 13
 625              		@ sp needed
 626 0010 80BC     		pop	{r7}
 627              		.cfi_restore 7
 628              		.cfi_def_cfa_offset 0
 629 0012 7047     		bx	lr
 630              	.L50:
 631              		.align	2
 632              	.L49:
 633 0014 00E200E0 		.word	-536813056
 634              		.cfi_endproc
 635              	.LFE74:
 636              		.size	Tamper_Timer_ISR_SetPending, .-Tamper_Timer_ISR_SetPending
 637              		.section	.text.Tamper_Timer_ISR_ClearPending,"ax",%progbits
 638              		.align	2
 639              		.global	Tamper_Timer_ISR_ClearPending
 640              		.thumb
 641              		.thumb_func
 642              		.type	Tamper_Timer_ISR_ClearPending, %function
 643              	Tamper_Timer_ISR_ClearPending:
 644              	.LFB75:
 427:Generated_Source\PSoC5/Tamper_Timer_ISR.c **** 
 428:Generated_Source\PSoC5/Tamper_Timer_ISR.c **** 
 429:Generated_Source\PSoC5/Tamper_Timer_ISR.c **** /*******************************************************************************
 430:Generated_Source\PSoC5/Tamper_Timer_ISR.c **** * Function Name: Tamper_Timer_ISR_ClearPending
 431:Generated_Source\PSoC5/Tamper_Timer_ISR.c **** ********************************************************************************
 432:Generated_Source\PSoC5/Tamper_Timer_ISR.c **** *
 433:Generated_Source\PSoC5/Tamper_Timer_ISR.c **** * Summary:
 434:Generated_Source\PSoC5/Tamper_Timer_ISR.c **** *   Clears a pending interrupt in the interrupt controller.
 435:Generated_Source\PSoC5/Tamper_Timer_ISR.c **** *
 436:Generated_Source\PSoC5/Tamper_Timer_ISR.c **** *   Note Some interrupt sources are clear-on-read and require the block 
 437:Generated_Source\PSoC5/Tamper_Timer_ISR.c **** *   interrupt/status register to be read/cleared with the appropriate block API 
 438:Generated_Source\PSoC5/Tamper_Timer_ISR.c **** *   (GPIO, UART, and so on). Otherwise the ISR will continue to remain in 
ARM GAS  C:\Users\Rajesh\AppData\Local\Temp\ccGFzA0n.s 			page 20


 439:Generated_Source\PSoC5/Tamper_Timer_ISR.c **** *   pending state even though the interrupt itself is cleared using this API.
 440:Generated_Source\PSoC5/Tamper_Timer_ISR.c **** *
 441:Generated_Source\PSoC5/Tamper_Timer_ISR.c **** * Parameters:
 442:Generated_Source\PSoC5/Tamper_Timer_ISR.c **** *   None
 443:Generated_Source\PSoC5/Tamper_Timer_ISR.c **** *
 444:Generated_Source\PSoC5/Tamper_Timer_ISR.c **** * Return:
 445:Generated_Source\PSoC5/Tamper_Timer_ISR.c **** *   None
 446:Generated_Source\PSoC5/Tamper_Timer_ISR.c **** *
 447:Generated_Source\PSoC5/Tamper_Timer_ISR.c **** *******************************************************************************/
 448:Generated_Source\PSoC5/Tamper_Timer_ISR.c **** void Tamper_Timer_ISR_ClearPending(void)
 449:Generated_Source\PSoC5/Tamper_Timer_ISR.c **** {
 645              		.loc 1 449 0
 646              		.cfi_startproc
 647              		@ args = 0, pretend = 0, frame = 0
 648              		@ frame_needed = 1, uses_anonymous_args = 0
 649              		@ link register save eliminated.
 650 0000 80B4     		push	{r7}
 651              		.cfi_def_cfa_offset 4
 652              		.cfi_offset 7, -4
 653 0002 00AF     		add	r7, sp, #0
 654              		.cfi_def_cfa_register 7
 450:Generated_Source\PSoC5/Tamper_Timer_ISR.c ****     *Tamper_Timer_ISR_INTC_CLR_PD = Tamper_Timer_ISR__INTC_MASK;
 655              		.loc 1 450 0
 656 0004 034B     		ldr	r3, .L52
 657 0006 4FF40032 		mov	r2, #131072
 658 000a 1A60     		str	r2, [r3]
 451:Generated_Source\PSoC5/Tamper_Timer_ISR.c **** }
 659              		.loc 1 451 0
 660 000c 00BF     		nop
 661 000e BD46     		mov	sp, r7
 662              		.cfi_def_cfa_register 13
 663              		@ sp needed
 664 0010 80BC     		pop	{r7}
 665              		.cfi_restore 7
 666              		.cfi_def_cfa_offset 0
 667 0012 7047     		bx	lr
 668              	.L53:
 669              		.align	2
 670              	.L52:
 671 0014 80E200E0 		.word	-536812928
 672              		.cfi_endproc
 673              	.LFE75:
 674              		.size	Tamper_Timer_ISR_ClearPending, .-Tamper_Timer_ISR_ClearPending
 675              		.text
 676              	.Letext0:
 677              		.file 2 "c:\\program files (x86)\\cypress\\psoc creator\\4.2\\psoc creator\\import\\gnu\\arm\\5.4.
 678              		.file 3 "c:\\program files (x86)\\cypress\\psoc creator\\4.2\\psoc creator\\import\\gnu\\arm\\5.4.
 679              		.file 4 "Generated_Source\\PSoC5/cytypes.h"
 680              		.file 5 "./softuart.h"
 681              		.file 6 "Generated_Source\\PSoC5/core_cm3.h"
 682              		.file 7 "./system.h"