
C:\Users\Caleb\Documents\Ride\projects\CHR6dmRelease\stm32f10x_gpio.o:     file format elf32-littlearm
C:\Users\Caleb\Documents\Ride\projects\CHR6dmRelease\stm32f10x_gpio.o

Disassembly of section .text.GPIO_Init:

00000000 <GPIO_Init>:
GPIO_Init():
C:\Program Files (x86)\Raisonance\Ride\lib\ARM\STM32F10x_LIB_V3.0.1\Libraries\STM32F10x_StdPeriph_Driver\src/stm32f10x_gpio.c:173
  * @param  GPIO_InitStruct: pointer to a GPIO_InitTypeDef structure that
  *   contains the configuration information for the specified GPIO peripheral.
  * @retval None
  */
void GPIO_Init(GPIO_TypeDef* GPIOx, GPIO_InitTypeDef* GPIO_InitStruct)
{
   0:	e92d 03f0 	stmdb	sp!, {r4, r5, r6, r7, r8, r9}
C:\Program Files (x86)\Raisonance\Ride\lib\ARM\STM32F10x_LIB_V3.0.1\Libraries\STM32F10x_StdPeriph_Driver\src/stm32f10x_gpio.c:182
  assert_param(IS_GPIO_ALL_PERIPH(GPIOx));
  assert_param(IS_GPIO_MODE(GPIO_InitStruct->GPIO_Mode));
  assert_param(IS_GPIO_PIN(GPIO_InitStruct->GPIO_Pin));  
  
/*---------------------------- GPIO Mode Configuration -----------------------*/
  currentmode = ((uint32_t)GPIO_InitStruct->GPIO_Mode) & ((uint32_t)0x0F);
   4:	78cd      	ldrb	r5, [r1, #3]
C:\Program Files (x86)\Raisonance\Ride\lib\ARM\STM32F10x_LIB_V3.0.1\Libraries\STM32F10x_StdPeriph_Driver\src/stm32f10x_gpio.c:173
  * @param  GPIO_InitStruct: pointer to a GPIO_InitTypeDef structure that
  *   contains the configuration information for the specified GPIO peripheral.
  * @retval None
  */
void GPIO_Init(GPIO_TypeDef* GPIOx, GPIO_InitTypeDef* GPIO_InitStruct)
{
   6:	4606      	mov	r6, r0
C:\Program Files (x86)\Raisonance\Ride\lib\ARM\STM32F10x_LIB_V3.0.1\Libraries\STM32F10x_StdPeriph_Driver\src/stm32f10x_gpio.c:183
  assert_param(IS_GPIO_MODE(GPIO_InitStruct->GPIO_Mode));
  assert_param(IS_GPIO_PIN(GPIO_InitStruct->GPIO_Pin));  
  
/*---------------------------- GPIO Mode Configuration -----------------------*/
  currentmode = ((uint32_t)GPIO_InitStruct->GPIO_Mode) & ((uint32_t)0x0F);
  if ((((uint32_t)GPIO_InitStruct->GPIO_Mode) & ((uint32_t)0x10)) != 0x00)
   8:	f015 0f10 	tst.w	r5, #16	; 0x10
C:\Program Files (x86)\Raisonance\Ride\lib\ARM\STM32F10x_LIB_V3.0.1\Libraries\STM32F10x_StdPeriph_Driver\src/stm32f10x_gpio.c:188
  { 
    /* Check the parameters */
    assert_param(IS_GPIO_SPEED(GPIO_InitStruct->GPIO_Speed));
    /* Output mode */
    currentmode |= (uint32_t)GPIO_InitStruct->GPIO_Speed;
   c:	bf18      	it	ne
   e:	788b      	ldrbne	r3, [r1, #2]
C:\Program Files (x86)\Raisonance\Ride\lib\ARM\STM32F10x_LIB_V3.0.1\Libraries\STM32F10x_StdPeriph_Driver\src/stm32f10x_gpio.c:192
  }
/*---------------------------- GPIO CRL Configuration ------------------------*/
  /* Configure the eight low port pins */
  if (((uint32_t)GPIO_InitStruct->GPIO_Pin & ((uint32_t)0x00FF)) != 0x00)
  10:	8808      	ldrh	r0, [r1, #0]
C:\Program Files (x86)\Raisonance\Ride\lib\ARM\STM32F10x_LIB_V3.0.1\Libraries\STM32F10x_StdPeriph_Driver\src/stm32f10x_gpio.c:182
  assert_param(IS_GPIO_ALL_PERIPH(GPIOx));
  assert_param(IS_GPIO_MODE(GPIO_InitStruct->GPIO_Mode));
  assert_param(IS_GPIO_PIN(GPIO_InitStruct->GPIO_Pin));  
  
/*---------------------------- GPIO Mode Configuration -----------------------*/
  currentmode = ((uint32_t)GPIO_InitStruct->GPIO_Mode) & ((uint32_t)0x0F);
  12:	f005 070f 	and.w	r7, r5, #15	; 0xf
C:\Program Files (x86)\Raisonance\Ride\lib\ARM\STM32F10x_LIB_V3.0.1\Libraries\STM32F10x_StdPeriph_Driver\src/stm32f10x_gpio.c:188
  if ((((uint32_t)GPIO_InitStruct->GPIO_Mode) & ((uint32_t)0x10)) != 0x00)
  { 
    /* Check the parameters */
    assert_param(IS_GPIO_SPEED(GPIO_InitStruct->GPIO_Speed));
    /* Output mode */
    currentmode |= (uint32_t)GPIO_InitStruct->GPIO_Speed;
  16:	bf18      	it	ne
  18:	431f      	orrne	r7, r3
C:\Program Files (x86)\Raisonance\Ride\lib\ARM\STM32F10x_LIB_V3.0.1\Libraries\STM32F10x_StdPeriph_Driver\src/stm32f10x_gpio.c:192
  }
/*---------------------------- GPIO CRL Configuration ------------------------*/
  /* Configure the eight low port pins */
  if (((uint32_t)GPIO_InitStruct->GPIO_Pin & ((uint32_t)0x00FF)) != 0x00)
  1a:	f010 0fff 	tst.w	r0, #255	; 0xff
  1e:	d029      	beq.n	74 <GPIO_Init+0x74>
C:\Program Files (x86)\Raisonance\Ride\lib\ARM\STM32F10x_LIB_V3.0.1\Libraries\STM32F10x_StdPeriph_Driver\src/stm32f10x_gpio.c:194
  {
    tmpreg = GPIOx->CRL;
  20:	6834      	ldr	r4, [r6, #0]
  22:	f04f 0c00 	mov.w	ip, #0	; 0x0
C:\Program Files (x86)\Raisonance\Ride\lib\ARM\STM32F10x_LIB_V3.0.1\Libraries\STM32F10x_StdPeriph_Driver\src/stm32f10x_gpio.c:197
    for (pinpos = 0x00; pinpos < 0x08; pinpos++)
    {
      pos = ((uint32_t)0x01) << pinpos;
  26:	f04f 0801 	mov.w	r8, #1	; 0x1
C:\Program Files (x86)\Raisonance\Ride\lib\ARM\STM32F10x_LIB_V3.0.1\Libraries\STM32F10x_StdPeriph_Driver\src/stm32f10x_gpio.c:205
      if (currentpin == pos)
      {
        pos = pinpos << 2;
        /* Clear the corresponding low control register bits */
        pinmask = ((uint32_t)0x0F) << pos;
        tmpreg &= ~pinmask;
  2a:	f04f 090f 	mov.w	r9, #15	; 0xf
  2e:	e004      	b.n	3a <GPIO_Init+0x3a>
C:\Program Files (x86)\Raisonance\Ride\lib\ARM\STM32F10x_LIB_V3.0.1\Libraries\STM32F10x_StdPeriph_Driver\src/stm32f10x_gpio.c:195
/*---------------------------- GPIO CRL Configuration ------------------------*/
  /* Configure the eight low port pins */
  if (((uint32_t)GPIO_InitStruct->GPIO_Pin & ((uint32_t)0x00FF)) != 0x00)
  {
    tmpreg = GPIOx->CRL;
    for (pinpos = 0x00; pinpos < 0x08; pinpos++)
  30:	f10c 0c01 	add.w	ip, ip, #1	; 0x1
  34:	f1bc 0f08 	cmp.w	ip, #8	; 0x8
  38:	d01b      	beq.n	72 <GPIO_Init+0x72>
C:\Program Files (x86)\Raisonance\Ride\lib\ARM\STM32F10x_LIB_V3.0.1\Libraries\STM32F10x_StdPeriph_Driver\src/stm32f10x_gpio.c:197
    {
      pos = ((uint32_t)0x01) << pinpos;
  3a:	fa08 f30c 	lsl.w	r3, r8, ip
C:\Program Files (x86)\Raisonance\Ride\lib\ARM\STM32F10x_LIB_V3.0.1\Libraries\STM32F10x_StdPeriph_Driver\src/stm32f10x_gpio.c:199
      /* Get the port pins position */
      currentpin = (GPIO_InitStruct->GPIO_Pin) & pos;
  3e:	ea03 0100 	and.w	r1, r3, r0
C:\Program Files (x86)\Raisonance\Ride\lib\ARM\STM32F10x_LIB_V3.0.1\Libraries\STM32F10x_StdPeriph_Driver\src/stm32f10x_gpio.c:200
      if (currentpin == pos)
  42:	4299      	cmp	r1, r3
  44:	d1f4      	bne.n	30 <GPIO_Init+0x30>
C:\Program Files (x86)\Raisonance\Ride\lib\ARM\STM32F10x_LIB_V3.0.1\Libraries\STM32F10x_StdPeriph_Driver\src/stm32f10x_gpio.c:204
      {
        pos = pinpos << 2;
        /* Clear the corresponding low control register bits */
        pinmask = ((uint32_t)0x0F) << pos;
  46:	ea4f 028c 	mov.w	r2, ip, lsl #2
C:\Program Files (x86)\Raisonance\Ride\lib\ARM\STM32F10x_LIB_V3.0.1\Libraries\STM32F10x_StdPeriph_Driver\src/stm32f10x_gpio.c:205
        tmpreg &= ~pinmask;
  4a:	fa09 f302 	lsl.w	r3, r9, r2
C:\Program Files (x86)\Raisonance\Ride\lib\ARM\STM32F10x_LIB_V3.0.1\Libraries\STM32F10x_StdPeriph_Driver\src/stm32f10x_gpio.c:207
        /* Write the mode configuration in the corresponding bits */
        tmpreg |= (currentmode << pos);
  4e:	fa17 f202 	lsls.w	r2, r7, r2
C:\Program Files (x86)\Raisonance\Ride\lib\ARM\STM32F10x_LIB_V3.0.1\Libraries\STM32F10x_StdPeriph_Driver\src/stm32f10x_gpio.c:205
      if (currentpin == pos)
      {
        pos = pinpos << 2;
        /* Clear the corresponding low control register bits */
        pinmask = ((uint32_t)0x0F) << pos;
        tmpreg &= ~pinmask;
  52:	43db      	mvns	r3, r3
  54:	4023      	ands	r3, r4
C:\Program Files (x86)\Raisonance\Ride\lib\ARM\STM32F10x_LIB_V3.0.1\Libraries\STM32F10x_StdPeriph_Driver\src/stm32f10x_gpio.c:209
        /* Write the mode configuration in the corresponding bits */
        tmpreg |= (currentmode << pos);
        /* Reset the corresponding ODR bit */
        if (GPIO_InitStruct->GPIO_Mode == GPIO_Mode_IPD)
  56:	2d28      	cmp	r5, #40
C:\Program Files (x86)\Raisonance\Ride\lib\ARM\STM32F10x_LIB_V3.0.1\Libraries\STM32F10x_StdPeriph_Driver\src/stm32f10x_gpio.c:207
        pos = pinpos << 2;
        /* Clear the corresponding low control register bits */
        pinmask = ((uint32_t)0x0F) << pos;
        tmpreg &= ~pinmask;
        /* Write the mode configuration in the corresponding bits */
        tmpreg |= (currentmode << pos);
  58:	ea43 0402 	orr.w	r4, r3, r2
C:\Program Files (x86)\Raisonance\Ride\lib\ARM\STM32F10x_LIB_V3.0.1\Libraries\STM32F10x_StdPeriph_Driver\src/stm32f10x_gpio.c:211
        /* Reset the corresponding ODR bit */
        if (GPIO_InitStruct->GPIO_Mode == GPIO_Mode_IPD)
        {
          GPIOx->BRR = (((uint32_t)0x01) << pinpos);
  5c:	bf08      	it	eq
  5e:	6171      	streq	r1, [r6, #20]
C:\Program Files (x86)\Raisonance\Ride\lib\ARM\STM32F10x_LIB_V3.0.1\Libraries\STM32F10x_StdPeriph_Driver\src/stm32f10x_gpio.c:209
        pinmask = ((uint32_t)0x0F) << pos;
        tmpreg &= ~pinmask;
        /* Write the mode configuration in the corresponding bits */
        tmpreg |= (currentmode << pos);
        /* Reset the corresponding ODR bit */
        if (GPIO_InitStruct->GPIO_Mode == GPIO_Mode_IPD)
  60:	d0e6      	beq.n	30 <GPIO_Init+0x30>
C:\Program Files (x86)\Raisonance\Ride\lib\ARM\STM32F10x_LIB_V3.0.1\Libraries\STM32F10x_StdPeriph_Driver\src/stm32f10x_gpio.c:216
          GPIOx->BRR = (((uint32_t)0x01) << pinpos);
        }
        else
        {
          /* Set the corresponding ODR bit */
          if (GPIO_InitStruct->GPIO_Mode == GPIO_Mode_IPU)
  62:	2d48      	cmp	r5, #72
C:\Program Files (x86)\Raisonance\Ride\lib\ARM\STM32F10x_LIB_V3.0.1\Libraries\STM32F10x_StdPeriph_Driver\src/stm32f10x_gpio.c:195
/*---------------------------- GPIO CRL Configuration ------------------------*/
  /* Configure the eight low port pins */
  if (((uint32_t)GPIO_InitStruct->GPIO_Pin & ((uint32_t)0x00FF)) != 0x00)
  {
    tmpreg = GPIOx->CRL;
    for (pinpos = 0x00; pinpos < 0x08; pinpos++)
  64:	f10c 0c01 	add.w	ip, ip, #1	; 0x1
C:\Program Files (x86)\Raisonance\Ride\lib\ARM\STM32F10x_LIB_V3.0.1\Libraries\STM32F10x_StdPeriph_Driver\src/stm32f10x_gpio.c:218
        else
        {
          /* Set the corresponding ODR bit */
          if (GPIO_InitStruct->GPIO_Mode == GPIO_Mode_IPU)
          {
            GPIOx->BSRR = (((uint32_t)0x01) << pinpos);
  68:	bf08      	it	eq
  6a:	6131      	streq	r1, [r6, #16]
C:\Program Files (x86)\Raisonance\Ride\lib\ARM\STM32F10x_LIB_V3.0.1\Libraries\STM32F10x_StdPeriph_Driver\src/stm32f10x_gpio.c:195
/*---------------------------- GPIO CRL Configuration ------------------------*/
  /* Configure the eight low port pins */
  if (((uint32_t)GPIO_InitStruct->GPIO_Pin & ((uint32_t)0x00FF)) != 0x00)
  {
    tmpreg = GPIOx->CRL;
    for (pinpos = 0x00; pinpos < 0x08; pinpos++)
  6c:	f1bc 0f08 	cmp.w	ip, #8	; 0x8
  70:	d1e3      	bne.n	3a <GPIO_Init+0x3a>
C:\Program Files (x86)\Raisonance\Ride\lib\ARM\STM32F10x_LIB_V3.0.1\Libraries\STM32F10x_StdPeriph_Driver\src/stm32f10x_gpio.c:223
            GPIOx->BSRR = (((uint32_t)0x01) << pinpos);
          }
        }
      }
    }
    GPIOx->CRL = tmpreg;
  72:	6034      	str	r4, [r6, #0]
C:\Program Files (x86)\Raisonance\Ride\lib\ARM\STM32F10x_LIB_V3.0.1\Libraries\STM32F10x_StdPeriph_Driver\src/stm32f10x_gpio.c:227
  }
/*---------------------------- GPIO CRH Configuration ------------------------*/
  /* Configure the eight high port pins */
  if (GPIO_InitStruct->GPIO_Pin > 0x00FF)
  74:	28ff      	cmp	r0, #255
  76:	d92b      	bls.n	d0 <GPIO_Init+0xd0>
C:\Program Files (x86)\Raisonance\Ride\lib\ARM\STM32F10x_LIB_V3.0.1\Libraries\STM32F10x_StdPeriph_Driver\src/stm32f10x_gpio.c:229
  {
    tmpreg = GPIOx->CRH;
  78:	6874      	ldr	r4, [r6, #4]
  7a:	f04f 0c00 	mov.w	ip, #0	; 0x0
C:\Program Files (x86)\Raisonance\Ride\lib\ARM\STM32F10x_LIB_V3.0.1\Libraries\STM32F10x_StdPeriph_Driver\src/stm32f10x_gpio.c:232
    for (pinpos = 0x00; pinpos < 0x08; pinpos++)
    {
      pos = (((uint32_t)0x01) << (pinpos + 0x08));
  7e:	f04f 0801 	mov.w	r8, #1	; 0x1
C:\Program Files (x86)\Raisonance\Ride\lib\ARM\STM32F10x_LIB_V3.0.1\Libraries\STM32F10x_StdPeriph_Driver\src/stm32f10x_gpio.c:240
      if (currentpin == pos)
      {
        pos = pinpos << 2;
        /* Clear the corresponding high control register bits */
        pinmask = ((uint32_t)0x0F) << pos;
        tmpreg &= ~pinmask;
  82:	f04f 090f 	mov.w	r9, #15	; 0xf
  86:	e004      	b.n	92 <GPIO_Init+0x92>
C:\Program Files (x86)\Raisonance\Ride\lib\ARM\STM32F10x_LIB_V3.0.1\Libraries\STM32F10x_StdPeriph_Driver\src/stm32f10x_gpio.c:230
/*---------------------------- GPIO CRH Configuration ------------------------*/
  /* Configure the eight high port pins */
  if (GPIO_InitStruct->GPIO_Pin > 0x00FF)
  {
    tmpreg = GPIOx->CRH;
    for (pinpos = 0x00; pinpos < 0x08; pinpos++)
  88:	f10c 0c01 	add.w	ip, ip, #1	; 0x1
  8c:	f1bc 0f08 	cmp.w	ip, #8	; 0x8
  90:	d01d      	beq.n	ce <GPIO_Init+0xce>
C:\Program Files (x86)\Raisonance\Ride\lib\ARM\STM32F10x_LIB_V3.0.1\Libraries\STM32F10x_StdPeriph_Driver\src/stm32f10x_gpio.c:232
    {
      pos = (((uint32_t)0x01) << (pinpos + 0x08));
  92:	f10c 0308 	add.w	r3, ip, #8	; 0x8
  96:	fa08 f303 	lsl.w	r3, r8, r3
C:\Program Files (x86)\Raisonance\Ride\lib\ARM\STM32F10x_LIB_V3.0.1\Libraries\STM32F10x_StdPeriph_Driver\src/stm32f10x_gpio.c:234
      /* Get the port pins position */
      currentpin = ((GPIO_InitStruct->GPIO_Pin) & pos);
  9a:	ea03 0100 	and.w	r1, r3, r0
C:\Program Files (x86)\Raisonance\Ride\lib\ARM\STM32F10x_LIB_V3.0.1\Libraries\STM32F10x_StdPeriph_Driver\src/stm32f10x_gpio.c:235
      if (currentpin == pos)
  9e:	4299      	cmp	r1, r3
  a0:	d1f2      	bne.n	88 <GPIO_Init+0x88>
C:\Program Files (x86)\Raisonance\Ride\lib\ARM\STM32F10x_LIB_V3.0.1\Libraries\STM32F10x_StdPeriph_Driver\src/stm32f10x_gpio.c:239
      {
        pos = pinpos << 2;
        /* Clear the corresponding high control register bits */
        pinmask = ((uint32_t)0x0F) << pos;
  a2:	ea4f 028c 	mov.w	r2, ip, lsl #2
C:\Program Files (x86)\Raisonance\Ride\lib\ARM\STM32F10x_LIB_V3.0.1\Libraries\STM32F10x_StdPeriph_Driver\src/stm32f10x_gpio.c:240
        tmpreg &= ~pinmask;
  a6:	fa09 f302 	lsl.w	r3, r9, r2
C:\Program Files (x86)\Raisonance\Ride\lib\ARM\STM32F10x_LIB_V3.0.1\Libraries\STM32F10x_StdPeriph_Driver\src/stm32f10x_gpio.c:242
        /* Write the mode configuration in the corresponding bits */
        tmpreg |= (currentmode << pos);
  aa:	fa17 f202 	lsls.w	r2, r7, r2
C:\Program Files (x86)\Raisonance\Ride\lib\ARM\STM32F10x_LIB_V3.0.1\Libraries\STM32F10x_StdPeriph_Driver\src/stm32f10x_gpio.c:240
      if (currentpin == pos)
      {
        pos = pinpos << 2;
        /* Clear the corresponding high control register bits */
        pinmask = ((uint32_t)0x0F) << pos;
        tmpreg &= ~pinmask;
  ae:	43db      	mvns	r3, r3
  b0:	4023      	ands	r3, r4
C:\Program Files (x86)\Raisonance\Ride\lib\ARM\STM32F10x_LIB_V3.0.1\Libraries\STM32F10x_StdPeriph_Driver\src/stm32f10x_gpio.c:244
        /* Write the mode configuration in the corresponding bits */
        tmpreg |= (currentmode << pos);
        /* Reset the corresponding ODR bit */
        if (GPIO_InitStruct->GPIO_Mode == GPIO_Mode_IPD)
  b2:	2d28      	cmp	r5, #40
C:\Program Files (x86)\Raisonance\Ride\lib\ARM\STM32F10x_LIB_V3.0.1\Libraries\STM32F10x_StdPeriph_Driver\src/stm32f10x_gpio.c:242
        pos = pinpos << 2;
        /* Clear the corresponding high control register bits */
        pinmask = ((uint32_t)0x0F) << pos;
        tmpreg &= ~pinmask;
        /* Write the mode configuration in the corresponding bits */
        tmpreg |= (currentmode << pos);
  b4:	ea43 0402 	orr.w	r4, r3, r2
C:\Program Files (x86)\Raisonance\Ride\lib\ARM\STM32F10x_LIB_V3.0.1\Libraries\STM32F10x_StdPeriph_Driver\src/stm32f10x_gpio.c:246
        /* Reset the corresponding ODR bit */
        if (GPIO_InitStruct->GPIO_Mode == GPIO_Mode_IPD)
        {
          GPIOx->BRR = (((uint32_t)0x01) << (pinpos + 0x08));
  b8:	bf08      	it	eq
  ba:	6171      	streq	r1, [r6, #20]
C:\Program Files (x86)\Raisonance\Ride\lib\ARM\STM32F10x_LIB_V3.0.1\Libraries\STM32F10x_StdPeriph_Driver\src/stm32f10x_gpio.c:244
        pinmask = ((uint32_t)0x0F) << pos;
        tmpreg &= ~pinmask;
        /* Write the mode configuration in the corresponding bits */
        tmpreg |= (currentmode << pos);
        /* Reset the corresponding ODR bit */
        if (GPIO_InitStruct->GPIO_Mode == GPIO_Mode_IPD)
  bc:	d0e4      	beq.n	88 <GPIO_Init+0x88>
C:\Program Files (x86)\Raisonance\Ride\lib\ARM\STM32F10x_LIB_V3.0.1\Libraries\STM32F10x_StdPeriph_Driver\src/stm32f10x_gpio.c:249
        {
          GPIOx->BRR = (((uint32_t)0x01) << (pinpos + 0x08));
        }
        /* Set the corresponding ODR bit */
        if (GPIO_InitStruct->GPIO_Mode == GPIO_Mode_IPU)
  be:	2d48      	cmp	r5, #72
C:\Program Files (x86)\Raisonance\Ride\lib\ARM\STM32F10x_LIB_V3.0.1\Libraries\STM32F10x_StdPeriph_Driver\src/stm32f10x_gpio.c:230
/*---------------------------- GPIO CRH Configuration ------------------------*/
  /* Configure the eight high port pins */
  if (GPIO_InitStruct->GPIO_Pin > 0x00FF)
  {
    tmpreg = GPIOx->CRH;
    for (pinpos = 0x00; pinpos < 0x08; pinpos++)
  c0:	f10c 0c01 	add.w	ip, ip, #1	; 0x1
C:\Program Files (x86)\Raisonance\Ride\lib\ARM\STM32F10x_LIB_V3.0.1\Libraries\STM32F10x_StdPeriph_Driver\src/stm32f10x_gpio.c:251
          GPIOx->BRR = (((uint32_t)0x01) << (pinpos + 0x08));
        }
        /* Set the corresponding ODR bit */
        if (GPIO_InitStruct->GPIO_Mode == GPIO_Mode_IPU)
        {
          GPIOx->BSRR = (((uint32_t)0x01) << (pinpos + 0x08));
  c4:	bf08      	it	eq
  c6:	6131      	streq	r1, [r6, #16]
C:\Program Files (x86)\Raisonance\Ride\lib\ARM\STM32F10x_LIB_V3.0.1\Libraries\STM32F10x_StdPeriph_Driver\src/stm32f10x_gpio.c:230
/*---------------------------- GPIO CRH Configuration ------------------------*/
  /* Configure the eight high port pins */
  if (GPIO_InitStruct->GPIO_Pin > 0x00FF)
  {
    tmpreg = GPIOx->CRH;
    for (pinpos = 0x00; pinpos < 0x08; pinpos++)
  c8:	f1bc 0f08 	cmp.w	ip, #8	; 0x8
  cc:	d1e1      	bne.n	92 <GPIO_Init+0x92>
C:\Program Files (x86)\Raisonance\Ride\lib\ARM\STM32F10x_LIB_V3.0.1\Libraries\STM32F10x_StdPeriph_Driver\src/stm32f10x_gpio.c:255
        {
          GPIOx->BSRR = (((uint32_t)0x01) << (pinpos + 0x08));
        }
      }
    }
    GPIOx->CRH = tmpreg;
  ce:	6074      	str	r4, [r6, #4]
C:\Program Files (x86)\Raisonance\Ride\lib\ARM\STM32F10x_LIB_V3.0.1\Libraries\STM32F10x_StdPeriph_Driver\src/stm32f10x_gpio.c:257
  }
}
  d0:	e8bd 03f0 	ldmia.w	sp!, {r4, r5, r6, r7, r8, r9}
  d4:	4770      	bx	lr
  d6:	46c0      	nop			(mov r8, r8)
Disassembly of section .text.GPIO_StructInit:

00000000 <GPIO_StructInit>:
GPIO_StructInit():
C:\Program Files (x86)\Raisonance\Ride\lib\ARM\STM32F10x_LIB_V3.0.1\Libraries\STM32F10x_StdPeriph_Driver\src/stm32f10x_gpio.c:268
  * @retval None
  */
void GPIO_StructInit(GPIO_InitTypeDef* GPIO_InitStruct)
{
  /* Reset GPIO init structure parameters values */
  GPIO_InitStruct->GPIO_Pin  = GPIO_Pin_All;
   0:	f04f 33ff 	mov.w	r3, #4294967295	; 0xffffffff
   4:	8003      	strh	r3, [r0, #0]
C:\Program Files (x86)\Raisonance\Ride\lib\ARM\STM32F10x_LIB_V3.0.1\Libraries\STM32F10x_StdPeriph_Driver\src/stm32f10x_gpio.c:270
  GPIO_InitStruct->GPIO_Speed = GPIO_Speed_2MHz;
  GPIO_InitStruct->GPIO_Mode = GPIO_Mode_IN_FLOATING;
   6:	2204      	movs	r2, #4
C:\Program Files (x86)\Raisonance\Ride\lib\ARM\STM32F10x_LIB_V3.0.1\Libraries\STM32F10x_StdPeriph_Driver\src/stm32f10x_gpio.c:269
  */
void GPIO_StructInit(GPIO_InitTypeDef* GPIO_InitStruct)
{
  /* Reset GPIO init structure parameters values */
  GPIO_InitStruct->GPIO_Pin  = GPIO_Pin_All;
  GPIO_InitStruct->GPIO_Speed = GPIO_Speed_2MHz;
   8:	2302      	movs	r3, #2
   a:	7083      	strb	r3, [r0, #2]
C:\Program Files (x86)\Raisonance\Ride\lib\ARM\STM32F10x_LIB_V3.0.1\Libraries\STM32F10x_StdPeriph_Driver\src/stm32f10x_gpio.c:270
  GPIO_InitStruct->GPIO_Mode = GPIO_Mode_IN_FLOATING;
   c:	70c2      	strb	r2, [r0, #3]
C:\Program Files (x86)\Raisonance\Ride\lib\ARM\STM32F10x_LIB_V3.0.1\Libraries\STM32F10x_StdPeriph_Driver\src/stm32f10x_gpio.c:271
}
   e:	4770      	bx	lr
Disassembly of section .text.GPIO_ReadInputDataBit:

00000000 <GPIO_ReadInputDataBit>:
GPIO_ReadInputDataBit():
C:\Program Files (x86)\Raisonance\Ride\lib\ARM\STM32F10x_LIB_V3.0.1\Libraries\STM32F10x_StdPeriph_Driver\src/stm32f10x_gpio.c:288
  
  /* Check the parameters */
  assert_param(IS_GPIO_ALL_PERIPH(GPIOx));
  assert_param(IS_GET_GPIO_PIN(GPIO_Pin)); 
  
  if ((GPIOx->IDR & GPIO_Pin) != (uint32_t)Bit_RESET)
   0:	6883      	ldr	r3, [r0, #8]
   2:	4219      	tst	r1, r3
C:\Program Files (x86)\Raisonance\Ride\lib\ARM\STM32F10x_LIB_V3.0.1\Libraries\STM32F10x_StdPeriph_Driver\src/stm32f10x_gpio.c:297
  else
  {
    bitstatus = (uint8_t)Bit_RESET;
  }
  return bitstatus;
}
   4:	bf0c      	ite	eq
   6:	2000      	moveq	r0, #0
   8:	2001      	movne	r0, #1
   a:	4770      	bx	lr
Disassembly of section .text.GPIO_ReadInputData:

00000000 <GPIO_ReadInputData>:
GPIO_ReadInputData():
C:\Program Files (x86)\Raisonance\Ride\lib\ARM\STM32F10x_LIB_V3.0.1\Libraries\STM32F10x_StdPeriph_Driver\src/stm32f10x_gpio.c:309
uint16_t GPIO_ReadInputData(GPIO_TypeDef* GPIOx)
{
  /* Check the parameters */
  assert_param(IS_GPIO_ALL_PERIPH(GPIOx));
  
  return ((uint16_t)GPIOx->IDR);
   0:	6880      	ldr	r0, [r0, #8]
C:\Program Files (x86)\Raisonance\Ride\lib\ARM\STM32F10x_LIB_V3.0.1\Libraries\STM32F10x_StdPeriph_Driver\src/stm32f10x_gpio.c:310
}
   2:	b280      	uxth	r0, r0
   4:	4770      	bx	lr
   6:	46c0      	nop			(mov r8, r8)
Disassembly of section .text.GPIO_ReadOutputDataBit:

00000000 <GPIO_ReadOutputDataBit>:
GPIO_ReadOutputDataBit():
C:\Program Files (x86)\Raisonance\Ride\lib\ARM\STM32F10x_LIB_V3.0.1\Libraries\STM32F10x_StdPeriph_Driver\src/stm32f10x_gpio.c:326
  uint8_t bitstatus = 0x00;
  /* Check the parameters */
  assert_param(IS_GPIO_ALL_PERIPH(GPIOx));
  assert_param(IS_GET_GPIO_PIN(GPIO_Pin)); 
  
  if ((GPIOx->ODR & GPIO_Pin) != (uint32_t)Bit_RESET)
   0:	68c3      	ldr	r3, [r0, #12]
   2:	4219      	tst	r1, r3
C:\Program Files (x86)\Raisonance\Ride\lib\ARM\STM32F10x_LIB_V3.0.1\Libraries\STM32F10x_StdPeriph_Driver\src/stm32f10x_gpio.c:335
  else
  {
    bitstatus = (uint8_t)Bit_RESET;
  }
  return bitstatus;
}
   4:	bf0c      	ite	eq
   6:	2000      	moveq	r0, #0
   8:	2001      	movne	r0, #1
   a:	4770      	bx	lr
Disassembly of section .text.GPIO_ReadOutputData:

00000000 <GPIO_ReadOutputData>:
GPIO_ReadOutputData():
C:\Program Files (x86)\Raisonance\Ride\lib\ARM\STM32F10x_LIB_V3.0.1\Libraries\STM32F10x_StdPeriph_Driver\src/stm32f10x_gpio.c:347
uint16_t GPIO_ReadOutputData(GPIO_TypeDef* GPIOx)
{
  /* Check the parameters */
  assert_param(IS_GPIO_ALL_PERIPH(GPIOx));
    
  return ((uint16_t)GPIOx->ODR);
   0:	68c0      	ldr	r0, [r0, #12]
C:\Program Files (x86)\Raisonance\Ride\lib\ARM\STM32F10x_LIB_V3.0.1\Libraries\STM32F10x_StdPeriph_Driver\src/stm32f10x_gpio.c:348
}
   2:	b280      	uxth	r0, r0
   4:	4770      	bx	lr
   6:	46c0      	nop			(mov r8, r8)
Disassembly of section .text.GPIO_SetBits:

00000000 <GPIO_SetBits>:
GPIO_SetBits():
C:\Program Files (x86)\Raisonance\Ride\lib\ARM\STM32F10x_LIB_V3.0.1\Libraries\STM32F10x_StdPeriph_Driver\src/stm32f10x_gpio.c:363
{
  /* Check the parameters */
  assert_param(IS_GPIO_ALL_PERIPH(GPIOx));
  assert_param(IS_GPIO_PIN(GPIO_Pin));
  
  GPIOx->BSRR = GPIO_Pin;
   0:	6101      	str	r1, [r0, #16]
C:\Program Files (x86)\Raisonance\Ride\lib\ARM\STM32F10x_LIB_V3.0.1\Libraries\STM32F10x_StdPeriph_Driver\src/stm32f10x_gpio.c:364
}
   2:	4770      	bx	lr
Disassembly of section .text.GPIO_ResetBits:

00000000 <GPIO_ResetBits>:
GPIO_ResetBits():
C:\Program Files (x86)\Raisonance\Ride\lib\ARM\STM32F10x_LIB_V3.0.1\Libraries\STM32F10x_StdPeriph_Driver\src/stm32f10x_gpio.c:379
{
  /* Check the parameters */
  assert_param(IS_GPIO_ALL_PERIPH(GPIOx));
  assert_param(IS_GPIO_PIN(GPIO_Pin));
  
  GPIOx->BRR = GPIO_Pin;
   0:	6141      	str	r1, [r0, #20]
C:\Program Files (x86)\Raisonance\Ride\lib\ARM\STM32F10x_LIB_V3.0.1\Libraries\STM32F10x_StdPeriph_Driver\src/stm32f10x_gpio.c:380
}
   2:	4770      	bx	lr
Disassembly of section .text.GPIO_WriteBit:

00000000 <GPIO_WriteBit>:
GPIO_WriteBit():
C:\Program Files (x86)\Raisonance\Ride\lib\ARM\STM32F10x_LIB_V3.0.1\Libraries\STM32F10x_StdPeriph_Driver\src/stm32f10x_gpio.c:400
  /* Check the parameters */
  assert_param(IS_GPIO_ALL_PERIPH(GPIOx));
  assert_param(IS_GET_GPIO_PIN(GPIO_Pin));
  assert_param(IS_GPIO_BIT_ACTION(BitVal)); 
  
  if (BitVal != Bit_RESET)
   0:	b90a      	cbnz	r2, 6 <GPIO_WriteBit+0x6>
C:\Program Files (x86)\Raisonance\Ride\lib\ARM\STM32F10x_LIB_V3.0.1\Libraries\STM32F10x_StdPeriph_Driver\src/stm32f10x_gpio.c:406
  {
    GPIOx->BSRR = GPIO_Pin;
  }
  else
  {
    GPIOx->BRR = GPIO_Pin;
   2:	6141      	str	r1, [r0, #20]
C:\Program Files (x86)\Raisonance\Ride\lib\ARM\STM32F10x_LIB_V3.0.1\Libraries\STM32F10x_StdPeriph_Driver\src/stm32f10x_gpio.c:408
  }
}
   4:	4770      	bx	lr
C:\Program Files (x86)\Raisonance\Ride\lib\ARM\STM32F10x_LIB_V3.0.1\Libraries\STM32F10x_StdPeriph_Driver\src/stm32f10x_gpio.c:402
  assert_param(IS_GET_GPIO_PIN(GPIO_Pin));
  assert_param(IS_GPIO_BIT_ACTION(BitVal)); 
  
  if (BitVal != Bit_RESET)
  {
    GPIOx->BSRR = GPIO_Pin;
   6:	6101      	str	r1, [r0, #16]
   8:	e7fc      	b.n	4 <GPIO_WriteBit+0x4>
   a:	46c0      	nop			(mov r8, r8)
Disassembly of section .text.GPIO_Write:

00000000 <GPIO_Write>:
GPIO_Write():
C:\Program Files (x86)\Raisonance\Ride\lib\ARM\STM32F10x_LIB_V3.0.1\Libraries\STM32F10x_StdPeriph_Driver\src/stm32f10x_gpio.c:421
void GPIO_Write(GPIO_TypeDef* GPIOx, uint16_t PortVal)
{
  /* Check the parameters */
  assert_param(IS_GPIO_ALL_PERIPH(GPIOx));
  
  GPIOx->ODR = PortVal;
   0:	60c1      	str	r1, [r0, #12]
C:\Program Files (x86)\Raisonance\Ride\lib\ARM\STM32F10x_LIB_V3.0.1\Libraries\STM32F10x_StdPeriph_Driver\src/stm32f10x_gpio.c:422
}
   2:	4770      	bx	lr
Disassembly of section .text.GPIO_PinLockConfig:

00000000 <GPIO_PinLockConfig>:
GPIO_PinLockConfig():
C:\Program Files (x86)\Raisonance\Ride\lib\ARM\STM32F10x_LIB_V3.0.1\Libraries\STM32F10x_StdPeriph_Driver\src/stm32f10x_gpio.c:439
  
  /* Check the parameters */
  assert_param(IS_GPIO_ALL_PERIPH(GPIOx));
  assert_param(IS_GPIO_PIN(GPIO_Pin));
  
  tmp |= GPIO_Pin;
   0:	f441 3380 	orr.w	r3, r1, #65536	; 0x10000
C:\Program Files (x86)\Raisonance\Ride\lib\ARM\STM32F10x_LIB_V3.0.1\Libraries\STM32F10x_StdPeriph_Driver\src/stm32f10x_gpio.c:441
  /* Set LCKK bit */
  GPIOx->LCKR = tmp;
   4:	6183      	str	r3, [r0, #24]
C:\Program Files (x86)\Raisonance\Ride\lib\ARM\STM32F10x_LIB_V3.0.1\Libraries\STM32F10x_StdPeriph_Driver\src/stm32f10x_gpio.c:443
  /* Reset LCKK bit */
  GPIOx->LCKR =  GPIO_Pin;
   6:	6181      	str	r1, [r0, #24]
C:\Program Files (x86)\Raisonance\Ride\lib\ARM\STM32F10x_LIB_V3.0.1\Libraries\STM32F10x_StdPeriph_Driver\src/stm32f10x_gpio.c:445
  /* Set LCKK bit */
  GPIOx->LCKR = tmp;
   8:	6183      	str	r3, [r0, #24]
C:\Program Files (x86)\Raisonance\Ride\lib\ARM\STM32F10x_LIB_V3.0.1\Libraries\STM32F10x_StdPeriph_Driver\src/stm32f10x_gpio.c:447
  /* Read LCKK bit*/
  tmp = GPIOx->LCKR;
   a:	6983      	ldr	r3, [r0, #24]
C:\Program Files (x86)\Raisonance\Ride\lib\ARM\STM32F10x_LIB_V3.0.1\Libraries\STM32F10x_StdPeriph_Driver\src/stm32f10x_gpio.c:449
  /* Read LCKK bit*/
  tmp = GPIOx->LCKR;
   c:	6983      	ldr	r3, [r0, #24]
C:\Program Files (x86)\Raisonance\Ride\lib\ARM\STM32F10x_LIB_V3.0.1\Libraries\STM32F10x_StdPeriph_Driver\src/stm32f10x_gpio.c:450
}
   e:	4770      	bx	lr
Disassembly of section .text.GPIO_EventOutputConfig:

00000000 <GPIO_EventOutputConfig>:
GPIO_EventOutputConfig():
C:\Program Files (x86)\Raisonance\Ride\lib\ARM\STM32F10x_LIB_V3.0.1\Libraries\STM32F10x_StdPeriph_Driver\src/stm32f10x_gpio.c:468
  uint32_t tmpreg = 0x00;
  /* Check the parameters */
  assert_param(IS_GPIO_EVENTOUT_PORT_SOURCE(GPIO_PortSource));
  assert_param(IS_GPIO_PIN_SOURCE(GPIO_PinSource));
    
  tmpreg = AFIO->EVCR;
   0:	f240 0200 	movw	r2, #0	; 0x0
   4:	f2c4 0201 	movt	r2, #16385	; 0x4001
C:\Program Files (x86)\Raisonance\Ride\lib\ARM\STM32F10x_LIB_V3.0.1\Libraries\STM32F10x_StdPeriph_Driver\src/stm32f10x_gpio.c:462
  * @param  GPIO_PinSource: specifies the pin for the Event output.
  *   This parameter can be GPIO_PinSourcex where x can be (0..15).
  * @retval None
  */
void GPIO_EventOutputConfig(uint8_t GPIO_PortSource, uint8_t GPIO_PinSource)
{
   8:	b410      	push	{r4}
C:\Program Files (x86)\Raisonance\Ride\lib\ARM\STM32F10x_LIB_V3.0.1\Libraries\STM32F10x_StdPeriph_Driver\src/stm32f10x_gpio.c:470
  assert_param(IS_GPIO_EVENTOUT_PORT_SOURCE(GPIO_PortSource));
  assert_param(IS_GPIO_PIN_SOURCE(GPIO_PinSource));
    
  tmpreg = AFIO->EVCR;
  /* Clear the PORT[6:4] and PIN[3:0] bits */
  tmpreg &= EVCR_PORTPINCONFIG_MASK;
   a:	f64f 7380 	movw	r3, #65408	; 0xff80
C:\Program Files (x86)\Raisonance\Ride\lib\ARM\STM32F10x_LIB_V3.0.1\Libraries\STM32F10x_StdPeriph_Driver\src/stm32f10x_gpio.c:468
  uint32_t tmpreg = 0x00;
  /* Check the parameters */
  assert_param(IS_GPIO_EVENTOUT_PORT_SOURCE(GPIO_PortSource));
  assert_param(IS_GPIO_PIN_SOURCE(GPIO_PinSource));
    
  tmpreg = AFIO->EVCR;
   e:	6814      	ldr	r4, [r2, #0]
C:\Program Files (x86)\Raisonance\Ride\lib\ARM\STM32F10x_LIB_V3.0.1\Libraries\STM32F10x_StdPeriph_Driver\src/stm32f10x_gpio.c:470
  /* Clear the PORT[6:4] and PIN[3:0] bits */
  tmpreg &= EVCR_PORTPINCONFIG_MASK;
  10:	f2c0 0300 	movt	r3, #0	; 0x0
  14:	ea04 0303 	and.w	r3, r4, r3
C:\Program Files (x86)\Raisonance\Ride\lib\ARM\STM32F10x_LIB_V3.0.1\Libraries\STM32F10x_StdPeriph_Driver\src/stm32f10x_gpio.c:471
  tmpreg |= (uint32_t)GPIO_PortSource << 0x04;
  18:	ea41 1100 	orr.w	r1, r1, r0, lsl #4
C:\Program Files (x86)\Raisonance\Ride\lib\ARM\STM32F10x_LIB_V3.0.1\Libraries\STM32F10x_StdPeriph_Driver\src/stm32f10x_gpio.c:472
  tmpreg |= GPIO_PinSource;
  1c:	4319      	orrs	r1, r3
C:\Program Files (x86)\Raisonance\Ride\lib\ARM\STM32F10x_LIB_V3.0.1\Libraries\STM32F10x_StdPeriph_Driver\src/stm32f10x_gpio.c:473
  AFIO->EVCR = tmpreg;
  1e:	6011      	str	r1, [r2, #0]
C:\Program Files (x86)\Raisonance\Ride\lib\ARM\STM32F10x_LIB_V3.0.1\Libraries\STM32F10x_StdPeriph_Driver\src/stm32f10x_gpio.c:474
}
  20:	bc10      	pop	{r4}
  22:	4770      	bx	lr
Disassembly of section .text.GPIO_EventOutputCmd:

00000000 <GPIO_EventOutputCmd>:
GPIO_EventOutputCmd():
C:\Program Files (x86)\Raisonance\Ride\lib\ARM\STM32F10x_LIB_V3.0.1\Libraries\STM32F10x_StdPeriph_Driver\src/stm32f10x_gpio.c:487
void GPIO_EventOutputCmd(FunctionalState NewState)
{
  /* Check the parameters */
  assert_param(IS_FUNCTIONAL_STATE(NewState));
  
  *(__IO uint32_t *) EVCR_EVOE_BB = (uint32_t)NewState;
   0:	f240 031c 	movw	r3, #28	; 0x1c
   4:	f2c4 2320 	movt	r3, #16928	; 0x4220
   8:	6018      	str	r0, [r3, #0]
C:\Program Files (x86)\Raisonance\Ride\lib\ARM\STM32F10x_LIB_V3.0.1\Libraries\STM32F10x_StdPeriph_Driver\src/stm32f10x_gpio.c:488
}
   a:	4770      	bx	lr
Disassembly of section .text.GPIO_PinRemapConfig:

00000000 <GPIO_PinRemapConfig>:
GPIO_PinRemapConfig():
C:\Program Files (x86)\Raisonance\Ride\lib\ARM\STM32F10x_LIB_V3.0.1\Libraries\STM32F10x_StdPeriph_Driver\src/stm32f10x_gpio.c:538

  /* Check the parameters */
  assert_param(IS_GPIO_REMAP(GPIO_Remap));
  assert_param(IS_FUNCTIONAL_STATE(NewState));  
  
  tmpreg = AFIO->MAPR;
   0:	f240 0200 	movw	r2, #0	; 0x0
C:\Program Files (x86)\Raisonance\Ride\lib\ARM\STM32F10x_LIB_V3.0.1\Libraries\STM32F10x_StdPeriph_Driver\src/stm32f10x_gpio.c:543

  tmpmask = (GPIO_Remap & DBGAFR_POSITION_MASK) >> 0x10;
  tmp = GPIO_Remap & LSB_MASK;

  if ((GPIO_Remap & (DBGAFR_LOCATION_MASK | DBGAFR_NUMBITS_MASK)) == (DBGAFR_LOCATION_MASK | DBGAFR_NUMBITS_MASK))
   4:	f400 1340 	and.w	r3, r0, #3145728	; 0x300000
C:\Program Files (x86)\Raisonance\Ride\lib\ARM\STM32F10x_LIB_V3.0.1\Libraries\STM32F10x_StdPeriph_Driver\src/stm32f10x_gpio.c:538

  /* Check the parameters */
  assert_param(IS_GPIO_REMAP(GPIO_Remap));
  assert_param(IS_FUNCTIONAL_STATE(NewState));  
  
  tmpreg = AFIO->MAPR;
   8:	f2c4 0201 	movt	r2, #16385	; 0x4001
C:\Program Files (x86)\Raisonance\Ride\lib\ARM\STM32F10x_LIB_V3.0.1\Libraries\STM32F10x_StdPeriph_Driver\src/stm32f10x_gpio.c:541

  tmpmask = (GPIO_Remap & DBGAFR_POSITION_MASK) >> 0x10;
  tmp = GPIO_Remap & LSB_MASK;
   c:	ea4f 4c00 	mov.w	ip, r0, lsl #16
C:\Program Files (x86)\Raisonance\Ride\lib\ARM\STM32F10x_LIB_V3.0.1\Libraries\STM32F10x_StdPeriph_Driver\src/stm32f10x_gpio.c:543

  if ((GPIO_Remap & (DBGAFR_LOCATION_MASK | DBGAFR_NUMBITS_MASK)) == (DBGAFR_LOCATION_MASK | DBGAFR_NUMBITS_MASK))
  10:	f5b3 1f40 	cmp.w	r3, #3145728	; 0x300000
C:\Program Files (x86)\Raisonance\Ride\lib\ARM\STM32F10x_LIB_V3.0.1\Libraries\STM32F10x_StdPeriph_Driver\src/stm32f10x_gpio.c:531
  * @param  NewState: new state of the port pin remapping.
  *   This parameter can be: ENABLE or DISABLE.
  * @retval None
  */
void GPIO_PinRemapConfig(uint32_t GPIO_Remap, FunctionalState NewState)
{
  14:	b410      	push	{r4}
C:\Program Files (x86)\Raisonance\Ride\lib\ARM\STM32F10x_LIB_V3.0.1\Libraries\STM32F10x_StdPeriph_Driver\src/stm32f10x_gpio.c:541
  assert_param(IS_FUNCTIONAL_STATE(NewState));  
  
  tmpreg = AFIO->MAPR;

  tmpmask = (GPIO_Remap & DBGAFR_POSITION_MASK) >> 0x10;
  tmp = GPIO_Remap & LSB_MASK;
  16:	ea4f 4c1c 	mov.w	ip, ip, lsr #16
C:\Program Files (x86)\Raisonance\Ride\lib\ARM\STM32F10x_LIB_V3.0.1\Libraries\STM32F10x_StdPeriph_Driver\src/stm32f10x_gpio.c:531
  * @param  NewState: new state of the port pin remapping.
  *   This parameter can be: ENABLE or DISABLE.
  * @retval None
  */
void GPIO_PinRemapConfig(uint32_t GPIO_Remap, FunctionalState NewState)
{
  1a:	460c      	mov	r4, r1
C:\Program Files (x86)\Raisonance\Ride\lib\ARM\STM32F10x_LIB_V3.0.1\Libraries\STM32F10x_StdPeriph_Driver\src/stm32f10x_gpio.c:538

  /* Check the parameters */
  assert_param(IS_GPIO_REMAP(GPIO_Remap));
  assert_param(IS_FUNCTIONAL_STATE(NewState));  
  
  tmpreg = AFIO->MAPR;
  1c:	6851      	ldr	r1, [r2, #4]
C:\Program Files (x86)\Raisonance\Ride\lib\ARM\STM32F10x_LIB_V3.0.1\Libraries\STM32F10x_StdPeriph_Driver\src/stm32f10x_gpio.c:543

  tmpmask = (GPIO_Remap & DBGAFR_POSITION_MASK) >> 0x10;
  tmp = GPIO_Remap & LSB_MASK;

  if ((GPIO_Remap & (DBGAFR_LOCATION_MASK | DBGAFR_NUMBITS_MASK)) == (DBGAFR_LOCATION_MASK | DBGAFR_NUMBITS_MASK))
  1e:	d021      	beq.n	64 <GPIO_PinRemapConfig+0x64>
C:\Program Files (x86)\Raisonance\Ride\lib\ARM\STM32F10x_LIB_V3.0.1\Libraries\STM32F10x_StdPeriph_Driver\src/stm32f10x_gpio.c:548
  {
    tmpreg &= DBGAFR_SWJCFG_MASK;
    AFIO->MAPR &= DBGAFR_SWJCFG_MASK;
  }
  else if ((GPIO_Remap & DBGAFR_NUMBITS_MASK) == DBGAFR_NUMBITS_MASK)
  20:	f410 1f80 	tst.w	r0, #1048576	; 0x100000
  24:	d015      	beq.n	52 <GPIO_PinRemapConfig+0x52>
C:\Program Files (x86)\Raisonance\Ride\lib\ARM\STM32F10x_LIB_V3.0.1\Libraries\STM32F10x_StdPeriph_Driver\src/stm32f10x_gpio.c:551
  {
    tmp1 = ((uint32_t)0x03) << tmpmask;
    tmpreg &= ~tmp1;
  26:	f400 2270 	and.w	r2, r0, #983040	; 0xf0000
  2a:	0c12      	lsrs	r2, r2, #16
  2c:	2303      	movs	r3, #3
  2e:	4093      	lsls	r3, r2
  30:	43db      	mvns	r3, r3
  32:	400b      	ands	r3, r1
C:\Program Files (x86)\Raisonance\Ride\lib\ARM\STM32F10x_LIB_V3.0.1\Libraries\STM32F10x_StdPeriph_Driver\src/stm32f10x_gpio.c:552
    tmpreg |= ~DBGAFR_SWJCFG_MASK;
  34:	f043 6170 	orr.w	r1, r3, #251658240	; 0xf000000
C:\Program Files (x86)\Raisonance\Ride\lib\ARM\STM32F10x_LIB_V3.0.1\Libraries\STM32F10x_StdPeriph_Driver\src/stm32f10x_gpio.c:560
  {
    tmpreg &= ~(tmp << ((GPIO_Remap >> 0x15)*0x10));
    tmpreg |= ~DBGAFR_SWJCFG_MASK;
  }

  if (NewState != DISABLE)
  38:	b124      	cbz	r4, 44 <GPIO_PinRemapConfig+0x44>
C:\Program Files (x86)\Raisonance\Ride\lib\ARM\STM32F10x_LIB_V3.0.1\Libraries\STM32F10x_StdPeriph_Driver\src/stm32f10x_gpio.c:562
  {
    tmpreg |= (tmp << ((GPIO_Remap >> 0x15)*0x10));
  3a:	0d43      	lsrs	r3, r0, #21
  3c:	011b      	lsls	r3, r3, #4
  3e:	fa0c f303 	lsl.w	r3, ip, r3
  42:	4319      	orrs	r1, r3
C:\Program Files (x86)\Raisonance\Ride\lib\ARM\STM32F10x_LIB_V3.0.1\Libraries\STM32F10x_StdPeriph_Driver\src/stm32f10x_gpio.c:565
  }

  AFIO->MAPR = tmpreg;
  44:	f240 0300 	movw	r3, #0	; 0x0
  48:	f2c4 0301 	movt	r3, #16385	; 0x4001
  4c:	6059      	str	r1, [r3, #4]
C:\Program Files (x86)\Raisonance\Ride\lib\ARM\STM32F10x_LIB_V3.0.1\Libraries\STM32F10x_StdPeriph_Driver\src/stm32f10x_gpio.c:566
}
  4e:	bc10      	pop	{r4}
  50:	4770      	bx	lr
C:\Program Files (x86)\Raisonance\Ride\lib\ARM\STM32F10x_LIB_V3.0.1\Libraries\STM32F10x_StdPeriph_Driver\src/stm32f10x_gpio.c:556
    tmpreg &= ~tmp1;
    tmpreg |= ~DBGAFR_SWJCFG_MASK;
  }
  else
  {
    tmpreg &= ~(tmp << ((GPIO_Remap >> 0x15)*0x10));
  52:	0d43      	lsrs	r3, r0, #21
  54:	011b      	lsls	r3, r3, #4
  56:	fa0c f303 	lsl.w	r3, ip, r3
  5a:	43db      	mvns	r3, r3
  5c:	400b      	ands	r3, r1
C:\Program Files (x86)\Raisonance\Ride\lib\ARM\STM32F10x_LIB_V3.0.1\Libraries\STM32F10x_StdPeriph_Driver\src/stm32f10x_gpio.c:557
    tmpreg |= ~DBGAFR_SWJCFG_MASK;
  5e:	f043 6170 	orr.w	r1, r3, #251658240	; 0xf000000
  62:	e7e9      	b.n	38 <GPIO_PinRemapConfig+0x38>
C:\Program Files (x86)\Raisonance\Ride\lib\ARM\STM32F10x_LIB_V3.0.1\Libraries\STM32F10x_StdPeriph_Driver\src/stm32f10x_gpio.c:546
  tmp = GPIO_Remap & LSB_MASK;

  if ((GPIO_Remap & (DBGAFR_LOCATION_MASK | DBGAFR_NUMBITS_MASK)) == (DBGAFR_LOCATION_MASK | DBGAFR_NUMBITS_MASK))
  {
    tmpreg &= DBGAFR_SWJCFG_MASK;
    AFIO->MAPR &= DBGAFR_SWJCFG_MASK;
  64:	6853      	ldr	r3, [r2, #4]
C:\Program Files (x86)\Raisonance\Ride\lib\ARM\STM32F10x_LIB_V3.0.1\Libraries\STM32F10x_StdPeriph_Driver\src/stm32f10x_gpio.c:545
  tmpmask = (GPIO_Remap & DBGAFR_POSITION_MASK) >> 0x10;
  tmp = GPIO_Remap & LSB_MASK;

  if ((GPIO_Remap & (DBGAFR_LOCATION_MASK | DBGAFR_NUMBITS_MASK)) == (DBGAFR_LOCATION_MASK | DBGAFR_NUMBITS_MASK))
  {
    tmpreg &= DBGAFR_SWJCFG_MASK;
  66:	f021 6170 	bic.w	r1, r1, #251658240	; 0xf000000
C:\Program Files (x86)\Raisonance\Ride\lib\ARM\STM32F10x_LIB_V3.0.1\Libraries\STM32F10x_StdPeriph_Driver\src/stm32f10x_gpio.c:546
    AFIO->MAPR &= DBGAFR_SWJCFG_MASK;
  6a:	f023 6370 	bic.w	r3, r3, #251658240	; 0xf000000
  6e:	6053      	str	r3, [r2, #4]
  70:	e7e2      	b.n	38 <GPIO_PinRemapConfig+0x38>
  72:	46c0      	nop			(mov r8, r8)
Disassembly of section .text.GPIO_EXTILineConfig:

00000000 <GPIO_EXTILineConfig>:
GPIO_EXTILineConfig():
C:\Program Files (x86)\Raisonance\Ride\lib\ARM\STM32F10x_LIB_V3.0.1\Libraries\STM32F10x_StdPeriph_Driver\src/stm32f10x_gpio.c:577
  * @param  GPIO_PinSource: specifies the EXTI line to be configured.
  *   This parameter can be GPIO_PinSourcex where x can be (0..15).
  * @retval None
  */
void GPIO_EXTILineConfig(uint8_t GPIO_PortSource, uint8_t GPIO_PinSource)
{
   0:	b430      	push	{r4, r5}
C:\Program Files (x86)\Raisonance\Ride\lib\ARM\STM32F10x_LIB_V3.0.1\Libraries\STM32F10x_StdPeriph_Driver\src/stm32f10x_gpio.c:583
  uint32_t tmp = 0x00;
  /* Check the parameters */
  assert_param(IS_GPIO_EXTI_PORT_SOURCE(GPIO_PortSource));
  assert_param(IS_GPIO_PIN_SOURCE(GPIO_PinSource));
  
  tmp = ((uint32_t)0x0F) << (0x04 * (GPIO_PinSource & (uint8_t)0x03));
   2:	f001 0503 	and.w	r5, r1, #3	; 0x3
   6:	00ad      	lsls	r5, r5, #2
C:\Program Files (x86)\Raisonance\Ride\lib\ARM\STM32F10x_LIB_V3.0.1\Libraries\STM32F10x_StdPeriph_Driver\src/stm32f10x_gpio.c:584
  AFIO->EXTICR[GPIO_PinSource >> 0x02] &= ~tmp;
   8:	230f      	movs	r3, #15
   a:	40ab      	lsls	r3, r5
C:\Program Files (x86)\Raisonance\Ride\lib\ARM\STM32F10x_LIB_V3.0.1\Libraries\STM32F10x_StdPeriph_Driver\src/stm32f10x_gpio.c:585
  AFIO->EXTICR[GPIO_PinSource >> 0x02] |= (((uint32_t)GPIO_PortSource) << (0x04 * (GPIO_PinSource & (uint8_t)0x03)));
   c:	40a8      	lsls	r0, r5
C:\Program Files (x86)\Raisonance\Ride\lib\ARM\STM32F10x_LIB_V3.0.1\Libraries\STM32F10x_StdPeriph_Driver\src/stm32f10x_gpio.c:584
  /* Check the parameters */
  assert_param(IS_GPIO_EXTI_PORT_SOURCE(GPIO_PortSource));
  assert_param(IS_GPIO_PIN_SOURCE(GPIO_PinSource));
  
  tmp = ((uint32_t)0x0F) << (0x04 * (GPIO_PinSource & (uint8_t)0x03));
  AFIO->EXTICR[GPIO_PinSource >> 0x02] &= ~tmp;
   e:	0889      	lsrs	r1, r1, #2
  10:	f240 0200 	movw	r2, #0	; 0x0
  14:	f2c4 0201 	movt	r2, #16385	; 0x4001
  18:	3102      	adds	r1, #2
  1a:	f852 4021 	ldr.w	r4, [r2, r1, lsl #2]
  1e:	43db      	mvns	r3, r3
  20:	4023      	ands	r3, r4
  22:	f842 3021 	str.w	r3, [r2, r1, lsl #2]
C:\Program Files (x86)\Raisonance\Ride\lib\ARM\STM32F10x_LIB_V3.0.1\Libraries\STM32F10x_StdPeriph_Driver\src/stm32f10x_gpio.c:585
  AFIO->EXTICR[GPIO_PinSource >> 0x02] |= (((uint32_t)GPIO_PortSource) << (0x04 * (GPIO_PinSource & (uint8_t)0x03)));
  26:	f852 4021 	ldr.w	r4, [r2, r1, lsl #2]
  2a:	4320      	orrs	r0, r4
  2c:	f842 0021 	str.w	r0, [r2, r1, lsl #2]
C:\Program Files (x86)\Raisonance\Ride\lib\ARM\STM32F10x_LIB_V3.0.1\Libraries\STM32F10x_StdPeriph_Driver\src/stm32f10x_gpio.c:586
}
  30:	bc30      	pop	{r4, r5}
  32:	4770      	bx	lr
Disassembly of section .text.GPIO_ETH_MediaInterfaceConfig:

00000000 <GPIO_ETH_MediaInterfaceConfig>:
GPIO_ETH_MediaInterfaceConfig():
C:\Program Files (x86)\Raisonance\Ride\lib\ARM\STM32F10x_LIB_V3.0.1\Libraries\STM32F10x_StdPeriph_Driver\src/stm32f10x_gpio.c:602
void GPIO_ETH_MediaInterfaceConfig(uint32_t GPIO_ETH_MediaInterface) 
{ 
  assert_param(IS_GPIO_ETH_MEDIA_INTERFACE(GPIO_ETH_MediaInterface)); 

  /* Configure MII_RMII selection bit */ 
  *(__IO uint32_t *) MAPR_MII_RMII_SEL_BB = GPIO_ETH_MediaInterface; 
   0:	f240 03dc 	movw	r3, #220	; 0xdc
   4:	f2c4 2320 	movt	r3, #16928	; 0x4220
   8:	6018      	str	r0, [r3, #0]
C:\Program Files (x86)\Raisonance\Ride\lib\ARM\STM32F10x_LIB_V3.0.1\Libraries\STM32F10x_StdPeriph_Driver\src/stm32f10x_gpio.c:603
}
   a:	4770      	bx	lr
Disassembly of section .text.GPIO_AFIODeInit:

00000000 <GPIO_AFIODeInit>:
GPIO_AFIODeInit():
C:\Program Files (x86)\Raisonance\Ride\lib\ARM\STM32F10x_LIB_V3.0.1\Libraries\STM32F10x_StdPeriph_Driver\src/stm32f10x_gpio.c:160
  * @param  None
  * @retval None
  */
void GPIO_AFIODeInit(void)
{
  RCC_APB2PeriphResetCmd(RCC_APB2Periph_AFIO, ENABLE);
   0:	2001      	movs	r0, #1
   2:	4601      	mov	r1, r0
C:\Program Files (x86)\Raisonance\Ride\lib\ARM\STM32F10x_LIB_V3.0.1\Libraries\STM32F10x_StdPeriph_Driver\src/stm32f10x_gpio.c:159
  *   and EXTI configuration) registers to their default reset values.
  * @param  None
  * @retval None
  */
void GPIO_AFIODeInit(void)
{
   4:	b510      	push	{r4, lr}
C:\Program Files (x86)\Raisonance\Ride\lib\ARM\STM32F10x_LIB_V3.0.1\Libraries\STM32F10x_StdPeriph_Driver\src/stm32f10x_gpio.c:160
  RCC_APB2PeriphResetCmd(RCC_APB2Periph_AFIO, ENABLE);
   6:	f7ff fffe 	bl	0 <RCC_APB2PeriphResetCmd>
C:\Program Files (x86)\Raisonance\Ride\lib\ARM\STM32F10x_LIB_V3.0.1\Libraries\STM32F10x_StdPeriph_Driver\src/stm32f10x_gpio.c:161
  RCC_APB2PeriphResetCmd(RCC_APB2Periph_AFIO, DISABLE);
   a:	2001      	movs	r0, #1
   c:	2100      	movs	r1, #0
   e:	f7ff fffe 	bl	0 <RCC_APB2PeriphResetCmd>
C:\Program Files (x86)\Raisonance\Ride\lib\ARM\STM32F10x_LIB_V3.0.1\Libraries\STM32F10x_StdPeriph_Driver\src/stm32f10x_gpio.c:162
}
  12:	bd10      	pop	{r4, pc}
Disassembly of section .text.GPIO_DeInit:

00000000 <GPIO_DeInit>:
GPIO_DeInit():
C:\Program Files (x86)\Raisonance\Ride\lib\ARM\STM32F10x_LIB_V3.0.1\Libraries\STM32F10x_StdPeriph_Driver\src/stm32f10x_gpio.c:112
void GPIO_DeInit(GPIO_TypeDef* GPIOx)
{
  /* Check the parameters */
  assert_param(IS_GPIO_ALL_PERIPH(GPIOx));
  
  if (GPIOx == GPIOA)
   0:	f640 0300 	movw	r3, #2048	; 0x800
   4:	f2c4 0301 	movt	r3, #16385	; 0x4001
   8:	4298      	cmp	r0, r3
C:\Program Files (x86)\Raisonance\Ride\lib\ARM\STM32F10x_LIB_V3.0.1\Libraries\STM32F10x_StdPeriph_Driver\src/stm32f10x_gpio.c:108
  * @brief  Deinitializes the GPIOx peripheral registers to their default reset values.
  * @param  GPIOx: where x can be (A..G) to select the GPIO peripheral.
  * @retval None
  */
void GPIO_DeInit(GPIO_TypeDef* GPIOx)
{
   a:	b510      	push	{r4, lr}
C:\Program Files (x86)\Raisonance\Ride\lib\ARM\STM32F10x_LIB_V3.0.1\Libraries\STM32F10x_StdPeriph_Driver\src/stm32f10x_gpio.c:112
  /* Check the parameters */
  assert_param(IS_GPIO_ALL_PERIPH(GPIOx));
  
  if (GPIOx == GPIOA)
   c:	d024      	beq.n	58 <GPIO_DeInit+0x58>
C:\Program Files (x86)\Raisonance\Ride\lib\ARM\STM32F10x_LIB_V3.0.1\Libraries\STM32F10x_StdPeriph_Driver\src/stm32f10x_gpio.c:117
  {
    RCC_APB2PeriphResetCmd(RCC_APB2Periph_GPIOA, ENABLE);
    RCC_APB2PeriphResetCmd(RCC_APB2Periph_GPIOA, DISABLE);
  }
  else if (GPIOx == GPIOB)
   e:	f640 4300 	movw	r3, #3072	; 0xc00
  12:	f2c4 0301 	movt	r3, #16385	; 0x4001
  16:	4298      	cmp	r0, r3
  18:	d027      	beq.n	6a <GPIO_DeInit+0x6a>
C:\Program Files (x86)\Raisonance\Ride\lib\ARM\STM32F10x_LIB_V3.0.1\Libraries\STM32F10x_StdPeriph_Driver\src/stm32f10x_gpio.c:122
  {
    RCC_APB2PeriphResetCmd(RCC_APB2Periph_GPIOB, ENABLE);
    RCC_APB2PeriphResetCmd(RCC_APB2Periph_GPIOB, DISABLE);
  }
  else if (GPIOx == GPIOC)
  1a:	f241 0300 	movw	r3, #4096	; 0x1000
  1e:	f2c4 0301 	movt	r3, #16385	; 0x4001
  22:	4298      	cmp	r0, r3
  24:	d035      	beq.n	92 <GPIO_DeInit+0x92>
C:\Program Files (x86)\Raisonance\Ride\lib\ARM\STM32F10x_LIB_V3.0.1\Libraries\STM32F10x_StdPeriph_Driver\src/stm32f10x_gpio.c:127
  {
    RCC_APB2PeriphResetCmd(RCC_APB2Periph_GPIOC, ENABLE);
    RCC_APB2PeriphResetCmd(RCC_APB2Periph_GPIOC, DISABLE);
  }
  else if (GPIOx == GPIOD)
  26:	f241 4300 	movw	r3, #5120	; 0x1400
  2a:	f2c4 0301 	movt	r3, #16385	; 0x4001
  2e:	4298      	cmp	r0, r3
  30:	d038      	beq.n	a4 <GPIO_DeInit+0xa4>
C:\Program Files (x86)\Raisonance\Ride\lib\ARM\STM32F10x_LIB_V3.0.1\Libraries\STM32F10x_StdPeriph_Driver\src/stm32f10x_gpio.c:132
  {
    RCC_APB2PeriphResetCmd(RCC_APB2Periph_GPIOD, ENABLE);
    RCC_APB2PeriphResetCmd(RCC_APB2Periph_GPIOD, DISABLE);
  }    
  else if (GPIOx == GPIOE)
  32:	f641 0300 	movw	r3, #6144	; 0x1800
  36:	f2c4 0301 	movt	r3, #16385	; 0x4001
  3a:	4298      	cmp	r0, r3
  3c:	d03b      	beq.n	b6 <GPIO_DeInit+0xb6>
C:\Program Files (x86)\Raisonance\Ride\lib\ARM\STM32F10x_LIB_V3.0.1\Libraries\STM32F10x_StdPeriph_Driver\src/stm32f10x_gpio.c:137
  {
    RCC_APB2PeriphResetCmd(RCC_APB2Periph_GPIOE, ENABLE);
    RCC_APB2PeriphResetCmd(RCC_APB2Periph_GPIOE, DISABLE);
  } 
  else if (GPIOx == GPIOF)
  3e:	f641 4300 	movw	r3, #7168	; 0x1c00
  42:	f2c4 0301 	movt	r3, #16385	; 0x4001
  46:	4298      	cmp	r0, r3
  48:	d03e      	beq.n	c8 <GPIO_DeInit+0xc8>
C:\Program Files (x86)\Raisonance\Ride\lib\ARM\STM32F10x_LIB_V3.0.1\Libraries\STM32F10x_StdPeriph_Driver\src/stm32f10x_gpio.c:144
    RCC_APB2PeriphResetCmd(RCC_APB2Periph_GPIOF, ENABLE);
    RCC_APB2PeriphResetCmd(RCC_APB2Periph_GPIOF, DISABLE);
  }
  else
  {
    if (GPIOx == GPIOG)
  4a:	f242 0300 	movw	r3, #8192	; 0x2000
  4e:	f2c4 0301 	movt	r3, #16385	; 0x4001
  52:	4298      	cmp	r0, r3
  54:	d012      	beq.n	7c <GPIO_DeInit+0x7c>
C:\Program Files (x86)\Raisonance\Ride\lib\ARM\STM32F10x_LIB_V3.0.1\Libraries\STM32F10x_StdPeriph_Driver\src/stm32f10x_gpio.c:150
    {
      RCC_APB2PeriphResetCmd(RCC_APB2Periph_GPIOG, ENABLE);
      RCC_APB2PeriphResetCmd(RCC_APB2Periph_GPIOG, DISABLE);
    }
  }
}
  56:	bd10      	pop	{r4, pc}
C:\Program Files (x86)\Raisonance\Ride\lib\ARM\STM32F10x_LIB_V3.0.1\Libraries\STM32F10x_StdPeriph_Driver\src/stm32f10x_gpio.c:114
  /* Check the parameters */
  assert_param(IS_GPIO_ALL_PERIPH(GPIOx));
  
  if (GPIOx == GPIOA)
  {
    RCC_APB2PeriphResetCmd(RCC_APB2Periph_GPIOA, ENABLE);
  58:	2004      	movs	r0, #4
  5a:	2101      	movs	r1, #1
  5c:	f7ff fffe 	bl	0 <RCC_APB2PeriphResetCmd>
C:\Program Files (x86)\Raisonance\Ride\lib\ARM\STM32F10x_LIB_V3.0.1\Libraries\STM32F10x_StdPeriph_Driver\src/stm32f10x_gpio.c:115
    RCC_APB2PeriphResetCmd(RCC_APB2Periph_GPIOA, DISABLE);
  60:	2004      	movs	r0, #4
  62:	2100      	movs	r1, #0
  64:	f7ff fffe 	bl	0 <RCC_APB2PeriphResetCmd>
  68:	e7f5      	b.n	56 <GPIO_DeInit+0x56>
C:\Program Files (x86)\Raisonance\Ride\lib\ARM\STM32F10x_LIB_V3.0.1\Libraries\STM32F10x_StdPeriph_Driver\src/stm32f10x_gpio.c:119
  }
  else if (GPIOx == GPIOB)
  {
    RCC_APB2PeriphResetCmd(RCC_APB2Periph_GPIOB, ENABLE);
  6a:	2008      	movs	r0, #8
  6c:	2101      	movs	r1, #1
  6e:	f7ff fffe 	bl	0 <RCC_APB2PeriphResetCmd>
C:\Program Files (x86)\Raisonance\Ride\lib\ARM\STM32F10x_LIB_V3.0.1\Libraries\STM32F10x_StdPeriph_Driver\src/stm32f10x_gpio.c:120
    RCC_APB2PeriphResetCmd(RCC_APB2Periph_GPIOB, DISABLE);
  72:	2008      	movs	r0, #8
  74:	2100      	movs	r1, #0
  76:	f7ff fffe 	bl	0 <RCC_APB2PeriphResetCmd>
  7a:	e7ec      	b.n	56 <GPIO_DeInit+0x56>
C:\Program Files (x86)\Raisonance\Ride\lib\ARM\STM32F10x_LIB_V3.0.1\Libraries\STM32F10x_StdPeriph_Driver\src/stm32f10x_gpio.c:146
  }
  else
  {
    if (GPIOx == GPIOG)
    {
      RCC_APB2PeriphResetCmd(RCC_APB2Periph_GPIOG, ENABLE);
  7c:	2101      	movs	r1, #1
  7e:	f44f 7080 	mov.w	r0, #256	; 0x100
  82:	f7ff fffe 	bl	0 <RCC_APB2PeriphResetCmd>
C:\Program Files (x86)\Raisonance\Ride\lib\ARM\STM32F10x_LIB_V3.0.1\Libraries\STM32F10x_StdPeriph_Driver\src/stm32f10x_gpio.c:147
      RCC_APB2PeriphResetCmd(RCC_APB2Periph_GPIOG, DISABLE);
  86:	f44f 7080 	mov.w	r0, #256	; 0x100
  8a:	2100      	movs	r1, #0
  8c:	f7ff fffe 	bl	0 <RCC_APB2PeriphResetCmd>
  90:	e7e1      	b.n	56 <GPIO_DeInit+0x56>
C:\Program Files (x86)\Raisonance\Ride\lib\ARM\STM32F10x_LIB_V3.0.1\Libraries\STM32F10x_StdPeriph_Driver\src/stm32f10x_gpio.c:124
    RCC_APB2PeriphResetCmd(RCC_APB2Periph_GPIOB, ENABLE);
    RCC_APB2PeriphResetCmd(RCC_APB2Periph_GPIOB, DISABLE);
  }
  else if (GPIOx == GPIOC)
  {
    RCC_APB2PeriphResetCmd(RCC_APB2Periph_GPIOC, ENABLE);
  92:	2010      	movs	r0, #16
  94:	2101      	movs	r1, #1
  96:	f7ff fffe 	bl	0 <RCC_APB2PeriphResetCmd>
C:\Program Files (x86)\Raisonance\Ride\lib\ARM\STM32F10x_LIB_V3.0.1\Libraries\STM32F10x_StdPeriph_Driver\src/stm32f10x_gpio.c:125
    RCC_APB2PeriphResetCmd(RCC_APB2Periph_GPIOC, DISABLE);
  9a:	2010      	movs	r0, #16
  9c:	2100      	movs	r1, #0
  9e:	f7ff fffe 	bl	0 <RCC_APB2PeriphResetCmd>
  a2:	e7d8      	b.n	56 <GPIO_DeInit+0x56>
C:\Program Files (x86)\Raisonance\Ride\lib\ARM\STM32F10x_LIB_V3.0.1\Libraries\STM32F10x_StdPeriph_Driver\src/stm32f10x_gpio.c:129
  }
  else if (GPIOx == GPIOD)
  {
    RCC_APB2PeriphResetCmd(RCC_APB2Periph_GPIOD, ENABLE);
  a4:	2020      	movs	r0, #32
  a6:	2101      	movs	r1, #1
  a8:	f7ff fffe 	bl	0 <RCC_APB2PeriphResetCmd>
C:\Program Files (x86)\Raisonance\Ride\lib\ARM\STM32F10x_LIB_V3.0.1\Libraries\STM32F10x_StdPeriph_Driver\src/stm32f10x_gpio.c:130
    RCC_APB2PeriphResetCmd(RCC_APB2Periph_GPIOD, DISABLE);
  ac:	2020      	movs	r0, #32
  ae:	2100      	movs	r1, #0
  b0:	f7ff fffe 	bl	0 <RCC_APB2PeriphResetCmd>
  b4:	e7cf      	b.n	56 <GPIO_DeInit+0x56>
C:\Program Files (x86)\Raisonance\Ride\lib\ARM\STM32F10x_LIB_V3.0.1\Libraries\STM32F10x_StdPeriph_Driver\src/stm32f10x_gpio.c:134
  }    
  else if (GPIOx == GPIOE)
  {
    RCC_APB2PeriphResetCmd(RCC_APB2Periph_GPIOE, ENABLE);
  b6:	2040      	movs	r0, #64
  b8:	2101      	movs	r1, #1
  ba:	f7ff fffe 	bl	0 <RCC_APB2PeriphResetCmd>
C:\Program Files (x86)\Raisonance\Ride\lib\ARM\STM32F10x_LIB_V3.0.1\Libraries\STM32F10x_StdPeriph_Driver\src/stm32f10x_gpio.c:135
    RCC_APB2PeriphResetCmd(RCC_APB2Periph_GPIOE, DISABLE);
  be:	2040      	movs	r0, #64
  c0:	2100      	movs	r1, #0
  c2:	f7ff fffe 	bl	0 <RCC_APB2PeriphResetCmd>
  c6:	e7c6      	b.n	56 <GPIO_DeInit+0x56>
C:\Program Files (x86)\Raisonance\Ride\lib\ARM\STM32F10x_LIB_V3.0.1\Libraries\STM32F10x_StdPeriph_Driver\src/stm32f10x_gpio.c:139
  } 
  else if (GPIOx == GPIOF)
  {
    RCC_APB2PeriphResetCmd(RCC_APB2Periph_GPIOF, ENABLE);
  c8:	2080      	movs	r0, #128
  ca:	2101      	movs	r1, #1
  cc:	f7ff fffe 	bl	0 <RCC_APB2PeriphResetCmd>
C:\Program Files (x86)\Raisonance\Ride\lib\ARM\STM32F10x_LIB_V3.0.1\Libraries\STM32F10x_StdPeriph_Driver\src/stm32f10x_gpio.c:140
    RCC_APB2PeriphResetCmd(RCC_APB2Periph_GPIOF, DISABLE);
  d0:	2080      	movs	r0, #128
  d2:	2100      	movs	r1, #0
  d4:	f7ff fffe 	bl	0 <RCC_APB2PeriphResetCmd>
  d8:	e7bd      	b.n	56 <RCC_APB2PeriphResetCmd+0x56>
  da:	46c0      	nop			(mov r8, r8)
