ARM GAS  C:\Users\ilya\AppData\Local\Temp\cchJq1OJ.s 			page 1


   1              		.syntax unified
   2              		.cpu cortex-m0
   3              		.fpu softvfp
   4              		.eabi_attribute 20, 1
   5              		.eabi_attribute 21, 1
   6              		.eabi_attribute 23, 3
   7              		.eabi_attribute 24, 1
   8              		.eabi_attribute 25, 1
   9              		.eabi_attribute 26, 1
  10              		.eabi_attribute 30, 2
  11              		.eabi_attribute 34, 0
  12              		.eabi_attribute 18, 4
  13              		.thumb
  14              		.syntax unified
  15              		.file	"CyDMA.c"
  16              		.text
  17              	.Ltext0:
  18              		.cfi_sections	.debug_frame
  19              		.section	.text.CyDmaInterrupt,"ax",%progbits
  20              		.align	2
  21              		.global	CyDmaInterrupt
  22              		.code	16
  23              		.thumb_func
  24              		.type	CyDmaInterrupt, %function
  25              	CyDmaInterrupt:
  26              	.LFB15:
  27              		.file 1 "Generated_Source\\PSoC4\\CyDMA.c"
   1:Generated_Source\PSoC4/CyDMA.c **** /*******************************************************************************
   2:Generated_Source\PSoC4/CyDMA.c **** * File Name: CyDMA.c
   3:Generated_Source\PSoC4/CyDMA.c **** * Version 1.10
   4:Generated_Source\PSoC4/CyDMA.c **** *
   5:Generated_Source\PSoC4/CyDMA.c **** * Description:
   6:Generated_Source\PSoC4/CyDMA.c **** *  This file contains all of the global DMA API functions.
   7:Generated_Source\PSoC4/CyDMA.c **** *
   8:Generated_Source\PSoC4/CyDMA.c **** ********************************************************************************
   9:Generated_Source\PSoC4/CyDMA.c **** * Copyright 2015, Cypress Semiconductor Corporation. All rights reserved.
  10:Generated_Source\PSoC4/CyDMA.c **** * You may use this file only in accordance with the license, terms, conditions,
  11:Generated_Source\PSoC4/CyDMA.c **** * disclaimers, and limitations in the end user license agreement accompanying
  12:Generated_Source\PSoC4/CyDMA.c **** * the software package with which this file was provided.
  13:Generated_Source\PSoC4/CyDMA.c **** *******************************************************************************/
  14:Generated_Source\PSoC4/CyDMA.c **** 
  15:Generated_Source\PSoC4/CyDMA.c **** #include "CyDMA.h"
  16:Generated_Source\PSoC4/CyDMA.c **** #include "CyLib.h"
  17:Generated_Source\PSoC4/CyDMA.c **** 
  18:Generated_Source\PSoC4/CyDMA.c **** /* Default callback function. It is invoked if the user callback function is
  19:Generated_Source\PSoC4/CyDMA.c **** * undefined.
  20:Generated_Source\PSoC4/CyDMA.c **** */
  21:Generated_Source\PSoC4/CyDMA.c **** static void CyDmaDefaultInterruptCallback(void);
  22:Generated_Source\PSoC4/CyDMA.c **** 
  23:Generated_Source\PSoC4/CyDMA.c **** /* Array of pointers to user defined callback functions to be called
  24:Generated_Source\PSoC4/CyDMA.c **** * from DMA interrupt.
  25:Generated_Source\PSoC4/CyDMA.c **** */
  26:Generated_Source\PSoC4/CyDMA.c **** static cydma_callback_t CyDmaInterruptCallback[CYDMA_CH_NR] = {
  27:Generated_Source\PSoC4/CyDMA.c ****     &CyDmaDefaultInterruptCallback, &CyDmaDefaultInterruptCallback,
  28:Generated_Source\PSoC4/CyDMA.c ****     &CyDmaDefaultInterruptCallback, &CyDmaDefaultInterruptCallback,
  29:Generated_Source\PSoC4/CyDMA.c ****     &CyDmaDefaultInterruptCallback, &CyDmaDefaultInterruptCallback,
  30:Generated_Source\PSoC4/CyDMA.c ****     &CyDmaDefaultInterruptCallback, &CyDmaDefaultInterruptCallback
ARM GAS  C:\Users\ilya\AppData\Local\Temp\cchJq1OJ.s 			page 2


  31:Generated_Source\PSoC4/CyDMA.c **** };
  32:Generated_Source\PSoC4/CyDMA.c **** 
  33:Generated_Source\PSoC4/CyDMA.c **** /* The live status of all DMA channels usage. Bit i is associated to channel i,
  34:Generated_Source\PSoC4/CyDMA.c **** * with i = 0..CYDMA_CH_NR-1. '0' - channel is free. '1' - channel is in use.
  35:Generated_Source\PSoC4/CyDMA.c **** * All the channels allocated for DMA instances placed on a schematic are in use
  36:Generated_Source\PSoC4/CyDMA.c **** * by default and cannot be freed. 
  37:Generated_Source\PSoC4/CyDMA.c **** * DMA_CHANNELS_USED__MASK is generated during the build time and is a bit field
  38:Generated_Source\PSoC4/CyDMA.c **** * corresponding to the DMA channels placed on a design schematic.
  39:Generated_Source\PSoC4/CyDMA.c **** */
  40:Generated_Source\PSoC4/CyDMA.c **** static uint32 CyDmaChannelUsedMask = DMA_CHANNELS_USED__MASK;
  41:Generated_Source\PSoC4/CyDMA.c **** 
  42:Generated_Source\PSoC4/CyDMA.c **** 
  43:Generated_Source\PSoC4/CyDMA.c **** /*******************************************************************************
  44:Generated_Source\PSoC4/CyDMA.c **** * Function Name: CyDmaEnable
  45:Generated_Source\PSoC4/CyDMA.c **** ********************************************************************************
  46:Generated_Source\PSoC4/CyDMA.c **** *
  47:Generated_Source\PSoC4/CyDMA.c **** * Summary:
  48:Generated_Source\PSoC4/CyDMA.c **** *  Sets the default ISR to be called by the DMA interrupt and enables the DMA
  49:Generated_Source\PSoC4/CyDMA.c **** *  transfer engine.
  50:Generated_Source\PSoC4/CyDMA.c **** *
  51:Generated_Source\PSoC4/CyDMA.c **** * Parameters:
  52:Generated_Source\PSoC4/CyDMA.c **** *  None.
  53:Generated_Source\PSoC4/CyDMA.c **** *                   
  54:Generated_Source\PSoC4/CyDMA.c **** * Return:
  55:Generated_Source\PSoC4/CyDMA.c **** *  None.
  56:Generated_Source\PSoC4/CyDMA.c **** *
  57:Generated_Source\PSoC4/CyDMA.c **** * Side effect:
  58:Generated_Source\PSoC4/CyDMA.c **** *  Does not affect the channel enable status. Overrides the interrupt vector
  59:Generated_Source\PSoC4/CyDMA.c **** *  set prior the first time CyDmaEnable() is called.
  60:Generated_Source\PSoC4/CyDMA.c **** *
  61:Generated_Source\PSoC4/CyDMA.c **** *******************************************************************************/
  62:Generated_Source\PSoC4/CyDMA.c **** void CyDmaEnable(void)
  63:Generated_Source\PSoC4/CyDMA.c **** {
  64:Generated_Source\PSoC4/CyDMA.c ****     static uint8 initIntrVector = 0u;
  65:Generated_Source\PSoC4/CyDMA.c **** 
  66:Generated_Source\PSoC4/CyDMA.c ****     if(0u == initIntrVector)
  67:Generated_Source\PSoC4/CyDMA.c ****     {
  68:Generated_Source\PSoC4/CyDMA.c ****         CyDmaSetInterruptVector(&CyDmaInterrupt);
  69:Generated_Source\PSoC4/CyDMA.c ****         CyIntSetPriority(CYDMA_INTR_NUMBER, CYDMA_INTR_PRIO);
  70:Generated_Source\PSoC4/CyDMA.c ****         initIntrVector = 1u;
  71:Generated_Source\PSoC4/CyDMA.c ****     }
  72:Generated_Source\PSoC4/CyDMA.c ****     CYDMA_CTL_REG = CYDMA_ENABLED;
  73:Generated_Source\PSoC4/CyDMA.c **** }
  74:Generated_Source\PSoC4/CyDMA.c **** 
  75:Generated_Source\PSoC4/CyDMA.c **** 
  76:Generated_Source\PSoC4/CyDMA.c **** /*******************************************************************************
  77:Generated_Source\PSoC4/CyDMA.c **** * Function Name: CyDmaDisable
  78:Generated_Source\PSoC4/CyDMA.c **** ********************************************************************************
  79:Generated_Source\PSoC4/CyDMA.c **** *
  80:Generated_Source\PSoC4/CyDMA.c **** * Summary:
  81:Generated_Source\PSoC4/CyDMA.c **** *  Disables the DMA transfer engine.
  82:Generated_Source\PSoC4/CyDMA.c **** *
  83:Generated_Source\PSoC4/CyDMA.c **** * Parameters:
  84:Generated_Source\PSoC4/CyDMA.c **** *  None.
  85:Generated_Source\PSoC4/CyDMA.c **** *                   
  86:Generated_Source\PSoC4/CyDMA.c **** * Return:
  87:Generated_Source\PSoC4/CyDMA.c **** *  None.
ARM GAS  C:\Users\ilya\AppData\Local\Temp\cchJq1OJ.s 			page 3


  88:Generated_Source\PSoC4/CyDMA.c **** *
  89:Generated_Source\PSoC4/CyDMA.c **** * Side effect:
  90:Generated_Source\PSoC4/CyDMA.c **** *  Does not affect the channel enable status.
  91:Generated_Source\PSoC4/CyDMA.c **** *
  92:Generated_Source\PSoC4/CyDMA.c **** *******************************************************************************/
  93:Generated_Source\PSoC4/CyDMA.c **** void CyDmaDisable(void)
  94:Generated_Source\PSoC4/CyDMA.c **** {
  95:Generated_Source\PSoC4/CyDMA.c ****     CYDMA_CTL_REG = (uint32)~CYDMA_ENABLED;
  96:Generated_Source\PSoC4/CyDMA.c **** }
  97:Generated_Source\PSoC4/CyDMA.c **** 
  98:Generated_Source\PSoC4/CyDMA.c **** 
  99:Generated_Source\PSoC4/CyDMA.c **** /*******************************************************************************
 100:Generated_Source\PSoC4/CyDMA.c **** * Function Name: CyDmaGetStatus
 101:Generated_Source\PSoC4/CyDMA.c **** ********************************************************************************
 102:Generated_Source\PSoC4/CyDMA.c **** *
 103:Generated_Source\PSoC4/CyDMA.c **** * Summary:
 104:Generated_Source\PSoC4/CyDMA.c **** *  Returns the status of the DMA transfer engine.
 105:Generated_Source\PSoC4/CyDMA.c **** *
 106:Generated_Source\PSoC4/CyDMA.c **** * Parameters:
 107:Generated_Source\PSoC4/CyDMA.c **** *  None.
 108:Generated_Source\PSoC4/CyDMA.c **** *                   
 109:Generated_Source\PSoC4/CyDMA.c **** * Return:
 110:Generated_Source\PSoC4/CyDMA.c **** *  The contents of the DMA status register. Refer to the status register bit
 111:Generated_Source\PSoC4/CyDMA.c **** *  definitions in CyDMA_P4.h or the API description in the DMA channel
 112:Generated_Source\PSoC4/CyDMA.c **** *  datasheet.
 113:Generated_Source\PSoC4/CyDMA.c **** *
 114:Generated_Source\PSoC4/CyDMA.c **** * Side effect:
 115:Generated_Source\PSoC4/CyDMA.c **** *  The series of function calls CyDmaGetActiveSrcAddress(),
 116:Generated_Source\PSoC4/CyDMA.c **** *  CyDmaGetActiveDstAddress(), CyDmaGetStatus() are not atomic, the DMA
 117:Generated_Source\PSoC4/CyDMA.c **** *  engine may have advanced after one or more of these function calls. Meaning
 118:Generated_Source\PSoC4/CyDMA.c **** *  the returns from these three functions may not be related to each other.
 119:Generated_Source\PSoC4/CyDMA.c **** *
 120:Generated_Source\PSoC4/CyDMA.c **** *******************************************************************************/
 121:Generated_Source\PSoC4/CyDMA.c **** uint32 CyDmaGetStatus(void)
 122:Generated_Source\PSoC4/CyDMA.c **** {
 123:Generated_Source\PSoC4/CyDMA.c ****     return (CYDMA_STATUS_REG);
 124:Generated_Source\PSoC4/CyDMA.c **** }
 125:Generated_Source\PSoC4/CyDMA.c **** 
 126:Generated_Source\PSoC4/CyDMA.c **** 
 127:Generated_Source\PSoC4/CyDMA.c **** /*******************************************************************************
 128:Generated_Source\PSoC4/CyDMA.c **** * Function Name: CyDmaGetActiveChannels
 129:Generated_Source\PSoC4/CyDMA.c **** ********************************************************************************
 130:Generated_Source\PSoC4/CyDMA.c **** *
 131:Generated_Source\PSoC4/CyDMA.c **** * Summary:
 132:Generated_Source\PSoC4/CyDMA.c **** *  Returns a bit field of all the DMA channels that are either active or
 133:Generated_Source\PSoC4/CyDMA.c **** *  pending.
 134:Generated_Source\PSoC4/CyDMA.c **** *
 135:Generated_Source\PSoC4/CyDMA.c **** * Parameters:
 136:Generated_Source\PSoC4/CyDMA.c **** *  None.
 137:Generated_Source\PSoC4/CyDMA.c **** *                   
 138:Generated_Source\PSoC4/CyDMA.c **** * Return:
 139:Generated_Source\PSoC4/CyDMA.c **** *  Bit field of active and pending channels. 
 140:Generated_Source\PSoC4/CyDMA.c **** *
 141:Generated_Source\PSoC4/CyDMA.c **** *******************************************************************************/
 142:Generated_Source\PSoC4/CyDMA.c **** uint32 CyDmaGetActiveChannels(void)
 143:Generated_Source\PSoC4/CyDMA.c **** {
 144:Generated_Source\PSoC4/CyDMA.c ****     return (CYDMA_STATUS_CH_ACT_REG);
ARM GAS  C:\Users\ilya\AppData\Local\Temp\cchJq1OJ.s 			page 4


 145:Generated_Source\PSoC4/CyDMA.c **** }
 146:Generated_Source\PSoC4/CyDMA.c **** 
 147:Generated_Source\PSoC4/CyDMA.c **** 
 148:Generated_Source\PSoC4/CyDMA.c **** /*******************************************************************************
 149:Generated_Source\PSoC4/CyDMA.c **** * Function Name: CyDmaGetActiveSrcAddress
 150:Generated_Source\PSoC4/CyDMA.c **** ********************************************************************************
 151:Generated_Source\PSoC4/CyDMA.c **** *
 152:Generated_Source\PSoC4/CyDMA.c **** * Summary:
 153:Generated_Source\PSoC4/CyDMA.c **** *  Returns the source address currently being used by the DMA transfer engine.
 154:Generated_Source\PSoC4/CyDMA.c **** *  This function can be used to debug the DMA, or observe where it is at in a
 155:Generated_Source\PSoC4/CyDMA.c **** *  transfer. It will not be used in normal DMA operation.
 156:Generated_Source\PSoC4/CyDMA.c **** *
 157:Generated_Source\PSoC4/CyDMA.c **** * Parameters:
 158:Generated_Source\PSoC4/CyDMA.c **** *  None.
 159:Generated_Source\PSoC4/CyDMA.c **** *                   
 160:Generated_Source\PSoC4/CyDMA.c **** * Return:
 161:Generated_Source\PSoC4/CyDMA.c **** *  Source address currently being used by the DMA transfer engine.
 162:Generated_Source\PSoC4/CyDMA.c **** *
 163:Generated_Source\PSoC4/CyDMA.c **** * Side effect:
 164:Generated_Source\PSoC4/CyDMA.c **** *  The series of function calls CyDmaGetActiveSrcAddress(),
 165:Generated_Source\PSoC4/CyDMA.c **** *  CyDmaGetActiveDstAddress(), CyDmaGetStatus() are not atomic, the DMA
 166:Generated_Source\PSoC4/CyDMA.c **** *  engine may have advanced after one or more of these function calls. Meaning
 167:Generated_Source\PSoC4/CyDMA.c **** *  the returns from these three functions may not be related to each other.
 168:Generated_Source\PSoC4/CyDMA.c **** *
 169:Generated_Source\PSoC4/CyDMA.c **** *******************************************************************************/
 170:Generated_Source\PSoC4/CyDMA.c **** void * CyDmaGetActiveSrcAddress(void)
 171:Generated_Source\PSoC4/CyDMA.c **** {
 172:Generated_Source\PSoC4/CyDMA.c ****     return ((void *)CYDMA_STATUS_SRC_ADDR_REG);
 173:Generated_Source\PSoC4/CyDMA.c **** }
 174:Generated_Source\PSoC4/CyDMA.c **** 
 175:Generated_Source\PSoC4/CyDMA.c **** 
 176:Generated_Source\PSoC4/CyDMA.c **** /*******************************************************************************
 177:Generated_Source\PSoC4/CyDMA.c **** * Function Name: CyDmaGetActiveDstAddress
 178:Generated_Source\PSoC4/CyDMA.c **** ********************************************************************************
 179:Generated_Source\PSoC4/CyDMA.c **** *
 180:Generated_Source\PSoC4/CyDMA.c **** * Summary:
 181:Generated_Source\PSoC4/CyDMA.c **** *  Returns the destination address currently being used by the DMA transfer
 182:Generated_Source\PSoC4/CyDMA.c **** *  engine. This function can be used to debug the DMA, or observe where it is at
 183:Generated_Source\PSoC4/CyDMA.c **** *  in a transfer. It will not be used in normal DMA operation.
 184:Generated_Source\PSoC4/CyDMA.c **** *
 185:Generated_Source\PSoC4/CyDMA.c **** * Parameters:
 186:Generated_Source\PSoC4/CyDMA.c **** *  None.
 187:Generated_Source\PSoC4/CyDMA.c **** *                   
 188:Generated_Source\PSoC4/CyDMA.c **** * Return:
 189:Generated_Source\PSoC4/CyDMA.c **** *  Destination address currently being used by the DMA transfer engine.
 190:Generated_Source\PSoC4/CyDMA.c **** *
 191:Generated_Source\PSoC4/CyDMA.c **** * Side effect:
 192:Generated_Source\PSoC4/CyDMA.c **** *  The series of function calls CyDmaGetActiveSrcAddress(),
 193:Generated_Source\PSoC4/CyDMA.c **** *  CyDmaGetActiveDstAddress(), CyDmaGetStatus() are not atomic, the DMA
 194:Generated_Source\PSoC4/CyDMA.c **** *  engine may have advanced after one or more of these function calls. Meaning
 195:Generated_Source\PSoC4/CyDMA.c **** *  the returns from these three functions may not be related to each other.
 196:Generated_Source\PSoC4/CyDMA.c **** *
 197:Generated_Source\PSoC4/CyDMA.c **** *******************************************************************************/
 198:Generated_Source\PSoC4/CyDMA.c **** void * CyDmaGetActiveDstAddress(void)
 199:Generated_Source\PSoC4/CyDMA.c **** {
 200:Generated_Source\PSoC4/CyDMA.c ****     return ((void *)CYDMA_STATUS_DST_ADDR_REG);
 201:Generated_Source\PSoC4/CyDMA.c **** }
ARM GAS  C:\Users\ilya\AppData\Local\Temp\cchJq1OJ.s 			page 5


 202:Generated_Source\PSoC4/CyDMA.c **** 
 203:Generated_Source\PSoC4/CyDMA.c **** 
 204:Generated_Source\PSoC4/CyDMA.c **** /*******************************************************************************
 205:Generated_Source\PSoC4/CyDMA.c **** * Function Name: CyDmaSetInterruptVector
 206:Generated_Source\PSoC4/CyDMA.c **** ********************************************************************************
 207:Generated_Source\PSoC4/CyDMA.c **** *
 208:Generated_Source\PSoC4/CyDMA.c **** * Summary:
 209:Generated_Source\PSoC4/CyDMA.c **** *  Sets the function that will be called by the DMA interrupt. Note, calling
 210:Generated_Source\PSoC4/CyDMA.c **** *  CyDmaEnable() for the first time overrides any effect this API could have.
 211:Generated_Source\PSoC4/CyDMA.c **** *  Call CyDmaSetInterruptVector() after calling CyDmaEnable() to change
 212:Generated_Source\PSoC4/CyDMA.c **** *  the default ISR.
 213:Generated_Source\PSoC4/CyDMA.c **** *
 214:Generated_Source\PSoC4/CyDMA.c **** * Parameters:
 215:Generated_Source\PSoC4/CyDMA.c **** *  interruptVector: Address of the function that will be called by the DMA
 216:Generated_Source\PSoC4/CyDMA.c **** *                   interrupt.
 217:Generated_Source\PSoC4/CyDMA.c **** * Return:
 218:Generated_Source\PSoC4/CyDMA.c **** *  None.
 219:Generated_Source\PSoC4/CyDMA.c **** *
 220:Generated_Source\PSoC4/CyDMA.c **** * Side effect:
 221:Generated_Source\PSoC4/CyDMA.c **** *  Other components that use DMA may register their callback functions to be
 222:Generated_Source\PSoC4/CyDMA.c **** *  called from the default DMA ISR. Therefore, changing the DMA ISR to a user
 223:Generated_Source\PSoC4/CyDMA.c **** *  defined ISR using this API may prevent these other components from
 224:Generated_Source\PSoC4/CyDMA.c **** *  functioning correctly.
 225:Generated_Source\PSoC4/CyDMA.c **** *
 226:Generated_Source\PSoC4/CyDMA.c **** *******************************************************************************/
 227:Generated_Source\PSoC4/CyDMA.c **** void CyDmaSetInterruptVector(cyisraddress interruptVector)
 228:Generated_Source\PSoC4/CyDMA.c **** {
 229:Generated_Source\PSoC4/CyDMA.c ****     (void)CyIntSetVector(CYDMA_INTR_NUMBER, interruptVector);
 230:Generated_Source\PSoC4/CyDMA.c **** }
 231:Generated_Source\PSoC4/CyDMA.c **** 
 232:Generated_Source\PSoC4/CyDMA.c **** 
 233:Generated_Source\PSoC4/CyDMA.c **** /*******************************************************************************
 234:Generated_Source\PSoC4/CyDMA.c **** * Function Name: CyDmaGetInterruptSource
 235:Generated_Source\PSoC4/CyDMA.c **** ********************************************************************************
 236:Generated_Source\PSoC4/CyDMA.c **** *
 237:Generated_Source\PSoC4/CyDMA.c **** * Summary:
 238:Generated_Source\PSoC4/CyDMA.c **** *  Returns the bit field of which channels generated an interrupt request.
 239:Generated_Source\PSoC4/CyDMA.c **** *
 240:Generated_Source\PSoC4/CyDMA.c **** * Parameters:
 241:Generated_Source\PSoC4/CyDMA.c **** *  None.
 242:Generated_Source\PSoC4/CyDMA.c **** *                   
 243:Generated_Source\PSoC4/CyDMA.c **** * Return:
 244:Generated_Source\PSoC4/CyDMA.c **** *  Bit filed of which channels generated an interrupt request.
 245:Generated_Source\PSoC4/CyDMA.c **** *
 246:Generated_Source\PSoC4/CyDMA.c **** *******************************************************************************/
 247:Generated_Source\PSoC4/CyDMA.c **** uint32 CyDmaGetInterruptSource(void)
 248:Generated_Source\PSoC4/CyDMA.c **** {
 249:Generated_Source\PSoC4/CyDMA.c ****     return (CYDMA_INTR_REG);
 250:Generated_Source\PSoC4/CyDMA.c **** }
 251:Generated_Source\PSoC4/CyDMA.c **** 
 252:Generated_Source\PSoC4/CyDMA.c **** 
 253:Generated_Source\PSoC4/CyDMA.c **** /*******************************************************************************
 254:Generated_Source\PSoC4/CyDMA.c **** * Function Name: CyDmaClearInterruptSource
 255:Generated_Source\PSoC4/CyDMA.c **** ********************************************************************************
 256:Generated_Source\PSoC4/CyDMA.c **** *
 257:Generated_Source\PSoC4/CyDMA.c **** * Summary:
 258:Generated_Source\PSoC4/CyDMA.c **** *  Clears the pending interrupts.
ARM GAS  C:\Users\ilya\AppData\Local\Temp\cchJq1OJ.s 			page 6


 259:Generated_Source\PSoC4/CyDMA.c **** *
 260:Generated_Source\PSoC4/CyDMA.c **** * Parameters:
 261:Generated_Source\PSoC4/CyDMA.c **** *  interruptMask: Bit field of interrupts to clear.
 262:Generated_Source\PSoC4/CyDMA.c **** *                   
 263:Generated_Source\PSoC4/CyDMA.c **** * Return:
 264:Generated_Source\PSoC4/CyDMA.c **** *  None.
 265:Generated_Source\PSoC4/CyDMA.c **** *
 266:Generated_Source\PSoC4/CyDMA.c **** *******************************************************************************/
 267:Generated_Source\PSoC4/CyDMA.c **** void CyDmaClearInterruptSource(uint32 interruptMask)
 268:Generated_Source\PSoC4/CyDMA.c **** {
 269:Generated_Source\PSoC4/CyDMA.c ****     CYDMA_INTR_REG = interruptMask;
 270:Generated_Source\PSoC4/CyDMA.c **** }
 271:Generated_Source\PSoC4/CyDMA.c **** 
 272:Generated_Source\PSoC4/CyDMA.c **** 
 273:Generated_Source\PSoC4/CyDMA.c **** /*******************************************************************************
 274:Generated_Source\PSoC4/CyDMA.c **** * Function Name: CyDmaSetInterruptSourceMask
 275:Generated_Source\PSoC4/CyDMA.c **** ********************************************************************************
 276:Generated_Source\PSoC4/CyDMA.c **** *
 277:Generated_Source\PSoC4/CyDMA.c **** * Summary:
 278:Generated_Source\PSoC4/CyDMA.c **** *  Sets mask for interrupt source.
 279:Generated_Source\PSoC4/CyDMA.c **** *
 280:Generated_Source\PSoC4/CyDMA.c **** * Parameters:
 281:Generated_Source\PSoC4/CyDMA.c **** *  interruptmask: Mask corresponding to interrupt bit field.
 282:Generated_Source\PSoC4/CyDMA.c **** *                   
 283:Generated_Source\PSoC4/CyDMA.c **** * Return:
 284:Generated_Source\PSoC4/CyDMA.c **** *  None.
 285:Generated_Source\PSoC4/CyDMA.c **** *
 286:Generated_Source\PSoC4/CyDMA.c **** *******************************************************************************/
 287:Generated_Source\PSoC4/CyDMA.c **** void CyDmaSetInterruptSourceMask(uint32 interruptMask)
 288:Generated_Source\PSoC4/CyDMA.c **** {
 289:Generated_Source\PSoC4/CyDMA.c ****     CYDMA_INTR_MASK_REG = interruptMask;
 290:Generated_Source\PSoC4/CyDMA.c **** }
 291:Generated_Source\PSoC4/CyDMA.c **** 
 292:Generated_Source\PSoC4/CyDMA.c **** 
 293:Generated_Source\PSoC4/CyDMA.c **** /*******************************************************************************
 294:Generated_Source\PSoC4/CyDMA.c **** * Function Name: CyDmaGetInterruptSourceMask
 295:Generated_Source\PSoC4/CyDMA.c **** ********************************************************************************
 296:Generated_Source\PSoC4/CyDMA.c **** *
 297:Generated_Source\PSoC4/CyDMA.c **** * Summary:
 298:Generated_Source\PSoC4/CyDMA.c **** *  Returns mask for interrupt source.
 299:Generated_Source\PSoC4/CyDMA.c **** *
 300:Generated_Source\PSoC4/CyDMA.c **** * Parameters:
 301:Generated_Source\PSoC4/CyDMA.c **** *  None.
 302:Generated_Source\PSoC4/CyDMA.c **** *                   
 303:Generated_Source\PSoC4/CyDMA.c **** * Return:
 304:Generated_Source\PSoC4/CyDMA.c **** *  Mask corresponding to interrupt bit field.
 305:Generated_Source\PSoC4/CyDMA.c **** *
 306:Generated_Source\PSoC4/CyDMA.c **** *******************************************************************************/
 307:Generated_Source\PSoC4/CyDMA.c **** uint32 CyDmaGetInterruptSourceMask(void)
 308:Generated_Source\PSoC4/CyDMA.c **** {
 309:Generated_Source\PSoC4/CyDMA.c ****     return (CYDMA_INTR_MASK_REG);
 310:Generated_Source\PSoC4/CyDMA.c **** }
 311:Generated_Source\PSoC4/CyDMA.c **** 
 312:Generated_Source\PSoC4/CyDMA.c **** 
 313:Generated_Source\PSoC4/CyDMA.c **** /*******************************************************************************
 314:Generated_Source\PSoC4/CyDMA.c **** * Function Name: CyDmaGetInterruptSourceMasked
 315:Generated_Source\PSoC4/CyDMA.c **** ********************************************************************************
ARM GAS  C:\Users\ilya\AppData\Local\Temp\cchJq1OJ.s 			page 7


 316:Generated_Source\PSoC4/CyDMA.c **** *
 317:Generated_Source\PSoC4/CyDMA.c **** * Summary:
 318:Generated_Source\PSoC4/CyDMA.c **** *  Returns the bitwise AND of the interrupt source and the interrupt mask.
 319:Generated_Source\PSoC4/CyDMA.c **** *
 320:Generated_Source\PSoC4/CyDMA.c **** * Parameters:
 321:Generated_Source\PSoC4/CyDMA.c **** *  None.
 322:Generated_Source\PSoC4/CyDMA.c **** *                   
 323:Generated_Source\PSoC4/CyDMA.c **** * Return:
 324:Generated_Source\PSoC4/CyDMA.c **** *  Bitwise AND of the interrupt source and the interrupt mask.
 325:Generated_Source\PSoC4/CyDMA.c **** *
 326:Generated_Source\PSoC4/CyDMA.c **** *******************************************************************************/
 327:Generated_Source\PSoC4/CyDMA.c **** uint32 CyDmaGetInterruptSourceMasked(void)
 328:Generated_Source\PSoC4/CyDMA.c **** {
 329:Generated_Source\PSoC4/CyDMA.c ****     return (CYDMA_INTR_MASKED_REG);
 330:Generated_Source\PSoC4/CyDMA.c **** }
 331:Generated_Source\PSoC4/CyDMA.c **** 
 332:Generated_Source\PSoC4/CyDMA.c **** 
 333:Generated_Source\PSoC4/CyDMA.c **** /*******************************************************************************
 334:Generated_Source\PSoC4/CyDMA.c **** * Function Name: CyDmaSetInterruptCallback
 335:Generated_Source\PSoC4/CyDMA.c **** ********************************************************************************
 336:Generated_Source\PSoC4/CyDMA.c **** *
 337:Generated_Source\PSoC4/CyDMA.c **** * Summary:
 338:Generated_Source\PSoC4/CyDMA.c **** *  Sets a user defined callback function to be called by the DMA interrupt. The
 339:Generated_Source\PSoC4/CyDMA.c **** *  function should contain code to process the interrupt request for the 
 340:Generated_Source\PSoC4/CyDMA.c **** *  associated DMA channel.
 341:Generated_Source\PSoC4/CyDMA.c **** *
 342:Generated_Source\PSoC4/CyDMA.c **** * Parameters:
 343:Generated_Source\PSoC4/CyDMA.c **** *  channel:  Channel used by this function.
 344:Generated_Source\PSoC4/CyDMA.c **** *  callback: Pointer to the user defined callback function.
 345:Generated_Source\PSoC4/CyDMA.c **** *
 346:Generated_Source\PSoC4/CyDMA.c **** * Return:
 347:Generated_Source\PSoC4/CyDMA.c **** *  Pointer to the function previously set for the specified channel. 
 348:Generated_Source\PSoC4/CyDMA.c **** *
 349:Generated_Source\PSoC4/CyDMA.c **** *******************************************************************************/
 350:Generated_Source\PSoC4/CyDMA.c **** cydma_callback_t CyDmaSetInterruptCallback(int32 channel, cydma_callback_t callback)
 351:Generated_Source\PSoC4/CyDMA.c **** {
 352:Generated_Source\PSoC4/CyDMA.c ****     cydma_callback_t prevCallback;
 353:Generated_Source\PSoC4/CyDMA.c **** 
 354:Generated_Source\PSoC4/CyDMA.c ****     CYASSERT((channel >= 0) && (channel < CYDMA_CH_NR));
 355:Generated_Source\PSoC4/CyDMA.c **** 
 356:Generated_Source\PSoC4/CyDMA.c ****     prevCallback = CyDmaInterruptCallback[channel];
 357:Generated_Source\PSoC4/CyDMA.c ****     CyDmaInterruptCallback[channel] = callback;
 358:Generated_Source\PSoC4/CyDMA.c ****     return (prevCallback);
 359:Generated_Source\PSoC4/CyDMA.c **** }
 360:Generated_Source\PSoC4/CyDMA.c **** 
 361:Generated_Source\PSoC4/CyDMA.c **** 
 362:Generated_Source\PSoC4/CyDMA.c **** /*******************************************************************************
 363:Generated_Source\PSoC4/CyDMA.c **** * Function Name: CyDmaGetInterruptCallback
 364:Generated_Source\PSoC4/CyDMA.c **** ********************************************************************************
 365:Generated_Source\PSoC4/CyDMA.c **** *
 366:Generated_Source\PSoC4/CyDMA.c **** * Summary:
 367:Generated_Source\PSoC4/CyDMA.c **** *  Returns the pointer to the interrupt callback function for the specified DMA
 368:Generated_Source\PSoC4/CyDMA.c **** *  channel.
 369:Generated_Source\PSoC4/CyDMA.c **** *
 370:Generated_Source\PSoC4/CyDMA.c **** * Parameters:
 371:Generated_Source\PSoC4/CyDMA.c **** *  channel: Channel used by this function.
 372:Generated_Source\PSoC4/CyDMA.c **** *
ARM GAS  C:\Users\ilya\AppData\Local\Temp\cchJq1OJ.s 			page 8


 373:Generated_Source\PSoC4/CyDMA.c **** * Return:
 374:Generated_Source\PSoC4/CyDMA.c **** *  Callback function pointer for the specified channel.
 375:Generated_Source\PSoC4/CyDMA.c **** *
 376:Generated_Source\PSoC4/CyDMA.c **** *******************************************************************************/
 377:Generated_Source\PSoC4/CyDMA.c **** cydma_callback_t CyDmaGetInterruptCallback(int32 channel)
 378:Generated_Source\PSoC4/CyDMA.c **** {
 379:Generated_Source\PSoC4/CyDMA.c ****     CYASSERT((channel >= 0) && (channel < CYDMA_CH_NR));
 380:Generated_Source\PSoC4/CyDMA.c ****     
 381:Generated_Source\PSoC4/CyDMA.c ****     return (CyDmaInterruptCallback[channel]);
 382:Generated_Source\PSoC4/CyDMA.c **** }
 383:Generated_Source\PSoC4/CyDMA.c **** 
 384:Generated_Source\PSoC4/CyDMA.c **** 
 385:Generated_Source\PSoC4/CyDMA.c **** /*******************************************************************************
 386:Generated_Source\PSoC4/CyDMA.c **** * Function Name: CyDmaInterrupt
 387:Generated_Source\PSoC4/CyDMA.c **** ********************************************************************************
 388:Generated_Source\PSoC4/CyDMA.c **** *
 389:Generated_Source\PSoC4/CyDMA.c **** * Summary:
 390:Generated_Source\PSoC4/CyDMA.c **** *  The default ISR for DMA interrupts. The handler checks which DMA channel has
 391:Generated_Source\PSoC4/CyDMA.c **** *  triggered the interrupt and calls the user defined callback function.
 392:Generated_Source\PSoC4/CyDMA.c **** *  The callback function is set using CyDmaSetInteruptCallback() API.
 393:Generated_Source\PSoC4/CyDMA.c **** *
 394:Generated_Source\PSoC4/CyDMA.c **** * Parameters:
 395:Generated_Source\PSoC4/CyDMA.c **** *  None.
 396:Generated_Source\PSoC4/CyDMA.c **** *
 397:Generated_Source\PSoC4/CyDMA.c **** * Return:
 398:Generated_Source\PSoC4/CyDMA.c **** *  None.
 399:Generated_Source\PSoC4/CyDMA.c **** *
 400:Generated_Source\PSoC4/CyDMA.c **** * Side Effects:
 401:Generated_Source\PSoC4/CyDMA.c **** *  This function clears the pending interrupts.
 402:Generated_Source\PSoC4/CyDMA.c **** *
 403:Generated_Source\PSoC4/CyDMA.c **** *******************************************************************************/
 404:Generated_Source\PSoC4/CyDMA.c **** CY_ISR(CyDmaInterrupt)
 405:Generated_Source\PSoC4/CyDMA.c **** {
  28              		.loc 1 405 0
  29              		.cfi_startproc
  30              		@ args = 0, pretend = 0, frame = 0
  31              		@ frame_needed = 0, uses_anonymous_args = 0
  32              	.LVL0:
 406:Generated_Source\PSoC4/CyDMA.c ****     uint32 intr;
 407:Generated_Source\PSoC4/CyDMA.c ****     uint32 cbIdx = 0u;
 408:Generated_Source\PSoC4/CyDMA.c **** 
 409:Generated_Source\PSoC4/CyDMA.c ****     /* Get interrupt source. */
 410:Generated_Source\PSoC4/CyDMA.c ****     intr = CYDMA_INTR_MASKED_REG;
  33              		.loc 1 410 0
  34 0000 0B4B     		ldr	r3, .L11
 405:Generated_Source\PSoC4/CyDMA.c ****     uint32 intr;
  35              		.loc 1 405 0
  36 0002 70B5     		push	{r4, r5, r6, lr}
  37              		.cfi_def_cfa_offset 16
  38              		.cfi_offset 4, -16
  39              		.cfi_offset 5, -12
  40              		.cfi_offset 6, -8
  41              		.cfi_offset 14, -4
  42              		.loc 1 410 0
  43 0004 1C68     		ldr	r4, [r3]
  44              	.LVL1:
 411:Generated_Source\PSoC4/CyDMA.c **** 
ARM GAS  C:\Users\ilya\AppData\Local\Temp\cchJq1OJ.s 			page 9


 412:Generated_Source\PSoC4/CyDMA.c ****     /* Clear pending interrupts. */
 413:Generated_Source\PSoC4/CyDMA.c ****     CYDMA_INTR_REG = intr;
  45              		.loc 1 413 0
  46 0006 0B4B     		ldr	r3, .L11+4
  47 0008 1C60     		str	r4, [r3]
 414:Generated_Source\PSoC4/CyDMA.c **** 
 415:Generated_Source\PSoC4/CyDMA.c ****     /* Call user defined callback functions for triggered interrupt sources. */
 416:Generated_Source\PSoC4/CyDMA.c ****     while(0u != intr)
  48              		.loc 1 416 0
  49 000a 002C     		cmp	r4, #0
  50 000c 0ED0     		beq	.L1
  51 000e 0A4D     		ldr	r5, .L11+8
 417:Generated_Source\PSoC4/CyDMA.c ****     {
 418:Generated_Source\PSoC4/CyDMA.c ****         if(0u != (intr & 0x1u))
  52              		.loc 1 418 0
  53 0010 0126     		movs	r6, #1
  54 0012 03E0     		b	.L4
  55              	.LVL2:
  56              	.L3:
 419:Generated_Source\PSoC4/CyDMA.c ****         {
 420:Generated_Source\PSoC4/CyDMA.c ****             CyDmaInterruptCallback[cbIdx]();
 421:Generated_Source\PSoC4/CyDMA.c ****         }
 422:Generated_Source\PSoC4/CyDMA.c ****         intr >>= 1;
  57              		.loc 1 422 0
  58 0014 6408     		lsrs	r4, r4, #1
  59              	.LVL3:
  60 0016 0435     		adds	r5, r5, #4
 416:Generated_Source\PSoC4/CyDMA.c ****     {
  61              		.loc 1 416 0
  62 0018 002C     		cmp	r4, #0
  63 001a 07D0     		beq	.L1
  64              	.L4:
 418:Generated_Source\PSoC4/CyDMA.c ****         {
  65              		.loc 1 418 0
  66 001c 2642     		tst	r6, r4
  67 001e F9D0     		beq	.L3
 420:Generated_Source\PSoC4/CyDMA.c ****         }
  68              		.loc 1 420 0
  69 0020 2B68     		ldr	r3, [r5]
  70 0022 9847     		blx	r3
  71              	.LVL4:
  72              		.loc 1 422 0
  73 0024 6408     		lsrs	r4, r4, #1
  74              	.LVL5:
  75 0026 0435     		adds	r5, r5, #4
 416:Generated_Source\PSoC4/CyDMA.c ****     {
  76              		.loc 1 416 0
  77 0028 002C     		cmp	r4, #0
  78 002a F7D1     		bne	.L4
  79              	.L1:
 423:Generated_Source\PSoC4/CyDMA.c ****         ++cbIdx;
 424:Generated_Source\PSoC4/CyDMA.c ****     }
 425:Generated_Source\PSoC4/CyDMA.c **** }
  80              		.loc 1 425 0
  81              		@ sp needed
  82              	.LVL6:
  83 002c 70BD     		pop	{r4, r5, r6, pc}
ARM GAS  C:\Users\ilya\AppData\Local\Temp\cchJq1OJ.s 			page 10


  84              	.L12:
  85 002e C046     		.align	2
  86              	.L11:
  87 0030 FC171040 		.word	1074796540
  88 0034 F0171040 		.word	1074796528
  89 0038 00000000 		.word	.LANCHOR0
  90              		.cfi_endproc
  91              	.LFE15:
  92              		.size	CyDmaInterrupt, .-CyDmaInterrupt
  93              		.section	.text.CyDmaDefaultInterruptCallback,"ax",%progbits
  94              		.align	2
  95              		.code	16
  96              		.thumb_func
  97              		.type	CyDmaDefaultInterruptCallback, %function
  98              	CyDmaDefaultInterruptCallback:
  99              	.LFB16:
 426:Generated_Source\PSoC4/CyDMA.c **** 
 427:Generated_Source\PSoC4/CyDMA.c **** 
 428:Generated_Source\PSoC4/CyDMA.c **** /*******************************************************************************
 429:Generated_Source\PSoC4/CyDMA.c **** * Function Name: CyDmaDefaultInterruptCallback
 430:Generated_Source\PSoC4/CyDMA.c **** ********************************************************************************
 431:Generated_Source\PSoC4/CyDMA.c **** *
 432:Generated_Source\PSoC4/CyDMA.c **** * Summary:
 433:Generated_Source\PSoC4/CyDMA.c **** *  This function is invoked when the user defined callback function is undefined
 434:Generated_Source\PSoC4/CyDMA.c **** *  for the interrupt source.
 435:Generated_Source\PSoC4/CyDMA.c **** *
 436:Generated_Source\PSoC4/CyDMA.c **** * Parameters:
 437:Generated_Source\PSoC4/CyDMA.c **** *  None.
 438:Generated_Source\PSoC4/CyDMA.c **** *
 439:Generated_Source\PSoC4/CyDMA.c **** * Return:
 440:Generated_Source\PSoC4/CyDMA.c **** *  None.
 441:Generated_Source\PSoC4/CyDMA.c **** *
 442:Generated_Source\PSoC4/CyDMA.c **** *******************************************************************************/
 443:Generated_Source\PSoC4/CyDMA.c **** static void CyDmaDefaultInterruptCallback(void)
 444:Generated_Source\PSoC4/CyDMA.c **** {
 100              		.loc 1 444 0
 101              		.cfi_startproc
 102              		@ args = 0, pretend = 0, frame = 0
 103              		@ frame_needed = 0, uses_anonymous_args = 0
 104 0000 10B5     		push	{r4, lr}
 105              		.cfi_def_cfa_offset 8
 106              		.cfi_offset 4, -8
 107              		.cfi_offset 14, -4
 445:Generated_Source\PSoC4/CyDMA.c ****     /* Halt CPU in debug mode. We get here because there is no user defined
 446:Generated_Source\PSoC4/CyDMA.c ****     * callback function for the interrupt source. You should either set a
 447:Generated_Source\PSoC4/CyDMA.c ****     * callback function or disable generating an interrupt from this
 448:Generated_Source\PSoC4/CyDMA.c ****     * interrupt source.
 449:Generated_Source\PSoC4/CyDMA.c ****     * To set a callback, use the CyDmaSetInterruptCallback() API function.
 450:Generated_Source\PSoC4/CyDMA.c ****     * To disable interrupt generation, write '0' to the corresponding bit
 451:Generated_Source\PSoC4/CyDMA.c ****     * in the interrupt mask by calling CyDmaSetInterruptSourceMask().
 452:Generated_Source\PSoC4/CyDMA.c ****     */
 453:Generated_Source\PSoC4/CyDMA.c ****     CYASSERT(0 != 0);
 108              		.loc 1 453 0
 109 0002 0020     		movs	r0, #0
 110 0004 FFF7FEFF 		bl	CyHalt
 111              	.LVL7:
 454:Generated_Source\PSoC4/CyDMA.c **** }
ARM GAS  C:\Users\ilya\AppData\Local\Temp\cchJq1OJ.s 			page 11


 112              		.loc 1 454 0
 113              		@ sp needed
 114 0008 10BD     		pop	{r4, pc}
 115              		.cfi_endproc
 116              	.LFE16:
 117              		.size	CyDmaDefaultInterruptCallback, .-CyDmaDefaultInterruptCallback
 118              		.section	.text.CyDmaEnable,"ax",%progbits
 119              		.align	2
 120              		.global	CyDmaEnable
 121              		.code	16
 122              		.thumb_func
 123              		.type	CyDmaEnable, %function
 124              	CyDmaEnable:
 125              	.LFB1:
  63:Generated_Source\PSoC4/CyDMA.c ****     static uint8 initIntrVector = 0u;
 126              		.loc 1 63 0
 127              		.cfi_startproc
 128              		@ args = 0, pretend = 0, frame = 0
 129              		@ frame_needed = 0, uses_anonymous_args = 0
 130 0000 10B5     		push	{r4, lr}
 131              		.cfi_def_cfa_offset 8
 132              		.cfi_offset 4, -8
 133              		.cfi_offset 14, -4
  66:Generated_Source\PSoC4/CyDMA.c ****     {
 134              		.loc 1 66 0
 135 0002 094C     		ldr	r4, .L16
 136 0004 2378     		ldrb	r3, [r4]
 137 0006 002B     		cmp	r3, #0
 138 0008 09D1     		bne	.L15
 139              	.LVL8:
 140              	.LBB4:
 141              	.LBB5:
 229:Generated_Source\PSoC4/CyDMA.c **** }
 142              		.loc 1 229 0
 143 000a 0849     		ldr	r1, .L16+4
 144 000c 0D20     		movs	r0, #13
 145 000e FFF7FEFF 		bl	CyIntSetVector
 146              	.LVL9:
 147              	.LBE5:
 148              	.LBE4:
  69:Generated_Source\PSoC4/CyDMA.c ****         initIntrVector = 1u;
 149              		.loc 1 69 0
 150 0012 0321     		movs	r1, #3
 151 0014 0D20     		movs	r0, #13
 152 0016 FFF7FEFF 		bl	CyIntSetPriority
 153              	.LVL10:
  70:Generated_Source\PSoC4/CyDMA.c ****     }
 154              		.loc 1 70 0
 155 001a 0123     		movs	r3, #1
 156 001c 2370     		strb	r3, [r4]
 157              	.L15:
  72:Generated_Source\PSoC4/CyDMA.c **** }
 158              		.loc 1 72 0
 159 001e 8022     		movs	r2, #128
 160 0020 034B     		ldr	r3, .L16+8
 161 0022 1206     		lsls	r2, r2, #24
 162 0024 1A60     		str	r2, [r3]
ARM GAS  C:\Users\ilya\AppData\Local\Temp\cchJq1OJ.s 			page 12


  73:Generated_Source\PSoC4/CyDMA.c **** 
 163              		.loc 1 73 0
 164              		@ sp needed
 165 0026 10BD     		pop	{r4, pc}
 166              	.L17:
 167              		.align	2
 168              	.L16:
 169 0028 00000000 		.word	.LANCHOR1
 170 002c 00000000 		.word	CyDmaInterrupt
 171 0030 00101040 		.word	1074794496
 172              		.cfi_endproc
 173              	.LFE1:
 174              		.size	CyDmaEnable, .-CyDmaEnable
 175              		.section	.text.CyDmaDisable,"ax",%progbits
 176              		.align	2
 177              		.global	CyDmaDisable
 178              		.code	16
 179              		.thumb_func
 180              		.type	CyDmaDisable, %function
 181              	CyDmaDisable:
 182              	.LFB2:
  94:Generated_Source\PSoC4/CyDMA.c ****     CYDMA_CTL_REG = (uint32)~CYDMA_ENABLED;
 183              		.loc 1 94 0
 184              		.cfi_startproc
 185              		@ args = 0, pretend = 0, frame = 0
 186              		@ frame_needed = 0, uses_anonymous_args = 0
 187              		@ link register save eliminated.
  95:Generated_Source\PSoC4/CyDMA.c **** }
 188              		.loc 1 95 0
 189 0000 014A     		ldr	r2, .L19
 190 0002 024B     		ldr	r3, .L19+4
  96:Generated_Source\PSoC4/CyDMA.c **** 
 191              		.loc 1 96 0
 192              		@ sp needed
  95:Generated_Source\PSoC4/CyDMA.c **** }
 193              		.loc 1 95 0
 194 0004 1A60     		str	r2, [r3]
  96:Generated_Source\PSoC4/CyDMA.c **** 
 195              		.loc 1 96 0
 196 0006 7047     		bx	lr
 197              	.L20:
 198              		.align	2
 199              	.L19:
 200 0008 FFFFFF7F 		.word	2147483647
 201 000c 00101040 		.word	1074794496
 202              		.cfi_endproc
 203              	.LFE2:
 204              		.size	CyDmaDisable, .-CyDmaDisable
 205              		.section	.text.CyDmaGetStatus,"ax",%progbits
 206              		.align	2
 207              		.global	CyDmaGetStatus
 208              		.code	16
 209              		.thumb_func
 210              		.type	CyDmaGetStatus, %function
 211              	CyDmaGetStatus:
 212              	.LFB3:
 122:Generated_Source\PSoC4/CyDMA.c ****     return (CYDMA_STATUS_REG);
ARM GAS  C:\Users\ilya\AppData\Local\Temp\cchJq1OJ.s 			page 13


 213              		.loc 1 122 0
 214              		.cfi_startproc
 215              		@ args = 0, pretend = 0, frame = 0
 216              		@ frame_needed = 0, uses_anonymous_args = 0
 217              		@ link register save eliminated.
 123:Generated_Source\PSoC4/CyDMA.c **** }
 218              		.loc 1 123 0
 219 0000 014B     		ldr	r3, .L22
 124:Generated_Source\PSoC4/CyDMA.c **** 
 220              		.loc 1 124 0
 221              		@ sp needed
 123:Generated_Source\PSoC4/CyDMA.c **** }
 222              		.loc 1 123 0
 223 0002 1868     		ldr	r0, [r3]
 124:Generated_Source\PSoC4/CyDMA.c **** 
 224              		.loc 1 124 0
 225 0004 7047     		bx	lr
 226              	.L23:
 227 0006 C046     		.align	2
 228              	.L22:
 229 0008 10101040 		.word	1074794512
 230              		.cfi_endproc
 231              	.LFE3:
 232              		.size	CyDmaGetStatus, .-CyDmaGetStatus
 233              		.section	.text.CyDmaGetActiveChannels,"ax",%progbits
 234              		.align	2
 235              		.global	CyDmaGetActiveChannels
 236              		.code	16
 237              		.thumb_func
 238              		.type	CyDmaGetActiveChannels, %function
 239              	CyDmaGetActiveChannels:
 240              	.LFB4:
 143:Generated_Source\PSoC4/CyDMA.c ****     return (CYDMA_STATUS_CH_ACT_REG);
 241              		.loc 1 143 0
 242              		.cfi_startproc
 243              		@ args = 0, pretend = 0, frame = 0
 244              		@ frame_needed = 0, uses_anonymous_args = 0
 245              		@ link register save eliminated.
 144:Generated_Source\PSoC4/CyDMA.c **** }
 246              		.loc 1 144 0
 247 0000 014B     		ldr	r3, .L25
 145:Generated_Source\PSoC4/CyDMA.c **** 
 248              		.loc 1 145 0
 249              		@ sp needed
 144:Generated_Source\PSoC4/CyDMA.c **** }
 250              		.loc 1 144 0
 251 0002 1868     		ldr	r0, [r3]
 145:Generated_Source\PSoC4/CyDMA.c **** 
 252              		.loc 1 145 0
 253 0004 7047     		bx	lr
 254              	.L26:
 255 0006 C046     		.align	2
 256              	.L25:
 257 0008 1C101040 		.word	1074794524
 258              		.cfi_endproc
 259              	.LFE4:
 260              		.size	CyDmaGetActiveChannels, .-CyDmaGetActiveChannels
ARM GAS  C:\Users\ilya\AppData\Local\Temp\cchJq1OJ.s 			page 14


 261              		.section	.text.CyDmaGetActiveSrcAddress,"ax",%progbits
 262              		.align	2
 263              		.global	CyDmaGetActiveSrcAddress
 264              		.code	16
 265              		.thumb_func
 266              		.type	CyDmaGetActiveSrcAddress, %function
 267              	CyDmaGetActiveSrcAddress:
 268              	.LFB5:
 171:Generated_Source\PSoC4/CyDMA.c ****     return ((void *)CYDMA_STATUS_SRC_ADDR_REG);
 269              		.loc 1 171 0
 270              		.cfi_startproc
 271              		@ args = 0, pretend = 0, frame = 0
 272              		@ frame_needed = 0, uses_anonymous_args = 0
 273              		@ link register save eliminated.
 172:Generated_Source\PSoC4/CyDMA.c **** }
 274              		.loc 1 172 0
 275 0000 014B     		ldr	r3, .L28
 173:Generated_Source\PSoC4/CyDMA.c **** 
 276              		.loc 1 173 0
 277              		@ sp needed
 172:Generated_Source\PSoC4/CyDMA.c **** }
 278              		.loc 1 172 0
 279 0002 1868     		ldr	r0, [r3]
 173:Generated_Source\PSoC4/CyDMA.c **** 
 280              		.loc 1 173 0
 281 0004 7047     		bx	lr
 282              	.L29:
 283 0006 C046     		.align	2
 284              	.L28:
 285 0008 14101040 		.word	1074794516
 286              		.cfi_endproc
 287              	.LFE5:
 288              		.size	CyDmaGetActiveSrcAddress, .-CyDmaGetActiveSrcAddress
 289              		.section	.text.CyDmaGetActiveDstAddress,"ax",%progbits
 290              		.align	2
 291              		.global	CyDmaGetActiveDstAddress
 292              		.code	16
 293              		.thumb_func
 294              		.type	CyDmaGetActiveDstAddress, %function
 295              	CyDmaGetActiveDstAddress:
 296              	.LFB6:
 199:Generated_Source\PSoC4/CyDMA.c ****     return ((void *)CYDMA_STATUS_DST_ADDR_REG);
 297              		.loc 1 199 0
 298              		.cfi_startproc
 299              		@ args = 0, pretend = 0, frame = 0
 300              		@ frame_needed = 0, uses_anonymous_args = 0
 301              		@ link register save eliminated.
 200:Generated_Source\PSoC4/CyDMA.c **** }
 302              		.loc 1 200 0
 303 0000 014B     		ldr	r3, .L31
 201:Generated_Source\PSoC4/CyDMA.c **** 
 304              		.loc 1 201 0
 305              		@ sp needed
 200:Generated_Source\PSoC4/CyDMA.c **** }
 306              		.loc 1 200 0
 307 0002 1868     		ldr	r0, [r3]
 201:Generated_Source\PSoC4/CyDMA.c **** 
ARM GAS  C:\Users\ilya\AppData\Local\Temp\cchJq1OJ.s 			page 15


 308              		.loc 1 201 0
 309 0004 7047     		bx	lr
 310              	.L32:
 311 0006 C046     		.align	2
 312              	.L31:
 313 0008 18101040 		.word	1074794520
 314              		.cfi_endproc
 315              	.LFE6:
 316              		.size	CyDmaGetActiveDstAddress, .-CyDmaGetActiveDstAddress
 317              		.section	.text.CyDmaSetInterruptVector,"ax",%progbits
 318              		.align	2
 319              		.global	CyDmaSetInterruptVector
 320              		.code	16
 321              		.thumb_func
 322              		.type	CyDmaSetInterruptVector, %function
 323              	CyDmaSetInterruptVector:
 324              	.LFB7:
 228:Generated_Source\PSoC4/CyDMA.c ****     (void)CyIntSetVector(CYDMA_INTR_NUMBER, interruptVector);
 325              		.loc 1 228 0
 326              		.cfi_startproc
 327              		@ args = 0, pretend = 0, frame = 0
 328              		@ frame_needed = 0, uses_anonymous_args = 0
 329              	.LVL11:
 330 0000 10B5     		push	{r4, lr}
 331              		.cfi_def_cfa_offset 8
 332              		.cfi_offset 4, -8
 333              		.cfi_offset 14, -4
 228:Generated_Source\PSoC4/CyDMA.c ****     (void)CyIntSetVector(CYDMA_INTR_NUMBER, interruptVector);
 334              		.loc 1 228 0
 335 0002 0100     		movs	r1, r0
 229:Generated_Source\PSoC4/CyDMA.c **** }
 336              		.loc 1 229 0
 337 0004 0D20     		movs	r0, #13
 338              	.LVL12:
 339 0006 FFF7FEFF 		bl	CyIntSetVector
 340              	.LVL13:
 230:Generated_Source\PSoC4/CyDMA.c **** 
 341              		.loc 1 230 0
 342              		@ sp needed
 343 000a 10BD     		pop	{r4, pc}
 344              		.cfi_endproc
 345              	.LFE7:
 346              		.size	CyDmaSetInterruptVector, .-CyDmaSetInterruptVector
 347              		.section	.text.CyDmaGetInterruptSource,"ax",%progbits
 348              		.align	2
 349              		.global	CyDmaGetInterruptSource
 350              		.code	16
 351              		.thumb_func
 352              		.type	CyDmaGetInterruptSource, %function
 353              	CyDmaGetInterruptSource:
 354              	.LFB8:
 248:Generated_Source\PSoC4/CyDMA.c ****     return (CYDMA_INTR_REG);
 355              		.loc 1 248 0
 356              		.cfi_startproc
 357              		@ args = 0, pretend = 0, frame = 0
 358              		@ frame_needed = 0, uses_anonymous_args = 0
 359              		@ link register save eliminated.
ARM GAS  C:\Users\ilya\AppData\Local\Temp\cchJq1OJ.s 			page 16


 249:Generated_Source\PSoC4/CyDMA.c **** }
 360              		.loc 1 249 0
 361 0000 014B     		ldr	r3, .L35
 250:Generated_Source\PSoC4/CyDMA.c **** 
 362              		.loc 1 250 0
 363              		@ sp needed
 249:Generated_Source\PSoC4/CyDMA.c **** }
 364              		.loc 1 249 0
 365 0002 1868     		ldr	r0, [r3]
 250:Generated_Source\PSoC4/CyDMA.c **** 
 366              		.loc 1 250 0
 367 0004 7047     		bx	lr
 368              	.L36:
 369 0006 C046     		.align	2
 370              	.L35:
 371 0008 F0171040 		.word	1074796528
 372              		.cfi_endproc
 373              	.LFE8:
 374              		.size	CyDmaGetInterruptSource, .-CyDmaGetInterruptSource
 375              		.section	.text.CyDmaClearInterruptSource,"ax",%progbits
 376              		.align	2
 377              		.global	CyDmaClearInterruptSource
 378              		.code	16
 379              		.thumb_func
 380              		.type	CyDmaClearInterruptSource, %function
 381              	CyDmaClearInterruptSource:
 382              	.LFB9:
 268:Generated_Source\PSoC4/CyDMA.c ****     CYDMA_INTR_REG = interruptMask;
 383              		.loc 1 268 0
 384              		.cfi_startproc
 385              		@ args = 0, pretend = 0, frame = 0
 386              		@ frame_needed = 0, uses_anonymous_args = 0
 387              		@ link register save eliminated.
 388              	.LVL14:
 269:Generated_Source\PSoC4/CyDMA.c **** }
 389              		.loc 1 269 0
 390 0000 014B     		ldr	r3, .L38
 270:Generated_Source\PSoC4/CyDMA.c **** 
 391              		.loc 1 270 0
 392              		@ sp needed
 269:Generated_Source\PSoC4/CyDMA.c **** }
 393              		.loc 1 269 0
 394 0002 1860     		str	r0, [r3]
 270:Generated_Source\PSoC4/CyDMA.c **** 
 395              		.loc 1 270 0
 396 0004 7047     		bx	lr
 397              	.L39:
 398 0006 C046     		.align	2
 399              	.L38:
 400 0008 F0171040 		.word	1074796528
 401              		.cfi_endproc
 402              	.LFE9:
 403              		.size	CyDmaClearInterruptSource, .-CyDmaClearInterruptSource
 404              		.section	.text.CyDmaSetInterruptSourceMask,"ax",%progbits
 405              		.align	2
 406              		.global	CyDmaSetInterruptSourceMask
 407              		.code	16
ARM GAS  C:\Users\ilya\AppData\Local\Temp\cchJq1OJ.s 			page 17


 408              		.thumb_func
 409              		.type	CyDmaSetInterruptSourceMask, %function
 410              	CyDmaSetInterruptSourceMask:
 411              	.LFB10:
 288:Generated_Source\PSoC4/CyDMA.c ****     CYDMA_INTR_MASK_REG = interruptMask;
 412              		.loc 1 288 0
 413              		.cfi_startproc
 414              		@ args = 0, pretend = 0, frame = 0
 415              		@ frame_needed = 0, uses_anonymous_args = 0
 416              		@ link register save eliminated.
 417              	.LVL15:
 289:Generated_Source\PSoC4/CyDMA.c **** }
 418              		.loc 1 289 0
 419 0000 014B     		ldr	r3, .L41
 290:Generated_Source\PSoC4/CyDMA.c **** 
 420              		.loc 1 290 0
 421              		@ sp needed
 289:Generated_Source\PSoC4/CyDMA.c **** }
 422              		.loc 1 289 0
 423 0002 1860     		str	r0, [r3]
 290:Generated_Source\PSoC4/CyDMA.c **** 
 424              		.loc 1 290 0
 425 0004 7047     		bx	lr
 426              	.L42:
 427 0006 C046     		.align	2
 428              	.L41:
 429 0008 F8171040 		.word	1074796536
 430              		.cfi_endproc
 431              	.LFE10:
 432              		.size	CyDmaSetInterruptSourceMask, .-CyDmaSetInterruptSourceMask
 433              		.section	.text.CyDmaGetInterruptSourceMask,"ax",%progbits
 434              		.align	2
 435              		.global	CyDmaGetInterruptSourceMask
 436              		.code	16
 437              		.thumb_func
 438              		.type	CyDmaGetInterruptSourceMask, %function
 439              	CyDmaGetInterruptSourceMask:
 440              	.LFB11:
 308:Generated_Source\PSoC4/CyDMA.c ****     return (CYDMA_INTR_MASK_REG);
 441              		.loc 1 308 0
 442              		.cfi_startproc
 443              		@ args = 0, pretend = 0, frame = 0
 444              		@ frame_needed = 0, uses_anonymous_args = 0
 445              		@ link register save eliminated.
 309:Generated_Source\PSoC4/CyDMA.c **** }
 446              		.loc 1 309 0
 447 0000 014B     		ldr	r3, .L44
 310:Generated_Source\PSoC4/CyDMA.c **** 
 448              		.loc 1 310 0
 449              		@ sp needed
 309:Generated_Source\PSoC4/CyDMA.c **** }
 450              		.loc 1 309 0
 451 0002 1868     		ldr	r0, [r3]
 310:Generated_Source\PSoC4/CyDMA.c **** 
 452              		.loc 1 310 0
 453 0004 7047     		bx	lr
 454              	.L45:
ARM GAS  C:\Users\ilya\AppData\Local\Temp\cchJq1OJ.s 			page 18


 455 0006 C046     		.align	2
 456              	.L44:
 457 0008 F8171040 		.word	1074796536
 458              		.cfi_endproc
 459              	.LFE11:
 460              		.size	CyDmaGetInterruptSourceMask, .-CyDmaGetInterruptSourceMask
 461              		.section	.text.CyDmaGetInterruptSourceMasked,"ax",%progbits
 462              		.align	2
 463              		.global	CyDmaGetInterruptSourceMasked
 464              		.code	16
 465              		.thumb_func
 466              		.type	CyDmaGetInterruptSourceMasked, %function
 467              	CyDmaGetInterruptSourceMasked:
 468              	.LFB12:
 328:Generated_Source\PSoC4/CyDMA.c ****     return (CYDMA_INTR_MASKED_REG);
 469              		.loc 1 328 0
 470              		.cfi_startproc
 471              		@ args = 0, pretend = 0, frame = 0
 472              		@ frame_needed = 0, uses_anonymous_args = 0
 473              		@ link register save eliminated.
 329:Generated_Source\PSoC4/CyDMA.c **** }
 474              		.loc 1 329 0
 475 0000 014B     		ldr	r3, .L47
 330:Generated_Source\PSoC4/CyDMA.c **** 
 476              		.loc 1 330 0
 477              		@ sp needed
 329:Generated_Source\PSoC4/CyDMA.c **** }
 478              		.loc 1 329 0
 479 0002 1868     		ldr	r0, [r3]
 330:Generated_Source\PSoC4/CyDMA.c **** 
 480              		.loc 1 330 0
 481 0004 7047     		bx	lr
 482              	.L48:
 483 0006 C046     		.align	2
 484              	.L47:
 485 0008 FC171040 		.word	1074796540
 486              		.cfi_endproc
 487              	.LFE12:
 488              		.size	CyDmaGetInterruptSourceMasked, .-CyDmaGetInterruptSourceMasked
 489              		.section	.text.CyDmaSetInterruptCallback,"ax",%progbits
 490              		.align	2
 491              		.global	CyDmaSetInterruptCallback
 492              		.code	16
 493              		.thumb_func
 494              		.type	CyDmaSetInterruptCallback, %function
 495              	CyDmaSetInterruptCallback:
 496              	.LFB13:
 351:Generated_Source\PSoC4/CyDMA.c ****     cydma_callback_t prevCallback;
 497              		.loc 1 351 0
 498              		.cfi_startproc
 499              		@ args = 0, pretend = 0, frame = 0
 500              		@ frame_needed = 0, uses_anonymous_args = 0
 501              	.LVL16:
 502 0000 70B5     		push	{r4, r5, r6, lr}
 503              		.cfi_def_cfa_offset 16
 504              		.cfi_offset 4, -16
 505              		.cfi_offset 5, -12
ARM GAS  C:\Users\ilya\AppData\Local\Temp\cchJq1OJ.s 			page 19


 506              		.cfi_offset 6, -8
 507              		.cfi_offset 14, -4
 351:Generated_Source\PSoC4/CyDMA.c ****     cydma_callback_t prevCallback;
 508              		.loc 1 351 0
 509 0002 0400     		movs	r4, r0
 510 0004 0D00     		movs	r5, r1
 354:Generated_Source\PSoC4/CyDMA.c **** 
 511              		.loc 1 354 0
 512 0006 0728     		cmp	r0, #7
 513 0008 02D9     		bls	.L50
 354:Generated_Source\PSoC4/CyDMA.c **** 
 514              		.loc 1 354 0 is_stmt 0 discriminator 1
 515 000a 0020     		movs	r0, #0
 516              	.LVL17:
 517 000c FFF7FEFF 		bl	CyHalt
 518              	.LVL18:
 519              	.L50:
 356:Generated_Source\PSoC4/CyDMA.c ****     CyDmaInterruptCallback[channel] = callback;
 520              		.loc 1 356 0 is_stmt 1
 521 0010 024B     		ldr	r3, .L51
 522 0012 A400     		lsls	r4, r4, #2
 523              	.LVL19:
 524 0014 E058     		ldr	r0, [r4, r3]
 525              	.LVL20:
 359:Generated_Source\PSoC4/CyDMA.c **** 
 526              		.loc 1 359 0
 527              		@ sp needed
 357:Generated_Source\PSoC4/CyDMA.c ****     return (prevCallback);
 528              		.loc 1 357 0
 529 0016 E550     		str	r5, [r4, r3]
 530              	.LVL21:
 359:Generated_Source\PSoC4/CyDMA.c **** 
 531              		.loc 1 359 0
 532 0018 70BD     		pop	{r4, r5, r6, pc}
 533              	.L52:
 534 001a C046     		.align	2
 535              	.L51:
 536 001c 00000000 		.word	.LANCHOR0
 537              		.cfi_endproc
 538              	.LFE13:
 539              		.size	CyDmaSetInterruptCallback, .-CyDmaSetInterruptCallback
 540              		.section	.text.CyDmaGetInterruptCallback,"ax",%progbits
 541              		.align	2
 542              		.global	CyDmaGetInterruptCallback
 543              		.code	16
 544              		.thumb_func
 545              		.type	CyDmaGetInterruptCallback, %function
 546              	CyDmaGetInterruptCallback:
 547              	.LFB14:
 378:Generated_Source\PSoC4/CyDMA.c ****     CYASSERT((channel >= 0) && (channel < CYDMA_CH_NR));
 548              		.loc 1 378 0
 549              		.cfi_startproc
 550              		@ args = 0, pretend = 0, frame = 0
 551              		@ frame_needed = 0, uses_anonymous_args = 0
 552              	.LVL22:
 553 0000 10B5     		push	{r4, lr}
 554              		.cfi_def_cfa_offset 8
ARM GAS  C:\Users\ilya\AppData\Local\Temp\cchJq1OJ.s 			page 20


 555              		.cfi_offset 4, -8
 556              		.cfi_offset 14, -4
 378:Generated_Source\PSoC4/CyDMA.c ****     CYASSERT((channel >= 0) && (channel < CYDMA_CH_NR));
 557              		.loc 1 378 0
 558 0002 0400     		movs	r4, r0
 379:Generated_Source\PSoC4/CyDMA.c ****     
 559              		.loc 1 379 0
 560 0004 0728     		cmp	r0, #7
 561 0006 02D9     		bls	.L54
 379:Generated_Source\PSoC4/CyDMA.c ****     
 562              		.loc 1 379 0 is_stmt 0 discriminator 1
 563 0008 0020     		movs	r0, #0
 564              	.LVL23:
 565 000a FFF7FEFF 		bl	CyHalt
 566              	.LVL24:
 567              	.L54:
 381:Generated_Source\PSoC4/CyDMA.c **** }
 568              		.loc 1 381 0 is_stmt 1
 569 000e 024B     		ldr	r3, .L55
 570 0010 A400     		lsls	r4, r4, #2
 571              	.LVL25:
 572 0012 E058     		ldr	r0, [r4, r3]
 382:Generated_Source\PSoC4/CyDMA.c **** 
 573              		.loc 1 382 0
 574              		@ sp needed
 575 0014 10BD     		pop	{r4, pc}
 576              	.L56:
 577 0016 C046     		.align	2
 578              	.L55:
 579 0018 00000000 		.word	.LANCHOR0
 580              		.cfi_endproc
 581              	.LFE14:
 582              		.size	CyDmaGetInterruptCallback, .-CyDmaGetInterruptCallback
 583              		.section	.text.CyDmaChAlloc,"ax",%progbits
 584              		.align	2
 585              		.global	CyDmaChAlloc
 586              		.code	16
 587              		.thumb_func
 588              		.type	CyDmaChAlloc, %function
 589              	CyDmaChAlloc:
 590              	.LFB17:
 455:Generated_Source\PSoC4/CyDMA.c **** 
 456:Generated_Source\PSoC4/CyDMA.c **** 
 457:Generated_Source\PSoC4/CyDMA.c **** /*******************************************************************************
 458:Generated_Source\PSoC4/CyDMA.c **** * Function Name: CyDmaChAlloc
 459:Generated_Source\PSoC4/CyDMA.c **** ********************************************************************************
 460:Generated_Source\PSoC4/CyDMA.c **** *
 461:Generated_Source\PSoC4/CyDMA.c **** * Summary:
 462:Generated_Source\PSoC4/CyDMA.c **** *  Allocates a channel number to use with later DMA functions.
 463:Generated_Source\PSoC4/CyDMA.c **** *
 464:Generated_Source\PSoC4/CyDMA.c **** * Parameters:
 465:Generated_Source\PSoC4/CyDMA.c **** *  None.
 466:Generated_Source\PSoC4/CyDMA.c **** *                   
 467:Generated_Source\PSoC4/CyDMA.c **** * Return:
 468:Generated_Source\PSoC4/CyDMA.c **** *  The allocated channel number. Zero is a valid channel number.
 469:Generated_Source\PSoC4/CyDMA.c **** *  CYDMA_INVALID_CHANNEL is returned if there are no channels available.
 470:Generated_Source\PSoC4/CyDMA.c **** *
ARM GAS  C:\Users\ilya\AppData\Local\Temp\cchJq1OJ.s 			page 21


 471:Generated_Source\PSoC4/CyDMA.c **** *******************************************************************************/
 472:Generated_Source\PSoC4/CyDMA.c **** int32 CyDmaChAlloc(void)
 473:Generated_Source\PSoC4/CyDMA.c **** {
 591              		.loc 1 473 0
 592              		.cfi_startproc
 593              		@ args = 0, pretend = 0, frame = 0
 594              		@ frame_needed = 0, uses_anonymous_args = 0
 595              		@ link register save eliminated.
 596              	.LVL26:
 597 0000 174A     		ldr	r2, .L69
 598 0002 5368     		ldr	r3, [r2, #4]
 474:Generated_Source\PSoC4/CyDMA.c ****     int32  channel = CYDMA_CH_NR-1;
 475:Generated_Source\PSoC4/CyDMA.c ****     uint32 channelMask = (uint32)(1UL << (CYDMA_CH_NR-1));
 476:Generated_Source\PSoC4/CyDMA.c ****     
 477:Generated_Source\PSoC4/CyDMA.c ****     while (channel >= 0)
 478:Generated_Source\PSoC4/CyDMA.c ****     {
 479:Generated_Source\PSoC4/CyDMA.c ****         if(0u == (CyDmaChannelUsedMask & channelMask))
 599              		.loc 1 479 0
 600 0004 1906     		lsls	r1, r3, #24
 601 0006 10D5     		bpl	.L60
 602              	.LVL27:
 603 0008 5906     		lsls	r1, r3, #25
 604 000a 13D5     		bpl	.L61
 605              	.LVL28:
 606 000c 9906     		lsls	r1, r3, #26
 607 000e 14D5     		bpl	.L62
 608              	.LVL29:
 609 0010 D906     		lsls	r1, r3, #27
 610 0012 15D5     		bpl	.L63
 611              	.LVL30:
 612 0014 1907     		lsls	r1, r3, #28
 613 0016 16D5     		bpl	.L64
 614              	.LVL31:
 615 0018 5907     		lsls	r1, r3, #29
 616 001a 17D5     		bpl	.L65
 617              	.LVL32:
 618 001c 9907     		lsls	r1, r3, #30
 619 001e 18D5     		bpl	.L66
 620              	.LVL33:
 621 0020 0120     		movs	r0, #1
 622 0022 4042     		rsbs	r0, r0, #0
 623 0024 D907     		lsls	r1, r3, #31
 624 0026 17D5     		bpl	.L68
 625              	.LVL34:
 626              	.L59:
 480:Generated_Source\PSoC4/CyDMA.c ****         {
 481:Generated_Source\PSoC4/CyDMA.c ****             /* Mark channel as used and exit loop. */ 
 482:Generated_Source\PSoC4/CyDMA.c ****             CyDmaChannelUsedMask |= channelMask;
 483:Generated_Source\PSoC4/CyDMA.c ****             break;
 484:Generated_Source\PSoC4/CyDMA.c ****         }
 485:Generated_Source\PSoC4/CyDMA.c ****         channelMask >>= 1;
 486:Generated_Source\PSoC4/CyDMA.c ****         --channel;
 487:Generated_Source\PSoC4/CyDMA.c ****     }
 488:Generated_Source\PSoC4/CyDMA.c ****     return (channel);
 489:Generated_Source\PSoC4/CyDMA.c **** }
 627              		.loc 1 489 0
 628              		@ sp needed
ARM GAS  C:\Users\ilya\AppData\Local\Temp\cchJq1OJ.s 			page 22


 629 0028 7047     		bx	lr
 630              	.LVL35:
 631              	.L60:
 475:Generated_Source\PSoC4/CyDMA.c ****     
 632              		.loc 1 475 0
 633 002a 8021     		movs	r1, #128
 474:Generated_Source\PSoC4/CyDMA.c ****     int32  channel = CYDMA_CH_NR-1;
 634              		.loc 1 474 0
 635 002c 0720     		movs	r0, #7
 636              	.LVL36:
 637              	.L58:
 482:Generated_Source\PSoC4/CyDMA.c ****             break;
 638              		.loc 1 482 0
 639 002e 0B43     		orrs	r3, r1
 640 0030 5360     		str	r3, [r2, #4]
 483:Generated_Source\PSoC4/CyDMA.c ****         }
 641              		.loc 1 483 0
 642 0032 F9E7     		b	.L59
 643              	.LVL37:
 644              	.L61:
 485:Generated_Source\PSoC4/CyDMA.c ****         --channel;
 645              		.loc 1 485 0
 646 0034 4021     		movs	r1, #64
 486:Generated_Source\PSoC4/CyDMA.c ****     }
 647              		.loc 1 486 0
 648 0036 0620     		movs	r0, #6
 649 0038 F9E7     		b	.L58
 650              	.LVL38:
 651              	.L62:
 485:Generated_Source\PSoC4/CyDMA.c ****         --channel;
 652              		.loc 1 485 0
 653 003a 2021     		movs	r1, #32
 486:Generated_Source\PSoC4/CyDMA.c ****     }
 654              		.loc 1 486 0
 655 003c 0520     		movs	r0, #5
 656 003e F6E7     		b	.L58
 657              	.LVL39:
 658              	.L63:
 485:Generated_Source\PSoC4/CyDMA.c ****         --channel;
 659              		.loc 1 485 0
 660 0040 1021     		movs	r1, #16
 486:Generated_Source\PSoC4/CyDMA.c ****     }
 661              		.loc 1 486 0
 662 0042 0420     		movs	r0, #4
 663 0044 F3E7     		b	.L58
 664              	.LVL40:
 665              	.L64:
 485:Generated_Source\PSoC4/CyDMA.c ****         --channel;
 666              		.loc 1 485 0
 667 0046 0821     		movs	r1, #8
 486:Generated_Source\PSoC4/CyDMA.c ****     }
 668              		.loc 1 486 0
 669 0048 0320     		movs	r0, #3
 670 004a F0E7     		b	.L58
 671              	.LVL41:
 672              	.L65:
 485:Generated_Source\PSoC4/CyDMA.c ****         --channel;
ARM GAS  C:\Users\ilya\AppData\Local\Temp\cchJq1OJ.s 			page 23


 673              		.loc 1 485 0
 674 004c 0421     		movs	r1, #4
 486:Generated_Source\PSoC4/CyDMA.c ****     }
 675              		.loc 1 486 0
 676 004e 0220     		movs	r0, #2
 677 0050 EDE7     		b	.L58
 678              	.LVL42:
 679              	.L66:
 485:Generated_Source\PSoC4/CyDMA.c ****         --channel;
 680              		.loc 1 485 0
 681 0052 0221     		movs	r1, #2
 486:Generated_Source\PSoC4/CyDMA.c ****     }
 682              		.loc 1 486 0
 683 0054 0120     		movs	r0, #1
 684 0056 EAE7     		b	.L58
 685              	.LVL43:
 686              	.L68:
 485:Generated_Source\PSoC4/CyDMA.c ****         --channel;
 687              		.loc 1 485 0
 688 0058 0121     		movs	r1, #1
 486:Generated_Source\PSoC4/CyDMA.c ****     }
 689              		.loc 1 486 0
 690 005a 0020     		movs	r0, #0
 691 005c E7E7     		b	.L58
 692              	.L70:
 693 005e C046     		.align	2
 694              	.L69:
 695 0060 00000000 		.word	.LANCHOR1
 696              		.cfi_endproc
 697              	.LFE17:
 698              		.size	CyDmaChAlloc, .-CyDmaChAlloc
 699              		.section	.text.CyDmaChFree,"ax",%progbits
 700              		.align	2
 701              		.global	CyDmaChFree
 702              		.code	16
 703              		.thumb_func
 704              		.type	CyDmaChFree, %function
 705              	CyDmaChFree:
 706              	.LFB18:
 490:Generated_Source\PSoC4/CyDMA.c **** 
 491:Generated_Source\PSoC4/CyDMA.c **** 
 492:Generated_Source\PSoC4/CyDMA.c **** /*******************************************************************************
 493:Generated_Source\PSoC4/CyDMA.c **** * Function Name: CyDmaChFree
 494:Generated_Source\PSoC4/CyDMA.c **** ********************************************************************************
 495:Generated_Source\PSoC4/CyDMA.c **** *
 496:Generated_Source\PSoC4/CyDMA.c **** * Summary:
 497:Generated_Source\PSoC4/CyDMA.c **** *  Frees a channel handle allocated by CyDmaChAlloc(). Channels allocated for
 498:Generated_Source\PSoC4/CyDMA.c **** *  DMA instances placed on a schematic cannot be freed.
 499:Generated_Source\PSoC4/CyDMA.c **** *
 500:Generated_Source\PSoC4/CyDMA.c **** * Parameters:
 501:Generated_Source\PSoC4/CyDMA.c **** *  channel: The handle previously returned by CyDmaChAlloc().
 502:Generated_Source\PSoC4/CyDMA.c **** *                   
 503:Generated_Source\PSoC4/CyDMA.c **** * Return:
 504:Generated_Source\PSoC4/CyDMA.c **** *  CYRET_SUCCESS if successful.
 505:Generated_Source\PSoC4/CyDMA.c **** *  CYRET_BAD_PARAM if channel is invalid.
 506:Generated_Source\PSoC4/CyDMA.c **** *
 507:Generated_Source\PSoC4/CyDMA.c **** *******************************************************************************/
ARM GAS  C:\Users\ilya\AppData\Local\Temp\cchJq1OJ.s 			page 24


 508:Generated_Source\PSoC4/CyDMA.c **** cystatus CyDmaChFree(int32 channel)
 509:Generated_Source\PSoC4/CyDMA.c **** {
 707              		.loc 1 509 0
 708              		.cfi_startproc
 709              		@ args = 0, pretend = 0, frame = 0
 710              		@ frame_needed = 0, uses_anonymous_args = 0
 711              	.LVL44:
 712 0000 10B5     		push	{r4, lr}
 713              		.cfi_def_cfa_offset 8
 714              		.cfi_offset 4, -8
 715              		.cfi_offset 14, -4
 716              		.loc 1 509 0
 717 0002 0400     		movs	r4, r0
 510:Generated_Source\PSoC4/CyDMA.c ****     uint32   channelMask;
 511:Generated_Source\PSoC4/CyDMA.c ****     cystatus result = CYRET_BAD_PARAM;
 512:Generated_Source\PSoC4/CyDMA.c **** 
 513:Generated_Source\PSoC4/CyDMA.c ****     CYASSERT((channel >= 0) && (channel < CYDMA_CH_NR));
 718              		.loc 1 513 0
 719 0004 0728     		cmp	r0, #7
 720 0006 02D9     		bls	.L72
 721              		.loc 1 513 0 is_stmt 0 discriminator 1
 722 0008 0020     		movs	r0, #0
 723              	.LVL45:
 724 000a FFF7FEFF 		bl	CyHalt
 725              	.LVL46:
 726              	.L72:
 514:Generated_Source\PSoC4/CyDMA.c ****     
 515:Generated_Source\PSoC4/CyDMA.c ****     channelMask = (uint32)(1UL << channel);
 516:Generated_Source\PSoC4/CyDMA.c **** 
 517:Generated_Source\PSoC4/CyDMA.c ****     /* Check against attempt to free channel allocated for DMA instance
 518:Generated_Source\PSoC4/CyDMA.c ****     * placed on schematic.
 519:Generated_Source\PSoC4/CyDMA.c ****     */
 520:Generated_Source\PSoC4/CyDMA.c ****     if(0u == (channelMask & DMA_CHANNELS_USED__MASK))
 521:Generated_Source\PSoC4/CyDMA.c ****     {
 522:Generated_Source\PSoC4/CyDMA.c ****         CyDmaChannelUsedMask &= (uint32)~channelMask;
 727              		.loc 1 522 0 is_stmt 1
 728 000e 0123     		movs	r3, #1
 729 0010 A340     		lsls	r3, r3, r4
 730              	.LVL47:
 731 0012 034A     		ldr	r2, .L73
 523:Generated_Source\PSoC4/CyDMA.c ****         result = CYRET_SUCCESS;
 524:Generated_Source\PSoC4/CyDMA.c ****     }
 525:Generated_Source\PSoC4/CyDMA.c ****     
 526:Generated_Source\PSoC4/CyDMA.c ****     return (result);
 527:Generated_Source\PSoC4/CyDMA.c **** }
 732              		.loc 1 527 0
 733 0014 0020     		movs	r0, #0
 522:Generated_Source\PSoC4/CyDMA.c ****         result = CYRET_SUCCESS;
 734              		.loc 1 522 0
 735 0016 5168     		ldr	r1, [r2, #4]
 736              		.loc 1 527 0
 737              		@ sp needed
 522:Generated_Source\PSoC4/CyDMA.c ****         result = CYRET_SUCCESS;
 738              		.loc 1 522 0
 739 0018 9943     		bics	r1, r3
 740 001a 5160     		str	r1, [r2, #4]
 741              	.LVL48:
ARM GAS  C:\Users\ilya\AppData\Local\Temp\cchJq1OJ.s 			page 25


 742              	.LVL49:
 743              		.loc 1 527 0
 744 001c 10BD     		pop	{r4, pc}
 745              	.L74:
 746 001e C046     		.align	2
 747              	.L73:
 748 0020 00000000 		.word	.LANCHOR1
 749              		.cfi_endproc
 750              	.LFE18:
 751              		.size	CyDmaChFree, .-CyDmaChFree
 752              		.section	.text.CyDmaChEnable,"ax",%progbits
 753              		.align	2
 754              		.global	CyDmaChEnable
 755              		.code	16
 756              		.thumb_func
 757              		.type	CyDmaChEnable, %function
 758              	CyDmaChEnable:
 759              	.LFB19:
 528:Generated_Source\PSoC4/CyDMA.c **** 
 529:Generated_Source\PSoC4/CyDMA.c **** 
 530:Generated_Source\PSoC4/CyDMA.c **** /*******************************************************************************
 531:Generated_Source\PSoC4/CyDMA.c **** * Function Name: CyDmaChEnable
 532:Generated_Source\PSoC4/CyDMA.c **** ********************************************************************************
 533:Generated_Source\PSoC4/CyDMA.c **** *
 534:Generated_Source\PSoC4/CyDMA.c **** * Summary:
 535:Generated_Source\PSoC4/CyDMA.c **** *  Enables the DMA channel.
 536:Generated_Source\PSoC4/CyDMA.c **** *
 537:Generated_Source\PSoC4/CyDMA.c **** * Parameters:
 538:Generated_Source\PSoC4/CyDMA.c **** *  channel: Channel used by this function.
 539:Generated_Source\PSoC4/CyDMA.c **** *                   
 540:Generated_Source\PSoC4/CyDMA.c **** * Return:
 541:Generated_Source\PSoC4/CyDMA.c **** *  None.
 542:Generated_Source\PSoC4/CyDMA.c **** *
 543:Generated_Source\PSoC4/CyDMA.c **** * Side effect:
 544:Generated_Source\PSoC4/CyDMA.c **** *  If this function is called before CyDmaSetConfiguration(), and
 545:Generated_Source\PSoC4/CyDMA.c **** *  CyDmaSetSrcAddress() and CyDmaSetDstAddress(), the operation of
 546:Generated_Source\PSoC4/CyDMA.c **** *  the DMA is undefined and could result in system data corruption. 
 547:Generated_Source\PSoC4/CyDMA.c **** *
 548:Generated_Source\PSoC4/CyDMA.c **** *******************************************************************************/
 549:Generated_Source\PSoC4/CyDMA.c **** void CyDmaChEnable(int32 channel)
 550:Generated_Source\PSoC4/CyDMA.c **** {
 760              		.loc 1 550 0
 761              		.cfi_startproc
 762              		@ args = 0, pretend = 0, frame = 0
 763              		@ frame_needed = 0, uses_anonymous_args = 0
 764              	.LVL50:
 765 0000 10B5     		push	{r4, lr}
 766              		.cfi_def_cfa_offset 8
 767              		.cfi_offset 4, -8
 768              		.cfi_offset 14, -4
 769              		.loc 1 550 0
 770 0002 0400     		movs	r4, r0
 551:Generated_Source\PSoC4/CyDMA.c ****     CYASSERT((channel >= 0) && (channel < CYDMA_CH_NR));
 771              		.loc 1 551 0
 772 0004 0728     		cmp	r0, #7
 773 0006 02D9     		bls	.L76
 774              		.loc 1 551 0 is_stmt 0 discriminator 1
ARM GAS  C:\Users\ilya\AppData\Local\Temp\cchJq1OJ.s 			page 26


 775 0008 0020     		movs	r0, #0
 776              	.LVL51:
 777 000a FFF7FEFF 		bl	CyHalt
 778              	.LVL52:
 779              	.L76:
 780 000e 054B     		ldr	r3, .L77
 552:Generated_Source\PSoC4/CyDMA.c **** 
 553:Generated_Source\PSoC4/CyDMA.c ****     CYDMA_CH_CTL_BASE.ctl[channel] |= CYDMA_ENABLED;
 781              		.loc 1 553 0 is_stmt 1
 782 0010 8022     		movs	r2, #128
 783 0012 9C46     		mov	ip, r3
 784 0014 A400     		lsls	r4, r4, #2
 785              	.LVL53:
 786 0016 6444     		add	r4, r4, ip
 787 0018 2368     		ldr	r3, [r4]
 788 001a 1206     		lsls	r2, r2, #24
 789 001c 1343     		orrs	r3, r2
 790 001e 2360     		str	r3, [r4]
 554:Generated_Source\PSoC4/CyDMA.c **** }
 791              		.loc 1 554 0
 792              		@ sp needed
 793 0020 10BD     		pop	{r4, pc}
 794              	.L78:
 795 0022 C046     		.align	2
 796              	.L77:
 797 0024 80101040 		.word	1074794624
 798              		.cfi_endproc
 799              	.LFE19:
 800              		.size	CyDmaChEnable, .-CyDmaChEnable
 801              		.section	.text.CyDmaChDisable,"ax",%progbits
 802              		.align	2
 803              		.global	CyDmaChDisable
 804              		.code	16
 805              		.thumb_func
 806              		.type	CyDmaChDisable, %function
 807              	CyDmaChDisable:
 808              	.LFB20:
 555:Generated_Source\PSoC4/CyDMA.c **** 
 556:Generated_Source\PSoC4/CyDMA.c **** 
 557:Generated_Source\PSoC4/CyDMA.c **** /*******************************************************************************
 558:Generated_Source\PSoC4/CyDMA.c **** * Function Name: CyDmaChDisable
 559:Generated_Source\PSoC4/CyDMA.c **** ********************************************************************************
 560:Generated_Source\PSoC4/CyDMA.c **** *
 561:Generated_Source\PSoC4/CyDMA.c **** * Summary:
 562:Generated_Source\PSoC4/CyDMA.c **** *  Disables the DMA channel.
 563:Generated_Source\PSoC4/CyDMA.c **** *
 564:Generated_Source\PSoC4/CyDMA.c **** * Parameters:
 565:Generated_Source\PSoC4/CyDMA.c **** *  channel: Channel used by this function.
 566:Generated_Source\PSoC4/CyDMA.c **** *                   
 567:Generated_Source\PSoC4/CyDMA.c **** * Return:
 568:Generated_Source\PSoC4/CyDMA.c **** *  None.
 569:Generated_Source\PSoC4/CyDMA.c **** *
 570:Generated_Source\PSoC4/CyDMA.c **** * Side effect:
 571:Generated_Source\PSoC4/CyDMA.c **** *  If this function is called during a DMA transfer the transfer is aborted. 
 572:Generated_Source\PSoC4/CyDMA.c **** *
 573:Generated_Source\PSoC4/CyDMA.c **** *******************************************************************************/
 574:Generated_Source\PSoC4/CyDMA.c **** void CyDmaChDisable(int32 channel)
ARM GAS  C:\Users\ilya\AppData\Local\Temp\cchJq1OJ.s 			page 27


 575:Generated_Source\PSoC4/CyDMA.c **** {
 809              		.loc 1 575 0
 810              		.cfi_startproc
 811              		@ args = 0, pretend = 0, frame = 0
 812              		@ frame_needed = 0, uses_anonymous_args = 0
 813              	.LVL54:
 814 0000 10B5     		push	{r4, lr}
 815              		.cfi_def_cfa_offset 8
 816              		.cfi_offset 4, -8
 817              		.cfi_offset 14, -4
 818              		.loc 1 575 0
 819 0002 0400     		movs	r4, r0
 576:Generated_Source\PSoC4/CyDMA.c ****     CYASSERT((channel >= 0) && (channel < CYDMA_CH_NR));
 820              		.loc 1 576 0
 821 0004 0728     		cmp	r0, #7
 822 0006 02D9     		bls	.L80
 823              		.loc 1 576 0 is_stmt 0 discriminator 1
 824 0008 0020     		movs	r0, #0
 825              	.LVL55:
 826 000a FFF7FEFF 		bl	CyHalt
 827              	.LVL56:
 828              	.L80:
 829 000e 044B     		ldr	r3, .L81
 830 0010 A400     		lsls	r4, r4, #2
 831              	.LVL57:
 832 0012 9C46     		mov	ip, r3
 833 0014 6444     		add	r4, r4, ip
 577:Generated_Source\PSoC4/CyDMA.c **** 
 578:Generated_Source\PSoC4/CyDMA.c ****     CYDMA_CH_CTL_BASE.ctl[channel] &= (uint32)~CYDMA_ENABLED;
 834              		.loc 1 578 0 is_stmt 1
 835 0016 2368     		ldr	r3, [r4]
 579:Generated_Source\PSoC4/CyDMA.c **** }
 836              		.loc 1 579 0
 837              		@ sp needed
 578:Generated_Source\PSoC4/CyDMA.c **** }
 838              		.loc 1 578 0
 839 0018 5B00     		lsls	r3, r3, #1
 840 001a 5B08     		lsrs	r3, r3, #1
 841 001c 2360     		str	r3, [r4]
 842              		.loc 1 579 0
 843 001e 10BD     		pop	{r4, pc}
 844              	.L82:
 845              		.align	2
 846              	.L81:
 847 0020 80101040 		.word	1074794624
 848              		.cfi_endproc
 849              	.LFE20:
 850              		.size	CyDmaChDisable, .-CyDmaChDisable
 851              		.section	.text.CyDmaTrigger,"ax",%progbits
 852              		.align	2
 853              		.global	CyDmaTrigger
 854              		.code	16
 855              		.thumb_func
 856              		.type	CyDmaTrigger, %function
 857              	CyDmaTrigger:
 858              	.LFB21:
 580:Generated_Source\PSoC4/CyDMA.c **** 
ARM GAS  C:\Users\ilya\AppData\Local\Temp\cchJq1OJ.s 			page 28


 581:Generated_Source\PSoC4/CyDMA.c **** 
 582:Generated_Source\PSoC4/CyDMA.c **** /*******************************************************************************
 583:Generated_Source\PSoC4/CyDMA.c **** * Function Name: CyDmaTrigger
 584:Generated_Source\PSoC4/CyDMA.c **** ********************************************************************************
 585:Generated_Source\PSoC4/CyDMA.c **** *
 586:Generated_Source\PSoC4/CyDMA.c **** * Summary:
 587:Generated_Source\PSoC4/CyDMA.c **** *  Triggers the DMA channel, this is useful only for software triggers. This is
 588:Generated_Source\PSoC4/CyDMA.c **** *  not needed when hardware triggers are used.
 589:Generated_Source\PSoC4/CyDMA.c **** *
 590:Generated_Source\PSoC4/CyDMA.c **** * Parameters:
 591:Generated_Source\PSoC4/CyDMA.c **** *  channel: Channel used by this function.
 592:Generated_Source\PSoC4/CyDMA.c **** *                   
 593:Generated_Source\PSoC4/CyDMA.c **** * Return:
 594:Generated_Source\PSoC4/CyDMA.c **** *  None. 
 595:Generated_Source\PSoC4/CyDMA.c **** *
 596:Generated_Source\PSoC4/CyDMA.c **** *******************************************************************************/
 597:Generated_Source\PSoC4/CyDMA.c **** void CyDmaTrigger(int32 channel)
 598:Generated_Source\PSoC4/CyDMA.c **** {
 859              		.loc 1 598 0
 860              		.cfi_startproc
 861              		@ args = 0, pretend = 0, frame = 0
 862              		@ frame_needed = 0, uses_anonymous_args = 0
 863              	.LVL58:
 864 0000 10B5     		push	{r4, lr}
 865              		.cfi_def_cfa_offset 8
 866              		.cfi_offset 4, -8
 867              		.cfi_offset 14, -4
 868              		.loc 1 598 0
 869 0002 0400     		movs	r4, r0
 599:Generated_Source\PSoC4/CyDMA.c ****     /* The LUT is device-dependent, thus it is generated during the build process. */
 600:Generated_Source\PSoC4/CyDMA.c ****     static const uint32 trCtlLut[] = {0xC0020000U};
 601:Generated_Source\PSoC4/CyDMA.c **** 
 602:Generated_Source\PSoC4/CyDMA.c ****     CYASSERT((channel >= 0) && (channel < CYDMA_CH_NR));
 870              		.loc 1 602 0
 871 0004 0728     		cmp	r0, #7
 872 0006 02D9     		bls	.L84
 873              		.loc 1 602 0 is_stmt 0 discriminator 1
 874 0008 0020     		movs	r0, #0
 875              	.LVL59:
 876 000a FFF7FEFF 		bl	CyHalt
 877              	.LVL60:
 878              	.L84:
 603:Generated_Source\PSoC4/CyDMA.c **** 
 604:Generated_Source\PSoC4/CyDMA.c ****     CYDMA_TR_CTL_REG = trCtlLut[(uint32)channel >> CYDMA_TR_GROUP_SHR] | ((uint32)channel & CYDMA_T
 879              		.loc 1 604 0 is_stmt 1
 880 000e 0723     		movs	r3, #7
 881 0010 1C40     		ands	r4, r3
 882              	.LVL61:
 883 0012 024B     		ldr	r3, .L85
 605:Generated_Source\PSoC4/CyDMA.c **** }
 884              		.loc 1 605 0
 885              		@ sp needed
 604:Generated_Source\PSoC4/CyDMA.c **** }
 886              		.loc 1 604 0
 887 0014 1C43     		orrs	r4, r3
 888 0016 024B     		ldr	r3, .L85+4
 889 0018 1C60     		str	r4, [r3]
ARM GAS  C:\Users\ilya\AppData\Local\Temp\cchJq1OJ.s 			page 29


 890              		.loc 1 605 0
 891 001a 10BD     		pop	{r4, pc}
 892              	.L86:
 893              		.align	2
 894              	.L85:
 895 001c 000002C0 		.word	-1073610752
 896 0020 00060140 		.word	1073808896
 897              		.cfi_endproc
 898              	.LFE21:
 899              		.size	CyDmaTrigger, .-CyDmaTrigger
 900              		.section	.text.CyDmaSetPriority,"ax",%progbits
 901              		.align	2
 902              		.global	CyDmaSetPriority
 903              		.code	16
 904              		.thumb_func
 905              		.type	CyDmaSetPriority, %function
 906              	CyDmaSetPriority:
 907              	.LFB22:
 606:Generated_Source\PSoC4/CyDMA.c **** 
 607:Generated_Source\PSoC4/CyDMA.c **** 
 608:Generated_Source\PSoC4/CyDMA.c **** /*******************************************************************************
 609:Generated_Source\PSoC4/CyDMA.c **** * Function Name: CyDmaSetPriority
 610:Generated_Source\PSoC4/CyDMA.c **** ********************************************************************************
 611:Generated_Source\PSoC4/CyDMA.c **** *
 612:Generated_Source\PSoC4/CyDMA.c **** * Summary:
 613:Generated_Source\PSoC4/CyDMA.c **** *  Sets the priority for the channel.
 614:Generated_Source\PSoC4/CyDMA.c **** *
 615:Generated_Source\PSoC4/CyDMA.c **** * Parameters:
 616:Generated_Source\PSoC4/CyDMA.c **** *  channel:  Channel used by this function
 617:Generated_Source\PSoC4/CyDMA.c **** *  priority: Priority for channel. Priority can be 0,1,2, or 3.
 618:Generated_Source\PSoC4/CyDMA.c **** *            0 is the highest priority.
 619:Generated_Source\PSoC4/CyDMA.c **** *                   
 620:Generated_Source\PSoC4/CyDMA.c **** * Return:
 621:Generated_Source\PSoC4/CyDMA.c **** *  None.
 622:Generated_Source\PSoC4/CyDMA.c **** *
 623:Generated_Source\PSoC4/CyDMA.c **** * Side effect:
 624:Generated_Source\PSoC4/CyDMA.c **** *  This function should not be called while the channel is enabled.
 625:Generated_Source\PSoC4/CyDMA.c **** *
 626:Generated_Source\PSoC4/CyDMA.c **** *******************************************************************************/
 627:Generated_Source\PSoC4/CyDMA.c **** void CyDmaSetPriority(int32 channel, int32 priority)
 628:Generated_Source\PSoC4/CyDMA.c **** {
 908              		.loc 1 628 0
 909              		.cfi_startproc
 910              		@ args = 0, pretend = 0, frame = 0
 911              		@ frame_needed = 0, uses_anonymous_args = 0
 912              	.LVL62:
 913 0000 70B5     		push	{r4, r5, r6, lr}
 914              		.cfi_def_cfa_offset 16
 915              		.cfi_offset 4, -16
 916              		.cfi_offset 5, -12
 917              		.cfi_offset 6, -8
 918              		.cfi_offset 14, -4
 919              		.loc 1 628 0
 920 0002 0400     		movs	r4, r0
 921 0004 0D00     		movs	r5, r1
 629:Generated_Source\PSoC4/CyDMA.c ****     uint32 regValue;
 630:Generated_Source\PSoC4/CyDMA.c **** 
ARM GAS  C:\Users\ilya\AppData\Local\Temp\cchJq1OJ.s 			page 30


 631:Generated_Source\PSoC4/CyDMA.c ****     CYASSERT((channel  >= 0) && (channel  <  CYDMA_CH_NR));
 922              		.loc 1 631 0
 923 0006 0728     		cmp	r0, #7
 924 0008 0FD8     		bhi	.L90
 925              	.LVL63:
 926              	.L88:
 632:Generated_Source\PSoC4/CyDMA.c ****     CYASSERT((priority >= 0) && (priority <= CY_DMA_MAX_PRIO));
 927              		.loc 1 632 0
 928 000a 032D     		cmp	r5, #3
 929 000c 02D9     		bls	.L89
 930              		.loc 1 632 0 is_stmt 0 discriminator 1
 931 000e 0020     		movs	r0, #0
 932 0010 FFF7FEFF 		bl	CyHalt
 933              	.LVL64:
 934              	.L89:
 935 0014 074B     		ldr	r3, .L91
 936 0016 A400     		lsls	r4, r4, #2
 937              	.LVL65:
 938 0018 9C46     		mov	ip, r3
 939 001a 6444     		add	r4, r4, ip
 633:Generated_Source\PSoC4/CyDMA.c **** 
 634:Generated_Source\PSoC4/CyDMA.c ****     regValue = CYDMA_CH_CTL_BASE.ctl[channel] & (uint32)~CYDMA_PRIO;
 940              		.loc 1 634 0 is_stmt 1
 941 001c 2268     		ldr	r2, [r4]
 942              	.LVL66:
 635:Generated_Source\PSoC4/CyDMA.c ****     CYDMA_CH_CTL_BASE.ctl[channel] = regValue | (uint32)((uint32)priority << CYDMA_PRIO_POS);
 943              		.loc 1 635 0
 944 001e 064B     		ldr	r3, .L91+4
 945 0020 2D07     		lsls	r5, r5, #28
 946              	.LVL67:
 947 0022 1340     		ands	r3, r2
 948              	.LVL68:
 949 0024 1D43     		orrs	r5, r3
 950 0026 2560     		str	r5, [r4]
 636:Generated_Source\PSoC4/CyDMA.c **** }
 951              		.loc 1 636 0
 952              		@ sp needed
 953 0028 70BD     		pop	{r4, r5, r6, pc}
 954              	.LVL69:
 955              	.L90:
 631:Generated_Source\PSoC4/CyDMA.c ****     CYASSERT((priority >= 0) && (priority <= CY_DMA_MAX_PRIO));
 956              		.loc 1 631 0 discriminator 1
 957 002a 0020     		movs	r0, #0
 958              	.LVL70:
 959 002c FFF7FEFF 		bl	CyHalt
 960              	.LVL71:
 961 0030 EBE7     		b	.L88
 962              	.L92:
 963 0032 C046     		.align	2
 964              	.L91:
 965 0034 80101040 		.word	1074794624
 966 0038 FFFFFFCF 		.word	-805306369
 967              		.cfi_endproc
 968              	.LFE22:
 969              		.size	CyDmaSetPriority, .-CyDmaSetPriority
 970              		.section	.text.CyDmaGetPriority,"ax",%progbits
 971              		.align	2
ARM GAS  C:\Users\ilya\AppData\Local\Temp\cchJq1OJ.s 			page 31


 972              		.global	CyDmaGetPriority
 973              		.code	16
 974              		.thumb_func
 975              		.type	CyDmaGetPriority, %function
 976              	CyDmaGetPriority:
 977              	.LFB23:
 637:Generated_Source\PSoC4/CyDMA.c **** 
 638:Generated_Source\PSoC4/CyDMA.c **** 
 639:Generated_Source\PSoC4/CyDMA.c **** /*******************************************************************************
 640:Generated_Source\PSoC4/CyDMA.c **** * Function Name: CyDmaGetPriority
 641:Generated_Source\PSoC4/CyDMA.c **** ********************************************************************************
 642:Generated_Source\PSoC4/CyDMA.c **** *
 643:Generated_Source\PSoC4/CyDMA.c **** * Summary:
 644:Generated_Source\PSoC4/CyDMA.c **** *  Gets the priority for the channel.
 645:Generated_Source\PSoC4/CyDMA.c **** *
 646:Generated_Source\PSoC4/CyDMA.c **** * Parameters:
 647:Generated_Source\PSoC4/CyDMA.c **** *  channel: Channel used by this function.
 648:Generated_Source\PSoC4/CyDMA.c **** *                   
 649:Generated_Source\PSoC4/CyDMA.c **** * Return:
 650:Generated_Source\PSoC4/CyDMA.c **** *  Priority for channel. Priority can be 0,1,2, or 3. 0 is the highest priority.
 651:Generated_Source\PSoC4/CyDMA.c **** *
 652:Generated_Source\PSoC4/CyDMA.c **** *******************************************************************************/
 653:Generated_Source\PSoC4/CyDMA.c **** int32 CyDmaGetPriority(int32 channel)
 654:Generated_Source\PSoC4/CyDMA.c **** {
 978              		.loc 1 654 0
 979              		.cfi_startproc
 980              		@ args = 0, pretend = 0, frame = 0
 981              		@ frame_needed = 0, uses_anonymous_args = 0
 982              	.LVL72:
 983 0000 10B5     		push	{r4, lr}
 984              		.cfi_def_cfa_offset 8
 985              		.cfi_offset 4, -8
 986              		.cfi_offset 14, -4
 987              		.loc 1 654 0
 988 0002 0400     		movs	r4, r0
 655:Generated_Source\PSoC4/CyDMA.c ****     uint32 priority;
 656:Generated_Source\PSoC4/CyDMA.c **** 
 657:Generated_Source\PSoC4/CyDMA.c ****     CYASSERT((channel >= 0) && (channel < CYDMA_CH_NR));
 989              		.loc 1 657 0
 990 0004 0728     		cmp	r0, #7
 991 0006 02D9     		bls	.L94
 992              		.loc 1 657 0 is_stmt 0 discriminator 1
 993 0008 0020     		movs	r0, #0
 994              	.LVL73:
 995 000a FFF7FEFF 		bl	CyHalt
 996              	.LVL74:
 997              	.L94:
 658:Generated_Source\PSoC4/CyDMA.c **** 
 659:Generated_Source\PSoC4/CyDMA.c ****     priority = (CYDMA_CH_CTL_BASE.ctl[channel] & CYDMA_PRIO) >> CYDMA_PRIO_POS;
 998              		.loc 1 659 0 is_stmt 1
 999 000e 034B     		ldr	r3, .L95
 1000 0010 A400     		lsls	r4, r4, #2
 1001              	.LVL75:
 1002 0012 E058     		ldr	r0, [r4, r3]
 1003              	.LVL76:
 660:Generated_Source\PSoC4/CyDMA.c ****     return ((int32)priority);
 661:Generated_Source\PSoC4/CyDMA.c **** }
ARM GAS  C:\Users\ilya\AppData\Local\Temp\cchJq1OJ.s 			page 32


 1004              		.loc 1 661 0
 1005              		@ sp needed
 660:Generated_Source\PSoC4/CyDMA.c ****     return ((int32)priority);
 1006              		.loc 1 660 0
 1007 0014 8000     		lsls	r0, r0, #2
 1008              	.LVL77:
 1009 0016 800F     		lsrs	r0, r0, #30
 1010              		.loc 1 661 0
 1011 0018 10BD     		pop	{r4, pc}
 1012              	.L96:
 1013 001a C046     		.align	2
 1014              	.L95:
 1015 001c 80101040 		.word	1074794624
 1016              		.cfi_endproc
 1017              	.LFE23:
 1018              		.size	CyDmaGetPriority, .-CyDmaGetPriority
 1019              		.section	.text.CyDmaSetNextDescriptor,"ax",%progbits
 1020              		.align	2
 1021              		.global	CyDmaSetNextDescriptor
 1022              		.code	16
 1023              		.thumb_func
 1024              		.type	CyDmaSetNextDescriptor, %function
 1025              	CyDmaSetNextDescriptor:
 1026              	.LFB24:
 662:Generated_Source\PSoC4/CyDMA.c **** 
 663:Generated_Source\PSoC4/CyDMA.c **** 
 664:Generated_Source\PSoC4/CyDMA.c **** /*******************************************************************************
 665:Generated_Source\PSoC4/CyDMA.c **** * Function Name: CyDmaSetNextDescriptor
 666:Generated_Source\PSoC4/CyDMA.c **** ********************************************************************************
 667:Generated_Source\PSoC4/CyDMA.c **** *
 668:Generated_Source\PSoC4/CyDMA.c **** * Summary:
 669:Generated_Source\PSoC4/CyDMA.c **** *  Sets the descriptor that should be run the next time the channel is
 670:Generated_Source\PSoC4/CyDMA.c **** *  triggered.
 671:Generated_Source\PSoC4/CyDMA.c **** *
 672:Generated_Source\PSoC4/CyDMA.c **** * Parameters:
 673:Generated_Source\PSoC4/CyDMA.c **** *  channel:    Channel used by this function.
 674:Generated_Source\PSoC4/CyDMA.c **** *  descriptor: Next Descriptor to run (0 or 1).
 675:Generated_Source\PSoC4/CyDMA.c **** *
 676:Generated_Source\PSoC4/CyDMA.c **** * Return:
 677:Generated_Source\PSoC4/CyDMA.c **** *  None.
 678:Generated_Source\PSoC4/CyDMA.c **** *                   
 679:Generated_Source\PSoC4/CyDMA.c **** * Side effect:
 680:Generated_Source\PSoC4/CyDMA.c **** *  This function should not be called while the channel is enabled.
 681:Generated_Source\PSoC4/CyDMA.c **** *
 682:Generated_Source\PSoC4/CyDMA.c **** *******************************************************************************/
 683:Generated_Source\PSoC4/CyDMA.c **** void CyDmaSetNextDescriptor(int32 channel, int32 descriptor)
 684:Generated_Source\PSoC4/CyDMA.c **** {
 1027              		.loc 1 684 0
 1028              		.cfi_startproc
 1029              		@ args = 0, pretend = 0, frame = 0
 1030              		@ frame_needed = 0, uses_anonymous_args = 0
 1031              	.LVL78:
 1032 0000 70B5     		push	{r4, r5, r6, lr}
 1033              		.cfi_def_cfa_offset 16
 1034              		.cfi_offset 4, -16
 1035              		.cfi_offset 5, -12
 1036              		.cfi_offset 6, -8
ARM GAS  C:\Users\ilya\AppData\Local\Temp\cchJq1OJ.s 			page 33


 1037              		.cfi_offset 14, -4
 1038              		.loc 1 684 0
 1039 0002 0400     		movs	r4, r0
 1040 0004 0D00     		movs	r5, r1
 685:Generated_Source\PSoC4/CyDMA.c ****     uint32 regValue;
 686:Generated_Source\PSoC4/CyDMA.c **** 
 687:Generated_Source\PSoC4/CyDMA.c ****     CYASSERT((channel    >= 0) && (channel    < CYDMA_CH_NR));
 1041              		.loc 1 687 0
 1042 0006 0728     		cmp	r0, #7
 1043 0008 0FD8     		bhi	.L100
 1044              	.LVL79:
 1045              	.L98:
 688:Generated_Source\PSoC4/CyDMA.c ****     CYASSERT((descriptor >= 0) && (descriptor < CYDMA_DESCR_NR));
 1046              		.loc 1 688 0
 1047 000a 012D     		cmp	r5, #1
 1048 000c 02D9     		bls	.L99
 1049              		.loc 1 688 0 is_stmt 0 discriminator 1
 1050 000e 0020     		movs	r0, #0
 1051 0010 FFF7FEFF 		bl	CyHalt
 1052              	.LVL80:
 1053              	.L99:
 1054 0014 074B     		ldr	r3, .L101
 1055 0016 A400     		lsls	r4, r4, #2
 1056              	.LVL81:
 1057 0018 9C46     		mov	ip, r3
 1058 001a 6444     		add	r4, r4, ip
 689:Generated_Source\PSoC4/CyDMA.c **** 
 690:Generated_Source\PSoC4/CyDMA.c ****     regValue = CYDMA_CH_CTL_BASE.ctl[channel] & (uint32)~CYDMA_DESCRIPTOR;
 1059              		.loc 1 690 0 is_stmt 1
 1060 001c 2268     		ldr	r2, [r4]
 1061              	.LVL82:
 691:Generated_Source\PSoC4/CyDMA.c ****     CYDMA_CH_CTL_BASE.ctl[channel] = regValue | (uint32)((uint32)descriptor << CYDMA_DESCRIPTOR_POS
 1062              		.loc 1 691 0
 1063 001e 064B     		ldr	r3, .L101+4
 1064 0020 AD07     		lsls	r5, r5, #30
 1065              	.LVL83:
 1066 0022 1340     		ands	r3, r2
 1067              	.LVL84:
 1068 0024 1D43     		orrs	r5, r3
 1069 0026 2560     		str	r5, [r4]
 692:Generated_Source\PSoC4/CyDMA.c **** }
 1070              		.loc 1 692 0
 1071              		@ sp needed
 1072 0028 70BD     		pop	{r4, r5, r6, pc}
 1073              	.LVL85:
 1074              	.L100:
 687:Generated_Source\PSoC4/CyDMA.c ****     CYASSERT((descriptor >= 0) && (descriptor < CYDMA_DESCR_NR));
 1075              		.loc 1 687 0 discriminator 1
 1076 002a 0020     		movs	r0, #0
 1077              	.LVL86:
 1078 002c FFF7FEFF 		bl	CyHalt
 1079              	.LVL87:
 1080 0030 EBE7     		b	.L98
 1081              	.L102:
 1082 0032 C046     		.align	2
 1083              	.L101:
 1084 0034 80101040 		.word	1074794624
ARM GAS  C:\Users\ilya\AppData\Local\Temp\cchJq1OJ.s 			page 34


 1085 0038 FFFFFFBF 		.word	-1073741825
 1086              		.cfi_endproc
 1087              	.LFE24:
 1088              		.size	CyDmaSetNextDescriptor, .-CyDmaSetNextDescriptor
 1089              		.section	.text.CyDmaGetNextDescriptor,"ax",%progbits
 1090              		.align	2
 1091              		.global	CyDmaGetNextDescriptor
 1092              		.code	16
 1093              		.thumb_func
 1094              		.type	CyDmaGetNextDescriptor, %function
 1095              	CyDmaGetNextDescriptor:
 1096              	.LFB25:
 693:Generated_Source\PSoC4/CyDMA.c **** 
 694:Generated_Source\PSoC4/CyDMA.c **** 
 695:Generated_Source\PSoC4/CyDMA.c **** /*******************************************************************************
 696:Generated_Source\PSoC4/CyDMA.c **** * Function Name: CyDmaGetNextDescriptor
 697:Generated_Source\PSoC4/CyDMA.c **** ********************************************************************************
 698:Generated_Source\PSoC4/CyDMA.c **** *
 699:Generated_Source\PSoC4/CyDMA.c **** * Summary:
 700:Generated_Source\PSoC4/CyDMA.c **** *  Returns the next descriptor that should be run, as set by 
 701:Generated_Source\PSoC4/CyDMA.c **** *  CyDmaSetNextDescriptor().
 702:Generated_Source\PSoC4/CyDMA.c **** *
 703:Generated_Source\PSoC4/CyDMA.c **** * Parameters:
 704:Generated_Source\PSoC4/CyDMA.c **** *  channel: channel used by this function.
 705:Generated_Source\PSoC4/CyDMA.c **** *                   
 706:Generated_Source\PSoC4/CyDMA.c **** * Return:
 707:Generated_Source\PSoC4/CyDMA.c **** *  Next Descriptor to run (0 or 1).
 708:Generated_Source\PSoC4/CyDMA.c **** *
 709:Generated_Source\PSoC4/CyDMA.c **** *******************************************************************************/
 710:Generated_Source\PSoC4/CyDMA.c **** int32 CyDmaGetNextDescriptor(int32 channel)
 711:Generated_Source\PSoC4/CyDMA.c **** {
 1097              		.loc 1 711 0
 1098              		.cfi_startproc
 1099              		@ args = 0, pretend = 0, frame = 0
 1100              		@ frame_needed = 0, uses_anonymous_args = 0
 1101              	.LVL88:
 1102 0000 10B5     		push	{r4, lr}
 1103              		.cfi_def_cfa_offset 8
 1104              		.cfi_offset 4, -8
 1105              		.cfi_offset 14, -4
 1106              		.loc 1 711 0
 1107 0002 0400     		movs	r4, r0
 712:Generated_Source\PSoC4/CyDMA.c ****     uint32 nextDescriptor;
 713:Generated_Source\PSoC4/CyDMA.c **** 
 714:Generated_Source\PSoC4/CyDMA.c ****     CYASSERT((channel >= 0) && (channel < CYDMA_CH_NR));
 1108              		.loc 1 714 0
 1109 0004 0728     		cmp	r0, #7
 1110 0006 02D9     		bls	.L104
 1111              		.loc 1 714 0 is_stmt 0 discriminator 1
 1112 0008 0020     		movs	r0, #0
 1113              	.LVL89:
 1114 000a FFF7FEFF 		bl	CyHalt
 1115              	.LVL90:
 1116              	.L104:
 715:Generated_Source\PSoC4/CyDMA.c **** 
 716:Generated_Source\PSoC4/CyDMA.c ****     nextDescriptor = (CYDMA_CH_CTL_BASE.ctl[channel] & CYDMA_DESCRIPTOR) >> CYDMA_DESCRIPTOR_POS;
 1117              		.loc 1 716 0 is_stmt 1
ARM GAS  C:\Users\ilya\AppData\Local\Temp\cchJq1OJ.s 			page 35


 1118 000e 034B     		ldr	r3, .L105
 1119 0010 A400     		lsls	r4, r4, #2
 1120              	.LVL91:
 1121 0012 E058     		ldr	r0, [r4, r3]
 1122              	.LVL92:
 717:Generated_Source\PSoC4/CyDMA.c ****     return ((int32)nextDescriptor);
 718:Generated_Source\PSoC4/CyDMA.c **** }
 1123              		.loc 1 718 0
 1124              		@ sp needed
 717:Generated_Source\PSoC4/CyDMA.c ****     return ((int32)nextDescriptor);
 1125              		.loc 1 717 0
 1126 0014 4000     		lsls	r0, r0, #1
 1127              	.LVL93:
 1128 0016 C00F     		lsrs	r0, r0, #31
 1129              		.loc 1 718 0
 1130 0018 10BD     		pop	{r4, pc}
 1131              	.L106:
 1132 001a C046     		.align	2
 1133              	.L105:
 1134 001c 80101040 		.word	1074794624
 1135              		.cfi_endproc
 1136              	.LFE25:
 1137              		.size	CyDmaGetNextDescriptor, .-CyDmaGetNextDescriptor
 1138              		.section	.text.CyDmaSetConfiguration,"ax",%progbits
 1139              		.align	2
 1140              		.global	CyDmaSetConfiguration
 1141              		.code	16
 1142              		.thumb_func
 1143              		.type	CyDmaSetConfiguration, %function
 1144              	CyDmaSetConfiguration:
 1145              	.LFB26:
 719:Generated_Source\PSoC4/CyDMA.c **** 
 720:Generated_Source\PSoC4/CyDMA.c **** 
 721:Generated_Source\PSoC4/CyDMA.c **** /*******************************************************************************
 722:Generated_Source\PSoC4/CyDMA.c **** * Function Name: CyDmaSetConfiguration
 723:Generated_Source\PSoC4/CyDMA.c **** ********************************************************************************
 724:Generated_Source\PSoC4/CyDMA.c **** *
 725:Generated_Source\PSoC4/CyDMA.c **** * Summary:
 726:Generated_Source\PSoC4/CyDMA.c **** *  Sets configuration information for the specified descriptor.
 727:Generated_Source\PSoC4/CyDMA.c **** *
 728:Generated_Source\PSoC4/CyDMA.c **** * Parameters:
 729:Generated_Source\PSoC4/CyDMA.c **** *  channel:    DMA channel modified by this function.
 730:Generated_Source\PSoC4/CyDMA.c **** *  descriptor: Descriptor (0 or 1) modified by this function.
 731:Generated_Source\PSoC4/CyDMA.c **** *  config:     Pointer to a configuration structure. Refer to cydma_init_struct
 732:Generated_Source\PSoC4/CyDMA.c **** *              structure definition in CyDMA_P4.h and/or DMA channel datasheet
 733:Generated_Source\PSoC4/CyDMA.c **** *              for more information.
 734:Generated_Source\PSoC4/CyDMA.c **** *                   
 735:Generated_Source\PSoC4/CyDMA.c **** * Return:
 736:Generated_Source\PSoC4/CyDMA.c **** *  None.
 737:Generated_Source\PSoC4/CyDMA.c **** *
 738:Generated_Source\PSoC4/CyDMA.c **** * Side effect:
 739:Generated_Source\PSoC4/CyDMA.c **** *  The status register associated with the specified descriptor is reset to
 740:Generated_Source\PSoC4/CyDMA.c **** *  zero after this function call. This function also validates the descriptor.
 741:Generated_Source\PSoC4/CyDMA.c **** *  This function should not be called while the descriptor is active.
 742:Generated_Source\PSoC4/CyDMA.c **** *  This can be checked by calling CyDmaGetStatus().
 743:Generated_Source\PSoC4/CyDMA.c **** *
 744:Generated_Source\PSoC4/CyDMA.c **** *******************************************************************************/
ARM GAS  C:\Users\ilya\AppData\Local\Temp\cchJq1OJ.s 			page 36


 745:Generated_Source\PSoC4/CyDMA.c **** void CyDmaSetConfiguration(int32 channel, int32 descriptor, const cydma_init_struct * config)
 746:Generated_Source\PSoC4/CyDMA.c **** {  
 1146              		.loc 1 746 0
 1147              		.cfi_startproc
 1148              		@ args = 0, pretend = 0, frame = 0
 1149              		@ frame_needed = 0, uses_anonymous_args = 0
 1150              	.LVL94:
 1151 0000 70B5     		push	{r4, r5, r6, lr}
 1152              		.cfi_def_cfa_offset 16
 1153              		.cfi_offset 4, -16
 1154              		.cfi_offset 5, -12
 1155              		.cfi_offset 6, -8
 1156              		.cfi_offset 14, -4
 1157              		.loc 1 746 0
 1158 0002 0600     		movs	r6, r0
 1159 0004 0D00     		movs	r5, r1
 1160 0006 1400     		movs	r4, r2
 747:Generated_Source\PSoC4/CyDMA.c ****     CYASSERT((channel        >= 0) && (channel         < CYDMA_CH_NR));
 1161              		.loc 1 747 0
 1162 0008 0728     		cmp	r0, #7
 1163 000a 5ED8     		bhi	.L138
 1164              	.LVL95:
 1165              	.L108:
 748:Generated_Source\PSoC4/CyDMA.c ****     CYASSERT((descriptor     >= 0) && (descriptor      < CYDMA_DESCR_NR));
 1166              		.loc 1 748 0
 1167 000c 012D     		cmp	r5, #1
 1168 000e 02D9     		bls	.L109
 1169              		.loc 1 748 0 is_stmt 0 discriminator 1
 1170 0010 0020     		movs	r0, #0
 1171 0012 FFF7FEFF 		bl	CyHalt
 1172              	.LVL96:
 1173              	.L109:
 749:Generated_Source\PSoC4/CyDMA.c **** 
 750:Generated_Source\PSoC4/CyDMA.c ****     CYASSERT(0u == (config->dataElementSize     & (uint32)~CYDMA_DATA_SIZE));   
 1174              		.loc 1 750 0 is_stmt 1
 1175 0016 2F4B     		ldr	r3, .L146
 1176 0018 2268     		ldr	r2, [r4]
 1177 001a 1A42     		tst	r2, r3
 1178 001c 51D1     		bne	.L139
 1179              	.L110:
 751:Generated_Source\PSoC4/CyDMA.c ****     CYASSERT((config->numDataElements > 0)     && (config->numDataElements <= CYDMA_MAX_DATA_NR));
 1180              		.loc 1 751 0
 1181 001e 6368     		ldr	r3, [r4, #4]
 1182 0020 2D4A     		ldr	r2, .L146+4
 1183 0022 013B     		subs	r3, r3, #1
 1184 0024 9342     		cmp	r3, r2
 1185 0026 48D8     		bhi	.L140
 1186              	.L111:
 752:Generated_Source\PSoC4/CyDMA.c ****     CYASSERT(0u == (config->srcDstTransferWidth & (uint32)~CYDMA_TRANSFER_WIDTH));
 1187              		.loc 1 752 0
 1188 0028 2C4B     		ldr	r3, .L146+8
 1189 002a A268     		ldr	r2, [r4, #8]
 1190 002c 1A42     		tst	r2, r3
 1191 002e 40D1     		bne	.L141
 1192              	.L112:
 753:Generated_Source\PSoC4/CyDMA.c ****     CYASSERT(0u == (config->addressIncrement    & (uint32)~CYDMA_ADDR_INCR));
 1193              		.loc 1 753 0
ARM GAS  C:\Users\ilya\AppData\Local\Temp\cchJq1OJ.s 			page 37


 1194 0030 2B4B     		ldr	r3, .L146+12
 1195 0032 E268     		ldr	r2, [r4, #12]
 1196 0034 1A42     		tst	r2, r3
 1197 0036 38D1     		bne	.L142
 1198              	.L113:
 754:Generated_Source\PSoC4/CyDMA.c ****     CYASSERT(0u == (config->triggerType         & (uint32)~CYDMA_TRIGGER_TYPE));
 1199              		.loc 1 754 0
 1200 0038 2A4B     		ldr	r3, .L146+16
 1201 003a 2269     		ldr	r2, [r4, #16]
 1202 003c 1A42     		tst	r2, r3
 1203 003e 30D1     		bne	.L143
 1204              	.L114:
 755:Generated_Source\PSoC4/CyDMA.c ****     CYASSERT(0u == (config->transferMode        & (uint32)~CYDMA_TRANSFER_MODE));
 1205              		.loc 1 755 0
 1206 0040 6369     		ldr	r3, [r4, #20]
 1207 0042 9B00     		lsls	r3, r3, #2
 1208 0044 29D1     		bne	.L144
 1209              	.L115:
 756:Generated_Source\PSoC4/CyDMA.c ****     CYASSERT(0u == (config->preemptable         & (uint32)~CYDMA_PREEMPTABLE));
 1210              		.loc 1 756 0
 1211 0046 284B     		ldr	r3, .L146+20
 1212 0048 A269     		ldr	r2, [r4, #24]
 1213 004a 1A42     		tst	r2, r3
 1214 004c 21D1     		bne	.L145
 1215              	.L116:
 757:Generated_Source\PSoC4/CyDMA.c ****     CYASSERT(0u == (config->actions             & (uint32)~CYDMA_POST_COMPLETE_ACTIONS));
 1216              		.loc 1 757 0
 1217 004e 274A     		ldr	r2, .L146+24
 1218 0050 E369     		ldr	r3, [r4, #28]
 1219 0052 1342     		tst	r3, r2
 1220 0054 03D0     		beq	.L117
 1221              		.loc 1 757 0 is_stmt 0 discriminator 1
 1222 0056 0020     		movs	r0, #0
 1223 0058 FFF7FEFF 		bl	CyHalt
 1224              	.LVL97:
 1225 005c E369     		ldr	r3, [r4, #28]
 1226              	.L117:
 758:Generated_Source\PSoC4/CyDMA.c ****     
 759:Generated_Source\PSoC4/CyDMA.c ****     CYDMA_DESCR_BASE.descriptor[channel][descriptor].ctl = config->dataElementSize     |
 760:Generated_Source\PSoC4/CyDMA.c ****                                                   ((uint32)config->numDataElements-1u) |
 761:Generated_Source\PSoC4/CyDMA.c ****                                                            config->srcDstTransferWidth |
 762:Generated_Source\PSoC4/CyDMA.c ****                                                            config->addressIncrement    |
 763:Generated_Source\PSoC4/CyDMA.c ****                                                            config->triggerType         |
 764:Generated_Source\PSoC4/CyDMA.c ****                                                            config->transferMode        |
 765:Generated_Source\PSoC4/CyDMA.c ****                                                            config->preemptable         |
 1227              		.loc 1 765 0 is_stmt 1
 1228 005e A168     		ldr	r1, [r4, #8]
 1229 0060 2268     		ldr	r2, [r4]
 759:Generated_Source\PSoC4/CyDMA.c ****                                                   ((uint32)config->numDataElements-1u) |
 1230              		.loc 1 759 0
 1231 0062 7600     		lsls	r6, r6, #1
 1232              	.LVL98:
 1233              		.loc 1 765 0
 1234 0064 0A43     		orrs	r2, r1
 1235 0066 E168     		ldr	r1, [r4, #12]
 759:Generated_Source\PSoC4/CyDMA.c ****                                                   ((uint32)config->numDataElements-1u) |
 1236              		.loc 1 759 0
ARM GAS  C:\Users\ilya\AppData\Local\Temp\cchJq1OJ.s 			page 38


 1237 0068 7519     		adds	r5, r6, r5
 1238              	.LVL99:
 1239              		.loc 1 765 0
 1240 006a 0A43     		orrs	r2, r1
 1241 006c 2169     		ldr	r1, [r4, #16]
 759:Generated_Source\PSoC4/CyDMA.c ****                                                   ((uint32)config->numDataElements-1u) |
 1242              		.loc 1 759 0
 1243 006e 2D01     		lsls	r5, r5, #4
 1244              		.loc 1 765 0
 1245 0070 0A43     		orrs	r2, r1
 1246 0072 6169     		ldr	r1, [r4, #20]
 766:Generated_Source\PSoC4/CyDMA.c ****                                                            config->actions;
 767:Generated_Source\PSoC4/CyDMA.c **** 
 768:Generated_Source\PSoC4/CyDMA.c ****     CYDMA_DESCR_BASE.descriptor[channel][descriptor].status = CYDMA_VALID;
 769:Generated_Source\PSoC4/CyDMA.c **** }
 1247              		.loc 1 769 0
 1248              		@ sp needed
 765:Generated_Source\PSoC4/CyDMA.c ****                                                            config->actions;
 1249              		.loc 1 765 0
 1250 0074 0A43     		orrs	r2, r1
 1251 0076 A169     		ldr	r1, [r4, #24]
 1252 0078 0A43     		orrs	r2, r1
 1253 007a 6168     		ldr	r1, [r4, #4]
 1254 007c 0139     		subs	r1, r1, #1
 1255 007e 0A43     		orrs	r2, r1
 1256 0080 1343     		orrs	r3, r2
 759:Generated_Source\PSoC4/CyDMA.c ****                                                   ((uint32)config->numDataElements-1u) |
 1257              		.loc 1 759 0
 1258 0082 1B4A     		ldr	r2, .L146+28
 1259 0084 9446     		mov	ip, r2
 1260 0086 6544     		add	r5, r5, ip
 1261 0088 AB60     		str	r3, [r5, #8]
 768:Generated_Source\PSoC4/CyDMA.c **** }
 1262              		.loc 1 768 0
 1263 008a 8023     		movs	r3, #128
 1264 008c 1B06     		lsls	r3, r3, #24
 1265 008e EB60     		str	r3, [r5, #12]
 1266              	.LVL100:
 1267              		.loc 1 769 0
 1268 0090 70BD     		pop	{r4, r5, r6, pc}
 1269              	.LVL101:
 1270              	.L145:
 756:Generated_Source\PSoC4/CyDMA.c ****     CYASSERT(0u == (config->actions             & (uint32)~CYDMA_POST_COMPLETE_ACTIONS));
 1271              		.loc 1 756 0 discriminator 1
 1272 0092 0020     		movs	r0, #0
 1273 0094 FFF7FEFF 		bl	CyHalt
 1274              	.LVL102:
 1275 0098 D9E7     		b	.L116
 1276              	.L144:
 755:Generated_Source\PSoC4/CyDMA.c ****     CYASSERT(0u == (config->preemptable         & (uint32)~CYDMA_PREEMPTABLE));
 1277              		.loc 1 755 0 discriminator 1
 1278 009a 0020     		movs	r0, #0
 1279 009c FFF7FEFF 		bl	CyHalt
 1280              	.LVL103:
 1281 00a0 D1E7     		b	.L115
 1282              	.L143:
 754:Generated_Source\PSoC4/CyDMA.c ****     CYASSERT(0u == (config->transferMode        & (uint32)~CYDMA_TRANSFER_MODE));
ARM GAS  C:\Users\ilya\AppData\Local\Temp\cchJq1OJ.s 			page 39


 1283              		.loc 1 754 0 discriminator 1
 1284 00a2 0020     		movs	r0, #0
 1285 00a4 FFF7FEFF 		bl	CyHalt
 1286              	.LVL104:
 1287 00a8 CAE7     		b	.L114
 1288              	.L142:
 753:Generated_Source\PSoC4/CyDMA.c ****     CYASSERT(0u == (config->triggerType         & (uint32)~CYDMA_TRIGGER_TYPE));
 1289              		.loc 1 753 0 discriminator 1
 1290 00aa 0020     		movs	r0, #0
 1291 00ac FFF7FEFF 		bl	CyHalt
 1292              	.LVL105:
 1293 00b0 C2E7     		b	.L113
 1294              	.L141:
 752:Generated_Source\PSoC4/CyDMA.c ****     CYASSERT(0u == (config->addressIncrement    & (uint32)~CYDMA_ADDR_INCR));
 1295              		.loc 1 752 0 discriminator 1
 1296 00b2 0020     		movs	r0, #0
 1297 00b4 FFF7FEFF 		bl	CyHalt
 1298              	.LVL106:
 1299 00b8 BAE7     		b	.L112
 1300              	.L140:
 751:Generated_Source\PSoC4/CyDMA.c ****     CYASSERT(0u == (config->srcDstTransferWidth & (uint32)~CYDMA_TRANSFER_WIDTH));
 1301              		.loc 1 751 0 discriminator 1
 1302 00ba 0020     		movs	r0, #0
 1303 00bc FFF7FEFF 		bl	CyHalt
 1304              	.LVL107:
 1305 00c0 B2E7     		b	.L111
 1306              	.L139:
 750:Generated_Source\PSoC4/CyDMA.c ****     CYASSERT((config->numDataElements > 0)     && (config->numDataElements <= CYDMA_MAX_DATA_NR));
 1307              		.loc 1 750 0 discriminator 1
 1308 00c2 0020     		movs	r0, #0
 1309 00c4 FFF7FEFF 		bl	CyHalt
 1310              	.LVL108:
 1311 00c8 A9E7     		b	.L110
 1312              	.LVL109:
 1313              	.L138:
 747:Generated_Source\PSoC4/CyDMA.c ****     CYASSERT((descriptor     >= 0) && (descriptor      < CYDMA_DESCR_NR));
 1314              		.loc 1 747 0 discriminator 1
 1315 00ca 0020     		movs	r0, #0
 1316              	.LVL110:
 1317 00cc FFF7FEFF 		bl	CyHalt
 1318              	.LVL111:
 1319 00d0 9CE7     		b	.L108
 1320              	.L147:
 1321 00d2 C046     		.align	2
 1322              	.L146:
 1323 00d4 FFFFFCFF 		.word	-196609
 1324 00d8 FFFF0000 		.word	65535
 1325 00dc FFFFAFFF 		.word	-5242881
 1326 00e0 FFFF5FFF 		.word	-10485761
 1327 00e4 FFFFFFFC 		.word	-50331649
 1328 00e8 FFFFFFEF 		.word	-268435457
 1329 00ec FFFFFFD3 		.word	-738197505
 1330 00f0 00181040 		.word	1074796544
 1331              		.cfi_endproc
 1332              	.LFE26:
 1333              		.size	CyDmaSetConfiguration, .-CyDmaSetConfiguration
 1334              		.section	.text.CyDmaValidateDescriptor,"ax",%progbits
ARM GAS  C:\Users\ilya\AppData\Local\Temp\cchJq1OJ.s 			page 40


 1335              		.align	2
 1336              		.global	CyDmaValidateDescriptor
 1337              		.code	16
 1338              		.thumb_func
 1339              		.type	CyDmaValidateDescriptor, %function
 1340              	CyDmaValidateDescriptor:
 1341              	.LFB27:
 770:Generated_Source\PSoC4/CyDMA.c **** 
 771:Generated_Source\PSoC4/CyDMA.c **** 
 772:Generated_Source\PSoC4/CyDMA.c **** /*******************************************************************************
 773:Generated_Source\PSoC4/CyDMA.c **** * Function Name: CyDmaValidateDescriptor
 774:Generated_Source\PSoC4/CyDMA.c **** ********************************************************************************
 775:Generated_Source\PSoC4/CyDMA.c **** *
 776:Generated_Source\PSoC4/CyDMA.c **** * Summary:
 777:Generated_Source\PSoC4/CyDMA.c **** *  Validates the specified descriptor after it has been invalidated.
 778:Generated_Source\PSoC4/CyDMA.c **** *
 779:Generated_Source\PSoC4/CyDMA.c **** * Parameters:
 780:Generated_Source\PSoC4/CyDMA.c **** *  channel:    Channel used by this function.
 781:Generated_Source\PSoC4/CyDMA.c **** *  descriptor: Descriptor (0 or 1) modified by this function.
 782:Generated_Source\PSoC4/CyDMA.c **** *                   
 783:Generated_Source\PSoC4/CyDMA.c **** * Return:
 784:Generated_Source\PSoC4/CyDMA.c **** *  None. 
 785:Generated_Source\PSoC4/CyDMA.c **** *
 786:Generated_Source\PSoC4/CyDMA.c **** * Side effect:
 787:Generated_Source\PSoC4/CyDMA.c **** *  The status register associated with the specified descriptor is reset to
 788:Generated_Source\PSoC4/CyDMA.c **** *  zero after this function call.
 789:Generated_Source\PSoC4/CyDMA.c **** *  This function should not be called when the specified descriptor is active
 790:Generated_Source\PSoC4/CyDMA.c **** *  in the DMA transfer engine. This can be checked by calling CyDmaGetStatus().
 791:Generated_Source\PSoC4/CyDMA.c **** *
 792:Generated_Source\PSoC4/CyDMA.c **** *******************************************************************************/
 793:Generated_Source\PSoC4/CyDMA.c **** void CyDmaValidateDescriptor(int32 channel, int32 descriptor)
 794:Generated_Source\PSoC4/CyDMA.c **** {
 1342              		.loc 1 794 0
 1343              		.cfi_startproc
 1344              		@ args = 0, pretend = 0, frame = 0
 1345              		@ frame_needed = 0, uses_anonymous_args = 0
 1346              	.LVL112:
 1347 0000 70B5     		push	{r4, r5, r6, lr}
 1348              		.cfi_def_cfa_offset 16
 1349              		.cfi_offset 4, -16
 1350              		.cfi_offset 5, -12
 1351              		.cfi_offset 6, -8
 1352              		.cfi_offset 14, -4
 1353              		.loc 1 794 0
 1354 0002 0500     		movs	r5, r0
 1355 0004 0C00     		movs	r4, r1
 795:Generated_Source\PSoC4/CyDMA.c ****     CYASSERT((channel    >= 0) && (channel    < CYDMA_CH_NR));
 1356              		.loc 1 795 0
 1357 0006 0728     		cmp	r0, #7
 1358 0008 0ED8     		bhi	.L151
 1359              	.LVL113:
 1360              	.L149:
 796:Generated_Source\PSoC4/CyDMA.c ****     CYASSERT((descriptor >= 0) && (descriptor < CYDMA_DESCR_NR));
 1361              		.loc 1 796 0
 1362 000a 012C     		cmp	r4, #1
 1363 000c 02D9     		bls	.L150
 1364              		.loc 1 796 0 is_stmt 0 discriminator 1
ARM GAS  C:\Users\ilya\AppData\Local\Temp\cchJq1OJ.s 			page 41


 1365 000e 0020     		movs	r0, #0
 1366 0010 FFF7FEFF 		bl	CyHalt
 1367              	.LVL114:
 1368              	.L150:
 797:Generated_Source\PSoC4/CyDMA.c **** 
 798:Generated_Source\PSoC4/CyDMA.c ****     CYDMA_DESCR_BASE.descriptor[channel][descriptor].status = CYDMA_VALID;
 1369              		.loc 1 798 0 is_stmt 1
 1370 0014 064B     		ldr	r3, .L152
 1371 0016 6D00     		lsls	r5, r5, #1
 1372              	.LVL115:
 1373 0018 9C46     		mov	ip, r3
 1374 001a 8023     		movs	r3, #128
 1375 001c 2C19     		adds	r4, r5, r4
 1376              	.LVL116:
 1377 001e 2401     		lsls	r4, r4, #4
 1378 0020 6444     		add	r4, r4, ip
 1379 0022 1B06     		lsls	r3, r3, #24
 1380 0024 E360     		str	r3, [r4, #12]
 799:Generated_Source\PSoC4/CyDMA.c **** }
 1381              		.loc 1 799 0
 1382              		@ sp needed
 1383 0026 70BD     		pop	{r4, r5, r6, pc}
 1384              	.LVL117:
 1385              	.L151:
 795:Generated_Source\PSoC4/CyDMA.c ****     CYASSERT((descriptor >= 0) && (descriptor < CYDMA_DESCR_NR));
 1386              		.loc 1 795 0 discriminator 1
 1387 0028 0020     		movs	r0, #0
 1388              	.LVL118:
 1389 002a FFF7FEFF 		bl	CyHalt
 1390              	.LVL119:
 1391 002e ECE7     		b	.L149
 1392              	.L153:
 1393              		.align	2
 1394              	.L152:
 1395 0030 00181040 		.word	1074796544
 1396              		.cfi_endproc
 1397              	.LFE27:
 1398              		.size	CyDmaValidateDescriptor, .-CyDmaValidateDescriptor
 1399              		.section	.text.CyDmaGetDescriptorStatus,"ax",%progbits
 1400              		.align	2
 1401              		.global	CyDmaGetDescriptorStatus
 1402              		.code	16
 1403              		.thumb_func
 1404              		.type	CyDmaGetDescriptorStatus, %function
 1405              	CyDmaGetDescriptorStatus:
 1406              	.LFB28:
 800:Generated_Source\PSoC4/CyDMA.c **** 
 801:Generated_Source\PSoC4/CyDMA.c **** 
 802:Generated_Source\PSoC4/CyDMA.c **** /*******************************************************************************
 803:Generated_Source\PSoC4/CyDMA.c **** * Function Name: CyDmaGetDescriptorStatus
 804:Generated_Source\PSoC4/CyDMA.c **** ********************************************************************************
 805:Generated_Source\PSoC4/CyDMA.c **** *
 806:Generated_Source\PSoC4/CyDMA.c **** * Summary:
 807:Generated_Source\PSoC4/CyDMA.c **** *  Returns the status of the specified descriptor.
 808:Generated_Source\PSoC4/CyDMA.c **** *
 809:Generated_Source\PSoC4/CyDMA.c **** * Parameters:
 810:Generated_Source\PSoC4/CyDMA.c **** *  channel:    Channel used by this function.
ARM GAS  C:\Users\ilya\AppData\Local\Temp\cchJq1OJ.s 			page 42


 811:Generated_Source\PSoC4/CyDMA.c **** *  descriptor: Descriptor (0 or 1) modified by this function.
 812:Generated_Source\PSoC4/CyDMA.c **** *                   
 813:Generated_Source\PSoC4/CyDMA.c **** * Return:
 814:Generated_Source\PSoC4/CyDMA.c **** *  Returns the contents of the specified descriptors status register. Refer to 
 815:Generated_Source\PSoC4/CyDMA.c **** *  descriptor status register bit definitions in CyDMA_P4.h or the API
 816:Generated_Source\PSoC4/CyDMA.c **** *  description in the DMA channel datasheet for more information.
 817:Generated_Source\PSoC4/CyDMA.c **** *
 818:Generated_Source\PSoC4/CyDMA.c **** *******************************************************************************/
 819:Generated_Source\PSoC4/CyDMA.c **** uint32 CyDmaGetDescriptorStatus(int32 channel, int32 descriptor)
 820:Generated_Source\PSoC4/CyDMA.c **** {
 1407              		.loc 1 820 0
 1408              		.cfi_startproc
 1409              		@ args = 0, pretend = 0, frame = 0
 1410              		@ frame_needed = 0, uses_anonymous_args = 0
 1411              	.LVL120:
 1412 0000 70B5     		push	{r4, r5, r6, lr}
 1413              		.cfi_def_cfa_offset 16
 1414              		.cfi_offset 4, -16
 1415              		.cfi_offset 5, -12
 1416              		.cfi_offset 6, -8
 1417              		.cfi_offset 14, -4
 1418              		.loc 1 820 0
 1419 0002 0500     		movs	r5, r0
 1420 0004 0C00     		movs	r4, r1
 821:Generated_Source\PSoC4/CyDMA.c ****     CYASSERT((channel    >= 0) && (channel    < CYDMA_CH_NR));
 1421              		.loc 1 821 0
 1422 0006 0728     		cmp	r0, #7
 1423 0008 0CD8     		bhi	.L157
 1424              	.LVL121:
 1425              	.L155:
 822:Generated_Source\PSoC4/CyDMA.c ****     CYASSERT((descriptor >= 0) && (descriptor < CYDMA_DESCR_NR));
 1426              		.loc 1 822 0
 1427 000a 012C     		cmp	r4, #1
 1428 000c 02D9     		bls	.L156
 1429              		.loc 1 822 0 is_stmt 0 discriminator 1
 1430 000e 0020     		movs	r0, #0
 1431 0010 FFF7FEFF 		bl	CyHalt
 1432              	.LVL122:
 1433              	.L156:
 823:Generated_Source\PSoC4/CyDMA.c **** 
 824:Generated_Source\PSoC4/CyDMA.c ****     return (CYDMA_DESCR_BASE.descriptor[channel][descriptor].status);
 1434              		.loc 1 824 0 is_stmt 1
 1435 0014 054B     		ldr	r3, .L158
 1436 0016 6D00     		lsls	r5, r5, #1
 1437              	.LVL123:
 1438 0018 9C46     		mov	ip, r3
 1439 001a 2C19     		adds	r4, r5, r4
 1440              	.LVL124:
 1441 001c 2401     		lsls	r4, r4, #4
 1442 001e 6444     		add	r4, r4, ip
 1443 0020 E068     		ldr	r0, [r4, #12]
 825:Generated_Source\PSoC4/CyDMA.c **** }
 1444              		.loc 1 825 0
 1445              		@ sp needed
 1446 0022 70BD     		pop	{r4, r5, r6, pc}
 1447              	.LVL125:
 1448              	.L157:
ARM GAS  C:\Users\ilya\AppData\Local\Temp\cchJq1OJ.s 			page 43


 821:Generated_Source\PSoC4/CyDMA.c ****     CYASSERT((descriptor >= 0) && (descriptor < CYDMA_DESCR_NR));
 1449              		.loc 1 821 0 discriminator 1
 1450 0024 0020     		movs	r0, #0
 1451              	.LVL126:
 1452 0026 FFF7FEFF 		bl	CyHalt
 1453              	.LVL127:
 1454 002a EEE7     		b	.L155
 1455              	.L159:
 1456              		.align	2
 1457              	.L158:
 1458 002c 00181040 		.word	1074796544
 1459              		.cfi_endproc
 1460              	.LFE28:
 1461              		.size	CyDmaGetDescriptorStatus, .-CyDmaGetDescriptorStatus
 1462              		.section	.text.CyDmaSetSrcAddress,"ax",%progbits
 1463              		.align	2
 1464              		.global	CyDmaSetSrcAddress
 1465              		.code	16
 1466              		.thumb_func
 1467              		.type	CyDmaSetSrcAddress, %function
 1468              	CyDmaSetSrcAddress:
 1469              	.LFB29:
 826:Generated_Source\PSoC4/CyDMA.c **** 
 827:Generated_Source\PSoC4/CyDMA.c **** 
 828:Generated_Source\PSoC4/CyDMA.c **** /*******************************************************************************
 829:Generated_Source\PSoC4/CyDMA.c **** * Function Name: CyDmaSetSrcAddress
 830:Generated_Source\PSoC4/CyDMA.c **** ********************************************************************************
 831:Generated_Source\PSoC4/CyDMA.c **** *
 832:Generated_Source\PSoC4/CyDMA.c **** * Summary:
 833:Generated_Source\PSoC4/CyDMA.c **** *  Configures the source address for the specified descriptor.
 834:Generated_Source\PSoC4/CyDMA.c **** *
 835:Generated_Source\PSoC4/CyDMA.c **** * Parameters:
 836:Generated_Source\PSoC4/CyDMA.c **** *  channel:    Channel used by this function.
 837:Generated_Source\PSoC4/CyDMA.c **** *  descriptor: Descriptor (0 or 1) modified by this function.
 838:Generated_Source\PSoC4/CyDMA.c **** *  srcAddress: Address of DMA transfer source.
 839:Generated_Source\PSoC4/CyDMA.c **** *                   
 840:Generated_Source\PSoC4/CyDMA.c **** * Return:
 841:Generated_Source\PSoC4/CyDMA.c **** *  None.
 842:Generated_Source\PSoC4/CyDMA.c **** *
 843:Generated_Source\PSoC4/CyDMA.c **** * Side effect:
 844:Generated_Source\PSoC4/CyDMA.c **** *  This function should not be called when the specified descriptor is active
 845:Generated_Source\PSoC4/CyDMA.c **** *  in the DMA transfer engine. This can be checked by calling CyDmaGetStatus(). 
 846:Generated_Source\PSoC4/CyDMA.c **** *
 847:Generated_Source\PSoC4/CyDMA.c **** *******************************************************************************/
 848:Generated_Source\PSoC4/CyDMA.c **** void CyDmaSetSrcAddress(int32 channel, int32 descriptor, void * srcAddress)
 849:Generated_Source\PSoC4/CyDMA.c **** {
 1470              		.loc 1 849 0
 1471              		.cfi_startproc
 1472              		@ args = 0, pretend = 0, frame = 0
 1473              		@ frame_needed = 0, uses_anonymous_args = 0
 1474              	.LVL128:
 1475 0000 70B5     		push	{r4, r5, r6, lr}
 1476              		.cfi_def_cfa_offset 16
 1477              		.cfi_offset 4, -16
 1478              		.cfi_offset 5, -12
 1479              		.cfi_offset 6, -8
 1480              		.cfi_offset 14, -4
ARM GAS  C:\Users\ilya\AppData\Local\Temp\cchJq1OJ.s 			page 44


 1481              		.loc 1 849 0
 1482 0002 0500     		movs	r5, r0
 1483 0004 0C00     		movs	r4, r1
 1484 0006 1600     		movs	r6, r2
 850:Generated_Source\PSoC4/CyDMA.c ****     CYASSERT((channel    >= 0) && (channel    < CYDMA_CH_NR));
 1485              		.loc 1 850 0
 1486 0008 0728     		cmp	r0, #7
 1487 000a 0AD8     		bhi	.L163
 1488              	.LVL129:
 1489              	.L161:
 851:Generated_Source\PSoC4/CyDMA.c ****     CYASSERT((descriptor >= 0) && (descriptor < CYDMA_DESCR_NR));
 1490              		.loc 1 851 0
 1491 000c 012C     		cmp	r4, #1
 1492 000e 02D9     		bls	.L162
 1493              		.loc 1 851 0 is_stmt 0 discriminator 1
 1494 0010 0020     		movs	r0, #0
 1495 0012 FFF7FEFF 		bl	CyHalt
 1496              	.LVL130:
 1497              	.L162:
 852:Generated_Source\PSoC4/CyDMA.c **** 
 853:Generated_Source\PSoC4/CyDMA.c ****     CYDMA_DESCR_BASE.descriptor[channel][descriptor].src = srcAddress;
 1498              		.loc 1 853 0 is_stmt 1
 1499 0016 6D00     		lsls	r5, r5, #1
 1500              	.LVL131:
 1501 0018 2C19     		adds	r4, r5, r4
 1502              	.LVL132:
 1503 001a 044B     		ldr	r3, .L164
 1504 001c 2401     		lsls	r4, r4, #4
 1505 001e E650     		str	r6, [r4, r3]
 854:Generated_Source\PSoC4/CyDMA.c **** }
 1506              		.loc 1 854 0
 1507              		@ sp needed
 1508              	.LVL133:
 1509 0020 70BD     		pop	{r4, r5, r6, pc}
 1510              	.LVL134:
 1511              	.L163:
 850:Generated_Source\PSoC4/CyDMA.c ****     CYASSERT((descriptor >= 0) && (descriptor < CYDMA_DESCR_NR));
 1512              		.loc 1 850 0 discriminator 1
 1513 0022 0020     		movs	r0, #0
 1514              	.LVL135:
 1515 0024 FFF7FEFF 		bl	CyHalt
 1516              	.LVL136:
 1517 0028 F0E7     		b	.L161
 1518              	.L165:
 1519 002a C046     		.align	2
 1520              	.L164:
 1521 002c 00181040 		.word	1074796544
 1522              		.cfi_endproc
 1523              	.LFE29:
 1524              		.size	CyDmaSetSrcAddress, .-CyDmaSetSrcAddress
 1525              		.section	.text.CyDmaGetSrcAddress,"ax",%progbits
 1526              		.align	2
 1527              		.global	CyDmaGetSrcAddress
 1528              		.code	16
 1529              		.thumb_func
 1530              		.type	CyDmaGetSrcAddress, %function
 1531              	CyDmaGetSrcAddress:
ARM GAS  C:\Users\ilya\AppData\Local\Temp\cchJq1OJ.s 			page 45


 1532              	.LFB30:
 855:Generated_Source\PSoC4/CyDMA.c **** 
 856:Generated_Source\PSoC4/CyDMA.c **** 
 857:Generated_Source\PSoC4/CyDMA.c **** /*******************************************************************************
 858:Generated_Source\PSoC4/CyDMA.c **** * Function Name: CyDmaGetSrcAddress
 859:Generated_Source\PSoC4/CyDMA.c **** ********************************************************************************
 860:Generated_Source\PSoC4/CyDMA.c **** *
 861:Generated_Source\PSoC4/CyDMA.c **** * Summary:
 862:Generated_Source\PSoC4/CyDMA.c **** *  Returns the source address for the specified descriptor, set by 
 863:Generated_Source\PSoC4/CyDMA.c **** *  CyDmaSetSrcAddress().
 864:Generated_Source\PSoC4/CyDMA.c **** *
 865:Generated_Source\PSoC4/CyDMA.c **** * Parameters:
 866:Generated_Source\PSoC4/CyDMA.c **** *  channel:    Channel used by this function.
 867:Generated_Source\PSoC4/CyDMA.c **** *  descriptor: Specifies descriptor (0 or 1) used by this function.
 868:Generated_Source\PSoC4/CyDMA.c **** *                   
 869:Generated_Source\PSoC4/CyDMA.c **** * Return:
 870:Generated_Source\PSoC4/CyDMA.c **** *  Source address written to specified descriptor.
 871:Generated_Source\PSoC4/CyDMA.c **** *
 872:Generated_Source\PSoC4/CyDMA.c **** *******************************************************************************/
 873:Generated_Source\PSoC4/CyDMA.c **** void * CyDmaGetSrcAddress(int32 channel, int32 descriptor)
 874:Generated_Source\PSoC4/CyDMA.c **** {
 1533              		.loc 1 874 0
 1534              		.cfi_startproc
 1535              		@ args = 0, pretend = 0, frame = 0
 1536              		@ frame_needed = 0, uses_anonymous_args = 0
 1537              	.LVL137:
 1538 0000 70B5     		push	{r4, r5, r6, lr}
 1539              		.cfi_def_cfa_offset 16
 1540              		.cfi_offset 4, -16
 1541              		.cfi_offset 5, -12
 1542              		.cfi_offset 6, -8
 1543              		.cfi_offset 14, -4
 1544              		.loc 1 874 0
 1545 0002 0500     		movs	r5, r0
 1546 0004 0C00     		movs	r4, r1
 875:Generated_Source\PSoC4/CyDMA.c ****     CYASSERT((channel    >= 0) && (channel    < CYDMA_CH_NR));
 1547              		.loc 1 875 0
 1548 0006 0728     		cmp	r0, #7
 1549 0008 0AD8     		bhi	.L169
 1550              	.LVL138:
 1551              	.L167:
 876:Generated_Source\PSoC4/CyDMA.c ****     CYASSERT((descriptor >= 0) && (descriptor < CYDMA_DESCR_NR));
 1552              		.loc 1 876 0
 1553 000a 012C     		cmp	r4, #1
 1554 000c 02D9     		bls	.L168
 1555              		.loc 1 876 0 is_stmt 0 discriminator 1
 1556 000e 0020     		movs	r0, #0
 1557 0010 FFF7FEFF 		bl	CyHalt
 1558              	.LVL139:
 1559              	.L168:
 877:Generated_Source\PSoC4/CyDMA.c **** 
 878:Generated_Source\PSoC4/CyDMA.c ****     return (CYDMA_DESCR_BASE.descriptor[channel][descriptor].src);
 1560              		.loc 1 878 0 is_stmt 1
 1561 0014 6D00     		lsls	r5, r5, #1
 1562              	.LVL140:
 1563 0016 2C19     		adds	r4, r5, r4
 1564              	.LVL141:
ARM GAS  C:\Users\ilya\AppData\Local\Temp\cchJq1OJ.s 			page 46


 1565 0018 034B     		ldr	r3, .L170
 1566 001a 2401     		lsls	r4, r4, #4
 1567 001c E058     		ldr	r0, [r4, r3]
 879:Generated_Source\PSoC4/CyDMA.c **** }
 1568              		.loc 1 879 0
 1569              		@ sp needed
 1570 001e 70BD     		pop	{r4, r5, r6, pc}
 1571              	.LVL142:
 1572              	.L169:
 875:Generated_Source\PSoC4/CyDMA.c ****     CYASSERT((descriptor >= 0) && (descriptor < CYDMA_DESCR_NR));
 1573              		.loc 1 875 0 discriminator 1
 1574 0020 0020     		movs	r0, #0
 1575              	.LVL143:
 1576 0022 FFF7FEFF 		bl	CyHalt
 1577              	.LVL144:
 1578 0026 F0E7     		b	.L167
 1579              	.L171:
 1580              		.align	2
 1581              	.L170:
 1582 0028 00181040 		.word	1074796544
 1583              		.cfi_endproc
 1584              	.LFE30:
 1585              		.size	CyDmaGetSrcAddress, .-CyDmaGetSrcAddress
 1586              		.section	.text.CyDmaSetDstAddress,"ax",%progbits
 1587              		.align	2
 1588              		.global	CyDmaSetDstAddress
 1589              		.code	16
 1590              		.thumb_func
 1591              		.type	CyDmaSetDstAddress, %function
 1592              	CyDmaSetDstAddress:
 1593              	.LFB31:
 880:Generated_Source\PSoC4/CyDMA.c **** 
 881:Generated_Source\PSoC4/CyDMA.c **** 
 882:Generated_Source\PSoC4/CyDMA.c **** /*******************************************************************************
 883:Generated_Source\PSoC4/CyDMA.c **** * Function Name: CyDmaSetDstAddress
 884:Generated_Source\PSoC4/CyDMA.c **** ********************************************************************************
 885:Generated_Source\PSoC4/CyDMA.c **** *
 886:Generated_Source\PSoC4/CyDMA.c **** * Summary:
 887:Generated_Source\PSoC4/CyDMA.c **** *  Configures the destination address for the specified descriptor.
 888:Generated_Source\PSoC4/CyDMA.c **** *
 889:Generated_Source\PSoC4/CyDMA.c **** * Parameters:
 890:Generated_Source\PSoC4/CyDMA.c **** *  channel:    Channel used by this function.
 891:Generated_Source\PSoC4/CyDMA.c **** *  descriptor: Descriptor (0 or 1) modified by this function.
 892:Generated_Source\PSoC4/CyDMA.c **** *  dstAddress: Address of DMA transfer destination.
 893:Generated_Source\PSoC4/CyDMA.c **** *                   
 894:Generated_Source\PSoC4/CyDMA.c **** * Return:
 895:Generated_Source\PSoC4/CyDMA.c **** *  None.
 896:Generated_Source\PSoC4/CyDMA.c **** *
 897:Generated_Source\PSoC4/CyDMA.c **** * Side effect:
 898:Generated_Source\PSoC4/CyDMA.c **** *  This function should not be called when the specified descriptor is active
 899:Generated_Source\PSoC4/CyDMA.c **** *  in the DMA transfer engine. This can be checked by calling CyDmaGetStatus(). 
 900:Generated_Source\PSoC4/CyDMA.c **** *
 901:Generated_Source\PSoC4/CyDMA.c **** *******************************************************************************/
 902:Generated_Source\PSoC4/CyDMA.c **** void CyDmaSetDstAddress(int32 channel, int32 descriptor, void * dstAddress)
 903:Generated_Source\PSoC4/CyDMA.c **** {
 1594              		.loc 1 903 0
 1595              		.cfi_startproc
ARM GAS  C:\Users\ilya\AppData\Local\Temp\cchJq1OJ.s 			page 47


 1596              		@ args = 0, pretend = 0, frame = 0
 1597              		@ frame_needed = 0, uses_anonymous_args = 0
 1598              	.LVL145:
 1599 0000 70B5     		push	{r4, r5, r6, lr}
 1600              		.cfi_def_cfa_offset 16
 1601              		.cfi_offset 4, -16
 1602              		.cfi_offset 5, -12
 1603              		.cfi_offset 6, -8
 1604              		.cfi_offset 14, -4
 1605              		.loc 1 903 0
 1606 0002 0500     		movs	r5, r0
 1607 0004 0C00     		movs	r4, r1
 1608 0006 1600     		movs	r6, r2
 904:Generated_Source\PSoC4/CyDMA.c ****     CYASSERT((channel    >= 0) && (channel    < CYDMA_CH_NR));
 1609              		.loc 1 904 0
 1610 0008 0728     		cmp	r0, #7
 1611 000a 0CD8     		bhi	.L175
 1612              	.LVL146:
 1613              	.L173:
 905:Generated_Source\PSoC4/CyDMA.c ****     CYASSERT((descriptor >= 0) && (descriptor < CYDMA_DESCR_NR));
 1614              		.loc 1 905 0
 1615 000c 012C     		cmp	r4, #1
 1616 000e 02D9     		bls	.L174
 1617              		.loc 1 905 0 is_stmt 0 discriminator 1
 1618 0010 0020     		movs	r0, #0
 1619 0012 FFF7FEFF 		bl	CyHalt
 1620              	.LVL147:
 1621              	.L174:
 906:Generated_Source\PSoC4/CyDMA.c **** 
 907:Generated_Source\PSoC4/CyDMA.c ****     CYDMA_DESCR_BASE.descriptor[channel][descriptor].dst = dstAddress;
 1622              		.loc 1 907 0 is_stmt 1
 1623 0016 064B     		ldr	r3, .L176
 1624 0018 6D00     		lsls	r5, r5, #1
 1625              	.LVL148:
 1626 001a 9C46     		mov	ip, r3
 1627 001c 2C19     		adds	r4, r5, r4
 1628              	.LVL149:
 1629 001e 2401     		lsls	r4, r4, #4
 1630 0020 6444     		add	r4, r4, ip
 1631 0022 6660     		str	r6, [r4, #4]
 908:Generated_Source\PSoC4/CyDMA.c **** }
 1632              		.loc 1 908 0
 1633              		@ sp needed
 1634              	.LVL150:
 1635 0024 70BD     		pop	{r4, r5, r6, pc}
 1636              	.LVL151:
 1637              	.L175:
 904:Generated_Source\PSoC4/CyDMA.c ****     CYASSERT((descriptor >= 0) && (descriptor < CYDMA_DESCR_NR));
 1638              		.loc 1 904 0 discriminator 1
 1639 0026 0020     		movs	r0, #0
 1640              	.LVL152:
 1641 0028 FFF7FEFF 		bl	CyHalt
 1642              	.LVL153:
 1643 002c EEE7     		b	.L173
 1644              	.L177:
 1645 002e C046     		.align	2
 1646              	.L176:
ARM GAS  C:\Users\ilya\AppData\Local\Temp\cchJq1OJ.s 			page 48


 1647 0030 00181040 		.word	1074796544
 1648              		.cfi_endproc
 1649              	.LFE31:
 1650              		.size	CyDmaSetDstAddress, .-CyDmaSetDstAddress
 1651              		.section	.text.CyDmaGetDstAddress,"ax",%progbits
 1652              		.align	2
 1653              		.global	CyDmaGetDstAddress
 1654              		.code	16
 1655              		.thumb_func
 1656              		.type	CyDmaGetDstAddress, %function
 1657              	CyDmaGetDstAddress:
 1658              	.LFB32:
 909:Generated_Source\PSoC4/CyDMA.c **** 
 910:Generated_Source\PSoC4/CyDMA.c **** 
 911:Generated_Source\PSoC4/CyDMA.c **** /*******************************************************************************
 912:Generated_Source\PSoC4/CyDMA.c **** * Function Name: CyDmaGetDstAddress
 913:Generated_Source\PSoC4/CyDMA.c **** ********************************************************************************
 914:Generated_Source\PSoC4/CyDMA.c **** *
 915:Generated_Source\PSoC4/CyDMA.c **** * Summary:
 916:Generated_Source\PSoC4/CyDMA.c **** *  Returns the destination address for the specified descriptor, set by 
 917:Generated_Source\PSoC4/CyDMA.c **** *  CyDmaSetDstAddress().
 918:Generated_Source\PSoC4/CyDMA.c **** *
 919:Generated_Source\PSoC4/CyDMA.c **** * Parameters:
 920:Generated_Source\PSoC4/CyDMA.c **** *  channel:    Channel used by this function.
 921:Generated_Source\PSoC4/CyDMA.c **** *  descriptor: Specifies descriptor (0 or 1) used by this function.
 922:Generated_Source\PSoC4/CyDMA.c **** *                   
 923:Generated_Source\PSoC4/CyDMA.c **** * Return:
 924:Generated_Source\PSoC4/CyDMA.c **** *  Destination address written to specified descriptor.
 925:Generated_Source\PSoC4/CyDMA.c **** *
 926:Generated_Source\PSoC4/CyDMA.c **** *******************************************************************************/
 927:Generated_Source\PSoC4/CyDMA.c **** void * CyDmaGetDstAddress(int32 channel, int32 descriptor)
 928:Generated_Source\PSoC4/CyDMA.c **** {
 1659              		.loc 1 928 0
 1660              		.cfi_startproc
 1661              		@ args = 0, pretend = 0, frame = 0
 1662              		@ frame_needed = 0, uses_anonymous_args = 0
 1663              	.LVL154:
 1664 0000 70B5     		push	{r4, r5, r6, lr}
 1665              		.cfi_def_cfa_offset 16
 1666              		.cfi_offset 4, -16
 1667              		.cfi_offset 5, -12
 1668              		.cfi_offset 6, -8
 1669              		.cfi_offset 14, -4
 1670              		.loc 1 928 0
 1671 0002 0500     		movs	r5, r0
 1672 0004 0C00     		movs	r4, r1
 929:Generated_Source\PSoC4/CyDMA.c ****     CYASSERT((channel    >= 0) && (channel    < CYDMA_CH_NR));
 1673              		.loc 1 929 0
 1674 0006 0728     		cmp	r0, #7
 1675 0008 0CD8     		bhi	.L181
 1676              	.LVL155:
 1677              	.L179:
 930:Generated_Source\PSoC4/CyDMA.c ****     CYASSERT((descriptor >= 0) && (descriptor < CYDMA_DESCR_NR));
 1678              		.loc 1 930 0
 1679 000a 012C     		cmp	r4, #1
 1680 000c 02D9     		bls	.L180
 1681              		.loc 1 930 0 is_stmt 0 discriminator 1
ARM GAS  C:\Users\ilya\AppData\Local\Temp\cchJq1OJ.s 			page 49


 1682 000e 0020     		movs	r0, #0
 1683 0010 FFF7FEFF 		bl	CyHalt
 1684              	.LVL156:
 1685              	.L180:
 931:Generated_Source\PSoC4/CyDMA.c **** 
 932:Generated_Source\PSoC4/CyDMA.c ****     return (CYDMA_DESCR_BASE.descriptor[channel][descriptor].dst);
 1686              		.loc 1 932 0 is_stmt 1
 1687 0014 054B     		ldr	r3, .L182
 1688 0016 6D00     		lsls	r5, r5, #1
 1689              	.LVL157:
 1690 0018 9C46     		mov	ip, r3
 1691 001a 2C19     		adds	r4, r5, r4
 1692              	.LVL158:
 1693 001c 2401     		lsls	r4, r4, #4
 1694 001e 6444     		add	r4, r4, ip
 1695 0020 6068     		ldr	r0, [r4, #4]
 933:Generated_Source\PSoC4/CyDMA.c **** }
 1696              		.loc 1 933 0
 1697              		@ sp needed
 1698 0022 70BD     		pop	{r4, r5, r6, pc}
 1699              	.LVL159:
 1700              	.L181:
 929:Generated_Source\PSoC4/CyDMA.c ****     CYASSERT((descriptor >= 0) && (descriptor < CYDMA_DESCR_NR));
 1701              		.loc 1 929 0 discriminator 1
 1702 0024 0020     		movs	r0, #0
 1703              	.LVL160:
 1704 0026 FFF7FEFF 		bl	CyHalt
 1705              	.LVL161:
 1706 002a EEE7     		b	.L179
 1707              	.L183:
 1708              		.align	2
 1709              	.L182:
 1710 002c 00181040 		.word	1074796544
 1711              		.cfi_endproc
 1712              	.LFE32:
 1713              		.size	CyDmaGetDstAddress, .-CyDmaGetDstAddress
 1714              		.section	.text.CyDmaSetDataElementSize,"ax",%progbits
 1715              		.align	2
 1716              		.global	CyDmaSetDataElementSize
 1717              		.code	16
 1718              		.thumb_func
 1719              		.type	CyDmaSetDataElementSize, %function
 1720              	CyDmaSetDataElementSize:
 1721              	.LFB33:
 934:Generated_Source\PSoC4/CyDMA.c **** 
 935:Generated_Source\PSoC4/CyDMA.c **** /*******************************************************************************
 936:Generated_Source\PSoC4/CyDMA.c **** * Function Name: CyDmaSetDataElementSize
 937:Generated_Source\PSoC4/CyDMA.c **** ********************************************************************************
 938:Generated_Source\PSoC4/CyDMA.c **** *
 939:Generated_Source\PSoC4/CyDMA.c **** * Summary:
 940:Generated_Source\PSoC4/CyDMA.c **** *  Sets the data element size for the specified descriptor.
 941:Generated_Source\PSoC4/CyDMA.c **** *
 942:Generated_Source\PSoC4/CyDMA.c **** * Parameters:
 943:Generated_Source\PSoC4/CyDMA.c **** *  channel:         Channel used by this function.
 944:Generated_Source\PSoC4/CyDMA.c **** *  descriptor:      Descriptor (0 or 1) modified by this function.
 945:Generated_Source\PSoC4/CyDMA.c **** *  dataElementSize: Specifies the size of the data element. The DMA transfer
 946:Generated_Source\PSoC4/CyDMA.c **** *                   engine transfers one data element at a time. How these
ARM GAS  C:\Users\ilya\AppData\Local\Temp\cchJq1OJ.s 			page 50


 947:Generated_Source\PSoC4/CyDMA.c **** *                   transfers occur is controlled by the transfer mode.
 948:Generated_Source\PSoC4/CyDMA.c **** *                   Refer to the API bit field definitions in CyDMA_P4.h
 949:Generated_Source\PSoC4/CyDMA.c **** *                   or API description in the DMA channel datasheet for the 
 950:Generated_Source\PSoC4/CyDMA.c **** *                   parameter options.
 951:Generated_Source\PSoC4/CyDMA.c **** *
 952:Generated_Source\PSoC4/CyDMA.c **** * Return:
 953:Generated_Source\PSoC4/CyDMA.c **** *  None.
 954:Generated_Source\PSoC4/CyDMA.c **** *
 955:Generated_Source\PSoC4/CyDMA.c **** * Side effect:
 956:Generated_Source\PSoC4/CyDMA.c **** *  This function should not be called when the specified descriptor is active
 957:Generated_Source\PSoC4/CyDMA.c **** *  in the DMA transfer engine. This can be checked by calling CyDmaGetStatus(). 
 958:Generated_Source\PSoC4/CyDMA.c **** *
 959:Generated_Source\PSoC4/CyDMA.c **** *******************************************************************************/
 960:Generated_Source\PSoC4/CyDMA.c **** void CyDmaSetDataElementSize(int32 channel, int32 descriptor, uint32 dataElementSize)
 961:Generated_Source\PSoC4/CyDMA.c **** {
 1722              		.loc 1 961 0
 1723              		.cfi_startproc
 1724              		@ args = 0, pretend = 0, frame = 0
 1725              		@ frame_needed = 0, uses_anonymous_args = 0
 1726              	.LVL162:
 1727 0000 70B5     		push	{r4, r5, r6, lr}
 1728              		.cfi_def_cfa_offset 16
 1729              		.cfi_offset 4, -16
 1730              		.cfi_offset 5, -12
 1731              		.cfi_offset 6, -8
 1732              		.cfi_offset 14, -4
 1733              		.loc 1 961 0
 1734 0002 0600     		movs	r6, r0
 1735 0004 0C00     		movs	r4, r1
 1736 0006 1500     		movs	r5, r2
 962:Generated_Source\PSoC4/CyDMA.c ****     uint32 regValue;
 963:Generated_Source\PSoC4/CyDMA.c ****     
 964:Generated_Source\PSoC4/CyDMA.c ****     CYASSERT((channel    >= 0) && (channel    < CYDMA_CH_NR));
 1737              		.loc 1 964 0
 1738 0008 0728     		cmp	r0, #7
 1739 000a 16D8     		bhi	.L191
 1740              	.LVL163:
 1741              	.L185:
 965:Generated_Source\PSoC4/CyDMA.c ****     CYASSERT((descriptor >= 0) && (descriptor < CYDMA_DESCR_NR));
 1742              		.loc 1 965 0
 1743 000c 012C     		cmp	r4, #1
 1744 000e 02D9     		bls	.L186
 1745              		.loc 1 965 0 is_stmt 0 discriminator 1
 1746 0010 0020     		movs	r0, #0
 1747 0012 FFF7FEFF 		bl	CyHalt
 1748              	.LVL164:
 1749              	.L186:
 966:Generated_Source\PSoC4/CyDMA.c ****     CYASSERT(0u == (dataElementSize & (uint32)~CYDMA_DATA_SIZE));
 1750              		.loc 1 966 0 is_stmt 1
 1751 0016 0B4B     		ldr	r3, .L192
 1752 0018 1D42     		tst	r5, r3
 1753 001a 02D0     		beq	.L187
 1754              		.loc 1 966 0 is_stmt 0 discriminator 1
 1755 001c 0020     		movs	r0, #0
 1756 001e FFF7FEFF 		bl	CyHalt
 1757              	.LVL165:
 1758              	.L187:
ARM GAS  C:\Users\ilya\AppData\Local\Temp\cchJq1OJ.s 			page 51


 967:Generated_Source\PSoC4/CyDMA.c **** 
 968:Generated_Source\PSoC4/CyDMA.c ****     regValue = CYDMA_DESCR_BASE.descriptor[channel][descriptor].ctl & (uint32)~CYDMA_DATA_SIZE;
 1759              		.loc 1 968 0 is_stmt 1
 1760 0022 094B     		ldr	r3, .L192+4
 1761 0024 7600     		lsls	r6, r6, #1
 1762              	.LVL166:
 1763 0026 9C46     		mov	ip, r3
 1764 0028 3419     		adds	r4, r6, r4
 1765              	.LVL167:
 1766 002a 2401     		lsls	r4, r4, #4
 1767 002c 6444     		add	r4, r4, ip
 1768 002e A268     		ldr	r2, [r4, #8]
 1769              	.LVL168:
 969:Generated_Source\PSoC4/CyDMA.c ****     CYDMA_DESCR_BASE.descriptor[channel][descriptor].ctl = regValue | dataElementSize;
 1770              		.loc 1 969 0
 1771 0030 044B     		ldr	r3, .L192
 970:Generated_Source\PSoC4/CyDMA.c **** }
 1772              		.loc 1 970 0
 1773              		@ sp needed
 969:Generated_Source\PSoC4/CyDMA.c ****     CYDMA_DESCR_BASE.descriptor[channel][descriptor].ctl = regValue | dataElementSize;
 1774              		.loc 1 969 0
 1775 0032 1340     		ands	r3, r2
 1776              	.LVL169:
 1777 0034 1D43     		orrs	r5, r3
 1778              	.LVL170:
 1779 0036 A560     		str	r5, [r4, #8]
 1780              		.loc 1 970 0
 1781 0038 70BD     		pop	{r4, r5, r6, pc}
 1782              	.LVL171:
 1783              	.L191:
 964:Generated_Source\PSoC4/CyDMA.c ****     CYASSERT((descriptor >= 0) && (descriptor < CYDMA_DESCR_NR));
 1784              		.loc 1 964 0 discriminator 1
 1785 003a 0020     		movs	r0, #0
 1786              	.LVL172:
 1787 003c FFF7FEFF 		bl	CyHalt
 1788              	.LVL173:
 1789 0040 E4E7     		b	.L185
 1790              	.L193:
 1791 0042 C046     		.align	2
 1792              	.L192:
 1793 0044 FFFFFCFF 		.word	-196609
 1794 0048 00181040 		.word	1074796544
 1795              		.cfi_endproc
 1796              	.LFE33:
 1797              		.size	CyDmaSetDataElementSize, .-CyDmaSetDataElementSize
 1798              		.section	.text.CyDmaGetDataElementSize,"ax",%progbits
 1799              		.align	2
 1800              		.global	CyDmaGetDataElementSize
 1801              		.code	16
 1802              		.thumb_func
 1803              		.type	CyDmaGetDataElementSize, %function
 1804              	CyDmaGetDataElementSize:
 1805              	.LFB34:
 971:Generated_Source\PSoC4/CyDMA.c **** 
 972:Generated_Source\PSoC4/CyDMA.c **** 
 973:Generated_Source\PSoC4/CyDMA.c **** /*******************************************************************************
 974:Generated_Source\PSoC4/CyDMA.c **** * Function Name: CyDmaGetDataElementSize
ARM GAS  C:\Users\ilya\AppData\Local\Temp\cchJq1OJ.s 			page 52


 975:Generated_Source\PSoC4/CyDMA.c **** ********************************************************************************
 976:Generated_Source\PSoC4/CyDMA.c **** *
 977:Generated_Source\PSoC4/CyDMA.c **** * Summary:
 978:Generated_Source\PSoC4/CyDMA.c **** *  Returns the data element size configured for the specified descriptor, set by
 979:Generated_Source\PSoC4/CyDMA.c **** *  CyDmaSetDataElementSize() or CyDmaSetConfiguration.
 980:Generated_Source\PSoC4/CyDMA.c **** *
 981:Generated_Source\PSoC4/CyDMA.c **** * Parameters:
 982:Generated_Source\PSoC4/CyDMA.c **** *  channel:    Channel used by this function.
 983:Generated_Source\PSoC4/CyDMA.c **** *  descriptor: Descriptor (0 or 1) modified by this function.
 984:Generated_Source\PSoC4/CyDMA.c **** *                   
 985:Generated_Source\PSoC4/CyDMA.c **** * Return:
 986:Generated_Source\PSoC4/CyDMA.c **** *  The size of the data element. The DMA transfer engine transfers one data
 987:Generated_Source\PSoC4/CyDMA.c **** *  element at a time. How these transfers occur is controlled by the transfer
 988:Generated_Source\PSoC4/CyDMA.c **** *  mode. Refer to the API bit field definitions in CyDMA_P4.h or the API 
 989:Generated_Source\PSoC4/CyDMA.c **** *  description in the DMA channel datasheet for more information.
 990:Generated_Source\PSoC4/CyDMA.c **** *
 991:Generated_Source\PSoC4/CyDMA.c **** * Note:
 992:Generated_Source\PSoC4/CyDMA.c **** *  The size of the source and destination can be configured to use the
 993:Generated_Source\PSoC4/CyDMA.c **** *  data element size, or a Word, this is set in CyDmaSetSrcDstTransferWidth().
 994:Generated_Source\PSoC4/CyDMA.c **** *
 995:Generated_Source\PSoC4/CyDMA.c **** *******************************************************************************/
 996:Generated_Source\PSoC4/CyDMA.c **** uint32 CyDmaGetDataElementSize(int32 channel, int32 descriptor)
 997:Generated_Source\PSoC4/CyDMA.c **** {
 1806              		.loc 1 997 0
 1807              		.cfi_startproc
 1808              		@ args = 0, pretend = 0, frame = 0
 1809              		@ frame_needed = 0, uses_anonymous_args = 0
 1810              	.LVL174:
 1811 0000 70B5     		push	{r4, r5, r6, lr}
 1812              		.cfi_def_cfa_offset 16
 1813              		.cfi_offset 4, -16
 1814              		.cfi_offset 5, -12
 1815              		.cfi_offset 6, -8
 1816              		.cfi_offset 14, -4
 1817              		.loc 1 997 0
 1818 0002 0500     		movs	r5, r0
 1819 0004 0C00     		movs	r4, r1
 998:Generated_Source\PSoC4/CyDMA.c ****     CYASSERT((channel    >= 0) && (channel    < CYDMA_CH_NR));
 1820              		.loc 1 998 0
 1821 0006 0728     		cmp	r0, #7
 1822 0008 0FD8     		bhi	.L197
 1823              	.LVL175:
 1824              	.L195:
 999:Generated_Source\PSoC4/CyDMA.c ****     CYASSERT((descriptor >= 0) && (descriptor < CYDMA_DESCR_NR));
 1825              		.loc 1 999 0
 1826 000a 012C     		cmp	r4, #1
 1827 000c 02D9     		bls	.L196
 1828              		.loc 1 999 0 is_stmt 0 discriminator 1
 1829 000e 0020     		movs	r0, #0
 1830 0010 FFF7FEFF 		bl	CyHalt
 1831              	.LVL176:
 1832              	.L196:
1000:Generated_Source\PSoC4/CyDMA.c **** 
1001:Generated_Source\PSoC4/CyDMA.c ****     return (CYDMA_DESCR_BASE.descriptor[channel][descriptor].ctl & CYDMA_DATA_SIZE);
 1833              		.loc 1 1001 0 is_stmt 1
 1834 0014 074B     		ldr	r3, .L198
 1835 0016 6D00     		lsls	r5, r5, #1
ARM GAS  C:\Users\ilya\AppData\Local\Temp\cchJq1OJ.s 			page 53


 1836              	.LVL177:
 1837 0018 9C46     		mov	ip, r3
 1838 001a C023     		movs	r3, #192
 1839 001c 2C19     		adds	r4, r5, r4
 1840              	.LVL178:
 1841 001e 2401     		lsls	r4, r4, #4
 1842 0020 6444     		add	r4, r4, ip
 1843 0022 A068     		ldr	r0, [r4, #8]
 1844 0024 9B02     		lsls	r3, r3, #10
 1845 0026 1840     		ands	r0, r3
1002:Generated_Source\PSoC4/CyDMA.c **** }
 1846              		.loc 1 1002 0
 1847              		@ sp needed
 1848 0028 70BD     		pop	{r4, r5, r6, pc}
 1849              	.LVL179:
 1850              	.L197:
 998:Generated_Source\PSoC4/CyDMA.c ****     CYASSERT((descriptor >= 0) && (descriptor < CYDMA_DESCR_NR));
 1851              		.loc 1 998 0 discriminator 1
 1852 002a 0020     		movs	r0, #0
 1853              	.LVL180:
 1854 002c FFF7FEFF 		bl	CyHalt
 1855              	.LVL181:
 1856 0030 EBE7     		b	.L195
 1857              	.L199:
 1858 0032 C046     		.align	2
 1859              	.L198:
 1860 0034 00181040 		.word	1074796544
 1861              		.cfi_endproc
 1862              	.LFE34:
 1863              		.size	CyDmaGetDataElementSize, .-CyDmaGetDataElementSize
 1864              		.section	.text.CyDmaSetNumDataElements,"ax",%progbits
 1865              		.align	2
 1866              		.global	CyDmaSetNumDataElements
 1867              		.code	16
 1868              		.thumb_func
 1869              		.type	CyDmaSetNumDataElements, %function
 1870              	CyDmaSetNumDataElements:
 1871              	.LFB35:
1003:Generated_Source\PSoC4/CyDMA.c **** 
1004:Generated_Source\PSoC4/CyDMA.c **** 
1005:Generated_Source\PSoC4/CyDMA.c **** /*******************************************************************************
1006:Generated_Source\PSoC4/CyDMA.c **** * Function Name: CyDmaSetNumDataElements
1007:Generated_Source\PSoC4/CyDMA.c **** ********************************************************************************
1008:Generated_Source\PSoC4/CyDMA.c **** *
1009:Generated_Source\PSoC4/CyDMA.c **** * Summary:
1010:Generated_Source\PSoC4/CyDMA.c **** *  Sets the number of data elements to transfer for specified descriptor.
1011:Generated_Source\PSoC4/CyDMA.c **** *
1012:Generated_Source\PSoC4/CyDMA.c **** * Parameters:
1013:Generated_Source\PSoC4/CyDMA.c **** *  channel:         Channel used by this function.
1014:Generated_Source\PSoC4/CyDMA.c **** *  descriptor:      Descriptor (0 or 1) modified by this function.
1015:Generated_Source\PSoC4/CyDMA.c **** *  numDataElements: Total number of data elements this descriptor transfers.
1016:Generated_Source\PSoC4/CyDMA.c **** *                   Valid ranges are 1 to 65536.
1017:Generated_Source\PSoC4/CyDMA.c **** *                   
1018:Generated_Source\PSoC4/CyDMA.c **** * Return:
1019:Generated_Source\PSoC4/CyDMA.c **** *  None.
1020:Generated_Source\PSoC4/CyDMA.c **** *
1021:Generated_Source\PSoC4/CyDMA.c **** * Side effect:
ARM GAS  C:\Users\ilya\AppData\Local\Temp\cchJq1OJ.s 			page 54


1022:Generated_Source\PSoC4/CyDMA.c **** *  This function should not be called when the specified descriptor is active
1023:Generated_Source\PSoC4/CyDMA.c **** *  in the DMA transfer engine. This can be checked by calling CyDmaGetStatus(). 
1024:Generated_Source\PSoC4/CyDMA.c **** *
1025:Generated_Source\PSoC4/CyDMA.c **** *******************************************************************************/
1026:Generated_Source\PSoC4/CyDMA.c **** void CyDmaSetNumDataElements(int32 channel, int32 descriptor, int32 numDataElements)
1027:Generated_Source\PSoC4/CyDMA.c **** {
 1872              		.loc 1 1027 0
 1873              		.cfi_startproc
 1874              		@ args = 0, pretend = 0, frame = 0
 1875              		@ frame_needed = 0, uses_anonymous_args = 0
 1876              	.LVL182:
 1877 0000 70B5     		push	{r4, r5, r6, lr}
 1878              		.cfi_def_cfa_offset 16
 1879              		.cfi_offset 4, -16
 1880              		.cfi_offset 5, -12
 1881              		.cfi_offset 6, -8
 1882              		.cfi_offset 14, -4
 1883              		.loc 1 1027 0
 1884 0002 0600     		movs	r6, r0
 1885 0004 0C00     		movs	r4, r1
 1886 0006 1500     		movs	r5, r2
1028:Generated_Source\PSoC4/CyDMA.c ****     uint32 regValue;
1029:Generated_Source\PSoC4/CyDMA.c ****     
1030:Generated_Source\PSoC4/CyDMA.c ****     CYASSERT((channel        >= 0) && (channel         <  CYDMA_CH_NR));
 1887              		.loc 1 1030 0
 1888 0008 0728     		cmp	r0, #7
 1889 000a 17D8     		bhi	.L204
 1890              	.LVL183:
 1891              	.L201:
1031:Generated_Source\PSoC4/CyDMA.c ****     CYASSERT((descriptor     >= 0) && (descriptor      <  CYDMA_DESCR_NR));
 1892              		.loc 1 1031 0
 1893 000c 012C     		cmp	r4, #1
 1894 000e 02D9     		bls	.L202
 1895              		.loc 1 1031 0 is_stmt 0 discriminator 1
 1896 0010 0020     		movs	r0, #0
 1897 0012 FFF7FEFF 		bl	CyHalt
 1898              	.LVL184:
 1899              	.L202:
1032:Generated_Source\PSoC4/CyDMA.c ****     CYASSERT((numDataElements > 0) && (numDataElements <= CYDMA_MAX_DATA_NR));
 1900              		.loc 1 1032 0 is_stmt 1
 1901 0016 0B4B     		ldr	r3, .L205
 1902 0018 013D     		subs	r5, r5, #1
 1903              	.LVL185:
 1904 001a 9D42     		cmp	r5, r3
 1905 001c 02D9     		bls	.L203
 1906              		.loc 1 1032 0 is_stmt 0 discriminator 1
 1907 001e 0020     		movs	r0, #0
 1908 0020 FFF7FEFF 		bl	CyHalt
 1909              	.LVL186:
 1910              	.L203:
1033:Generated_Source\PSoC4/CyDMA.c ****     
1034:Generated_Source\PSoC4/CyDMA.c ****     --numDataElements;
1035:Generated_Source\PSoC4/CyDMA.c ****     regValue = CYDMA_DESCR_BASE.descriptor[channel][descriptor].ctl & (uint32)~CYDMA_DATA_NR;
 1911              		.loc 1 1035 0 is_stmt 1
 1912 0024 084B     		ldr	r3, .L205+4
 1913 0026 7600     		lsls	r6, r6, #1
 1914              	.LVL187:
ARM GAS  C:\Users\ilya\AppData\Local\Temp\cchJq1OJ.s 			page 55


 1915 0028 9C46     		mov	ip, r3
 1916 002a 3419     		adds	r4, r6, r4
 1917              	.LVL188:
 1918 002c 2401     		lsls	r4, r4, #4
 1919 002e 6444     		add	r4, r4, ip
 1920 0030 A368     		ldr	r3, [r4, #8]
 1921              	.LVL189:
1036:Generated_Source\PSoC4/CyDMA.c ****     CYDMA_DESCR_BASE.descriptor[channel][descriptor].ctl = regValue | (uint32)numDataElements;
1037:Generated_Source\PSoC4/CyDMA.c **** }
 1922              		.loc 1 1037 0
 1923              		@ sp needed
1036:Generated_Source\PSoC4/CyDMA.c ****     CYDMA_DESCR_BASE.descriptor[channel][descriptor].ctl = regValue | (uint32)numDataElements;
 1924              		.loc 1 1036 0
 1925 0032 1B0C     		lsrs	r3, r3, #16
 1926              	.LVL190:
 1927 0034 1B04     		lsls	r3, r3, #16
 1928 0036 1D43     		orrs	r5, r3
 1929              	.LVL191:
 1930 0038 A560     		str	r5, [r4, #8]
 1931              		.loc 1 1037 0
 1932 003a 70BD     		pop	{r4, r5, r6, pc}
 1933              	.LVL192:
 1934              	.L204:
1030:Generated_Source\PSoC4/CyDMA.c ****     CYASSERT((descriptor     >= 0) && (descriptor      <  CYDMA_DESCR_NR));
 1935              		.loc 1 1030 0 discriminator 1
 1936 003c 0020     		movs	r0, #0
 1937              	.LVL193:
 1938 003e FFF7FEFF 		bl	CyHalt
 1939              	.LVL194:
 1940 0042 E3E7     		b	.L201
 1941              	.L206:
 1942              		.align	2
 1943              	.L205:
 1944 0044 FFFF0000 		.word	65535
 1945 0048 00181040 		.word	1074796544
 1946              		.cfi_endproc
 1947              	.LFE35:
 1948              		.size	CyDmaSetNumDataElements, .-CyDmaSetNumDataElements
 1949              		.section	.text.CyDmaGetNumDataElements,"ax",%progbits
 1950              		.align	2
 1951              		.global	CyDmaGetNumDataElements
 1952              		.code	16
 1953              		.thumb_func
 1954              		.type	CyDmaGetNumDataElements, %function
 1955              	CyDmaGetNumDataElements:
 1956              	.LFB36:
1038:Generated_Source\PSoC4/CyDMA.c **** 
1039:Generated_Source\PSoC4/CyDMA.c **** 
1040:Generated_Source\PSoC4/CyDMA.c **** /*******************************************************************************
1041:Generated_Source\PSoC4/CyDMA.c **** * Function Name: CyDmaGetNumDataElements
1042:Generated_Source\PSoC4/CyDMA.c **** ********************************************************************************
1043:Generated_Source\PSoC4/CyDMA.c **** *
1044:Generated_Source\PSoC4/CyDMA.c **** * Summary:
1045:Generated_Source\PSoC4/CyDMA.c **** *  Returns the number of data elements to be transferred. Only reflects the
1046:Generated_Source\PSoC4/CyDMA.c **** *  value written by CyDmaSetNumDataElements() or CyDmaSetConfiguration(). This
1047:Generated_Source\PSoC4/CyDMA.c **** *  does not reflect how many elements have been transferred. For that
1048:Generated_Source\PSoC4/CyDMA.c **** *  information use the CyDmaGetDescriptorStatus() function.
ARM GAS  C:\Users\ilya\AppData\Local\Temp\cchJq1OJ.s 			page 56


1049:Generated_Source\PSoC4/CyDMA.c **** *
1050:Generated_Source\PSoC4/CyDMA.c **** * Parameters:
1051:Generated_Source\PSoC4/CyDMA.c **** *  channel:    Channel used by this function.
1052:Generated_Source\PSoC4/CyDMA.c **** *  descriptor: Descriptor (0 or 1) modified by this function.
1053:Generated_Source\PSoC4/CyDMA.c **** *                   
1054:Generated_Source\PSoC4/CyDMA.c **** * Return:
1055:Generated_Source\PSoC4/CyDMA.c **** *  Number of data elements to transfer.
1056:Generated_Source\PSoC4/CyDMA.c **** *
1057:Generated_Source\PSoC4/CyDMA.c **** *******************************************************************************/
1058:Generated_Source\PSoC4/CyDMA.c **** int32 CyDmaGetNumDataElements(int32 channel, int32 descriptor)
1059:Generated_Source\PSoC4/CyDMA.c **** {
 1957              		.loc 1 1059 0
 1958              		.cfi_startproc
 1959              		@ args = 0, pretend = 0, frame = 0
 1960              		@ frame_needed = 0, uses_anonymous_args = 0
 1961              	.LVL195:
 1962 0000 70B5     		push	{r4, r5, r6, lr}
 1963              		.cfi_def_cfa_offset 16
 1964              		.cfi_offset 4, -16
 1965              		.cfi_offset 5, -12
 1966              		.cfi_offset 6, -8
 1967              		.cfi_offset 14, -4
 1968              		.loc 1 1059 0
 1969 0002 0500     		movs	r5, r0
 1970 0004 0C00     		movs	r4, r1
1060:Generated_Source\PSoC4/CyDMA.c ****     uint32 numElements;
1061:Generated_Source\PSoC4/CyDMA.c **** 
1062:Generated_Source\PSoC4/CyDMA.c ****     CYASSERT((channel    >= 0) && (channel    < CYDMA_CH_NR));
 1971              		.loc 1 1062 0
 1972 0006 0728     		cmp	r0, #7
 1973 0008 0FD8     		bhi	.L210
 1974              	.LVL196:
 1975              	.L208:
1063:Generated_Source\PSoC4/CyDMA.c ****     CYASSERT((descriptor >= 0) && (descriptor < CYDMA_DESCR_NR));
 1976              		.loc 1 1063 0
 1977 000a 012C     		cmp	r4, #1
 1978 000c 02D9     		bls	.L209
 1979              		.loc 1 1063 0 is_stmt 0 discriminator 1
 1980 000e 0020     		movs	r0, #0
 1981 0010 FFF7FEFF 		bl	CyHalt
 1982              	.LVL197:
 1983              	.L209:
1064:Generated_Source\PSoC4/CyDMA.c ****     
1065:Generated_Source\PSoC4/CyDMA.c ****     numElements = (CYDMA_DESCR_BASE.descriptor[channel][descriptor].ctl & CYDMA_DATA_NR) + 1u;
 1984              		.loc 1 1065 0 is_stmt 1
 1985 0014 074B     		ldr	r3, .L211
 1986 0016 6D00     		lsls	r5, r5, #1
 1987              	.LVL198:
 1988 0018 9C46     		mov	ip, r3
 1989 001a 2C19     		adds	r4, r5, r4
 1990              	.LVL199:
 1991 001c 2401     		lsls	r4, r4, #4
 1992 001e 6444     		add	r4, r4, ip
 1993 0020 A068     		ldr	r0, [r4, #8]
 1994              	.LVL200:
1066:Generated_Source\PSoC4/CyDMA.c ****     return ((int32)numElements);
1067:Generated_Source\PSoC4/CyDMA.c **** }
ARM GAS  C:\Users\ilya\AppData\Local\Temp\cchJq1OJ.s 			page 57


 1995              		.loc 1 1067 0
 1996              		@ sp needed
1066:Generated_Source\PSoC4/CyDMA.c ****     return ((int32)numElements);
 1997              		.loc 1 1066 0
 1998 0022 0004     		lsls	r0, r0, #16
 1999              	.LVL201:
 2000 0024 000C     		lsrs	r0, r0, #16
 2001 0026 0130     		adds	r0, r0, #1
 2002              		.loc 1 1067 0
 2003 0028 70BD     		pop	{r4, r5, r6, pc}
 2004              	.LVL202:
 2005              	.L210:
1062:Generated_Source\PSoC4/CyDMA.c ****     CYASSERT((descriptor >= 0) && (descriptor < CYDMA_DESCR_NR));
 2006              		.loc 1 1062 0 discriminator 1
 2007 002a 0020     		movs	r0, #0
 2008              	.LVL203:
 2009 002c FFF7FEFF 		bl	CyHalt
 2010              	.LVL204:
 2011 0030 EBE7     		b	.L208
 2012              	.L212:
 2013 0032 C046     		.align	2
 2014              	.L211:
 2015 0034 00181040 		.word	1074796544
 2016              		.cfi_endproc
 2017              	.LFE36:
 2018              		.size	CyDmaGetNumDataElements, .-CyDmaGetNumDataElements
 2019              		.section	.text.CyDmaSetSrcDstTransferWidth,"ax",%progbits
 2020              		.align	2
 2021              		.global	CyDmaSetSrcDstTransferWidth
 2022              		.code	16
 2023              		.thumb_func
 2024              		.type	CyDmaSetSrcDstTransferWidth, %function
 2025              	CyDmaSetSrcDstTransferWidth:
 2026              	.LFB37:
1068:Generated_Source\PSoC4/CyDMA.c **** 
1069:Generated_Source\PSoC4/CyDMA.c **** 
1070:Generated_Source\PSoC4/CyDMA.c **** /*******************************************************************************
1071:Generated_Source\PSoC4/CyDMA.c **** * Function Name: CyDmaSetSrcDstTransferWidth
1072:Generated_Source\PSoC4/CyDMA.c **** ********************************************************************************
1073:Generated_Source\PSoC4/CyDMA.c **** *
1074:Generated_Source\PSoC4/CyDMA.c **** * Summary:
1075:Generated_Source\PSoC4/CyDMA.c **** *  Sets the width of the source and destination. The DMA can either read and
1076:Generated_Source\PSoC4/CyDMA.c **** *  write data from the source and destination at the size specified by
1077:Generated_Source\PSoC4/CyDMA.c **** *  CyDmaSetDataElementSize() or by a word (4bytes). This also determines how
1078:Generated_Source\PSoC4/CyDMA.c **** *  many bytes the addresses are incremented if increment source and destination
1079:Generated_Source\PSoC4/CyDMA.c **** *  address are turned on.
1080:Generated_Source\PSoC4/CyDMA.c **** *
1081:Generated_Source\PSoC4/CyDMA.c **** * Parameters:
1082:Generated_Source\PSoC4/CyDMA.c **** *  channel:       Channel used by this function.
1083:Generated_Source\PSoC4/CyDMA.c **** *  descriptor:    Descriptor (0 or 1) modified by this function.
1084:Generated_Source\PSoC4/CyDMA.c **** *  transferWidth: Specifies the source and destination widths. Refer to 
1085:Generated_Source\PSoC4/CyDMA.c **** *                 the API bit field definitions in CyDMA_P4.h or the API
1086:Generated_Source\PSoC4/CyDMA.c **** *                 description in the DMA channel datasheet for the parameter
1087:Generated_Source\PSoC4/CyDMA.c **** *                 options.
1088:Generated_Source\PSoC4/CyDMA.c **** *                   
1089:Generated_Source\PSoC4/CyDMA.c **** * Return:
1090:Generated_Source\PSoC4/CyDMA.c **** *  None.
ARM GAS  C:\Users\ilya\AppData\Local\Temp\cchJq1OJ.s 			page 58


1091:Generated_Source\PSoC4/CyDMA.c **** *
1092:Generated_Source\PSoC4/CyDMA.c **** * Side effect:
1093:Generated_Source\PSoC4/CyDMA.c **** *  This function should not be called when the specified descriptor is active
1094:Generated_Source\PSoC4/CyDMA.c **** *  in the DMA transfer engine. This can be checked by calling CyDmaGetStatus(). 
1095:Generated_Source\PSoC4/CyDMA.c **** *
1096:Generated_Source\PSoC4/CyDMA.c **** *******************************************************************************/
1097:Generated_Source\PSoC4/CyDMA.c **** void CyDmaSetSrcDstTransferWidth(int32 channel, int32 descriptor, uint32 transferWidth)
1098:Generated_Source\PSoC4/CyDMA.c **** {
 2027              		.loc 1 1098 0
 2028              		.cfi_startproc
 2029              		@ args = 0, pretend = 0, frame = 0
 2030              		@ frame_needed = 0, uses_anonymous_args = 0
 2031              	.LVL205:
 2032 0000 70B5     		push	{r4, r5, r6, lr}
 2033              		.cfi_def_cfa_offset 16
 2034              		.cfi_offset 4, -16
 2035              		.cfi_offset 5, -12
 2036              		.cfi_offset 6, -8
 2037              		.cfi_offset 14, -4
 2038              		.loc 1 1098 0
 2039 0002 0600     		movs	r6, r0
 2040 0004 0C00     		movs	r4, r1
 2041 0006 1500     		movs	r5, r2
1099:Generated_Source\PSoC4/CyDMA.c ****     uint32 regValue;
1100:Generated_Source\PSoC4/CyDMA.c **** 
1101:Generated_Source\PSoC4/CyDMA.c ****     CYASSERT((channel    >= 0) && (channel    < CYDMA_CH_NR));
 2042              		.loc 1 1101 0
 2043 0008 0728     		cmp	r0, #7
 2044 000a 16D8     		bhi	.L220
 2045              	.LVL206:
 2046              	.L214:
1102:Generated_Source\PSoC4/CyDMA.c ****     CYASSERT((descriptor >= 0) && (descriptor < CYDMA_DESCR_NR));
 2047              		.loc 1 1102 0
 2048 000c 012C     		cmp	r4, #1
 2049 000e 02D9     		bls	.L215
 2050              		.loc 1 1102 0 is_stmt 0 discriminator 1
 2051 0010 0020     		movs	r0, #0
 2052 0012 FFF7FEFF 		bl	CyHalt
 2053              	.LVL207:
 2054              	.L215:
1103:Generated_Source\PSoC4/CyDMA.c ****     CYASSERT(0u == (transferWidth & (uint32)~CYDMA_TRANSFER_WIDTH));
 2055              		.loc 1 1103 0 is_stmt 1
 2056 0016 0B4B     		ldr	r3, .L221
 2057 0018 1D42     		tst	r5, r3
 2058 001a 02D0     		beq	.L216
 2059              		.loc 1 1103 0 is_stmt 0 discriminator 1
 2060 001c 0020     		movs	r0, #0
 2061 001e FFF7FEFF 		bl	CyHalt
 2062              	.LVL208:
 2063              	.L216:
1104:Generated_Source\PSoC4/CyDMA.c **** 
1105:Generated_Source\PSoC4/CyDMA.c ****     regValue = CYDMA_DESCR_BASE.descriptor[channel][descriptor].ctl & (uint32)~CYDMA_TRANSFER_WIDTH
 2064              		.loc 1 1105 0 is_stmt 1
 2065 0022 094B     		ldr	r3, .L221+4
 2066 0024 7600     		lsls	r6, r6, #1
 2067              	.LVL209:
 2068 0026 9C46     		mov	ip, r3
ARM GAS  C:\Users\ilya\AppData\Local\Temp\cchJq1OJ.s 			page 59


 2069 0028 3419     		adds	r4, r6, r4
 2070              	.LVL210:
 2071 002a 2401     		lsls	r4, r4, #4
 2072 002c 6444     		add	r4, r4, ip
 2073 002e A268     		ldr	r2, [r4, #8]
 2074              	.LVL211:
1106:Generated_Source\PSoC4/CyDMA.c ****     CYDMA_DESCR_BASE.descriptor[channel][descriptor].ctl = regValue | transferWidth;
 2075              		.loc 1 1106 0
 2076 0030 044B     		ldr	r3, .L221
1107:Generated_Source\PSoC4/CyDMA.c **** }
 2077              		.loc 1 1107 0
 2078              		@ sp needed
1106:Generated_Source\PSoC4/CyDMA.c ****     CYDMA_DESCR_BASE.descriptor[channel][descriptor].ctl = regValue | transferWidth;
 2079              		.loc 1 1106 0
 2080 0032 1340     		ands	r3, r2
 2081              	.LVL212:
 2082 0034 1D43     		orrs	r5, r3
 2083              	.LVL213:
 2084 0036 A560     		str	r5, [r4, #8]
 2085              		.loc 1 1107 0
 2086 0038 70BD     		pop	{r4, r5, r6, pc}
 2087              	.LVL214:
 2088              	.L220:
1101:Generated_Source\PSoC4/CyDMA.c ****     CYASSERT((descriptor >= 0) && (descriptor < CYDMA_DESCR_NR));
 2089              		.loc 1 1101 0 discriminator 1
 2090 003a 0020     		movs	r0, #0
 2091              	.LVL215:
 2092 003c FFF7FEFF 		bl	CyHalt
 2093              	.LVL216:
 2094 0040 E4E7     		b	.L214
 2095              	.L222:
 2096 0042 C046     		.align	2
 2097              	.L221:
 2098 0044 FFFFAFFF 		.word	-5242881
 2099 0048 00181040 		.word	1074796544
 2100              		.cfi_endproc
 2101              	.LFE37:
 2102              		.size	CyDmaSetSrcDstTransferWidth, .-CyDmaSetSrcDstTransferWidth
 2103              		.section	.text.CyDmaGetSrcDstTransferWidth,"ax",%progbits
 2104              		.align	2
 2105              		.global	CyDmaGetSrcDstTransferWidth
 2106              		.code	16
 2107              		.thumb_func
 2108              		.type	CyDmaGetSrcDstTransferWidth, %function
 2109              	CyDmaGetSrcDstTransferWidth:
 2110              	.LFB38:
1108:Generated_Source\PSoC4/CyDMA.c **** 
1109:Generated_Source\PSoC4/CyDMA.c **** 
1110:Generated_Source\PSoC4/CyDMA.c **** /*******************************************************************************
1111:Generated_Source\PSoC4/CyDMA.c **** * Function Name: CyDmaGetSrcDstTransferWidth
1112:Generated_Source\PSoC4/CyDMA.c **** ********************************************************************************
1113:Generated_Source\PSoC4/CyDMA.c **** *
1114:Generated_Source\PSoC4/CyDMA.c **** * Summary:
1115:Generated_Source\PSoC4/CyDMA.c **** *  Returns the width of the source and destination, as set by 
1116:Generated_Source\PSoC4/CyDMA.c **** *  CyDmaSetSrcDstTransferWidth() or CyDmaSetConfiguration().
1117:Generated_Source\PSoC4/CyDMA.c **** *
1118:Generated_Source\PSoC4/CyDMA.c **** * Parameters:
ARM GAS  C:\Users\ilya\AppData\Local\Temp\cchJq1OJ.s 			page 60


1119:Generated_Source\PSoC4/CyDMA.c **** *  channel:    Channel used by this function.
1120:Generated_Source\PSoC4/CyDMA.c **** *  descriptor: Descriptor (0 or 1) modified by this function.
1121:Generated_Source\PSoC4/CyDMA.c **** *                   
1122:Generated_Source\PSoC4/CyDMA.c **** * Return:
1123:Generated_Source\PSoC4/CyDMA.c **** *  Width of source and destination. Refer to the API bit field definitions in
1124:Generated_Source\PSoC4/CyDMA.c **** *  CyDMA_P4.h or the API description in the DMA channel datasheet for more
1125:Generated_Source\PSoC4/CyDMA.c **** *  information.
1126:Generated_Source\PSoC4/CyDMA.c **** *
1127:Generated_Source\PSoC4/CyDMA.c **** *******************************************************************************/
1128:Generated_Source\PSoC4/CyDMA.c **** uint32 CyDmaGetSrcDstTransferWidth(int32 channel, int32 descriptor)
1129:Generated_Source\PSoC4/CyDMA.c **** {
 2111              		.loc 1 1129 0
 2112              		.cfi_startproc
 2113              		@ args = 0, pretend = 0, frame = 0
 2114              		@ frame_needed = 0, uses_anonymous_args = 0
 2115              	.LVL217:
 2116 0000 70B5     		push	{r4, r5, r6, lr}
 2117              		.cfi_def_cfa_offset 16
 2118              		.cfi_offset 4, -16
 2119              		.cfi_offset 5, -12
 2120              		.cfi_offset 6, -8
 2121              		.cfi_offset 14, -4
 2122              		.loc 1 1129 0
 2123 0002 0500     		movs	r5, r0
 2124 0004 0C00     		movs	r4, r1
1130:Generated_Source\PSoC4/CyDMA.c ****     CYASSERT((channel    >= 0) && (channel    < CYDMA_CH_NR));
 2125              		.loc 1 1130 0
 2126 0006 0728     		cmp	r0, #7
 2127 0008 0FD8     		bhi	.L226
 2128              	.LVL218:
 2129              	.L224:
1131:Generated_Source\PSoC4/CyDMA.c ****     CYASSERT((descriptor >= 0) && (descriptor < CYDMA_DESCR_NR));
 2130              		.loc 1 1131 0
 2131 000a 012C     		cmp	r4, #1
 2132 000c 02D9     		bls	.L225
 2133              		.loc 1 1131 0 is_stmt 0 discriminator 1
 2134 000e 0020     		movs	r0, #0
 2135 0010 FFF7FEFF 		bl	CyHalt
 2136              	.LVL219:
 2137              	.L225:
1132:Generated_Source\PSoC4/CyDMA.c ****     return (CYDMA_DESCR_BASE.descriptor[channel][descriptor].ctl & CYDMA_TRANSFER_WIDTH);
 2138              		.loc 1 1132 0 is_stmt 1
 2139 0014 074B     		ldr	r3, .L227
 2140 0016 6D00     		lsls	r5, r5, #1
 2141              	.LVL220:
 2142 0018 9C46     		mov	ip, r3
 2143 001a A023     		movs	r3, #160
 2144 001c 2C19     		adds	r4, r5, r4
 2145              	.LVL221:
 2146 001e 2401     		lsls	r4, r4, #4
 2147 0020 6444     		add	r4, r4, ip
 2148 0022 A068     		ldr	r0, [r4, #8]
 2149 0024 DB03     		lsls	r3, r3, #15
 2150 0026 1840     		ands	r0, r3
1133:Generated_Source\PSoC4/CyDMA.c **** }
 2151              		.loc 1 1133 0
 2152              		@ sp needed
ARM GAS  C:\Users\ilya\AppData\Local\Temp\cchJq1OJ.s 			page 61


 2153 0028 70BD     		pop	{r4, r5, r6, pc}
 2154              	.LVL222:
 2155              	.L226:
1130:Generated_Source\PSoC4/CyDMA.c ****     CYASSERT((descriptor >= 0) && (descriptor < CYDMA_DESCR_NR));
 2156              		.loc 1 1130 0 discriminator 1
 2157 002a 0020     		movs	r0, #0
 2158              	.LVL223:
 2159 002c FFF7FEFF 		bl	CyHalt
 2160              	.LVL224:
 2161 0030 EBE7     		b	.L224
 2162              	.L228:
 2163 0032 C046     		.align	2
 2164              	.L227:
 2165 0034 00181040 		.word	1074796544
 2166              		.cfi_endproc
 2167              	.LFE38:
 2168              		.size	CyDmaGetSrcDstTransferWidth, .-CyDmaGetSrcDstTransferWidth
 2169              		.section	.text.CyDmaSetAddressIncrement,"ax",%progbits
 2170              		.align	2
 2171              		.global	CyDmaSetAddressIncrement
 2172              		.code	16
 2173              		.thumb_func
 2174              		.type	CyDmaSetAddressIncrement, %function
 2175              	CyDmaSetAddressIncrement:
 2176              	.LFB39:
1134:Generated_Source\PSoC4/CyDMA.c **** 
1135:Generated_Source\PSoC4/CyDMA.c **** 
1136:Generated_Source\PSoC4/CyDMA.c **** /*******************************************************************************
1137:Generated_Source\PSoC4/CyDMA.c **** * Function Name: CyDmaSetAddressIncrement
1138:Generated_Source\PSoC4/CyDMA.c **** ********************************************************************************
1139:Generated_Source\PSoC4/CyDMA.c **** *
1140:Generated_Source\PSoC4/CyDMA.c **** * Summary:
1141:Generated_Source\PSoC4/CyDMA.c **** *  Sets whether the source or destination addresses are incremented after the
1142:Generated_Source\PSoC4/CyDMA.c **** *  transfer of each data element. The amount that the source and destination
1143:Generated_Source\PSoC4/CyDMA.c **** *  address are incremented is determined by the CyDmaSetSrcDstTransferWidth()
1144:Generated_Source\PSoC4/CyDMA.c **** *  function. The addresses will either be incremented by the data element size
1145:Generated_Source\PSoC4/CyDMA.c **** *  or by a word (4 bytes).
1146:Generated_Source\PSoC4/CyDMA.c **** *
1147:Generated_Source\PSoC4/CyDMA.c **** * Parameters:
1148:Generated_Source\PSoC4/CyDMA.c **** *  channel:          Channel used by this function.
1149:Generated_Source\PSoC4/CyDMA.c **** *  descriptor:       Descriptor (0 or 1) modified by this function.
1150:Generated_Source\PSoC4/CyDMA.c **** *  addressIncrement: Address increment settings. Refer to the API bit fields 
1151:Generated_Source\PSoC4/CyDMA.c **** *                    definition in CyDMA_P4.h or the API description in the DMA
1152:Generated_Source\PSoC4/CyDMA.c **** *                    channel datasheet for the parameter options.
1153:Generated_Source\PSoC4/CyDMA.c **** *    
1154:Generated_Source\PSoC4/CyDMA.c **** * Return:
1155:Generated_Source\PSoC4/CyDMA.c **** *  None.
1156:Generated_Source\PSoC4/CyDMA.c **** *
1157:Generated_Source\PSoC4/CyDMA.c **** * Side effect:
1158:Generated_Source\PSoC4/CyDMA.c **** *  This function should not be called when the specified descriptor is active
1159:Generated_Source\PSoC4/CyDMA.c **** *  in the DMA transfer engine. This can be checked by calling CyDmaGetStatus(). 
1160:Generated_Source\PSoC4/CyDMA.c **** *
1161:Generated_Source\PSoC4/CyDMA.c **** *******************************************************************************/
1162:Generated_Source\PSoC4/CyDMA.c **** void CyDmaSetAddressIncrement(int32 channel, int32 descriptor, uint32 addressIncrement)
1163:Generated_Source\PSoC4/CyDMA.c **** {
 2177              		.loc 1 1163 0
 2178              		.cfi_startproc
ARM GAS  C:\Users\ilya\AppData\Local\Temp\cchJq1OJ.s 			page 62


 2179              		@ args = 0, pretend = 0, frame = 0
 2180              		@ frame_needed = 0, uses_anonymous_args = 0
 2181              	.LVL225:
 2182 0000 70B5     		push	{r4, r5, r6, lr}
 2183              		.cfi_def_cfa_offset 16
 2184              		.cfi_offset 4, -16
 2185              		.cfi_offset 5, -12
 2186              		.cfi_offset 6, -8
 2187              		.cfi_offset 14, -4
 2188              		.loc 1 1163 0
 2189 0002 0600     		movs	r6, r0
 2190 0004 0C00     		movs	r4, r1
 2191 0006 1500     		movs	r5, r2
1164:Generated_Source\PSoC4/CyDMA.c ****     uint32 regValue;
1165:Generated_Source\PSoC4/CyDMA.c **** 
1166:Generated_Source\PSoC4/CyDMA.c ****     CYASSERT((channel    >= 0) && (channel    < CYDMA_CH_NR));
 2192              		.loc 1 1166 0
 2193 0008 0728     		cmp	r0, #7
 2194 000a 16D8     		bhi	.L236
 2195              	.LVL226:
 2196              	.L230:
1167:Generated_Source\PSoC4/CyDMA.c ****     CYASSERT((descriptor >= 0) && (descriptor < CYDMA_DESCR_NR));
 2197              		.loc 1 1167 0
 2198 000c 012C     		cmp	r4, #1
 2199 000e 02D9     		bls	.L231
 2200              		.loc 1 1167 0 is_stmt 0 discriminator 1
 2201 0010 0020     		movs	r0, #0
 2202 0012 FFF7FEFF 		bl	CyHalt
 2203              	.LVL227:
 2204              	.L231:
1168:Generated_Source\PSoC4/CyDMA.c ****     CYASSERT(0u == (addressIncrement & (uint32)~CYDMA_ADDR_INCR));
 2205              		.loc 1 1168 0 is_stmt 1
 2206 0016 0B4B     		ldr	r3, .L237
 2207 0018 1D42     		tst	r5, r3
 2208 001a 02D0     		beq	.L232
 2209              		.loc 1 1168 0 is_stmt 0 discriminator 1
 2210 001c 0020     		movs	r0, #0
 2211 001e FFF7FEFF 		bl	CyHalt
 2212              	.LVL228:
 2213              	.L232:
1169:Generated_Source\PSoC4/CyDMA.c **** 
1170:Generated_Source\PSoC4/CyDMA.c ****     regValue = CYDMA_DESCR_BASE.descriptor[channel][descriptor].ctl & (uint32)~CYDMA_ADDR_INCR;
 2214              		.loc 1 1170 0 is_stmt 1
 2215 0022 094B     		ldr	r3, .L237+4
 2216 0024 7600     		lsls	r6, r6, #1
 2217              	.LVL229:
 2218 0026 9C46     		mov	ip, r3
 2219 0028 3419     		adds	r4, r6, r4
 2220              	.LVL230:
 2221 002a 2401     		lsls	r4, r4, #4
 2222 002c 6444     		add	r4, r4, ip
 2223 002e A268     		ldr	r2, [r4, #8]
 2224              	.LVL231:
1171:Generated_Source\PSoC4/CyDMA.c ****     CYDMA_DESCR_BASE.descriptor[channel][descriptor].ctl = regValue | addressIncrement;
 2225              		.loc 1 1171 0
 2226 0030 044B     		ldr	r3, .L237
1172:Generated_Source\PSoC4/CyDMA.c **** }
ARM GAS  C:\Users\ilya\AppData\Local\Temp\cchJq1OJ.s 			page 63


 2227              		.loc 1 1172 0
 2228              		@ sp needed
1171:Generated_Source\PSoC4/CyDMA.c ****     CYDMA_DESCR_BASE.descriptor[channel][descriptor].ctl = regValue | addressIncrement;
 2229              		.loc 1 1171 0
 2230 0032 1340     		ands	r3, r2
 2231              	.LVL232:
 2232 0034 1D43     		orrs	r5, r3
 2233              	.LVL233:
 2234 0036 A560     		str	r5, [r4, #8]
 2235              		.loc 1 1172 0
 2236 0038 70BD     		pop	{r4, r5, r6, pc}
 2237              	.LVL234:
 2238              	.L236:
1166:Generated_Source\PSoC4/CyDMA.c ****     CYASSERT((descriptor >= 0) && (descriptor < CYDMA_DESCR_NR));
 2239              		.loc 1 1166 0 discriminator 1
 2240 003a 0020     		movs	r0, #0
 2241              	.LVL235:
 2242 003c FFF7FEFF 		bl	CyHalt
 2243              	.LVL236:
 2244 0040 E4E7     		b	.L230
 2245              	.L238:
 2246 0042 C046     		.align	2
 2247              	.L237:
 2248 0044 FFFF5FFF 		.word	-10485761
 2249 0048 00181040 		.word	1074796544
 2250              		.cfi_endproc
 2251              	.LFE39:
 2252              		.size	CyDmaSetAddressIncrement, .-CyDmaSetAddressIncrement
 2253              		.section	.text.CyDmaGetAddressIncrement,"ax",%progbits
 2254              		.align	2
 2255              		.global	CyDmaGetAddressIncrement
 2256              		.code	16
 2257              		.thumb_func
 2258              		.type	CyDmaGetAddressIncrement, %function
 2259              	CyDmaGetAddressIncrement:
 2260              	.LFB40:
1173:Generated_Source\PSoC4/CyDMA.c **** 
1174:Generated_Source\PSoC4/CyDMA.c **** 
1175:Generated_Source\PSoC4/CyDMA.c **** /*******************************************************************************
1176:Generated_Source\PSoC4/CyDMA.c **** * Function Name: CyDmaGetAddressIncrement
1177:Generated_Source\PSoC4/CyDMA.c **** ********************************************************************************
1178:Generated_Source\PSoC4/CyDMA.c **** *
1179:Generated_Source\PSoC4/CyDMA.c **** * Summary:
1180:Generated_Source\PSoC4/CyDMA.c **** *  Returns address increment settings as set by CyDmaSetAddressIncrement() or
1181:Generated_Source\PSoC4/CyDMA.c **** *  CyDmaSetConfiguration().
1182:Generated_Source\PSoC4/CyDMA.c **** *
1183:Generated_Source\PSoC4/CyDMA.c **** * Parameters:
1184:Generated_Source\PSoC4/CyDMA.c **** *  channel:    Channel used by this function.
1185:Generated_Source\PSoC4/CyDMA.c **** *  descriptor: Descriptor (0 or 1) modified by this function.
1186:Generated_Source\PSoC4/CyDMA.c **** *                   
1187:Generated_Source\PSoC4/CyDMA.c **** * Return:
1188:Generated_Source\PSoC4/CyDMA.c **** *  Address increment settings. Refer to the API bit field definitions in
1189:Generated_Source\PSoC4/CyDMA.c **** *  CyDMA_P4.h or the API description in the DMA channel datasheet for more
1190:Generated_Source\PSoC4/CyDMA.c **** *  information.
1191:Generated_Source\PSoC4/CyDMA.c **** *
1192:Generated_Source\PSoC4/CyDMA.c **** *******************************************************************************/
1193:Generated_Source\PSoC4/CyDMA.c **** uint32 CyDmaGetAddressIncrement(int32 channel, int32 descriptor)
ARM GAS  C:\Users\ilya\AppData\Local\Temp\cchJq1OJ.s 			page 64


1194:Generated_Source\PSoC4/CyDMA.c **** {
 2261              		.loc 1 1194 0
 2262              		.cfi_startproc
 2263              		@ args = 0, pretend = 0, frame = 0
 2264              		@ frame_needed = 0, uses_anonymous_args = 0
 2265              	.LVL237:
 2266 0000 70B5     		push	{r4, r5, r6, lr}
 2267              		.cfi_def_cfa_offset 16
 2268              		.cfi_offset 4, -16
 2269              		.cfi_offset 5, -12
 2270              		.cfi_offset 6, -8
 2271              		.cfi_offset 14, -4
 2272              		.loc 1 1194 0
 2273 0002 0500     		movs	r5, r0
 2274 0004 0C00     		movs	r4, r1
1195:Generated_Source\PSoC4/CyDMA.c ****     CYASSERT((channel    >= 0) && (channel    < CYDMA_CH_NR));
 2275              		.loc 1 1195 0
 2276 0006 0728     		cmp	r0, #7
 2277 0008 0FD8     		bhi	.L242
 2278              	.LVL238:
 2279              	.L240:
1196:Generated_Source\PSoC4/CyDMA.c ****     CYASSERT((descriptor >= 0) && (descriptor < CYDMA_DESCR_NR));
 2280              		.loc 1 1196 0
 2281 000a 012C     		cmp	r4, #1
 2282 000c 02D9     		bls	.L241
 2283              		.loc 1 1196 0 is_stmt 0 discriminator 1
 2284 000e 0020     		movs	r0, #0
 2285 0010 FFF7FEFF 		bl	CyHalt
 2286              	.LVL239:
 2287              	.L241:
1197:Generated_Source\PSoC4/CyDMA.c **** 
1198:Generated_Source\PSoC4/CyDMA.c ****     return (CYDMA_DESCR_BASE.descriptor[channel][descriptor].ctl & CYDMA_ADDR_INCR);
 2288              		.loc 1 1198 0 is_stmt 1
 2289 0014 074B     		ldr	r3, .L243
 2290 0016 6D00     		lsls	r5, r5, #1
 2291              	.LVL240:
 2292 0018 9C46     		mov	ip, r3
 2293 001a A023     		movs	r3, #160
 2294 001c 2C19     		adds	r4, r5, r4
 2295              	.LVL241:
 2296 001e 2401     		lsls	r4, r4, #4
 2297 0020 6444     		add	r4, r4, ip
 2298 0022 A068     		ldr	r0, [r4, #8]
 2299 0024 1B04     		lsls	r3, r3, #16
 2300 0026 1840     		ands	r0, r3
1199:Generated_Source\PSoC4/CyDMA.c **** }
 2301              		.loc 1 1199 0
 2302              		@ sp needed
 2303 0028 70BD     		pop	{r4, r5, r6, pc}
 2304              	.LVL242:
 2305              	.L242:
1195:Generated_Source\PSoC4/CyDMA.c ****     CYASSERT((descriptor >= 0) && (descriptor < CYDMA_DESCR_NR));
 2306              		.loc 1 1195 0 discriminator 1
 2307 002a 0020     		movs	r0, #0
 2308              	.LVL243:
 2309 002c FFF7FEFF 		bl	CyHalt
 2310              	.LVL244:
ARM GAS  C:\Users\ilya\AppData\Local\Temp\cchJq1OJ.s 			page 65


 2311 0030 EBE7     		b	.L240
 2312              	.L244:
 2313 0032 C046     		.align	2
 2314              	.L243:
 2315 0034 00181040 		.word	1074796544
 2316              		.cfi_endproc
 2317              	.LFE40:
 2318              		.size	CyDmaGetAddressIncrement, .-CyDmaGetAddressIncrement
 2319              		.section	.text.CyDmaSetTriggerType,"ax",%progbits
 2320              		.align	2
 2321              		.global	CyDmaSetTriggerType
 2322              		.code	16
 2323              		.thumb_func
 2324              		.type	CyDmaSetTriggerType, %function
 2325              	CyDmaSetTriggerType:
 2326              	.LFB41:
1200:Generated_Source\PSoC4/CyDMA.c **** 
1201:Generated_Source\PSoC4/CyDMA.c **** 
1202:Generated_Source\PSoC4/CyDMA.c **** /*******************************************************************************
1203:Generated_Source\PSoC4/CyDMA.c **** * Function Name: CyDmaSetTriggerType
1204:Generated_Source\PSoC4/CyDMA.c **** ********************************************************************************
1205:Generated_Source\PSoC4/CyDMA.c **** *
1206:Generated_Source\PSoC4/CyDMA.c **** * Summary:
1207:Generated_Source\PSoC4/CyDMA.c **** *  Sets the type of input trigger for the DMA For level sensitive triggers sets
1208:Generated_Source\PSoC4/CyDMA.c **** *  how long the DMA waits for the trigger to go low (deactivate) before
1209:Generated_Source\PSoC4/CyDMA.c **** *  triggering the channel again.
1210:Generated_Source\PSoC4/CyDMA.c **** *
1211:Generated_Source\PSoC4/CyDMA.c **** * Parameters:
1212:Generated_Source\PSoC4/CyDMA.c **** *  channel:     Channel used by this function.
1213:Generated_Source\PSoC4/CyDMA.c **** *  descriptor:  Descriptor (0 or 1) modified by this function.
1214:Generated_Source\PSoC4/CyDMA.c **** *  triggerType: Type of DMA trigger. Refer to the API bit field definitions
1215:Generated_Source\PSoC4/CyDMA.c **** *               in CyDMA_P4.h or the API description in the DMA channel
1216:Generated_Source\PSoC4/CyDMA.c **** *               datasheet for the parameter options.
1217:Generated_Source\PSoC4/CyDMA.c **** *                   
1218:Generated_Source\PSoC4/CyDMA.c **** * Return:
1219:Generated_Source\PSoC4/CyDMA.c **** *  None.
1220:Generated_Source\PSoC4/CyDMA.c **** *
1221:Generated_Source\PSoC4/CyDMA.c **** * Side effect:
1222:Generated_Source\PSoC4/CyDMA.c **** *  This function should not be called when the specified descriptor is active
1223:Generated_Source\PSoC4/CyDMA.c **** *  in the DMA transfer engine. This can be checked by calling CyDmaGetStatus(). 
1224:Generated_Source\PSoC4/CyDMA.c **** *
1225:Generated_Source\PSoC4/CyDMA.c **** *******************************************************************************/
1226:Generated_Source\PSoC4/CyDMA.c **** void CyDmaSetTriggerType(int32 channel, int32 descriptor, uint32 triggerType)
1227:Generated_Source\PSoC4/CyDMA.c **** {
 2327              		.loc 1 1227 0
 2328              		.cfi_startproc
 2329              		@ args = 0, pretend = 0, frame = 0
 2330              		@ frame_needed = 0, uses_anonymous_args = 0
 2331              	.LVL245:
 2332 0000 70B5     		push	{r4, r5, r6, lr}
 2333              		.cfi_def_cfa_offset 16
 2334              		.cfi_offset 4, -16
 2335              		.cfi_offset 5, -12
 2336              		.cfi_offset 6, -8
 2337              		.cfi_offset 14, -4
 2338              		.loc 1 1227 0
 2339 0002 0600     		movs	r6, r0
ARM GAS  C:\Users\ilya\AppData\Local\Temp\cchJq1OJ.s 			page 66


 2340 0004 0C00     		movs	r4, r1
 2341 0006 1500     		movs	r5, r2
1228:Generated_Source\PSoC4/CyDMA.c ****     uint32 regValue;
1229:Generated_Source\PSoC4/CyDMA.c **** 
1230:Generated_Source\PSoC4/CyDMA.c ****     CYASSERT((channel    >= 0) && (channel    < CYDMA_CH_NR));
 2342              		.loc 1 1230 0
 2343 0008 0728     		cmp	r0, #7
 2344 000a 16D8     		bhi	.L252
 2345              	.LVL246:
 2346              	.L246:
1231:Generated_Source\PSoC4/CyDMA.c ****     CYASSERT((descriptor >= 0) && (descriptor < CYDMA_DESCR_NR));
 2347              		.loc 1 1231 0
 2348 000c 012C     		cmp	r4, #1
 2349 000e 02D9     		bls	.L247
 2350              		.loc 1 1231 0 is_stmt 0 discriminator 1
 2351 0010 0020     		movs	r0, #0
 2352 0012 FFF7FEFF 		bl	CyHalt
 2353              	.LVL247:
 2354              	.L247:
1232:Generated_Source\PSoC4/CyDMA.c ****     CYASSERT(0u == (triggerType & (uint32)~CYDMA_TRIGGER_TYPE));
 2355              		.loc 1 1232 0 is_stmt 1
 2356 0016 0B4B     		ldr	r3, .L253
 2357 0018 1D42     		tst	r5, r3
 2358 001a 02D0     		beq	.L248
 2359              		.loc 1 1232 0 is_stmt 0 discriminator 1
 2360 001c 0020     		movs	r0, #0
 2361 001e FFF7FEFF 		bl	CyHalt
 2362              	.LVL248:
 2363              	.L248:
1233:Generated_Source\PSoC4/CyDMA.c **** 
1234:Generated_Source\PSoC4/CyDMA.c ****     regValue = CYDMA_DESCR_BASE.descriptor[channel][descriptor].ctl & (uint32)~CYDMA_TRIGGER_TYPE;
 2364              		.loc 1 1234 0 is_stmt 1
 2365 0022 094B     		ldr	r3, .L253+4
 2366 0024 7600     		lsls	r6, r6, #1
 2367              	.LVL249:
 2368 0026 9C46     		mov	ip, r3
 2369 0028 3419     		adds	r4, r6, r4
 2370              	.LVL250:
 2371 002a 2401     		lsls	r4, r4, #4
 2372 002c 6444     		add	r4, r4, ip
 2373 002e A268     		ldr	r2, [r4, #8]
 2374              	.LVL251:
1235:Generated_Source\PSoC4/CyDMA.c ****     CYDMA_DESCR_BASE.descriptor[channel][descriptor].ctl = regValue | triggerType;
 2375              		.loc 1 1235 0
 2376 0030 044B     		ldr	r3, .L253
1236:Generated_Source\PSoC4/CyDMA.c **** }
 2377              		.loc 1 1236 0
 2378              		@ sp needed
1235:Generated_Source\PSoC4/CyDMA.c ****     CYDMA_DESCR_BASE.descriptor[channel][descriptor].ctl = regValue | triggerType;
 2379              		.loc 1 1235 0
 2380 0032 1340     		ands	r3, r2
 2381              	.LVL252:
 2382 0034 1D43     		orrs	r5, r3
 2383              	.LVL253:
 2384 0036 A560     		str	r5, [r4, #8]
 2385              		.loc 1 1236 0
 2386 0038 70BD     		pop	{r4, r5, r6, pc}
ARM GAS  C:\Users\ilya\AppData\Local\Temp\cchJq1OJ.s 			page 67


 2387              	.LVL254:
 2388              	.L252:
1230:Generated_Source\PSoC4/CyDMA.c ****     CYASSERT((descriptor >= 0) && (descriptor < CYDMA_DESCR_NR));
 2389              		.loc 1 1230 0 discriminator 1
 2390 003a 0020     		movs	r0, #0
 2391              	.LVL255:
 2392 003c FFF7FEFF 		bl	CyHalt
 2393              	.LVL256:
 2394 0040 E4E7     		b	.L246
 2395              	.L254:
 2396 0042 C046     		.align	2
 2397              	.L253:
 2398 0044 FFFFFFFC 		.word	-50331649
 2399 0048 00181040 		.word	1074796544
 2400              		.cfi_endproc
 2401              	.LFE41:
 2402              		.size	CyDmaSetTriggerType, .-CyDmaSetTriggerType
 2403              		.section	.text.CyDmaGetTriggerType,"ax",%progbits
 2404              		.align	2
 2405              		.global	CyDmaGetTriggerType
 2406              		.code	16
 2407              		.thumb_func
 2408              		.type	CyDmaGetTriggerType, %function
 2409              	CyDmaGetTriggerType:
 2410              	.LFB42:
1237:Generated_Source\PSoC4/CyDMA.c **** 
1238:Generated_Source\PSoC4/CyDMA.c **** 
1239:Generated_Source\PSoC4/CyDMA.c **** /*******************************************************************************
1240:Generated_Source\PSoC4/CyDMA.c **** * Function Name: CyDmaGetTriggerType
1241:Generated_Source\PSoC4/CyDMA.c **** ********************************************************************************
1242:Generated_Source\PSoC4/CyDMA.c **** *
1243:Generated_Source\PSoC4/CyDMA.c **** * Summary:
1244:Generated_Source\PSoC4/CyDMA.c **** *  Returns the trigger deactivation settings as set by CyDmaSetTriggerType() or
1245:Generated_Source\PSoC4/CyDMA.c **** *  CyDmaSetConfiguration().
1246:Generated_Source\PSoC4/CyDMA.c **** *
1247:Generated_Source\PSoC4/CyDMA.c **** * Parameters:
1248:Generated_Source\PSoC4/CyDMA.c **** *  channel:    Channel used by this function.
1249:Generated_Source\PSoC4/CyDMA.c **** *  descriptor: Descriptor (0 or 1) modified by this function.
1250:Generated_Source\PSoC4/CyDMA.c **** *                   
1251:Generated_Source\PSoC4/CyDMA.c **** * Return:
1252:Generated_Source\PSoC4/CyDMA.c **** *  Trigger deactivation settings. Refer to the API bit field definitions in
1253:Generated_Source\PSoC4/CyDMA.c **** *  CyDMA_P4.h or the API description in the DMA channel datasheet for more
1254:Generated_Source\PSoC4/CyDMA.c **** *  information.
1255:Generated_Source\PSoC4/CyDMA.c **** *
1256:Generated_Source\PSoC4/CyDMA.c **** *******************************************************************************/
1257:Generated_Source\PSoC4/CyDMA.c **** uint32 CyDmaGetTriggerType(int32 channel, int32 descriptor)
1258:Generated_Source\PSoC4/CyDMA.c **** {
 2411              		.loc 1 1258 0
 2412              		.cfi_startproc
 2413              		@ args = 0, pretend = 0, frame = 0
 2414              		@ frame_needed = 0, uses_anonymous_args = 0
 2415              	.LVL257:
 2416 0000 70B5     		push	{r4, r5, r6, lr}
 2417              		.cfi_def_cfa_offset 16
 2418              		.cfi_offset 4, -16
 2419              		.cfi_offset 5, -12
 2420              		.cfi_offset 6, -8
ARM GAS  C:\Users\ilya\AppData\Local\Temp\cchJq1OJ.s 			page 68


 2421              		.cfi_offset 14, -4
 2422              		.loc 1 1258 0
 2423 0002 0500     		movs	r5, r0
 2424 0004 0C00     		movs	r4, r1
1259:Generated_Source\PSoC4/CyDMA.c ****     CYASSERT((channel    >= 0) && (channel    < CYDMA_CH_NR));
 2425              		.loc 1 1259 0
 2426 0006 0728     		cmp	r0, #7
 2427 0008 0FD8     		bhi	.L258
 2428              	.LVL258:
 2429              	.L256:
1260:Generated_Source\PSoC4/CyDMA.c ****     CYASSERT((descriptor >= 0) && (descriptor < CYDMA_DESCR_NR));
 2430              		.loc 1 1260 0
 2431 000a 012C     		cmp	r4, #1
 2432 000c 02D9     		bls	.L257
 2433              		.loc 1 1260 0 is_stmt 0 discriminator 1
 2434 000e 0020     		movs	r0, #0
 2435 0010 FFF7FEFF 		bl	CyHalt
 2436              	.LVL259:
 2437              	.L257:
1261:Generated_Source\PSoC4/CyDMA.c **** 
1262:Generated_Source\PSoC4/CyDMA.c ****     return (CYDMA_DESCR_BASE.descriptor[channel][descriptor].ctl & CYDMA_TRIGGER_TYPE);
 2438              		.loc 1 1262 0 is_stmt 1
 2439 0014 074B     		ldr	r3, .L259
 2440 0016 6D00     		lsls	r5, r5, #1
 2441              	.LVL260:
 2442 0018 9C46     		mov	ip, r3
 2443 001a C023     		movs	r3, #192
 2444 001c 2C19     		adds	r4, r5, r4
 2445              	.LVL261:
 2446 001e 2401     		lsls	r4, r4, #4
 2447 0020 6444     		add	r4, r4, ip
 2448 0022 A068     		ldr	r0, [r4, #8]
 2449 0024 9B04     		lsls	r3, r3, #18
 2450 0026 1840     		ands	r0, r3
1263:Generated_Source\PSoC4/CyDMA.c **** }
 2451              		.loc 1 1263 0
 2452              		@ sp needed
 2453 0028 70BD     		pop	{r4, r5, r6, pc}
 2454              	.LVL262:
 2455              	.L258:
1259:Generated_Source\PSoC4/CyDMA.c ****     CYASSERT((descriptor >= 0) && (descriptor < CYDMA_DESCR_NR));
 2456              		.loc 1 1259 0 discriminator 1
 2457 002a 0020     		movs	r0, #0
 2458              	.LVL263:
 2459 002c FFF7FEFF 		bl	CyHalt
 2460              	.LVL264:
 2461 0030 EBE7     		b	.L256
 2462              	.L260:
 2463 0032 C046     		.align	2
 2464              	.L259:
 2465 0034 00181040 		.word	1074796544
 2466              		.cfi_endproc
 2467              	.LFE42:
 2468              		.size	CyDmaGetTriggerType, .-CyDmaGetTriggerType
 2469              		.section	.text.CyDmaSetTransferMode,"ax",%progbits
 2470              		.align	2
 2471              		.global	CyDmaSetTransferMode
ARM GAS  C:\Users\ilya\AppData\Local\Temp\cchJq1OJ.s 			page 69


 2472              		.code	16
 2473              		.thumb_func
 2474              		.type	CyDmaSetTransferMode, %function
 2475              	CyDmaSetTransferMode:
 2476              	.LFB43:
1264:Generated_Source\PSoC4/CyDMA.c **** 
1265:Generated_Source\PSoC4/CyDMA.c **** 
1266:Generated_Source\PSoC4/CyDMA.c **** /*******************************************************************************
1267:Generated_Source\PSoC4/CyDMA.c **** * Function Name: CyDmaSetTransferMode
1268:Generated_Source\PSoC4/CyDMA.c **** ********************************************************************************
1269:Generated_Source\PSoC4/CyDMA.c **** *
1270:Generated_Source\PSoC4/CyDMA.c **** * Summary:
1271:Generated_Source\PSoC4/CyDMA.c **** *  Sets the DMA transfer mode. This determines how the DMA reacts to each trigger
1272:Generated_Source\PSoC4/CyDMA.c **** *  event.
1273:Generated_Source\PSoC4/CyDMA.c **** *
1274:Generated_Source\PSoC4/CyDMA.c **** * Parameters:
1275:Generated_Source\PSoC4/CyDMA.c **** *  channel:      Channel used by this function.
1276:Generated_Source\PSoC4/CyDMA.c **** *  descriptor:   Descriptor (0 or 1) modified by this function.
1277:Generated_Source\PSoC4/CyDMA.c **** *  transferMode: Specifies the DMA transfer mode settings. Refer to the API bit
1278:Generated_Source\PSoC4/CyDMA.c **** *                field definitions in CyDMA_P4.h or the API description in the
1279:Generated_Source\PSoC4/CyDMA.c **** *                DMA channel datasheet for the parameter options.
1280:Generated_Source\PSoC4/CyDMA.c **** *                   
1281:Generated_Source\PSoC4/CyDMA.c **** * Return:
1282:Generated_Source\PSoC4/CyDMA.c **** *  None.
1283:Generated_Source\PSoC4/CyDMA.c **** *
1284:Generated_Source\PSoC4/CyDMA.c **** * Side effect:
1285:Generated_Source\PSoC4/CyDMA.c **** *  This function should not be called when the specified descriptor is active
1286:Generated_Source\PSoC4/CyDMA.c **** *  in the DMA transfer engine. This can be checked by calling CyDmaGetStatus(). 
1287:Generated_Source\PSoC4/CyDMA.c **** *
1288:Generated_Source\PSoC4/CyDMA.c **** *******************************************************************************/
1289:Generated_Source\PSoC4/CyDMA.c **** void CyDmaSetTransferMode(int32 channel, int32 descriptor, uint32 transferMode)
1290:Generated_Source\PSoC4/CyDMA.c **** {
 2477              		.loc 1 1290 0
 2478              		.cfi_startproc
 2479              		@ args = 0, pretend = 0, frame = 0
 2480              		@ frame_needed = 0, uses_anonymous_args = 0
 2481              	.LVL265:
 2482 0000 70B5     		push	{r4, r5, r6, lr}
 2483              		.cfi_def_cfa_offset 16
 2484              		.cfi_offset 4, -16
 2485              		.cfi_offset 5, -12
 2486              		.cfi_offset 6, -8
 2487              		.cfi_offset 14, -4
 2488              		.loc 1 1290 0
 2489 0002 0600     		movs	r6, r0
 2490 0004 0C00     		movs	r4, r1
 2491 0006 1500     		movs	r5, r2
1291:Generated_Source\PSoC4/CyDMA.c ****     uint32 regValue;
1292:Generated_Source\PSoC4/CyDMA.c **** 
1293:Generated_Source\PSoC4/CyDMA.c ****     CYASSERT((channel    >= 0) && (channel    < CYDMA_CH_NR));
 2492              		.loc 1 1293 0
 2493 0008 0728     		cmp	r0, #7
 2494 000a 15D8     		bhi	.L268
 2495              	.LVL266:
 2496              	.L262:
1294:Generated_Source\PSoC4/CyDMA.c ****     CYASSERT((descriptor >= 0) && (descriptor < CYDMA_DESCR_NR));
 2497              		.loc 1 1294 0
ARM GAS  C:\Users\ilya\AppData\Local\Temp\cchJq1OJ.s 			page 70


 2498 000c 012C     		cmp	r4, #1
 2499 000e 02D9     		bls	.L263
 2500              		.loc 1 1294 0 is_stmt 0 discriminator 1
 2501 0010 0020     		movs	r0, #0
 2502 0012 FFF7FEFF 		bl	CyHalt
 2503              	.LVL267:
 2504              	.L263:
1295:Generated_Source\PSoC4/CyDMA.c ****     CYASSERT(0u == (transferMode & (uint32)~CYDMA_TRANSFER_MODE));
 2505              		.loc 1 1295 0 is_stmt 1
 2506 0016 AB00     		lsls	r3, r5, #2
 2507 0018 02D0     		beq	.L264
 2508              		.loc 1 1295 0 is_stmt 0 discriminator 1
 2509 001a 0020     		movs	r0, #0
 2510 001c FFF7FEFF 		bl	CyHalt
 2511              	.LVL268:
 2512              	.L264:
1296:Generated_Source\PSoC4/CyDMA.c **** 
1297:Generated_Source\PSoC4/CyDMA.c ****     regValue = CYDMA_DESCR_BASE.descriptor[channel][descriptor].ctl & (uint32)~CYDMA_TRANSFER_MODE;
 2513              		.loc 1 1297 0 is_stmt 1
 2514 0020 074B     		ldr	r3, .L269
 2515 0022 7600     		lsls	r6, r6, #1
 2516              	.LVL269:
 2517 0024 9C46     		mov	ip, r3
 2518 0026 3419     		adds	r4, r6, r4
 2519              	.LVL270:
 2520 0028 2401     		lsls	r4, r4, #4
 2521 002a 6444     		add	r4, r4, ip
 2522 002c A268     		ldr	r2, [r4, #8]
 2523              	.LVL271:
1298:Generated_Source\PSoC4/CyDMA.c ****     CYDMA_DESCR_BASE.descriptor[channel][descriptor].ctl = regValue | transferMode;
1299:Generated_Source\PSoC4/CyDMA.c **** }
 2524              		.loc 1 1299 0
 2525              		@ sp needed
1298:Generated_Source\PSoC4/CyDMA.c ****     CYDMA_DESCR_BASE.descriptor[channel][descriptor].ctl = regValue | transferMode;
 2526              		.loc 1 1298 0
 2527 002e 9200     		lsls	r2, r2, #2
 2528              	.LVL272:
 2529 0030 9208     		lsrs	r2, r2, #2
 2530 0032 2A43     		orrs	r2, r5
 2531 0034 A260     		str	r2, [r4, #8]
 2532              	.LVL273:
 2533              		.loc 1 1299 0
 2534 0036 70BD     		pop	{r4, r5, r6, pc}
 2535              	.LVL274:
 2536              	.L268:
1293:Generated_Source\PSoC4/CyDMA.c ****     CYASSERT((descriptor >= 0) && (descriptor < CYDMA_DESCR_NR));
 2537              		.loc 1 1293 0 discriminator 1
 2538 0038 0020     		movs	r0, #0
 2539              	.LVL275:
 2540 003a FFF7FEFF 		bl	CyHalt
 2541              	.LVL276:
 2542 003e E5E7     		b	.L262
 2543              	.L270:
 2544              		.align	2
 2545              	.L269:
 2546 0040 00181040 		.word	1074796544
 2547              		.cfi_endproc
ARM GAS  C:\Users\ilya\AppData\Local\Temp\cchJq1OJ.s 			page 71


 2548              	.LFE43:
 2549              		.size	CyDmaSetTransferMode, .-CyDmaSetTransferMode
 2550              		.section	.text.CyDmaGetTransferMode,"ax",%progbits
 2551              		.align	2
 2552              		.global	CyDmaGetTransferMode
 2553              		.code	16
 2554              		.thumb_func
 2555              		.type	CyDmaGetTransferMode, %function
 2556              	CyDmaGetTransferMode:
 2557              	.LFB44:
1300:Generated_Source\PSoC4/CyDMA.c **** 
1301:Generated_Source\PSoC4/CyDMA.c **** 
1302:Generated_Source\PSoC4/CyDMA.c **** /*******************************************************************************
1303:Generated_Source\PSoC4/CyDMA.c **** * Function Name: CyDmaGetTransferMode
1304:Generated_Source\PSoC4/CyDMA.c **** ********************************************************************************
1305:Generated_Source\PSoC4/CyDMA.c **** *
1306:Generated_Source\PSoC4/CyDMA.c **** * Summary:
1307:Generated_Source\PSoC4/CyDMA.c **** *  Returns the transfer mode for the specified descriptor as set by 
1308:Generated_Source\PSoC4/CyDMA.c **** *  CyDmaSetTransferMode() or CyDmaSetConfiguration.
1309:Generated_Source\PSoC4/CyDMA.c **** *
1310:Generated_Source\PSoC4/CyDMA.c **** * Parameters:
1311:Generated_Source\PSoC4/CyDMA.c **** *  channel:    Channel used by this function.
1312:Generated_Source\PSoC4/CyDMA.c **** *  descriptor: Descriptor (0 or 1) modified by this function.
1313:Generated_Source\PSoC4/CyDMA.c **** *                   
1314:Generated_Source\PSoC4/CyDMA.c **** * Return:
1315:Generated_Source\PSoC4/CyDMA.c **** *  DMA transfer mode settings. Refer to the API bit field definitions in
1316:Generated_Source\PSoC4/CyDMA.c **** *  CyDMA_P4.h or the API description in the DMA channel datasheet for more
1317:Generated_Source\PSoC4/CyDMA.c **** *  information.
1318:Generated_Source\PSoC4/CyDMA.c **** *
1319:Generated_Source\PSoC4/CyDMA.c **** *******************************************************************************/
1320:Generated_Source\PSoC4/CyDMA.c **** uint32 CyDmaGetTransferMode(int32 channel, int32 descriptor)
1321:Generated_Source\PSoC4/CyDMA.c **** {
 2558              		.loc 1 1321 0
 2559              		.cfi_startproc
 2560              		@ args = 0, pretend = 0, frame = 0
 2561              		@ frame_needed = 0, uses_anonymous_args = 0
 2562              	.LVL277:
 2563 0000 70B5     		push	{r4, r5, r6, lr}
 2564              		.cfi_def_cfa_offset 16
 2565              		.cfi_offset 4, -16
 2566              		.cfi_offset 5, -12
 2567              		.cfi_offset 6, -8
 2568              		.cfi_offset 14, -4
 2569              		.loc 1 1321 0
 2570 0002 0500     		movs	r5, r0
 2571 0004 0C00     		movs	r4, r1
1322:Generated_Source\PSoC4/CyDMA.c ****     CYASSERT((channel    >= 0) && (channel    < CYDMA_CH_NR));
 2572              		.loc 1 1322 0
 2573 0006 0728     		cmp	r0, #7
 2574 0008 0ED8     		bhi	.L274
 2575              	.LVL278:
 2576              	.L272:
1323:Generated_Source\PSoC4/CyDMA.c ****     CYASSERT((descriptor >= 0) && (descriptor < CYDMA_DESCR_NR));
 2577              		.loc 1 1323 0
 2578 000a 012C     		cmp	r4, #1
 2579 000c 02D9     		bls	.L273
 2580              		.loc 1 1323 0 is_stmt 0 discriminator 1
ARM GAS  C:\Users\ilya\AppData\Local\Temp\cchJq1OJ.s 			page 72


 2581 000e 0020     		movs	r0, #0
 2582 0010 FFF7FEFF 		bl	CyHalt
 2583              	.LVL279:
 2584              	.L273:
1324:Generated_Source\PSoC4/CyDMA.c **** 
1325:Generated_Source\PSoC4/CyDMA.c ****     return (CYDMA_DESCR_BASE.descriptor[channel][descriptor].ctl & CYDMA_TRANSFER_MODE);
 2585              		.loc 1 1325 0 is_stmt 1
 2586 0014 064B     		ldr	r3, .L275
 2587 0016 6D00     		lsls	r5, r5, #1
 2588              	.LVL280:
 2589 0018 9C46     		mov	ip, r3
 2590 001a 2C19     		adds	r4, r5, r4
 2591              	.LVL281:
 2592 001c 2401     		lsls	r4, r4, #4
 2593 001e 6444     		add	r4, r4, ip
 2594 0020 A068     		ldr	r0, [r4, #8]
1326:Generated_Source\PSoC4/CyDMA.c **** }
 2595              		.loc 1 1326 0
 2596              		@ sp needed
1325:Generated_Source\PSoC4/CyDMA.c **** }
 2597              		.loc 1 1325 0
 2598 0022 800F     		lsrs	r0, r0, #30
 2599 0024 8007     		lsls	r0, r0, #30
 2600              		.loc 1 1326 0
 2601 0026 70BD     		pop	{r4, r5, r6, pc}
 2602              	.LVL282:
 2603              	.L274:
1322:Generated_Source\PSoC4/CyDMA.c ****     CYASSERT((descriptor >= 0) && (descriptor < CYDMA_DESCR_NR));
 2604              		.loc 1 1322 0 discriminator 1
 2605 0028 0020     		movs	r0, #0
 2606              	.LVL283:
 2607 002a FFF7FEFF 		bl	CyHalt
 2608              	.LVL284:
 2609 002e ECE7     		b	.L272
 2610              	.L276:
 2611              		.align	2
 2612              	.L275:
 2613 0030 00181040 		.word	1074796544
 2614              		.cfi_endproc
 2615              	.LFE44:
 2616              		.size	CyDmaGetTransferMode, .-CyDmaGetTransferMode
 2617              		.section	.text.CyDmaSetPreemptable,"ax",%progbits
 2618              		.align	2
 2619              		.global	CyDmaSetPreemptable
 2620              		.code	16
 2621              		.thumb_func
 2622              		.type	CyDmaSetPreemptable, %function
 2623              	CyDmaSetPreemptable:
 2624              	.LFB45:
1327:Generated_Source\PSoC4/CyDMA.c **** 
1328:Generated_Source\PSoC4/CyDMA.c **** 
1329:Generated_Source\PSoC4/CyDMA.c **** /*******************************************************************************
1330:Generated_Source\PSoC4/CyDMA.c **** * Function Name: CyDmaSetPreemptable
1331:Generated_Source\PSoC4/CyDMA.c **** ********************************************************************************
1332:Generated_Source\PSoC4/CyDMA.c **** *
1333:Generated_Source\PSoC4/CyDMA.c **** * Summary:
1334:Generated_Source\PSoC4/CyDMA.c **** *  Determines if the descriptor is preemptable.
ARM GAS  C:\Users\ilya\AppData\Local\Temp\cchJq1OJ.s 			page 73


1335:Generated_Source\PSoC4/CyDMA.c **** *
1336:Generated_Source\PSoC4/CyDMA.c **** * Parameters:
1337:Generated_Source\PSoC4/CyDMA.c **** *  channel:     Channel used by this function.
1338:Generated_Source\PSoC4/CyDMA.c **** *  descriptor:  Descriptor (0 or 1) modified by this function.
1339:Generated_Source\PSoC4/CyDMA.c **** *  preemptable: Descriptor preemption settings. Refer to the API bit fields
1340:Generated_Source\PSoC4/CyDMA.c **** *               definition in CyDMA_P4.h or the API description in the DMA 
1341:Generated_Source\PSoC4/CyDMA.c **** *               channel datasheet for the parameter options.
1342:Generated_Source\PSoC4/CyDMA.c **** *                   
1343:Generated_Source\PSoC4/CyDMA.c **** * Return:
1344:Generated_Source\PSoC4/CyDMA.c **** *  None.
1345:Generated_Source\PSoC4/CyDMA.c **** *
1346:Generated_Source\PSoC4/CyDMA.c **** * Side effect:
1347:Generated_Source\PSoC4/CyDMA.c **** *  This function should not be called when the specified descriptor is active
1348:Generated_Source\PSoC4/CyDMA.c **** *  in the DMA transfer engine. This can be checked by calling CyDmaGetStatus(). 
1349:Generated_Source\PSoC4/CyDMA.c **** *
1350:Generated_Source\PSoC4/CyDMA.c **** *******************************************************************************/
1351:Generated_Source\PSoC4/CyDMA.c **** void CyDmaSetPreemptable(int32 channel, int32 descriptor, uint32 preemptable)
1352:Generated_Source\PSoC4/CyDMA.c **** {
 2625              		.loc 1 1352 0
 2626              		.cfi_startproc
 2627              		@ args = 0, pretend = 0, frame = 0
 2628              		@ frame_needed = 0, uses_anonymous_args = 0
 2629              	.LVL285:
 2630 0000 70B5     		push	{r4, r5, r6, lr}
 2631              		.cfi_def_cfa_offset 16
 2632              		.cfi_offset 4, -16
 2633              		.cfi_offset 5, -12
 2634              		.cfi_offset 6, -8
 2635              		.cfi_offset 14, -4
 2636              		.loc 1 1352 0
 2637 0002 0600     		movs	r6, r0
 2638 0004 0C00     		movs	r4, r1
 2639 0006 1500     		movs	r5, r2
1353:Generated_Source\PSoC4/CyDMA.c ****     uint32 regValue;
1354:Generated_Source\PSoC4/CyDMA.c **** 
1355:Generated_Source\PSoC4/CyDMA.c ****     CYASSERT((channel    >= 0) && (channel    < CYDMA_CH_NR));
 2640              		.loc 1 1355 0
 2641 0008 0728     		cmp	r0, #7
 2642 000a 16D8     		bhi	.L284
 2643              	.LVL286:
 2644              	.L278:
1356:Generated_Source\PSoC4/CyDMA.c ****     CYASSERT((descriptor >= 0) && (descriptor < CYDMA_DESCR_NR));
 2645              		.loc 1 1356 0
 2646 000c 012C     		cmp	r4, #1
 2647 000e 02D9     		bls	.L279
 2648              		.loc 1 1356 0 is_stmt 0 discriminator 1
 2649 0010 0020     		movs	r0, #0
 2650 0012 FFF7FEFF 		bl	CyHalt
 2651              	.LVL287:
 2652              	.L279:
1357:Generated_Source\PSoC4/CyDMA.c ****     CYASSERT(0u == (preemptable & (uint32)~CYDMA_PREEMPTABLE));
 2653              		.loc 1 1357 0 is_stmt 1
 2654 0016 0B4B     		ldr	r3, .L285
 2655 0018 1D42     		tst	r5, r3
 2656 001a 02D0     		beq	.L280
 2657              		.loc 1 1357 0 is_stmt 0 discriminator 1
 2658 001c 0020     		movs	r0, #0
ARM GAS  C:\Users\ilya\AppData\Local\Temp\cchJq1OJ.s 			page 74


 2659 001e FFF7FEFF 		bl	CyHalt
 2660              	.LVL288:
 2661              	.L280:
1358:Generated_Source\PSoC4/CyDMA.c **** 
1359:Generated_Source\PSoC4/CyDMA.c ****     regValue = CYDMA_DESCR_BASE.descriptor[channel][descriptor].ctl & (uint32)~CYDMA_PREEMPTABLE;
 2662              		.loc 1 1359 0 is_stmt 1
 2663 0022 094B     		ldr	r3, .L285+4
 2664 0024 7600     		lsls	r6, r6, #1
 2665              	.LVL289:
 2666 0026 9C46     		mov	ip, r3
 2667 0028 3419     		adds	r4, r6, r4
 2668              	.LVL290:
 2669 002a 2401     		lsls	r4, r4, #4
 2670 002c 6444     		add	r4, r4, ip
 2671 002e A268     		ldr	r2, [r4, #8]
 2672              	.LVL291:
1360:Generated_Source\PSoC4/CyDMA.c ****     CYDMA_DESCR_BASE.descriptor[channel][descriptor].ctl = regValue | preemptable;
 2673              		.loc 1 1360 0
 2674 0030 044B     		ldr	r3, .L285
1361:Generated_Source\PSoC4/CyDMA.c **** }
 2675              		.loc 1 1361 0
 2676              		@ sp needed
1360:Generated_Source\PSoC4/CyDMA.c ****     CYDMA_DESCR_BASE.descriptor[channel][descriptor].ctl = regValue | preemptable;
 2677              		.loc 1 1360 0
 2678 0032 1340     		ands	r3, r2
 2679              	.LVL292:
 2680 0034 1D43     		orrs	r5, r3
 2681              	.LVL293:
 2682 0036 A560     		str	r5, [r4, #8]
 2683              		.loc 1 1361 0
 2684 0038 70BD     		pop	{r4, r5, r6, pc}
 2685              	.LVL294:
 2686              	.L284:
1355:Generated_Source\PSoC4/CyDMA.c ****     CYASSERT((descriptor >= 0) && (descriptor < CYDMA_DESCR_NR));
 2687              		.loc 1 1355 0 discriminator 1
 2688 003a 0020     		movs	r0, #0
 2689              	.LVL295:
 2690 003c FFF7FEFF 		bl	CyHalt
 2691              	.LVL296:
 2692 0040 E4E7     		b	.L278
 2693              	.L286:
 2694 0042 C046     		.align	2
 2695              	.L285:
 2696 0044 FFFFFFEF 		.word	-268435457
 2697 0048 00181040 		.word	1074796544
 2698              		.cfi_endproc
 2699              	.LFE45:
 2700              		.size	CyDmaSetPreemptable, .-CyDmaSetPreemptable
 2701              		.section	.text.CyDmaGetPreemptable,"ax",%progbits
 2702              		.align	2
 2703              		.global	CyDmaGetPreemptable
 2704              		.code	16
 2705              		.thumb_func
 2706              		.type	CyDmaGetPreemptable, %function
 2707              	CyDmaGetPreemptable:
 2708              	.LFB46:
1362:Generated_Source\PSoC4/CyDMA.c **** 
ARM GAS  C:\Users\ilya\AppData\Local\Temp\cchJq1OJ.s 			page 75


1363:Generated_Source\PSoC4/CyDMA.c **** 
1364:Generated_Source\PSoC4/CyDMA.c **** /*******************************************************************************
1365:Generated_Source\PSoC4/CyDMA.c **** * Function Name: CyDmaGetPreemptable
1366:Generated_Source\PSoC4/CyDMA.c **** ********************************************************************************
1367:Generated_Source\PSoC4/CyDMA.c **** *
1368:Generated_Source\PSoC4/CyDMA.c **** * Summary:
1369:Generated_Source\PSoC4/CyDMA.c **** *  Returns whether or not the descriptor is preemptable.
1370:Generated_Source\PSoC4/CyDMA.c **** *
1371:Generated_Source\PSoC4/CyDMA.c **** * Parameters:
1372:Generated_Source\PSoC4/CyDMA.c **** *  channel:    Channel used by this function.
1373:Generated_Source\PSoC4/CyDMA.c **** *  descriptor: Descriptor (0 or 1) modified by this function.
1374:Generated_Source\PSoC4/CyDMA.c **** *                   
1375:Generated_Source\PSoC4/CyDMA.c **** * Return:
1376:Generated_Source\PSoC4/CyDMA.c **** *  Descriptor preemption setting. Refer to the API bit field definitions in
1377:Generated_Source\PSoC4/CyDMA.c **** *  CyDMA_P4.h or the API description in the DMA channel datasheet for more
1378:Generated_Source\PSoC4/CyDMA.c **** *  information.
1379:Generated_Source\PSoC4/CyDMA.c **** *
1380:Generated_Source\PSoC4/CyDMA.c **** *******************************************************************************/
1381:Generated_Source\PSoC4/CyDMA.c **** uint32 CyDmaGetPreemptable(int32 channel, int32 descriptor)
1382:Generated_Source\PSoC4/CyDMA.c **** {
 2709              		.loc 1 1382 0
 2710              		.cfi_startproc
 2711              		@ args = 0, pretend = 0, frame = 0
 2712              		@ frame_needed = 0, uses_anonymous_args = 0
 2713              	.LVL297:
 2714 0000 70B5     		push	{r4, r5, r6, lr}
 2715              		.cfi_def_cfa_offset 16
 2716              		.cfi_offset 4, -16
 2717              		.cfi_offset 5, -12
 2718              		.cfi_offset 6, -8
 2719              		.cfi_offset 14, -4
 2720              		.loc 1 1382 0
 2721 0002 0500     		movs	r5, r0
 2722 0004 0C00     		movs	r4, r1
1383:Generated_Source\PSoC4/CyDMA.c ****     CYASSERT((channel    >= 0) && (channel    < CYDMA_CH_NR));
 2723              		.loc 1 1383 0
 2724 0006 0728     		cmp	r0, #7
 2725 0008 0FD8     		bhi	.L290
 2726              	.LVL298:
 2727              	.L288:
1384:Generated_Source\PSoC4/CyDMA.c ****     CYASSERT((descriptor >= 0) && (descriptor < CYDMA_DESCR_NR));
 2728              		.loc 1 1384 0
 2729 000a 012C     		cmp	r4, #1
 2730 000c 02D9     		bls	.L289
 2731              		.loc 1 1384 0 is_stmt 0 discriminator 1
 2732 000e 0020     		movs	r0, #0
 2733 0010 FFF7FEFF 		bl	CyHalt
 2734              	.LVL299:
 2735              	.L289:
1385:Generated_Source\PSoC4/CyDMA.c **** 
1386:Generated_Source\PSoC4/CyDMA.c ****     return (CYDMA_DESCR_BASE.descriptor[channel][descriptor].ctl & CYDMA_PREEMPTABLE);
 2736              		.loc 1 1386 0 is_stmt 1
 2737 0014 074B     		ldr	r3, .L291
 2738 0016 6D00     		lsls	r5, r5, #1
 2739              	.LVL300:
 2740 0018 9C46     		mov	ip, r3
 2741 001a 8023     		movs	r3, #128
ARM GAS  C:\Users\ilya\AppData\Local\Temp\cchJq1OJ.s 			page 76


 2742 001c 2C19     		adds	r4, r5, r4
 2743              	.LVL301:
 2744 001e 2401     		lsls	r4, r4, #4
 2745 0020 6444     		add	r4, r4, ip
 2746 0022 A068     		ldr	r0, [r4, #8]
 2747 0024 5B05     		lsls	r3, r3, #21
 2748 0026 1840     		ands	r0, r3
1387:Generated_Source\PSoC4/CyDMA.c **** }
 2749              		.loc 1 1387 0
 2750              		@ sp needed
 2751 0028 70BD     		pop	{r4, r5, r6, pc}
 2752              	.LVL302:
 2753              	.L290:
1383:Generated_Source\PSoC4/CyDMA.c ****     CYASSERT((descriptor >= 0) && (descriptor < CYDMA_DESCR_NR));
 2754              		.loc 1 1383 0 discriminator 1
 2755 002a 0020     		movs	r0, #0
 2756              	.LVL303:
 2757 002c FFF7FEFF 		bl	CyHalt
 2758              	.LVL304:
 2759 0030 EBE7     		b	.L288
 2760              	.L292:
 2761 0032 C046     		.align	2
 2762              	.L291:
 2763 0034 00181040 		.word	1074796544
 2764              		.cfi_endproc
 2765              	.LFE46:
 2766              		.size	CyDmaGetPreemptable, .-CyDmaGetPreemptable
 2767              		.section	.text.CyDmaSetPostCompletionActions,"ax",%progbits
 2768              		.align	2
 2769              		.global	CyDmaSetPostCompletionActions
 2770              		.code	16
 2771              		.thumb_func
 2772              		.type	CyDmaSetPostCompletionActions, %function
 2773              	CyDmaSetPostCompletionActions:
 2774              	.LFB47:
1388:Generated_Source\PSoC4/CyDMA.c **** 
1389:Generated_Source\PSoC4/CyDMA.c **** 
1390:Generated_Source\PSoC4/CyDMA.c **** /*******************************************************************************
1391:Generated_Source\PSoC4/CyDMA.c **** * Function Name: CyDmaSetPostCompletionActions
1392:Generated_Source\PSoC4/CyDMA.c **** ********************************************************************************
1393:Generated_Source\PSoC4/CyDMA.c **** *
1394:Generated_Source\PSoC4/CyDMA.c **** * Summary:
1395:Generated_Source\PSoC4/CyDMA.c **** *  Determines what occurs after a descriptor completes.
1396:Generated_Source\PSoC4/CyDMA.c **** *
1397:Generated_Source\PSoC4/CyDMA.c **** * Parameters:
1398:Generated_Source\PSoC4/CyDMA.c **** *  channel:    Channel used by this function.
1399:Generated_Source\PSoC4/CyDMA.c **** *  descriptor: Descriptor (0 or 1) modified by this function.
1400:Generated_Source\PSoC4/CyDMA.c **** *  actions:    Specifies descriptor post completion actions. Refer to the API
1401:Generated_Source\PSoC4/CyDMA.c **** *              bit field definitions in CyDMA_P4.h or the API description
1402:Generated_Source\PSoC4/CyDMA.c **** *              in the DMA channel datasheet for the parameter options.
1403:Generated_Source\PSoC4/CyDMA.c **** *                   
1404:Generated_Source\PSoC4/CyDMA.c **** * Return:
1405:Generated_Source\PSoC4/CyDMA.c **** *  None.  
1406:Generated_Source\PSoC4/CyDMA.c **** *
1407:Generated_Source\PSoC4/CyDMA.c **** * Side effect:
1408:Generated_Source\PSoC4/CyDMA.c **** *  This function should not be called when the specified descriptor is active
1409:Generated_Source\PSoC4/CyDMA.c **** *  in the DMA transfer engine. This can be checked by calling CyDmaGetStatus(). 
ARM GAS  C:\Users\ilya\AppData\Local\Temp\cchJq1OJ.s 			page 77


1410:Generated_Source\PSoC4/CyDMA.c **** *
1411:Generated_Source\PSoC4/CyDMA.c **** *******************************************************************************/
1412:Generated_Source\PSoC4/CyDMA.c **** void CyDmaSetPostCompletionActions(int32 channel, int32 descriptor, uint32 actions)
1413:Generated_Source\PSoC4/CyDMA.c **** {
 2775              		.loc 1 1413 0
 2776              		.cfi_startproc
 2777              		@ args = 0, pretend = 0, frame = 0
 2778              		@ frame_needed = 0, uses_anonymous_args = 0
 2779              	.LVL305:
 2780 0000 70B5     		push	{r4, r5, r6, lr}
 2781              		.cfi_def_cfa_offset 16
 2782              		.cfi_offset 4, -16
 2783              		.cfi_offset 5, -12
 2784              		.cfi_offset 6, -8
 2785              		.cfi_offset 14, -4
 2786              		.loc 1 1413 0
 2787 0002 0600     		movs	r6, r0
 2788 0004 0C00     		movs	r4, r1
 2789 0006 1500     		movs	r5, r2
1414:Generated_Source\PSoC4/CyDMA.c ****     uint32 regValue;
1415:Generated_Source\PSoC4/CyDMA.c **** 
1416:Generated_Source\PSoC4/CyDMA.c ****     CYASSERT((channel    >= 0) && (channel    < CYDMA_CH_NR));
 2790              		.loc 1 1416 0
 2791 0008 0728     		cmp	r0, #7
 2792 000a 16D8     		bhi	.L300
 2793              	.LVL306:
 2794              	.L294:
1417:Generated_Source\PSoC4/CyDMA.c ****     CYASSERT((descriptor >= 0) && (descriptor < CYDMA_DESCR_NR));
 2795              		.loc 1 1417 0
 2796 000c 012C     		cmp	r4, #1
 2797 000e 02D9     		bls	.L295
 2798              		.loc 1 1417 0 is_stmt 0 discriminator 1
 2799 0010 0020     		movs	r0, #0
 2800 0012 FFF7FEFF 		bl	CyHalt
 2801              	.LVL307:
 2802              	.L295:
1418:Generated_Source\PSoC4/CyDMA.c ****     CYASSERT(0u == (actions & (uint32)~CYDMA_POST_COMPLETE_ACTIONS));
 2803              		.loc 1 1418 0 is_stmt 1
 2804 0016 0B4B     		ldr	r3, .L301
 2805 0018 1D42     		tst	r5, r3
 2806 001a 02D0     		beq	.L296
 2807              		.loc 1 1418 0 is_stmt 0 discriminator 1
 2808 001c 0020     		movs	r0, #0
 2809 001e FFF7FEFF 		bl	CyHalt
 2810              	.LVL308:
 2811              	.L296:
1419:Generated_Source\PSoC4/CyDMA.c **** 
1420:Generated_Source\PSoC4/CyDMA.c ****     regValue = CYDMA_DESCR_BASE.descriptor[channel][descriptor].ctl & (uint32)~CYDMA_POST_COMPLETE_
 2812              		.loc 1 1420 0 is_stmt 1
 2813 0022 094B     		ldr	r3, .L301+4
 2814 0024 7600     		lsls	r6, r6, #1
 2815              	.LVL309:
 2816 0026 9C46     		mov	ip, r3
 2817 0028 3419     		adds	r4, r6, r4
 2818              	.LVL310:
 2819 002a 2401     		lsls	r4, r4, #4
 2820 002c 6444     		add	r4, r4, ip
ARM GAS  C:\Users\ilya\AppData\Local\Temp\cchJq1OJ.s 			page 78


 2821 002e A268     		ldr	r2, [r4, #8]
 2822              	.LVL311:
1421:Generated_Source\PSoC4/CyDMA.c ****     CYDMA_DESCR_BASE.descriptor[channel][descriptor].ctl = regValue | actions;
 2823              		.loc 1 1421 0
 2824 0030 044B     		ldr	r3, .L301
1422:Generated_Source\PSoC4/CyDMA.c **** }
 2825              		.loc 1 1422 0
 2826              		@ sp needed
1421:Generated_Source\PSoC4/CyDMA.c ****     CYDMA_DESCR_BASE.descriptor[channel][descriptor].ctl = regValue | actions;
 2827              		.loc 1 1421 0
 2828 0032 1340     		ands	r3, r2
 2829              	.LVL312:
 2830 0034 1D43     		orrs	r5, r3
 2831              	.LVL313:
 2832 0036 A560     		str	r5, [r4, #8]
 2833              		.loc 1 1422 0
 2834 0038 70BD     		pop	{r4, r5, r6, pc}
 2835              	.LVL314:
 2836              	.L300:
1416:Generated_Source\PSoC4/CyDMA.c ****     CYASSERT((descriptor >= 0) && (descriptor < CYDMA_DESCR_NR));
 2837              		.loc 1 1416 0 discriminator 1
 2838 003a 0020     		movs	r0, #0
 2839              	.LVL315:
 2840 003c FFF7FEFF 		bl	CyHalt
 2841              	.LVL316:
 2842 0040 E4E7     		b	.L294
 2843              	.L302:
 2844 0042 C046     		.align	2
 2845              	.L301:
 2846 0044 FFFFFFD3 		.word	-738197505
 2847 0048 00181040 		.word	1074796544
 2848              		.cfi_endproc
 2849              	.LFE47:
 2850              		.size	CyDmaSetPostCompletionActions, .-CyDmaSetPostCompletionActions
 2851              		.section	.text.CyDmaGetPostCompletionActions,"ax",%progbits
 2852              		.align	2
 2853              		.global	CyDmaGetPostCompletionActions
 2854              		.code	16
 2855              		.thumb_func
 2856              		.type	CyDmaGetPostCompletionActions, %function
 2857              	CyDmaGetPostCompletionActions:
 2858              	.LFB48:
1423:Generated_Source\PSoC4/CyDMA.c **** 
1424:Generated_Source\PSoC4/CyDMA.c **** 
1425:Generated_Source\PSoC4/CyDMA.c **** /*******************************************************************************
1426:Generated_Source\PSoC4/CyDMA.c **** * Function Name: CyDmaGetPostCompletionActions
1427:Generated_Source\PSoC4/CyDMA.c **** ********************************************************************************
1428:Generated_Source\PSoC4/CyDMA.c **** *
1429:Generated_Source\PSoC4/CyDMA.c **** * Summary:
1430:Generated_Source\PSoC4/CyDMA.c **** *  Returns the post descriptor action settings as set by 
1431:Generated_Source\PSoC4/CyDMA.c **** *  CyDmaSetPostCompletionActions() or CyDmaSetConfiguration().
1432:Generated_Source\PSoC4/CyDMA.c **** *
1433:Generated_Source\PSoC4/CyDMA.c **** * Parameters:
1434:Generated_Source\PSoC4/CyDMA.c **** *  channel:    Channel used by this function.
1435:Generated_Source\PSoC4/CyDMA.c **** *  descriptor: Descriptor (0 or 1) modified by this function.
1436:Generated_Source\PSoC4/CyDMA.c **** *                   
1437:Generated_Source\PSoC4/CyDMA.c **** * Return:
ARM GAS  C:\Users\ilya\AppData\Local\Temp\cchJq1OJ.s 			page 79


1438:Generated_Source\PSoC4/CyDMA.c **** *  Post descriptor actions. Refer to the API bit field definitions in
1439:Generated_Source\PSoC4/CyDMA.c **** *  CyDMA_P4.h or the API description in the DMA channel datasheet for more
1440:Generated_Source\PSoC4/CyDMA.c **** *  information.
1441:Generated_Source\PSoC4/CyDMA.c **** *
1442:Generated_Source\PSoC4/CyDMA.c **** *******************************************************************************/
1443:Generated_Source\PSoC4/CyDMA.c **** uint32 CyDmaGetPostCompletionActions(int32 channel, int32 descriptor)
1444:Generated_Source\PSoC4/CyDMA.c **** {
 2859              		.loc 1 1444 0
 2860              		.cfi_startproc
 2861              		@ args = 0, pretend = 0, frame = 0
 2862              		@ frame_needed = 0, uses_anonymous_args = 0
 2863              	.LVL317:
 2864 0000 70B5     		push	{r4, r5, r6, lr}
 2865              		.cfi_def_cfa_offset 16
 2866              		.cfi_offset 4, -16
 2867              		.cfi_offset 5, -12
 2868              		.cfi_offset 6, -8
 2869              		.cfi_offset 14, -4
 2870              		.loc 1 1444 0
 2871 0002 0500     		movs	r5, r0
 2872 0004 0C00     		movs	r4, r1
1445:Generated_Source\PSoC4/CyDMA.c ****     CYASSERT((channel    >= 0) && (channel    < CYDMA_CH_NR));
 2873              		.loc 1 1445 0
 2874 0006 0728     		cmp	r0, #7
 2875 0008 0FD8     		bhi	.L306
 2876              	.LVL318:
 2877              	.L304:
1446:Generated_Source\PSoC4/CyDMA.c ****     CYASSERT((descriptor >= 0) && (descriptor < CYDMA_DESCR_NR));
 2878              		.loc 1 1446 0
 2879 000a 012C     		cmp	r4, #1
 2880 000c 02D9     		bls	.L305
 2881              		.loc 1 1446 0 is_stmt 0 discriminator 1
 2882 000e 0020     		movs	r0, #0
 2883 0010 FFF7FEFF 		bl	CyHalt
 2884              	.LVL319:
 2885              	.L305:
1447:Generated_Source\PSoC4/CyDMA.c **** 
1448:Generated_Source\PSoC4/CyDMA.c ****     return (CYDMA_DESCR_BASE.descriptor[channel][descriptor].ctl & CYDMA_POST_COMPLETE_ACTIONS);
 2886              		.loc 1 1448 0 is_stmt 1
 2887 0014 074B     		ldr	r3, .L307
 2888 0016 6D00     		lsls	r5, r5, #1
 2889              	.LVL320:
 2890 0018 9C46     		mov	ip, r3
 2891 001a B023     		movs	r3, #176
 2892 001c 2C19     		adds	r4, r5, r4
 2893              	.LVL321:
 2894 001e 2401     		lsls	r4, r4, #4
 2895 0020 6444     		add	r4, r4, ip
 2896 0022 A068     		ldr	r0, [r4, #8]
 2897 0024 9B05     		lsls	r3, r3, #22
 2898 0026 1840     		ands	r0, r3
1449:Generated_Source\PSoC4/CyDMA.c **** }
 2899              		.loc 1 1449 0
 2900              		@ sp needed
 2901 0028 70BD     		pop	{r4, r5, r6, pc}
 2902              	.LVL322:
 2903              	.L306:
ARM GAS  C:\Users\ilya\AppData\Local\Temp\cchJq1OJ.s 			page 80


1445:Generated_Source\PSoC4/CyDMA.c ****     CYASSERT((descriptor >= 0) && (descriptor < CYDMA_DESCR_NR));
 2904              		.loc 1 1445 0 discriminator 1
 2905 002a 0020     		movs	r0, #0
 2906              	.LVL323:
 2907 002c FFF7FEFF 		bl	CyHalt
 2908              	.LVL324:
 2909 0030 EBE7     		b	.L304
 2910              	.L308:
 2911 0032 C046     		.align	2
 2912              	.L307:
 2913 0034 00181040 		.word	1074796544
 2914              		.cfi_endproc
 2915              	.LFE48:
 2916              		.size	CyDmaGetPostCompletionActions, .-CyDmaGetPostCompletionActions
 2917              		.data
 2918              		.align	2
 2919              		.set	.LANCHOR0,. + 0
 2920              		.type	CyDmaInterruptCallback, %object
 2921              		.size	CyDmaInterruptCallback, 32
 2922              	CyDmaInterruptCallback:
 2923 0000 00000000 		.word	CyDmaDefaultInterruptCallback
 2924 0004 00000000 		.word	CyDmaDefaultInterruptCallback
 2925 0008 00000000 		.word	CyDmaDefaultInterruptCallback
 2926 000c 00000000 		.word	CyDmaDefaultInterruptCallback
 2927 0010 00000000 		.word	CyDmaDefaultInterruptCallback
 2928 0014 00000000 		.word	CyDmaDefaultInterruptCallback
 2929 0018 00000000 		.word	CyDmaDefaultInterruptCallback
 2930 001c 00000000 		.word	CyDmaDefaultInterruptCallback
 2931              		.bss
 2932              		.align	2
 2933              		.set	.LANCHOR1,. + 0
 2934              		.type	initIntrVector.5006, %object
 2935              		.size	initIntrVector.5006, 1
 2936              	initIntrVector.5006:
 2937 0000 00       		.space	1
 2938 0001 000000   		.space	3
 2939              		.type	CyDmaChannelUsedMask, %object
 2940              		.size	CyDmaChannelUsedMask, 4
 2941              	CyDmaChannelUsedMask:
 2942 0004 00000000 		.space	4
 2943              		.text
 2944              	.Letext0:
 2945              		.file 2 "Generated_Source\\PSoC4\\cytypes.h"
 2946              		.file 3 "Generated_Source\\PSoC4\\CyDMA.h"
 2947              		.file 4 "Generated_Source\\PSoC4\\CyLib.h"
 2948              		.section	.debug_info,"",%progbits
 2949              	.Ldebug_info0:
 2950 0000 66120000 		.4byte	0x1266
 2951 0004 0400     		.2byte	0x4
 2952 0006 00000000 		.4byte	.Ldebug_abbrev0
 2953 000a 04       		.byte	0x4
 2954 000b 01       		.uleb128 0x1
 2955 000c D1000000 		.4byte	.LASF103
 2956 0010 0C       		.byte	0xc
 2957 0011 7B070000 		.4byte	.LASF104
 2958 0015 13060000 		.4byte	.LASF105
 2959 0019 00000000 		.4byte	.Ldebug_ranges0+0
ARM GAS  C:\Users\ilya\AppData\Local\Temp\cchJq1OJ.s 			page 81


 2960 001d 00000000 		.4byte	0
 2961 0021 00000000 		.4byte	.Ldebug_line0
 2962 0025 02       		.uleb128 0x2
 2963 0026 01       		.byte	0x1
 2964 0027 06       		.byte	0x6
 2965 0028 6D010000 		.4byte	.LASF0
 2966 002c 02       		.uleb128 0x2
 2967 002d 01       		.byte	0x1
 2968 002e 08       		.byte	0x8
 2969 002f 31050000 		.4byte	.LASF1
 2970 0033 02       		.uleb128 0x2
 2971 0034 02       		.byte	0x2
 2972 0035 05       		.byte	0x5
 2973 0036 5D050000 		.4byte	.LASF2
 2974 003a 02       		.uleb128 0x2
 2975 003b 02       		.byte	0x2
 2976 003c 07       		.byte	0x7
 2977 003d 15030000 		.4byte	.LASF3
 2978 0041 02       		.uleb128 0x2
 2979 0042 04       		.byte	0x4
 2980 0043 05       		.byte	0x5
 2981 0044 AE010000 		.4byte	.LASF4
 2982 0048 02       		.uleb128 0x2
 2983 0049 04       		.byte	0x4
 2984 004a 07       		.byte	0x7
 2985 004b F8020000 		.4byte	.LASF5
 2986 004f 02       		.uleb128 0x2
 2987 0050 08       		.byte	0x8
 2988 0051 05       		.byte	0x5
 2989 0052 5F010000 		.4byte	.LASF6
 2990 0056 02       		.uleb128 0x2
 2991 0057 08       		.byte	0x8
 2992 0058 07       		.byte	0x7
 2993 0059 8B000000 		.4byte	.LASF7
 2994 005d 03       		.uleb128 0x3
 2995 005e 04       		.byte	0x4
 2996 005f 05       		.byte	0x5
 2997 0060 696E7400 		.ascii	"int\000"
 2998 0064 02       		.uleb128 0x2
 2999 0065 04       		.byte	0x4
 3000 0066 07       		.byte	0x7
 3001 0067 D4020000 		.4byte	.LASF8
 3002 006b 04       		.uleb128 0x4
 3003 006c 1C020000 		.4byte	.LASF9
 3004 0070 02       		.byte	0x2
 3005 0071 D201     		.2byte	0x1d2
 3006 0073 2C000000 		.4byte	0x2c
 3007 0077 04       		.uleb128 0x4
 3008 0078 59020000 		.4byte	.LASF10
 3009 007c 02       		.byte	0x2
 3010 007d D401     		.2byte	0x1d4
 3011 007f 48000000 		.4byte	0x48
 3012 0083 04       		.uleb128 0x4
 3013 0084 91010000 		.4byte	.LASF11
 3014 0088 02       		.byte	0x2
 3015 0089 D701     		.2byte	0x1d7
 3016 008b 41000000 		.4byte	0x41
ARM GAS  C:\Users\ilya\AppData\Local\Temp\cchJq1OJ.s 			page 82


 3017 008f 02       		.uleb128 0x2
 3018 0090 04       		.byte	0x4
 3019 0091 04       		.byte	0x4
 3020 0092 ED040000 		.4byte	.LASF12
 3021 0096 02       		.uleb128 0x2
 3022 0097 08       		.byte	0x8
 3023 0098 04       		.byte	0x4
 3024 0099 36020000 		.4byte	.LASF13
 3025 009d 02       		.uleb128 0x2
 3026 009e 01       		.byte	0x1
 3027 009f 08       		.byte	0x8
 3028 00a0 E0050000 		.4byte	.LASF14
 3029 00a4 04       		.uleb128 0x4
 3030 00a5 12070000 		.4byte	.LASF15
 3031 00a9 02       		.byte	0x2
 3032 00aa 7402     		.2byte	0x274
 3033 00ac 48000000 		.4byte	0x48
 3034 00b0 04       		.uleb128 0x4
 3035 00b1 BE030000 		.4byte	.LASF16
 3036 00b5 02       		.byte	0x2
 3037 00b6 7E02     		.2byte	0x27e
 3038 00b8 BC000000 		.4byte	0xbc
 3039 00bc 05       		.uleb128 0x5
 3040 00bd 77000000 		.4byte	0x77
 3041 00c1 04       		.uleb128 0x4
 3042 00c2 FF050000 		.4byte	.LASF17
 3043 00c6 02       		.byte	0x2
 3044 00c7 8E02     		.2byte	0x28e
 3045 00c9 CD000000 		.4byte	0xcd
 3046 00cd 06       		.uleb128 0x6
 3047 00ce 04       		.byte	0x4
 3048 00cf D3000000 		.4byte	0xd3
 3049 00d3 07       		.uleb128 0x7
 3050 00d4 08       		.uleb128 0x8
 3051 00d5 20       		.byte	0x20
 3052 00d6 03       		.byte	0x3
 3053 00d7 26       		.byte	0x26
 3054 00d8 E9000000 		.4byte	0xe9
 3055 00dc 09       		.uleb128 0x9
 3056 00dd 63746C00 		.ascii	"ctl\000"
 3057 00e1 03       		.byte	0x3
 3058 00e2 28       		.byte	0x28
 3059 00e3 E9000000 		.4byte	0xe9
 3060 00e7 00       		.byte	0
 3061 00e8 00       		.byte	0
 3062 00e9 0A       		.uleb128 0xa
 3063 00ea 77000000 		.4byte	0x77
 3064 00ee F9000000 		.4byte	0xf9
 3065 00f2 0B       		.uleb128 0xb
 3066 00f3 F9000000 		.4byte	0xf9
 3067 00f7 07       		.byte	0x7
 3068 00f8 00       		.byte	0
 3069 00f9 02       		.uleb128 0x2
 3070 00fa 04       		.byte	0x4
 3071 00fb 07       		.byte	0x7
 3072 00fc F7030000 		.4byte	.LASF18
 3073 0100 0C       		.uleb128 0xc
ARM GAS  C:\Users\ilya\AppData\Local\Temp\cchJq1OJ.s 			page 83


 3074 0101 B7010000 		.4byte	.LASF19
 3075 0105 03       		.byte	0x3
 3076 0106 29       		.byte	0x29
 3077 0107 D4000000 		.4byte	0xd4
 3078 010b 08       		.uleb128 0x8
 3079 010c 10       		.byte	0x10
 3080 010d 03       		.byte	0x3
 3081 010e 2C       		.byte	0x2c
 3082 010f 44010000 		.4byte	0x144
 3083 0113 09       		.uleb128 0x9
 3084 0114 73726300 		.ascii	"src\000"
 3085 0118 03       		.byte	0x3
 3086 0119 2E       		.byte	0x2e
 3087 011a 44010000 		.4byte	0x144
 3088 011e 00       		.byte	0
 3089 011f 09       		.uleb128 0x9
 3090 0120 64737400 		.ascii	"dst\000"
 3091 0124 03       		.byte	0x3
 3092 0125 2F       		.byte	0x2f
 3093 0126 44010000 		.4byte	0x144
 3094 012a 04       		.byte	0x4
 3095 012b 09       		.uleb128 0x9
 3096 012c 63746C00 		.ascii	"ctl\000"
 3097 0130 03       		.byte	0x3
 3098 0131 30       		.byte	0x30
 3099 0132 77000000 		.4byte	0x77
 3100 0136 08       		.byte	0x8
 3101 0137 0D       		.uleb128 0xd
 3102 0138 F3060000 		.4byte	.LASF20
 3103 013c 03       		.byte	0x3
 3104 013d 31       		.byte	0x31
 3105 013e 77000000 		.4byte	0x77
 3106 0142 0C       		.byte	0xc
 3107 0143 00       		.byte	0
 3108 0144 0E       		.uleb128 0xe
 3109 0145 04       		.byte	0x4
 3110 0146 0C       		.uleb128 0xc
 3111 0147 FA060000 		.4byte	.LASF21
 3112 014b 03       		.byte	0x3
 3113 014c 32       		.byte	0x32
 3114 014d 0B010000 		.4byte	0x10b
 3115 0151 0F       		.uleb128 0xf
 3116 0152 0001     		.2byte	0x100
 3117 0154 03       		.byte	0x3
 3118 0155 38       		.byte	0x38
 3119 0156 67010000 		.4byte	0x167
 3120 015a 0D       		.uleb128 0xd
 3121 015b C9050000 		.4byte	.LASF22
 3122 015f 03       		.byte	0x3
 3123 0160 3A       		.byte	0x3a
 3124 0161 67010000 		.4byte	0x167
 3125 0165 00       		.byte	0
 3126 0166 00       		.byte	0
 3127 0167 0A       		.uleb128 0xa
 3128 0168 46010000 		.4byte	0x146
 3129 016c 7D010000 		.4byte	0x17d
 3130 0170 0B       		.uleb128 0xb
ARM GAS  C:\Users\ilya\AppData\Local\Temp\cchJq1OJ.s 			page 84


 3131 0171 F9000000 		.4byte	0xf9
 3132 0175 07       		.byte	0x7
 3133 0176 0B       		.uleb128 0xb
 3134 0177 F9000000 		.4byte	0xf9
 3135 017b 01       		.byte	0x1
 3136 017c 00       		.byte	0
 3137 017d 0C       		.uleb128 0xc
 3138 017e 4B070000 		.4byte	.LASF23
 3139 0182 03       		.byte	0x3
 3140 0183 3B       		.byte	0x3b
 3141 0184 51010000 		.4byte	0x151
 3142 0188 08       		.uleb128 0x8
 3143 0189 20       		.byte	0x20
 3144 018a 03       		.byte	0x3
 3145 018b 3E       		.byte	0x3e
 3146 018c F1010000 		.4byte	0x1f1
 3147 0190 0D       		.uleb128 0xd
 3148 0191 DD040000 		.4byte	.LASF24
 3149 0195 03       		.byte	0x3
 3150 0196 44       		.byte	0x44
 3151 0197 77000000 		.4byte	0x77
 3152 019b 00       		.byte	0
 3153 019c 0D       		.uleb128 0xd
 3154 019d 0C020000 		.4byte	.LASF25
 3155 01a1 03       		.byte	0x3
 3156 01a2 49       		.byte	0x49
 3157 01a3 83000000 		.4byte	0x83
 3158 01a7 04       		.byte	0x4
 3159 01a8 0D       		.uleb128 0xd
 3160 01a9 91040000 		.4byte	.LASF26
 3161 01ad 03       		.byte	0x3
 3162 01ae 4C       		.byte	0x4c
 3163 01af 77000000 		.4byte	0x77
 3164 01b3 08       		.byte	0x8
 3165 01b4 0D       		.uleb128 0xd
 3166 01b5 9E060000 		.4byte	.LASF27
 3167 01b9 03       		.byte	0x3
 3168 01ba 51       		.byte	0x51
 3169 01bb 77000000 		.4byte	0x77
 3170 01bf 0C       		.byte	0xc
 3171 01c0 0D       		.uleb128 0xd
 3172 01c1 60020000 		.4byte	.LASF28
 3173 01c5 03       		.byte	0x3
 3174 01c6 54       		.byte	0x54
 3175 01c7 77000000 		.4byte	0x77
 3176 01cb 10       		.byte	0x10
 3177 01cc 0D       		.uleb128 0xd
 3178 01cd C7020000 		.4byte	.LASF29
 3179 01d1 03       		.byte	0x3
 3180 01d2 57       		.byte	0x57
 3181 01d3 77000000 		.4byte	0x77
 3182 01d7 14       		.byte	0x14
 3183 01d8 0D       		.uleb128 0xd
 3184 01d9 A2070000 		.4byte	.LASF30
 3185 01dd 03       		.byte	0x3
 3186 01de 5A       		.byte	0x5a
 3187 01df 77000000 		.4byte	0x77
ARM GAS  C:\Users\ilya\AppData\Local\Temp\cchJq1OJ.s 			page 85


 3188 01e3 18       		.byte	0x18
 3189 01e4 0D       		.uleb128 0xd
 3190 01e5 9A070000 		.4byte	.LASF31
 3191 01e9 03       		.byte	0x3
 3192 01ea 5D       		.byte	0x5d
 3193 01eb 77000000 		.4byte	0x77
 3194 01ef 1C       		.byte	0x1c
 3195 01f0 00       		.byte	0
 3196 01f1 0C       		.uleb128 0xc
 3197 01f2 9E020000 		.4byte	.LASF32
 3198 01f6 03       		.byte	0x3
 3199 01f7 5F       		.byte	0x5f
 3200 01f8 88010000 		.4byte	0x188
 3201 01fc 0C       		.uleb128 0xc
 3202 01fd F3040000 		.4byte	.LASF33
 3203 0201 03       		.byte	0x3
 3204 0202 67       		.byte	0x67
 3205 0203 CD000000 		.4byte	0xcd
 3206 0207 02       		.uleb128 0x2
 3207 0208 08       		.byte	0x8
 3208 0209 04       		.byte	0x4
 3209 020a 00040000 		.4byte	.LASF34
 3210 020e 10       		.uleb128 0x10
 3211 020f 00000000 		.4byte	.LASF106
 3212 0213 01       		.byte	0x1
 3213 0214 E3       		.byte	0xe3
 3214 0215 01       		.byte	0x1
 3215 0216 26020000 		.4byte	0x226
 3216 021a 11       		.uleb128 0x11
 3217 021b A2000000 		.4byte	.LASF107
 3218 021f 01       		.byte	0x1
 3219 0220 E3       		.byte	0xe3
 3220 0221 C1000000 		.4byte	0xc1
 3221 0225 00       		.byte	0
 3222 0226 12       		.uleb128 0x12
 3223 0227 BD040000 		.4byte	.LASF37
 3224 022b 01       		.byte	0x1
 3225 022c 9401     		.2byte	0x194
 3226 022e 00000000 		.4byte	.LFB15
 3227 0232 3C000000 		.4byte	.LFE15-.LFB15
 3228 0236 01       		.uleb128 0x1
 3229 0237 9C       		.byte	0x9c
 3230 0238 5D020000 		.4byte	0x25d
 3231 023c 13       		.uleb128 0x13
 3232 023d 0C040000 		.4byte	.LASF35
 3233 0241 01       		.byte	0x1
 3234 0242 9601     		.2byte	0x196
 3235 0244 77000000 		.4byte	0x77
 3236 0248 00000000 		.4byte	.LLST0
 3237 024c 13       		.uleb128 0x13
 3238 024d 74000000 		.4byte	.LASF36
 3239 0251 01       		.byte	0x1
 3240 0252 9701     		.2byte	0x197
 3241 0254 77000000 		.4byte	0x77
 3242 0258 13000000 		.4byte	.LLST1
 3243 025c 00       		.byte	0
 3244 025d 14       		.uleb128 0x14
ARM GAS  C:\Users\ilya\AppData\Local\Temp\cchJq1OJ.s 			page 86


 3245 025e 11040000 		.4byte	.LASF108
 3246 0262 01       		.byte	0x1
 3247 0263 BB01     		.2byte	0x1bb
 3248 0265 00000000 		.4byte	.LFB16
 3249 0269 0A000000 		.4byte	.LFE16-.LFB16
 3250 026d 01       		.uleb128 0x1
 3251 026e 9C       		.byte	0x9c
 3252 026f 83020000 		.4byte	0x283
 3253 0273 15       		.uleb128 0x15
 3254 0274 08000000 		.4byte	.LVL7
 3255 0278 48120000 		.4byte	0x1248
 3256 027c 16       		.uleb128 0x16
 3257 027d 01       		.uleb128 0x1
 3258 027e 50       		.byte	0x50
 3259 027f 01       		.uleb128 0x1
 3260 0280 30       		.byte	0x30
 3261 0281 00       		.byte	0
 3262 0282 00       		.byte	0
 3263 0283 17       		.uleb128 0x17
 3264 0284 92060000 		.4byte	.LASF38
 3265 0288 01       		.byte	0x1
 3266 0289 3E       		.byte	0x3e
 3267 028a 00000000 		.4byte	.LFB1
 3268 028e 34000000 		.4byte	.LFE1-.LFB1
 3269 0292 01       		.uleb128 0x1
 3270 0293 9C       		.byte	0x9c
 3271 0294 F3020000 		.4byte	0x2f3
 3272 0298 18       		.uleb128 0x18
 3273 0299 E3010000 		.4byte	.LASF39
 3274 029d 01       		.byte	0x1
 3275 029e 40       		.byte	0x40
 3276 029f 6B000000 		.4byte	0x6b
 3277 02a3 05       		.uleb128 0x5
 3278 02a4 03       		.byte	0x3
 3279 02a5 00000000 		.4byte	initIntrVector.5006
 3280 02a9 19       		.uleb128 0x19
 3281 02aa 0E020000 		.4byte	0x20e
 3282 02ae 0A000000 		.4byte	.LBB4
 3283 02b2 08000000 		.4byte	.LBE4-.LBB4
 3284 02b6 01       		.byte	0x1
 3285 02b7 44       		.byte	0x44
 3286 02b8 DE020000 		.4byte	0x2de
 3287 02bc 1A       		.uleb128 0x1a
 3288 02bd 1A020000 		.4byte	0x21a
 3289 02c1 27000000 		.4byte	.LLST2
 3290 02c5 15       		.uleb128 0x15
 3291 02c6 12000000 		.4byte	.LVL9
 3292 02ca 53120000 		.4byte	0x1253
 3293 02ce 16       		.uleb128 0x16
 3294 02cf 01       		.uleb128 0x1
 3295 02d0 50       		.byte	0x50
 3296 02d1 01       		.uleb128 0x1
 3297 02d2 3D       		.byte	0x3d
 3298 02d3 16       		.uleb128 0x16
 3299 02d4 01       		.uleb128 0x1
 3300 02d5 51       		.byte	0x51
 3301 02d6 05       		.uleb128 0x5
ARM GAS  C:\Users\ilya\AppData\Local\Temp\cchJq1OJ.s 			page 87


 3302 02d7 03       		.byte	0x3
 3303 02d8 00000000 		.4byte	CyDmaInterrupt
 3304 02dc 00       		.byte	0
 3305 02dd 00       		.byte	0
 3306 02de 15       		.uleb128 0x15
 3307 02df 1A000000 		.4byte	.LVL10
 3308 02e3 5E120000 		.4byte	0x125e
 3309 02e7 16       		.uleb128 0x16
 3310 02e8 01       		.uleb128 0x1
 3311 02e9 50       		.byte	0x50
 3312 02ea 01       		.uleb128 0x1
 3313 02eb 3D       		.byte	0x3d
 3314 02ec 16       		.uleb128 0x16
 3315 02ed 01       		.uleb128 0x1
 3316 02ee 51       		.byte	0x51
 3317 02ef 01       		.uleb128 0x1
 3318 02f0 33       		.byte	0x33
 3319 02f1 00       		.byte	0
 3320 02f2 00       		.byte	0
 3321 02f3 1B       		.uleb128 0x1b
 3322 02f4 22020000 		.4byte	.LASF109
 3323 02f8 01       		.byte	0x1
 3324 02f9 5D       		.byte	0x5d
 3325 02fa 00000000 		.4byte	.LFB2
 3326 02fe 10000000 		.4byte	.LFE2-.LFB2
 3327 0302 01       		.uleb128 0x1
 3328 0303 9C       		.byte	0x9c
 3329 0304 1C       		.uleb128 0x1c
 3330 0305 22050000 		.4byte	.LASF40
 3331 0309 01       		.byte	0x1
 3332 030a 79       		.byte	0x79
 3333 030b 77000000 		.4byte	0x77
 3334 030f 00000000 		.4byte	.LFB3
 3335 0313 0C000000 		.4byte	.LFE3-.LFB3
 3336 0317 01       		.uleb128 0x1
 3337 0318 9C       		.byte	0x9c
 3338 0319 1C       		.uleb128 0x1c
 3339 031a E1020000 		.4byte	.LASF41
 3340 031e 01       		.byte	0x1
 3341 031f 8E       		.byte	0x8e
 3342 0320 77000000 		.4byte	0x77
 3343 0324 00000000 		.4byte	.LFB4
 3344 0328 0C000000 		.4byte	.LFE4-.LFB4
 3345 032c 01       		.uleb128 0x1
 3346 032d 9C       		.byte	0x9c
 3347 032e 1C       		.uleb128 0x1c
 3348 032f 2B000000 		.4byte	.LASF42
 3349 0333 01       		.byte	0x1
 3350 0334 AA       		.byte	0xaa
 3351 0335 44010000 		.4byte	0x144
 3352 0339 00000000 		.4byte	.LFB5
 3353 033d 0C000000 		.4byte	.LFE5-.LFB5
 3354 0341 01       		.uleb128 0x1
 3355 0342 9C       		.byte	0x9c
 3356 0343 1C       		.uleb128 0x1c
 3357 0344 C2060000 		.4byte	.LASF43
 3358 0348 01       		.byte	0x1
ARM GAS  C:\Users\ilya\AppData\Local\Temp\cchJq1OJ.s 			page 88


 3359 0349 C6       		.byte	0xc6
 3360 034a 44010000 		.4byte	0x144
 3361 034e 00000000 		.4byte	.LFB6
 3362 0352 0C000000 		.4byte	.LFE6-.LFB6
 3363 0356 01       		.uleb128 0x1
 3364 0357 9C       		.byte	0x9c
 3365 0358 1D       		.uleb128 0x1d
 3366 0359 0E020000 		.4byte	0x20e
 3367 035d 00000000 		.4byte	.LFB7
 3368 0361 0C000000 		.4byte	.LFE7-.LFB7
 3369 0365 01       		.uleb128 0x1
 3370 0366 9C       		.byte	0x9c
 3371 0367 8B030000 		.4byte	0x38b
 3372 036b 1A       		.uleb128 0x1a
 3373 036c 1A020000 		.4byte	0x21a
 3374 0370 3F000000 		.4byte	.LLST3
 3375 0374 15       		.uleb128 0x15
 3376 0375 0A000000 		.4byte	.LVL13
 3377 0379 53120000 		.4byte	0x1253
 3378 037d 16       		.uleb128 0x16
 3379 037e 01       		.uleb128 0x1
 3380 037f 50       		.byte	0x50
 3381 0380 01       		.uleb128 0x1
 3382 0381 3D       		.byte	0x3d
 3383 0382 16       		.uleb128 0x16
 3384 0383 01       		.uleb128 0x1
 3385 0384 51       		.byte	0x51
 3386 0385 03       		.uleb128 0x3
 3387 0386 F3       		.byte	0xf3
 3388 0387 01       		.uleb128 0x1
 3389 0388 50       		.byte	0x50
 3390 0389 00       		.byte	0
 3391 038a 00       		.byte	0
 3392 038b 1C       		.uleb128 0x1c
 3393 038c 79040000 		.4byte	.LASF44
 3394 0390 01       		.byte	0x1
 3395 0391 F7       		.byte	0xf7
 3396 0392 77000000 		.4byte	0x77
 3397 0396 00000000 		.4byte	.LFB8
 3398 039a 0C000000 		.4byte	.LFE8-.LFB8
 3399 039e 01       		.uleb128 0x1
 3400 039f 9C       		.byte	0x9c
 3401 03a0 1E       		.uleb128 0x1e
 3402 03a1 E5050000 		.4byte	.LASF45
 3403 03a5 01       		.byte	0x1
 3404 03a6 0B01     		.2byte	0x10b
 3405 03a8 00000000 		.4byte	.LFB9
 3406 03ac 0C000000 		.4byte	.LFE9-.LFB9
 3407 03b0 01       		.uleb128 0x1
 3408 03b1 9C       		.byte	0x9c
 3409 03b2 C5030000 		.4byte	0x3c5
 3410 03b6 1F       		.uleb128 0x1f
 3411 03b7 67050000 		.4byte	.LASF47
 3412 03bb 01       		.byte	0x1
 3413 03bc 0B01     		.2byte	0x10b
 3414 03be 77000000 		.4byte	0x77
 3415 03c2 01       		.uleb128 0x1
ARM GAS  C:\Users\ilya\AppData\Local\Temp\cchJq1OJ.s 			page 89


 3416 03c3 50       		.byte	0x50
 3417 03c4 00       		.byte	0
 3418 03c5 1E       		.uleb128 0x1e
 3419 03c6 82020000 		.4byte	.LASF46
 3420 03ca 01       		.byte	0x1
 3421 03cb 1F01     		.2byte	0x11f
 3422 03cd 00000000 		.4byte	.LFB10
 3423 03d1 0C000000 		.4byte	.LFE10-.LFB10
 3424 03d5 01       		.uleb128 0x1
 3425 03d6 9C       		.byte	0x9c
 3426 03d7 EA030000 		.4byte	0x3ea
 3427 03db 1F       		.uleb128 0x1f
 3428 03dc 67050000 		.4byte	.LASF47
 3429 03e0 01       		.byte	0x1
 3430 03e1 1F01     		.2byte	0x11f
 3431 03e3 77000000 		.4byte	0x77
 3432 03e7 01       		.uleb128 0x1
 3433 03e8 50       		.byte	0x50
 3434 03e9 00       		.byte	0
 3435 03ea 20       		.uleb128 0x20
 3436 03eb 75050000 		.4byte	.LASF48
 3437 03ef 01       		.byte	0x1
 3438 03f0 3301     		.2byte	0x133
 3439 03f2 77000000 		.4byte	0x77
 3440 03f6 00000000 		.4byte	.LFB11
 3441 03fa 0C000000 		.4byte	.LFE11-.LFB11
 3442 03fe 01       		.uleb128 0x1
 3443 03ff 9C       		.byte	0x9c
 3444 0400 20       		.uleb128 0x20
 3445 0401 3F050000 		.4byte	.LASF49
 3446 0405 01       		.byte	0x1
 3447 0406 4701     		.2byte	0x147
 3448 0408 77000000 		.4byte	0x77
 3449 040c 00000000 		.4byte	.LFB12
 3450 0410 0C000000 		.4byte	.LFE12-.LFB12
 3451 0414 01       		.uleb128 0x1
 3452 0415 9C       		.byte	0x9c
 3453 0416 21       		.uleb128 0x21
 3454 0417 5F040000 		.4byte	.LASF53
 3455 041b 01       		.byte	0x1
 3456 041c 5E01     		.2byte	0x15e
 3457 041e FC010000 		.4byte	0x1fc
 3458 0422 00000000 		.4byte	.LFB13
 3459 0426 20000000 		.4byte	.LFE13-.LFB13
 3460 042a 01       		.uleb128 0x1
 3461 042b 9C       		.byte	0x9c
 3462 042c 6E040000 		.4byte	0x46e
 3463 0430 22       		.uleb128 0x22
 3464 0431 A0050000 		.4byte	.LASF50
 3465 0435 01       		.byte	0x1
 3466 0436 5E01     		.2byte	0x15e
 3467 0438 83000000 		.4byte	0x83
 3468 043c 6B000000 		.4byte	.LLST4
 3469 0440 22       		.uleb128 0x22
 3470 0441 6E030000 		.4byte	.LASF51
 3471 0445 01       		.byte	0x1
 3472 0446 5E01     		.2byte	0x15e
ARM GAS  C:\Users\ilya\AppData\Local\Temp\cchJq1OJ.s 			page 90


 3473 0448 FC010000 		.4byte	0x1fc
 3474 044c 97000000 		.4byte	.LLST5
 3475 0450 23       		.uleb128 0x23
 3476 0451 6C020000 		.4byte	.LASF52
 3477 0455 01       		.byte	0x1
 3478 0456 6001     		.2byte	0x160
 3479 0458 FC010000 		.4byte	0x1fc
 3480 045c 01       		.uleb128 0x1
 3481 045d 50       		.byte	0x50
 3482 045e 15       		.uleb128 0x15
 3483 045f 10000000 		.4byte	.LVL18
 3484 0463 48120000 		.4byte	0x1248
 3485 0467 16       		.uleb128 0x16
 3486 0468 01       		.uleb128 0x1
 3487 0469 50       		.byte	0x50
 3488 046a 01       		.uleb128 0x1
 3489 046b 30       		.byte	0x30
 3490 046c 00       		.byte	0
 3491 046d 00       		.byte	0
 3492 046e 21       		.uleb128 0x21
 3493 046f F2010000 		.4byte	.LASF54
 3494 0473 01       		.byte	0x1
 3495 0474 7901     		.2byte	0x179
 3496 0476 FC010000 		.4byte	0x1fc
 3497 047a 00000000 		.4byte	.LFB14
 3498 047e 1C000000 		.4byte	.LFE14-.LFB14
 3499 0482 01       		.uleb128 0x1
 3500 0483 9C       		.byte	0x9c
 3501 0484 A8040000 		.4byte	0x4a8
 3502 0488 22       		.uleb128 0x22
 3503 0489 A0050000 		.4byte	.LASF50
 3504 048d 01       		.byte	0x1
 3505 048e 7901     		.2byte	0x179
 3506 0490 83000000 		.4byte	0x83
 3507 0494 C7000000 		.4byte	.LLST6
 3508 0498 15       		.uleb128 0x15
 3509 0499 0E000000 		.4byte	.LVL24
 3510 049d 48120000 		.4byte	0x1248
 3511 04a1 16       		.uleb128 0x16
 3512 04a2 01       		.uleb128 0x1
 3513 04a3 50       		.byte	0x50
 3514 04a4 01       		.uleb128 0x1
 3515 04a5 30       		.byte	0x30
 3516 04a6 00       		.byte	0
 3517 04a7 00       		.byte	0
 3518 04a8 21       		.uleb128 0x21
 3519 04a9 BC050000 		.4byte	.LASF55
 3520 04ad 01       		.byte	0x1
 3521 04ae D801     		.2byte	0x1d8
 3522 04b0 83000000 		.4byte	0x83
 3523 04b4 00000000 		.4byte	.LFB17
 3524 04b8 64000000 		.4byte	.LFE17-.LFB17
 3525 04bc 01       		.uleb128 0x1
 3526 04bd 9C       		.byte	0x9c
 3527 04be E3040000 		.4byte	0x4e3
 3528 04c2 13       		.uleb128 0x13
 3529 04c3 A0050000 		.4byte	.LASF50
ARM GAS  C:\Users\ilya\AppData\Local\Temp\cchJq1OJ.s 			page 91


 3530 04c7 01       		.byte	0x1
 3531 04c8 DA01     		.2byte	0x1da
 3532 04ca 83000000 		.4byte	0x83
 3533 04ce F3000000 		.4byte	.LLST7
 3534 04d2 13       		.uleb128 0x13
 3535 04d3 D4050000 		.4byte	.LASF56
 3536 04d7 01       		.byte	0x1
 3537 04d8 DB01     		.2byte	0x1db
 3538 04da 77000000 		.4byte	0x77
 3539 04de BB010000 		.4byte	.LLST8
 3540 04e2 00       		.byte	0
 3541 04e3 21       		.uleb128 0x21
 3542 04e4 C2070000 		.4byte	.LASF57
 3543 04e8 01       		.byte	0x1
 3544 04e9 FC01     		.2byte	0x1fc
 3545 04eb A4000000 		.4byte	0xa4
 3546 04ef 00000000 		.4byte	.LFB18
 3547 04f3 24000000 		.4byte	.LFE18-.LFB18
 3548 04f7 01       		.uleb128 0x1
 3549 04f8 9C       		.byte	0x9c
 3550 04f9 3D050000 		.4byte	0x53d
 3551 04fd 22       		.uleb128 0x22
 3552 04fe A0050000 		.4byte	.LASF50
 3553 0502 01       		.byte	0x1
 3554 0503 FC01     		.2byte	0x1fc
 3555 0505 83000000 		.4byte	0x83
 3556 0509 89020000 		.4byte	.LLST9
 3557 050d 13       		.uleb128 0x13
 3558 050e D4050000 		.4byte	.LASF56
 3559 0512 01       		.byte	0x1
 3560 0513 FE01     		.2byte	0x1fe
 3561 0515 77000000 		.4byte	0x77
 3562 0519 B5020000 		.4byte	.LLST10
 3563 051d 13       		.uleb128 0x13
 3564 051e 2F020000 		.4byte	.LASF58
 3565 0522 01       		.byte	0x1
 3566 0523 FF01     		.2byte	0x1ff
 3567 0525 A4000000 		.4byte	0xa4
 3568 0529 D7020000 		.4byte	.LLST11
 3569 052d 15       		.uleb128 0x15
 3570 052e 0E000000 		.4byte	.LVL46
 3571 0532 48120000 		.4byte	0x1248
 3572 0536 16       		.uleb128 0x16
 3573 0537 01       		.uleb128 0x1
 3574 0538 50       		.byte	0x50
 3575 0539 01       		.uleb128 0x1
 3576 053a 30       		.byte	0x30
 3577 053b 00       		.byte	0
 3578 053c 00       		.byte	0
 3579 053d 1E       		.uleb128 0x1e
 3580 053e 66000000 		.4byte	.LASF59
 3581 0542 01       		.byte	0x1
 3582 0543 2502     		.2byte	0x225
 3583 0545 00000000 		.4byte	.LFB19
 3584 0549 28000000 		.4byte	.LFE19-.LFB19
 3585 054d 01       		.uleb128 0x1
 3586 054e 9C       		.byte	0x9c
ARM GAS  C:\Users\ilya\AppData\Local\Temp\cchJq1OJ.s 			page 92


 3587 054f 73050000 		.4byte	0x573
 3588 0553 22       		.uleb128 0x22
 3589 0554 A0050000 		.4byte	.LASF50
 3590 0558 01       		.byte	0x1
 3591 0559 2502     		.2byte	0x225
 3592 055b 83000000 		.4byte	0x83
 3593 055f F7020000 		.4byte	.LLST12
 3594 0563 15       		.uleb128 0x15
 3595 0564 0E000000 		.4byte	.LVL52
 3596 0568 48120000 		.4byte	0x1248
 3597 056c 16       		.uleb128 0x16
 3598 056d 01       		.uleb128 0x1
 3599 056e 50       		.byte	0x50
 3600 056f 01       		.uleb128 0x1
 3601 0570 30       		.byte	0x30
 3602 0571 00       		.byte	0
 3603 0572 00       		.byte	0
 3604 0573 1E       		.uleb128 0x1e
 3605 0574 44000000 		.4byte	.LASF60
 3606 0578 01       		.byte	0x1
 3607 0579 3E02     		.2byte	0x23e
 3608 057b 00000000 		.4byte	.LFB20
 3609 057f 24000000 		.4byte	.LFE20-.LFB20
 3610 0583 01       		.uleb128 0x1
 3611 0584 9C       		.byte	0x9c
 3612 0585 A9050000 		.4byte	0x5a9
 3613 0589 22       		.uleb128 0x22
 3614 058a A0050000 		.4byte	.LASF50
 3615 058e 01       		.byte	0x1
 3616 058f 3E02     		.2byte	0x23e
 3617 0591 83000000 		.4byte	0x83
 3618 0595 23030000 		.4byte	.LLST13
 3619 0599 15       		.uleb128 0x15
 3620 059a 0E000000 		.4byte	.LVL56
 3621 059e 48120000 		.4byte	0x1248
 3622 05a2 16       		.uleb128 0x16
 3623 05a3 01       		.uleb128 0x1
 3624 05a4 50       		.byte	0x50
 3625 05a5 01       		.uleb128 0x1
 3626 05a6 30       		.byte	0x30
 3627 05a7 00       		.byte	0
 3628 05a8 00       		.byte	0
 3629 05a9 1E       		.uleb128 0x1e
 3630 05aa 29070000 		.4byte	.LASF61
 3631 05ae 01       		.byte	0x1
 3632 05af 5502     		.2byte	0x255
 3633 05b1 00000000 		.4byte	.LFB21
 3634 05b5 24000000 		.4byte	.LFE21-.LFB21
 3635 05b9 01       		.uleb128 0x1
 3636 05ba 9C       		.byte	0x9c
 3637 05bb F0050000 		.4byte	0x5f0
 3638 05bf 22       		.uleb128 0x22
 3639 05c0 A0050000 		.4byte	.LASF50
 3640 05c4 01       		.byte	0x1
 3641 05c5 5502     		.2byte	0x255
 3642 05c7 83000000 		.4byte	0x83
 3643 05cb 4F030000 		.4byte	.LLST14
ARM GAS  C:\Users\ilya\AppData\Local\Temp\cchJq1OJ.s 			page 93


 3644 05cf 24       		.uleb128 0x24
 3645 05d0 C8000000 		.4byte	.LASF62
 3646 05d4 01       		.byte	0x1
 3647 05d5 5802     		.2byte	0x258
 3648 05d7 05060000 		.4byte	0x605
 3649 05db 04       		.byte	0x4
 3650 05dc 00       		.byte	0
 3651 05dd 00       		.byte	0
 3652 05de 02       		.byte	0x2
 3653 05df C0       		.byte	0xc0
 3654 05e0 15       		.uleb128 0x15
 3655 05e1 0E000000 		.4byte	.LVL60
 3656 05e5 48120000 		.4byte	0x1248
 3657 05e9 16       		.uleb128 0x16
 3658 05ea 01       		.uleb128 0x1
 3659 05eb 50       		.byte	0x50
 3660 05ec 01       		.uleb128 0x1
 3661 05ed 30       		.byte	0x30
 3662 05ee 00       		.byte	0
 3663 05ef 00       		.byte	0
 3664 05f0 0A       		.uleb128 0xa
 3665 05f1 00060000 		.4byte	0x600
 3666 05f5 00060000 		.4byte	0x600
 3667 05f9 0B       		.uleb128 0xb
 3668 05fa F9000000 		.4byte	0xf9
 3669 05fe 00       		.byte	0
 3670 05ff 00       		.byte	0
 3671 0600 25       		.uleb128 0x25
 3672 0601 77000000 		.4byte	0x77
 3673 0605 25       		.uleb128 0x25
 3674 0606 F0050000 		.4byte	0x5f0
 3675 060a 1E       		.uleb128 0x1e
 3676 060b CC040000 		.4byte	.LASF63
 3677 060f 01       		.byte	0x1
 3678 0610 7302     		.2byte	0x273
 3679 0612 00000000 		.4byte	.LFB22
 3680 0616 3C000000 		.4byte	.LFE22-.LFB22
 3681 061a 01       		.uleb128 0x1
 3682 061b 9C       		.byte	0x9c
 3683 061c 73060000 		.4byte	0x673
 3684 0620 22       		.uleb128 0x22
 3685 0621 A0050000 		.4byte	.LASF50
 3686 0625 01       		.byte	0x1
 3687 0626 7302     		.2byte	0x273
 3688 0628 83000000 		.4byte	0x83
 3689 062c 7B030000 		.4byte	.LLST15
 3690 0630 22       		.uleb128 0x22
 3691 0631 77030000 		.4byte	.LASF64
 3692 0635 01       		.byte	0x1
 3693 0636 7302     		.2byte	0x273
 3694 0638 83000000 		.4byte	0x83
 3695 063c BD030000 		.4byte	.LLST16
 3696 0640 13       		.uleb128 0x13
 3697 0641 79020000 		.4byte	.LASF65
 3698 0645 01       		.byte	0x1
 3699 0646 7502     		.2byte	0x275
 3700 0648 77000000 		.4byte	0x77
ARM GAS  C:\Users\ilya\AppData\Local\Temp\cchJq1OJ.s 			page 94


 3701 064c FF030000 		.4byte	.LLST17
 3702 0650 26       		.uleb128 0x26
 3703 0651 14000000 		.4byte	.LVL64
 3704 0655 48120000 		.4byte	0x1248
 3705 0659 63060000 		.4byte	0x663
 3706 065d 16       		.uleb128 0x16
 3707 065e 01       		.uleb128 0x1
 3708 065f 50       		.byte	0x50
 3709 0660 01       		.uleb128 0x1
 3710 0661 30       		.byte	0x30
 3711 0662 00       		.byte	0
 3712 0663 15       		.uleb128 0x15
 3713 0664 30000000 		.4byte	.LVL71
 3714 0668 48120000 		.4byte	0x1248
 3715 066c 16       		.uleb128 0x16
 3716 066d 01       		.uleb128 0x1
 3717 066e 50       		.byte	0x50
 3718 066f 01       		.uleb128 0x1
 3719 0670 30       		.byte	0x30
 3720 0671 00       		.byte	0
 3721 0672 00       		.byte	0
 3722 0673 21       		.uleb128 0x21
 3723 0674 7A000000 		.4byte	.LASF66
 3724 0678 01       		.byte	0x1
 3725 0679 8D02     		.2byte	0x28d
 3726 067b 83000000 		.4byte	0x83
 3727 067f 00000000 		.4byte	.LFB23
 3728 0683 20000000 		.4byte	.LFE23-.LFB23
 3729 0687 01       		.uleb128 0x1
 3730 0688 9C       		.byte	0x9c
 3731 0689 BD060000 		.4byte	0x6bd
 3732 068d 22       		.uleb128 0x22
 3733 068e A0050000 		.4byte	.LASF50
 3734 0692 01       		.byte	0x1
 3735 0693 8D02     		.2byte	0x28d
 3736 0695 83000000 		.4byte	0x83
 3737 0699 26040000 		.4byte	.LLST18
 3738 069d 13       		.uleb128 0x13
 3739 069e 77030000 		.4byte	.LASF64
 3740 06a2 01       		.byte	0x1
 3741 06a3 8F02     		.2byte	0x28f
 3742 06a5 77000000 		.4byte	0x77
 3743 06a9 52040000 		.4byte	.LLST19
 3744 06ad 15       		.uleb128 0x15
 3745 06ae 0E000000 		.4byte	.LVL74
 3746 06b2 48120000 		.4byte	0x1248
 3747 06b6 16       		.uleb128 0x16
 3748 06b7 01       		.uleb128 0x1
 3749 06b8 50       		.byte	0x50
 3750 06b9 01       		.uleb128 0x1
 3751 06ba 30       		.byte	0x30
 3752 06bb 00       		.byte	0
 3753 06bc 00       		.byte	0
 3754 06bd 1E       		.uleb128 0x1e
 3755 06be B0020000 		.4byte	.LASF67
 3756 06c2 01       		.byte	0x1
 3757 06c3 AB02     		.2byte	0x2ab
ARM GAS  C:\Users\ilya\AppData\Local\Temp\cchJq1OJ.s 			page 95


 3758 06c5 00000000 		.4byte	.LFB24
 3759 06c9 3C000000 		.4byte	.LFE24-.LFB24
 3760 06cd 01       		.uleb128 0x1
 3761 06ce 9C       		.byte	0x9c
 3762 06cf 26070000 		.4byte	0x726
 3763 06d3 22       		.uleb128 0x22
 3764 06d4 A0050000 		.4byte	.LASF50
 3765 06d8 01       		.byte	0x1
 3766 06d9 AB02     		.2byte	0x2ab
 3767 06db 83000000 		.4byte	0x83
 3768 06df 6B040000 		.4byte	.LLST20
 3769 06e3 22       		.uleb128 0x22
 3770 06e4 C9050000 		.4byte	.LASF22
 3771 06e8 01       		.byte	0x1
 3772 06e9 AB02     		.2byte	0x2ab
 3773 06eb 83000000 		.4byte	0x83
 3774 06ef AD040000 		.4byte	.LLST21
 3775 06f3 13       		.uleb128 0x13
 3776 06f4 79020000 		.4byte	.LASF65
 3777 06f8 01       		.byte	0x1
 3778 06f9 AD02     		.2byte	0x2ad
 3779 06fb 77000000 		.4byte	0x77
 3780 06ff EF040000 		.4byte	.LLST22
 3781 0703 26       		.uleb128 0x26
 3782 0704 14000000 		.4byte	.LVL80
 3783 0708 48120000 		.4byte	0x1248
 3784 070c 16070000 		.4byte	0x716
 3785 0710 16       		.uleb128 0x16
 3786 0711 01       		.uleb128 0x1
 3787 0712 50       		.byte	0x50
 3788 0713 01       		.uleb128 0x1
 3789 0714 30       		.byte	0x30
 3790 0715 00       		.byte	0
 3791 0716 15       		.uleb128 0x15
 3792 0717 30000000 		.4byte	.LVL87
 3793 071b 48120000 		.4byte	0x1248
 3794 071f 16       		.uleb128 0x16
 3795 0720 01       		.uleb128 0x1
 3796 0721 50       		.byte	0x50
 3797 0722 01       		.uleb128 0x1
 3798 0723 30       		.byte	0x30
 3799 0724 00       		.byte	0
 3800 0725 00       		.byte	0
 3801 0726 21       		.uleb128 0x21
 3802 0727 97010000 		.4byte	.LASF68
 3803 072b 01       		.byte	0x1
 3804 072c C602     		.2byte	0x2c6
 3805 072e 83000000 		.4byte	0x83
 3806 0732 00000000 		.4byte	.LFB25
 3807 0736 20000000 		.4byte	.LFE25-.LFB25
 3808 073a 01       		.uleb128 0x1
 3809 073b 9C       		.byte	0x9c
 3810 073c 70070000 		.4byte	0x770
 3811 0740 22       		.uleb128 0x22
 3812 0741 A0050000 		.4byte	.LASF50
 3813 0745 01       		.byte	0x1
 3814 0746 C602     		.2byte	0x2c6
ARM GAS  C:\Users\ilya\AppData\Local\Temp\cchJq1OJ.s 			page 96


 3815 0748 83000000 		.4byte	0x83
 3816 074c 16050000 		.4byte	.LLST23
 3817 0750 13       		.uleb128 0x13
 3818 0751 91050000 		.4byte	.LASF69
 3819 0755 01       		.byte	0x1
 3820 0756 C802     		.2byte	0x2c8
 3821 0758 77000000 		.4byte	0x77
 3822 075c 42050000 		.4byte	.LLST24
 3823 0760 15       		.uleb128 0x15
 3824 0761 0E000000 		.4byte	.LVL90
 3825 0765 48120000 		.4byte	0x1248
 3826 0769 16       		.uleb128 0x16
 3827 076a 01       		.uleb128 0x1
 3828 076b 50       		.byte	0x50
 3829 076c 01       		.uleb128 0x1
 3830 076d 30       		.byte	0x30
 3831 076e 00       		.byte	0
 3832 076f 00       		.byte	0
 3833 0770 1E       		.uleb128 0x1e
 3834 0771 B2000000 		.4byte	.LASF70
 3835 0775 01       		.byte	0x1
 3836 0776 E902     		.2byte	0x2e9
 3837 0778 00000000 		.4byte	.LFB26
 3838 077c F4000000 		.4byte	.LFE26-.LFB26
 3839 0780 01       		.uleb128 0x1
 3840 0781 9C       		.byte	0x9c
 3841 0782 71080000 		.4byte	0x871
 3842 0786 22       		.uleb128 0x22
 3843 0787 A0050000 		.4byte	.LASF50
 3844 078b 01       		.byte	0x1
 3845 078c E902     		.2byte	0x2e9
 3846 078e 83000000 		.4byte	0x83
 3847 0792 5B050000 		.4byte	.LLST25
 3848 0796 22       		.uleb128 0x22
 3849 0797 C9050000 		.4byte	.LASF22
 3850 079b 01       		.byte	0x1
 3851 079c E902     		.2byte	0x2e9
 3852 079e 83000000 		.4byte	0x83
 3853 07a2 A8050000 		.4byte	.LLST26
 3854 07a6 22       		.uleb128 0x22
 3855 07a7 0C060000 		.4byte	.LASF71
 3856 07ab 01       		.byte	0x1
 3857 07ac E902     		.2byte	0x2e9
 3858 07ae 71080000 		.4byte	0x871
 3859 07b2 F5050000 		.4byte	.LLST27
 3860 07b6 26       		.uleb128 0x26
 3861 07b7 16000000 		.4byte	.LVL96
 3862 07bb 48120000 		.4byte	0x1248
 3863 07bf C9070000 		.4byte	0x7c9
 3864 07c3 16       		.uleb128 0x16
 3865 07c4 01       		.uleb128 0x1
 3866 07c5 50       		.byte	0x50
 3867 07c6 01       		.uleb128 0x1
 3868 07c7 30       		.byte	0x30
 3869 07c8 00       		.byte	0
 3870 07c9 26       		.uleb128 0x26
 3871 07ca 5C000000 		.4byte	.LVL97
ARM GAS  C:\Users\ilya\AppData\Local\Temp\cchJq1OJ.s 			page 97


 3872 07ce 48120000 		.4byte	0x1248
 3873 07d2 DC070000 		.4byte	0x7dc
 3874 07d6 16       		.uleb128 0x16
 3875 07d7 01       		.uleb128 0x1
 3876 07d8 50       		.byte	0x50
 3877 07d9 01       		.uleb128 0x1
 3878 07da 30       		.byte	0x30
 3879 07db 00       		.byte	0
 3880 07dc 26       		.uleb128 0x26
 3881 07dd 98000000 		.4byte	.LVL102
 3882 07e1 48120000 		.4byte	0x1248
 3883 07e5 EF070000 		.4byte	0x7ef
 3884 07e9 16       		.uleb128 0x16
 3885 07ea 01       		.uleb128 0x1
 3886 07eb 50       		.byte	0x50
 3887 07ec 01       		.uleb128 0x1
 3888 07ed 30       		.byte	0x30
 3889 07ee 00       		.byte	0
 3890 07ef 26       		.uleb128 0x26
 3891 07f0 A0000000 		.4byte	.LVL103
 3892 07f4 48120000 		.4byte	0x1248
 3893 07f8 02080000 		.4byte	0x802
 3894 07fc 16       		.uleb128 0x16
 3895 07fd 01       		.uleb128 0x1
 3896 07fe 50       		.byte	0x50
 3897 07ff 01       		.uleb128 0x1
 3898 0800 30       		.byte	0x30
 3899 0801 00       		.byte	0
 3900 0802 26       		.uleb128 0x26
 3901 0803 A8000000 		.4byte	.LVL104
 3902 0807 48120000 		.4byte	0x1248
 3903 080b 15080000 		.4byte	0x815
 3904 080f 16       		.uleb128 0x16
 3905 0810 01       		.uleb128 0x1
 3906 0811 50       		.byte	0x50
 3907 0812 01       		.uleb128 0x1
 3908 0813 30       		.byte	0x30
 3909 0814 00       		.byte	0
 3910 0815 26       		.uleb128 0x26
 3911 0816 B0000000 		.4byte	.LVL105
 3912 081a 48120000 		.4byte	0x1248
 3913 081e 28080000 		.4byte	0x828
 3914 0822 16       		.uleb128 0x16
 3915 0823 01       		.uleb128 0x1
 3916 0824 50       		.byte	0x50
 3917 0825 01       		.uleb128 0x1
 3918 0826 30       		.byte	0x30
 3919 0827 00       		.byte	0
 3920 0828 26       		.uleb128 0x26
 3921 0829 B8000000 		.4byte	.LVL106
 3922 082d 48120000 		.4byte	0x1248
 3923 0831 3B080000 		.4byte	0x83b
 3924 0835 16       		.uleb128 0x16
 3925 0836 01       		.uleb128 0x1
 3926 0837 50       		.byte	0x50
 3927 0838 01       		.uleb128 0x1
 3928 0839 30       		.byte	0x30
ARM GAS  C:\Users\ilya\AppData\Local\Temp\cchJq1OJ.s 			page 98


 3929 083a 00       		.byte	0
 3930 083b 26       		.uleb128 0x26
 3931 083c C0000000 		.4byte	.LVL107
 3932 0840 48120000 		.4byte	0x1248
 3933 0844 4E080000 		.4byte	0x84e
 3934 0848 16       		.uleb128 0x16
 3935 0849 01       		.uleb128 0x1
 3936 084a 50       		.byte	0x50
 3937 084b 01       		.uleb128 0x1
 3938 084c 30       		.byte	0x30
 3939 084d 00       		.byte	0
 3940 084e 26       		.uleb128 0x26
 3941 084f C8000000 		.4byte	.LVL108
 3942 0853 48120000 		.4byte	0x1248
 3943 0857 61080000 		.4byte	0x861
 3944 085b 16       		.uleb128 0x16
 3945 085c 01       		.uleb128 0x1
 3946 085d 50       		.byte	0x50
 3947 085e 01       		.uleb128 0x1
 3948 085f 30       		.byte	0x30
 3949 0860 00       		.byte	0
 3950 0861 15       		.uleb128 0x15
 3951 0862 D0000000 		.4byte	.LVL111
 3952 0866 48120000 		.4byte	0x1248
 3953 086a 16       		.uleb128 0x16
 3954 086b 01       		.uleb128 0x1
 3955 086c 50       		.byte	0x50
 3956 086d 01       		.uleb128 0x1
 3957 086e 30       		.byte	0x30
 3958 086f 00       		.byte	0
 3959 0870 00       		.byte	0
 3960 0871 06       		.uleb128 0x6
 3961 0872 04       		.byte	0x4
 3962 0873 77080000 		.4byte	0x877
 3963 0877 25       		.uleb128 0x25
 3964 0878 F1010000 		.4byte	0x1f1
 3965 087c 1E       		.uleb128 0x1e
 3966 087d 7A060000 		.4byte	.LASF72
 3967 0881 01       		.byte	0x1
 3968 0882 1903     		.2byte	0x319
 3969 0884 00000000 		.4byte	.LFB27
 3970 0888 34000000 		.4byte	.LFE27-.LFB27
 3971 088c 01       		.uleb128 0x1
 3972 088d 9C       		.byte	0x9c
 3973 088e D5080000 		.4byte	0x8d5
 3974 0892 22       		.uleb128 0x22
 3975 0893 A0050000 		.4byte	.LASF50
 3976 0897 01       		.byte	0x1
 3977 0898 1903     		.2byte	0x319
 3978 089a 83000000 		.4byte	0x83
 3979 089e 42060000 		.4byte	.LLST28
 3980 08a2 22       		.uleb128 0x22
 3981 08a3 C9050000 		.4byte	.LASF22
 3982 08a7 01       		.byte	0x1
 3983 08a8 1903     		.2byte	0x319
 3984 08aa 83000000 		.4byte	0x83
 3985 08ae 84060000 		.4byte	.LLST29
ARM GAS  C:\Users\ilya\AppData\Local\Temp\cchJq1OJ.s 			page 99


 3986 08b2 26       		.uleb128 0x26
 3987 08b3 14000000 		.4byte	.LVL114
 3988 08b7 48120000 		.4byte	0x1248
 3989 08bb C5080000 		.4byte	0x8c5
 3990 08bf 16       		.uleb128 0x16
 3991 08c0 01       		.uleb128 0x1
 3992 08c1 50       		.byte	0x50
 3993 08c2 01       		.uleb128 0x1
 3994 08c3 30       		.byte	0x30
 3995 08c4 00       		.byte	0
 3996 08c5 15       		.uleb128 0x15
 3997 08c6 2E000000 		.4byte	.LVL119
 3998 08ca 48120000 		.4byte	0x1248
 3999 08ce 16       		.uleb128 0x16
 4000 08cf 01       		.uleb128 0x1
 4001 08d0 50       		.byte	0x50
 4002 08d1 01       		.uleb128 0x1
 4003 08d2 30       		.byte	0x30
 4004 08d3 00       		.byte	0
 4005 08d4 00       		.byte	0
 4006 08d5 21       		.uleb128 0x21
 4007 08d6 46040000 		.4byte	.LASF73
 4008 08da 01       		.byte	0x1
 4009 08db 3303     		.2byte	0x333
 4010 08dd 77000000 		.4byte	0x77
 4011 08e1 00000000 		.4byte	.LFB28
 4012 08e5 30000000 		.4byte	.LFE28-.LFB28
 4013 08e9 01       		.uleb128 0x1
 4014 08ea 9C       		.byte	0x9c
 4015 08eb 32090000 		.4byte	0x932
 4016 08ef 22       		.uleb128 0x22
 4017 08f0 A0050000 		.4byte	.LASF50
 4018 08f4 01       		.byte	0x1
 4019 08f5 3303     		.2byte	0x333
 4020 08f7 83000000 		.4byte	0x83
 4021 08fb C6060000 		.4byte	.LLST30
 4022 08ff 22       		.uleb128 0x22
 4023 0900 C9050000 		.4byte	.LASF22
 4024 0904 01       		.byte	0x1
 4025 0905 3303     		.2byte	0x333
 4026 0907 83000000 		.4byte	0x83
 4027 090b 08070000 		.4byte	.LLST31
 4028 090f 26       		.uleb128 0x26
 4029 0910 14000000 		.4byte	.LVL122
 4030 0914 48120000 		.4byte	0x1248
 4031 0918 22090000 		.4byte	0x922
 4032 091c 16       		.uleb128 0x16
 4033 091d 01       		.uleb128 0x1
 4034 091e 50       		.byte	0x50
 4035 091f 01       		.uleb128 0x1
 4036 0920 30       		.byte	0x30
 4037 0921 00       		.byte	0
 4038 0922 15       		.uleb128 0x15
 4039 0923 2A000000 		.4byte	.LVL127
 4040 0927 48120000 		.4byte	0x1248
 4041 092b 16       		.uleb128 0x16
 4042 092c 01       		.uleb128 0x1
ARM GAS  C:\Users\ilya\AppData\Local\Temp\cchJq1OJ.s 			page 100


 4043 092d 50       		.byte	0x50
 4044 092e 01       		.uleb128 0x1
 4045 092f 30       		.byte	0x30
 4046 0930 00       		.byte	0
 4047 0931 00       		.byte	0
 4048 0932 1E       		.uleb128 0x1e
 4049 0933 D0010000 		.4byte	.LASF74
 4050 0937 01       		.byte	0x1
 4051 0938 5003     		.2byte	0x350
 4052 093a 00000000 		.4byte	.LFB29
 4053 093e 30000000 		.4byte	.LFE29-.LFB29
 4054 0942 01       		.uleb128 0x1
 4055 0943 9C       		.byte	0x9c
 4056 0944 9B090000 		.4byte	0x99b
 4057 0948 22       		.uleb128 0x22
 4058 0949 A0050000 		.4byte	.LASF50
 4059 094d 01       		.byte	0x1
 4060 094e 5003     		.2byte	0x350
 4061 0950 83000000 		.4byte	0x83
 4062 0954 4A070000 		.4byte	.LLST32
 4063 0958 22       		.uleb128 0x22
 4064 0959 C9050000 		.4byte	.LASF22
 4065 095d 01       		.byte	0x1
 4066 095e 5003     		.2byte	0x350
 4067 0960 83000000 		.4byte	0x83
 4068 0964 8C070000 		.4byte	.LLST33
 4069 0968 22       		.uleb128 0x22
 4070 0969 3B040000 		.4byte	.LASF75
 4071 096d 01       		.byte	0x1
 4072 096e 5003     		.2byte	0x350
 4073 0970 44010000 		.4byte	0x144
 4074 0974 CE070000 		.4byte	.LLST34
 4075 0978 26       		.uleb128 0x26
 4076 0979 16000000 		.4byte	.LVL130
 4077 097d 48120000 		.4byte	0x1248
 4078 0981 8B090000 		.4byte	0x98b
 4079 0985 16       		.uleb128 0x16
 4080 0986 01       		.uleb128 0x1
 4081 0987 50       		.byte	0x50
 4082 0988 01       		.uleb128 0x1
 4083 0989 30       		.byte	0x30
 4084 098a 00       		.byte	0
 4085 098b 15       		.uleb128 0x15
 4086 098c 28000000 		.4byte	.LVL136
 4087 0990 48120000 		.4byte	0x1248
 4088 0994 16       		.uleb128 0x16
 4089 0995 01       		.uleb128 0x1
 4090 0996 50       		.byte	0x50
 4091 0997 01       		.uleb128 0x1
 4092 0998 30       		.byte	0x30
 4093 0999 00       		.byte	0
 4094 099a 00       		.byte	0
 4095 099b 21       		.uleb128 0x21
 4096 099c 18000000 		.4byte	.LASF76
 4097 09a0 01       		.byte	0x1
 4098 09a1 6903     		.2byte	0x369
 4099 09a3 44010000 		.4byte	0x144
ARM GAS  C:\Users\ilya\AppData\Local\Temp\cchJq1OJ.s 			page 101


 4100 09a7 00000000 		.4byte	.LFB30
 4101 09ab 2C000000 		.4byte	.LFE30-.LFB30
 4102 09af 01       		.uleb128 0x1
 4103 09b0 9C       		.byte	0x9c
 4104 09b1 F8090000 		.4byte	0x9f8
 4105 09b5 22       		.uleb128 0x22
 4106 09b6 A0050000 		.4byte	.LASF50
 4107 09ba 01       		.byte	0x1
 4108 09bb 6903     		.2byte	0x369
 4109 09bd 83000000 		.4byte	0x83
 4110 09c1 10080000 		.4byte	.LLST35
 4111 09c5 22       		.uleb128 0x22
 4112 09c6 C9050000 		.4byte	.LASF22
 4113 09ca 01       		.byte	0x1
 4114 09cb 6903     		.2byte	0x369
 4115 09cd 83000000 		.4byte	0x83
 4116 09d1 52080000 		.4byte	.LLST36
 4117 09d5 26       		.uleb128 0x26
 4118 09d6 14000000 		.4byte	.LVL139
 4119 09da 48120000 		.4byte	0x1248
 4120 09de E8090000 		.4byte	0x9e8
 4121 09e2 16       		.uleb128 0x16
 4122 09e3 01       		.uleb128 0x1
 4123 09e4 50       		.byte	0x50
 4124 09e5 01       		.uleb128 0x1
 4125 09e6 30       		.byte	0x30
 4126 09e7 00       		.byte	0
 4127 09e8 15       		.uleb128 0x15
 4128 09e9 26000000 		.4byte	.LVL144
 4129 09ed 48120000 		.4byte	0x1248
 4130 09f1 16       		.uleb128 0x16
 4131 09f2 01       		.uleb128 0x1
 4132 09f3 50       		.byte	0x50
 4133 09f4 01       		.uleb128 0x1
 4134 09f5 30       		.byte	0x30
 4135 09f6 00       		.byte	0
 4136 09f7 00       		.byte	0
 4137 09f8 1E       		.uleb128 0x1e
 4138 09f9 53000000 		.4byte	.LASF77
 4139 09fd 01       		.byte	0x1
 4140 09fe 8603     		.2byte	0x386
 4141 0a00 00000000 		.4byte	.LFB31
 4142 0a04 34000000 		.4byte	.LFE31-.LFB31
 4143 0a08 01       		.uleb128 0x1
 4144 0a09 9C       		.byte	0x9c
 4145 0a0a 610A0000 		.4byte	0xa61
 4146 0a0e 22       		.uleb128 0x22
 4147 0a0f A0050000 		.4byte	.LASF50
 4148 0a13 01       		.byte	0x1
 4149 0a14 8603     		.2byte	0x386
 4150 0a16 83000000 		.4byte	0x83
 4151 0a1a 94080000 		.4byte	.LLST37
 4152 0a1e 22       		.uleb128 0x22
 4153 0a1f C9050000 		.4byte	.LASF22
 4154 0a23 01       		.byte	0x1
 4155 0a24 8603     		.2byte	0x386
 4156 0a26 83000000 		.4byte	0x83
ARM GAS  C:\Users\ilya\AppData\Local\Temp\cchJq1OJ.s 			page 102


 4157 0a2a D6080000 		.4byte	.LLST38
 4158 0a2e 22       		.uleb128 0x22
 4159 0a2f 0A030000 		.4byte	.LASF78
 4160 0a33 01       		.byte	0x1
 4161 0a34 8603     		.2byte	0x386
 4162 0a36 44010000 		.4byte	0x144
 4163 0a3a 18090000 		.4byte	.LLST39
 4164 0a3e 26       		.uleb128 0x26
 4165 0a3f 16000000 		.4byte	.LVL147
 4166 0a43 48120000 		.4byte	0x1248
 4167 0a47 510A0000 		.4byte	0xa51
 4168 0a4b 16       		.uleb128 0x16
 4169 0a4c 01       		.uleb128 0x1
 4170 0a4d 50       		.byte	0x50
 4171 0a4e 01       		.uleb128 0x1
 4172 0a4f 30       		.byte	0x30
 4173 0a50 00       		.byte	0
 4174 0a51 15       		.uleb128 0x15
 4175 0a52 2C000000 		.4byte	.LVL153
 4176 0a56 48120000 		.4byte	0x1248
 4177 0a5a 16       		.uleb128 0x16
 4178 0a5b 01       		.uleb128 0x1
 4179 0a5c 50       		.byte	0x50
 4180 0a5d 01       		.uleb128 0x1
 4181 0a5e 30       		.byte	0x30
 4182 0a5f 00       		.byte	0
 4183 0a60 00       		.byte	0
 4184 0a61 21       		.uleb128 0x21
 4185 0a62 AF060000 		.4byte	.LASF79
 4186 0a66 01       		.byte	0x1
 4187 0a67 9F03     		.2byte	0x39f
 4188 0a69 44010000 		.4byte	0x144
 4189 0a6d 00000000 		.4byte	.LFB32
 4190 0a71 30000000 		.4byte	.LFE32-.LFB32
 4191 0a75 01       		.uleb128 0x1
 4192 0a76 9C       		.byte	0x9c
 4193 0a77 BE0A0000 		.4byte	0xabe
 4194 0a7b 22       		.uleb128 0x22
 4195 0a7c A0050000 		.4byte	.LASF50
 4196 0a80 01       		.byte	0x1
 4197 0a81 9F03     		.2byte	0x39f
 4198 0a83 83000000 		.4byte	0x83
 4199 0a87 5A090000 		.4byte	.LLST40
 4200 0a8b 22       		.uleb128 0x22
 4201 0a8c C9050000 		.4byte	.LASF22
 4202 0a90 01       		.byte	0x1
 4203 0a91 9F03     		.2byte	0x39f
 4204 0a93 83000000 		.4byte	0x83
 4205 0a97 9C090000 		.4byte	.LLST41
 4206 0a9b 26       		.uleb128 0x26
 4207 0a9c 14000000 		.4byte	.LVL156
 4208 0aa0 48120000 		.4byte	0x1248
 4209 0aa4 AE0A0000 		.4byte	0xaae
 4210 0aa8 16       		.uleb128 0x16
 4211 0aa9 01       		.uleb128 0x1
 4212 0aaa 50       		.byte	0x50
 4213 0aab 01       		.uleb128 0x1
ARM GAS  C:\Users\ilya\AppData\Local\Temp\cchJq1OJ.s 			page 103


 4214 0aac 30       		.byte	0x30
 4215 0aad 00       		.byte	0
 4216 0aae 15       		.uleb128 0x15
 4217 0aaf 2A000000 		.4byte	.LVL161
 4218 0ab3 48120000 		.4byte	0x1248
 4219 0ab7 16       		.uleb128 0x16
 4220 0ab8 01       		.uleb128 0x1
 4221 0ab9 50       		.byte	0x50
 4222 0aba 01       		.uleb128 0x1
 4223 0abb 30       		.byte	0x30
 4224 0abc 00       		.byte	0
 4225 0abd 00       		.byte	0
 4226 0abe 1E       		.uleb128 0x1e
 4227 0abf A5040000 		.4byte	.LASF80
 4228 0ac3 01       		.byte	0x1
 4229 0ac4 C003     		.2byte	0x3c0
 4230 0ac6 00000000 		.4byte	.LFB33
 4231 0aca 4C000000 		.4byte	.LFE33-.LFB33
 4232 0ace 01       		.uleb128 0x1
 4233 0acf 9C       		.byte	0x9c
 4234 0ad0 4A0B0000 		.4byte	0xb4a
 4235 0ad4 22       		.uleb128 0x22
 4236 0ad5 A0050000 		.4byte	.LASF50
 4237 0ad9 01       		.byte	0x1
 4238 0ada C003     		.2byte	0x3c0
 4239 0adc 83000000 		.4byte	0x83
 4240 0ae0 DE090000 		.4byte	.LLST42
 4241 0ae4 22       		.uleb128 0x22
 4242 0ae5 C9050000 		.4byte	.LASF22
 4243 0ae9 01       		.byte	0x1
 4244 0aea C003     		.2byte	0x3c0
 4245 0aec 83000000 		.4byte	0x83
 4246 0af0 200A0000 		.4byte	.LLST43
 4247 0af4 22       		.uleb128 0x22
 4248 0af5 DD040000 		.4byte	.LASF24
 4249 0af9 01       		.byte	0x1
 4250 0afa C003     		.2byte	0x3c0
 4251 0afc 77000000 		.4byte	0x77
 4252 0b00 620A0000 		.4byte	.LLST44
 4253 0b04 13       		.uleb128 0x13
 4254 0b05 79020000 		.4byte	.LASF65
 4255 0b09 01       		.byte	0x1
 4256 0b0a C203     		.2byte	0x3c2
 4257 0b0c 77000000 		.4byte	0x77
 4258 0b10 A40A0000 		.4byte	.LLST45
 4259 0b14 26       		.uleb128 0x26
 4260 0b15 16000000 		.4byte	.LVL164
 4261 0b19 48120000 		.4byte	0x1248
 4262 0b1d 270B0000 		.4byte	0xb27
 4263 0b21 16       		.uleb128 0x16
 4264 0b22 01       		.uleb128 0x1
 4265 0b23 50       		.byte	0x50
 4266 0b24 01       		.uleb128 0x1
 4267 0b25 30       		.byte	0x30
 4268 0b26 00       		.byte	0
 4269 0b27 26       		.uleb128 0x26
 4270 0b28 22000000 		.4byte	.LVL165
ARM GAS  C:\Users\ilya\AppData\Local\Temp\cchJq1OJ.s 			page 104


 4271 0b2c 48120000 		.4byte	0x1248
 4272 0b30 3A0B0000 		.4byte	0xb3a
 4273 0b34 16       		.uleb128 0x16
 4274 0b35 01       		.uleb128 0x1
 4275 0b36 50       		.byte	0x50
 4276 0b37 01       		.uleb128 0x1
 4277 0b38 30       		.byte	0x30
 4278 0b39 00       		.byte	0
 4279 0b3a 15       		.uleb128 0x15
 4280 0b3b 40000000 		.4byte	.LVL173
 4281 0b3f 48120000 		.4byte	0x1248
 4282 0b43 16       		.uleb128 0x16
 4283 0b44 01       		.uleb128 0x1
 4284 0b45 50       		.byte	0x50
 4285 0b46 01       		.uleb128 0x1
 4286 0b47 30       		.byte	0x30
 4287 0b48 00       		.byte	0
 4288 0b49 00       		.byte	0
 4289 0b4a 21       		.uleb128 0x21
 4290 0b4b 46060000 		.4byte	.LASF81
 4291 0b4f 01       		.byte	0x1
 4292 0b50 E403     		.2byte	0x3e4
 4293 0b52 77000000 		.4byte	0x77
 4294 0b56 00000000 		.4byte	.LFB34
 4295 0b5a 38000000 		.4byte	.LFE34-.LFB34
 4296 0b5e 01       		.uleb128 0x1
 4297 0b5f 9C       		.byte	0x9c
 4298 0b60 A70B0000 		.4byte	0xba7
 4299 0b64 22       		.uleb128 0x22
 4300 0b65 A0050000 		.4byte	.LASF50
 4301 0b69 01       		.byte	0x1
 4302 0b6a E403     		.2byte	0x3e4
 4303 0b6c 83000000 		.4byte	0x83
 4304 0b70 C90A0000 		.4byte	.LLST46
 4305 0b74 22       		.uleb128 0x22
 4306 0b75 C9050000 		.4byte	.LASF22
 4307 0b79 01       		.byte	0x1
 4308 0b7a E403     		.2byte	0x3e4
 4309 0b7c 83000000 		.4byte	0x83
 4310 0b80 0B0B0000 		.4byte	.LLST47
 4311 0b84 26       		.uleb128 0x26
 4312 0b85 14000000 		.4byte	.LVL176
 4313 0b89 48120000 		.4byte	0x1248
 4314 0b8d 970B0000 		.4byte	0xb97
 4315 0b91 16       		.uleb128 0x16
 4316 0b92 01       		.uleb128 0x1
 4317 0b93 50       		.byte	0x50
 4318 0b94 01       		.uleb128 0x1
 4319 0b95 30       		.byte	0x30
 4320 0b96 00       		.byte	0
 4321 0b97 15       		.uleb128 0x15
 4322 0b98 30000000 		.4byte	.LVL181
 4323 0b9c 48120000 		.4byte	0x1248
 4324 0ba0 16       		.uleb128 0x16
 4325 0ba1 01       		.uleb128 0x1
 4326 0ba2 50       		.byte	0x50
 4327 0ba3 01       		.uleb128 0x1
ARM GAS  C:\Users\ilya\AppData\Local\Temp\cchJq1OJ.s 			page 105


 4328 0ba4 30       		.byte	0x30
 4329 0ba5 00       		.byte	0
 4330 0ba6 00       		.byte	0
 4331 0ba7 1E       		.uleb128 0x1e
 4332 0ba8 DB060000 		.4byte	.LASF82
 4333 0bac 01       		.byte	0x1
 4334 0bad 0204     		.2byte	0x402
 4335 0baf 00000000 		.4byte	.LFB35
 4336 0bb3 4C000000 		.4byte	.LFE35-.LFB35
 4337 0bb7 01       		.uleb128 0x1
 4338 0bb8 9C       		.byte	0x9c
 4339 0bb9 330C0000 		.4byte	0xc33
 4340 0bbd 22       		.uleb128 0x22
 4341 0bbe A0050000 		.4byte	.LASF50
 4342 0bc2 01       		.byte	0x1
 4343 0bc3 0204     		.2byte	0x402
 4344 0bc5 83000000 		.4byte	0x83
 4345 0bc9 4D0B0000 		.4byte	.LLST48
 4346 0bcd 22       		.uleb128 0x22
 4347 0bce C9050000 		.4byte	.LASF22
 4348 0bd2 01       		.byte	0x1
 4349 0bd3 0204     		.2byte	0x402
 4350 0bd5 83000000 		.4byte	0x83
 4351 0bd9 8F0B0000 		.4byte	.LLST49
 4352 0bdd 22       		.uleb128 0x22
 4353 0bde 0C020000 		.4byte	.LASF25
 4354 0be2 01       		.byte	0x1
 4355 0be3 0204     		.2byte	0x402
 4356 0be5 83000000 		.4byte	0x83
 4357 0be9 D10B0000 		.4byte	.LLST50
 4358 0bed 13       		.uleb128 0x13
 4359 0bee 79020000 		.4byte	.LASF65
 4360 0bf2 01       		.byte	0x1
 4361 0bf3 0404     		.2byte	0x404
 4362 0bf5 77000000 		.4byte	0x77
 4363 0bf9 2D0C0000 		.4byte	.LLST51
 4364 0bfd 26       		.uleb128 0x26
 4365 0bfe 16000000 		.4byte	.LVL184
 4366 0c02 48120000 		.4byte	0x1248
 4367 0c06 100C0000 		.4byte	0xc10
 4368 0c0a 16       		.uleb128 0x16
 4369 0c0b 01       		.uleb128 0x1
 4370 0c0c 50       		.byte	0x50
 4371 0c0d 01       		.uleb128 0x1
 4372 0c0e 30       		.byte	0x30
 4373 0c0f 00       		.byte	0
 4374 0c10 26       		.uleb128 0x26
 4375 0c11 24000000 		.4byte	.LVL186
 4376 0c15 48120000 		.4byte	0x1248
 4377 0c19 230C0000 		.4byte	0xc23
 4378 0c1d 16       		.uleb128 0x16
 4379 0c1e 01       		.uleb128 0x1
 4380 0c1f 50       		.byte	0x50
 4381 0c20 01       		.uleb128 0x1
 4382 0c21 30       		.byte	0x30
 4383 0c22 00       		.byte	0
 4384 0c23 15       		.uleb128 0x15
ARM GAS  C:\Users\ilya\AppData\Local\Temp\cchJq1OJ.s 			page 106


 4385 0c24 42000000 		.4byte	.LVL194
 4386 0c28 48120000 		.4byte	0x1248
 4387 0c2c 16       		.uleb128 0x16
 4388 0c2d 01       		.uleb128 0x1
 4389 0c2e 50       		.byte	0x50
 4390 0c2f 01       		.uleb128 0x1
 4391 0c30 30       		.byte	0x30
 4392 0c31 00       		.byte	0
 4393 0c32 00       		.byte	0
 4394 0c33 21       		.uleb128 0x21
 4395 0c34 79010000 		.4byte	.LASF83
 4396 0c38 01       		.byte	0x1
 4397 0c39 2204     		.2byte	0x422
 4398 0c3b 83000000 		.4byte	0x83
 4399 0c3f 00000000 		.4byte	.LFB36
 4400 0c43 38000000 		.4byte	.LFE36-.LFB36
 4401 0c47 01       		.uleb128 0x1
 4402 0c48 9C       		.byte	0x9c
 4403 0c49 A00C0000 		.4byte	0xca0
 4404 0c4d 22       		.uleb128 0x22
 4405 0c4e A0050000 		.4byte	.LASF50
 4406 0c52 01       		.byte	0x1
 4407 0c53 2204     		.2byte	0x422
 4408 0c55 83000000 		.4byte	0x83
 4409 0c59 470C0000 		.4byte	.LLST52
 4410 0c5d 22       		.uleb128 0x22
 4411 0c5e C9050000 		.4byte	.LASF22
 4412 0c62 01       		.byte	0x1
 4413 0c63 2204     		.2byte	0x422
 4414 0c65 83000000 		.4byte	0x83
 4415 0c69 890C0000 		.4byte	.LLST53
 4416 0c6d 13       		.uleb128 0x13
 4417 0c6e 2F040000 		.4byte	.LASF84
 4418 0c72 01       		.byte	0x1
 4419 0c73 2404     		.2byte	0x424
 4420 0c75 77000000 		.4byte	0x77
 4421 0c79 CB0C0000 		.4byte	.LLST54
 4422 0c7d 26       		.uleb128 0x26
 4423 0c7e 14000000 		.4byte	.LVL197
 4424 0c82 48120000 		.4byte	0x1248
 4425 0c86 900C0000 		.4byte	0xc90
 4426 0c8a 16       		.uleb128 0x16
 4427 0c8b 01       		.uleb128 0x1
 4428 0c8c 50       		.byte	0x50
 4429 0c8d 01       		.uleb128 0x1
 4430 0c8e 30       		.byte	0x30
 4431 0c8f 00       		.byte	0
 4432 0c90 15       		.uleb128 0x15
 4433 0c91 30000000 		.4byte	.LVL204
 4434 0c95 48120000 		.4byte	0x1248
 4435 0c99 16       		.uleb128 0x16
 4436 0c9a 01       		.uleb128 0x1
 4437 0c9b 50       		.byte	0x50
 4438 0c9c 01       		.uleb128 0x1
 4439 0c9d 30       		.byte	0x30
 4440 0c9e 00       		.byte	0
 4441 0c9f 00       		.byte	0
ARM GAS  C:\Users\ilya\AppData\Local\Temp\cchJq1OJ.s 			page 107


 4442 0ca0 1E       		.uleb128 0x1e
 4443 0ca1 5E060000 		.4byte	.LASF85
 4444 0ca5 01       		.byte	0x1
 4445 0ca6 4904     		.2byte	0x449
 4446 0ca8 00000000 		.4byte	.LFB37
 4447 0cac 4C000000 		.4byte	.LFE37-.LFB37
 4448 0cb0 01       		.uleb128 0x1
 4449 0cb1 9C       		.byte	0x9c
 4450 0cb2 2C0D0000 		.4byte	0xd2c
 4451 0cb6 22       		.uleb128 0x22
 4452 0cb7 A0050000 		.4byte	.LASF50
 4453 0cbb 01       		.byte	0x1
 4454 0cbc 4904     		.2byte	0x449
 4455 0cbe 83000000 		.4byte	0x83
 4456 0cc2 E60C0000 		.4byte	.LLST55
 4457 0cc6 22       		.uleb128 0x22
 4458 0cc7 C9050000 		.4byte	.LASF22
 4459 0ccb 01       		.byte	0x1
 4460 0ccc 4904     		.2byte	0x449
 4461 0cce 83000000 		.4byte	0x83
 4462 0cd2 280D0000 		.4byte	.LLST56
 4463 0cd6 22       		.uleb128 0x22
 4464 0cd7 1B070000 		.4byte	.LASF86
 4465 0cdb 01       		.byte	0x1
 4466 0cdc 4904     		.2byte	0x449
 4467 0cde 77000000 		.4byte	0x77
 4468 0ce2 6A0D0000 		.4byte	.LLST57
 4469 0ce6 13       		.uleb128 0x13
 4470 0ce7 79020000 		.4byte	.LASF65
 4471 0ceb 01       		.byte	0x1
 4472 0cec 4B04     		.2byte	0x44b
 4473 0cee 77000000 		.4byte	0x77
 4474 0cf2 AC0D0000 		.4byte	.LLST58
 4475 0cf6 26       		.uleb128 0x26
 4476 0cf7 16000000 		.4byte	.LVL207
 4477 0cfb 48120000 		.4byte	0x1248
 4478 0cff 090D0000 		.4byte	0xd09
 4479 0d03 16       		.uleb128 0x16
 4480 0d04 01       		.uleb128 0x1
 4481 0d05 50       		.byte	0x50
 4482 0d06 01       		.uleb128 0x1
 4483 0d07 30       		.byte	0x30
 4484 0d08 00       		.byte	0
 4485 0d09 26       		.uleb128 0x26
 4486 0d0a 22000000 		.4byte	.LVL208
 4487 0d0e 48120000 		.4byte	0x1248
 4488 0d12 1C0D0000 		.4byte	0xd1c
 4489 0d16 16       		.uleb128 0x16
 4490 0d17 01       		.uleb128 0x1
 4491 0d18 50       		.byte	0x50
 4492 0d19 01       		.uleb128 0x1
 4493 0d1a 30       		.byte	0x30
 4494 0d1b 00       		.byte	0
 4495 0d1c 15       		.uleb128 0x15
 4496 0d1d 40000000 		.4byte	.LVL216
 4497 0d21 48120000 		.4byte	0x1248
 4498 0d25 16       		.uleb128 0x16
ARM GAS  C:\Users\ilya\AppData\Local\Temp\cchJq1OJ.s 			page 108


 4499 0d26 01       		.uleb128 0x1
 4500 0d27 50       		.byte	0x50
 4501 0d28 01       		.uleb128 0x1
 4502 0d29 30       		.byte	0x30
 4503 0d2a 00       		.byte	0
 4504 0d2b 00       		.byte	0
 4505 0d2c 21       		.uleb128 0x21
 4506 0d2d 3D020000 		.4byte	.LASF87
 4507 0d31 01       		.byte	0x1
 4508 0d32 6804     		.2byte	0x468
 4509 0d34 77000000 		.4byte	0x77
 4510 0d38 00000000 		.4byte	.LFB38
 4511 0d3c 38000000 		.4byte	.LFE38-.LFB38
 4512 0d40 01       		.uleb128 0x1
 4513 0d41 9C       		.byte	0x9c
 4514 0d42 890D0000 		.4byte	0xd89
 4515 0d46 22       		.uleb128 0x22
 4516 0d47 A0050000 		.4byte	.LASF50
 4517 0d4b 01       		.byte	0x1
 4518 0d4c 6804     		.2byte	0x468
 4519 0d4e 83000000 		.4byte	0x83
 4520 0d52 D20D0000 		.4byte	.LLST59
 4521 0d56 22       		.uleb128 0x22
 4522 0d57 C9050000 		.4byte	.LASF22
 4523 0d5b 01       		.byte	0x1
 4524 0d5c 6804     		.2byte	0x468
 4525 0d5e 83000000 		.4byte	0x83
 4526 0d62 140E0000 		.4byte	.LLST60
 4527 0d66 26       		.uleb128 0x26
 4528 0d67 14000000 		.4byte	.LVL219
 4529 0d6b 48120000 		.4byte	0x1248
 4530 0d6f 790D0000 		.4byte	0xd79
 4531 0d73 16       		.uleb128 0x16
 4532 0d74 01       		.uleb128 0x1
 4533 0d75 50       		.byte	0x50
 4534 0d76 01       		.uleb128 0x1
 4535 0d77 30       		.byte	0x30
 4536 0d78 00       		.byte	0
 4537 0d79 15       		.uleb128 0x15
 4538 0d7a 30000000 		.4byte	.LVL224
 4539 0d7e 48120000 		.4byte	0x1248
 4540 0d82 16       		.uleb128 0x16
 4541 0d83 01       		.uleb128 0x1
 4542 0d84 50       		.byte	0x50
 4543 0d85 01       		.uleb128 0x1
 4544 0d86 30       		.byte	0x30
 4545 0d87 00       		.byte	0
 4546 0d88 00       		.byte	0
 4547 0d89 1E       		.uleb128 0x1e
 4548 0d8a 80030000 		.4byte	.LASF88
 4549 0d8e 01       		.byte	0x1
 4550 0d8f 8A04     		.2byte	0x48a
 4551 0d91 00000000 		.4byte	.LFB39
 4552 0d95 4C000000 		.4byte	.LFE39-.LFB39
 4553 0d99 01       		.uleb128 0x1
 4554 0d9a 9C       		.byte	0x9c
 4555 0d9b 150E0000 		.4byte	0xe15
ARM GAS  C:\Users\ilya\AppData\Local\Temp\cchJq1OJ.s 			page 109


 4556 0d9f 22       		.uleb128 0x22
 4557 0da0 A0050000 		.4byte	.LASF50
 4558 0da4 01       		.byte	0x1
 4559 0da5 8A04     		.2byte	0x48a
 4560 0da7 83000000 		.4byte	0x83
 4561 0dab 560E0000 		.4byte	.LLST61
 4562 0daf 22       		.uleb128 0x22
 4563 0db0 C9050000 		.4byte	.LASF22
 4564 0db4 01       		.byte	0x1
 4565 0db5 8A04     		.2byte	0x48a
 4566 0db7 83000000 		.4byte	0x83
 4567 0dbb 980E0000 		.4byte	.LLST62
 4568 0dbf 22       		.uleb128 0x22
 4569 0dc0 9E060000 		.4byte	.LASF27
 4570 0dc4 01       		.byte	0x1
 4571 0dc5 8A04     		.2byte	0x48a
 4572 0dc7 77000000 		.4byte	0x77
 4573 0dcb DA0E0000 		.4byte	.LLST63
 4574 0dcf 13       		.uleb128 0x13
 4575 0dd0 79020000 		.4byte	.LASF65
 4576 0dd4 01       		.byte	0x1
 4577 0dd5 8C04     		.2byte	0x48c
 4578 0dd7 77000000 		.4byte	0x77
 4579 0ddb 1C0F0000 		.4byte	.LLST64
 4580 0ddf 26       		.uleb128 0x26
 4581 0de0 16000000 		.4byte	.LVL227
 4582 0de4 48120000 		.4byte	0x1248
 4583 0de8 F20D0000 		.4byte	0xdf2
 4584 0dec 16       		.uleb128 0x16
 4585 0ded 01       		.uleb128 0x1
 4586 0dee 50       		.byte	0x50
 4587 0def 01       		.uleb128 0x1
 4588 0df0 30       		.byte	0x30
 4589 0df1 00       		.byte	0
 4590 0df2 26       		.uleb128 0x26
 4591 0df3 22000000 		.4byte	.LVL228
 4592 0df7 48120000 		.4byte	0x1248
 4593 0dfb 050E0000 		.4byte	0xe05
 4594 0dff 16       		.uleb128 0x16
 4595 0e00 01       		.uleb128 0x1
 4596 0e01 50       		.byte	0x50
 4597 0e02 01       		.uleb128 0x1
 4598 0e03 30       		.byte	0x30
 4599 0e04 00       		.byte	0
 4600 0e05 15       		.uleb128 0x15
 4601 0e06 40000000 		.4byte	.LVL236
 4602 0e0a 48120000 		.4byte	0x1248
 4603 0e0e 16       		.uleb128 0x16
 4604 0e0f 01       		.uleb128 0x1
 4605 0e10 50       		.byte	0x50
 4606 0e11 01       		.uleb128 0x1
 4607 0e12 30       		.byte	0x30
 4608 0e13 00       		.byte	0
 4609 0e14 00       		.byte	0
 4610 0e15 21       		.uleb128 0x21
 4611 0e16 55030000 		.4byte	.LASF89
 4612 0e1a 01       		.byte	0x1
ARM GAS  C:\Users\ilya\AppData\Local\Temp\cchJq1OJ.s 			page 110


 4613 0e1b A904     		.2byte	0x4a9
 4614 0e1d 77000000 		.4byte	0x77
 4615 0e21 00000000 		.4byte	.LFB40
 4616 0e25 38000000 		.4byte	.LFE40-.LFB40
 4617 0e29 01       		.uleb128 0x1
 4618 0e2a 9C       		.byte	0x9c
 4619 0e2b 720E0000 		.4byte	0xe72
 4620 0e2f 22       		.uleb128 0x22
 4621 0e30 A0050000 		.4byte	.LASF50
 4622 0e34 01       		.byte	0x1
 4623 0e35 A904     		.2byte	0x4a9
 4624 0e37 83000000 		.4byte	0x83
 4625 0e3b 420F0000 		.4byte	.LLST65
 4626 0e3f 22       		.uleb128 0x22
 4627 0e40 C9050000 		.4byte	.LASF22
 4628 0e44 01       		.byte	0x1
 4629 0e45 A904     		.2byte	0x4a9
 4630 0e47 83000000 		.4byte	0x83
 4631 0e4b 840F0000 		.4byte	.LLST66
 4632 0e4f 26       		.uleb128 0x26
 4633 0e50 14000000 		.4byte	.LVL239
 4634 0e54 48120000 		.4byte	0x1248
 4635 0e58 620E0000 		.4byte	0xe62
 4636 0e5c 16       		.uleb128 0x16
 4637 0e5d 01       		.uleb128 0x1
 4638 0e5e 50       		.byte	0x50
 4639 0e5f 01       		.uleb128 0x1
 4640 0e60 30       		.byte	0x30
 4641 0e61 00       		.byte	0
 4642 0e62 15       		.uleb128 0x15
 4643 0e63 30000000 		.4byte	.LVL244
 4644 0e67 48120000 		.4byte	0x1248
 4645 0e6b 16       		.uleb128 0x16
 4646 0e6c 01       		.uleb128 0x1
 4647 0e6d 50       		.byte	0x50
 4648 0e6e 01       		.uleb128 0x1
 4649 0e6f 30       		.byte	0x30
 4650 0e70 00       		.byte	0
 4651 0e71 00       		.byte	0
 4652 0e72 1E       		.uleb128 0x1e
 4653 0e73 67070000 		.4byte	.LASF90
 4654 0e77 01       		.byte	0x1
 4655 0e78 CA04     		.2byte	0x4ca
 4656 0e7a 00000000 		.4byte	.LFB41
 4657 0e7e 4C000000 		.4byte	.LFE41-.LFB41
 4658 0e82 01       		.uleb128 0x1
 4659 0e83 9C       		.byte	0x9c
 4660 0e84 FE0E0000 		.4byte	0xefe
 4661 0e88 22       		.uleb128 0x22
 4662 0e89 A0050000 		.4byte	.LASF50
 4663 0e8d 01       		.byte	0x1
 4664 0e8e CA04     		.2byte	0x4ca
 4665 0e90 83000000 		.4byte	0x83
 4666 0e94 C60F0000 		.4byte	.LLST67
 4667 0e98 22       		.uleb128 0x22
 4668 0e99 C9050000 		.4byte	.LASF22
 4669 0e9d 01       		.byte	0x1
ARM GAS  C:\Users\ilya\AppData\Local\Temp\cchJq1OJ.s 			page 111


 4670 0e9e CA04     		.2byte	0x4ca
 4671 0ea0 83000000 		.4byte	0x83
 4672 0ea4 08100000 		.4byte	.LLST68
 4673 0ea8 22       		.uleb128 0x22
 4674 0ea9 60020000 		.4byte	.LASF28
 4675 0ead 01       		.byte	0x1
 4676 0eae CA04     		.2byte	0x4ca
 4677 0eb0 77000000 		.4byte	0x77
 4678 0eb4 4A100000 		.4byte	.LLST69
 4679 0eb8 13       		.uleb128 0x13
 4680 0eb9 79020000 		.4byte	.LASF65
 4681 0ebd 01       		.byte	0x1
 4682 0ebe CC04     		.2byte	0x4cc
 4683 0ec0 77000000 		.4byte	0x77
 4684 0ec4 8C100000 		.4byte	.LLST70
 4685 0ec8 26       		.uleb128 0x26
 4686 0ec9 16000000 		.4byte	.LVL247
 4687 0ecd 48120000 		.4byte	0x1248
 4688 0ed1 DB0E0000 		.4byte	0xedb
 4689 0ed5 16       		.uleb128 0x16
 4690 0ed6 01       		.uleb128 0x1
 4691 0ed7 50       		.byte	0x50
 4692 0ed8 01       		.uleb128 0x1
 4693 0ed9 30       		.byte	0x30
 4694 0eda 00       		.byte	0
 4695 0edb 26       		.uleb128 0x26
 4696 0edc 22000000 		.4byte	.LVL248
 4697 0ee0 48120000 		.4byte	0x1248
 4698 0ee4 EE0E0000 		.4byte	0xeee
 4699 0ee8 16       		.uleb128 0x16
 4700 0ee9 01       		.uleb128 0x1
 4701 0eea 50       		.byte	0x50
 4702 0eeb 01       		.uleb128 0x1
 4703 0eec 30       		.byte	0x30
 4704 0eed 00       		.byte	0
 4705 0eee 15       		.uleb128 0x15
 4706 0eef 40000000 		.4byte	.LVL256
 4707 0ef3 48120000 		.4byte	0x1248
 4708 0ef7 16       		.uleb128 0x16
 4709 0ef8 01       		.uleb128 0x1
 4710 0ef9 50       		.byte	0x50
 4711 0efa 01       		.uleb128 0x1
 4712 0efb 30       		.byte	0x30
 4713 0efc 00       		.byte	0
 4714 0efd 00       		.byte	0
 4715 0efe 21       		.uleb128 0x21
 4716 0eff A8050000 		.4byte	.LASF91
 4717 0f03 01       		.byte	0x1
 4718 0f04 E904     		.2byte	0x4e9
 4719 0f06 77000000 		.4byte	0x77
 4720 0f0a 00000000 		.4byte	.LFB42
 4721 0f0e 38000000 		.4byte	.LFE42-.LFB42
 4722 0f12 01       		.uleb128 0x1
 4723 0f13 9C       		.byte	0x9c
 4724 0f14 5B0F0000 		.4byte	0xf5b
 4725 0f18 22       		.uleb128 0x22
 4726 0f19 A0050000 		.4byte	.LASF50
ARM GAS  C:\Users\ilya\AppData\Local\Temp\cchJq1OJ.s 			page 112


 4727 0f1d 01       		.byte	0x1
 4728 0f1e E904     		.2byte	0x4e9
 4729 0f20 83000000 		.4byte	0x83
 4730 0f24 B2100000 		.4byte	.LLST71
 4731 0f28 22       		.uleb128 0x22
 4732 0f29 C9050000 		.4byte	.LASF22
 4733 0f2d 01       		.byte	0x1
 4734 0f2e E904     		.2byte	0x4e9
 4735 0f30 83000000 		.4byte	0x83
 4736 0f34 F4100000 		.4byte	.LLST72
 4737 0f38 26       		.uleb128 0x26
 4738 0f39 14000000 		.4byte	.LVL259
 4739 0f3d 48120000 		.4byte	0x1248
 4740 0f41 4B0F0000 		.4byte	0xf4b
 4741 0f45 16       		.uleb128 0x16
 4742 0f46 01       		.uleb128 0x1
 4743 0f47 50       		.byte	0x50
 4744 0f48 01       		.uleb128 0x1
 4745 0f49 30       		.byte	0x30
 4746 0f4a 00       		.byte	0
 4747 0f4b 15       		.uleb128 0x15
 4748 0f4c 30000000 		.4byte	.LVL264
 4749 0f50 48120000 		.4byte	0x1248
 4750 0f54 16       		.uleb128 0x16
 4751 0f55 01       		.uleb128 0x1
 4752 0f56 50       		.byte	0x50
 4753 0f57 01       		.uleb128 0x1
 4754 0f58 30       		.byte	0x30
 4755 0f59 00       		.byte	0
 4756 0f5a 00       		.byte	0
 4757 0f5b 1E       		.uleb128 0x1e
 4758 0f5c 36070000 		.4byte	.LASF92
 4759 0f60 01       		.byte	0x1
 4760 0f61 0905     		.2byte	0x509
 4761 0f63 00000000 		.4byte	.LFB43
 4762 0f67 44000000 		.4byte	.LFE43-.LFB43
 4763 0f6b 01       		.uleb128 0x1
 4764 0f6c 9C       		.byte	0x9c
 4765 0f6d E70F0000 		.4byte	0xfe7
 4766 0f71 22       		.uleb128 0x22
 4767 0f72 A0050000 		.4byte	.LASF50
 4768 0f76 01       		.byte	0x1
 4769 0f77 0905     		.2byte	0x509
 4770 0f79 83000000 		.4byte	0x83
 4771 0f7d 36110000 		.4byte	.LLST73
 4772 0f81 22       		.uleb128 0x22
 4773 0f82 C9050000 		.4byte	.LASF22
 4774 0f86 01       		.byte	0x1
 4775 0f87 0905     		.2byte	0x509
 4776 0f89 83000000 		.4byte	0x83
 4777 0f8d 78110000 		.4byte	.LLST74
 4778 0f91 22       		.uleb128 0x22
 4779 0f92 C7020000 		.4byte	.LASF29
 4780 0f96 01       		.byte	0x1
 4781 0f97 0905     		.2byte	0x509
 4782 0f99 77000000 		.4byte	0x77
 4783 0f9d BA110000 		.4byte	.LLST75
ARM GAS  C:\Users\ilya\AppData\Local\Temp\cchJq1OJ.s 			page 113


 4784 0fa1 13       		.uleb128 0x13
 4785 0fa2 79020000 		.4byte	.LASF65
 4786 0fa6 01       		.byte	0x1
 4787 0fa7 0B05     		.2byte	0x50b
 4788 0fa9 77000000 		.4byte	0x77
 4789 0fad FC110000 		.4byte	.LLST76
 4790 0fb1 26       		.uleb128 0x26
 4791 0fb2 16000000 		.4byte	.LVL267
 4792 0fb6 48120000 		.4byte	0x1248
 4793 0fba C40F0000 		.4byte	0xfc4
 4794 0fbe 16       		.uleb128 0x16
 4795 0fbf 01       		.uleb128 0x1
 4796 0fc0 50       		.byte	0x50
 4797 0fc1 01       		.uleb128 0x1
 4798 0fc2 30       		.byte	0x30
 4799 0fc3 00       		.byte	0
 4800 0fc4 26       		.uleb128 0x26
 4801 0fc5 20000000 		.4byte	.LVL268
 4802 0fc9 48120000 		.4byte	0x1248
 4803 0fcd D70F0000 		.4byte	0xfd7
 4804 0fd1 16       		.uleb128 0x16
 4805 0fd2 01       		.uleb128 0x1
 4806 0fd3 50       		.byte	0x50
 4807 0fd4 01       		.uleb128 0x1
 4808 0fd5 30       		.byte	0x30
 4809 0fd6 00       		.byte	0
 4810 0fd7 15       		.uleb128 0x15
 4811 0fd8 3E000000 		.4byte	.LVL276
 4812 0fdc 48120000 		.4byte	0x1248
 4813 0fe0 16       		.uleb128 0x16
 4814 0fe1 01       		.uleb128 0x1
 4815 0fe2 50       		.byte	0x50
 4816 0fe3 01       		.uleb128 0x1
 4817 0fe4 30       		.byte	0x30
 4818 0fe5 00       		.byte	0
 4819 0fe6 00       		.byte	0
 4820 0fe7 21       		.uleb128 0x21
 4821 0fe8 C4030000 		.4byte	.LASF93
 4822 0fec 01       		.byte	0x1
 4823 0fed 2805     		.2byte	0x528
 4824 0fef 77000000 		.4byte	0x77
 4825 0ff3 00000000 		.4byte	.LFB44
 4826 0ff7 34000000 		.4byte	.LFE44-.LFB44
 4827 0ffb 01       		.uleb128 0x1
 4828 0ffc 9C       		.byte	0x9c
 4829 0ffd 44100000 		.4byte	0x1044
 4830 1001 22       		.uleb128 0x22
 4831 1002 A0050000 		.4byte	.LASF50
 4832 1006 01       		.byte	0x1
 4833 1007 2805     		.2byte	0x528
 4834 1009 83000000 		.4byte	0x83
 4835 100d 17120000 		.4byte	.LLST77
 4836 1011 22       		.uleb128 0x22
 4837 1012 C9050000 		.4byte	.LASF22
 4838 1016 01       		.byte	0x1
 4839 1017 2805     		.2byte	0x528
 4840 1019 83000000 		.4byte	0x83
ARM GAS  C:\Users\ilya\AppData\Local\Temp\cchJq1OJ.s 			page 114


 4841 101d 59120000 		.4byte	.LLST78
 4842 1021 26       		.uleb128 0x26
 4843 1022 14000000 		.4byte	.LVL279
 4844 1026 48120000 		.4byte	0x1248
 4845 102a 34100000 		.4byte	0x1034
 4846 102e 16       		.uleb128 0x16
 4847 102f 01       		.uleb128 0x1
 4848 1030 50       		.byte	0x50
 4849 1031 01       		.uleb128 0x1
 4850 1032 30       		.byte	0x30
 4851 1033 00       		.byte	0
 4852 1034 15       		.uleb128 0x15
 4853 1035 2E000000 		.4byte	.LVL284
 4854 1039 48120000 		.4byte	0x1248
 4855 103d 16       		.uleb128 0x16
 4856 103e 01       		.uleb128 0x1
 4857 103f 50       		.byte	0x50
 4858 1040 01       		.uleb128 0x1
 4859 1041 30       		.byte	0x30
 4860 1042 00       		.byte	0
 4861 1043 00       		.byte	0
 4862 1044 1E       		.uleb128 0x1e
 4863 1045 AE070000 		.4byte	.LASF94
 4864 1049 01       		.byte	0x1
 4865 104a 4705     		.2byte	0x547
 4866 104c 00000000 		.4byte	.LFB45
 4867 1050 4C000000 		.4byte	.LFE45-.LFB45
 4868 1054 01       		.uleb128 0x1
 4869 1055 9C       		.byte	0x9c
 4870 1056 D0100000 		.4byte	0x10d0
 4871 105a 22       		.uleb128 0x22
 4872 105b A0050000 		.4byte	.LASF50
 4873 105f 01       		.byte	0x1
 4874 1060 4705     		.2byte	0x547
 4875 1062 83000000 		.4byte	0x83
 4876 1066 9B120000 		.4byte	.LLST79
 4877 106a 22       		.uleb128 0x22
 4878 106b C9050000 		.4byte	.LASF22
 4879 106f 01       		.byte	0x1
 4880 1070 4705     		.2byte	0x547
 4881 1072 83000000 		.4byte	0x83
 4882 1076 DD120000 		.4byte	.LLST80
 4883 107a 22       		.uleb128 0x22
 4884 107b A2070000 		.4byte	.LASF30
 4885 107f 01       		.byte	0x1
 4886 1080 4705     		.2byte	0x547
 4887 1082 77000000 		.4byte	0x77
 4888 1086 1F130000 		.4byte	.LLST81
 4889 108a 13       		.uleb128 0x13
 4890 108b 79020000 		.4byte	.LASF65
 4891 108f 01       		.byte	0x1
 4892 1090 4905     		.2byte	0x549
 4893 1092 77000000 		.4byte	0x77
 4894 1096 61130000 		.4byte	.LLST82
 4895 109a 26       		.uleb128 0x26
 4896 109b 16000000 		.4byte	.LVL287
 4897 109f 48120000 		.4byte	0x1248
ARM GAS  C:\Users\ilya\AppData\Local\Temp\cchJq1OJ.s 			page 115


 4898 10a3 AD100000 		.4byte	0x10ad
 4899 10a7 16       		.uleb128 0x16
 4900 10a8 01       		.uleb128 0x1
 4901 10a9 50       		.byte	0x50
 4902 10aa 01       		.uleb128 0x1
 4903 10ab 30       		.byte	0x30
 4904 10ac 00       		.byte	0
 4905 10ad 26       		.uleb128 0x26
 4906 10ae 22000000 		.4byte	.LVL288
 4907 10b2 48120000 		.4byte	0x1248
 4908 10b6 C0100000 		.4byte	0x10c0
 4909 10ba 16       		.uleb128 0x16
 4910 10bb 01       		.uleb128 0x1
 4911 10bc 50       		.byte	0x50
 4912 10bd 01       		.uleb128 0x1
 4913 10be 30       		.byte	0x30
 4914 10bf 00       		.byte	0
 4915 10c0 15       		.uleb128 0x15
 4916 10c1 40000000 		.4byte	.LVL296
 4917 10c5 48120000 		.4byte	0x1248
 4918 10c9 16       		.uleb128 0x16
 4919 10ca 01       		.uleb128 0x1
 4920 10cb 50       		.byte	0x50
 4921 10cc 01       		.uleb128 0x1
 4922 10cd 30       		.byte	0x30
 4923 10ce 00       		.byte	0
 4924 10cf 00       		.byte	0
 4925 10d0 21       		.uleb128 0x21
 4926 10d1 99030000 		.4byte	.LASF95
 4927 10d5 01       		.byte	0x1
 4928 10d6 6505     		.2byte	0x565
 4929 10d8 77000000 		.4byte	0x77
 4930 10dc 00000000 		.4byte	.LFB46
 4931 10e0 38000000 		.4byte	.LFE46-.LFB46
 4932 10e4 01       		.uleb128 0x1
 4933 10e5 9C       		.byte	0x9c
 4934 10e6 2D110000 		.4byte	0x112d
 4935 10ea 22       		.uleb128 0x22
 4936 10eb A0050000 		.4byte	.LASF50
 4937 10ef 01       		.byte	0x1
 4938 10f0 6505     		.2byte	0x565
 4939 10f2 83000000 		.4byte	0x83
 4940 10f6 88130000 		.4byte	.LLST83
 4941 10fa 22       		.uleb128 0x22
 4942 10fb C9050000 		.4byte	.LASF22
 4943 10ff 01       		.byte	0x1
 4944 1100 6505     		.2byte	0x565
 4945 1102 83000000 		.4byte	0x83
 4946 1106 CA130000 		.4byte	.LLST84
 4947 110a 26       		.uleb128 0x26
 4948 110b 14000000 		.4byte	.LVL299
 4949 110f 48120000 		.4byte	0x1248
 4950 1113 1D110000 		.4byte	0x111d
 4951 1117 16       		.uleb128 0x16
 4952 1118 01       		.uleb128 0x1
 4953 1119 50       		.byte	0x50
 4954 111a 01       		.uleb128 0x1
ARM GAS  C:\Users\ilya\AppData\Local\Temp\cchJq1OJ.s 			page 116


 4955 111b 30       		.byte	0x30
 4956 111c 00       		.byte	0
 4957 111d 15       		.uleb128 0x15
 4958 111e 30000000 		.4byte	.LVL304
 4959 1122 48120000 		.4byte	0x1248
 4960 1126 16       		.uleb128 0x16
 4961 1127 01       		.uleb128 0x1
 4962 1128 50       		.byte	0x50
 4963 1129 01       		.uleb128 0x1
 4964 112a 30       		.byte	0x30
 4965 112b 00       		.byte	0
 4966 112c 00       		.byte	0
 4967 112d 1E       		.uleb128 0x1e
 4968 112e D9030000 		.4byte	.LASF96
 4969 1132 01       		.byte	0x1
 4970 1133 8405     		.2byte	0x584
 4971 1135 00000000 		.4byte	.LFB47
 4972 1139 4C000000 		.4byte	.LFE47-.LFB47
 4973 113d 01       		.uleb128 0x1
 4974 113e 9C       		.byte	0x9c
 4975 113f B9110000 		.4byte	0x11b9
 4976 1143 22       		.uleb128 0x22
 4977 1144 A0050000 		.4byte	.LASF50
 4978 1148 01       		.byte	0x1
 4979 1149 8405     		.2byte	0x584
 4980 114b 83000000 		.4byte	0x83
 4981 114f 0C140000 		.4byte	.LLST85
 4982 1153 22       		.uleb128 0x22
 4983 1154 C9050000 		.4byte	.LASF22
 4984 1158 01       		.byte	0x1
 4985 1159 8405     		.2byte	0x584
 4986 115b 83000000 		.4byte	0x83
 4987 115f 4E140000 		.4byte	.LLST86
 4988 1163 22       		.uleb128 0x22
 4989 1164 9A070000 		.4byte	.LASF31
 4990 1168 01       		.byte	0x1
 4991 1169 8405     		.2byte	0x584
 4992 116b 77000000 		.4byte	0x77
 4993 116f 90140000 		.4byte	.LLST87
 4994 1173 13       		.uleb128 0x13
 4995 1174 79020000 		.4byte	.LASF65
 4996 1178 01       		.byte	0x1
 4997 1179 8605     		.2byte	0x586
 4998 117b 77000000 		.4byte	0x77
 4999 117f D2140000 		.4byte	.LLST88
 5000 1183 26       		.uleb128 0x26
 5001 1184 16000000 		.4byte	.LVL307
 5002 1188 48120000 		.4byte	0x1248
 5003 118c 96110000 		.4byte	0x1196
 5004 1190 16       		.uleb128 0x16
 5005 1191 01       		.uleb128 0x1
 5006 1192 50       		.byte	0x50
 5007 1193 01       		.uleb128 0x1
 5008 1194 30       		.byte	0x30
 5009 1195 00       		.byte	0
 5010 1196 26       		.uleb128 0x26
 5011 1197 22000000 		.4byte	.LVL308
ARM GAS  C:\Users\ilya\AppData\Local\Temp\cchJq1OJ.s 			page 117


 5012 119b 48120000 		.4byte	0x1248
 5013 119f A9110000 		.4byte	0x11a9
 5014 11a3 16       		.uleb128 0x16
 5015 11a4 01       		.uleb128 0x1
 5016 11a5 50       		.byte	0x50
 5017 11a6 01       		.uleb128 0x1
 5018 11a7 30       		.byte	0x30
 5019 11a8 00       		.byte	0
 5020 11a9 15       		.uleb128 0x15
 5021 11aa 40000000 		.4byte	.LVL316
 5022 11ae 48120000 		.4byte	0x1248
 5023 11b2 16       		.uleb128 0x16
 5024 11b3 01       		.uleb128 0x1
 5025 11b4 50       		.byte	0x50
 5026 11b5 01       		.uleb128 0x1
 5027 11b6 30       		.byte	0x30
 5028 11b7 00       		.byte	0
 5029 11b8 00       		.byte	0
 5030 11b9 21       		.uleb128 0x21
 5031 11ba 28030000 		.4byte	.LASF97
 5032 11be 01       		.byte	0x1
 5033 11bf A305     		.2byte	0x5a3
 5034 11c1 77000000 		.4byte	0x77
 5035 11c5 00000000 		.4byte	.LFB48
 5036 11c9 38000000 		.4byte	.LFE48-.LFB48
 5037 11cd 01       		.uleb128 0x1
 5038 11ce 9C       		.byte	0x9c
 5039 11cf 16120000 		.4byte	0x1216
 5040 11d3 22       		.uleb128 0x22
 5041 11d4 A0050000 		.4byte	.LASF50
 5042 11d8 01       		.byte	0x1
 5043 11d9 A305     		.2byte	0x5a3
 5044 11db 83000000 		.4byte	0x83
 5045 11df F9140000 		.4byte	.LLST89
 5046 11e3 22       		.uleb128 0x22
 5047 11e4 C9050000 		.4byte	.LASF22
 5048 11e8 01       		.byte	0x1
 5049 11e9 A305     		.2byte	0x5a3
 5050 11eb 83000000 		.4byte	0x83
 5051 11ef 3B150000 		.4byte	.LLST90
 5052 11f3 26       		.uleb128 0x26
 5053 11f4 14000000 		.4byte	.LVL319
 5054 11f8 48120000 		.4byte	0x1248
 5055 11fc 06120000 		.4byte	0x1206
 5056 1200 16       		.uleb128 0x16
 5057 1201 01       		.uleb128 0x1
 5058 1202 50       		.byte	0x50
 5059 1203 01       		.uleb128 0x1
 5060 1204 30       		.byte	0x30
 5061 1205 00       		.byte	0
 5062 1206 15       		.uleb128 0x15
 5063 1207 30000000 		.4byte	.LVL324
 5064 120b 48120000 		.4byte	0x1248
 5065 120f 16       		.uleb128 0x16
 5066 1210 01       		.uleb128 0x1
 5067 1211 50       		.byte	0x50
 5068 1212 01       		.uleb128 0x1
ARM GAS  C:\Users\ilya\AppData\Local\Temp\cchJq1OJ.s 			page 118


 5069 1213 30       		.byte	0x30
 5070 1214 00       		.byte	0
 5071 1215 00       		.byte	0
 5072 1216 0A       		.uleb128 0xa
 5073 1217 FC010000 		.4byte	0x1fc
 5074 121b 26120000 		.4byte	0x1226
 5075 121f 0B       		.uleb128 0xb
 5076 1220 F9000000 		.4byte	0xf9
 5077 1224 07       		.byte	0x7
 5078 1225 00       		.byte	0
 5079 1226 18       		.uleb128 0x18
 5080 1227 04050000 		.4byte	.LASF98
 5081 122b 01       		.byte	0x1
 5082 122c 1A       		.byte	0x1a
 5083 122d 16120000 		.4byte	0x1216
 5084 1231 05       		.uleb128 0x5
 5085 1232 03       		.byte	0x3
 5086 1233 00000000 		.4byte	CyDmaInterruptCallback
 5087 1237 18       		.uleb128 0x18
 5088 1238 31060000 		.4byte	.LASF99
 5089 123c 01       		.byte	0x1
 5090 123d 28       		.byte	0x28
 5091 123e 77000000 		.4byte	0x77
 5092 1242 05       		.uleb128 0x5
 5093 1243 03       		.byte	0x3
 5094 1244 04000000 		.4byte	CyDmaChannelUsedMask
 5095 1248 27       		.uleb128 0x27
 5096 1249 1B050000 		.4byte	.LASF100
 5097 124d 1B050000 		.4byte	.LASF100
 5098 1251 04       		.byte	0x4
 5099 1252 E7       		.byte	0xe7
 5100 1253 27       		.uleb128 0x27
 5101 1254 46030000 		.4byte	.LASF101
 5102 1258 46030000 		.4byte	.LASF101
 5103 125c 04       		.byte	0x4
 5104 125d BD       		.byte	0xbd
 5105 125e 27       		.uleb128 0x27
 5106 125f AD030000 		.4byte	.LASF102
 5107 1263 AD030000 		.4byte	.LASF102
 5108 1267 04       		.byte	0x4
 5109 1268 C0       		.byte	0xc0
 5110 1269 00       		.byte	0
 5111              		.section	.debug_abbrev,"",%progbits
 5112              	.Ldebug_abbrev0:
 5113 0000 01       		.uleb128 0x1
 5114 0001 11       		.uleb128 0x11
 5115 0002 01       		.byte	0x1
 5116 0003 25       		.uleb128 0x25
 5117 0004 0E       		.uleb128 0xe
 5118 0005 13       		.uleb128 0x13
 5119 0006 0B       		.uleb128 0xb
 5120 0007 03       		.uleb128 0x3
 5121 0008 0E       		.uleb128 0xe
 5122 0009 1B       		.uleb128 0x1b
 5123 000a 0E       		.uleb128 0xe
 5124 000b 55       		.uleb128 0x55
 5125 000c 17       		.uleb128 0x17
ARM GAS  C:\Users\ilya\AppData\Local\Temp\cchJq1OJ.s 			page 119


 5126 000d 11       		.uleb128 0x11
 5127 000e 01       		.uleb128 0x1
 5128 000f 10       		.uleb128 0x10
 5129 0010 17       		.uleb128 0x17
 5130 0011 00       		.byte	0
 5131 0012 00       		.byte	0
 5132 0013 02       		.uleb128 0x2
 5133 0014 24       		.uleb128 0x24
 5134 0015 00       		.byte	0
 5135 0016 0B       		.uleb128 0xb
 5136 0017 0B       		.uleb128 0xb
 5137 0018 3E       		.uleb128 0x3e
 5138 0019 0B       		.uleb128 0xb
 5139 001a 03       		.uleb128 0x3
 5140 001b 0E       		.uleb128 0xe
 5141 001c 00       		.byte	0
 5142 001d 00       		.byte	0
 5143 001e 03       		.uleb128 0x3
 5144 001f 24       		.uleb128 0x24
 5145 0020 00       		.byte	0
 5146 0021 0B       		.uleb128 0xb
 5147 0022 0B       		.uleb128 0xb
 5148 0023 3E       		.uleb128 0x3e
 5149 0024 0B       		.uleb128 0xb
 5150 0025 03       		.uleb128 0x3
 5151 0026 08       		.uleb128 0x8
 5152 0027 00       		.byte	0
 5153 0028 00       		.byte	0
 5154 0029 04       		.uleb128 0x4
 5155 002a 16       		.uleb128 0x16
 5156 002b 00       		.byte	0
 5157 002c 03       		.uleb128 0x3
 5158 002d 0E       		.uleb128 0xe
 5159 002e 3A       		.uleb128 0x3a
 5160 002f 0B       		.uleb128 0xb
 5161 0030 3B       		.uleb128 0x3b
 5162 0031 05       		.uleb128 0x5
 5163 0032 49       		.uleb128 0x49
 5164 0033 13       		.uleb128 0x13
 5165 0034 00       		.byte	0
 5166 0035 00       		.byte	0
 5167 0036 05       		.uleb128 0x5
 5168 0037 35       		.uleb128 0x35
 5169 0038 00       		.byte	0
 5170 0039 49       		.uleb128 0x49
 5171 003a 13       		.uleb128 0x13
 5172 003b 00       		.byte	0
 5173 003c 00       		.byte	0
 5174 003d 06       		.uleb128 0x6
 5175 003e 0F       		.uleb128 0xf
 5176 003f 00       		.byte	0
 5177 0040 0B       		.uleb128 0xb
 5178 0041 0B       		.uleb128 0xb
 5179 0042 49       		.uleb128 0x49
 5180 0043 13       		.uleb128 0x13
 5181 0044 00       		.byte	0
 5182 0045 00       		.byte	0
ARM GAS  C:\Users\ilya\AppData\Local\Temp\cchJq1OJ.s 			page 120


 5183 0046 07       		.uleb128 0x7
 5184 0047 15       		.uleb128 0x15
 5185 0048 00       		.byte	0
 5186 0049 27       		.uleb128 0x27
 5187 004a 19       		.uleb128 0x19
 5188 004b 00       		.byte	0
 5189 004c 00       		.byte	0
 5190 004d 08       		.uleb128 0x8
 5191 004e 13       		.uleb128 0x13
 5192 004f 01       		.byte	0x1
 5193 0050 0B       		.uleb128 0xb
 5194 0051 0B       		.uleb128 0xb
 5195 0052 3A       		.uleb128 0x3a
 5196 0053 0B       		.uleb128 0xb
 5197 0054 3B       		.uleb128 0x3b
 5198 0055 0B       		.uleb128 0xb
 5199 0056 01       		.uleb128 0x1
 5200 0057 13       		.uleb128 0x13
 5201 0058 00       		.byte	0
 5202 0059 00       		.byte	0
 5203 005a 09       		.uleb128 0x9
 5204 005b 0D       		.uleb128 0xd
 5205 005c 00       		.byte	0
 5206 005d 03       		.uleb128 0x3
 5207 005e 08       		.uleb128 0x8
 5208 005f 3A       		.uleb128 0x3a
 5209 0060 0B       		.uleb128 0xb
 5210 0061 3B       		.uleb128 0x3b
 5211 0062 0B       		.uleb128 0xb
 5212 0063 49       		.uleb128 0x49
 5213 0064 13       		.uleb128 0x13
 5214 0065 38       		.uleb128 0x38
 5215 0066 0B       		.uleb128 0xb
 5216 0067 00       		.byte	0
 5217 0068 00       		.byte	0
 5218 0069 0A       		.uleb128 0xa
 5219 006a 01       		.uleb128 0x1
 5220 006b 01       		.byte	0x1
 5221 006c 49       		.uleb128 0x49
 5222 006d 13       		.uleb128 0x13
 5223 006e 01       		.uleb128 0x1
 5224 006f 13       		.uleb128 0x13
 5225 0070 00       		.byte	0
 5226 0071 00       		.byte	0
 5227 0072 0B       		.uleb128 0xb
 5228 0073 21       		.uleb128 0x21
 5229 0074 00       		.byte	0
 5230 0075 49       		.uleb128 0x49
 5231 0076 13       		.uleb128 0x13
 5232 0077 2F       		.uleb128 0x2f
 5233 0078 0B       		.uleb128 0xb
 5234 0079 00       		.byte	0
 5235 007a 00       		.byte	0
 5236 007b 0C       		.uleb128 0xc
 5237 007c 16       		.uleb128 0x16
 5238 007d 00       		.byte	0
 5239 007e 03       		.uleb128 0x3
ARM GAS  C:\Users\ilya\AppData\Local\Temp\cchJq1OJ.s 			page 121


 5240 007f 0E       		.uleb128 0xe
 5241 0080 3A       		.uleb128 0x3a
 5242 0081 0B       		.uleb128 0xb
 5243 0082 3B       		.uleb128 0x3b
 5244 0083 0B       		.uleb128 0xb
 5245 0084 49       		.uleb128 0x49
 5246 0085 13       		.uleb128 0x13
 5247 0086 00       		.byte	0
 5248 0087 00       		.byte	0
 5249 0088 0D       		.uleb128 0xd
 5250 0089 0D       		.uleb128 0xd
 5251 008a 00       		.byte	0
 5252 008b 03       		.uleb128 0x3
 5253 008c 0E       		.uleb128 0xe
 5254 008d 3A       		.uleb128 0x3a
 5255 008e 0B       		.uleb128 0xb
 5256 008f 3B       		.uleb128 0x3b
 5257 0090 0B       		.uleb128 0xb
 5258 0091 49       		.uleb128 0x49
 5259 0092 13       		.uleb128 0x13
 5260 0093 38       		.uleb128 0x38
 5261 0094 0B       		.uleb128 0xb
 5262 0095 00       		.byte	0
 5263 0096 00       		.byte	0
 5264 0097 0E       		.uleb128 0xe
 5265 0098 0F       		.uleb128 0xf
 5266 0099 00       		.byte	0
 5267 009a 0B       		.uleb128 0xb
 5268 009b 0B       		.uleb128 0xb
 5269 009c 00       		.byte	0
 5270 009d 00       		.byte	0
 5271 009e 0F       		.uleb128 0xf
 5272 009f 13       		.uleb128 0x13
 5273 00a0 01       		.byte	0x1
 5274 00a1 0B       		.uleb128 0xb
 5275 00a2 05       		.uleb128 0x5
 5276 00a3 3A       		.uleb128 0x3a
 5277 00a4 0B       		.uleb128 0xb
 5278 00a5 3B       		.uleb128 0x3b
 5279 00a6 0B       		.uleb128 0xb
 5280 00a7 01       		.uleb128 0x1
 5281 00a8 13       		.uleb128 0x13
 5282 00a9 00       		.byte	0
 5283 00aa 00       		.byte	0
 5284 00ab 10       		.uleb128 0x10
 5285 00ac 2E       		.uleb128 0x2e
 5286 00ad 01       		.byte	0x1
 5287 00ae 3F       		.uleb128 0x3f
 5288 00af 19       		.uleb128 0x19
 5289 00b0 03       		.uleb128 0x3
 5290 00b1 0E       		.uleb128 0xe
 5291 00b2 3A       		.uleb128 0x3a
 5292 00b3 0B       		.uleb128 0xb
 5293 00b4 3B       		.uleb128 0x3b
 5294 00b5 0B       		.uleb128 0xb
 5295 00b6 27       		.uleb128 0x27
 5296 00b7 19       		.uleb128 0x19
ARM GAS  C:\Users\ilya\AppData\Local\Temp\cchJq1OJ.s 			page 122


 5297 00b8 20       		.uleb128 0x20
 5298 00b9 0B       		.uleb128 0xb
 5299 00ba 01       		.uleb128 0x1
 5300 00bb 13       		.uleb128 0x13
 5301 00bc 00       		.byte	0
 5302 00bd 00       		.byte	0
 5303 00be 11       		.uleb128 0x11
 5304 00bf 05       		.uleb128 0x5
 5305 00c0 00       		.byte	0
 5306 00c1 03       		.uleb128 0x3
 5307 00c2 0E       		.uleb128 0xe
 5308 00c3 3A       		.uleb128 0x3a
 5309 00c4 0B       		.uleb128 0xb
 5310 00c5 3B       		.uleb128 0x3b
 5311 00c6 0B       		.uleb128 0xb
 5312 00c7 49       		.uleb128 0x49
 5313 00c8 13       		.uleb128 0x13
 5314 00c9 00       		.byte	0
 5315 00ca 00       		.byte	0
 5316 00cb 12       		.uleb128 0x12
 5317 00cc 2E       		.uleb128 0x2e
 5318 00cd 01       		.byte	0x1
 5319 00ce 3F       		.uleb128 0x3f
 5320 00cf 19       		.uleb128 0x19
 5321 00d0 03       		.uleb128 0x3
 5322 00d1 0E       		.uleb128 0xe
 5323 00d2 3A       		.uleb128 0x3a
 5324 00d3 0B       		.uleb128 0xb
 5325 00d4 3B       		.uleb128 0x3b
 5326 00d5 05       		.uleb128 0x5
 5327 00d6 27       		.uleb128 0x27
 5328 00d7 19       		.uleb128 0x19
 5329 00d8 11       		.uleb128 0x11
 5330 00d9 01       		.uleb128 0x1
 5331 00da 12       		.uleb128 0x12
 5332 00db 06       		.uleb128 0x6
 5333 00dc 40       		.uleb128 0x40
 5334 00dd 18       		.uleb128 0x18
 5335 00de 9642     		.uleb128 0x2116
 5336 00e0 19       		.uleb128 0x19
 5337 00e1 01       		.uleb128 0x1
 5338 00e2 13       		.uleb128 0x13
 5339 00e3 00       		.byte	0
 5340 00e4 00       		.byte	0
 5341 00e5 13       		.uleb128 0x13
 5342 00e6 34       		.uleb128 0x34
 5343 00e7 00       		.byte	0
 5344 00e8 03       		.uleb128 0x3
 5345 00e9 0E       		.uleb128 0xe
 5346 00ea 3A       		.uleb128 0x3a
 5347 00eb 0B       		.uleb128 0xb
 5348 00ec 3B       		.uleb128 0x3b
 5349 00ed 05       		.uleb128 0x5
 5350 00ee 49       		.uleb128 0x49
 5351 00ef 13       		.uleb128 0x13
 5352 00f0 02       		.uleb128 0x2
 5353 00f1 17       		.uleb128 0x17
ARM GAS  C:\Users\ilya\AppData\Local\Temp\cchJq1OJ.s 			page 123


 5354 00f2 00       		.byte	0
 5355 00f3 00       		.byte	0
 5356 00f4 14       		.uleb128 0x14
 5357 00f5 2E       		.uleb128 0x2e
 5358 00f6 01       		.byte	0x1
 5359 00f7 03       		.uleb128 0x3
 5360 00f8 0E       		.uleb128 0xe
 5361 00f9 3A       		.uleb128 0x3a
 5362 00fa 0B       		.uleb128 0xb
 5363 00fb 3B       		.uleb128 0x3b
 5364 00fc 05       		.uleb128 0x5
 5365 00fd 27       		.uleb128 0x27
 5366 00fe 19       		.uleb128 0x19
 5367 00ff 11       		.uleb128 0x11
 5368 0100 01       		.uleb128 0x1
 5369 0101 12       		.uleb128 0x12
 5370 0102 06       		.uleb128 0x6
 5371 0103 40       		.uleb128 0x40
 5372 0104 18       		.uleb128 0x18
 5373 0105 9742     		.uleb128 0x2117
 5374 0107 19       		.uleb128 0x19
 5375 0108 01       		.uleb128 0x1
 5376 0109 13       		.uleb128 0x13
 5377 010a 00       		.byte	0
 5378 010b 00       		.byte	0
 5379 010c 15       		.uleb128 0x15
 5380 010d 898201   		.uleb128 0x4109
 5381 0110 01       		.byte	0x1
 5382 0111 11       		.uleb128 0x11
 5383 0112 01       		.uleb128 0x1
 5384 0113 31       		.uleb128 0x31
 5385 0114 13       		.uleb128 0x13
 5386 0115 00       		.byte	0
 5387 0116 00       		.byte	0
 5388 0117 16       		.uleb128 0x16
 5389 0118 8A8201   		.uleb128 0x410a
 5390 011b 00       		.byte	0
 5391 011c 02       		.uleb128 0x2
 5392 011d 18       		.uleb128 0x18
 5393 011e 9142     		.uleb128 0x2111
 5394 0120 18       		.uleb128 0x18
 5395 0121 00       		.byte	0
 5396 0122 00       		.byte	0
 5397 0123 17       		.uleb128 0x17
 5398 0124 2E       		.uleb128 0x2e
 5399 0125 01       		.byte	0x1
 5400 0126 3F       		.uleb128 0x3f
 5401 0127 19       		.uleb128 0x19
 5402 0128 03       		.uleb128 0x3
 5403 0129 0E       		.uleb128 0xe
 5404 012a 3A       		.uleb128 0x3a
 5405 012b 0B       		.uleb128 0xb
 5406 012c 3B       		.uleb128 0x3b
 5407 012d 0B       		.uleb128 0xb
 5408 012e 27       		.uleb128 0x27
 5409 012f 19       		.uleb128 0x19
 5410 0130 11       		.uleb128 0x11
ARM GAS  C:\Users\ilya\AppData\Local\Temp\cchJq1OJ.s 			page 124


 5411 0131 01       		.uleb128 0x1
 5412 0132 12       		.uleb128 0x12
 5413 0133 06       		.uleb128 0x6
 5414 0134 40       		.uleb128 0x40
 5415 0135 18       		.uleb128 0x18
 5416 0136 9742     		.uleb128 0x2117
 5417 0138 19       		.uleb128 0x19
 5418 0139 01       		.uleb128 0x1
 5419 013a 13       		.uleb128 0x13
 5420 013b 00       		.byte	0
 5421 013c 00       		.byte	0
 5422 013d 18       		.uleb128 0x18
 5423 013e 34       		.uleb128 0x34
 5424 013f 00       		.byte	0
 5425 0140 03       		.uleb128 0x3
 5426 0141 0E       		.uleb128 0xe
 5427 0142 3A       		.uleb128 0x3a
 5428 0143 0B       		.uleb128 0xb
 5429 0144 3B       		.uleb128 0x3b
 5430 0145 0B       		.uleb128 0xb
 5431 0146 49       		.uleb128 0x49
 5432 0147 13       		.uleb128 0x13
 5433 0148 02       		.uleb128 0x2
 5434 0149 18       		.uleb128 0x18
 5435 014a 00       		.byte	0
 5436 014b 00       		.byte	0
 5437 014c 19       		.uleb128 0x19
 5438 014d 1D       		.uleb128 0x1d
 5439 014e 01       		.byte	0x1
 5440 014f 31       		.uleb128 0x31
 5441 0150 13       		.uleb128 0x13
 5442 0151 11       		.uleb128 0x11
 5443 0152 01       		.uleb128 0x1
 5444 0153 12       		.uleb128 0x12
 5445 0154 06       		.uleb128 0x6
 5446 0155 58       		.uleb128 0x58
 5447 0156 0B       		.uleb128 0xb
 5448 0157 59       		.uleb128 0x59
 5449 0158 0B       		.uleb128 0xb
 5450 0159 01       		.uleb128 0x1
 5451 015a 13       		.uleb128 0x13
 5452 015b 00       		.byte	0
 5453 015c 00       		.byte	0
 5454 015d 1A       		.uleb128 0x1a
 5455 015e 05       		.uleb128 0x5
 5456 015f 00       		.byte	0
 5457 0160 31       		.uleb128 0x31
 5458 0161 13       		.uleb128 0x13
 5459 0162 02       		.uleb128 0x2
 5460 0163 17       		.uleb128 0x17
 5461 0164 00       		.byte	0
 5462 0165 00       		.byte	0
 5463 0166 1B       		.uleb128 0x1b
 5464 0167 2E       		.uleb128 0x2e
 5465 0168 00       		.byte	0
 5466 0169 3F       		.uleb128 0x3f
 5467 016a 19       		.uleb128 0x19
ARM GAS  C:\Users\ilya\AppData\Local\Temp\cchJq1OJ.s 			page 125


 5468 016b 03       		.uleb128 0x3
 5469 016c 0E       		.uleb128 0xe
 5470 016d 3A       		.uleb128 0x3a
 5471 016e 0B       		.uleb128 0xb
 5472 016f 3B       		.uleb128 0x3b
 5473 0170 0B       		.uleb128 0xb
 5474 0171 27       		.uleb128 0x27
 5475 0172 19       		.uleb128 0x19
 5476 0173 11       		.uleb128 0x11
 5477 0174 01       		.uleb128 0x1
 5478 0175 12       		.uleb128 0x12
 5479 0176 06       		.uleb128 0x6
 5480 0177 40       		.uleb128 0x40
 5481 0178 18       		.uleb128 0x18
 5482 0179 9742     		.uleb128 0x2117
 5483 017b 19       		.uleb128 0x19
 5484 017c 00       		.byte	0
 5485 017d 00       		.byte	0
 5486 017e 1C       		.uleb128 0x1c
 5487 017f 2E       		.uleb128 0x2e
 5488 0180 00       		.byte	0
 5489 0181 3F       		.uleb128 0x3f
 5490 0182 19       		.uleb128 0x19
 5491 0183 03       		.uleb128 0x3
 5492 0184 0E       		.uleb128 0xe
 5493 0185 3A       		.uleb128 0x3a
 5494 0186 0B       		.uleb128 0xb
 5495 0187 3B       		.uleb128 0x3b
 5496 0188 0B       		.uleb128 0xb
 5497 0189 27       		.uleb128 0x27
 5498 018a 19       		.uleb128 0x19
 5499 018b 49       		.uleb128 0x49
 5500 018c 13       		.uleb128 0x13
 5501 018d 11       		.uleb128 0x11
 5502 018e 01       		.uleb128 0x1
 5503 018f 12       		.uleb128 0x12
 5504 0190 06       		.uleb128 0x6
 5505 0191 40       		.uleb128 0x40
 5506 0192 18       		.uleb128 0x18
 5507 0193 9742     		.uleb128 0x2117
 5508 0195 19       		.uleb128 0x19
 5509 0196 00       		.byte	0
 5510 0197 00       		.byte	0
 5511 0198 1D       		.uleb128 0x1d
 5512 0199 2E       		.uleb128 0x2e
 5513 019a 01       		.byte	0x1
 5514 019b 31       		.uleb128 0x31
 5515 019c 13       		.uleb128 0x13
 5516 019d 11       		.uleb128 0x11
 5517 019e 01       		.uleb128 0x1
 5518 019f 12       		.uleb128 0x12
 5519 01a0 06       		.uleb128 0x6
 5520 01a1 40       		.uleb128 0x40
 5521 01a2 18       		.uleb128 0x18
 5522 01a3 9742     		.uleb128 0x2117
 5523 01a5 19       		.uleb128 0x19
 5524 01a6 01       		.uleb128 0x1
ARM GAS  C:\Users\ilya\AppData\Local\Temp\cchJq1OJ.s 			page 126


 5525 01a7 13       		.uleb128 0x13
 5526 01a8 00       		.byte	0
 5527 01a9 00       		.byte	0
 5528 01aa 1E       		.uleb128 0x1e
 5529 01ab 2E       		.uleb128 0x2e
 5530 01ac 01       		.byte	0x1
 5531 01ad 3F       		.uleb128 0x3f
 5532 01ae 19       		.uleb128 0x19
 5533 01af 03       		.uleb128 0x3
 5534 01b0 0E       		.uleb128 0xe
 5535 01b1 3A       		.uleb128 0x3a
 5536 01b2 0B       		.uleb128 0xb
 5537 01b3 3B       		.uleb128 0x3b
 5538 01b4 05       		.uleb128 0x5
 5539 01b5 27       		.uleb128 0x27
 5540 01b6 19       		.uleb128 0x19
 5541 01b7 11       		.uleb128 0x11
 5542 01b8 01       		.uleb128 0x1
 5543 01b9 12       		.uleb128 0x12
 5544 01ba 06       		.uleb128 0x6
 5545 01bb 40       		.uleb128 0x40
 5546 01bc 18       		.uleb128 0x18
 5547 01bd 9742     		.uleb128 0x2117
 5548 01bf 19       		.uleb128 0x19
 5549 01c0 01       		.uleb128 0x1
 5550 01c1 13       		.uleb128 0x13
 5551 01c2 00       		.byte	0
 5552 01c3 00       		.byte	0
 5553 01c4 1F       		.uleb128 0x1f
 5554 01c5 05       		.uleb128 0x5
 5555 01c6 00       		.byte	0
 5556 01c7 03       		.uleb128 0x3
 5557 01c8 0E       		.uleb128 0xe
 5558 01c9 3A       		.uleb128 0x3a
 5559 01ca 0B       		.uleb128 0xb
 5560 01cb 3B       		.uleb128 0x3b
 5561 01cc 05       		.uleb128 0x5
 5562 01cd 49       		.uleb128 0x49
 5563 01ce 13       		.uleb128 0x13
 5564 01cf 02       		.uleb128 0x2
 5565 01d0 18       		.uleb128 0x18
 5566 01d1 00       		.byte	0
 5567 01d2 00       		.byte	0
 5568 01d3 20       		.uleb128 0x20
 5569 01d4 2E       		.uleb128 0x2e
 5570 01d5 00       		.byte	0
 5571 01d6 3F       		.uleb128 0x3f
 5572 01d7 19       		.uleb128 0x19
 5573 01d8 03       		.uleb128 0x3
 5574 01d9 0E       		.uleb128 0xe
 5575 01da 3A       		.uleb128 0x3a
 5576 01db 0B       		.uleb128 0xb
 5577 01dc 3B       		.uleb128 0x3b
 5578 01dd 05       		.uleb128 0x5
 5579 01de 27       		.uleb128 0x27
 5580 01df 19       		.uleb128 0x19
 5581 01e0 49       		.uleb128 0x49
ARM GAS  C:\Users\ilya\AppData\Local\Temp\cchJq1OJ.s 			page 127


 5582 01e1 13       		.uleb128 0x13
 5583 01e2 11       		.uleb128 0x11
 5584 01e3 01       		.uleb128 0x1
 5585 01e4 12       		.uleb128 0x12
 5586 01e5 06       		.uleb128 0x6
 5587 01e6 40       		.uleb128 0x40
 5588 01e7 18       		.uleb128 0x18
 5589 01e8 9742     		.uleb128 0x2117
 5590 01ea 19       		.uleb128 0x19
 5591 01eb 00       		.byte	0
 5592 01ec 00       		.byte	0
 5593 01ed 21       		.uleb128 0x21
 5594 01ee 2E       		.uleb128 0x2e
 5595 01ef 01       		.byte	0x1
 5596 01f0 3F       		.uleb128 0x3f
 5597 01f1 19       		.uleb128 0x19
 5598 01f2 03       		.uleb128 0x3
 5599 01f3 0E       		.uleb128 0xe
 5600 01f4 3A       		.uleb128 0x3a
 5601 01f5 0B       		.uleb128 0xb
 5602 01f6 3B       		.uleb128 0x3b
 5603 01f7 05       		.uleb128 0x5
 5604 01f8 27       		.uleb128 0x27
 5605 01f9 19       		.uleb128 0x19
 5606 01fa 49       		.uleb128 0x49
 5607 01fb 13       		.uleb128 0x13
 5608 01fc 11       		.uleb128 0x11
 5609 01fd 01       		.uleb128 0x1
 5610 01fe 12       		.uleb128 0x12
 5611 01ff 06       		.uleb128 0x6
 5612 0200 40       		.uleb128 0x40
 5613 0201 18       		.uleb128 0x18
 5614 0202 9742     		.uleb128 0x2117
 5615 0204 19       		.uleb128 0x19
 5616 0205 01       		.uleb128 0x1
 5617 0206 13       		.uleb128 0x13
 5618 0207 00       		.byte	0
 5619 0208 00       		.byte	0
 5620 0209 22       		.uleb128 0x22
 5621 020a 05       		.uleb128 0x5
 5622 020b 00       		.byte	0
 5623 020c 03       		.uleb128 0x3
 5624 020d 0E       		.uleb128 0xe
 5625 020e 3A       		.uleb128 0x3a
 5626 020f 0B       		.uleb128 0xb
 5627 0210 3B       		.uleb128 0x3b
 5628 0211 05       		.uleb128 0x5
 5629 0212 49       		.uleb128 0x49
 5630 0213 13       		.uleb128 0x13
 5631 0214 02       		.uleb128 0x2
 5632 0215 17       		.uleb128 0x17
 5633 0216 00       		.byte	0
 5634 0217 00       		.byte	0
 5635 0218 23       		.uleb128 0x23
 5636 0219 34       		.uleb128 0x34
 5637 021a 00       		.byte	0
 5638 021b 03       		.uleb128 0x3
ARM GAS  C:\Users\ilya\AppData\Local\Temp\cchJq1OJ.s 			page 128


 5639 021c 0E       		.uleb128 0xe
 5640 021d 3A       		.uleb128 0x3a
 5641 021e 0B       		.uleb128 0xb
 5642 021f 3B       		.uleb128 0x3b
 5643 0220 05       		.uleb128 0x5
 5644 0221 49       		.uleb128 0x49
 5645 0222 13       		.uleb128 0x13
 5646 0223 02       		.uleb128 0x2
 5647 0224 18       		.uleb128 0x18
 5648 0225 00       		.byte	0
 5649 0226 00       		.byte	0
 5650 0227 24       		.uleb128 0x24
 5651 0228 34       		.uleb128 0x34
 5652 0229 00       		.byte	0
 5653 022a 03       		.uleb128 0x3
 5654 022b 0E       		.uleb128 0xe
 5655 022c 3A       		.uleb128 0x3a
 5656 022d 0B       		.uleb128 0xb
 5657 022e 3B       		.uleb128 0x3b
 5658 022f 05       		.uleb128 0x5
 5659 0230 49       		.uleb128 0x49
 5660 0231 13       		.uleb128 0x13
 5661 0232 1C       		.uleb128 0x1c
 5662 0233 0A       		.uleb128 0xa
 5663 0234 00       		.byte	0
 5664 0235 00       		.byte	0
 5665 0236 25       		.uleb128 0x25
 5666 0237 26       		.uleb128 0x26
 5667 0238 00       		.byte	0
 5668 0239 49       		.uleb128 0x49
 5669 023a 13       		.uleb128 0x13
 5670 023b 00       		.byte	0
 5671 023c 00       		.byte	0
 5672 023d 26       		.uleb128 0x26
 5673 023e 898201   		.uleb128 0x4109
 5674 0241 01       		.byte	0x1
 5675 0242 11       		.uleb128 0x11
 5676 0243 01       		.uleb128 0x1
 5677 0244 31       		.uleb128 0x31
 5678 0245 13       		.uleb128 0x13
 5679 0246 01       		.uleb128 0x1
 5680 0247 13       		.uleb128 0x13
 5681 0248 00       		.byte	0
 5682 0249 00       		.byte	0
 5683 024a 27       		.uleb128 0x27
 5684 024b 2E       		.uleb128 0x2e
 5685 024c 00       		.byte	0
 5686 024d 3F       		.uleb128 0x3f
 5687 024e 19       		.uleb128 0x19
 5688 024f 3C       		.uleb128 0x3c
 5689 0250 19       		.uleb128 0x19
 5690 0251 6E       		.uleb128 0x6e
 5691 0252 0E       		.uleb128 0xe
 5692 0253 03       		.uleb128 0x3
 5693 0254 0E       		.uleb128 0xe
 5694 0255 3A       		.uleb128 0x3a
 5695 0256 0B       		.uleb128 0xb
ARM GAS  C:\Users\ilya\AppData\Local\Temp\cchJq1OJ.s 			page 129


 5696 0257 3B       		.uleb128 0x3b
 5697 0258 0B       		.uleb128 0xb
 5698 0259 00       		.byte	0
 5699 025a 00       		.byte	0
 5700 025b 00       		.byte	0
 5701              		.section	.debug_loc,"",%progbits
 5702              	.Ldebug_loc0:
 5703              	.LLST0:
 5704 0000 06000000 		.4byte	.LVL1
 5705 0004 2C000000 		.4byte	.LVL6
 5706 0008 0100     		.2byte	0x1
 5707 000a 54       		.byte	0x54
 5708 000b 00000000 		.4byte	0
 5709 000f 00000000 		.4byte	0
 5710              	.LLST1:
 5711 0013 00000000 		.4byte	.LVL0
 5712 0017 14000000 		.4byte	.LVL2
 5713 001b 0200     		.2byte	0x2
 5714 001d 30       		.byte	0x30
 5715 001e 9F       		.byte	0x9f
 5716 001f 00000000 		.4byte	0
 5717 0023 00000000 		.4byte	0
 5718              	.LLST2:
 5719 0027 0A000000 		.4byte	.LVL8
 5720 002b 12000000 		.4byte	.LVL9
 5721 002f 0600     		.2byte	0x6
 5722 0031 03       		.byte	0x3
 5723 0032 00000000 		.4byte	CyDmaInterrupt
 5724 0036 9F       		.byte	0x9f
 5725 0037 00000000 		.4byte	0
 5726 003b 00000000 		.4byte	0
 5727              	.LLST3:
 5728 003f 00000000 		.4byte	.LVL11
 5729 0043 06000000 		.4byte	.LVL12
 5730 0047 0100     		.2byte	0x1
 5731 0049 50       		.byte	0x50
 5732 004a 06000000 		.4byte	.LVL12
 5733 004e 09000000 		.4byte	.LVL13-1
 5734 0052 0100     		.2byte	0x1
 5735 0054 51       		.byte	0x51
 5736 0055 09000000 		.4byte	.LVL13-1
 5737 0059 0C000000 		.4byte	.LFE7
 5738 005d 0400     		.2byte	0x4
 5739 005f F3       		.byte	0xf3
 5740 0060 01       		.uleb128 0x1
 5741 0061 50       		.byte	0x50
 5742 0062 9F       		.byte	0x9f
 5743 0063 00000000 		.4byte	0
 5744 0067 00000000 		.4byte	0
 5745              	.LLST4:
 5746 006b 00000000 		.4byte	.LVL16
 5747 006f 0C000000 		.4byte	.LVL17
 5748 0073 0100     		.2byte	0x1
 5749 0075 50       		.byte	0x50
 5750 0076 0C000000 		.4byte	.LVL17
 5751 007a 14000000 		.4byte	.LVL19
 5752 007e 0100     		.2byte	0x1
ARM GAS  C:\Users\ilya\AppData\Local\Temp\cchJq1OJ.s 			page 130


 5753 0080 54       		.byte	0x54
 5754 0081 14000000 		.4byte	.LVL19
 5755 0085 20000000 		.4byte	.LFE13
 5756 0089 0400     		.2byte	0x4
 5757 008b F3       		.byte	0xf3
 5758 008c 01       		.uleb128 0x1
 5759 008d 50       		.byte	0x50
 5760 008e 9F       		.byte	0x9f
 5761 008f 00000000 		.4byte	0
 5762 0093 00000000 		.4byte	0
 5763              	.LLST5:
 5764 0097 00000000 		.4byte	.LVL16
 5765 009b 0F000000 		.4byte	.LVL18-1
 5766 009f 0100     		.2byte	0x1
 5767 00a1 51       		.byte	0x51
 5768 00a2 0F000000 		.4byte	.LVL18-1
 5769 00a6 18000000 		.4byte	.LVL21
 5770 00aa 0100     		.2byte	0x1
 5771 00ac 55       		.byte	0x55
 5772 00ad 18000000 		.4byte	.LVL21
 5773 00b1 20000000 		.4byte	.LFE13
 5774 00b5 0800     		.2byte	0x8
 5775 00b7 F3       		.byte	0xf3
 5776 00b8 01       		.uleb128 0x1
 5777 00b9 50       		.byte	0x50
 5778 00ba 32       		.byte	0x32
 5779 00bb 24       		.byte	0x24
 5780 00bc 73       		.byte	0x73
 5781 00bd 00       		.sleb128 0
 5782 00be 22       		.byte	0x22
 5783 00bf 00000000 		.4byte	0
 5784 00c3 00000000 		.4byte	0
 5785              	.LLST6:
 5786 00c7 00000000 		.4byte	.LVL22
 5787 00cb 0A000000 		.4byte	.LVL23
 5788 00cf 0100     		.2byte	0x1
 5789 00d1 50       		.byte	0x50
 5790 00d2 0A000000 		.4byte	.LVL23
 5791 00d6 12000000 		.4byte	.LVL25
 5792 00da 0100     		.2byte	0x1
 5793 00dc 54       		.byte	0x54
 5794 00dd 12000000 		.4byte	.LVL25
 5795 00e1 1C000000 		.4byte	.LFE14
 5796 00e5 0400     		.2byte	0x4
 5797 00e7 F3       		.byte	0xf3
 5798 00e8 01       		.uleb128 0x1
 5799 00e9 50       		.byte	0x50
 5800 00ea 9F       		.byte	0x9f
 5801 00eb 00000000 		.4byte	0
 5802 00ef 00000000 		.4byte	0
 5803              	.LLST7:
 5804 00f3 00000000 		.4byte	.LVL26
 5805 00f7 08000000 		.4byte	.LVL27
 5806 00fb 0200     		.2byte	0x2
 5807 00fd 37       		.byte	0x37
 5808 00fe 9F       		.byte	0x9f
 5809 00ff 08000000 		.4byte	.LVL27
ARM GAS  C:\Users\ilya\AppData\Local\Temp\cchJq1OJ.s 			page 131


 5810 0103 0C000000 		.4byte	.LVL28
 5811 0107 0200     		.2byte	0x2
 5812 0109 36       		.byte	0x36
 5813 010a 9F       		.byte	0x9f
 5814 010b 0C000000 		.4byte	.LVL28
 5815 010f 10000000 		.4byte	.LVL29
 5816 0113 0200     		.2byte	0x2
 5817 0115 35       		.byte	0x35
 5818 0116 9F       		.byte	0x9f
 5819 0117 10000000 		.4byte	.LVL29
 5820 011b 14000000 		.4byte	.LVL30
 5821 011f 0200     		.2byte	0x2
 5822 0121 34       		.byte	0x34
 5823 0122 9F       		.byte	0x9f
 5824 0123 14000000 		.4byte	.LVL30
 5825 0127 18000000 		.4byte	.LVL31
 5826 012b 0200     		.2byte	0x2
 5827 012d 33       		.byte	0x33
 5828 012e 9F       		.byte	0x9f
 5829 012f 18000000 		.4byte	.LVL31
 5830 0133 1C000000 		.4byte	.LVL32
 5831 0137 0200     		.2byte	0x2
 5832 0139 32       		.byte	0x32
 5833 013a 9F       		.byte	0x9f
 5834 013b 1C000000 		.4byte	.LVL32
 5835 013f 20000000 		.4byte	.LVL33
 5836 0143 0200     		.2byte	0x2
 5837 0145 31       		.byte	0x31
 5838 0146 9F       		.byte	0x9f
 5839 0147 20000000 		.4byte	.LVL33
 5840 014b 28000000 		.4byte	.LVL34
 5841 014f 0200     		.2byte	0x2
 5842 0151 30       		.byte	0x30
 5843 0152 9F       		.byte	0x9f
 5844 0153 2A000000 		.4byte	.LVL35
 5845 0157 2E000000 		.4byte	.LVL36
 5846 015b 0200     		.2byte	0x2
 5847 015d 37       		.byte	0x37
 5848 015e 9F       		.byte	0x9f
 5849 015f 34000000 		.4byte	.LVL37
 5850 0163 3A000000 		.4byte	.LVL38
 5851 0167 0200     		.2byte	0x2
 5852 0169 36       		.byte	0x36
 5853 016a 9F       		.byte	0x9f
 5854 016b 3A000000 		.4byte	.LVL38
 5855 016f 40000000 		.4byte	.LVL39
 5856 0173 0200     		.2byte	0x2
 5857 0175 35       		.byte	0x35
 5858 0176 9F       		.byte	0x9f
 5859 0177 40000000 		.4byte	.LVL39
 5860 017b 46000000 		.4byte	.LVL40
 5861 017f 0200     		.2byte	0x2
 5862 0181 34       		.byte	0x34
 5863 0182 9F       		.byte	0x9f
 5864 0183 46000000 		.4byte	.LVL40
 5865 0187 4C000000 		.4byte	.LVL41
 5866 018b 0200     		.2byte	0x2
ARM GAS  C:\Users\ilya\AppData\Local\Temp\cchJq1OJ.s 			page 132


 5867 018d 33       		.byte	0x33
 5868 018e 9F       		.byte	0x9f
 5869 018f 4C000000 		.4byte	.LVL41
 5870 0193 52000000 		.4byte	.LVL42
 5871 0197 0200     		.2byte	0x2
 5872 0199 32       		.byte	0x32
 5873 019a 9F       		.byte	0x9f
 5874 019b 52000000 		.4byte	.LVL42
 5875 019f 58000000 		.4byte	.LVL43
 5876 01a3 0200     		.2byte	0x2
 5877 01a5 31       		.byte	0x31
 5878 01a6 9F       		.byte	0x9f
 5879 01a7 58000000 		.4byte	.LVL43
 5880 01ab 64000000 		.4byte	.LFE17
 5881 01af 0200     		.2byte	0x2
 5882 01b1 30       		.byte	0x30
 5883 01b2 9F       		.byte	0x9f
 5884 01b3 00000000 		.4byte	0
 5885 01b7 00000000 		.4byte	0
 5886              	.LLST8:
 5887 01bb 00000000 		.4byte	.LVL26
 5888 01bf 08000000 		.4byte	.LVL27
 5889 01c3 0300     		.2byte	0x3
 5890 01c5 08       		.byte	0x8
 5891 01c6 80       		.byte	0x80
 5892 01c7 9F       		.byte	0x9f
 5893 01c8 08000000 		.4byte	.LVL27
 5894 01cc 0C000000 		.4byte	.LVL28
 5895 01d0 0300     		.2byte	0x3
 5896 01d2 08       		.byte	0x8
 5897 01d3 40       		.byte	0x40
 5898 01d4 9F       		.byte	0x9f
 5899 01d5 0C000000 		.4byte	.LVL28
 5900 01d9 10000000 		.4byte	.LVL29
 5901 01dd 0300     		.2byte	0x3
 5902 01df 08       		.byte	0x8
 5903 01e0 20       		.byte	0x20
 5904 01e1 9F       		.byte	0x9f
 5905 01e2 10000000 		.4byte	.LVL29
 5906 01e6 14000000 		.4byte	.LVL30
 5907 01ea 0200     		.2byte	0x2
 5908 01ec 40       		.byte	0x40
 5909 01ed 9F       		.byte	0x9f
 5910 01ee 14000000 		.4byte	.LVL30
 5911 01f2 18000000 		.4byte	.LVL31
 5912 01f6 0200     		.2byte	0x2
 5913 01f8 38       		.byte	0x38
 5914 01f9 9F       		.byte	0x9f
 5915 01fa 18000000 		.4byte	.LVL31
 5916 01fe 1C000000 		.4byte	.LVL32
 5917 0202 0200     		.2byte	0x2
 5918 0204 34       		.byte	0x34
 5919 0205 9F       		.byte	0x9f
 5920 0206 1C000000 		.4byte	.LVL32
 5921 020a 20000000 		.4byte	.LVL33
 5922 020e 0200     		.2byte	0x2
 5923 0210 32       		.byte	0x32
ARM GAS  C:\Users\ilya\AppData\Local\Temp\cchJq1OJ.s 			page 133


 5924 0211 9F       		.byte	0x9f
 5925 0212 20000000 		.4byte	.LVL33
 5926 0216 28000000 		.4byte	.LVL34
 5927 021a 0200     		.2byte	0x2
 5928 021c 31       		.byte	0x31
 5929 021d 9F       		.byte	0x9f
 5930 021e 2A000000 		.4byte	.LVL35
 5931 0222 2E000000 		.4byte	.LVL36
 5932 0226 0300     		.2byte	0x3
 5933 0228 08       		.byte	0x8
 5934 0229 80       		.byte	0x80
 5935 022a 9F       		.byte	0x9f
 5936 022b 34000000 		.4byte	.LVL37
 5937 022f 3A000000 		.4byte	.LVL38
 5938 0233 0300     		.2byte	0x3
 5939 0235 08       		.byte	0x8
 5940 0236 40       		.byte	0x40
 5941 0237 9F       		.byte	0x9f
 5942 0238 3A000000 		.4byte	.LVL38
 5943 023c 40000000 		.4byte	.LVL39
 5944 0240 0300     		.2byte	0x3
 5945 0242 08       		.byte	0x8
 5946 0243 20       		.byte	0x20
 5947 0244 9F       		.byte	0x9f
 5948 0245 40000000 		.4byte	.LVL39
 5949 0249 46000000 		.4byte	.LVL40
 5950 024d 0200     		.2byte	0x2
 5951 024f 40       		.byte	0x40
 5952 0250 9F       		.byte	0x9f
 5953 0251 46000000 		.4byte	.LVL40
 5954 0255 4C000000 		.4byte	.LVL41
 5955 0259 0200     		.2byte	0x2
 5956 025b 38       		.byte	0x38
 5957 025c 9F       		.byte	0x9f
 5958 025d 4C000000 		.4byte	.LVL41
 5959 0261 52000000 		.4byte	.LVL42
 5960 0265 0200     		.2byte	0x2
 5961 0267 34       		.byte	0x34
 5962 0268 9F       		.byte	0x9f
 5963 0269 52000000 		.4byte	.LVL42
 5964 026d 58000000 		.4byte	.LVL43
 5965 0271 0200     		.2byte	0x2
 5966 0273 32       		.byte	0x32
 5967 0274 9F       		.byte	0x9f
 5968 0275 58000000 		.4byte	.LVL43
 5969 0279 64000000 		.4byte	.LFE17
 5970 027d 0200     		.2byte	0x2
 5971 027f 31       		.byte	0x31
 5972 0280 9F       		.byte	0x9f
 5973 0281 00000000 		.4byte	0
 5974 0285 00000000 		.4byte	0
 5975              	.LLST9:
 5976 0289 00000000 		.4byte	.LVL44
 5977 028d 0A000000 		.4byte	.LVL45
 5978 0291 0100     		.2byte	0x1
 5979 0293 50       		.byte	0x50
 5980 0294 0A000000 		.4byte	.LVL45
ARM GAS  C:\Users\ilya\AppData\Local\Temp\cchJq1OJ.s 			page 134


 5981 0298 1C000000 		.4byte	.LVL49
 5982 029c 0100     		.2byte	0x1
 5983 029e 54       		.byte	0x54
 5984 029f 1C000000 		.4byte	.LVL49
 5985 02a3 24000000 		.4byte	.LFE18
 5986 02a7 0400     		.2byte	0x4
 5987 02a9 F3       		.byte	0xf3
 5988 02aa 01       		.uleb128 0x1
 5989 02ab 50       		.byte	0x50
 5990 02ac 9F       		.byte	0x9f
 5991 02ad 00000000 		.4byte	0
 5992 02b1 00000000 		.4byte	0
 5993              	.LLST10:
 5994 02b5 0E000000 		.4byte	.LVL46
 5995 02b9 12000000 		.4byte	.LVL47
 5996 02bd 0500     		.2byte	0x5
 5997 02bf 31       		.byte	0x31
 5998 02c0 74       		.byte	0x74
 5999 02c1 00       		.sleb128 0
 6000 02c2 24       		.byte	0x24
 6001 02c3 9F       		.byte	0x9f
 6002 02c4 12000000 		.4byte	.LVL47
 6003 02c8 24000000 		.4byte	.LFE18
 6004 02cc 0100     		.2byte	0x1
 6005 02ce 53       		.byte	0x53
 6006 02cf 00000000 		.4byte	0
 6007 02d3 00000000 		.4byte	0
 6008              	.LLST11:
 6009 02d7 00000000 		.4byte	.LVL44
 6010 02db 1C000000 		.4byte	.LVL48
 6011 02df 0200     		.2byte	0x2
 6012 02e1 31       		.byte	0x31
 6013 02e2 9F       		.byte	0x9f
 6014 02e3 1C000000 		.4byte	.LVL48
 6015 02e7 24000000 		.4byte	.LFE18
 6016 02eb 0200     		.2byte	0x2
 6017 02ed 30       		.byte	0x30
 6018 02ee 9F       		.byte	0x9f
 6019 02ef 00000000 		.4byte	0
 6020 02f3 00000000 		.4byte	0
 6021              	.LLST12:
 6022 02f7 00000000 		.4byte	.LVL50
 6023 02fb 0A000000 		.4byte	.LVL51
 6024 02ff 0100     		.2byte	0x1
 6025 0301 50       		.byte	0x50
 6026 0302 0A000000 		.4byte	.LVL51
 6027 0306 16000000 		.4byte	.LVL53
 6028 030a 0100     		.2byte	0x1
 6029 030c 54       		.byte	0x54
 6030 030d 16000000 		.4byte	.LVL53
 6031 0311 28000000 		.4byte	.LFE19
 6032 0315 0400     		.2byte	0x4
 6033 0317 F3       		.byte	0xf3
 6034 0318 01       		.uleb128 0x1
 6035 0319 50       		.byte	0x50
 6036 031a 9F       		.byte	0x9f
 6037 031b 00000000 		.4byte	0
ARM GAS  C:\Users\ilya\AppData\Local\Temp\cchJq1OJ.s 			page 135


 6038 031f 00000000 		.4byte	0
 6039              	.LLST13:
 6040 0323 00000000 		.4byte	.LVL54
 6041 0327 0A000000 		.4byte	.LVL55
 6042 032b 0100     		.2byte	0x1
 6043 032d 50       		.byte	0x50
 6044 032e 0A000000 		.4byte	.LVL55
 6045 0332 12000000 		.4byte	.LVL57
 6046 0336 0100     		.2byte	0x1
 6047 0338 54       		.byte	0x54
 6048 0339 12000000 		.4byte	.LVL57
 6049 033d 24000000 		.4byte	.LFE20
 6050 0341 0400     		.2byte	0x4
 6051 0343 F3       		.byte	0xf3
 6052 0344 01       		.uleb128 0x1
 6053 0345 50       		.byte	0x50
 6054 0346 9F       		.byte	0x9f
 6055 0347 00000000 		.4byte	0
 6056 034b 00000000 		.4byte	0
 6057              	.LLST14:
 6058 034f 00000000 		.4byte	.LVL58
 6059 0353 0A000000 		.4byte	.LVL59
 6060 0357 0100     		.2byte	0x1
 6061 0359 50       		.byte	0x50
 6062 035a 0A000000 		.4byte	.LVL59
 6063 035e 12000000 		.4byte	.LVL61
 6064 0362 0100     		.2byte	0x1
 6065 0364 54       		.byte	0x54
 6066 0365 12000000 		.4byte	.LVL61
 6067 0369 24000000 		.4byte	.LFE21
 6068 036d 0400     		.2byte	0x4
 6069 036f F3       		.byte	0xf3
 6070 0370 01       		.uleb128 0x1
 6071 0371 50       		.byte	0x50
 6072 0372 9F       		.byte	0x9f
 6073 0373 00000000 		.4byte	0
 6074 0377 00000000 		.4byte	0
 6075              	.LLST15:
 6076 037b 00000000 		.4byte	.LVL62
 6077 037f 0A000000 		.4byte	.LVL63
 6078 0383 0100     		.2byte	0x1
 6079 0385 50       		.byte	0x50
 6080 0386 0A000000 		.4byte	.LVL63
 6081 038a 18000000 		.4byte	.LVL65
 6082 038e 0100     		.2byte	0x1
 6083 0390 54       		.byte	0x54
 6084 0391 18000000 		.4byte	.LVL65
 6085 0395 2A000000 		.4byte	.LVL69
 6086 0399 0400     		.2byte	0x4
 6087 039b F3       		.byte	0xf3
 6088 039c 01       		.uleb128 0x1
 6089 039d 50       		.byte	0x50
 6090 039e 9F       		.byte	0x9f
 6091 039f 2A000000 		.4byte	.LVL69
 6092 03a3 2C000000 		.4byte	.LVL70
 6093 03a7 0100     		.2byte	0x1
 6094 03a9 50       		.byte	0x50
ARM GAS  C:\Users\ilya\AppData\Local\Temp\cchJq1OJ.s 			page 136


 6095 03aa 2C000000 		.4byte	.LVL70
 6096 03ae 3C000000 		.4byte	.LFE22
 6097 03b2 0100     		.2byte	0x1
 6098 03b4 54       		.byte	0x54
 6099 03b5 00000000 		.4byte	0
 6100 03b9 00000000 		.4byte	0
 6101              	.LLST16:
 6102 03bd 00000000 		.4byte	.LVL62
 6103 03c1 0A000000 		.4byte	.LVL63
 6104 03c5 0100     		.2byte	0x1
 6105 03c7 51       		.byte	0x51
 6106 03c8 0A000000 		.4byte	.LVL63
 6107 03cc 22000000 		.4byte	.LVL67
 6108 03d0 0100     		.2byte	0x1
 6109 03d2 55       		.byte	0x55
 6110 03d3 22000000 		.4byte	.LVL67
 6111 03d7 2A000000 		.4byte	.LVL69
 6112 03db 0400     		.2byte	0x4
 6113 03dd F3       		.byte	0xf3
 6114 03de 01       		.uleb128 0x1
 6115 03df 51       		.byte	0x51
 6116 03e0 9F       		.byte	0x9f
 6117 03e1 2A000000 		.4byte	.LVL69
 6118 03e5 2F000000 		.4byte	.LVL71-1
 6119 03e9 0100     		.2byte	0x1
 6120 03eb 51       		.byte	0x51
 6121 03ec 2F000000 		.4byte	.LVL71-1
 6122 03f0 3C000000 		.4byte	.LFE22
 6123 03f4 0100     		.2byte	0x1
 6124 03f6 55       		.byte	0x55
 6125 03f7 00000000 		.4byte	0
 6126 03fb 00000000 		.4byte	0
 6127              	.LLST17:
 6128 03ff 1E000000 		.4byte	.LVL66
 6129 0403 24000000 		.4byte	.LVL68
 6130 0407 0A00     		.2byte	0xa
 6131 0409 72       		.byte	0x72
 6132 040a 00       		.sleb128 0
 6133 040b 11       		.byte	0x11
 6134 040c FFFFFFFF 		.sleb128 -805306369
 6134      7C
 6135 0411 1A       		.byte	0x1a
 6136 0412 9F       		.byte	0x9f
 6137 0413 24000000 		.4byte	.LVL68
 6138 0417 2A000000 		.4byte	.LVL69
 6139 041b 0100     		.2byte	0x1
 6140 041d 53       		.byte	0x53
 6141 041e 00000000 		.4byte	0
 6142 0422 00000000 		.4byte	0
 6143              	.LLST18:
 6144 0426 00000000 		.4byte	.LVL72
 6145 042a 0A000000 		.4byte	.LVL73
 6146 042e 0100     		.2byte	0x1
 6147 0430 50       		.byte	0x50
 6148 0431 0A000000 		.4byte	.LVL73
 6149 0435 12000000 		.4byte	.LVL75
 6150 0439 0100     		.2byte	0x1
ARM GAS  C:\Users\ilya\AppData\Local\Temp\cchJq1OJ.s 			page 137


 6151 043b 54       		.byte	0x54
 6152 043c 12000000 		.4byte	.LVL75
 6153 0440 20000000 		.4byte	.LFE23
 6154 0444 0400     		.2byte	0x4
 6155 0446 F3       		.byte	0xf3
 6156 0447 01       		.uleb128 0x1
 6157 0448 50       		.byte	0x50
 6158 0449 9F       		.byte	0x9f
 6159 044a 00000000 		.4byte	0
 6160 044e 00000000 		.4byte	0
 6161              	.LLST19:
 6162 0452 14000000 		.4byte	.LVL76
 6163 0456 16000000 		.4byte	.LVL77
 6164 045a 0700     		.2byte	0x7
 6165 045c 70       		.byte	0x70
 6166 045d 00       		.sleb128 0
 6167 045e 4C       		.byte	0x4c
 6168 045f 25       		.byte	0x25
 6169 0460 33       		.byte	0x33
 6170 0461 1A       		.byte	0x1a
 6171 0462 9F       		.byte	0x9f
 6172 0463 00000000 		.4byte	0
 6173 0467 00000000 		.4byte	0
 6174              	.LLST20:
 6175 046b 00000000 		.4byte	.LVL78
 6176 046f 0A000000 		.4byte	.LVL79
 6177 0473 0100     		.2byte	0x1
 6178 0475 50       		.byte	0x50
 6179 0476 0A000000 		.4byte	.LVL79
 6180 047a 18000000 		.4byte	.LVL81
 6181 047e 0100     		.2byte	0x1
 6182 0480 54       		.byte	0x54
 6183 0481 18000000 		.4byte	.LVL81
 6184 0485 2A000000 		.4byte	.LVL85
 6185 0489 0400     		.2byte	0x4
 6186 048b F3       		.byte	0xf3
 6187 048c 01       		.uleb128 0x1
 6188 048d 50       		.byte	0x50
 6189 048e 9F       		.byte	0x9f
 6190 048f 2A000000 		.4byte	.LVL85
 6191 0493 2C000000 		.4byte	.LVL86
 6192 0497 0100     		.2byte	0x1
 6193 0499 50       		.byte	0x50
 6194 049a 2C000000 		.4byte	.LVL86
 6195 049e 3C000000 		.4byte	.LFE24
 6196 04a2 0100     		.2byte	0x1
 6197 04a4 54       		.byte	0x54
 6198 04a5 00000000 		.4byte	0
 6199 04a9 00000000 		.4byte	0
 6200              	.LLST21:
 6201 04ad 00000000 		.4byte	.LVL78
 6202 04b1 0A000000 		.4byte	.LVL79
 6203 04b5 0100     		.2byte	0x1
 6204 04b7 51       		.byte	0x51
 6205 04b8 0A000000 		.4byte	.LVL79
 6206 04bc 22000000 		.4byte	.LVL83
 6207 04c0 0100     		.2byte	0x1
ARM GAS  C:\Users\ilya\AppData\Local\Temp\cchJq1OJ.s 			page 138


 6208 04c2 55       		.byte	0x55
 6209 04c3 22000000 		.4byte	.LVL83
 6210 04c7 2A000000 		.4byte	.LVL85
 6211 04cb 0400     		.2byte	0x4
 6212 04cd F3       		.byte	0xf3
 6213 04ce 01       		.uleb128 0x1
 6214 04cf 51       		.byte	0x51
 6215 04d0 9F       		.byte	0x9f
 6216 04d1 2A000000 		.4byte	.LVL85
 6217 04d5 2F000000 		.4byte	.LVL87-1
 6218 04d9 0100     		.2byte	0x1
 6219 04db 51       		.byte	0x51
 6220 04dc 2F000000 		.4byte	.LVL87-1
 6221 04e0 3C000000 		.4byte	.LFE24
 6222 04e4 0100     		.2byte	0x1
 6223 04e6 55       		.byte	0x55
 6224 04e7 00000000 		.4byte	0
 6225 04eb 00000000 		.4byte	0
 6226              	.LLST22:
 6227 04ef 1E000000 		.4byte	.LVL82
 6228 04f3 24000000 		.4byte	.LVL84
 6229 04f7 0A00     		.2byte	0xa
 6230 04f9 72       		.byte	0x72
 6231 04fa 00       		.sleb128 0
 6232 04fb 11       		.byte	0x11
 6233 04fc FFFFFFFF 		.sleb128 -1073741825
 6233      7B
 6234 0501 1A       		.byte	0x1a
 6235 0502 9F       		.byte	0x9f
 6236 0503 24000000 		.4byte	.LVL84
 6237 0507 2A000000 		.4byte	.LVL85
 6238 050b 0100     		.2byte	0x1
 6239 050d 53       		.byte	0x53
 6240 050e 00000000 		.4byte	0
 6241 0512 00000000 		.4byte	0
 6242              	.LLST23:
 6243 0516 00000000 		.4byte	.LVL88
 6244 051a 0A000000 		.4byte	.LVL89
 6245 051e 0100     		.2byte	0x1
 6246 0520 50       		.byte	0x50
 6247 0521 0A000000 		.4byte	.LVL89
 6248 0525 12000000 		.4byte	.LVL91
 6249 0529 0100     		.2byte	0x1
 6250 052b 54       		.byte	0x54
 6251 052c 12000000 		.4byte	.LVL91
 6252 0530 20000000 		.4byte	.LFE25
 6253 0534 0400     		.2byte	0x4
 6254 0536 F3       		.byte	0xf3
 6255 0537 01       		.uleb128 0x1
 6256 0538 50       		.byte	0x50
 6257 0539 9F       		.byte	0x9f
 6258 053a 00000000 		.4byte	0
 6259 053e 00000000 		.4byte	0
 6260              	.LLST24:
 6261 0542 14000000 		.4byte	.LVL92
 6262 0546 16000000 		.4byte	.LVL93
 6263 054a 0700     		.2byte	0x7
ARM GAS  C:\Users\ilya\AppData\Local\Temp\cchJq1OJ.s 			page 139


 6264 054c 70       		.byte	0x70
 6265 054d 00       		.sleb128 0
 6266 054e 4E       		.byte	0x4e
 6267 054f 25       		.byte	0x25
 6268 0550 31       		.byte	0x31
 6269 0551 1A       		.byte	0x1a
 6270 0552 9F       		.byte	0x9f
 6271 0553 00000000 		.4byte	0
 6272 0557 00000000 		.4byte	0
 6273              	.LLST25:
 6274 055b 00000000 		.4byte	.LVL94
 6275 055f 0C000000 		.4byte	.LVL95
 6276 0563 0100     		.2byte	0x1
 6277 0565 50       		.byte	0x50
 6278 0566 0C000000 		.4byte	.LVL95
 6279 056a 64000000 		.4byte	.LVL98
 6280 056e 0100     		.2byte	0x1
 6281 0570 56       		.byte	0x56
 6282 0571 64000000 		.4byte	.LVL98
 6283 0575 92000000 		.4byte	.LVL101
 6284 0579 0400     		.2byte	0x4
 6285 057b F3       		.byte	0xf3
 6286 057c 01       		.uleb128 0x1
 6287 057d 50       		.byte	0x50
 6288 057e 9F       		.byte	0x9f
 6289 057f 92000000 		.4byte	.LVL101
 6290 0583 CA000000 		.4byte	.LVL109
 6291 0587 0100     		.2byte	0x1
 6292 0589 56       		.byte	0x56
 6293 058a CA000000 		.4byte	.LVL109
 6294 058e CC000000 		.4byte	.LVL110
 6295 0592 0100     		.2byte	0x1
 6296 0594 50       		.byte	0x50
 6297 0595 CC000000 		.4byte	.LVL110
 6298 0599 F4000000 		.4byte	.LFE26
 6299 059d 0100     		.2byte	0x1
 6300 059f 56       		.byte	0x56
 6301 05a0 00000000 		.4byte	0
 6302 05a4 00000000 		.4byte	0
 6303              	.LLST26:
 6304 05a8 00000000 		.4byte	.LVL94
 6305 05ac 0C000000 		.4byte	.LVL95
 6306 05b0 0100     		.2byte	0x1
 6307 05b2 51       		.byte	0x51
 6308 05b3 0C000000 		.4byte	.LVL95
 6309 05b7 6A000000 		.4byte	.LVL99
 6310 05bb 0100     		.2byte	0x1
 6311 05bd 55       		.byte	0x55
 6312 05be 6A000000 		.4byte	.LVL99
 6313 05c2 92000000 		.4byte	.LVL101
 6314 05c6 0400     		.2byte	0x4
 6315 05c8 F3       		.byte	0xf3
 6316 05c9 01       		.uleb128 0x1
 6317 05ca 51       		.byte	0x51
 6318 05cb 9F       		.byte	0x9f
 6319 05cc 92000000 		.4byte	.LVL101
 6320 05d0 CA000000 		.4byte	.LVL109
ARM GAS  C:\Users\ilya\AppData\Local\Temp\cchJq1OJ.s 			page 140


 6321 05d4 0100     		.2byte	0x1
 6322 05d6 55       		.byte	0x55
 6323 05d7 CA000000 		.4byte	.LVL109
 6324 05db CF000000 		.4byte	.LVL111-1
 6325 05df 0100     		.2byte	0x1
 6326 05e1 51       		.byte	0x51
 6327 05e2 CF000000 		.4byte	.LVL111-1
 6328 05e6 F4000000 		.4byte	.LFE26
 6329 05ea 0100     		.2byte	0x1
 6330 05ec 55       		.byte	0x55
 6331 05ed 00000000 		.4byte	0
 6332 05f1 00000000 		.4byte	0
 6333              	.LLST27:
 6334 05f5 00000000 		.4byte	.LVL94
 6335 05f9 0C000000 		.4byte	.LVL95
 6336 05fd 0100     		.2byte	0x1
 6337 05ff 52       		.byte	0x52
 6338 0600 0C000000 		.4byte	.LVL95
 6339 0604 90000000 		.4byte	.LVL100
 6340 0608 0100     		.2byte	0x1
 6341 060a 54       		.byte	0x54
 6342 060b 90000000 		.4byte	.LVL100
 6343 060f 92000000 		.4byte	.LVL101
 6344 0613 0400     		.2byte	0x4
 6345 0615 F3       		.byte	0xf3
 6346 0616 01       		.uleb128 0x1
 6347 0617 52       		.byte	0x52
 6348 0618 9F       		.byte	0x9f
 6349 0619 92000000 		.4byte	.LVL101
 6350 061d CA000000 		.4byte	.LVL109
 6351 0621 0100     		.2byte	0x1
 6352 0623 54       		.byte	0x54
 6353 0624 CA000000 		.4byte	.LVL109
 6354 0628 CF000000 		.4byte	.LVL111-1
 6355 062c 0100     		.2byte	0x1
 6356 062e 52       		.byte	0x52
 6357 062f CF000000 		.4byte	.LVL111-1
 6358 0633 F4000000 		.4byte	.LFE26
 6359 0637 0100     		.2byte	0x1
 6360 0639 54       		.byte	0x54
 6361 063a 00000000 		.4byte	0
 6362 063e 00000000 		.4byte	0
 6363              	.LLST28:
 6364 0642 00000000 		.4byte	.LVL112
 6365 0646 0A000000 		.4byte	.LVL113
 6366 064a 0100     		.2byte	0x1
 6367 064c 50       		.byte	0x50
 6368 064d 0A000000 		.4byte	.LVL113
 6369 0651 18000000 		.4byte	.LVL115
 6370 0655 0100     		.2byte	0x1
 6371 0657 55       		.byte	0x55
 6372 0658 18000000 		.4byte	.LVL115
 6373 065c 28000000 		.4byte	.LVL117
 6374 0660 0400     		.2byte	0x4
 6375 0662 F3       		.byte	0xf3
 6376 0663 01       		.uleb128 0x1
 6377 0664 50       		.byte	0x50
ARM GAS  C:\Users\ilya\AppData\Local\Temp\cchJq1OJ.s 			page 141


 6378 0665 9F       		.byte	0x9f
 6379 0666 28000000 		.4byte	.LVL117
 6380 066a 2A000000 		.4byte	.LVL118
 6381 066e 0100     		.2byte	0x1
 6382 0670 50       		.byte	0x50
 6383 0671 2A000000 		.4byte	.LVL118
 6384 0675 34000000 		.4byte	.LFE27
 6385 0679 0100     		.2byte	0x1
 6386 067b 55       		.byte	0x55
 6387 067c 00000000 		.4byte	0
 6388 0680 00000000 		.4byte	0
 6389              	.LLST29:
 6390 0684 00000000 		.4byte	.LVL112
 6391 0688 0A000000 		.4byte	.LVL113
 6392 068c 0100     		.2byte	0x1
 6393 068e 51       		.byte	0x51
 6394 068f 0A000000 		.4byte	.LVL113
 6395 0693 1E000000 		.4byte	.LVL116
 6396 0697 0100     		.2byte	0x1
 6397 0699 54       		.byte	0x54
 6398 069a 1E000000 		.4byte	.LVL116
 6399 069e 28000000 		.4byte	.LVL117
 6400 06a2 0400     		.2byte	0x4
 6401 06a4 F3       		.byte	0xf3
 6402 06a5 01       		.uleb128 0x1
 6403 06a6 51       		.byte	0x51
 6404 06a7 9F       		.byte	0x9f
 6405 06a8 28000000 		.4byte	.LVL117
 6406 06ac 2D000000 		.4byte	.LVL119-1
 6407 06b0 0100     		.2byte	0x1
 6408 06b2 51       		.byte	0x51
 6409 06b3 2D000000 		.4byte	.LVL119-1
 6410 06b7 34000000 		.4byte	.LFE27
 6411 06bb 0100     		.2byte	0x1
 6412 06bd 54       		.byte	0x54
 6413 06be 00000000 		.4byte	0
 6414 06c2 00000000 		.4byte	0
 6415              	.LLST30:
 6416 06c6 00000000 		.4byte	.LVL120
 6417 06ca 0A000000 		.4byte	.LVL121
 6418 06ce 0100     		.2byte	0x1
 6419 06d0 50       		.byte	0x50
 6420 06d1 0A000000 		.4byte	.LVL121
 6421 06d5 18000000 		.4byte	.LVL123
 6422 06d9 0100     		.2byte	0x1
 6423 06db 55       		.byte	0x55
 6424 06dc 18000000 		.4byte	.LVL123
 6425 06e0 24000000 		.4byte	.LVL125
 6426 06e4 0400     		.2byte	0x4
 6427 06e6 F3       		.byte	0xf3
 6428 06e7 01       		.uleb128 0x1
 6429 06e8 50       		.byte	0x50
 6430 06e9 9F       		.byte	0x9f
 6431 06ea 24000000 		.4byte	.LVL125
 6432 06ee 26000000 		.4byte	.LVL126
 6433 06f2 0100     		.2byte	0x1
 6434 06f4 50       		.byte	0x50
ARM GAS  C:\Users\ilya\AppData\Local\Temp\cchJq1OJ.s 			page 142


 6435 06f5 26000000 		.4byte	.LVL126
 6436 06f9 30000000 		.4byte	.LFE28
 6437 06fd 0100     		.2byte	0x1
 6438 06ff 55       		.byte	0x55
 6439 0700 00000000 		.4byte	0
 6440 0704 00000000 		.4byte	0
 6441              	.LLST31:
 6442 0708 00000000 		.4byte	.LVL120
 6443 070c 0A000000 		.4byte	.LVL121
 6444 0710 0100     		.2byte	0x1
 6445 0712 51       		.byte	0x51
 6446 0713 0A000000 		.4byte	.LVL121
 6447 0717 1C000000 		.4byte	.LVL124
 6448 071b 0100     		.2byte	0x1
 6449 071d 54       		.byte	0x54
 6450 071e 1C000000 		.4byte	.LVL124
 6451 0722 24000000 		.4byte	.LVL125
 6452 0726 0400     		.2byte	0x4
 6453 0728 F3       		.byte	0xf3
 6454 0729 01       		.uleb128 0x1
 6455 072a 51       		.byte	0x51
 6456 072b 9F       		.byte	0x9f
 6457 072c 24000000 		.4byte	.LVL125
 6458 0730 29000000 		.4byte	.LVL127-1
 6459 0734 0100     		.2byte	0x1
 6460 0736 51       		.byte	0x51
 6461 0737 29000000 		.4byte	.LVL127-1
 6462 073b 30000000 		.4byte	.LFE28
 6463 073f 0100     		.2byte	0x1
 6464 0741 54       		.byte	0x54
 6465 0742 00000000 		.4byte	0
 6466 0746 00000000 		.4byte	0
 6467              	.LLST32:
 6468 074a 00000000 		.4byte	.LVL128
 6469 074e 0C000000 		.4byte	.LVL129
 6470 0752 0100     		.2byte	0x1
 6471 0754 50       		.byte	0x50
 6472 0755 0C000000 		.4byte	.LVL129
 6473 0759 18000000 		.4byte	.LVL131
 6474 075d 0100     		.2byte	0x1
 6475 075f 55       		.byte	0x55
 6476 0760 18000000 		.4byte	.LVL131
 6477 0764 22000000 		.4byte	.LVL134
 6478 0768 0400     		.2byte	0x4
 6479 076a F3       		.byte	0xf3
 6480 076b 01       		.uleb128 0x1
 6481 076c 50       		.byte	0x50
 6482 076d 9F       		.byte	0x9f
 6483 076e 22000000 		.4byte	.LVL134
 6484 0772 24000000 		.4byte	.LVL135
 6485 0776 0100     		.2byte	0x1
 6486 0778 50       		.byte	0x50
 6487 0779 24000000 		.4byte	.LVL135
 6488 077d 30000000 		.4byte	.LFE29
 6489 0781 0100     		.2byte	0x1
 6490 0783 55       		.byte	0x55
 6491 0784 00000000 		.4byte	0
ARM GAS  C:\Users\ilya\AppData\Local\Temp\cchJq1OJ.s 			page 143


 6492 0788 00000000 		.4byte	0
 6493              	.LLST33:
 6494 078c 00000000 		.4byte	.LVL128
 6495 0790 0C000000 		.4byte	.LVL129
 6496 0794 0100     		.2byte	0x1
 6497 0796 51       		.byte	0x51
 6498 0797 0C000000 		.4byte	.LVL129
 6499 079b 1A000000 		.4byte	.LVL132
 6500 079f 0100     		.2byte	0x1
 6501 07a1 54       		.byte	0x54
 6502 07a2 1A000000 		.4byte	.LVL132
 6503 07a6 22000000 		.4byte	.LVL134
 6504 07aa 0400     		.2byte	0x4
 6505 07ac F3       		.byte	0xf3
 6506 07ad 01       		.uleb128 0x1
 6507 07ae 51       		.byte	0x51
 6508 07af 9F       		.byte	0x9f
 6509 07b0 22000000 		.4byte	.LVL134
 6510 07b4 27000000 		.4byte	.LVL136-1
 6511 07b8 0100     		.2byte	0x1
 6512 07ba 51       		.byte	0x51
 6513 07bb 27000000 		.4byte	.LVL136-1
 6514 07bf 30000000 		.4byte	.LFE29
 6515 07c3 0100     		.2byte	0x1
 6516 07c5 54       		.byte	0x54
 6517 07c6 00000000 		.4byte	0
 6518 07ca 00000000 		.4byte	0
 6519              	.LLST34:
 6520 07ce 00000000 		.4byte	.LVL128
 6521 07d2 0C000000 		.4byte	.LVL129
 6522 07d6 0100     		.2byte	0x1
 6523 07d8 52       		.byte	0x52
 6524 07d9 0C000000 		.4byte	.LVL129
 6525 07dd 20000000 		.4byte	.LVL133
 6526 07e1 0100     		.2byte	0x1
 6527 07e3 56       		.byte	0x56
 6528 07e4 20000000 		.4byte	.LVL133
 6529 07e8 22000000 		.4byte	.LVL134
 6530 07ec 0400     		.2byte	0x4
 6531 07ee F3       		.byte	0xf3
 6532 07ef 01       		.uleb128 0x1
 6533 07f0 52       		.byte	0x52
 6534 07f1 9F       		.byte	0x9f
 6535 07f2 22000000 		.4byte	.LVL134
 6536 07f6 27000000 		.4byte	.LVL136-1
 6537 07fa 0100     		.2byte	0x1
 6538 07fc 52       		.byte	0x52
 6539 07fd 27000000 		.4byte	.LVL136-1
 6540 0801 30000000 		.4byte	.LFE29
 6541 0805 0100     		.2byte	0x1
 6542 0807 56       		.byte	0x56
 6543 0808 00000000 		.4byte	0
 6544 080c 00000000 		.4byte	0
 6545              	.LLST35:
 6546 0810 00000000 		.4byte	.LVL137
 6547 0814 0A000000 		.4byte	.LVL138
 6548 0818 0100     		.2byte	0x1
ARM GAS  C:\Users\ilya\AppData\Local\Temp\cchJq1OJ.s 			page 144


 6549 081a 50       		.byte	0x50
 6550 081b 0A000000 		.4byte	.LVL138
 6551 081f 16000000 		.4byte	.LVL140
 6552 0823 0100     		.2byte	0x1
 6553 0825 55       		.byte	0x55
 6554 0826 16000000 		.4byte	.LVL140
 6555 082a 20000000 		.4byte	.LVL142
 6556 082e 0400     		.2byte	0x4
 6557 0830 F3       		.byte	0xf3
 6558 0831 01       		.uleb128 0x1
 6559 0832 50       		.byte	0x50
 6560 0833 9F       		.byte	0x9f
 6561 0834 20000000 		.4byte	.LVL142
 6562 0838 22000000 		.4byte	.LVL143
 6563 083c 0100     		.2byte	0x1
 6564 083e 50       		.byte	0x50
 6565 083f 22000000 		.4byte	.LVL143
 6566 0843 2C000000 		.4byte	.LFE30
 6567 0847 0100     		.2byte	0x1
 6568 0849 55       		.byte	0x55
 6569 084a 00000000 		.4byte	0
 6570 084e 00000000 		.4byte	0
 6571              	.LLST36:
 6572 0852 00000000 		.4byte	.LVL137
 6573 0856 0A000000 		.4byte	.LVL138
 6574 085a 0100     		.2byte	0x1
 6575 085c 51       		.byte	0x51
 6576 085d 0A000000 		.4byte	.LVL138
 6577 0861 18000000 		.4byte	.LVL141
 6578 0865 0100     		.2byte	0x1
 6579 0867 54       		.byte	0x54
 6580 0868 18000000 		.4byte	.LVL141
 6581 086c 20000000 		.4byte	.LVL142
 6582 0870 0400     		.2byte	0x4
 6583 0872 F3       		.byte	0xf3
 6584 0873 01       		.uleb128 0x1
 6585 0874 51       		.byte	0x51
 6586 0875 9F       		.byte	0x9f
 6587 0876 20000000 		.4byte	.LVL142
 6588 087a 25000000 		.4byte	.LVL144-1
 6589 087e 0100     		.2byte	0x1
 6590 0880 51       		.byte	0x51
 6591 0881 25000000 		.4byte	.LVL144-1
 6592 0885 2C000000 		.4byte	.LFE30
 6593 0889 0100     		.2byte	0x1
 6594 088b 54       		.byte	0x54
 6595 088c 00000000 		.4byte	0
 6596 0890 00000000 		.4byte	0
 6597              	.LLST37:
 6598 0894 00000000 		.4byte	.LVL145
 6599 0898 0C000000 		.4byte	.LVL146
 6600 089c 0100     		.2byte	0x1
 6601 089e 50       		.byte	0x50
 6602 089f 0C000000 		.4byte	.LVL146
 6603 08a3 1A000000 		.4byte	.LVL148
 6604 08a7 0100     		.2byte	0x1
 6605 08a9 55       		.byte	0x55
ARM GAS  C:\Users\ilya\AppData\Local\Temp\cchJq1OJ.s 			page 145


 6606 08aa 1A000000 		.4byte	.LVL148
 6607 08ae 26000000 		.4byte	.LVL151
 6608 08b2 0400     		.2byte	0x4
 6609 08b4 F3       		.byte	0xf3
 6610 08b5 01       		.uleb128 0x1
 6611 08b6 50       		.byte	0x50
 6612 08b7 9F       		.byte	0x9f
 6613 08b8 26000000 		.4byte	.LVL151
 6614 08bc 28000000 		.4byte	.LVL152
 6615 08c0 0100     		.2byte	0x1
 6616 08c2 50       		.byte	0x50
 6617 08c3 28000000 		.4byte	.LVL152
 6618 08c7 34000000 		.4byte	.LFE31
 6619 08cb 0100     		.2byte	0x1
 6620 08cd 55       		.byte	0x55
 6621 08ce 00000000 		.4byte	0
 6622 08d2 00000000 		.4byte	0
 6623              	.LLST38:
 6624 08d6 00000000 		.4byte	.LVL145
 6625 08da 0C000000 		.4byte	.LVL146
 6626 08de 0100     		.2byte	0x1
 6627 08e0 51       		.byte	0x51
 6628 08e1 0C000000 		.4byte	.LVL146
 6629 08e5 1E000000 		.4byte	.LVL149
 6630 08e9 0100     		.2byte	0x1
 6631 08eb 54       		.byte	0x54
 6632 08ec 1E000000 		.4byte	.LVL149
 6633 08f0 26000000 		.4byte	.LVL151
 6634 08f4 0400     		.2byte	0x4
 6635 08f6 F3       		.byte	0xf3
 6636 08f7 01       		.uleb128 0x1
 6637 08f8 51       		.byte	0x51
 6638 08f9 9F       		.byte	0x9f
 6639 08fa 26000000 		.4byte	.LVL151
 6640 08fe 2B000000 		.4byte	.LVL153-1
 6641 0902 0100     		.2byte	0x1
 6642 0904 51       		.byte	0x51
 6643 0905 2B000000 		.4byte	.LVL153-1
 6644 0909 34000000 		.4byte	.LFE31
 6645 090d 0100     		.2byte	0x1
 6646 090f 54       		.byte	0x54
 6647 0910 00000000 		.4byte	0
 6648 0914 00000000 		.4byte	0
 6649              	.LLST39:
 6650 0918 00000000 		.4byte	.LVL145
 6651 091c 0C000000 		.4byte	.LVL146
 6652 0920 0100     		.2byte	0x1
 6653 0922 52       		.byte	0x52
 6654 0923 0C000000 		.4byte	.LVL146
 6655 0927 24000000 		.4byte	.LVL150
 6656 092b 0100     		.2byte	0x1
 6657 092d 56       		.byte	0x56
 6658 092e 24000000 		.4byte	.LVL150
 6659 0932 26000000 		.4byte	.LVL151
 6660 0936 0400     		.2byte	0x4
 6661 0938 F3       		.byte	0xf3
 6662 0939 01       		.uleb128 0x1
ARM GAS  C:\Users\ilya\AppData\Local\Temp\cchJq1OJ.s 			page 146


 6663 093a 52       		.byte	0x52
 6664 093b 9F       		.byte	0x9f
 6665 093c 26000000 		.4byte	.LVL151
 6666 0940 2B000000 		.4byte	.LVL153-1
 6667 0944 0100     		.2byte	0x1
 6668 0946 52       		.byte	0x52
 6669 0947 2B000000 		.4byte	.LVL153-1
 6670 094b 34000000 		.4byte	.LFE31
 6671 094f 0100     		.2byte	0x1
 6672 0951 56       		.byte	0x56
 6673 0952 00000000 		.4byte	0
 6674 0956 00000000 		.4byte	0
 6675              	.LLST40:
 6676 095a 00000000 		.4byte	.LVL154
 6677 095e 0A000000 		.4byte	.LVL155
 6678 0962 0100     		.2byte	0x1
 6679 0964 50       		.byte	0x50
 6680 0965 0A000000 		.4byte	.LVL155
 6681 0969 18000000 		.4byte	.LVL157
 6682 096d 0100     		.2byte	0x1
 6683 096f 55       		.byte	0x55
 6684 0970 18000000 		.4byte	.LVL157
 6685 0974 24000000 		.4byte	.LVL159
 6686 0978 0400     		.2byte	0x4
 6687 097a F3       		.byte	0xf3
 6688 097b 01       		.uleb128 0x1
 6689 097c 50       		.byte	0x50
 6690 097d 9F       		.byte	0x9f
 6691 097e 24000000 		.4byte	.LVL159
 6692 0982 26000000 		.4byte	.LVL160
 6693 0986 0100     		.2byte	0x1
 6694 0988 50       		.byte	0x50
 6695 0989 26000000 		.4byte	.LVL160
 6696 098d 30000000 		.4byte	.LFE32
 6697 0991 0100     		.2byte	0x1
 6698 0993 55       		.byte	0x55
 6699 0994 00000000 		.4byte	0
 6700 0998 00000000 		.4byte	0
 6701              	.LLST41:
 6702 099c 00000000 		.4byte	.LVL154
 6703 09a0 0A000000 		.4byte	.LVL155
 6704 09a4 0100     		.2byte	0x1
 6705 09a6 51       		.byte	0x51
 6706 09a7 0A000000 		.4byte	.LVL155
 6707 09ab 1C000000 		.4byte	.LVL158
 6708 09af 0100     		.2byte	0x1
 6709 09b1 54       		.byte	0x54
 6710 09b2 1C000000 		.4byte	.LVL158
 6711 09b6 24000000 		.4byte	.LVL159
 6712 09ba 0400     		.2byte	0x4
 6713 09bc F3       		.byte	0xf3
 6714 09bd 01       		.uleb128 0x1
 6715 09be 51       		.byte	0x51
 6716 09bf 9F       		.byte	0x9f
 6717 09c0 24000000 		.4byte	.LVL159
 6718 09c4 29000000 		.4byte	.LVL161-1
 6719 09c8 0100     		.2byte	0x1
ARM GAS  C:\Users\ilya\AppData\Local\Temp\cchJq1OJ.s 			page 147


 6720 09ca 51       		.byte	0x51
 6721 09cb 29000000 		.4byte	.LVL161-1
 6722 09cf 30000000 		.4byte	.LFE32
 6723 09d3 0100     		.2byte	0x1
 6724 09d5 54       		.byte	0x54
 6725 09d6 00000000 		.4byte	0
 6726 09da 00000000 		.4byte	0
 6727              	.LLST42:
 6728 09de 00000000 		.4byte	.LVL162
 6729 09e2 0C000000 		.4byte	.LVL163
 6730 09e6 0100     		.2byte	0x1
 6731 09e8 50       		.byte	0x50
 6732 09e9 0C000000 		.4byte	.LVL163
 6733 09ed 26000000 		.4byte	.LVL166
 6734 09f1 0100     		.2byte	0x1
 6735 09f3 56       		.byte	0x56
 6736 09f4 26000000 		.4byte	.LVL166
 6737 09f8 3A000000 		.4byte	.LVL171
 6738 09fc 0400     		.2byte	0x4
 6739 09fe F3       		.byte	0xf3
 6740 09ff 01       		.uleb128 0x1
 6741 0a00 50       		.byte	0x50
 6742 0a01 9F       		.byte	0x9f
 6743 0a02 3A000000 		.4byte	.LVL171
 6744 0a06 3C000000 		.4byte	.LVL172
 6745 0a0a 0100     		.2byte	0x1
 6746 0a0c 50       		.byte	0x50
 6747 0a0d 3C000000 		.4byte	.LVL172
 6748 0a11 4C000000 		.4byte	.LFE33
 6749 0a15 0100     		.2byte	0x1
 6750 0a17 56       		.byte	0x56
 6751 0a18 00000000 		.4byte	0
 6752 0a1c 00000000 		.4byte	0
 6753              	.LLST43:
 6754 0a20 00000000 		.4byte	.LVL162
 6755 0a24 0C000000 		.4byte	.LVL163
 6756 0a28 0100     		.2byte	0x1
 6757 0a2a 51       		.byte	0x51
 6758 0a2b 0C000000 		.4byte	.LVL163
 6759 0a2f 2A000000 		.4byte	.LVL167
 6760 0a33 0100     		.2byte	0x1
 6761 0a35 54       		.byte	0x54
 6762 0a36 2A000000 		.4byte	.LVL167
 6763 0a3a 3A000000 		.4byte	.LVL171
 6764 0a3e 0400     		.2byte	0x4
 6765 0a40 F3       		.byte	0xf3
 6766 0a41 01       		.uleb128 0x1
 6767 0a42 51       		.byte	0x51
 6768 0a43 9F       		.byte	0x9f
 6769 0a44 3A000000 		.4byte	.LVL171
 6770 0a48 3F000000 		.4byte	.LVL173-1
 6771 0a4c 0100     		.2byte	0x1
 6772 0a4e 51       		.byte	0x51
 6773 0a4f 3F000000 		.4byte	.LVL173-1
 6774 0a53 4C000000 		.4byte	.LFE33
 6775 0a57 0100     		.2byte	0x1
 6776 0a59 54       		.byte	0x54
ARM GAS  C:\Users\ilya\AppData\Local\Temp\cchJq1OJ.s 			page 148


 6777 0a5a 00000000 		.4byte	0
 6778 0a5e 00000000 		.4byte	0
 6779              	.LLST44:
 6780 0a62 00000000 		.4byte	.LVL162
 6781 0a66 0C000000 		.4byte	.LVL163
 6782 0a6a 0100     		.2byte	0x1
 6783 0a6c 52       		.byte	0x52
 6784 0a6d 0C000000 		.4byte	.LVL163
 6785 0a71 36000000 		.4byte	.LVL170
 6786 0a75 0100     		.2byte	0x1
 6787 0a77 55       		.byte	0x55
 6788 0a78 36000000 		.4byte	.LVL170
 6789 0a7c 3A000000 		.4byte	.LVL171
 6790 0a80 0400     		.2byte	0x4
 6791 0a82 F3       		.byte	0xf3
 6792 0a83 01       		.uleb128 0x1
 6793 0a84 52       		.byte	0x52
 6794 0a85 9F       		.byte	0x9f
 6795 0a86 3A000000 		.4byte	.LVL171
 6796 0a8a 3F000000 		.4byte	.LVL173-1
 6797 0a8e 0100     		.2byte	0x1
 6798 0a90 52       		.byte	0x52
 6799 0a91 3F000000 		.4byte	.LVL173-1
 6800 0a95 4C000000 		.4byte	.LFE33
 6801 0a99 0100     		.2byte	0x1
 6802 0a9b 55       		.byte	0x55
 6803 0a9c 00000000 		.4byte	0
 6804 0aa0 00000000 		.4byte	0
 6805              	.LLST45:
 6806 0aa4 30000000 		.4byte	.LVL168
 6807 0aa8 34000000 		.4byte	.LVL169
 6808 0aac 0800     		.2byte	0x8
 6809 0aae 72       		.byte	0x72
 6810 0aaf 00       		.sleb128 0
 6811 0ab0 11       		.byte	0x11
 6812 0ab1 FFFF73   		.sleb128 -196609
 6813 0ab4 1A       		.byte	0x1a
 6814 0ab5 9F       		.byte	0x9f
 6815 0ab6 34000000 		.4byte	.LVL169
 6816 0aba 3A000000 		.4byte	.LVL171
 6817 0abe 0100     		.2byte	0x1
 6818 0ac0 53       		.byte	0x53
 6819 0ac1 00000000 		.4byte	0
 6820 0ac5 00000000 		.4byte	0
 6821              	.LLST46:
 6822 0ac9 00000000 		.4byte	.LVL174
 6823 0acd 0A000000 		.4byte	.LVL175
 6824 0ad1 0100     		.2byte	0x1
 6825 0ad3 50       		.byte	0x50
 6826 0ad4 0A000000 		.4byte	.LVL175
 6827 0ad8 18000000 		.4byte	.LVL177
 6828 0adc 0100     		.2byte	0x1
 6829 0ade 55       		.byte	0x55
 6830 0adf 18000000 		.4byte	.LVL177
 6831 0ae3 2A000000 		.4byte	.LVL179
 6832 0ae7 0400     		.2byte	0x4
 6833 0ae9 F3       		.byte	0xf3
ARM GAS  C:\Users\ilya\AppData\Local\Temp\cchJq1OJ.s 			page 149


 6834 0aea 01       		.uleb128 0x1
 6835 0aeb 50       		.byte	0x50
 6836 0aec 9F       		.byte	0x9f
 6837 0aed 2A000000 		.4byte	.LVL179
 6838 0af1 2C000000 		.4byte	.LVL180
 6839 0af5 0100     		.2byte	0x1
 6840 0af7 50       		.byte	0x50
 6841 0af8 2C000000 		.4byte	.LVL180
 6842 0afc 38000000 		.4byte	.LFE34
 6843 0b00 0100     		.2byte	0x1
 6844 0b02 55       		.byte	0x55
 6845 0b03 00000000 		.4byte	0
 6846 0b07 00000000 		.4byte	0
 6847              	.LLST47:
 6848 0b0b 00000000 		.4byte	.LVL174
 6849 0b0f 0A000000 		.4byte	.LVL175
 6850 0b13 0100     		.2byte	0x1
 6851 0b15 51       		.byte	0x51
 6852 0b16 0A000000 		.4byte	.LVL175
 6853 0b1a 1E000000 		.4byte	.LVL178
 6854 0b1e 0100     		.2byte	0x1
 6855 0b20 54       		.byte	0x54
 6856 0b21 1E000000 		.4byte	.LVL178
 6857 0b25 2A000000 		.4byte	.LVL179
 6858 0b29 0400     		.2byte	0x4
 6859 0b2b F3       		.byte	0xf3
 6860 0b2c 01       		.uleb128 0x1
 6861 0b2d 51       		.byte	0x51
 6862 0b2e 9F       		.byte	0x9f
 6863 0b2f 2A000000 		.4byte	.LVL179
 6864 0b33 2F000000 		.4byte	.LVL181-1
 6865 0b37 0100     		.2byte	0x1
 6866 0b39 51       		.byte	0x51
 6867 0b3a 2F000000 		.4byte	.LVL181-1
 6868 0b3e 38000000 		.4byte	.LFE34
 6869 0b42 0100     		.2byte	0x1
 6870 0b44 54       		.byte	0x54
 6871 0b45 00000000 		.4byte	0
 6872 0b49 00000000 		.4byte	0
 6873              	.LLST48:
 6874 0b4d 00000000 		.4byte	.LVL182
 6875 0b51 0C000000 		.4byte	.LVL183
 6876 0b55 0100     		.2byte	0x1
 6877 0b57 50       		.byte	0x50
 6878 0b58 0C000000 		.4byte	.LVL183
 6879 0b5c 28000000 		.4byte	.LVL187
 6880 0b60 0100     		.2byte	0x1
 6881 0b62 56       		.byte	0x56
 6882 0b63 28000000 		.4byte	.LVL187
 6883 0b67 3C000000 		.4byte	.LVL192
 6884 0b6b 0400     		.2byte	0x4
 6885 0b6d F3       		.byte	0xf3
 6886 0b6e 01       		.uleb128 0x1
 6887 0b6f 50       		.byte	0x50
 6888 0b70 9F       		.byte	0x9f
 6889 0b71 3C000000 		.4byte	.LVL192
 6890 0b75 3E000000 		.4byte	.LVL193
ARM GAS  C:\Users\ilya\AppData\Local\Temp\cchJq1OJ.s 			page 150


 6891 0b79 0100     		.2byte	0x1
 6892 0b7b 50       		.byte	0x50
 6893 0b7c 3E000000 		.4byte	.LVL193
 6894 0b80 4C000000 		.4byte	.LFE35
 6895 0b84 0100     		.2byte	0x1
 6896 0b86 56       		.byte	0x56
 6897 0b87 00000000 		.4byte	0
 6898 0b8b 00000000 		.4byte	0
 6899              	.LLST49:
 6900 0b8f 00000000 		.4byte	.LVL182
 6901 0b93 0C000000 		.4byte	.LVL183
 6902 0b97 0100     		.2byte	0x1
 6903 0b99 51       		.byte	0x51
 6904 0b9a 0C000000 		.4byte	.LVL183
 6905 0b9e 2C000000 		.4byte	.LVL188
 6906 0ba2 0100     		.2byte	0x1
 6907 0ba4 54       		.byte	0x54
 6908 0ba5 2C000000 		.4byte	.LVL188
 6909 0ba9 3C000000 		.4byte	.LVL192
 6910 0bad 0400     		.2byte	0x4
 6911 0baf F3       		.byte	0xf3
 6912 0bb0 01       		.uleb128 0x1
 6913 0bb1 51       		.byte	0x51
 6914 0bb2 9F       		.byte	0x9f
 6915 0bb3 3C000000 		.4byte	.LVL192
 6916 0bb7 41000000 		.4byte	.LVL194-1
 6917 0bbb 0100     		.2byte	0x1
 6918 0bbd 51       		.byte	0x51
 6919 0bbe 41000000 		.4byte	.LVL194-1
 6920 0bc2 4C000000 		.4byte	.LFE35
 6921 0bc6 0100     		.2byte	0x1
 6922 0bc8 54       		.byte	0x54
 6923 0bc9 00000000 		.4byte	0
 6924 0bcd 00000000 		.4byte	0
 6925              	.LLST50:
 6926 0bd1 00000000 		.4byte	.LVL182
 6927 0bd5 0C000000 		.4byte	.LVL183
 6928 0bd9 0100     		.2byte	0x1
 6929 0bdb 52       		.byte	0x52
 6930 0bdc 0C000000 		.4byte	.LVL183
 6931 0be0 1A000000 		.4byte	.LVL185
 6932 0be4 0100     		.2byte	0x1
 6933 0be6 55       		.byte	0x55
 6934 0be7 1A000000 		.4byte	.LVL185
 6935 0beb 24000000 		.4byte	.LVL186
 6936 0bef 0300     		.2byte	0x3
 6937 0bf1 75       		.byte	0x75
 6938 0bf2 01       		.sleb128 1
 6939 0bf3 9F       		.byte	0x9f
 6940 0bf4 24000000 		.4byte	.LVL186
 6941 0bf8 38000000 		.4byte	.LVL191
 6942 0bfc 0100     		.2byte	0x1
 6943 0bfe 55       		.byte	0x55
 6944 0bff 38000000 		.4byte	.LVL191
 6945 0c03 3C000000 		.4byte	.LVL192
 6946 0c07 0600     		.2byte	0x6
 6947 0c09 F3       		.byte	0xf3
ARM GAS  C:\Users\ilya\AppData\Local\Temp\cchJq1OJ.s 			page 151


 6948 0c0a 01       		.uleb128 0x1
 6949 0c0b 52       		.byte	0x52
 6950 0c0c 31       		.byte	0x31
 6951 0c0d 1C       		.byte	0x1c
 6952 0c0e 9F       		.byte	0x9f
 6953 0c0f 3C000000 		.4byte	.LVL192
 6954 0c13 41000000 		.4byte	.LVL194-1
 6955 0c17 0100     		.2byte	0x1
 6956 0c19 52       		.byte	0x52
 6957 0c1a 41000000 		.4byte	.LVL194-1
 6958 0c1e 4C000000 		.4byte	.LFE35
 6959 0c22 0100     		.2byte	0x1
 6960 0c24 55       		.byte	0x55
 6961 0c25 00000000 		.4byte	0
 6962 0c29 00000000 		.4byte	0
 6963              	.LLST51:
 6964 0c2d 32000000 		.4byte	.LVL189
 6965 0c31 34000000 		.4byte	.LVL190
 6966 0c35 0800     		.2byte	0x8
 6967 0c37 73       		.byte	0x73
 6968 0c38 00       		.sleb128 0
 6969 0c39 11       		.byte	0x11
 6970 0c3a 80807C   		.sleb128 -65536
 6971 0c3d 1A       		.byte	0x1a
 6972 0c3e 9F       		.byte	0x9f
 6973 0c3f 00000000 		.4byte	0
 6974 0c43 00000000 		.4byte	0
 6975              	.LLST52:
 6976 0c47 00000000 		.4byte	.LVL195
 6977 0c4b 0A000000 		.4byte	.LVL196
 6978 0c4f 0100     		.2byte	0x1
 6979 0c51 50       		.byte	0x50
 6980 0c52 0A000000 		.4byte	.LVL196
 6981 0c56 18000000 		.4byte	.LVL198
 6982 0c5a 0100     		.2byte	0x1
 6983 0c5c 55       		.byte	0x55
 6984 0c5d 18000000 		.4byte	.LVL198
 6985 0c61 2A000000 		.4byte	.LVL202
 6986 0c65 0400     		.2byte	0x4
 6987 0c67 F3       		.byte	0xf3
 6988 0c68 01       		.uleb128 0x1
 6989 0c69 50       		.byte	0x50
 6990 0c6a 9F       		.byte	0x9f
 6991 0c6b 2A000000 		.4byte	.LVL202
 6992 0c6f 2C000000 		.4byte	.LVL203
 6993 0c73 0100     		.2byte	0x1
 6994 0c75 50       		.byte	0x50
 6995 0c76 2C000000 		.4byte	.LVL203
 6996 0c7a 38000000 		.4byte	.LFE36
 6997 0c7e 0100     		.2byte	0x1
 6998 0c80 55       		.byte	0x55
 6999 0c81 00000000 		.4byte	0
 7000 0c85 00000000 		.4byte	0
 7001              	.LLST53:
 7002 0c89 00000000 		.4byte	.LVL195
 7003 0c8d 0A000000 		.4byte	.LVL196
 7004 0c91 0100     		.2byte	0x1
ARM GAS  C:\Users\ilya\AppData\Local\Temp\cchJq1OJ.s 			page 152


 7005 0c93 51       		.byte	0x51
 7006 0c94 0A000000 		.4byte	.LVL196
 7007 0c98 1C000000 		.4byte	.LVL199
 7008 0c9c 0100     		.2byte	0x1
 7009 0c9e 54       		.byte	0x54
 7010 0c9f 1C000000 		.4byte	.LVL199
 7011 0ca3 2A000000 		.4byte	.LVL202
 7012 0ca7 0400     		.2byte	0x4
 7013 0ca9 F3       		.byte	0xf3
 7014 0caa 01       		.uleb128 0x1
 7015 0cab 51       		.byte	0x51
 7016 0cac 9F       		.byte	0x9f
 7017 0cad 2A000000 		.4byte	.LVL202
 7018 0cb1 2F000000 		.4byte	.LVL204-1
 7019 0cb5 0100     		.2byte	0x1
 7020 0cb7 51       		.byte	0x51
 7021 0cb8 2F000000 		.4byte	.LVL204-1
 7022 0cbc 38000000 		.4byte	.LFE36
 7023 0cc0 0100     		.2byte	0x1
 7024 0cc2 54       		.byte	0x54
 7025 0cc3 00000000 		.4byte	0
 7026 0cc7 00000000 		.4byte	0
 7027              	.LLST54:
 7028 0ccb 22000000 		.4byte	.LVL200
 7029 0ccf 24000000 		.4byte	.LVL201
 7030 0cd3 0900     		.2byte	0x9
 7031 0cd5 70       		.byte	0x70
 7032 0cd6 00       		.sleb128 0
 7033 0cd7 0A       		.byte	0xa
 7034 0cd8 FFFF     		.2byte	0xffff
 7035 0cda 1A       		.byte	0x1a
 7036 0cdb 23       		.byte	0x23
 7037 0cdc 01       		.uleb128 0x1
 7038 0cdd 9F       		.byte	0x9f
 7039 0cde 00000000 		.4byte	0
 7040 0ce2 00000000 		.4byte	0
 7041              	.LLST55:
 7042 0ce6 00000000 		.4byte	.LVL205
 7043 0cea 0C000000 		.4byte	.LVL206
 7044 0cee 0100     		.2byte	0x1
 7045 0cf0 50       		.byte	0x50
 7046 0cf1 0C000000 		.4byte	.LVL206
 7047 0cf5 26000000 		.4byte	.LVL209
 7048 0cf9 0100     		.2byte	0x1
 7049 0cfb 56       		.byte	0x56
 7050 0cfc 26000000 		.4byte	.LVL209
 7051 0d00 3A000000 		.4byte	.LVL214
 7052 0d04 0400     		.2byte	0x4
 7053 0d06 F3       		.byte	0xf3
 7054 0d07 01       		.uleb128 0x1
 7055 0d08 50       		.byte	0x50
 7056 0d09 9F       		.byte	0x9f
 7057 0d0a 3A000000 		.4byte	.LVL214
 7058 0d0e 3C000000 		.4byte	.LVL215
 7059 0d12 0100     		.2byte	0x1
 7060 0d14 50       		.byte	0x50
 7061 0d15 3C000000 		.4byte	.LVL215
ARM GAS  C:\Users\ilya\AppData\Local\Temp\cchJq1OJ.s 			page 153


 7062 0d19 4C000000 		.4byte	.LFE37
 7063 0d1d 0100     		.2byte	0x1
 7064 0d1f 56       		.byte	0x56
 7065 0d20 00000000 		.4byte	0
 7066 0d24 00000000 		.4byte	0
 7067              	.LLST56:
 7068 0d28 00000000 		.4byte	.LVL205
 7069 0d2c 0C000000 		.4byte	.LVL206
 7070 0d30 0100     		.2byte	0x1
 7071 0d32 51       		.byte	0x51
 7072 0d33 0C000000 		.4byte	.LVL206
 7073 0d37 2A000000 		.4byte	.LVL210
 7074 0d3b 0100     		.2byte	0x1
 7075 0d3d 54       		.byte	0x54
 7076 0d3e 2A000000 		.4byte	.LVL210
 7077 0d42 3A000000 		.4byte	.LVL214
 7078 0d46 0400     		.2byte	0x4
 7079 0d48 F3       		.byte	0xf3
 7080 0d49 01       		.uleb128 0x1
 7081 0d4a 51       		.byte	0x51
 7082 0d4b 9F       		.byte	0x9f
 7083 0d4c 3A000000 		.4byte	.LVL214
 7084 0d50 3F000000 		.4byte	.LVL216-1
 7085 0d54 0100     		.2byte	0x1
 7086 0d56 51       		.byte	0x51
 7087 0d57 3F000000 		.4byte	.LVL216-1
 7088 0d5b 4C000000 		.4byte	.LFE37
 7089 0d5f 0100     		.2byte	0x1
 7090 0d61 54       		.byte	0x54
 7091 0d62 00000000 		.4byte	0
 7092 0d66 00000000 		.4byte	0
 7093              	.LLST57:
 7094 0d6a 00000000 		.4byte	.LVL205
 7095 0d6e 0C000000 		.4byte	.LVL206
 7096 0d72 0100     		.2byte	0x1
 7097 0d74 52       		.byte	0x52
 7098 0d75 0C000000 		.4byte	.LVL206
 7099 0d79 36000000 		.4byte	.LVL213
 7100 0d7d 0100     		.2byte	0x1
 7101 0d7f 55       		.byte	0x55
 7102 0d80 36000000 		.4byte	.LVL213
 7103 0d84 3A000000 		.4byte	.LVL214
 7104 0d88 0400     		.2byte	0x4
 7105 0d8a F3       		.byte	0xf3
 7106 0d8b 01       		.uleb128 0x1
 7107 0d8c 52       		.byte	0x52
 7108 0d8d 9F       		.byte	0x9f
 7109 0d8e 3A000000 		.4byte	.LVL214
 7110 0d92 3F000000 		.4byte	.LVL216-1
 7111 0d96 0100     		.2byte	0x1
 7112 0d98 52       		.byte	0x52
 7113 0d99 3F000000 		.4byte	.LVL216-1
 7114 0d9d 4C000000 		.4byte	.LFE37
 7115 0da1 0100     		.2byte	0x1
 7116 0da3 55       		.byte	0x55
 7117 0da4 00000000 		.4byte	0
 7118 0da8 00000000 		.4byte	0
ARM GAS  C:\Users\ilya\AppData\Local\Temp\cchJq1OJ.s 			page 154


 7119              	.LLST58:
 7120 0dac 30000000 		.4byte	.LVL211
 7121 0db0 34000000 		.4byte	.LVL212
 7122 0db4 0900     		.2byte	0x9
 7123 0db6 72       		.byte	0x72
 7124 0db7 00       		.sleb128 0
 7125 0db8 11       		.byte	0x11
 7126 0db9 FFFFBF7D 		.sleb128 -5242881
 7127 0dbd 1A       		.byte	0x1a
 7128 0dbe 9F       		.byte	0x9f
 7129 0dbf 34000000 		.4byte	.LVL212
 7130 0dc3 3A000000 		.4byte	.LVL214
 7131 0dc7 0100     		.2byte	0x1
 7132 0dc9 53       		.byte	0x53
 7133 0dca 00000000 		.4byte	0
 7134 0dce 00000000 		.4byte	0
 7135              	.LLST59:
 7136 0dd2 00000000 		.4byte	.LVL217
 7137 0dd6 0A000000 		.4byte	.LVL218
 7138 0dda 0100     		.2byte	0x1
 7139 0ddc 50       		.byte	0x50
 7140 0ddd 0A000000 		.4byte	.LVL218
 7141 0de1 18000000 		.4byte	.LVL220
 7142 0de5 0100     		.2byte	0x1
 7143 0de7 55       		.byte	0x55
 7144 0de8 18000000 		.4byte	.LVL220
 7145 0dec 2A000000 		.4byte	.LVL222
 7146 0df0 0400     		.2byte	0x4
 7147 0df2 F3       		.byte	0xf3
 7148 0df3 01       		.uleb128 0x1
 7149 0df4 50       		.byte	0x50
 7150 0df5 9F       		.byte	0x9f
 7151 0df6 2A000000 		.4byte	.LVL222
 7152 0dfa 2C000000 		.4byte	.LVL223
 7153 0dfe 0100     		.2byte	0x1
 7154 0e00 50       		.byte	0x50
 7155 0e01 2C000000 		.4byte	.LVL223
 7156 0e05 38000000 		.4byte	.LFE38
 7157 0e09 0100     		.2byte	0x1
 7158 0e0b 55       		.byte	0x55
 7159 0e0c 00000000 		.4byte	0
 7160 0e10 00000000 		.4byte	0
 7161              	.LLST60:
 7162 0e14 00000000 		.4byte	.LVL217
 7163 0e18 0A000000 		.4byte	.LVL218
 7164 0e1c 0100     		.2byte	0x1
 7165 0e1e 51       		.byte	0x51
 7166 0e1f 0A000000 		.4byte	.LVL218
 7167 0e23 1E000000 		.4byte	.LVL221
 7168 0e27 0100     		.2byte	0x1
 7169 0e29 54       		.byte	0x54
 7170 0e2a 1E000000 		.4byte	.LVL221
 7171 0e2e 2A000000 		.4byte	.LVL222
 7172 0e32 0400     		.2byte	0x4
 7173 0e34 F3       		.byte	0xf3
 7174 0e35 01       		.uleb128 0x1
 7175 0e36 51       		.byte	0x51
ARM GAS  C:\Users\ilya\AppData\Local\Temp\cchJq1OJ.s 			page 155


 7176 0e37 9F       		.byte	0x9f
 7177 0e38 2A000000 		.4byte	.LVL222
 7178 0e3c 2F000000 		.4byte	.LVL224-1
 7179 0e40 0100     		.2byte	0x1
 7180 0e42 51       		.byte	0x51
 7181 0e43 2F000000 		.4byte	.LVL224-1
 7182 0e47 38000000 		.4byte	.LFE38
 7183 0e4b 0100     		.2byte	0x1
 7184 0e4d 54       		.byte	0x54
 7185 0e4e 00000000 		.4byte	0
 7186 0e52 00000000 		.4byte	0
 7187              	.LLST61:
 7188 0e56 00000000 		.4byte	.LVL225
 7189 0e5a 0C000000 		.4byte	.LVL226
 7190 0e5e 0100     		.2byte	0x1
 7191 0e60 50       		.byte	0x50
 7192 0e61 0C000000 		.4byte	.LVL226
 7193 0e65 26000000 		.4byte	.LVL229
 7194 0e69 0100     		.2byte	0x1
 7195 0e6b 56       		.byte	0x56
 7196 0e6c 26000000 		.4byte	.LVL229
 7197 0e70 3A000000 		.4byte	.LVL234
 7198 0e74 0400     		.2byte	0x4
 7199 0e76 F3       		.byte	0xf3
 7200 0e77 01       		.uleb128 0x1
 7201 0e78 50       		.byte	0x50
 7202 0e79 9F       		.byte	0x9f
 7203 0e7a 3A000000 		.4byte	.LVL234
 7204 0e7e 3C000000 		.4byte	.LVL235
 7205 0e82 0100     		.2byte	0x1
 7206 0e84 50       		.byte	0x50
 7207 0e85 3C000000 		.4byte	.LVL235
 7208 0e89 4C000000 		.4byte	.LFE39
 7209 0e8d 0100     		.2byte	0x1
 7210 0e8f 56       		.byte	0x56
 7211 0e90 00000000 		.4byte	0
 7212 0e94 00000000 		.4byte	0
 7213              	.LLST62:
 7214 0e98 00000000 		.4byte	.LVL225
 7215 0e9c 0C000000 		.4byte	.LVL226
 7216 0ea0 0100     		.2byte	0x1
 7217 0ea2 51       		.byte	0x51
 7218 0ea3 0C000000 		.4byte	.LVL226
 7219 0ea7 2A000000 		.4byte	.LVL230
 7220 0eab 0100     		.2byte	0x1
 7221 0ead 54       		.byte	0x54
 7222 0eae 2A000000 		.4byte	.LVL230
 7223 0eb2 3A000000 		.4byte	.LVL234
 7224 0eb6 0400     		.2byte	0x4
 7225 0eb8 F3       		.byte	0xf3
 7226 0eb9 01       		.uleb128 0x1
 7227 0eba 51       		.byte	0x51
 7228 0ebb 9F       		.byte	0x9f
 7229 0ebc 3A000000 		.4byte	.LVL234
 7230 0ec0 3F000000 		.4byte	.LVL236-1
 7231 0ec4 0100     		.2byte	0x1
 7232 0ec6 51       		.byte	0x51
ARM GAS  C:\Users\ilya\AppData\Local\Temp\cchJq1OJ.s 			page 156


 7233 0ec7 3F000000 		.4byte	.LVL236-1
 7234 0ecb 4C000000 		.4byte	.LFE39
 7235 0ecf 0100     		.2byte	0x1
 7236 0ed1 54       		.byte	0x54
 7237 0ed2 00000000 		.4byte	0
 7238 0ed6 00000000 		.4byte	0
 7239              	.LLST63:
 7240 0eda 00000000 		.4byte	.LVL225
 7241 0ede 0C000000 		.4byte	.LVL226
 7242 0ee2 0100     		.2byte	0x1
 7243 0ee4 52       		.byte	0x52
 7244 0ee5 0C000000 		.4byte	.LVL226
 7245 0ee9 36000000 		.4byte	.LVL233
 7246 0eed 0100     		.2byte	0x1
 7247 0eef 55       		.byte	0x55
 7248 0ef0 36000000 		.4byte	.LVL233
 7249 0ef4 3A000000 		.4byte	.LVL234
 7250 0ef8 0400     		.2byte	0x4
 7251 0efa F3       		.byte	0xf3
 7252 0efb 01       		.uleb128 0x1
 7253 0efc 52       		.byte	0x52
 7254 0efd 9F       		.byte	0x9f
 7255 0efe 3A000000 		.4byte	.LVL234
 7256 0f02 3F000000 		.4byte	.LVL236-1
 7257 0f06 0100     		.2byte	0x1
 7258 0f08 52       		.byte	0x52
 7259 0f09 3F000000 		.4byte	.LVL236-1
 7260 0f0d 4C000000 		.4byte	.LFE39
 7261 0f11 0100     		.2byte	0x1
 7262 0f13 55       		.byte	0x55
 7263 0f14 00000000 		.4byte	0
 7264 0f18 00000000 		.4byte	0
 7265              	.LLST64:
 7266 0f1c 30000000 		.4byte	.LVL231
 7267 0f20 34000000 		.4byte	.LVL232
 7268 0f24 0900     		.2byte	0x9
 7269 0f26 72       		.byte	0x72
 7270 0f27 00       		.sleb128 0
 7271 0f28 11       		.byte	0x11
 7272 0f29 FFFFFF7A 		.sleb128 -10485761
 7273 0f2d 1A       		.byte	0x1a
 7274 0f2e 9F       		.byte	0x9f
 7275 0f2f 34000000 		.4byte	.LVL232
 7276 0f33 3A000000 		.4byte	.LVL234
 7277 0f37 0100     		.2byte	0x1
 7278 0f39 53       		.byte	0x53
 7279 0f3a 00000000 		.4byte	0
 7280 0f3e 00000000 		.4byte	0
 7281              	.LLST65:
 7282 0f42 00000000 		.4byte	.LVL237
 7283 0f46 0A000000 		.4byte	.LVL238
 7284 0f4a 0100     		.2byte	0x1
 7285 0f4c 50       		.byte	0x50
 7286 0f4d 0A000000 		.4byte	.LVL238
 7287 0f51 18000000 		.4byte	.LVL240
 7288 0f55 0100     		.2byte	0x1
 7289 0f57 55       		.byte	0x55
ARM GAS  C:\Users\ilya\AppData\Local\Temp\cchJq1OJ.s 			page 157


 7290 0f58 18000000 		.4byte	.LVL240
 7291 0f5c 2A000000 		.4byte	.LVL242
 7292 0f60 0400     		.2byte	0x4
 7293 0f62 F3       		.byte	0xf3
 7294 0f63 01       		.uleb128 0x1
 7295 0f64 50       		.byte	0x50
 7296 0f65 9F       		.byte	0x9f
 7297 0f66 2A000000 		.4byte	.LVL242
 7298 0f6a 2C000000 		.4byte	.LVL243
 7299 0f6e 0100     		.2byte	0x1
 7300 0f70 50       		.byte	0x50
 7301 0f71 2C000000 		.4byte	.LVL243
 7302 0f75 38000000 		.4byte	.LFE40
 7303 0f79 0100     		.2byte	0x1
 7304 0f7b 55       		.byte	0x55
 7305 0f7c 00000000 		.4byte	0
 7306 0f80 00000000 		.4byte	0
 7307              	.LLST66:
 7308 0f84 00000000 		.4byte	.LVL237
 7309 0f88 0A000000 		.4byte	.LVL238
 7310 0f8c 0100     		.2byte	0x1
 7311 0f8e 51       		.byte	0x51
 7312 0f8f 0A000000 		.4byte	.LVL238
 7313 0f93 1E000000 		.4byte	.LVL241
 7314 0f97 0100     		.2byte	0x1
 7315 0f99 54       		.byte	0x54
 7316 0f9a 1E000000 		.4byte	.LVL241
 7317 0f9e 2A000000 		.4byte	.LVL242
 7318 0fa2 0400     		.2byte	0x4
 7319 0fa4 F3       		.byte	0xf3
 7320 0fa5 01       		.uleb128 0x1
 7321 0fa6 51       		.byte	0x51
 7322 0fa7 9F       		.byte	0x9f
 7323 0fa8 2A000000 		.4byte	.LVL242
 7324 0fac 2F000000 		.4byte	.LVL244-1
 7325 0fb0 0100     		.2byte	0x1
 7326 0fb2 51       		.byte	0x51
 7327 0fb3 2F000000 		.4byte	.LVL244-1
 7328 0fb7 38000000 		.4byte	.LFE40
 7329 0fbb 0100     		.2byte	0x1
 7330 0fbd 54       		.byte	0x54
 7331 0fbe 00000000 		.4byte	0
 7332 0fc2 00000000 		.4byte	0
 7333              	.LLST67:
 7334 0fc6 00000000 		.4byte	.LVL245
 7335 0fca 0C000000 		.4byte	.LVL246
 7336 0fce 0100     		.2byte	0x1
 7337 0fd0 50       		.byte	0x50
 7338 0fd1 0C000000 		.4byte	.LVL246
 7339 0fd5 26000000 		.4byte	.LVL249
 7340 0fd9 0100     		.2byte	0x1
 7341 0fdb 56       		.byte	0x56
 7342 0fdc 26000000 		.4byte	.LVL249
 7343 0fe0 3A000000 		.4byte	.LVL254
 7344 0fe4 0400     		.2byte	0x4
 7345 0fe6 F3       		.byte	0xf3
 7346 0fe7 01       		.uleb128 0x1
ARM GAS  C:\Users\ilya\AppData\Local\Temp\cchJq1OJ.s 			page 158


 7347 0fe8 50       		.byte	0x50
 7348 0fe9 9F       		.byte	0x9f
 7349 0fea 3A000000 		.4byte	.LVL254
 7350 0fee 3C000000 		.4byte	.LVL255
 7351 0ff2 0100     		.2byte	0x1
 7352 0ff4 50       		.byte	0x50
 7353 0ff5 3C000000 		.4byte	.LVL255
 7354 0ff9 4C000000 		.4byte	.LFE41
 7355 0ffd 0100     		.2byte	0x1
 7356 0fff 56       		.byte	0x56
 7357 1000 00000000 		.4byte	0
 7358 1004 00000000 		.4byte	0
 7359              	.LLST68:
 7360 1008 00000000 		.4byte	.LVL245
 7361 100c 0C000000 		.4byte	.LVL246
 7362 1010 0100     		.2byte	0x1
 7363 1012 51       		.byte	0x51
 7364 1013 0C000000 		.4byte	.LVL246
 7365 1017 2A000000 		.4byte	.LVL250
 7366 101b 0100     		.2byte	0x1
 7367 101d 54       		.byte	0x54
 7368 101e 2A000000 		.4byte	.LVL250
 7369 1022 3A000000 		.4byte	.LVL254
 7370 1026 0400     		.2byte	0x4
 7371 1028 F3       		.byte	0xf3
 7372 1029 01       		.uleb128 0x1
 7373 102a 51       		.byte	0x51
 7374 102b 9F       		.byte	0x9f
 7375 102c 3A000000 		.4byte	.LVL254
 7376 1030 3F000000 		.4byte	.LVL256-1
 7377 1034 0100     		.2byte	0x1
 7378 1036 51       		.byte	0x51
 7379 1037 3F000000 		.4byte	.LVL256-1
 7380 103b 4C000000 		.4byte	.LFE41
 7381 103f 0100     		.2byte	0x1
 7382 1041 54       		.byte	0x54
 7383 1042 00000000 		.4byte	0
 7384 1046 00000000 		.4byte	0
 7385              	.LLST69:
 7386 104a 00000000 		.4byte	.LVL245
 7387 104e 0C000000 		.4byte	.LVL246
 7388 1052 0100     		.2byte	0x1
 7389 1054 52       		.byte	0x52
 7390 1055 0C000000 		.4byte	.LVL246
 7391 1059 36000000 		.4byte	.LVL253
 7392 105d 0100     		.2byte	0x1
 7393 105f 55       		.byte	0x55
 7394 1060 36000000 		.4byte	.LVL253
 7395 1064 3A000000 		.4byte	.LVL254
 7396 1068 0400     		.2byte	0x4
 7397 106a F3       		.byte	0xf3
 7398 106b 01       		.uleb128 0x1
 7399 106c 52       		.byte	0x52
 7400 106d 9F       		.byte	0x9f
 7401 106e 3A000000 		.4byte	.LVL254
 7402 1072 3F000000 		.4byte	.LVL256-1
 7403 1076 0100     		.2byte	0x1
ARM GAS  C:\Users\ilya\AppData\Local\Temp\cchJq1OJ.s 			page 159


 7404 1078 52       		.byte	0x52
 7405 1079 3F000000 		.4byte	.LVL256-1
 7406 107d 4C000000 		.4byte	.LFE41
 7407 1081 0100     		.2byte	0x1
 7408 1083 55       		.byte	0x55
 7409 1084 00000000 		.4byte	0
 7410 1088 00000000 		.4byte	0
 7411              	.LLST70:
 7412 108c 30000000 		.4byte	.LVL251
 7413 1090 34000000 		.4byte	.LVL252
 7414 1094 0900     		.2byte	0x9
 7415 1096 72       		.byte	0x72
 7416 1097 00       		.sleb128 0
 7417 1098 11       		.byte	0x11
 7418 1099 FFFFFF67 		.sleb128 -50331649
 7419 109d 1A       		.byte	0x1a
 7420 109e 9F       		.byte	0x9f
 7421 109f 34000000 		.4byte	.LVL252
 7422 10a3 3A000000 		.4byte	.LVL254
 7423 10a7 0100     		.2byte	0x1
 7424 10a9 53       		.byte	0x53
 7425 10aa 00000000 		.4byte	0
 7426 10ae 00000000 		.4byte	0
 7427              	.LLST71:
 7428 10b2 00000000 		.4byte	.LVL257
 7429 10b6 0A000000 		.4byte	.LVL258
 7430 10ba 0100     		.2byte	0x1
 7431 10bc 50       		.byte	0x50
 7432 10bd 0A000000 		.4byte	.LVL258
 7433 10c1 18000000 		.4byte	.LVL260
 7434 10c5 0100     		.2byte	0x1
 7435 10c7 55       		.byte	0x55
 7436 10c8 18000000 		.4byte	.LVL260
 7437 10cc 2A000000 		.4byte	.LVL262
 7438 10d0 0400     		.2byte	0x4
 7439 10d2 F3       		.byte	0xf3
 7440 10d3 01       		.uleb128 0x1
 7441 10d4 50       		.byte	0x50
 7442 10d5 9F       		.byte	0x9f
 7443 10d6 2A000000 		.4byte	.LVL262
 7444 10da 2C000000 		.4byte	.LVL263
 7445 10de 0100     		.2byte	0x1
 7446 10e0 50       		.byte	0x50
 7447 10e1 2C000000 		.4byte	.LVL263
 7448 10e5 38000000 		.4byte	.LFE42
 7449 10e9 0100     		.2byte	0x1
 7450 10eb 55       		.byte	0x55
 7451 10ec 00000000 		.4byte	0
 7452 10f0 00000000 		.4byte	0
 7453              	.LLST72:
 7454 10f4 00000000 		.4byte	.LVL257
 7455 10f8 0A000000 		.4byte	.LVL258
 7456 10fc 0100     		.2byte	0x1
 7457 10fe 51       		.byte	0x51
 7458 10ff 0A000000 		.4byte	.LVL258
 7459 1103 1E000000 		.4byte	.LVL261
 7460 1107 0100     		.2byte	0x1
ARM GAS  C:\Users\ilya\AppData\Local\Temp\cchJq1OJ.s 			page 160


 7461 1109 54       		.byte	0x54
 7462 110a 1E000000 		.4byte	.LVL261
 7463 110e 2A000000 		.4byte	.LVL262
 7464 1112 0400     		.2byte	0x4
 7465 1114 F3       		.byte	0xf3
 7466 1115 01       		.uleb128 0x1
 7467 1116 51       		.byte	0x51
 7468 1117 9F       		.byte	0x9f
 7469 1118 2A000000 		.4byte	.LVL262
 7470 111c 2F000000 		.4byte	.LVL264-1
 7471 1120 0100     		.2byte	0x1
 7472 1122 51       		.byte	0x51
 7473 1123 2F000000 		.4byte	.LVL264-1
 7474 1127 38000000 		.4byte	.LFE42
 7475 112b 0100     		.2byte	0x1
 7476 112d 54       		.byte	0x54
 7477 112e 00000000 		.4byte	0
 7478 1132 00000000 		.4byte	0
 7479              	.LLST73:
 7480 1136 00000000 		.4byte	.LVL265
 7481 113a 0C000000 		.4byte	.LVL266
 7482 113e 0100     		.2byte	0x1
 7483 1140 50       		.byte	0x50
 7484 1141 0C000000 		.4byte	.LVL266
 7485 1145 24000000 		.4byte	.LVL269
 7486 1149 0100     		.2byte	0x1
 7487 114b 56       		.byte	0x56
 7488 114c 24000000 		.4byte	.LVL269
 7489 1150 38000000 		.4byte	.LVL274
 7490 1154 0400     		.2byte	0x4
 7491 1156 F3       		.byte	0xf3
 7492 1157 01       		.uleb128 0x1
 7493 1158 50       		.byte	0x50
 7494 1159 9F       		.byte	0x9f
 7495 115a 38000000 		.4byte	.LVL274
 7496 115e 3A000000 		.4byte	.LVL275
 7497 1162 0100     		.2byte	0x1
 7498 1164 50       		.byte	0x50
 7499 1165 3A000000 		.4byte	.LVL275
 7500 1169 44000000 		.4byte	.LFE43
 7501 116d 0100     		.2byte	0x1
 7502 116f 56       		.byte	0x56
 7503 1170 00000000 		.4byte	0
 7504 1174 00000000 		.4byte	0
 7505              	.LLST74:
 7506 1178 00000000 		.4byte	.LVL265
 7507 117c 0C000000 		.4byte	.LVL266
 7508 1180 0100     		.2byte	0x1
 7509 1182 51       		.byte	0x51
 7510 1183 0C000000 		.4byte	.LVL266
 7511 1187 28000000 		.4byte	.LVL270
 7512 118b 0100     		.2byte	0x1
 7513 118d 54       		.byte	0x54
 7514 118e 28000000 		.4byte	.LVL270
 7515 1192 38000000 		.4byte	.LVL274
 7516 1196 0400     		.2byte	0x4
 7517 1198 F3       		.byte	0xf3
ARM GAS  C:\Users\ilya\AppData\Local\Temp\cchJq1OJ.s 			page 161


 7518 1199 01       		.uleb128 0x1
 7519 119a 51       		.byte	0x51
 7520 119b 9F       		.byte	0x9f
 7521 119c 38000000 		.4byte	.LVL274
 7522 11a0 3D000000 		.4byte	.LVL276-1
 7523 11a4 0100     		.2byte	0x1
 7524 11a6 51       		.byte	0x51
 7525 11a7 3D000000 		.4byte	.LVL276-1
 7526 11ab 44000000 		.4byte	.LFE43
 7527 11af 0100     		.2byte	0x1
 7528 11b1 54       		.byte	0x54
 7529 11b2 00000000 		.4byte	0
 7530 11b6 00000000 		.4byte	0
 7531              	.LLST75:
 7532 11ba 00000000 		.4byte	.LVL265
 7533 11be 0C000000 		.4byte	.LVL266
 7534 11c2 0100     		.2byte	0x1
 7535 11c4 52       		.byte	0x52
 7536 11c5 0C000000 		.4byte	.LVL266
 7537 11c9 36000000 		.4byte	.LVL273
 7538 11cd 0100     		.2byte	0x1
 7539 11cf 55       		.byte	0x55
 7540 11d0 36000000 		.4byte	.LVL273
 7541 11d4 38000000 		.4byte	.LVL274
 7542 11d8 0400     		.2byte	0x4
 7543 11da F3       		.byte	0xf3
 7544 11db 01       		.uleb128 0x1
 7545 11dc 52       		.byte	0x52
 7546 11dd 9F       		.byte	0x9f
 7547 11de 38000000 		.4byte	.LVL274
 7548 11e2 3D000000 		.4byte	.LVL276-1
 7549 11e6 0100     		.2byte	0x1
 7550 11e8 52       		.byte	0x52
 7551 11e9 3D000000 		.4byte	.LVL276-1
 7552 11ed 44000000 		.4byte	.LFE43
 7553 11f1 0100     		.2byte	0x1
 7554 11f3 55       		.byte	0x55
 7555 11f4 00000000 		.4byte	0
 7556 11f8 00000000 		.4byte	0
 7557              	.LLST76:
 7558 11fc 2E000000 		.4byte	.LVL271
 7559 1200 30000000 		.4byte	.LVL272
 7560 1204 0900     		.2byte	0x9
 7561 1206 72       		.byte	0x72
 7562 1207 00       		.sleb128 0
 7563 1208 0C       		.byte	0xc
 7564 1209 FFFFFF3F 		.4byte	0x3fffffff
 7565 120d 1A       		.byte	0x1a
 7566 120e 9F       		.byte	0x9f
 7567 120f 00000000 		.4byte	0
 7568 1213 00000000 		.4byte	0
 7569              	.LLST77:
 7570 1217 00000000 		.4byte	.LVL277
 7571 121b 0A000000 		.4byte	.LVL278
 7572 121f 0100     		.2byte	0x1
 7573 1221 50       		.byte	0x50
 7574 1222 0A000000 		.4byte	.LVL278
ARM GAS  C:\Users\ilya\AppData\Local\Temp\cchJq1OJ.s 			page 162


 7575 1226 18000000 		.4byte	.LVL280
 7576 122a 0100     		.2byte	0x1
 7577 122c 55       		.byte	0x55
 7578 122d 18000000 		.4byte	.LVL280
 7579 1231 28000000 		.4byte	.LVL282
 7580 1235 0400     		.2byte	0x4
 7581 1237 F3       		.byte	0xf3
 7582 1238 01       		.uleb128 0x1
 7583 1239 50       		.byte	0x50
 7584 123a 9F       		.byte	0x9f
 7585 123b 28000000 		.4byte	.LVL282
 7586 123f 2A000000 		.4byte	.LVL283
 7587 1243 0100     		.2byte	0x1
 7588 1245 50       		.byte	0x50
 7589 1246 2A000000 		.4byte	.LVL283
 7590 124a 34000000 		.4byte	.LFE44
 7591 124e 0100     		.2byte	0x1
 7592 1250 55       		.byte	0x55
 7593 1251 00000000 		.4byte	0
 7594 1255 00000000 		.4byte	0
 7595              	.LLST78:
 7596 1259 00000000 		.4byte	.LVL277
 7597 125d 0A000000 		.4byte	.LVL278
 7598 1261 0100     		.2byte	0x1
 7599 1263 51       		.byte	0x51
 7600 1264 0A000000 		.4byte	.LVL278
 7601 1268 1C000000 		.4byte	.LVL281
 7602 126c 0100     		.2byte	0x1
 7603 126e 54       		.byte	0x54
 7604 126f 1C000000 		.4byte	.LVL281
 7605 1273 28000000 		.4byte	.LVL282
 7606 1277 0400     		.2byte	0x4
 7607 1279 F3       		.byte	0xf3
 7608 127a 01       		.uleb128 0x1
 7609 127b 51       		.byte	0x51
 7610 127c 9F       		.byte	0x9f
 7611 127d 28000000 		.4byte	.LVL282
 7612 1281 2D000000 		.4byte	.LVL284-1
 7613 1285 0100     		.2byte	0x1
 7614 1287 51       		.byte	0x51
 7615 1288 2D000000 		.4byte	.LVL284-1
 7616 128c 34000000 		.4byte	.LFE44
 7617 1290 0100     		.2byte	0x1
 7618 1292 54       		.byte	0x54
 7619 1293 00000000 		.4byte	0
 7620 1297 00000000 		.4byte	0
 7621              	.LLST79:
 7622 129b 00000000 		.4byte	.LVL285
 7623 129f 0C000000 		.4byte	.LVL286
 7624 12a3 0100     		.2byte	0x1
 7625 12a5 50       		.byte	0x50
 7626 12a6 0C000000 		.4byte	.LVL286
 7627 12aa 26000000 		.4byte	.LVL289
 7628 12ae 0100     		.2byte	0x1
 7629 12b0 56       		.byte	0x56
 7630 12b1 26000000 		.4byte	.LVL289
 7631 12b5 3A000000 		.4byte	.LVL294
ARM GAS  C:\Users\ilya\AppData\Local\Temp\cchJq1OJ.s 			page 163


 7632 12b9 0400     		.2byte	0x4
 7633 12bb F3       		.byte	0xf3
 7634 12bc 01       		.uleb128 0x1
 7635 12bd 50       		.byte	0x50
 7636 12be 9F       		.byte	0x9f
 7637 12bf 3A000000 		.4byte	.LVL294
 7638 12c3 3C000000 		.4byte	.LVL295
 7639 12c7 0100     		.2byte	0x1
 7640 12c9 50       		.byte	0x50
 7641 12ca 3C000000 		.4byte	.LVL295
 7642 12ce 4C000000 		.4byte	.LFE45
 7643 12d2 0100     		.2byte	0x1
 7644 12d4 56       		.byte	0x56
 7645 12d5 00000000 		.4byte	0
 7646 12d9 00000000 		.4byte	0
 7647              	.LLST80:
 7648 12dd 00000000 		.4byte	.LVL285
 7649 12e1 0C000000 		.4byte	.LVL286
 7650 12e5 0100     		.2byte	0x1
 7651 12e7 51       		.byte	0x51
 7652 12e8 0C000000 		.4byte	.LVL286
 7653 12ec 2A000000 		.4byte	.LVL290
 7654 12f0 0100     		.2byte	0x1
 7655 12f2 54       		.byte	0x54
 7656 12f3 2A000000 		.4byte	.LVL290
 7657 12f7 3A000000 		.4byte	.LVL294
 7658 12fb 0400     		.2byte	0x4
 7659 12fd F3       		.byte	0xf3
 7660 12fe 01       		.uleb128 0x1
 7661 12ff 51       		.byte	0x51
 7662 1300 9F       		.byte	0x9f
 7663 1301 3A000000 		.4byte	.LVL294
 7664 1305 3F000000 		.4byte	.LVL296-1
 7665 1309 0100     		.2byte	0x1
 7666 130b 51       		.byte	0x51
 7667 130c 3F000000 		.4byte	.LVL296-1
 7668 1310 4C000000 		.4byte	.LFE45
 7669 1314 0100     		.2byte	0x1
 7670 1316 54       		.byte	0x54
 7671 1317 00000000 		.4byte	0
 7672 131b 00000000 		.4byte	0
 7673              	.LLST81:
 7674 131f 00000000 		.4byte	.LVL285
 7675 1323 0C000000 		.4byte	.LVL286
 7676 1327 0100     		.2byte	0x1
 7677 1329 52       		.byte	0x52
 7678 132a 0C000000 		.4byte	.LVL286
 7679 132e 36000000 		.4byte	.LVL293
 7680 1332 0100     		.2byte	0x1
 7681 1334 55       		.byte	0x55
 7682 1335 36000000 		.4byte	.LVL293
 7683 1339 3A000000 		.4byte	.LVL294
 7684 133d 0400     		.2byte	0x4
 7685 133f F3       		.byte	0xf3
 7686 1340 01       		.uleb128 0x1
 7687 1341 52       		.byte	0x52
 7688 1342 9F       		.byte	0x9f
ARM GAS  C:\Users\ilya\AppData\Local\Temp\cchJq1OJ.s 			page 164


 7689 1343 3A000000 		.4byte	.LVL294
 7690 1347 3F000000 		.4byte	.LVL296-1
 7691 134b 0100     		.2byte	0x1
 7692 134d 52       		.byte	0x52
 7693 134e 3F000000 		.4byte	.LVL296-1
 7694 1352 4C000000 		.4byte	.LFE45
 7695 1356 0100     		.2byte	0x1
 7696 1358 55       		.byte	0x55
 7697 1359 00000000 		.4byte	0
 7698 135d 00000000 		.4byte	0
 7699              	.LLST82:
 7700 1361 30000000 		.4byte	.LVL291
 7701 1365 34000000 		.4byte	.LVL292
 7702 1369 0A00     		.2byte	0xa
 7703 136b 72       		.byte	0x72
 7704 136c 00       		.sleb128 0
 7705 136d 11       		.byte	0x11
 7706 136e FFFFFFFF 		.sleb128 -268435457
 7706      7E
 7707 1373 1A       		.byte	0x1a
 7708 1374 9F       		.byte	0x9f
 7709 1375 34000000 		.4byte	.LVL292
 7710 1379 3A000000 		.4byte	.LVL294
 7711 137d 0100     		.2byte	0x1
 7712 137f 53       		.byte	0x53
 7713 1380 00000000 		.4byte	0
 7714 1384 00000000 		.4byte	0
 7715              	.LLST83:
 7716 1388 00000000 		.4byte	.LVL297
 7717 138c 0A000000 		.4byte	.LVL298
 7718 1390 0100     		.2byte	0x1
 7719 1392 50       		.byte	0x50
 7720 1393 0A000000 		.4byte	.LVL298
 7721 1397 18000000 		.4byte	.LVL300
 7722 139b 0100     		.2byte	0x1
 7723 139d 55       		.byte	0x55
 7724 139e 18000000 		.4byte	.LVL300
 7725 13a2 2A000000 		.4byte	.LVL302
 7726 13a6 0400     		.2byte	0x4
 7727 13a8 F3       		.byte	0xf3
 7728 13a9 01       		.uleb128 0x1
 7729 13aa 50       		.byte	0x50
 7730 13ab 9F       		.byte	0x9f
 7731 13ac 2A000000 		.4byte	.LVL302
 7732 13b0 2C000000 		.4byte	.LVL303
 7733 13b4 0100     		.2byte	0x1
 7734 13b6 50       		.byte	0x50
 7735 13b7 2C000000 		.4byte	.LVL303
 7736 13bb 38000000 		.4byte	.LFE46
 7737 13bf 0100     		.2byte	0x1
 7738 13c1 55       		.byte	0x55
 7739 13c2 00000000 		.4byte	0
 7740 13c6 00000000 		.4byte	0
 7741              	.LLST84:
 7742 13ca 00000000 		.4byte	.LVL297
 7743 13ce 0A000000 		.4byte	.LVL298
 7744 13d2 0100     		.2byte	0x1
ARM GAS  C:\Users\ilya\AppData\Local\Temp\cchJq1OJ.s 			page 165


 7745 13d4 51       		.byte	0x51
 7746 13d5 0A000000 		.4byte	.LVL298
 7747 13d9 1E000000 		.4byte	.LVL301
 7748 13dd 0100     		.2byte	0x1
 7749 13df 54       		.byte	0x54
 7750 13e0 1E000000 		.4byte	.LVL301
 7751 13e4 2A000000 		.4byte	.LVL302
 7752 13e8 0400     		.2byte	0x4
 7753 13ea F3       		.byte	0xf3
 7754 13eb 01       		.uleb128 0x1
 7755 13ec 51       		.byte	0x51
 7756 13ed 9F       		.byte	0x9f
 7757 13ee 2A000000 		.4byte	.LVL302
 7758 13f2 2F000000 		.4byte	.LVL304-1
 7759 13f6 0100     		.2byte	0x1
 7760 13f8 51       		.byte	0x51
 7761 13f9 2F000000 		.4byte	.LVL304-1
 7762 13fd 38000000 		.4byte	.LFE46
 7763 1401 0100     		.2byte	0x1
 7764 1403 54       		.byte	0x54
 7765 1404 00000000 		.4byte	0
 7766 1408 00000000 		.4byte	0
 7767              	.LLST85:
 7768 140c 00000000 		.4byte	.LVL305
 7769 1410 0C000000 		.4byte	.LVL306
 7770 1414 0100     		.2byte	0x1
 7771 1416 50       		.byte	0x50
 7772 1417 0C000000 		.4byte	.LVL306
 7773 141b 26000000 		.4byte	.LVL309
 7774 141f 0100     		.2byte	0x1
 7775 1421 56       		.byte	0x56
 7776 1422 26000000 		.4byte	.LVL309
 7777 1426 3A000000 		.4byte	.LVL314
 7778 142a 0400     		.2byte	0x4
 7779 142c F3       		.byte	0xf3
 7780 142d 01       		.uleb128 0x1
 7781 142e 50       		.byte	0x50
 7782 142f 9F       		.byte	0x9f
 7783 1430 3A000000 		.4byte	.LVL314
 7784 1434 3C000000 		.4byte	.LVL315
 7785 1438 0100     		.2byte	0x1
 7786 143a 50       		.byte	0x50
 7787 143b 3C000000 		.4byte	.LVL315
 7788 143f 4C000000 		.4byte	.LFE47
 7789 1443 0100     		.2byte	0x1
 7790 1445 56       		.byte	0x56
 7791 1446 00000000 		.4byte	0
 7792 144a 00000000 		.4byte	0
 7793              	.LLST86:
 7794 144e 00000000 		.4byte	.LVL305
 7795 1452 0C000000 		.4byte	.LVL306
 7796 1456 0100     		.2byte	0x1
 7797 1458 51       		.byte	0x51
 7798 1459 0C000000 		.4byte	.LVL306
 7799 145d 2A000000 		.4byte	.LVL310
 7800 1461 0100     		.2byte	0x1
 7801 1463 54       		.byte	0x54
ARM GAS  C:\Users\ilya\AppData\Local\Temp\cchJq1OJ.s 			page 166


 7802 1464 2A000000 		.4byte	.LVL310
 7803 1468 3A000000 		.4byte	.LVL314
 7804 146c 0400     		.2byte	0x4
 7805 146e F3       		.byte	0xf3
 7806 146f 01       		.uleb128 0x1
 7807 1470 51       		.byte	0x51
 7808 1471 9F       		.byte	0x9f
 7809 1472 3A000000 		.4byte	.LVL314
 7810 1476 3F000000 		.4byte	.LVL316-1
 7811 147a 0100     		.2byte	0x1
 7812 147c 51       		.byte	0x51
 7813 147d 3F000000 		.4byte	.LVL316-1
 7814 1481 4C000000 		.4byte	.LFE47
 7815 1485 0100     		.2byte	0x1
 7816 1487 54       		.byte	0x54
 7817 1488 00000000 		.4byte	0
 7818 148c 00000000 		.4byte	0
 7819              	.LLST87:
 7820 1490 00000000 		.4byte	.LVL305
 7821 1494 0C000000 		.4byte	.LVL306
 7822 1498 0100     		.2byte	0x1
 7823 149a 52       		.byte	0x52
 7824 149b 0C000000 		.4byte	.LVL306
 7825 149f 36000000 		.4byte	.LVL313
 7826 14a3 0100     		.2byte	0x1
 7827 14a5 55       		.byte	0x55
 7828 14a6 36000000 		.4byte	.LVL313
 7829 14aa 3A000000 		.4byte	.LVL314
 7830 14ae 0400     		.2byte	0x4
 7831 14b0 F3       		.byte	0xf3
 7832 14b1 01       		.uleb128 0x1
 7833 14b2 52       		.byte	0x52
 7834 14b3 9F       		.byte	0x9f
 7835 14b4 3A000000 		.4byte	.LVL314
 7836 14b8 3F000000 		.4byte	.LVL316-1
 7837 14bc 0100     		.2byte	0x1
 7838 14be 52       		.byte	0x52
 7839 14bf 3F000000 		.4byte	.LVL316-1
 7840 14c3 4C000000 		.4byte	.LFE47
 7841 14c7 0100     		.2byte	0x1
 7842 14c9 55       		.byte	0x55
 7843 14ca 00000000 		.4byte	0
 7844 14ce 00000000 		.4byte	0
 7845              	.LLST88:
 7846 14d2 30000000 		.4byte	.LVL311
 7847 14d6 34000000 		.4byte	.LVL312
 7848 14da 0A00     		.2byte	0xa
 7849 14dc 72       		.byte	0x72
 7850 14dd 00       		.sleb128 0
 7851 14de 11       		.byte	0x11
 7852 14df FFFFFF9F 		.sleb128 -738197505
 7852      7D
 7853 14e4 1A       		.byte	0x1a
 7854 14e5 9F       		.byte	0x9f
 7855 14e6 34000000 		.4byte	.LVL312
 7856 14ea 3A000000 		.4byte	.LVL314
 7857 14ee 0100     		.2byte	0x1
ARM GAS  C:\Users\ilya\AppData\Local\Temp\cchJq1OJ.s 			page 167


 7858 14f0 53       		.byte	0x53
 7859 14f1 00000000 		.4byte	0
 7860 14f5 00000000 		.4byte	0
 7861              	.LLST89:
 7862 14f9 00000000 		.4byte	.LVL317
 7863 14fd 0A000000 		.4byte	.LVL318
 7864 1501 0100     		.2byte	0x1
 7865 1503 50       		.byte	0x50
 7866 1504 0A000000 		.4byte	.LVL318
 7867 1508 18000000 		.4byte	.LVL320
 7868 150c 0100     		.2byte	0x1
 7869 150e 55       		.byte	0x55
 7870 150f 18000000 		.4byte	.LVL320
 7871 1513 2A000000 		.4byte	.LVL322
 7872 1517 0400     		.2byte	0x4
 7873 1519 F3       		.byte	0xf3
 7874 151a 01       		.uleb128 0x1
 7875 151b 50       		.byte	0x50
 7876 151c 9F       		.byte	0x9f
 7877 151d 2A000000 		.4byte	.LVL322
 7878 1521 2C000000 		.4byte	.LVL323
 7879 1525 0100     		.2byte	0x1
 7880 1527 50       		.byte	0x50
 7881 1528 2C000000 		.4byte	.LVL323
 7882 152c 38000000 		.4byte	.LFE48
 7883 1530 0100     		.2byte	0x1
 7884 1532 55       		.byte	0x55
 7885 1533 00000000 		.4byte	0
 7886 1537 00000000 		.4byte	0
 7887              	.LLST90:
 7888 153b 00000000 		.4byte	.LVL317
 7889 153f 0A000000 		.4byte	.LVL318
 7890 1543 0100     		.2byte	0x1
 7891 1545 51       		.byte	0x51
 7892 1546 0A000000 		.4byte	.LVL318
 7893 154a 1E000000 		.4byte	.LVL321
 7894 154e 0100     		.2byte	0x1
 7895 1550 54       		.byte	0x54
 7896 1551 1E000000 		.4byte	.LVL321
 7897 1555 2A000000 		.4byte	.LVL322
 7898 1559 0400     		.2byte	0x4
 7899 155b F3       		.byte	0xf3
 7900 155c 01       		.uleb128 0x1
 7901 155d 51       		.byte	0x51
 7902 155e 9F       		.byte	0x9f
 7903 155f 2A000000 		.4byte	.LVL322
 7904 1563 2F000000 		.4byte	.LVL324-1
 7905 1567 0100     		.2byte	0x1
 7906 1569 51       		.byte	0x51
 7907 156a 2F000000 		.4byte	.LVL324-1
 7908 156e 38000000 		.4byte	.LFE48
 7909 1572 0100     		.2byte	0x1
 7910 1574 54       		.byte	0x54
 7911 1575 00000000 		.4byte	0
 7912 1579 00000000 		.4byte	0
 7913              		.section	.debug_aranges,"",%progbits
 7914 0000 94010000 		.4byte	0x194
ARM GAS  C:\Users\ilya\AppData\Local\Temp\cchJq1OJ.s 			page 168


 7915 0004 0200     		.2byte	0x2
 7916 0006 00000000 		.4byte	.Ldebug_info0
 7917 000a 04       		.byte	0x4
 7918 000b 00       		.byte	0
 7919 000c 0000     		.2byte	0
 7920 000e 0000     		.2byte	0
 7921 0010 00000000 		.4byte	.LFB15
 7922 0014 3C000000 		.4byte	.LFE15-.LFB15
 7923 0018 00000000 		.4byte	.LFB16
 7924 001c 0A000000 		.4byte	.LFE16-.LFB16
 7925 0020 00000000 		.4byte	.LFB1
 7926 0024 34000000 		.4byte	.LFE1-.LFB1
 7927 0028 00000000 		.4byte	.LFB2
 7928 002c 10000000 		.4byte	.LFE2-.LFB2
 7929 0030 00000000 		.4byte	.LFB3
 7930 0034 0C000000 		.4byte	.LFE3-.LFB3
 7931 0038 00000000 		.4byte	.LFB4
 7932 003c 0C000000 		.4byte	.LFE4-.LFB4
 7933 0040 00000000 		.4byte	.LFB5
 7934 0044 0C000000 		.4byte	.LFE5-.LFB5
 7935 0048 00000000 		.4byte	.LFB6
 7936 004c 0C000000 		.4byte	.LFE6-.LFB6
 7937 0050 00000000 		.4byte	.LFB7
 7938 0054 0C000000 		.4byte	.LFE7-.LFB7
 7939 0058 00000000 		.4byte	.LFB8
 7940 005c 0C000000 		.4byte	.LFE8-.LFB8
 7941 0060 00000000 		.4byte	.LFB9
 7942 0064 0C000000 		.4byte	.LFE9-.LFB9
 7943 0068 00000000 		.4byte	.LFB10
 7944 006c 0C000000 		.4byte	.LFE10-.LFB10
 7945 0070 00000000 		.4byte	.LFB11
 7946 0074 0C000000 		.4byte	.LFE11-.LFB11
 7947 0078 00000000 		.4byte	.LFB12
 7948 007c 0C000000 		.4byte	.LFE12-.LFB12
 7949 0080 00000000 		.4byte	.LFB13
 7950 0084 20000000 		.4byte	.LFE13-.LFB13
 7951 0088 00000000 		.4byte	.LFB14
 7952 008c 1C000000 		.4byte	.LFE14-.LFB14
 7953 0090 00000000 		.4byte	.LFB17
 7954 0094 64000000 		.4byte	.LFE17-.LFB17
 7955 0098 00000000 		.4byte	.LFB18
 7956 009c 24000000 		.4byte	.LFE18-.LFB18
 7957 00a0 00000000 		.4byte	.LFB19
 7958 00a4 28000000 		.4byte	.LFE19-.LFB19
 7959 00a8 00000000 		.4byte	.LFB20
 7960 00ac 24000000 		.4byte	.LFE20-.LFB20
 7961 00b0 00000000 		.4byte	.LFB21
 7962 00b4 24000000 		.4byte	.LFE21-.LFB21
 7963 00b8 00000000 		.4byte	.LFB22
 7964 00bc 3C000000 		.4byte	.LFE22-.LFB22
 7965 00c0 00000000 		.4byte	.LFB23
 7966 00c4 20000000 		.4byte	.LFE23-.LFB23
 7967 00c8 00000000 		.4byte	.LFB24
 7968 00cc 3C000000 		.4byte	.LFE24-.LFB24
 7969 00d0 00000000 		.4byte	.LFB25
 7970 00d4 20000000 		.4byte	.LFE25-.LFB25
 7971 00d8 00000000 		.4byte	.LFB26
ARM GAS  C:\Users\ilya\AppData\Local\Temp\cchJq1OJ.s 			page 169


 7972 00dc F4000000 		.4byte	.LFE26-.LFB26
 7973 00e0 00000000 		.4byte	.LFB27
 7974 00e4 34000000 		.4byte	.LFE27-.LFB27
 7975 00e8 00000000 		.4byte	.LFB28
 7976 00ec 30000000 		.4byte	.LFE28-.LFB28
 7977 00f0 00000000 		.4byte	.LFB29
 7978 00f4 30000000 		.4byte	.LFE29-.LFB29
 7979 00f8 00000000 		.4byte	.LFB30
 7980 00fc 2C000000 		.4byte	.LFE30-.LFB30
 7981 0100 00000000 		.4byte	.LFB31
 7982 0104 34000000 		.4byte	.LFE31-.LFB31
 7983 0108 00000000 		.4byte	.LFB32
 7984 010c 30000000 		.4byte	.LFE32-.LFB32
 7985 0110 00000000 		.4byte	.LFB33
 7986 0114 4C000000 		.4byte	.LFE33-.LFB33
 7987 0118 00000000 		.4byte	.LFB34
 7988 011c 38000000 		.4byte	.LFE34-.LFB34
 7989 0120 00000000 		.4byte	.LFB35
 7990 0124 4C000000 		.4byte	.LFE35-.LFB35
 7991 0128 00000000 		.4byte	.LFB36
 7992 012c 38000000 		.4byte	.LFE36-.LFB36
 7993 0130 00000000 		.4byte	.LFB37
 7994 0134 4C000000 		.4byte	.LFE37-.LFB37
 7995 0138 00000000 		.4byte	.LFB38
 7996 013c 38000000 		.4byte	.LFE38-.LFB38
 7997 0140 00000000 		.4byte	.LFB39
 7998 0144 4C000000 		.4byte	.LFE39-.LFB39
 7999 0148 00000000 		.4byte	.LFB40
 8000 014c 38000000 		.4byte	.LFE40-.LFB40
 8001 0150 00000000 		.4byte	.LFB41
 8002 0154 4C000000 		.4byte	.LFE41-.LFB41
 8003 0158 00000000 		.4byte	.LFB42
 8004 015c 38000000 		.4byte	.LFE42-.LFB42
 8005 0160 00000000 		.4byte	.LFB43
 8006 0164 44000000 		.4byte	.LFE43-.LFB43
 8007 0168 00000000 		.4byte	.LFB44
 8008 016c 34000000 		.4byte	.LFE44-.LFB44
 8009 0170 00000000 		.4byte	.LFB45
 8010 0174 4C000000 		.4byte	.LFE45-.LFB45
 8011 0178 00000000 		.4byte	.LFB46
 8012 017c 38000000 		.4byte	.LFE46-.LFB46
 8013 0180 00000000 		.4byte	.LFB47
 8014 0184 4C000000 		.4byte	.LFE47-.LFB47
 8015 0188 00000000 		.4byte	.LFB48
 8016 018c 38000000 		.4byte	.LFE48-.LFB48
 8017 0190 00000000 		.4byte	0
 8018 0194 00000000 		.4byte	0
 8019              		.section	.debug_ranges,"",%progbits
 8020              	.Ldebug_ranges0:
 8021 0000 00000000 		.4byte	.LFB15
 8022 0004 3C000000 		.4byte	.LFE15
 8023 0008 00000000 		.4byte	.LFB16
 8024 000c 0A000000 		.4byte	.LFE16
 8025 0010 00000000 		.4byte	.LFB1
 8026 0014 34000000 		.4byte	.LFE1
 8027 0018 00000000 		.4byte	.LFB2
 8028 001c 10000000 		.4byte	.LFE2
ARM GAS  C:\Users\ilya\AppData\Local\Temp\cchJq1OJ.s 			page 170


 8029 0020 00000000 		.4byte	.LFB3
 8030 0024 0C000000 		.4byte	.LFE3
 8031 0028 00000000 		.4byte	.LFB4
 8032 002c 0C000000 		.4byte	.LFE4
 8033 0030 00000000 		.4byte	.LFB5
 8034 0034 0C000000 		.4byte	.LFE5
 8035 0038 00000000 		.4byte	.LFB6
 8036 003c 0C000000 		.4byte	.LFE6
 8037 0040 00000000 		.4byte	.LFB7
 8038 0044 0C000000 		.4byte	.LFE7
 8039 0048 00000000 		.4byte	.LFB8
 8040 004c 0C000000 		.4byte	.LFE8
 8041 0050 00000000 		.4byte	.LFB9
 8042 0054 0C000000 		.4byte	.LFE9
 8043 0058 00000000 		.4byte	.LFB10
 8044 005c 0C000000 		.4byte	.LFE10
 8045 0060 00000000 		.4byte	.LFB11
 8046 0064 0C000000 		.4byte	.LFE11
 8047 0068 00000000 		.4byte	.LFB12
 8048 006c 0C000000 		.4byte	.LFE12
 8049 0070 00000000 		.4byte	.LFB13
 8050 0074 20000000 		.4byte	.LFE13
 8051 0078 00000000 		.4byte	.LFB14
 8052 007c 1C000000 		.4byte	.LFE14
 8053 0080 00000000 		.4byte	.LFB17
 8054 0084 64000000 		.4byte	.LFE17
 8055 0088 00000000 		.4byte	.LFB18
 8056 008c 24000000 		.4byte	.LFE18
 8057 0090 00000000 		.4byte	.LFB19
 8058 0094 28000000 		.4byte	.LFE19
 8059 0098 00000000 		.4byte	.LFB20
 8060 009c 24000000 		.4byte	.LFE20
 8061 00a0 00000000 		.4byte	.LFB21
 8062 00a4 24000000 		.4byte	.LFE21
 8063 00a8 00000000 		.4byte	.LFB22
 8064 00ac 3C000000 		.4byte	.LFE22
 8065 00b0 00000000 		.4byte	.LFB23
 8066 00b4 20000000 		.4byte	.LFE23
 8067 00b8 00000000 		.4byte	.LFB24
 8068 00bc 3C000000 		.4byte	.LFE24
 8069 00c0 00000000 		.4byte	.LFB25
 8070 00c4 20000000 		.4byte	.LFE25
 8071 00c8 00000000 		.4byte	.LFB26
 8072 00cc F4000000 		.4byte	.LFE26
 8073 00d0 00000000 		.4byte	.LFB27
 8074 00d4 34000000 		.4byte	.LFE27
 8075 00d8 00000000 		.4byte	.LFB28
 8076 00dc 30000000 		.4byte	.LFE28
 8077 00e0 00000000 		.4byte	.LFB29
 8078 00e4 30000000 		.4byte	.LFE29
 8079 00e8 00000000 		.4byte	.LFB30
 8080 00ec 2C000000 		.4byte	.LFE30
 8081 00f0 00000000 		.4byte	.LFB31
 8082 00f4 34000000 		.4byte	.LFE31
 8083 00f8 00000000 		.4byte	.LFB32
 8084 00fc 30000000 		.4byte	.LFE32
 8085 0100 00000000 		.4byte	.LFB33
ARM GAS  C:\Users\ilya\AppData\Local\Temp\cchJq1OJ.s 			page 171


 8086 0104 4C000000 		.4byte	.LFE33
 8087 0108 00000000 		.4byte	.LFB34
 8088 010c 38000000 		.4byte	.LFE34
 8089 0110 00000000 		.4byte	.LFB35
 8090 0114 4C000000 		.4byte	.LFE35
 8091 0118 00000000 		.4byte	.LFB36
 8092 011c 38000000 		.4byte	.LFE36
 8093 0120 00000000 		.4byte	.LFB37
 8094 0124 4C000000 		.4byte	.LFE37
 8095 0128 00000000 		.4byte	.LFB38
 8096 012c 38000000 		.4byte	.LFE38
 8097 0130 00000000 		.4byte	.LFB39
 8098 0134 4C000000 		.4byte	.LFE39
 8099 0138 00000000 		.4byte	.LFB40
 8100 013c 38000000 		.4byte	.LFE40
 8101 0140 00000000 		.4byte	.LFB41
 8102 0144 4C000000 		.4byte	.LFE41
 8103 0148 00000000 		.4byte	.LFB42
 8104 014c 38000000 		.4byte	.LFE42
 8105 0150 00000000 		.4byte	.LFB43
 8106 0154 44000000 		.4byte	.LFE43
 8107 0158 00000000 		.4byte	.LFB44
 8108 015c 34000000 		.4byte	.LFE44
 8109 0160 00000000 		.4byte	.LFB45
 8110 0164 4C000000 		.4byte	.LFE45
 8111 0168 00000000 		.4byte	.LFB46
 8112 016c 38000000 		.4byte	.LFE46
 8113 0170 00000000 		.4byte	.LFB47
 8114 0174 4C000000 		.4byte	.LFE47
 8115 0178 00000000 		.4byte	.LFB48
 8116 017c 38000000 		.4byte	.LFE48
 8117 0180 00000000 		.4byte	0
 8118 0184 00000000 		.4byte	0
 8119              		.section	.debug_line,"",%progbits
 8120              	.Ldebug_line0:
 8121 0000 89060000 		.section	.debug_str,"MS",%progbits,1
 8121      02005800 
 8121      00000201 
 8121      FB0E0D00 
 8121      01010101 
 8122              	.LASF106:
 8123 0000 4379446D 		.ascii	"CyDmaSetInterruptVector\000"
 8123      61536574 
 8123      496E7465 
 8123      72727570 
 8123      74566563 
 8124              	.LASF76:
 8125 0018 4379446D 		.ascii	"CyDmaGetSrcAddress\000"
 8125      61476574 
 8125      53726341 
 8125      64647265 
 8125      737300
 8126              	.LASF42:
 8127 002b 4379446D 		.ascii	"CyDmaGetActiveSrcAddress\000"
 8127      61476574 
 8127      41637469 
 8127      76655372 
ARM GAS  C:\Users\ilya\AppData\Local\Temp\cchJq1OJ.s 			page 172


 8127      63416464 
 8128              	.LASF60:
 8129 0044 4379446D 		.ascii	"CyDmaChDisable\000"
 8129      61436844 
 8129      69736162 
 8129      6C6500
 8130              	.LASF77:
 8131 0053 4379446D 		.ascii	"CyDmaSetDstAddress\000"
 8131      61536574 
 8131      44737441 
 8131      64647265 
 8131      737300
 8132              	.LASF59:
 8133 0066 4379446D 		.ascii	"CyDmaChEnable\000"
 8133      61436845 
 8133      6E61626C 
 8133      6500
 8134              	.LASF36:
 8135 0074 63624964 		.ascii	"cbIdx\000"
 8135      7800
 8136              	.LASF66:
 8137 007a 4379446D 		.ascii	"CyDmaGetPriority\000"
 8137      61476574 
 8137      5072696F 
 8137      72697479 
 8137      00
 8138              	.LASF7:
 8139 008b 6C6F6E67 		.ascii	"long long unsigned int\000"
 8139      206C6F6E 
 8139      6720756E 
 8139      7369676E 
 8139      65642069 
 8140              	.LASF107:
 8141 00a2 696E7465 		.ascii	"interruptVector\000"
 8141      72727570 
 8141      74566563 
 8141      746F7200 
 8142              	.LASF70:
 8143 00b2 4379446D 		.ascii	"CyDmaSetConfiguration\000"
 8143      61536574 
 8143      436F6E66 
 8143      69677572 
 8143      6174696F 
 8144              	.LASF62:
 8145 00c8 74724374 		.ascii	"trCtlLut\000"
 8145      6C4C7574 
 8145      00
 8146              	.LASF103:
 8147 00d1 474E5520 		.ascii	"GNU C11 5.4.1 20160609 (release) [ARM/embedded-5-br"
 8147      43313120 
 8147      352E342E 
 8147      31203230 
 8147      31363036 
 8148 0104 616E6368 		.ascii	"anch revision 237715] -mcpu=cortex-m0 -mthumb -g -O"
 8148      20726576 
 8148      6973696F 
 8148      6E203233 
ARM GAS  C:\Users\ilya\AppData\Local\Temp\cchJq1OJ.s 			page 173


 8148      37373135 
 8149 0137 33202D66 		.ascii	"3 -ffunction-sections -ffat-lto-objects\000"
 8149      66756E63 
 8149      74696F6E 
 8149      2D736563 
 8149      74696F6E 
 8150              	.LASF6:
 8151 015f 6C6F6E67 		.ascii	"long long int\000"
 8151      206C6F6E 
 8151      6720696E 
 8151      7400
 8152              	.LASF0:
 8153 016d 7369676E 		.ascii	"signed char\000"
 8153      65642063 
 8153      68617200 
 8154              	.LASF83:
 8155 0179 4379446D 		.ascii	"CyDmaGetNumDataElements\000"
 8155      61476574 
 8155      4E756D44 
 8155      61746145 
 8155      6C656D65 
 8156              	.LASF11:
 8157 0191 696E7433 		.ascii	"int32\000"
 8157      3200
 8158              	.LASF68:
 8159 0197 4379446D 		.ascii	"CyDmaGetNextDescriptor\000"
 8159      61476574 
 8159      4E657874 
 8159      44657363 
 8159      72697074 
 8160              	.LASF4:
 8161 01ae 6C6F6E67 		.ascii	"long int\000"
 8161      20696E74 
 8161      00
 8162              	.LASF19:
 8163 01b7 6379646D 		.ascii	"cydma_channel_ctl_struct\000"
 8163      615F6368 
 8163      616E6E65 
 8163      6C5F6374 
 8163      6C5F7374 
 8164              	.LASF74:
 8165 01d0 4379446D 		.ascii	"CyDmaSetSrcAddress\000"
 8165      61536574 
 8165      53726341 
 8165      64647265 
 8165      737300
 8166              	.LASF39:
 8167 01e3 696E6974 		.ascii	"initIntrVector\000"
 8167      496E7472 
 8167      56656374 
 8167      6F7200
 8168              	.LASF54:
 8169 01f2 4379446D 		.ascii	"CyDmaGetInterruptCallback\000"
 8169      61476574 
 8169      496E7465 
 8169      72727570 
 8169      7443616C 
ARM GAS  C:\Users\ilya\AppData\Local\Temp\cchJq1OJ.s 			page 174


 8170              	.LASF25:
 8171 020c 6E756D44 		.ascii	"numDataElements\000"
 8171      61746145 
 8171      6C656D65 
 8171      6E747300 
 8172              	.LASF9:
 8173 021c 75696E74 		.ascii	"uint8\000"
 8173      3800
 8174              	.LASF109:
 8175 0222 4379446D 		.ascii	"CyDmaDisable\000"
 8175      61446973 
 8175      61626C65 
 8175      00
 8176              	.LASF58:
 8177 022f 72657375 		.ascii	"result\000"
 8177      6C7400
 8178              	.LASF13:
 8179 0236 646F7562 		.ascii	"double\000"
 8179      6C6500
 8180              	.LASF87:
 8181 023d 4379446D 		.ascii	"CyDmaGetSrcDstTransferWidth\000"
 8181      61476574 
 8181      53726344 
 8181      73745472 
 8181      616E7366 
 8182              	.LASF10:
 8183 0259 75696E74 		.ascii	"uint32\000"
 8183      333200
 8184              	.LASF28:
 8185 0260 74726967 		.ascii	"triggerType\000"
 8185      67657254 
 8185      79706500 
 8186              	.LASF52:
 8187 026c 70726576 		.ascii	"prevCallback\000"
 8187      43616C6C 
 8187      6261636B 
 8187      00
 8188              	.LASF65:
 8189 0279 72656756 		.ascii	"regValue\000"
 8189      616C7565 
 8189      00
 8190              	.LASF46:
 8191 0282 4379446D 		.ascii	"CyDmaSetInterruptSourceMask\000"
 8191      61536574 
 8191      496E7465 
 8191      72727570 
 8191      74536F75 
 8192              	.LASF32:
 8193 029e 6379646D 		.ascii	"cydma_init_struct\000"
 8193      615F696E 
 8193      69745F73 
 8193      74727563 
 8193      7400
 8194              	.LASF67:
 8195 02b0 4379446D 		.ascii	"CyDmaSetNextDescriptor\000"
 8195      61536574 
 8195      4E657874 
ARM GAS  C:\Users\ilya\AppData\Local\Temp\cchJq1OJ.s 			page 175


 8195      44657363 
 8195      72697074 
 8196              	.LASF29:
 8197 02c7 7472616E 		.ascii	"transferMode\000"
 8197      73666572 
 8197      4D6F6465 
 8197      00
 8198              	.LASF8:
 8199 02d4 756E7369 		.ascii	"unsigned int\000"
 8199      676E6564 
 8199      20696E74 
 8199      00
 8200              	.LASF41:
 8201 02e1 4379446D 		.ascii	"CyDmaGetActiveChannels\000"
 8201      61476574 
 8201      41637469 
 8201      76654368 
 8201      616E6E65 
 8202              	.LASF5:
 8203 02f8 6C6F6E67 		.ascii	"long unsigned int\000"
 8203      20756E73 
 8203      69676E65 
 8203      6420696E 
 8203      7400
 8204              	.LASF78:
 8205 030a 64737441 		.ascii	"dstAddress\000"
 8205      64647265 
 8205      737300
 8206              	.LASF3:
 8207 0315 73686F72 		.ascii	"short unsigned int\000"
 8207      7420756E 
 8207      7369676E 
 8207      65642069 
 8207      6E7400
 8208              	.LASF97:
 8209 0328 4379446D 		.ascii	"CyDmaGetPostCompletionActions\000"
 8209      61476574 
 8209      506F7374 
 8209      436F6D70 
 8209      6C657469 
 8210              	.LASF101:
 8211 0346 4379496E 		.ascii	"CyIntSetVector\000"
 8211      74536574 
 8211      56656374 
 8211      6F7200
 8212              	.LASF89:
 8213 0355 4379446D 		.ascii	"CyDmaGetAddressIncrement\000"
 8213      61476574 
 8213      41646472 
 8213      65737349 
 8213      6E637265 
 8214              	.LASF51:
 8215 036e 63616C6C 		.ascii	"callback\000"
 8215      6261636B 
 8215      00
 8216              	.LASF64:
 8217 0377 7072696F 		.ascii	"priority\000"
ARM GAS  C:\Users\ilya\AppData\Local\Temp\cchJq1OJ.s 			page 176


 8217      72697479 
 8217      00
 8218              	.LASF88:
 8219 0380 4379446D 		.ascii	"CyDmaSetAddressIncrement\000"
 8219      61536574 
 8219      41646472 
 8219      65737349 
 8219      6E637265 
 8220              	.LASF95:
 8221 0399 4379446D 		.ascii	"CyDmaGetPreemptable\000"
 8221      61476574 
 8221      50726565 
 8221      6D707461 
 8221      626C6500 
 8222              	.LASF102:
 8223 03ad 4379496E 		.ascii	"CyIntSetPriority\000"
 8223      74536574 
 8223      5072696F 
 8223      72697479 
 8223      00
 8224              	.LASF16:
 8225 03be 72656733 		.ascii	"reg32\000"
 8225      3200
 8226              	.LASF93:
 8227 03c4 4379446D 		.ascii	"CyDmaGetTransferMode\000"
 8227      61476574 
 8227      5472616E 
 8227      73666572 
 8227      4D6F6465 
 8228              	.LASF96:
 8229 03d9 4379446D 		.ascii	"CyDmaSetPostCompletionActions\000"
 8229      61536574 
 8229      506F7374 
 8229      436F6D70 
 8229      6C657469 
 8230              	.LASF18:
 8231 03f7 73697A65 		.ascii	"sizetype\000"
 8231      74797065 
 8231      00
 8232              	.LASF34:
 8233 0400 6C6F6E67 		.ascii	"long double\000"
 8233      20646F75 
 8233      626C6500 
 8234              	.LASF35:
 8235 040c 696E7472 		.ascii	"intr\000"
 8235      00
 8236              	.LASF108:
 8237 0411 4379446D 		.ascii	"CyDmaDefaultInterruptCallback\000"
 8237      61446566 
 8237      61756C74 
 8237      496E7465 
 8237      72727570 
 8238              	.LASF84:
 8239 042f 6E756D45 		.ascii	"numElements\000"
 8239      6C656D65 
 8239      6E747300 
 8240              	.LASF75:
ARM GAS  C:\Users\ilya\AppData\Local\Temp\cchJq1OJ.s 			page 177


 8241 043b 73726341 		.ascii	"srcAddress\000"
 8241      64647265 
 8241      737300
 8242              	.LASF73:
 8243 0446 4379446D 		.ascii	"CyDmaGetDescriptorStatus\000"
 8243      61476574 
 8243      44657363 
 8243      72697074 
 8243      6F725374 
 8244              	.LASF53:
 8245 045f 4379446D 		.ascii	"CyDmaSetInterruptCallback\000"
 8245      61536574 
 8245      496E7465 
 8245      72727570 
 8245      7443616C 
 8246              	.LASF44:
 8247 0479 4379446D 		.ascii	"CyDmaGetInterruptSource\000"
 8247      61476574 
 8247      496E7465 
 8247      72727570 
 8247      74536F75 
 8248              	.LASF26:
 8249 0491 73726344 		.ascii	"srcDstTransferWidth\000"
 8249      73745472 
 8249      616E7366 
 8249      65725769 
 8249      64746800 
 8250              	.LASF80:
 8251 04a5 4379446D 		.ascii	"CyDmaSetDataElementSize\000"
 8251      61536574 
 8251      44617461 
 8251      456C656D 
 8251      656E7453 
 8252              	.LASF37:
 8253 04bd 4379446D 		.ascii	"CyDmaInterrupt\000"
 8253      61496E74 
 8253      65727275 
 8253      707400
 8254              	.LASF63:
 8255 04cc 4379446D 		.ascii	"CyDmaSetPriority\000"
 8255      61536574 
 8255      5072696F 
 8255      72697479 
 8255      00
 8256              	.LASF24:
 8257 04dd 64617461 		.ascii	"dataElementSize\000"
 8257      456C656D 
 8257      656E7453 
 8257      697A6500 
 8258              	.LASF12:
 8259 04ed 666C6F61 		.ascii	"float\000"
 8259      7400
 8260              	.LASF33:
 8261 04f3 6379646D 		.ascii	"cydma_callback_t\000"
 8261      615F6361 
 8261      6C6C6261 
 8261      636B5F74 
ARM GAS  C:\Users\ilya\AppData\Local\Temp\cchJq1OJ.s 			page 178


 8261      00
 8262              	.LASF98:
 8263 0504 4379446D 		.ascii	"CyDmaInterruptCallback\000"
 8263      61496E74 
 8263      65727275 
 8263      70744361 
 8263      6C6C6261 
 8264              	.LASF100:
 8265 051b 43794861 		.ascii	"CyHalt\000"
 8265      6C7400
 8266              	.LASF40:
 8267 0522 4379446D 		.ascii	"CyDmaGetStatus\000"
 8267      61476574 
 8267      53746174 
 8267      757300
 8268              	.LASF1:
 8269 0531 756E7369 		.ascii	"unsigned char\000"
 8269      676E6564 
 8269      20636861 
 8269      7200
 8270              	.LASF49:
 8271 053f 4379446D 		.ascii	"CyDmaGetInterruptSourceMasked\000"
 8271      61476574 
 8271      496E7465 
 8271      72727570 
 8271      74536F75 
 8272              	.LASF2:
 8273 055d 73686F72 		.ascii	"short int\000"
 8273      7420696E 
 8273      7400
 8274              	.LASF47:
 8275 0567 696E7465 		.ascii	"interruptMask\000"
 8275      72727570 
 8275      744D6173 
 8275      6B00
 8276              	.LASF48:
 8277 0575 4379446D 		.ascii	"CyDmaGetInterruptSourceMask\000"
 8277      61476574 
 8277      496E7465 
 8277      72727570 
 8277      74536F75 
 8278              	.LASF69:
 8279 0591 6E657874 		.ascii	"nextDescriptor\000"
 8279      44657363 
 8279      72697074 
 8279      6F7200
 8280              	.LASF50:
 8281 05a0 6368616E 		.ascii	"channel\000"
 8281      6E656C00 
 8282              	.LASF91:
 8283 05a8 4379446D 		.ascii	"CyDmaGetTriggerType\000"
 8283      61476574 
 8283      54726967 
 8283      67657254 
 8283      79706500 
 8284              	.LASF55:
 8285 05bc 4379446D 		.ascii	"CyDmaChAlloc\000"
ARM GAS  C:\Users\ilya\AppData\Local\Temp\cchJq1OJ.s 			page 179


 8285      61436841 
 8285      6C6C6F63 
 8285      00
 8286              	.LASF22:
 8287 05c9 64657363 		.ascii	"descriptor\000"
 8287      72697074 
 8287      6F7200
 8288              	.LASF56:
 8289 05d4 6368616E 		.ascii	"channelMask\000"
 8289      6E656C4D 
 8289      61736B00 
 8290              	.LASF14:
 8291 05e0 63686172 		.ascii	"char\000"
 8291      00
 8292              	.LASF45:
 8293 05e5 4379446D 		.ascii	"CyDmaClearInterruptSource\000"
 8293      61436C65 
 8293      6172496E 
 8293      74657272 
 8293      75707453 
 8294              	.LASF17:
 8295 05ff 63796973 		.ascii	"cyisraddress\000"
 8295      72616464 
 8295      72657373 
 8295      00
 8296              	.LASF71:
 8297 060c 636F6E66 		.ascii	"config\000"
 8297      696700
 8298              	.LASF105:
 8299 0613 433A5C70 		.ascii	"C:\\psoc\\chamonix\\camera.cydsn\000"
 8299      736F635C 
 8299      6368616D 
 8299      6F6E6978 
 8299      5C63616D 
 8300              	.LASF99:
 8301 0631 4379446D 		.ascii	"CyDmaChannelUsedMask\000"
 8301      61436861 
 8301      6E6E656C 
 8301      55736564 
 8301      4D61736B 
 8302              	.LASF81:
 8303 0646 4379446D 		.ascii	"CyDmaGetDataElementSize\000"
 8303      61476574 
 8303      44617461 
 8303      456C656D 
 8303      656E7453 
 8304              	.LASF85:
 8305 065e 4379446D 		.ascii	"CyDmaSetSrcDstTransferWidth\000"
 8305      61536574 
 8305      53726344 
 8305      73745472 
 8305      616E7366 
 8306              	.LASF72:
 8307 067a 4379446D 		.ascii	"CyDmaValidateDescriptor\000"
 8307      6156616C 
 8307      69646174 
 8307      65446573 
ARM GAS  C:\Users\ilya\AppData\Local\Temp\cchJq1OJ.s 			page 180


 8307      63726970 
 8308              	.LASF38:
 8309 0692 4379446D 		.ascii	"CyDmaEnable\000"
 8309      61456E61 
 8309      626C6500 
 8310              	.LASF27:
 8311 069e 61646472 		.ascii	"addressIncrement\000"
 8311      65737349 
 8311      6E637265 
 8311      6D656E74 
 8311      00
 8312              	.LASF79:
 8313 06af 4379446D 		.ascii	"CyDmaGetDstAddress\000"
 8313      61476574 
 8313      44737441 
 8313      64647265 
 8313      737300
 8314              	.LASF43:
 8315 06c2 4379446D 		.ascii	"CyDmaGetActiveDstAddress\000"
 8315      61476574 
 8315      41637469 
 8315      76654473 
 8315      74416464 
 8316              	.LASF82:
 8317 06db 4379446D 		.ascii	"CyDmaSetNumDataElements\000"
 8317      61536574 
 8317      4E756D44 
 8317      61746145 
 8317      6C656D65 
 8318              	.LASF20:
 8319 06f3 73746174 		.ascii	"status\000"
 8319      757300
 8320              	.LASF21:
 8321 06fa 6379646D 		.ascii	"cydma_descriptor_struct\000"
 8321      615F6465 
 8321      73637269 
 8321      70746F72 
 8321      5F737472 
 8322              	.LASF15:
 8323 0712 63797374 		.ascii	"cystatus\000"
 8323      61747573 
 8323      00
 8324              	.LASF86:
 8325 071b 7472616E 		.ascii	"transferWidth\000"
 8325      73666572 
 8325      57696474 
 8325      6800
 8326              	.LASF61:
 8327 0729 4379446D 		.ascii	"CyDmaTrigger\000"
 8327      61547269 
 8327      67676572 
 8327      00
 8328              	.LASF92:
 8329 0736 4379446D 		.ascii	"CyDmaSetTransferMode\000"
 8329      61536574 
 8329      5472616E 
 8329      73666572 
ARM GAS  C:\Users\ilya\AppData\Local\Temp\cchJq1OJ.s 			page 181


 8329      4D6F6465 
 8330              	.LASF23:
 8331 074b 6379646D 		.ascii	"cydma_descriptor_ram_struct\000"
 8331      615F6465 
 8331      73637269 
 8331      70746F72 
 8331      5F72616D 
 8332              	.LASF90:
 8333 0767 4379446D 		.ascii	"CyDmaSetTriggerType\000"
 8333      61536574 
 8333      54726967 
 8333      67657254 
 8333      79706500 
 8334              	.LASF104:
 8335 077b 47656E65 		.ascii	"Generated_Source\\PSoC4\\CyDMA.c\000"
 8335      72617465 
 8335      645F536F 
 8335      75726365 
 8335      5C50536F 
 8336              	.LASF31:
 8337 079a 61637469 		.ascii	"actions\000"
 8337      6F6E7300 
 8338              	.LASF30:
 8339 07a2 70726565 		.ascii	"preemptable\000"
 8339      6D707461 
 8339      626C6500 
 8340              	.LASF94:
 8341 07ae 4379446D 		.ascii	"CyDmaSetPreemptable\000"
 8341      61536574 
 8341      50726565 
 8341      6D707461 
 8341      626C6500 
 8342              	.LASF57:
 8343 07c2 4379446D 		.ascii	"CyDmaChFree\000"
 8343      61436846 
 8343      72656500 
 8344              		.ident	"GCC: (GNU Tools for ARM Embedded Processors) 5.4.1 20160609 (release) [ARM/embedded-5-bran
