ARM GAS  C:\Users\ilya\AppData\Local\Temp\cchJq1OJ.s 			page 1


   1              		.syntax unified
   2              		.cpu cortex-m0
   3              		.fpu softvfp
   4              		.eabi_attribute 20, 1
   5              		.eabi_attribute 21, 1
   6              		.eabi_attribute 23, 3
   7              		.eabi_attribute 24, 1
   8              		.eabi_attribute 25, 1
   9              		.eabi_attribute 26, 1
  10              		.eabi_attribute 30, 2
  11              		.eabi_attribute 34, 0
  12              		.eabi_attribute 18, 4
  13              		.thumb
  14              		.syntax unified
  15              		.file	"CyDMA.c"
  16              		.text
  17              	.Ltext0:
  18              		.cfi_sections	.debug_frame
  19              		.section	.text.CyDmaInterrupt,"ax",%progbits
  20              		.align	2
  21              		.global	CyDmaInterrupt
  22              		.code	16
  23              		.thumb_func
  24              		.type	CyDmaInterrupt, %function
  25              	CyDmaInterrupt:
  26              	.LFB15:
  27              		.file 1 "Generated_Source\\PSoC4\\CyDMA.c"
   1:Generated_Source\PSoC4/CyDMA.c **** /*******************************************************************************
   2:Generated_Source\PSoC4/CyDMA.c **** * File Name: CyDMA.c
   3:Generated_Source\PSoC4/CyDMA.c **** * Version 1.10
   4:Generated_Source\PSoC4/CyDMA.c **** *
   5:Generated_Source\PSoC4/CyDMA.c **** * Description:
   6:Generated_Source\PSoC4/CyDMA.c **** *  This file contains all of the global DMA API functions.
   7:Generated_Source\PSoC4/CyDMA.c **** *
   8:Generated_Source\PSoC4/CyDMA.c **** ********************************************************************************
   9:Generated_Source\PSoC4/CyDMA.c **** * Copyright 2015, Cypress Semiconductor Corporation. All rights reserved.
  10:Generated_Source\PSoC4/CyDMA.c **** * You may use this file only in accordance with the license, terms, conditions,
  11:Generated_Source\PSoC4/CyDMA.c **** * disclaimers, and limitations in the end user license agreement accompanying
  12:Generated_Source\PSoC4/CyDMA.c **** * the software package with which this file was provided.
  13:Generated_Source\PSoC4/CyDMA.c **** *******************************************************************************/
  14:Generated_Source\PSoC4/CyDMA.c **** 
  15:Generated_Source\PSoC4/CyDMA.c **** #include "CyDMA.h"
  16:Generated_Source\PSoC4/CyDMA.c **** #include "CyLib.h"
  17:Generated_Source\PSoC4/CyDMA.c **** 
  18:Generated_Source\PSoC4/CyDMA.c **** /* Default callback function. It is invoked if the user callback function is
  19:Generated_Source\PSoC4/CyDMA.c **** * undefined.
  20:Generated_Source\PSoC4/CyDMA.c **** */
  21:Generated_Source\PSoC4/CyDMA.c **** static void CyDmaDefaultInterruptCallback(void);
  22:Generated_Source\PSoC4/CyDMA.c **** 
  23:Generated_Source\PSoC4/CyDMA.c **** /* Array of pointers to user defined callback functions to be called
  24:Generated_Source\PSoC4/CyDMA.c **** * from DMA interrupt.
  25:Generated_Source\PSoC4/CyDMA.c **** */
  26:Generated_Source\PSoC4/CyDMA.c **** static cydma_callback_t CyDmaInterruptCallback[CYDMA_CH_NR] = {
  27:Generated_Source\PSoC4/CyDMA.c ****     &CyDmaDefaultInterruptCallback, &CyDmaDefaultInterruptCallback,
  28:Generated_Source\PSoC4/CyDMA.c ****     &CyDmaDefaultInterruptCallback, &CyDmaDefaultInterruptCallback,
  29:Generated_Source\PSoC4/CyDMA.c ****     &CyDmaDefaultInterruptCallback, &CyDmaDefaultInterruptCallback,
  30:Generated_Source\PSoC4/CyDMA.c ****     &CyDmaDefaultInterruptCallback, &CyDmaDefaultInterruptCallback
ARM GAS  C:\Users\ilya\AppData\Local\Temp\cchJq1OJ.s 			page 2


  31:Generated_Source\PSoC4/CyDMA.c **** };
  32:Generated_Source\PSoC4/CyDMA.c **** 
  33:Generated_Source\PSoC4/CyDMA.c **** /* The live status of all DMA channels usage. Bit i is associated to channel i,
  34:Generated_Source\PSoC4/CyDMA.c **** * with i = 0..CYDMA_CH_NR-1. '0' - channel is free. '1' - channel is in use.
  35:Generated_Source\PSoC4/CyDMA.c **** * All the channels allocated for DMA instances placed on a schematic are in use
  36:Generated_Source\PSoC4/CyDMA.c **** * by default and cannot be freed. 
  37:Generated_Source\PSoC4/CyDMA.c **** * DMA_CHANNELS_USED__MASK is generated during the build time and is a bit field
  38:Generated_Source\PSoC4/CyDMA.c **** * corresponding to the DMA channels placed on a design schematic.
  39:Generated_Source\PSoC4/CyDMA.c **** */
  40:Generated_Source\PSoC4/CyDMA.c **** static uint32 CyDmaChannelUsedMask = DMA_CHANNELS_USED__MASK;
  41:Generated_Source\PSoC4/CyDMA.c **** 
  42:Generated_Source\PSoC4/CyDMA.c **** 
  43:Generated_Source\PSoC4/CyDMA.c **** /*******************************************************************************
  44:Generated_Source\PSoC4/CyDMA.c **** * Function Name: CyDmaEnable
  45:Generated_Source\PSoC4/CyDMA.c **** ********************************************************************************
  46:Generated_Source\PSoC4/CyDMA.c **** *
  47:Generated_Source\PSoC4/CyDMA.c **** * Summary:
  48:Generated_Source\PSoC4/CyDMA.c **** *  Sets the default ISR to be called by the DMA interrupt and enables the DMA
  49:Generated_Source\PSoC4/CyDMA.c **** *  transfer engine.
  50:Generated_Source\PSoC4/CyDMA.c **** *
  51:Generated_Source\PSoC4/CyDMA.c **** * Parameters:
  52:Generated_Source\PSoC4/CyDMA.c **** *  None.
  53:Generated_Source\PSoC4/CyDMA.c **** *                   
  54:Generated_Source\PSoC4/CyDMA.c **** * Return:
  55:Generated_Source\PSoC4/CyDMA.c **** *  None.
  56:Generated_Source\PSoC4/CyDMA.c **** *
  57:Generated_Source\PSoC4/CyDMA.c **** * Side effect:
  58:Generated_Source\PSoC4/CyDMA.c **** *  Does not affect the channel enable status. Overrides the interrupt vector
  59:Generated_Source\PSoC4/CyDMA.c **** *  set prior the first time CyDmaEnable() is called.
  60:Generated_Source\PSoC4/CyDMA.c **** *
  61:Generated_Source\PSoC4/CyDMA.c **** *******************************************************************************/
  62:Generated_Source\PSoC4/CyDMA.c **** void CyDmaEnable(void)
  63:Generated_Source\PSoC4/CyDMA.c **** {
  64:Generated_Source\PSoC4/CyDMA.c ****     static uint8 initIntrVector = 0u;
  65:Generated_Source\PSoC4/CyDMA.c **** 
  66:Generated_Source\PSoC4/CyDMA.c ****     if(0u == initIntrVector)
  67:Generated_Source\PSoC4/CyDMA.c ****     {
  68:Generated_Source\PSoC4/CyDMA.c ****         CyDmaSetInterruptVector(&CyDmaInterrupt);
  69:Generated_Source\PSoC4/CyDMA.c ****         CyIntSetPriority(CYDMA_INTR_NUMBER, CYDMA_INTR_PRIO);
  70:Generated_Source\PSoC4/CyDMA.c ****         initIntrVector = 1u;
  71:Generated_Source\PSoC4/CyDMA.c ****     }
  72:Generated_Source\PSoC4/CyDMA.c ****     CYDMA_CTL_REG = CYDMA_ENABLED;
  73:Generated_Source\PSoC4/CyDMA.c **** }
  74:Generated_Source\PSoC4/CyDMA.c **** 
  75:Generated_Source\PSoC4/CyDMA.c **** 
  76:Generated_Source\PSoC4/CyDMA.c **** /*******************************************************************************
  77:Generated_Source\PSoC4/CyDMA.c **** * Function Name: CyDmaDisable
  78:Generated_Source\PSoC4/CyDMA.c **** ********************************************************************************
  79:Generated_Source\PSoC4/CyDMA.c **** *
  80:Generated_Source\PSoC4/CyDMA.c **** * Summary:
  81:Generated_Source\PSoC4/CyDMA.c **** *  Disables the DMA transfer engine.
  82:Generated_Source\PSoC4/CyDMA.c **** *
  83:Generated_Source\PSoC4/CyDMA.c **** * Parameters:
  84:Generated_Source\PSoC4/CyDMA.c **** *  None.
  85:Generated_Source\PSoC4/CyDMA.c **** *                   
  86:Generated_Source\PSoC4/CyDMA.c **** * Return:
  87:Generated_Source\PSoC4/CyDMA.c **** *  None.
ARM GAS  C:\Users\ilya\AppData\Local\Temp\cchJq1OJ.s 			page 3


  88:Generated_Source\PSoC4/CyDMA.c **** *
  89:Generated_Source\PSoC4/CyDMA.c **** * Side effect:
  90:Generated_Source\PSoC4/CyDMA.c **** *  Does not affect the channel enable status.
  91:Generated_Source\PSoC4/CyDMA.c **** *
  92:Generated_Source\PSoC4/CyDMA.c **** *******************************************************************************/
  93:Generated_Source\PSoC4/CyDMA.c **** void CyDmaDisable(void)
  94:Generated_Source\PSoC4/CyDMA.c **** {
  95:Generated_Source\PSoC4/CyDMA.c ****     CYDMA_CTL_REG = (uint32)~CYDMA_ENABLED;
  96:Generated_Source\PSoC4/CyDMA.c **** }
  97:Generated_Source\PSoC4/CyDMA.c **** 
  98:Generated_Source\PSoC4/CyDMA.c **** 
  99:Generated_Source\PSoC4/CyDMA.c **** /*******************************************************************************
 100:Generated_Source\PSoC4/CyDMA.c **** * Function Name: CyDmaGetStatus
 101:Generated_Source\PSoC4/CyDMA.c **** ********************************************************************************
 102:Generated_Source\PSoC4/CyDMA.c **** *
 103:Generated_Source\PSoC4/CyDMA.c **** * Summary:
 104:Generated_Source\PSoC4/CyDMA.c **** *  Returns the status of the DMA transfer engine.
 105:Generated_Source\PSoC4/CyDMA.c **** *
 106:Generated_Source\PSoC4/CyDMA.c **** * Parameters:
 107:Generated_Source\PSoC4/CyDMA.c **** *  None.
 108:Generated_Source\PSoC4/CyDMA.c **** *                   
 109:Generated_Source\PSoC4/CyDMA.c **** * Return:
 110:Generated_Source\PSoC4/CyDMA.c **** *  The contents of the DMA status register. Refer to the status register bit
 111:Generated_Source\PSoC4/CyDMA.c **** *  definitions in CyDMA_P4.h or the API description in the DMA channel
 112:Generated_Source\PSoC4/CyDMA.c **** *  datasheet.
 113:Generated_Source\PSoC4/CyDMA.c **** *
 114:Generated_Source\PSoC4/CyDMA.c **** * Side effect:
 115:Generated_Source\PSoC4/CyDMA.c **** *  The series of function calls CyDmaGetActiveSrcAddress(),
 116:Generated_Source\PSoC4/CyDMA.c **** *  CyDmaGetActiveDstAddress(), CyDmaGetStatus() are not atomic, the DMA
 117:Generated_Source\PSoC4/CyDMA.c **** *  engine may have advanced after one or more of these function calls. Meaning
 118:Generated_Source\PSoC4/CyDMA.c **** *  the returns from these three functions may not be related to each other.
 119:Generated_Source\PSoC4/CyDMA.c **** *
 120:Generated_Source\PSoC4/CyDMA.c **** *******************************************************************************/
 121:Generated_Source\PSoC4/CyDMA.c **** uint32 CyDmaGetStatus(void)
 122:Generated_Source\PSoC4/CyDMA.c **** {
 123:Generated_Source\PSoC4/CyDMA.c ****     return (CYDMA_STATUS_REG);
 124:Generated_Source\PSoC4/CyDMA.c **** }
 125:Generated_Source\PSoC4/CyDMA.c **** 
 126:Generated_Source\PSoC4/CyDMA.c **** 
 127:Generated_Source\PSoC4/CyDMA.c **** /*******************************************************************************
 128:Generated_Source\PSoC4/CyDMA.c **** * Function Name: CyDmaGetActiveChannels
 129:Generated_Source\PSoC4/CyDMA.c **** ********************************************************************************
 130:Generated_Source\PSoC4/CyDMA.c **** *
 131:Generated_Source\PSoC4/CyDMA.c **** * Summary:
 132:Generated_Source\PSoC4/CyDMA.c **** *  Returns a bit field of all the DMA channels that are either active or
 133:Generated_Source\PSoC4/CyDMA.c **** *  pending.
 134:Generated_Source\PSoC4/CyDMA.c **** *
 135:Generated_Source\PSoC4/CyDMA.c **** * Parameters:
 136:Generated_Source\PSoC4/CyDMA.c **** *  None.
 137:Generated_Source\PSoC4/CyDMA.c **** *                   
 138:Generated_Source\PSoC4/CyDMA.c **** * Return:
 139:Generated_Source\PSoC4/CyDMA.c **** *  Bit field of active and pending channels. 
 140:Generated_Source\PSoC4/CyDMA.c **** *
 141:Generated_Source\PSoC4/CyDMA.c **** *******************************************************************************/
 142:Generated_Source\PSoC4/CyDMA.c **** uint32 CyDmaGetActiveChannels(void)
 143:Generated_Source\PSoC4/CyDMA.c **** {
 144:Generated_Source\PSoC4/CyDMA.c ****     return (CYDMA_STATUS_CH_ACT_REG);
ARM GAS  C:\Users\ilya\AppData\Local\Temp\cchJq1OJ.s 			page 4


 145:Generated_Source\PSoC4/CyDMA.c **** }
 146:Generated_Source\PSoC4/CyDMA.c **** 
 147:Generated_Source\PSoC4/CyDMA.c **** 
 148:Generated_Source\PSoC4/CyDMA.c **** /*******************************************************************************
 149:Generated_Source\PSoC4/CyDMA.c **** * Function Name: CyDmaGetActiveSrcAddress
 150:Generated_Source\PSoC4/CyDMA.c **** ********************************************************************************
 151:Generated_Source\PSoC4/CyDMA.c **** *
 152:Generated_Source\PSoC4/CyDMA.c **** * Summary:
 153:Generated_Source\PSoC4/CyDMA.c **** *  Returns the source address currently being used by the DMA transfer engine.
 154:Generated_Source\PSoC4/CyDMA.c **** *  This function can be used to debug the DMA, or observe where it is at in a
 155:Generated_Source\PSoC4/CyDMA.c **** *  transfer. It will not be used in normal DMA operation.
 156:Generated_Source\PSoC4/CyDMA.c **** *
 157:Generated_Source\PSoC4/CyDMA.c **** * Parameters:
 158:Generated_Source\PSoC4/CyDMA.c **** *  None.
 159:Generated_Source\PSoC4/CyDMA.c **** *                   
 160:Generated_Source\PSoC4/CyDMA.c **** * Return:
 161:Generated_Source\PSoC4/CyDMA.c **** *  Source address currently being used by the DMA transfer engine.
 162:Generated_Source\PSoC4/CyDMA.c **** *
 163:Generated_Source\PSoC4/CyDMA.c **** * Side effect:
 164:Generated_Source\PSoC4/CyDMA.c **** *  The series of function calls CyDmaGetActiveSrcAddress(),
 165:Generated_Source\PSoC4/CyDMA.c **** *  CyDmaGetActiveDstAddress(), CyDmaGetStatus() are not atomic, the DMA
 166:Generated_Source\PSoC4/CyDMA.c **** *  engine may have advanced after one or more of these function calls. Meaning
 167:Generated_Source\PSoC4/CyDMA.c **** *  the returns from these three functions may not be related to each other.
 168:Generated_Source\PSoC4/CyDMA.c **** *
 169:Generated_Source\PSoC4/CyDMA.c **** *******************************************************************************/
 170:Generated_Source\PSoC4/CyDMA.c **** void * CyDmaGetActiveSrcAddress(void)
 171:Generated_Source\PSoC4/CyDMA.c **** {
 172:Generated_Source\PSoC4/CyDMA.c ****     return ((void *)CYDMA_STATUS_SRC_ADDR_REG);
 173:Generated_Source\PSoC4/CyDMA.c **** }
 174:Generated_Source\PSoC4/CyDMA.c **** 
 175:Generated_Source\PSoC4/CyDMA.c **** 
 176:Generated_Source\PSoC4/CyDMA.c **** /*******************************************************************************
 177:Generated_Source\PSoC4/CyDMA.c **** * Function Name: CyDmaGetActiveDstAddress
 178:Generated_Source\PSoC4/CyDMA.c **** ********************************************************************************
 179:Generated_Source\PSoC4/CyDMA.c **** *
 180:Generated_Source\PSoC4/CyDMA.c **** * Summary:
 181:Generated_Source\PSoC4/CyDMA.c **** *  Returns the destination address currently being used by the DMA transfer
 182:Generated_Source\PSoC4/CyDMA.c **** *  engine. This function can be used to debug the DMA, or observe where it is at
 183:Generated_Source\PSoC4/CyDMA.c **** *  in a transfer. It will not be used in normal DMA operation.
 184:Generated_Source\PSoC4/CyDMA.c **** *
 185:Generated_Source\PSoC4/CyDMA.c **** * Parameters:
 186:Generated_Source\PSoC4/CyDMA.c **** *  None.
 187:Generated_Source\PSoC4/CyDMA.c **** *                   
 188:Generated_Source\PSoC4/CyDMA.c **** * Return:
 189:Generated_Source\PSoC4/CyDMA.c **** *  Destination address currently being used by the DMA transfer engine.
 190:Generated_Source\PSoC4/CyDMA.c **** *
 191:Generated_Source\PSoC4/CyDMA.c **** * Side effect:
 192:Generated_Source\PSoC4/CyDMA.c **** *  The series of function calls CyDmaGetActiveSrcAddress(),
 193:Generated_Source\PSoC4/CyDMA.c **** *  CyDmaGetActiveDstAddress(), CyDmaGetStatus() are not atomic, the DMA
 194:Generated_Source\PSoC4/CyDMA.c **** *  engine may have advanced after one or more of these function calls. Meaning
 195:Generated_Source\PSoC4/CyDMA.c **** *  the returns from these three functions may not be related to each other.
 196:Generated_Source\PSoC4/CyDMA.c **** *
 197:Generated_Source\PSoC4/CyDMA.c **** *******************************************************************************/
 198:Generated_Source\PSoC4/CyDMA.c **** void * CyDmaGetActiveDstAddress(void)
 199:Generated_Source\PSoC4/CyDMA.c **** {
 200:Generated_Source\PSoC4/CyDMA.c ****     return ((void *)CYDMA_STATUS_DST_ADDR_REG);
 201:Generated_Source\PSoC4/CyDMA.c **** }
ARM GAS  C:\Users\ilya\AppData\Local\Temp\cchJq1OJ.s 			page 5


 202:Generated_Source\PSoC4/CyDMA.c **** 
 203:Generated_Source\PSoC4/CyDMA.c **** 
 204:Generated_Source\PSoC4/CyDMA.c **** /*******************************************************************************
 205:Generated_Source\PSoC4/CyDMA.c **** * Function Name: CyDmaSetInterruptVector
 206:Generated_Source\PSoC4/CyDMA.c **** ********************************************************************************
 207:Generated_Source\PSoC4/CyDMA.c **** *
 208:Generated_Source\PSoC4/CyDMA.c **** * Summary:
 209:Generated_Source\PSoC4/CyDMA.c **** *  Sets the function that will be called by the DMA interrupt. Note, calling
 210:Generated_Source\PSoC4/CyDMA.c **** *  CyDmaEnable() for the first time overrides any effect this API could have.
 211:Generated_Source\PSoC4/CyDMA.c **** *  Call CyDmaSetInterruptVector() after calling CyDmaEnable() to change
 212:Generated_Source\PSoC4/CyDMA.c **** *  the default ISR.
 213:Generated_Source\PSoC4/CyDMA.c **** *
 214:Generated_Source\PSoC4/CyDMA.c **** * Parameters:
 215:Generated_Source\PSoC4/CyDMA.c **** *  interruptVector: Address of the function that will be called by the DMA
 216:Generated_Source\PSoC4/CyDMA.c **** *                   interrupt.
 217:Generated_Source\PSoC4/CyDMA.c **** * Return:
 218:Generated_Source\PSoC4/CyDMA.c **** *  None.
 219:Generated_Source\PSoC4/CyDMA.c **** *
 220:Generated_Source\PSoC4/CyDMA.c **** * Side effect:
 221:Generated_Source\PSoC4/CyDMA.c **** *  Other components that use DMA may register their callback functions to be
 222:Generated_Source\PSoC4/CyDMA.c **** *  called from the default DMA ISR. Therefore, changing the DMA ISR to a user
 223:Generated_Source\PSoC4/CyDMA.c **** *  defined ISR using this API may prevent these other components from
 224:Generated_Source\PSoC4/CyDMA.c **** *  functioning correctly.
 225:Generated_Source\PSoC4/CyDMA.c **** *
 226:Generated_Source\PSoC4/CyDMA.c **** *******************************************************************************/
 227:Generated_Source\PSoC4/CyDMA.c **** void CyDmaSetInterruptVector(cyisraddress interruptVector)
 228:Generated_Source\PSoC4/CyDMA.c **** {
 229:Generated_Source\PSoC4/CyDMA.c ****     (void)CyIntSetVector(CYDMA_INTR_NUMBER, interruptVector);
 230:Generated_Source\PSoC4/CyDMA.c **** }
 231:Generated_Source\PSoC4/CyDMA.c **** 
 232:Generated_Source\PSoC4/CyDMA.c **** 
 233:Generated_Source\PSoC4/CyDMA.c **** /*******************************************************************************
 234:Generated_Source\PSoC4/CyDMA.c **** * Function Name: CyDmaGetInterruptSource
 235:Generated_Source\PSoC4/CyDMA.c **** ********************************************************************************
 236:Generated_Source\PSoC4/CyDMA.c **** *
 237:Generated_Source\PSoC4/CyDMA.c **** * Summary:
 238:Generated_Source\PSoC4/CyDMA.c **** *  Returns the bit field of which channels generated an interrupt request.
 239:Generated_Source\PSoC4/CyDMA.c **** *
 240:Generated_Source\PSoC4/CyDMA.c **** * Parameters:
 241:Generated_Source\PSoC4/CyDMA.c **** *  None.
 242:Generated_Source\PSoC4/CyDMA.c **** *                   
 243:Generated_Source\PSoC4/CyDMA.c **** * Return:
 244:Generated_Source\PSoC4/CyDMA.c **** *  Bit filed of which channels generated an interrupt request.
 245:Generated_Source\PSoC4/CyDMA.c **** *
 246:Generated_Source\PSoC4/CyDMA.c **** *******************************************************************************/
 247:Generated_Source\PSoC4/CyDMA.c **** uint32 CyDmaGetInterruptSource(void)
 248:Generated_Source\PSoC4/CyDMA.c **** {
 249:Generated_Source\PSoC4/CyDMA.c ****     return (CYDMA_INTR_REG);
 250:Generated_Source\PSoC4/CyDMA.c **** }
 251:Generated_Source\PSoC4/CyDMA.c **** 
 252:Generated_Source\PSoC4/CyDMA.c **** 
 253:Generated_Source\PSoC4/CyDMA.c **** /*******************************************************************************
 254:Generated_Source\PSoC4/CyDMA.c **** * Function Name: CyDmaClearInterruptSource
 255:Generated_Source\PSoC4/CyDMA.c **** ********************************************************************************
 256:Generated_Source\PSoC4/CyDMA.c **** *
 257:Generated_Source\PSoC4/CyDMA.c **** * Summary:
 258:Generated_Source\PSoC4/CyDMA.c **** *  Clears the pending interrupts.
ARM GAS  C:\Users\ilya\AppData\Local\Temp\cchJq1OJ.s 			page 6


 259:Generated_Source\PSoC4/CyDMA.c **** *
 260:Generated_Source\PSoC4/CyDMA.c **** * Parameters:
 261:Generated_Source\PSoC4/CyDMA.c **** *  interruptMask: Bit field of interrupts to clear.
 262:Generated_Source\PSoC4/CyDMA.c **** *                   
 263:Generated_Source\PSoC4/CyDMA.c **** * Return:
 264:Generated_Source\PSoC4/CyDMA.c **** *  None.
 265:Generated_Source\PSoC4/CyDMA.c **** *
 266:Generated_Source\PSoC4/CyDMA.c **** *******************************************************************************/
 267:Generated_Source\PSoC4/CyDMA.c **** void CyDmaClearInterruptSource(uint32 interruptMask)
 268:Generated_Source\PSoC4/CyDMA.c **** {
 269:Generated_Source\PSoC4/CyDMA.c ****     CYDMA_INTR_REG = interruptMask;
 270:Generated_Source\PSoC4/CyDMA.c **** }
 271:Generated_Source\PSoC4/CyDMA.c **** 
 272:Generated_Source\PSoC4/CyDMA.c **** 
 273:Generated_Source\PSoC4/CyDMA.c **** /*******************************************************************************
 274:Generated_Source\PSoC4/CyDMA.c **** * Function Name: CyDmaSetInterruptSourceMask
 275:Generated_Source\PSoC4/CyDMA.c **** ********************************************************************************
 276:Generated_Source\PSoC4/CyDMA.c **** *
 277:Generated_Source\PSoC4/CyDMA.c **** * Summary:
 278:Generated_Source\PSoC4/CyDMA.c **** *  Sets mask for interrupt source.
 279:Generated_Source\PSoC4/CyDMA.c **** *
 280:Generated_Source\PSoC4/CyDMA.c **** * Parameters:
 281:Generated_Source\PSoC4/CyDMA.c **** *  interruptmask: Mask corresponding to interrupt bit field.
 282:Generated_Source\PSoC4/CyDMA.c **** *                   
 283:Generated_Source\PSoC4/CyDMA.c **** * Return:
 284:Generated_Source\PSoC4/CyDMA.c **** *  None.
 285:Generated_Source\PSoC4/CyDMA.c **** *
 286:Generated_Source\PSoC4/CyDMA.c **** *******************************************************************************/
 287:Generated_Source\PSoC4/CyDMA.c **** void CyDmaSetInterruptSourceMask(uint32 interruptMask)
 288:Generated_Source\PSoC4/CyDMA.c **** {
 289:Generated_Source\PSoC4/CyDMA.c ****     CYDMA_INTR_MASK_REG = interruptMask;
 290:Generated_Source\PSoC4/CyDMA.c **** }
 291:Generated_Source\PSoC4/CyDMA.c **** 
 292:Generated_Source\PSoC4/CyDMA.c **** 
 293:Generated_Source\PSoC4/CyDMA.c **** /*******************************************************************************
 294:Generated_Source\PSoC4/CyDMA.c **** * Function Name: CyDmaGetInterruptSourceMask
 295:Generated_Source\PSoC4/CyDMA.c **** ********************************************************************************
 296:Generated_Source\PSoC4/CyDMA.c **** *
 297:Generated_Source\PSoC4/CyDMA.c **** * Summary:
 298:Generated_Source\PSoC4/CyDMA.c **** *  Returns mask for interrupt source.
 299:Generated_Source\PSoC4/CyDMA.c **** *
 300:Generated_Source\PSoC4/CyDMA.c **** * Parameters:
 301:Generated_Source\PSoC4/CyDMA.c **** *  None.
 302:Generated_Source\PSoC4/CyDMA.c **** *                   
 303:Generated_Source\PSoC4/CyDMA.c **** * Return:
 304:Generated_Source\PSoC4/CyDMA.c **** *  Mask corresponding to interrupt bit field.
 305:Generated_Source\PSoC4/CyDMA.c **** *
 306:Generated_Source\PSoC4/CyDMA.c **** *******************************************************************************/
 307:Generated_Source\PSoC4/CyDMA.c **** uint32 CyDmaGetInterruptSourceMask(void)
 308:Generated_Source\PSoC4/CyDMA.c **** {
 309:Generated_Source\PSoC4/CyDMA.c ****     return (CYDMA_INTR_MASK_REG);
 310:Generated_Source\PSoC4/CyDMA.c **** }
 311:Generated_Source\PSoC4/CyDMA.c **** 
 312:Generated_Source\PSoC4/CyDMA.c **** 
 313:Generated_Source\PSoC4/CyDMA.c **** /*******************************************************************************
 314:Generated_Source\PSoC4/CyDMA.c **** * Function Name: CyDmaGetInterruptSourceMasked
 315:Generated_Source\PSoC4/CyDMA.c **** ********************************************************************************
ARM GAS  C:\Users\ilya\AppData\Local\Temp\cchJq1OJ.s 			page 7


 316:Generated_Source\PSoC4/CyDMA.c **** *
 317:Generated_Source\PSoC4/CyDMA.c **** * Summary:
 318:Generated_Source\PSoC4/CyDMA.c **** *  Returns the bitwise AND of the interrupt source and the interrupt mask.
 319:Generated_Source\PSoC4/CyDMA.c **** *
 320:Generated_Source\PSoC4/CyDMA.c **** * Parameters:
 321:Generated_Source\PSoC4/CyDMA.c **** *  None.
 322:Generated_Source\PSoC4/CyDMA.c **** *                   
 323:Generated_Source\PSoC4/CyDMA.c **** * Return:
 324:Generated_Source\PSoC4/CyDMA.c **** *  Bitwise AND of the interrupt source and the interrupt mask.
 325:Generated_Source\PSoC4/CyDMA.c **** *
 326:Generated_Source\PSoC4/CyDMA.c **** *******************************************************************************/
 327:Generated_Source\PSoC4/CyDMA.c **** uint32 CyDmaGetInterruptSourceMasked(void)
 328:Generated_Source\PSoC4/CyDMA.c **** {
 329:Generated_Source\PSoC4/CyDMA.c ****     return (CYDMA_INTR_MASKED_REG);
 330:Generated_Source\PSoC4/CyDMA.c **** }
 331:Generated_Source\PSoC4/CyDMA.c **** 
 332:Generated_Source\PSoC4/CyDMA.c **** 
 333:Generated_Source\PSoC4/CyDMA.c **** /*******************************************************************************
 334:Generated_Source\PSoC4/CyDMA.c **** * Function Name: CyDmaSetInterruptCallback
 335:Generated_Source\PSoC4/CyDMA.c **** ********************************************************************************
 336:Generated_Source\PSoC4/CyDMA.c **** *
 337:Generated_Source\PSoC4/CyDMA.c **** * Summary:
 338:Generated_Source\PSoC4/CyDMA.c **** *  Sets a user defined callback function to be called by the DMA interrupt. The
 339:Generated_Source\PSoC4/CyDMA.c **** *  function should contain code to process the interrupt request for the 
 340:Generated_Source\PSoC4/CyDMA.c **** *  associated DMA channel.
 341:Generated_Source\PSoC4/CyDMA.c **** *
 342:Generated_Source\PSoC4/CyDMA.c **** * Parameters:
 343:Generated_Source\PSoC4/CyDMA.c **** *  channel:  Channel used by this function.
 344:Generated_Source\PSoC4/CyDMA.c **** *  callback: Pointer to the user defined callback function.
 345:Generated_Source\PSoC4/CyDMA.c **** *
 346:Generated_Source\PSoC4/CyDMA.c **** * Return:
 347:Generated_Source\PSoC4/CyDMA.c **** *  Pointer to the function previously set for the specified channel. 
 348:Generated_Source\PSoC4/CyDMA.c **** *
 349:Generated_Source\PSoC4/CyDMA.c **** *******************************************************************************/
 350:Generated_Source\PSoC4/CyDMA.c **** cydma_callback_t CyDmaSetInterruptCallback(int32 channel, cydma_callback_t callback)
 351:Generated_Source\PSoC4/CyDMA.c **** {
 352:Generated_Source\PSoC4/CyDMA.c ****     cydma_callback_t prevCallback;
 353:Generated_Source\PSoC4/CyDMA.c **** 
 354:Generated_Source\PSoC4/CyDMA.c ****     CYASSERT((channel >= 0) && (channel < CYDMA_CH_NR));
 355:Generated_Source\PSoC4/CyDMA.c **** 
 356:Generated_Source\PSoC4/CyDMA.c ****     prevCallback = CyDmaInterruptCallback[channel];
 357:Generated_Source\PSoC4/CyDMA.c ****     CyDmaInterruptCallback[channel] = callback;
 358:Generated_Source\PSoC4/CyDMA.c ****     return (prevCallback);
 359:Generated_Source\PSoC4/CyDMA.c **** }
 360:Generated_Source\PSoC4/CyDMA.c **** 
 361:Generated_Source\PSoC4/CyDMA.c **** 
 362:Generated_Source\PSoC4/CyDMA.c **** /*******************************************************************************
 363:Generated_Source\PSoC4/CyDMA.c **** * Function Name: CyDmaGetInterruptCallback
 364:Generated_Source\PSoC4/CyDMA.c **** ********************************************************************************
 365:Generated_Source\PSoC4/CyDMA.c **** *
 366:Generated_Source\PSoC4/CyDMA.c **** * Summary:
 367:Generated_Source\PSoC4/CyDMA.c **** *  Returns the pointer to the interrupt callback function for the specified DMA
 368:Generated_Source\PSoC4/CyDMA.c **** *  channel.
 369:Generated_Source\PSoC4/CyDMA.c **** *
 370:Generated_Source\PSoC4/CyDMA.c **** * Parameters:
 371:Generated_Source\PSoC4/CyDMA.c **** *  channel: Channel used by this function.
 372:Generated_Source\PSoC4/CyDMA.c **** *
ARM GAS  C:\Users\ilya\AppData\Local\Temp\cchJq1OJ.s 			page 8


 373:Generated_Source\PSoC4/CyDMA.c **** * Return:
 374:Generated_Source\PSoC4/CyDMA.c **** *  Callback function pointer for the specified channel.
 375:Generated_Source\PSoC4/CyDMA.c **** *
 376:Generated_Source\PSoC4/CyDMA.c **** *******************************************************************************/
 377:Generated_Source\PSoC4/CyDMA.c **** cydma_callback_t CyDmaGetInterruptCallback(int32 channel)
 378:Generated_Source\PSoC4/CyDMA.c **** {
 379:Generated_Source\PSoC4/CyDMA.c ****     CYASSERT((channel >= 0) && (channel < CYDMA_CH_NR));
 380:Generated_Source\PSoC4/CyDMA.c ****     
 381:Generated_Source\PSoC4/CyDMA.c ****     return (CyDmaInterruptCallback[channel]);
 382:Generated_Source\PSoC4/CyDMA.c **** }
 383:Generated_Source\PSoC4/CyDMA.c **** 
 384:Generated_Source\PSoC4/CyDMA.c **** 
 385:Generated_Source\PSoC4/CyDMA.c **** /*******************************************************************************
 386:Generated_Source\PSoC4/CyDMA.c **** * Function Name: CyDmaInterrupt
 387:Generated_Source\PSoC4/CyDMA.c **** ********************************************************************************
 388:Generated_Source\PSoC4/CyDMA.c **** *
 389:Generated_Source\PSoC4/CyDMA.c **** * Summary:
 390:Generated_Source\PSoC4/CyDMA.c **** *  The default ISR for DMA interrupts. The handler checks which DMA channel has
 391:Generated_Source\PSoC4/CyDMA.c **** *  triggered the interrupt and calls the user defined callback function.
 392:Generated_Source\PSoC4/CyDMA.c **** *  The callback function is set using CyDmaSetInteruptCallback() API.
 393:Generated_Source\PSoC4/CyDMA.c **** *
 394:Generated_Source\PSoC4/CyDMA.c **** * Parameters:
 395:Generated_Source\PSoC4/CyDMA.c **** *  None.
 396:Generated_Source\PSoC4/CyDMA.c **** *
 397:Generated_Source\PSoC4/CyDMA.c **** * Return:
 398:Generated_Source\PSoC4/CyDMA.c **** *  None.
 399:Generated_Source\PSoC4/CyDMA.c **** *
 400:Generated_Source\PSoC4/CyDMA.c **** * Side Effects:
 401:Generated_Source\PSoC4/CyDMA.c **** *  This function clears the pending interrupts.
 402:Generated_Source\PSoC4/CyDMA.c **** *
 403:Generated_Source\PSoC4/CyDMA.c **** *******************************************************************************/
 404:Generated_Source\PSoC4/CyDMA.c **** CY_ISR(CyDmaInterrupt)
 405:Generated_Source\PSoC4/CyDMA.c **** {
  28              		.loc 1 405 0
  29              		.cfi_startproc
  30              		@ args = 0, pretend = 0, frame = 0
  31              		@ frame_needed = 0, uses_anonymous_args = 0
  32              	.LVL0:
 406:Generated_Source\PSoC4/CyDMA.c ****     uint32 intr;
 407:Generated_Source\PSoC4/CyDMA.c ****     uint32 cbIdx = 0u;
 408:Generated_Source\PSoC4/CyDMA.c **** 
 409:Generated_Source\PSoC4/CyDMA.c ****     /* Get interrupt source. */
 410:Generated_Source\PSoC4/CyDMA.c ****     intr = CYDMA_INTR_MASKED_REG;
  33              		.loc 1 410 0
  34 0000 0B4B     		ldr	r3, .L11
 405:Generated_Source\PSoC4/CyDMA.c ****     uint32 intr;
  35              		.loc 1 405 0
  36 0002 70B5     		push	{r4, r5, r6, lr}
  37              		.cfi_def_cfa_offset 16
  38              		.cfi_offset 4, -16
  39              		.cfi_offset 5, -12
  40              		.cfi_offset 6, -8
  41              		.cfi_offset 14, -4
  42              		.loc 1 410 0
  43 0004 1C68     		ldr	r4, [r3]
  44              	.LVL1:
 411:Generated_Source\PSoC4/CyDMA.c **** 
ARM GAS  C:\Users\ilya\AppData\Local\Temp\cchJq1OJ.s 			page 9


 412:Generated_Source\PSoC4/CyDMA.c ****     /* Clear pending interrupts. */
 413:Generated_Source\PSoC4/CyDMA.c ****     CYDMA_INTR_REG = intr;
  45              		.loc 1 413 0
  46 0006 0B4B     		ldr	r3, .L11+4
  47 0008 1C60     		str	r4, [r3]
 414:Generated_Source\PSoC4/CyDMA.c **** 
 415:Generated_Source\PSoC4/CyDMA.c ****     /* Call user defined callback functions for triggered interrupt sources. */
 416:Generated_Source\PSoC4/CyDMA.c ****     while(0u != intr)
  48              		.loc 1 416 0
  49 000a 002C     		cmp	r4, #0
  50 000c 0ED0     		beq	.L1
  51 000e 0A4D     		ldr	r5, .L11+8
 417:Generated_Source\PSoC4/CyDMA.c ****     {
 418:Generated_Source\PSoC4/CyDMA.c ****         if(0u != (intr & 0x1u))
  52              		.loc 1 418 0
  53 0010 0126     		movs	r6, #1
  54 0012 03E0     		b	.L4
  55              	.LVL2:
  56              	.L3:
 419:Generated_Source\PSoC4/CyDMA.c ****         {
 420:Generated_Source\PSoC4/CyDMA.c ****             CyDmaInterruptCallback[cbIdx]();
 421:Generated_Source\PSoC4/CyDMA.c ****         }
 422:Generated_Source\PSoC4/CyDMA.c ****         intr >>= 1;
  57              		.loc 1 422 0
  58 0014 6408     		lsrs	r4, r4, #1
  59              	.LVL3:
  60 0016 0435     		adds	r5, r5, #4
 416:Generated_Source\PSoC4/CyDMA.c ****     {
  61              		.loc 1 416 0
  62 0018 002C     		cmp	r4, #0
  63 001a 07D0     		beq	.L1
  64              	.L4:
 418:Generated_Source\PSoC4/CyDMA.c ****         {
  65              		.loc 1 418 0
  66 001c 2642     		tst	r6, r4
  67 001e F9D0     		beq	.L3
 420:Generated_Source\PSoC4/CyDMA.c ****         }
  68              		.loc 1 420 0
  69 0020 2B68     		ldr	r3, [r5]
  70 0022 9847     		blx	r3
  71              	.LVL4:
  72              		.loc 1 422 0
  73 0024 6408     		lsrs	r4, r4, #1
  74              	.LVL5:
  75 0026 0435     		adds	r5, r5, #4
 416:Generated_Source\PSoC4/CyDMA.c ****     {
  76              		.loc 1 416 0
  77 0028 002C     		cmp	r4, #0
  78 002a F7D1     		bne	.L4
  79              	.L1:
 423:Generated_Source\PSoC4/CyDMA.c ****         ++cbIdx;
 424:Generated_Source\PSoC4/CyDMA.c ****     }
 425:Generated_Source\PSoC4/CyDMA.c **** }
  80              		.loc 1 425 0
  81              		@ sp needed
  82              	.LVL6:
  83 002c 70BD     		pop	{r4, r5, r6, pc}
ARM GAS  C:\Users\ilya\AppData\Local\Temp\cchJq1OJ.s 			page 10


  84              	.L12:
  85 002e C046     		.align	2
  86              	.L11:
  87 0030 FC171040 		.word	1074796540
  88 0034 F0171040 		.word	1074796528
  89 0038 00000000 		.word	.LANCHOR0
  90              		.cfi_endproc
  91              	.LFE15:
  92              		.size	CyDmaInterrupt, .-CyDmaInterrupt
  93              		.section	.text.CyDmaDefaultInterruptCallback,"ax",%progbits
  94              		.align	2
  95              		.code	16
  96              		.thumb_func
  97              		.type	CyDmaDefaultInterruptCallback, %function
  98              	CyDmaDefaultInterruptCallback:
  99              	.LFB16:
 426:Generated_Source\PSoC4/CyDMA.c **** 
 427:Generated_Source\PSoC4/CyDMA.c **** 
 428:Generated_Source\PSoC4/CyDMA.c **** /*******************************************************************************
 429:Generated_Source\PSoC4/CyDMA.c **** * Function Name: CyDmaDefaultInterruptCallback
 430:Generated_Source\PSoC4/CyDMA.c **** ********************************************************************************
 431:Generated_Source\PSoC4/CyDMA.c **** *
 432:Generated_Source\PSoC4/CyDMA.c **** * Summary:
 433:Generated_Source\PSoC4/CyDMA.c **** *  This function is invoked when the user defined callback function is undefined
 434:Generated_Source\PSoC4/CyDMA.c **** *  for the interrupt source.
 435:Generated_Source\PSoC4/CyDMA.c **** *
 436:Generated_Source\PSoC4/CyDMA.c **** * Parameters:
 437:Generated_Source\PSoC4/CyDMA.c **** *  None.
 438:Generated_Source\PSoC4/CyDMA.c **** *
 439:Generated_Source\PSoC4/CyDMA.c **** * Return:
 440:Generated_Source\PSoC4/CyDMA.c **** *  None.
 441:Generated_Source\PSoC4/CyDMA.c **** *
 442:Generated_Source\PSoC4/CyDMA.c **** *******************************************************************************/
 443:Generated_Source\PSoC4/CyDMA.c **** static void CyDmaDefaultInterruptCallback(void)
 444:Generated_Source\PSoC4/CyDMA.c **** {
 100              		.loc 1 444 0
 101              		.cfi_startproc
 102              		@ args = 0, pretend = 0, frame = 0
 103              		@ frame_needed = 0, uses_anonymous_args = 0
 104 0000 10B5     		push	{r4, lr}
 105              		.cfi_def_cfa_offset 8
 106              		.cfi_offset 4, -8
 107              		.cfi_offset 14, -4
 445:Generated_Source\PSoC4/CyDMA.c ****     /* Halt CPU in debug mode. We get here because there is no user defined
 446:Generated_Source\PSoC4/CyDMA.c ****     * callback function for the interrupt source. You should either set a
 447:Generated_Source\PSoC4/CyDMA.c ****     * callback function or disable generating an interrupt from this
 448:Generated_Source\PSoC4/CyDMA.c ****     * interrupt source.
 449:Generated_Source\PSoC4/CyDMA.c ****     * To set a callback, use the CyDmaSetInterruptCallback() API function.
 450:Generated_Source\PSoC4/CyDMA.c ****     * To disable interrupt generation, write '0' to the corresponding bit
 451:Generated_Source\PSoC4/CyDMA.c ****     * in the interrupt mask by calling CyDmaSetInterruptSourceMask().
 452:Generated_Source\PSoC4/CyDMA.c ****     */
 453:Generated_Source\PSoC4/CyDMA.c ****     CYASSERT(0 != 0);
 108              		.loc 1 453 0
 109 0002 0020     		movs	r0, #0
 110 0004 FFF7FEFF 		bl	CyHalt
 111              	.LVL7:
 454:Generated_Source\PSoC4/CyDMA.c **** }
ARM GAS  C:\Users\ilya\AppData\Local\Temp\cchJq1OJ.s 			page 11


 112              		.loc 1 454 0
 113              		@ sp needed
 114 0008 10BD     		pop	{r4, pc}
 115              		.cfi_endproc
 116              	.LFE16:
 117              		.size	CyDmaDefaultInterruptCallback, .-CyDmaDefaultInterruptCallback
 118              		.section	.text.CyDmaEnable,"ax",%progbits
 119              		.align	2
 120              		.global	CyDmaEnable
 121              		.code	16
 122              		.thumb_func
 123              		.type	CyDmaEnable, %function
 124              	CyDmaEnable:
 125              	.LFB1:
  63:Generated_Source\PSoC4/CyDMA.c ****     static uint8 initIntrVector = 0u;
 126              		.loc 1 63 0
 127              		.cfi_startproc
 128              		@ args = 0, pretend = 0, frame = 0
 129              		@ frame_needed = 0, uses_anonymous_args = 0
 130 0000 10B5     		push	{r4, lr}
 131              		.cfi_def_cfa_offset 8
 132              		.cfi_offset 4, -8
 133              		.cfi_offset 14, -4
  66:Generated_Source\PSoC4/CyDMA.c ****     {
 134              		.loc 1 66 0
 135 0002 094C     		ldr	r4, .L16
 136 0004 2378     		ldrb	r3, [r4]
 137 0006 002B     		cmp	r3, #0
 138 0008 09D1     		bne	.L15
 139              	.LVL8:
 140              	.LBB4:
 141              	.LBB5:
 229:Generated_Source\PSoC4/CyDMA.c **** }
 142              		.loc 1 229 0
 143 000a 0849     		ldr	r1, .L16+4
 144 000c 0D20     		movs	r0, #13
 145 000e FFF7FEFF 		bl	CyIntSetVector
 146              	.LVL9:
 147              	.LBE5:
 148              	.LBE4:
  69:Generated_Source\PSoC4/CyDMA.c ****         initIntrVector = 1u;
 149              		.loc 1 69 0
 150 0012 0321     		movs	r1, #3
 151 0014 0D20     		movs	r0, #13
 152 0016 FFF7FEFF 		bl	CyIntSetPriority
 153              	.LVL10:
  70:Generated_Source\PSoC4/CyDMA.c ****     }
 154              		.loc 1 70 0
 155 001a 0123     		movs	r3, #1
 156 001c 2370     		strb	r3, [r4]
 157              	.L15:
  72:Generated_Source\PSoC4/CyDMA.c **** }
 158              		.loc 1 72 0
 159 001e 8022     		movs	r2, #128
 160 0020 034B     		ldr	r3, .L16+8
 161 0022 1206     		lsls	r2, r2, #24
 162 0024 1A60     		str	r2, [r3]
ARM GAS  C:\Users\ilya\AppData\Local\Temp\cchJq1OJ.s 			page 12


  73:Generated_Source\PSoC4/CyDMA.c **** 
 163              		.loc 1 73 0
 164              		@ sp needed
 165 0026 10BD     		pop	{r4, pc}
 166              	.L17:
 167              		.align	2
 168              	.L16:
 169 0028 00000000 		.word	.LANCHOR1
 170 002c 00000000 		.word	CyDmaInterrupt
 171 0030 00101040 		.word	1074794496
 172              		.cfi_endproc
 173              	.LFE1:
 174              		.size	CyDmaEnable, .-CyDmaEnable
 175              		.section	.text.CyDmaDisable,"ax",%progbits
 176              		.align	2
 177              		.global	CyDmaDisable
 178              		.code	16
 179              		.thumb_func
 180              		.type	CyDmaDisable, %function
 181              	CyDmaDisable:
 182              	.LFB2:
  94:Generated_Source\PSoC4/CyDMA.c ****     CYDMA_CTL_REG = (uint32)~CYDMA_ENABLED;
 183              		.loc 1 94 0
 184              		.cfi_startproc
 185              		@ args = 0, pretend = 0, frame = 0
 186              		@ frame_needed = 0, uses_anonymous_args = 0
 187              		@ link register save eliminated.
  95:Generated_Source\PSoC4/CyDMA.c **** }
 188              		.loc 1 95 0
 189 0000 014A     		ldr	r2, .L19
 190 0002 024B     		ldr	r3, .L19+4
  96:Generated_Source\PSoC4/CyDMA.c **** 
 191              		.loc 1 96 0
 192              		@ sp needed
  95:Generated_Source\PSoC4/CyDMA.c **** }
 193              		.loc 1 95 0
 194 0004 1A60     		str	r2, [r3]
  96:Generated_Source\PSoC4/CyDMA.c **** 
 195              		.loc 1 96 0
 196 0006 7047     		bx	lr
 197              	.L20:
 198              		.align	2
 199              	.L19:
 200 0008 FFFFFF7F 		.word	2147483647
 201 000c 00101040 		.word	1074794496
 202              		.cfi_endproc
 203              	.LFE2:
 204              		.size	CyDmaDisable, .-CyDmaDisable
 205              		.section	.text.CyDmaGetStatus,"ax",%progbits
 206              		.align	2
 207              		.global	CyDmaGetStatus
 208              		.code	16
 209              		.thumb_func
 210              		.type	CyDmaGetStatus, %function
 211              	CyDmaGetStatus:
 212              	.LFB3:
 122:Generated_Source\PSoC4/CyDMA.c ****     return (CYDMA_STATUS_REG);
ARM GAS  C:\Users\ilya\AppData\Local\Temp\cchJq1OJ.s 			page 13


 213              		.loc 1 122 0
 214              		.cfi_startproc
 215              		@ args = 0, pretend = 0, frame = 0
 216              		@ frame_needed = 0, uses_anonymous_args = 0
 217              		@ link register save eliminated.
 123:Generated_Source\PSoC4/CyDMA.c **** }
 218              		.loc 1 123 0
 219 0000 014B     		ldr	r3, .L22
 124:Generated_Source\PSoC4/CyDMA.c **** 
 220              		.loc 1 124 0
 221              		@ sp needed
 123:Generated_Source\PSoC4/CyDMA.c **** }
 222              		.loc 1 123 0
 223 0002 1868     		ldr	r0, [r3]
 124:Generated_Source\PSoC4/CyDMA.c **** 
 224              		.loc 1 124 0
 225 0004 7047     		bx	lr
 226              	.L23:
 227 0006 C046     		.align	2
 228              	.L22:
 229 0008 10101040 		.word	1074794512
 230              		.cfi_endproc
 231              	.LFE3:
 232              		.size	CyDmaGetStatus, .-CyDmaGetStatus
 233              		.section	.text.CyDmaGetActiveChannels,"ax",%progbits
 234              		.align	2
 235              		.global	CyDmaGetActiveChannels
 236              		.code	16
 237              		.thumb_func
 238              		.type	CyDmaGetActiveChannels, %function
 239              	CyDmaGetActiveChannels:
 240              	.LFB4:
 143:Generated_Source\PSoC4/CyDMA.c ****     return (CYDMA_STATUS_CH_ACT_REG);
 241              		.loc 1 143 0
 242              		.cfi_startproc
 243              		@ args = 0, pretend = 0, frame = 0
 244              		@ frame_needed = 0, uses_anonymous_args = 0
 245              		@ link register save eliminated.
 144:Generated_Source\PSoC4/CyDMA.c **** }
 246              		.loc 1 144 0
 247 0000 014B     		ldr	r3, .L25
 145:Generated_Source\PSoC4/CyDMA.c **** 
 248              		.loc 1 145 0
 249              		@ sp needed
 144:Generated_Source\PSoC4/CyDMA.c **** }
 250              		.loc 1 144 0
 251 0002 1868     		ldr	r0, [r3]
 145:Generated_Source\PSoC4/CyDMA.c **** 
 252              		.loc 1 145 0
 253 0004 7047     		bx	lr
 254              	.L26:
 255 0006 C046     		.align	2
 256              	.L25:
 257 0008 1C101040 		.word	1074794524
 258              		.cfi_endproc
 259              	.LFE4:
 260              		.size	CyDmaGetActiveChannels, .-CyDmaGetActiveChannels
ARM GAS  C:\Users\ilya\AppData\Local\Temp\cchJq1OJ.s 			page 14


 261              		.section	.text.CyDmaGetActiveSrcAddress,"ax",%progbits
 262              		.align	2
 263              		.global	CyDmaGetActiveSrcAddress
 264              		.code	16
 265              		.thumb_func
 266              		.type	CyDmaGetActiveSrcAddress, %function
 267              	CyDmaGetActiveSrcAddress:
 268              	.LFB5:
 171:Generated_Source\PSoC4/CyDMA.c ****     return ((void *)CYDMA_STATUS_SRC_ADDR_REG);
 269              		.loc 1 171 0
 270              		.cfi_startproc
 271              		@ args = 0, pretend = 0, frame = 0
 272              		@ frame_needed = 0, uses_anonymous_args = 0
 273              		@ link register save eliminated.
 172:Generated_Source\PSoC4/CyDMA.c **** }
 274              		.loc 1 172 0
 275 0000 014B     		ldr	r3, .L28
 173:Generated_Source\PSoC4/CyDMA.c **** 
 276              		.loc 1 173 0
 277              		@ sp needed
 172:Generated_Source\PSoC4/CyDMA.c **** }
 278              		.loc 1 172 0
 279 0002 1868     		ldr	r0, [r3]
 173:Generated_Source\PSoC4/CyDMA.c **** 
 280              		.loc 1 173 0
 281 0004 7047     		bx	lr
 282              	.L29:
 283 0006 C046     		.align	2
 284              	.L28:
 285 0008 14101040 		.word	1074794516
 286              		.cfi_endproc
 287              	.LFE5:
 288              		.size	CyDmaGetActiveSrcAddress, .-CyDmaGetActiveSrcAddress
 289              		.section	.text.CyDmaGetActiveDstAddress,"ax",%progbits
 290              		.align	2
 291              		.global	CyDmaGetActiveDstAddress
 292              		.code	16
 293              		.thumb_func
 294              		.type	CyDmaGetActiveDstAddress, %function
 295              	CyDmaGetActiveDstAddress:
 296              	.LFB6:
 199:Generated_Source\PSoC4/CyDMA.c ****     return ((void *)CYDMA_STATUS_DST_ADDR_REG);
 297              		.loc 1 199 0
 298              		.cfi_startproc
 299              		@ args = 0, pretend = 0, frame = 0
 300              		@ frame_needed = 0, uses_anonymous_args = 0
 301              		@ link register save eliminated.
 200:Generated_Source\PSoC4/CyDMA.c **** }
 302              		.loc 1 200 0
 303 0000 014B     		ldr	r3, .L31
 201:Generated_Source\PSoC4/CyDMA.c **** 
 304              		.loc 1 201 0
 305              		@ sp needed
 200:Generated_Source\PSoC4/CyDMA.c **** }
 306              		.loc 1 200 0
 307 0002 1868     		ldr	r0, [r3]
 201:Generated_Source\PSoC4/CyDMA.c **** 
ARM GAS  C:\Users\ilya\AppData\Local\Temp\cchJq1OJ.s 			page 15


 308              		.loc 1 201 0
 309 0004 7047     		bx	lr
 310              	.L32:
 311 0006 C046     		.align	2
 312              	.L31:
 313 0008 18101040 		.word	1074794520
 314              		.cfi_endproc
 315              	.LFE6:
 316              		.size	CyDmaGetActiveDstAddress, .-CyDmaGetActiveDstAddress
 317              		.section	.text.CyDmaSetInterruptVector,"ax",%progbits
 318              		.align	2
 319              		.global	CyDmaSetInterruptVector
 320              		.code	16
 321              		.thumb_func
 322              		.type	CyDmaSetInterruptVector, %function
 323              	CyDmaSetInterruptVector:
 324              	.LFB7:
 228:Generated_Source\PSoC4/CyDMA.c ****     (void)CyIntSetVector(CYDMA_INTR_NUMBER, interruptVector);
 325              		.loc 1 228 0
 326              		.cfi_startproc
 327              		@ args = 0, pretend = 0, frame = 0
 328              		@ frame_needed = 0, uses_anonymous_args = 0
 329              	.LVL11:
 330 0000 10B5     		push	{r4, lr}
 331              		.cfi_def_cfa_offset 8
 332              		.cfi_offset 4, -8
 333              		.cfi_offset 14, -4
 228:Generated_Source\PSoC4/CyDMA.c ****     (void)CyIntSetVector(CYDMA_INTR_NUMBER, interruptVector);
 334              		.loc 1 228 0
 335 0002 0100     		movs	r1, r0
 229:Generated_Source\PSoC4/CyDMA.c **** }
 336              		.loc 1 229 0
 337 0004 0D20     		movs	r0, #13
 338              	.LVL12:
 339 0006 FFF7FEFF 		bl	CyIntSetVector
 340              	.LVL13:
 230:Generated_Source\PSoC4/CyDMA.c **** 
 341              		.loc 1 230 0
 342              		@ sp needed
 343 000a 10BD     		pop	{r4, pc}
 344              		.cfi_endproc
 345              	.LFE7:
 346              		.size	CyDmaSetInterruptVector, .-CyDmaSetInterruptVector
 347              		.section	.text.CyDmaGetInterruptSource,"ax",%progbits
 348              		.align	2
 349              		.global	CyDmaGetInterruptSource
 350              		.code	16
 351              		.thumb_func
 352              		.type	CyDmaGetInterruptSource, %function
 353              	CyDmaGetInterruptSource:
 354              	.LFB8:
 248:Generated_Source\PSoC4/CyDMA.c ****     return (CYDMA_INTR_REG);
 355              		.loc 1 248 0
 356              		.cfi_startproc
 357              		@ args = 0, pretend = 0, frame = 0
 358              		@ frame_needed = 0, uses_anonymous_args = 0
 359              		@ link register save eliminated.
ARM GAS  C:\Users\ilya\AppData\Local\Temp\cchJq1OJ.s 			page 16


 249:Generated_Source\PSoC4/CyDMA.c **** }
 360              		.loc 1 249 0
 361 0000 014B     		ldr	r3, .L35
 250:Generated_Source\PSoC4/CyDMA.c **** 
 362              		.loc 1 250 0
 363              		@ sp needed
 249:Generated_Source\PSoC4/CyDMA.c **** }
 364              		.loc 1 249 0
 365 0002 1868     		ldr	r0, [r3]
 250:Generated_Source\PSoC4/CyDMA.c **** 
 366              		.loc 1 250 0
 367 0004 7047     		bx	lr
 368              	.L36:
 369 0006 C046     		.align	2
 370              	.L35:
 371 0008 F0171040 		.word	1074796528
 372              		.cfi_endproc
 373              	.LFE8:
 374              		.size	CyDmaGetInterruptSource, .-CyDmaGetInterruptSource
 375              		.section	.text.CyDmaClearInterruptSource,"ax",%progbits
 376              		.align	2
 377              		.global	CyDmaClearInterruptSource
 378              		.code	16
 379              		.thumb_func
 380              		.type	CyDmaClearInterruptSource, %function
 381              	CyDmaClearInterruptSource:
 382              	.LFB9:
 268:Generated_Source\PSoC4/CyDMA.c ****     CYDMA_INTR_REG = interruptMask;
 383              		.loc 1 268 0
 384              		.cfi_startproc
 385              		@ args = 0, pretend = 0, frame = 0
 386              		@ frame_needed = 0, uses_anonymous_args = 0
 387              		@ link register save eliminated.
 388              	.LVL14:
 269:Generated_Source\PSoC4/CyDMA.c **** }
 389              		.loc 1 269 0
 390 0000 014B     		ldr	r3, .L38
 270:Generated_Source\PSoC4/CyDMA.c **** 
 391              		.loc 1 270 0
 392              		@ sp needed
 269:Generated_Source\PSoC4/CyDMA.c **** }
 393              		.loc 1 269 0
 394 0002 1860     		str	r0, [r3]
 270:Generated_Source\PSoC4/CyDMA.c **** 
 395              		.loc 1 270 0
 396 0004 7047     		bx	lr
 397              	.L39:
 398 0006 C046     		.align	2
 399              	.L38:
 400 0008 F0171040 		.word	1074796528
 401              		.cfi_endproc
 402              	.LFE9:
 403              		.size	CyDmaClearInterruptSource, .-CyDmaClearInterruptSource
 404              		.section	.text.CyDmaSetInterruptSourceMask,"ax",%progbits
 405              		.align	2
 406              		.global	CyDmaSetInterruptSourceMask
 407              		.code	16
ARM GAS  C:\Users\ilya\AppData\Local\Temp\cchJq1OJ.s 			page 17


 408              		.thumb_func
 409              		.type	CyDmaSetInterruptSourceMask, %function
 410              	CyDmaSetInterruptSourceMask:
 411              	.LFB10:
 288:Generated_Source\PSoC4/CyDMA.c ****     CYDMA_INTR_MASK_REG = interruptMask;
 412              		.loc 1 288 0
 413              		.cfi_startproc
 414              		@ args = 0, pretend = 0, frame = 0
 415              		@ frame_needed = 0, uses_anonymous_args = 0
 416              		@ link register save eliminated.
 417              	.LVL15:
 289:Generated_Source\PSoC4/CyDMA.c **** }
 418              		.loc 1 289 0
 419 0000 014B     		ldr	r3, .L41
 290:Generated_Source\PSoC4/CyDMA.c **** 
 420              		.loc 1 290 0
 421              		@ sp needed
 289:Generated_Source\PSoC4/CyDMA.c **** }
 422              		.loc 1 289 0
 423 0002 1860     		str	r0, [r3]
 290:Generated_Source\PSoC4/CyDMA.c **** 
 424              		.loc 1 290 0
 425 0004 7047     		bx	lr
 426              	.L42:
 427 0006 C046     		.align	2
 428              	.L41:
 429 0008 F8171040 		.word	1074796536
 430              		.cfi_endproc
 431              	.LFE10:
 432              		.size	CyDmaSetInterruptSourceMask, .-CyDmaSetInterruptSourceMask
 433              		.section	.text.CyDmaGetInterruptSourceMask,"ax",%progbits
 434              		.align	2
 435              		.global	CyDmaGetInterruptSourceMask
 436              		.code	16
 437              		.thumb_func
 438              		.type	CyDmaGetInterruptSourceMask, %function
 439              	CyDmaGetInterruptSourceMask:
 440              	.LFB11:
 308:Generated_Source\PSoC4/CyDMA.c ****     return (CYDMA_INTR_MASK_REG);
 441              		.loc 1 308 0
 442              		.cfi_startproc
 443              		@ args = 0, pretend = 0, frame = 0
 444              		@ frame_needed = 0, uses_anonymous_args = 0
 445              		@ link register save eliminated.
 309:Generated_Source\PSoC4/CyDMA.c **** }
 446              		.loc 1 309 0
 447 0000 014B     		ldr	r3, .L44
 310:Generated_Source\PSoC4/CyDMA.c **** 
 448              		.loc 1 310 0
 449              		@ sp needed
 309:Generated_Source\PSoC4/CyDMA.c **** }
 450              		.loc 1 309 0
 451 0002 1868     		ldr	r0, [r3]
 310:Generated_Source\PSoC4/CyDMA.c **** 
 452              		.loc 1 310 0
 453 0004 7047     		bx	lr
 454              	.L45:
ARM GAS  C:\Users\ilya\AppData\Local\Temp\cchJq1OJ.s 			page 18


 455 0006 C046     		.align	2
 456              	.L44:
 457 0008 F8171040 		.word	1074796536
 458              		.cfi_endproc
 459              	.LFE11:
 460              		.size	CyDmaGetInterruptSourceMask, .-CyDmaGetInterruptSourceMask
 461              		.section	.text.CyDmaGetInterruptSourceMasked,"ax",%progbits
 462              		.align	2
 463              		.global	CyDmaGetInterruptSourceMasked
 464              		.code	16
 465              		.thumb_func
 466              		.type	CyDmaGetInterruptSourceMasked, %function
 467              	CyDmaGetInterruptSourceMasked:
 468              	.LFB12:
 328:Generated_Source\PSoC4/CyDMA.c ****     return (CYDMA_INTR_MASKED_REG);
 469              		.loc 1 328 0
 470              		.cfi_startproc
 471              		@ args = 0, pretend = 0, frame = 0
 472              		@ frame_needed = 0, uses_anonymous_args = 0
 473              		@ link register save eliminated.
 329:Generated_Source\PSoC4/CyDMA.c **** }
 474              		.loc 1 329 0
 475 0000 014B     		ldr	r3, .L47
 330:Generated_Source\PSoC4/CyDMA.c **** 
 476              		.loc 1 330 0
 477              		@ sp needed
 329:Generated_Source\PSoC4/CyDMA.c **** }
 478              		.loc 1 329 0
 479 0002 1868     		ldr	r0, [r3]
 330:Generated_Source\PSoC4/CyDMA.c **** 
 480              		.loc 1 330 0
 481 0004 7047     		bx	lr
 482              	.L48:
 483 0006 C046     		.align	2
 484              	.L47:
 485 0008 FC171040 		.word	1074796540
 486              		.cfi_endproc
 487              	.LFE12:
 488              		.size	CyDmaGetInterruptSourceMasked, .-CyDmaGetInterruptSourceMasked
 489              		.section	.text.CyDmaSetInterruptCallback,"ax",%progbits
 490              		.align	2
 491              		.global	CyDmaSetInterruptCallback
 492              		.code	16
 493              		.thumb_func
 494              		.type	CyDmaSetInterruptCallback, %function
 495              	CyDmaSetInterruptCallback:
 496              	.LFB13:
 351:Generated_Source\PSoC4/CyDMA.c ****     cydma_callback_t prevCallback;
 497              		.loc 1 351 0
 498              		.cfi_startproc
 499              		@ args = 0, pretend = 0, frame = 0
 500              		@ frame_needed = 0, uses_anonymous_args = 0
 501              	.LVL16:
 502 0000 70B5     		push	{r4, r5, r6, lr}
 503              		.cfi_def_cfa_offset 16
 504              		.cfi_offset 4, -16
 505              		.cfi_offset 5, -12
ARM GAS  C:\Users\ilya\AppData\Local\Temp\cchJq1OJ.s 			page 19


 506              		.cfi_offset 6, -8
 507              		.cfi_offset 14, -4
 351:Generated_Source\PSoC4/CyDMA.c ****     cydma_callback_t prevCallback;
 508              		.loc 1 351 0
 509 0002 0400     		movs	r4, r0
 510 0004 0D00     		movs	r5, r1
 354:Generated_Source\PSoC4/CyDMA.c **** 
 511              		.loc 1 354 0
 512 0006 0728     		cmp	r0, #7
 513 0008 02D9     		bls	.L50
 354:Generated_Source\PSoC4/CyDMA.c **** 
 514              		.loc 1 354 0 is_stmt 0 discriminator 1
 515 000a 0020     		movs	r0, #0
 516              	.LVL17:
 517 000c FFF7FEFF 		bl	CyHalt
 518              	.LVL18:
 519              	.L50:
 356:Generated_Source\PSoC4/CyDMA.c ****     CyDmaInterruptCallback[channel] = callback;
 520              		.loc 1 356 0 is_stmt 1
 521 0010 024B     		ldr	r3, .L51
 522 0012 A400     		lsls	r4, r4, #2
 523              	.LVL19:
 524 0014 E058     		ldr	r0, [r4, r3]
 525              	.LVL20:
 359:Generated_Source\PSoC4/CyDMA.c **** 
 526              		.loc 1 359 0
 527              		@ sp needed
 357:Generated_Source\PSoC4/CyDMA.c ****     return (prevCallback);
 528              		.loc 1 357 0
 529 0016 E550     		str	r5, [r4, r3]
 530              	.LVL21:
 359:Generated_Source\PSoC4/CyDMA.c **** 
 531              		.loc 1 359 0
 532 0018 70BD     		pop	{r4, r5, r6, pc}
 533              	.L52:
 534 001a C046     		.align	2
 535              	.L51:
 536 001c 00000000 		.word	.LANCHOR0
 537              		.cfi_endproc
 538              	.LFE13:
 539              		.size	CyDmaSetInterruptCallback, .-CyDmaSetInterruptCallback
 540              		.section	.text.CyDmaGetInterruptCallback,"ax",%progbits
 541              		.align	2
 542              		.global	CyDmaGetInterruptCallback
 543              		.code	16
 544              		.thumb_func
 545              		.type	CyDmaGetInterruptCallback, %function
 546              	CyDmaGetInterruptCallback:
 547              	.LFB14:
 378:Generated_Source\PSoC4/CyDMA.c ****     CYASSERT((channel >= 0) && (channel < CYDMA_CH_NR));
 548              		.loc 1 378 0
 549              		.cfi_startproc
 550              		@ args = 0, pretend = 0, frame = 0
 551              		@ frame_needed = 0, uses_anonymous_args = 0
 552              	.LVL22:
 553 0000 10B5     		push	{r4, lr}
 554              		.cfi_def_cfa_offset 8
ARM GAS  C:\Users\ilya\AppData\Local\Temp\cchJq1OJ.s 			page 20


 555              		.cfi_offset 4, -8
 556              		.cfi_offset 14, -4
 378:Generated_Source\PSoC4/CyDMA.c ****     CYASSERT((channel >= 0) && (channel < CYDMA_CH_NR));
 557              		.loc 1 378 0
 558 0002 0400     		movs	r4, r0
 379:Generated_Source\PSoC4/CyDMA.c ****     
 559              		.loc 1 379 0
 560 0004 0728     		cmp	r0, #7
 561 0006 02D9     		bls	.L54
 379:Generated_Source\PSoC4/CyDMA.c ****     
 562              		.loc 1 379 0 is_stmt 0 discriminator 1
 563 0008 0020     		movs	r0, #0
 564              	.LVL23:
 565 000a FFF7FEFF 		bl	CyHalt
 566              	.LVL24:
 567              	.L54:
 381:Generated_Source\PSoC4/CyDMA.c **** }
 568              		.loc 1 381 0 is_stmt 1
 569 000e 024B     		ldr	r3, .L55
 570 0010 A400     		lsls	r4, r4, #2
 571              	.LVL25:
 572 0012 E058     		ldr	r0, [r4, r3]
 382:Generated_Source\PSoC4/CyDMA.c **** 
 573              		.loc 1 382 0
 574              		@ sp needed
 575 0014 10BD     		pop	{r4, pc}
 576              	.L56:
 577 0016 C046     		.align	2
 578              	.L55:
 579 0018 00000000 		.word	.LANCHOR0
 580              		.cfi_endproc
 581              	.LFE14:
 582              		.size	CyDmaGetInterruptCallback, .-CyDmaGetInterruptCallback
 583              		.section	.text.CyDmaChAlloc,"ax",%progbits
 584              		.align	2
 585              		.global	CyDmaChAlloc
 586              		.code	16
 587              		.thumb_func
 588              		.type	CyDmaChAlloc, %function
 589              	CyDmaChAlloc:
 590              	.LFB17:
 455:Generated_Source\PSoC4/CyDMA.c **** 
 456:Generated_Source\PSoC4/CyDMA.c **** 
 457:Generated_Source\PSoC4/CyDMA.c **** /*******************************************************************************
 458:Generated_Source\PSoC4/CyDMA.c **** * Function Name: CyDmaChAlloc
 459:Generated_Source\PSoC4/CyDMA.c **** ********************************************************************************
 460:Generated_Source\PSoC4/CyDMA.c **** *
 461:Generated_Source\PSoC4/CyDMA.c **** * Summary:
 462:Generated_Source\PSoC4/CyDMA.c **** *  Allocates a channel number to use with later DMA functions.
 463:Generated_Source\PSoC4/CyDMA.c **** *
 464:Generated_Source\PSoC4/CyDMA.c **** * Parameters:
 465:Generated_Source\PSoC4/CyDMA.c **** *  None.
 466:Generated_Source\PSoC4/CyDMA.c **** *                   
 467:Generated_Source\PSoC4/CyDMA.c **** * Return:
 468:Generated_Source\PSoC4/CyDMA.c **** *  The allocated channel number. Zero is a valid channel number.
 469:Generated_Source\PSoC4/CyDMA.c **** *  CYDMA_INVALID_CHANNEL is returned if there are no channels available.
 470:Generated_Source\PSoC4/CyDMA.c **** *
ARM GAS  C:\Users\ilya\AppData\Local\Temp\cchJq1OJ.s 			page 21


 471:Generated_Source\PSoC4/CyDMA.c **** *******************************************************************************/
 472:Generated_Source\PSoC4/CyDMA.c **** int32 CyDmaChAlloc(void)
 473:Generated_Source\PSoC4/CyDMA.c **** {
 591              		.loc 1 473 0
 592              		.cfi_startproc
 593              		@ args = 0, pretend = 0, frame = 0
 594              		@ frame_needed = 0, uses_anonymous_args = 0
 595              		@ link register save eliminated.
 596              	.LVL26:
 597 0000 174A     		ldr	r2, .L69
 598 0002 5368     		ldr	r3, [r2, #4]
 474:Generated_Source\PSoC4/CyDMA.c ****     int32  channel = CYDMA_CH_NR-1;
 475:Generated_Source\PSoC4/CyDMA.c ****     uint32 channelMask = (uint32)(1UL << (CYDMA_CH_NR-1));
 476:Generated_Source\PSoC4/CyDMA.c ****     
 477:Generated_Source\PSoC4/CyDMA.c ****     while (channel >= 0)
 478:Generated_Source\PSoC4/CyDMA.c ****     {
 479:Generated_Source\PSoC4/CyDMA.c ****         if(0u == (CyDmaChannelUsedMask & channelMask))
 599              		.loc 1 479 0
 600 0004 1906     		lsls	r1, r3, #24
 601 0006 10D5     		bpl	.L60
 602              	.LVL27:
 603 0008 5906     		lsls	r1, r3, #25
 604 000a 13D5     		bpl	.L61
 605              	.LVL28:
 606 000c 9906     		lsls	r1, r3, #26
 607 000e 14D5     		bpl	.L62
 608              	.LVL29:
 609 0010 D906     		lsls	r1, r3, #27
 610 0012 15D5     		bpl	.L63
 611              	.LVL30:
 612 0014 1907     		lsls	r1, r3, #28
 613 0016 16D5     		bpl	.L64
 614              	.LVL31:
 615 0018 5907     		lsls	r1, r3, #29
 616 001a 17D5     		bpl	.L65
 617              	.LVL32:
 618 001c 9907     		lsls	r1, r3, #30
 619 001e 18D5     		bpl	.L66
 620              	.LVL33:
 621 0020 0120     		movs	r0, #1
 622 0022 4042     		rsbs	r0, r0, #0
 623 0024 D907     		lsls	r1, r3, #31
 624 0026 17D5     		bpl	.L68
 625              	.LVL34:
 626              	.L59:
 480:Generated_Source\PSoC4/CyDMA.c ****         {
 481:Generated_Source\PSoC4/CyDMA.c ****             /* Mark channel as used and exit loop. */ 
 482:Generated_Source\PSoC4/CyDMA.c ****             CyDmaChannelUsedMask |= channelMask;
 483:Generated_Source\PSoC4/CyDMA.c ****             break;
 484:Generated_Source\PSoC4/CyDMA.c ****         }
 485:Generated_Source\PSoC4/CyDMA.c ****         channelMask >>= 1;
 486:Generated_Source\PSoC4/CyDMA.c ****         --channel;
 487:Generated_Source\PSoC4/CyDMA.c ****     }
 488:Generated_Source\PSoC4/CyDMA.c ****     return (channel);
 489:Generated_Source\PSoC4/CyDMA.c **** }
 627              		.loc 1 489 0
 628              		@ sp needed
ARM GAS  C:\Users\ilya\AppData\Local\Temp\cchJq1OJ.s 			page 22


 629 0028 7047     		bx	lr
 630              	.LVL35:
 631              	.L60:
 475:Generated_Source\PSoC4/CyDMA.c ****     
 632              		.loc 1 475 0
 633 002a 8021     		movs	r1, #128
 474:Generated_Source\PSoC4/CyDMA.c ****     int32  channel = CYDMA_CH_NR-1;
 634              		.loc 1 474 0
 635 002c 0720     		movs	r0, #7
 636              	.LVL36:
 637              	.L58:
 482:Generated_Source\PSoC4/CyDMA.c ****             break;
 638              		.loc 1 482 0
 639 002e 0B43     		orrs	r3, r1
 640 0030 5360     		str	r3, [r2, #4]
 483:Generated_Source\PSoC4/CyDMA.c ****         }
 641              		.loc 1 483 0
 642 0032 F9E7     		b	.L59
 643              	.LVL37:
 644              	.L61:
 485:Generated_Source\PSoC4/CyDMA.c ****         --channel;
 645              		.loc 1 485 0
 646 0034 4021     		movs	r1, #64
 486:Generated_Source\PSoC4/CyDMA.c ****     }
 647              		.loc 1 486 0
 648 0036 0620     		movs	r0, #6
 649 0038 F9E7     		b	.L58
 650              	.LVL38:
 651              	.L62:
 485:Generated_Source\PSoC4/CyDMA.c ****         --channel;
 652              		.loc 1 485 0
 653 003a 2021     		movs	r1, #32
 486:Generated_Source\PSoC4/CyDMA.c ****     }
 654              		.loc 1 486 0
 655 003c 0520     		movs	r0, #5
 656 003e F6E7     		b	.L58
 657              	.LVL39:
 658              	.L63:
 485:Generated_Source\PSoC4/CyDMA.c ****         --channel;
 659              		.loc 1 485 0
 660 0040 1021     		movs	r1, #16
 486:Generated_Source\PSoC4/CyDMA.c ****     }
 661              		.loc 1 486 0
 662 0042 0420     		movs	r0, #4
 663 0044 F3E7     		b	.L58
 664              	.LVL40:
 665              	.L64:
 485:Generated_Source\PSoC4/CyDMA.c ****         --channel;
 666              		.loc 1 485 0
 667 0046 0821     		movs	r1, #8
 486:Generated_Source\PSoC4/CyDMA.c ****     }
 668              		.loc 1 486 0
 669 0048 0320     		movs	r0, #3
 670 004a F0E7     		b	.L58
 671              	.LVL41:
 672              	.L65:
 485:Generated_Source\PSoC4/CyDMA.c ****         --channel;
ARM GAS  C:\Users\ilya\AppData\Local\Temp\cchJq1OJ.s 			page 23


 673              		.loc 1 485 0
 674 004c 0421     		movs	r1, #4
 486:Generated_Source\PSoC4/CyDMA.c ****     }
 675              		.loc 1 486 0
 676 004e 0220     		movs	r0, #2
 677 0050 EDE7     		b	.L58
 678              	.LVL42:
 679              	.L66:
 485:Generated_Source\PSoC4/CyDMA.c ****         --channel;
 680              		.loc 1 485 0
 681 0052 0221     		movs	r1, #2
 486:Generated_Source\PSoC4/CyDMA.c ****     }
 682              		.loc 1 486 0
 683 0054 0120     		movs	r0, #1
 684 0056 EAE7     		b	.L58
 685              	.LVL43:
 686              	.L68:
 485:Generated_Source\PSoC4/CyDMA.c ****         --channel;
 687              		.loc 1 485 0
 688 0058 0121     		movs	r1, #1
 486:Generated_Source\PSoC4/CyDMA.c ****     }
 689              		.loc 1 486 0
 690 005a 0020     		movs	r0, #0
 691 005c E7E7     		b	.L58
 692              	.L70:
 693 005e C046     		.align	2
 694              	.L69:
 695 0060 00000000 		.word	.LANCHOR1
 696              		.cfi_endproc
 697              	.LFE17:
 698              		.size	CyDmaChAlloc, .-CyDmaChAlloc
 699              		.section	.text.CyDmaChFree,"ax",%progbits
 700              		.align	2
 701              		.global	CyDmaChFree
 702              		.code	16
 703              		.thumb_func
 704              		.type	CyDmaChFree, %function
 705              	CyDmaChFree:
 706              	.LFB18:
 490:Generated_Source\PSoC4/CyDMA.c **** 
 491:Generated_Source\PSoC4/CyDMA.c **** 
 492:Generated_Source\PSoC4/CyDMA.c **** /*******************************************************************************
 493:Generated_Source\PSoC4/CyDMA.c **** * Function Name: CyDmaChFree
 494:Generated_Source\PSoC4/CyDMA.c **** ********************************************************************************
 495:Generated_Source\PSoC4/CyDMA.c **** *
 496:Generated_Source\PSoC4/CyDMA.c **** * Summary:
 497:Generated_Source\PSoC4/CyDMA.c **** *  Frees a channel handle allocated by CyDmaChAlloc(). Channels allocated for
 498:Generated_Source\PSoC4/CyDMA.c **** *  DMA instances placed on a schematic cannot be freed.
 499:Generated_Source\PSoC4/CyDMA.c **** *
 500:Generated_Source\PSoC4/CyDMA.c **** * Parameters:
 501:Generated_Source\PSoC4/CyDMA.c **** *  channel: The handle previously returned by CyDmaChAlloc().
 502:Generated_Source\PSoC4/CyDMA.c **** *                   
 503:Generated_Source\PSoC4/CyDMA.c **** * Return:
 504:Generated_Source\PSoC4/CyDMA.c **** *  CYRET_SUCCESS if successful.
 505:Generated_Source\PSoC4/CyDMA.c **** *  CYRET_BAD_PARAM if channel is invalid.
 506:Generated_Source\PSoC4/CyDMA.c **** *
 507:Generated_Source\PSoC4/CyDMA.c **** *******************************************************************************/
ARM GAS  C:\Users\ilya\AppData\Local\Temp\cchJq1OJ.s 			page 24


 508:Generated_Source\PSoC4/CyDMA.c **** cystatus CyDmaChFree(int32 channel)
 509:Generated_Source\PSoC4/CyDMA.c **** {
 707              		.loc 1 509 0
 708              		.cfi_startproc
 709              		@ args = 0, pretend = 0, frame = 0
 710              		@ frame_needed = 0, uses_anonymous_args = 0
 711              	.LVL44:
 712 0000 10B5     		push	{r4, lr}
 713              		.cfi_def_cfa_offset 8
 714              		.cfi_offset 4, -8
 715              		.cfi_offset 14, -4
 716              		.loc 1 509 0
 717 0002 0400     		movs	r4, r0
 510:Generated_Source\PSoC4/CyDMA.c ****     uint32   channelMask;
 511:Generated_Source\PSoC4/CyDMA.c ****     cystatus result = CYRET_BAD_PARAM;
 512:Generated_Source\PSoC4/CyDMA.c **** 
 513:Generated_Source\PSoC4/CyDMA.c ****     CYASSERT((channel >= 0) && (channel < CYDMA_CH_NR));
 718              		.loc 1 513 0
 719 0004 0728     		cmp	r0, #7
 720 0006 02D9     		bls	.L72
 721              		.loc 1 513 0 is_stmt 0 discriminator 1
 722 0008 0020     		movs	r0, #0
 723              	.LVL45:
 724 000a FFF7FEFF 		bl	CyHalt
 725              	.LVL46:
 726              	.L72:
 514:Generated_Source\PSoC4/CyDMA.c ****     
 515:Generated_Source\PSoC4/CyDMA.c ****     channelMask = (uint32)(1UL << channel);
 516:Generated_Source\PSoC4/CyDMA.c **** 
 517:Generated_Source\PSoC4/CyDMA.c ****     /* Check against attempt to free channel allocated for DMA instance
 518:Generated_Source\PSoC4/CyDMA.c ****     * placed on schematic.
 519:Generated_Source\PSoC4/CyDMA.c ****     */
 520:Generated_Source\PSoC4/CyDMA.c ****     if(0u == (channelMask & DMA_CHANNELS_USED__MASK))
 521:Generated_Source\PSoC4/CyDMA.c ****     {
 522:Generated_Source\PSoC4/CyDMA.c ****         CyDmaChannelUsedMask &= (uint32)~channelMask;
 727              		.loc 1 522 0 is_stmt 1
 728 000e 0123     		movs	r3, #1
 729 0010 A340     		lsls	r3, r3, r4
 730              	.LVL47:
 731 0012 034A     		ldr	r2, .L73
 523:Generated_Source\PSoC4/CyDMA.c ****         result = CYRET_SUCCESS;
 524:Generated_Source\PSoC4/CyDMA.c ****     }
 525:Generated_Source\PSoC4/CyDMA.c ****     
 526:Generated_Source\PSoC4/CyDMA.c ****     return (result);
 527:Generated_Source\PSoC4/CyDMA.c **** }
 732              		.loc 1 527 0
 733 0014 0020     		movs	r0, #0
 522:Generated_Source\PSoC4/CyDMA.c ****         result = CYRET_SUCCESS;
 734              		.loc 1 522 0
 735 0016 5168     		ldr	r1, [r2, #4]
 736              		.loc 1 527 0
 737              		@ sp needed
 522:Generated_Source\PSoC4/CyDMA.c ****         result = CYRET_SUCCESS;
 738              		.loc 1 522 0
 739 0018 9943     		bics	r1, r3
 740 001a 5160     		str	r1, [r2, #4]
 741              	.LVL48:
ARM GAS  C:\Users\ilya\AppData\Local\Temp\cchJq1OJ.s 			page 25


 742              	.LVL49:
 743              		.loc 1 527 0
 744 001c 10BD     		pop	{r4, pc}
 745              	.L74:
 746 001e C046     		.align	2
 747              	.L73:
 748 0020 00000000 		.word	.LANCHOR1
 749              		.cfi_endproc
 750              	.LFE18:
 751              		.size	CyDmaChFree, .-CyDmaChFree
 752              		.section	.text.CyDmaChEnable,"ax",%progbits
 753              		.align	2
 754              		.global	CyDmaChEnable
 755              		.code	16
 756              		.thumb_func
 757              		.type	CyDmaChEnable, %function
 758              	CyDmaChEnable:
 759              	.LFB19:
 528:Generated_Source\PSoC4/CyDMA.c **** 
 529:Generated_Source\PSoC4/CyDMA.c **** 
 530:Generated_Source\PSoC4/CyDMA.c **** /*******************************************************************************
 531:Generated_Source\PSoC4/CyDMA.c **** * Function Name: CyDmaChEnable
 532:Generated_Source\PSoC4/CyDMA.c **** ********************************************************************************
 533:Generated_Source\PSoC4/CyDMA.c **** *
 534:Generated_Source\PSoC4/CyDMA.c **** * Summary:
 535:Generated_Source\PSoC4/CyDMA.c **** *  Enables the DMA channel.
 536:Generated_Source\PSoC4/CyDMA.c **** *
 537:Generated_Source\PSoC4/CyDMA.c **** * Parameters:
 538:Generated_Source\PSoC4/CyDMA.c **** *  channel: Channel used by this function.
 539:Generated_Source\PSoC4/CyDMA.c **** *                   
 540:Generated_Source\PSoC4/CyDMA.c **** * Return:
 541:Generated_Source\PSoC4/CyDMA.c **** *  None.
 542:Generated_Source\PSoC4/CyDMA.c **** *
 543:Generated_Source\PSoC4/CyDMA.c **** * Side effect:
 544:Generated_Source\PSoC4/CyDMA.c **** *  If this function is called before CyDmaSetConfiguration(), and
 545:Generated_Source\PSoC4/CyDMA.c **** *  CyDmaSetSrcAddress() and CyDmaSetDstAddress(), the operation of
 546:Generated_Source\PSoC4/CyDMA.c **** *  the DMA is undefined and could result in system data corruption. 
 547:Generated_Source\PSoC4/CyDMA.c **** *
 548:Generated_Source\PSoC4/CyDMA.c **** *******************************************************************************/
 549:Generated_Source\PSoC4/CyDMA.c **** void CyDmaChEnable(int32 channel)
 550:Generated_Source\PSoC4/CyDMA.c **** {
 760              		.loc 1 550 0
 761              		.cfi_startproc
 762              		@ args = 0, pretend = 0, frame = 0
 763              		@ frame_needed = 0, uses_anonymous_args = 0
 764              	.LVL50:
 765 0000 10B5     		push	{r4, lr}
 766              		.cfi_def_cfa_offset 8
 767              		.cfi_offset 4, -8
 768              		.cfi_offset 14, -4
 769              		.loc 1 550 0
 770 0002 0400     		movs	r4, r0
 551:Generated_Source\PSoC4/CyDMA.c ****     CYASSERT((channel >= 0) && (channel < CYDMA_CH_NR));
 771              		.loc 1 551 0
 772 0004 0728     		cmp	r0, #7
 773 0006 02D9     		bls	.L76
 774              		.loc 1 551 0 is_stmt 0 discriminator 1
ARM GAS  C:\Users\ilya\AppData\Local\Temp\cchJq1OJ.s 			page 26


 775 0008 0020     		movs	r0, #0
 776              	.LVL51:
 777 000a FFF7FEFF 		bl	CyHalt
 778              	.LVL52:
 779              	.L76:
 780 000e 054B     		ldr	r3, .L77
 552:Generated_Source\PSoC4/CyDMA.c **** 
 553:Generated_Source\PSoC4/CyDMA.c ****     CYDMA_CH_CTL_BASE.ctl[channel] |= CYDMA_ENABLED;
 781              		.loc 1 553 0 is_stmt 1
 782 0010 8022     		movs	r2, #128
 783 0012 9C46     		mov	ip, r3
 784 0014 A400     		lsls	r4, r4, #2
 785              	.LVL53:
 786 0016 6444     		add	r4, r4, ip
 787 0018 2368     		ldr	r3, [r4]
 788 001a 1206     		lsls	r2, r2, #24
 789 001c 1343     		orrs	r3, r2
 790 001e 2360     		str	r3, [r4]
 554:Generated_Source\PSoC4/CyDMA.c **** }
 791              		.loc 1 554 0
 792              		@ sp needed
 793 0020 10BD     		pop	{r4, pc}
 794              	.L78:
 795 0022 C046     		.align	2
 796              	.L77:
 797 0024 80101040 		.word	1074794624
 798              		.cfi_endproc
 799              	.LFE19:
 800              		.size	CyDmaChEnable, .-CyDmaChEnable
 801              		.section	.text.CyDmaChDisable,"ax",%progbits
 802              		.align	2
 803              		.global	CyDmaChDisable
 804              		.code	16
 805              		.thumb_func
 806              		.type	CyDmaChDisable, %function
 807              	CyDmaChDisable:
 808              	.LFB20:
 555:Generated_Source\PSoC4/CyDMA.c **** 
 556:Generated_Source\PSoC4/CyDMA.c **** 
 557:Generated_Source\PSoC4/CyDMA.c **** /*******************************************************************************
 558:Generated_Source\PSoC4/CyDMA.c **** * Function Name: CyDmaChDisable
 559:Generated_Source\PSoC4/CyDMA.c **** ********************************************************************************
 560:Generated_Source\PSoC4/CyDMA.c **** *
 561:Generated_Source\PSoC4/CyDMA.c **** * Summary:
 562:Generated_Source\PSoC4/CyDMA.c **** *  Disables the DMA channel.
 563:Generated_Source\PSoC4/CyDMA.c **** *
 564:Generated_Source\PSoC4/CyDMA.c **** * Parameters:
 565:Generated_Source\PSoC4/CyDMA.c **** *  channel: Channel used by this function.
 566:Generated_Source\PSoC4/CyDMA.c **** *                   
 567:Generated_Source\PSoC4/CyDMA.c **** * Return:
 568:Generated_Source\PSoC4/CyDMA.c **** *  None.
 569:Generated_Source\PSoC4/CyDMA.c **** *
 570:Generated_Source\PSoC4/CyDMA.c **** * Side effect:
 571:Generated_Source\PSoC4/CyDMA.c **** *  If this function is called during a DMA transfer the transfer is aborted. 
 572:Generated_Source\PSoC4/CyDMA.c **** *
 573:Generated_Source\PSoC4/CyDMA.c **** *******************************************************************************/
 574:Generated_Source\PSoC4/CyDMA.c **** void CyDmaChDisable(int32 channel)
ARM GAS  C:\Users\ilya\AppData\Local\Temp\cchJq1OJ.s 			page 27


 575:Generated_Source\PSoC4/CyDMA.c **** {
 809              		.loc 1 575 0
 810              		.cfi_startproc
 811              		@ args = 0, pretend = 0, frame = 0
 812              		@ frame_needed = 0, uses_anonymous_args = 0
 813              	.LVL54:
 814 0000 10B5     		push	{r4, lr}
 815              		.cfi_def_cfa_offset 8
 816              		.cfi_offset 4, -8
 817              		.cfi_offset 14, -4
 818              		.loc 1 575 0
 819 0002 0400     		movs	r4, r0
 576:Generated_Source\PSoC4/CyDMA.c ****     CYASSERT((channel >= 0) && (channel < CYDMA_CH_NR));
 820              		.loc 1 576 0
 821 0004 0728     		cmp	r0, #7
 822 0006 02D9     		bls	.L80
 823              		.loc 1 576 0 is_stmt 0 discriminator 1
 824 0008 0020     		movs	r0, #0
 825              	.LVL55:
 826 000a FFF7FEFF 		bl	CyHalt
 827              	.LVL56:
 828              	.L80:
 829 000e 044B     		ldr	r3, .L81
 830 0010 A400     		lsls	r4, r4, #2
 831              	.LVL57:
 832 0012 9C46     		mov	ip, r3
 833 0014 6444     		add	r4, r4, ip
 577:Generated_Source\PSoC4/CyDMA.c **** 
 578:Generated_Source\PSoC4/CyDMA.c ****     CYDMA_CH_CTL_BASE.ctl[channel] &= (uint32)~CYDMA_ENABLED;
 834              		.loc 1 578 0 is_stmt 1
 835 0016 2368     		ldr	r3, [r4]
 579:Generated_Source\PSoC4/CyDMA.c **** }
 836              		.loc 1 579 0
 837              		@ sp needed
 578:Generated_Source\PSoC4/CyDMA.c **** }
 838              		.loc 1 578 0
 839 0018 5B00     		lsls	r3, r3, #1
 840 001a 5B08     		lsrs	r3, r3, #1
 841 001c 2360     		str	r3, [r4]
 842              		.loc 1 579 0
 843 001e 10BD     		pop	{r4, pc}
 844              	.L82:
 845              		.align	2
 846              	.L81:
 847 0020 80101040 		.word	1074794624
 848              		.cfi_endproc
 849              	.LFE20:
 850              		.size	CyDmaChDisable, .-CyDmaChDisable
 851              		.section	.text.CyDmaTrigger,"ax",%progbits
 852              		.align	2
 853              		.global	CyDmaTrigger
 854              		.code	16
 855              		.thumb_func
 856              		.type	CyDmaTrigger, %function
 857              	CyDmaTrigger:
 858              	.LFB21:
 580:Generated_Source\PSoC4/CyDMA.c **** 
ARM GAS  C:\Users\ilya\AppData\Local\Temp\cchJq1OJ.s 			page 28


 581:Generated_Source\PSoC4/CyDMA.c **** 
 582:Generated_Source\PSoC4/CyDMA.c **** /*******************************************************************************
 583:Generated_Source\PSoC4/CyDMA.c **** * Function Name: CyDmaTrigger
 584:Generated_Source\PSoC4/CyDMA.c **** ********************************************************************************
 585:Generated_Source\PSoC4/CyDMA.c **** *
 586:Generated_Source\PSoC4/CyDMA.c **** * Summary:
 587:Generated_Source\PSoC4/CyDMA.c **** *  Triggers the DMA channel, this is useful only for software triggers. This is
 588:Generated_Source\PSoC4/CyDMA.c **** *  not needed when hardware triggers are used.
 589:Generated_Source\PSoC4/CyDMA.c **** *
 590:Generated_Source\PSoC4/CyDMA.c **** * Parameters:
 591:Generated_Source\PSoC4/CyDMA.c **** *  channel: Channel used by this function.
 592:Generated_Source\PSoC4/CyDMA.c **** *                   
 593:Generated_Source\PSoC4/CyDMA.c **** * Return:
 594:Generated_Source\PSoC4/CyDMA.c **** *  None. 
 595:Generated_Source\PSoC4/CyDMA.c **** *
 596:Generated_Source\PSoC4/CyDMA.c **** *******************************************************************************/
 597:Generated_Source\PSoC4/CyDMA.c **** void CyDmaTrigger(int32 channel)
 598:Generated_Source\PSoC4/CyDMA.c **** {
 859              		.loc 1 598 0
 860              		.cfi_startproc
 861              		@ args = 0, pretend = 0, frame = 0
 862              		@ frame_needed = 0, uses_anonymous_args = 0
 863              	.LVL58:
 864 0000 10B5     		push	{r4, lr}
 865              		.cfi_def_cfa_offset 8
 866              		.cfi_offset 4, -8
 867              		.cfi_offset 14, -4
 868              		.loc 1 598 0
 869 0002 0400     		movs	r4, r0
 599:Generated_Source\PSoC4/CyDMA.c ****     /* The LUT is device-dependent, thus it is generated during the build process. */
 600:Generated_Source\PSoC4/CyDMA.c ****     static const uint32 trCtlLut[] = {0xC0020000U};
 601:Generated_Source\PSoC4/CyDMA.c **** 
 602:Generated_Source\PSoC4/CyDMA.c ****     CYASSERT((channel >= 0) && (channel < CYDMA_CH_NR));
 870              		.loc 1 602 0
 871 0004 0728     		cmp	r0, #7
 872 0006 02D9     		bls	.L84
 873              		.loc 1 602 0 is_stmt 0 discriminator 1
 874 0008 0020     		movs	r0, #0
 875              	.LVL59:
 876 000a FFF7FEFF 		bl	CyHalt
 877              	.LVL60:
 878              	.L84:
 603:Generated_Source\PSoC4/CyDMA.c **** 
 604:Generated_Source\PSoC4/CyDMA.c ****     CYDMA_TR_CTL_REG = trCtlLut[(uint32)channel >> CYDMA_TR_GROUP_SHR] | ((uint32)channel & CYDMA_T
 879              		.loc 1 604 0 is_stmt 1
 880 000e 0723     		movs	r3, #7
 881 0010 1C40     		ands	r4, r3
 882              	.LVL61:
 883 0012 024B     		ldr	r3, .L85
 605:Generated_Source\PSoC4/CyDMA.c **** }
 884              		.loc 1 605 0
 885              		@ sp needed
 604:Generated_Source\PSoC4/CyDMA.c **** }
 886              		.loc 1 604 0
 887 0014 1C43     		orrs	r4, r3
 888 0016 024B     		ldr	r3, .L85+4
 889 0018 1C60     		str	r4, [r3]
ARM GAS  C:\Users\ilya\AppData\Local\Temp\cchJq1OJ.s 			page 29


 890              		.loc 1 605 0
 891 001a 10BD     		pop	{r4, pc}
 892              	.L86:
 893              		.align	2
 894              	.L85:
 895 001c 000002C0 		.word	-1073610752
 896 0020 00060140 		.word	1073808896
 897              		.cfi_endproc
 898              	.LFE21:
 899              		.size	CyDmaTrigger, .-CyDmaTrigger
 900              		.section	.text.CyDmaSetPriority,"ax",%progbits
 901              		.align	2
 902              		.global	CyDmaSetPriority
 903              		.code	16
 904              		.thumb_func
 905              		.type	CyDmaSetPriority, %function
 906              	CyDmaSetPriority:
 907              	.LFB22:
 606:Generated_Source\PSoC4/CyDMA.c **** 
 607:Generated_Source\PSoC4/CyDMA.c **** 
 608:Generated_Source\PSoC4/CyDMA.c **** /*******************************************************************************
 609:Generated_Source\PSoC4/CyDMA.c **** * Function Name: CyDmaSetPriority
 610:Generated_Source\PSoC4/CyDMA.c **** ********************************************************************************
 611:Generated_Source\PSoC4/CyDMA.c **** *
 612:Generated_Source\PSoC4/CyDMA.c **** * Summary:
 613:Generated_Source\PSoC4/CyDMA.c **** *  Sets the priority for the channel.
 614:Generated_Source\PSoC4/CyDMA.c **** *
 615:Generated_Source\PSoC4/CyDMA.c **** * Parameters:
 616:Generated_Source\PSoC4/CyDMA.c **** *  channel:  Channel used by this function
 617:Generated_Source\PSoC4/CyDMA.c **** *  priority: Priority for channel. Priority can be 0,1,2, or 3.
 618:Generated_Source\PSoC4/CyDMA.c **** *            0 is the highest priority.
 619:Generated_Source\PSoC4/CyDMA.c **** *                   
 620:Generated_Source\PSoC4/CyDMA.c **** * Return:
 621:Generated_Source\PSoC4/CyDMA.c **** *  None.
 622:Generated_Source\PSoC4/CyDMA.c **** *
 623:Generated_Source\PSoC4/CyDMA.c **** * Side effect:
 624:Generated_Source\PSoC4/CyDMA.c **** *  This function should not be called while the channel is enabled.
 625:Generated_Source\PSoC4/CyDMA.c **** *
 626:Generated_Source\PSoC4/CyDMA.c **** *******************************************************************************/
 627:Generated_Source\PSoC4/CyDMA.c **** void CyDmaSetPriority(int32 channel, int32 priority)
 628:Generated_Source\PSoC4/CyDMA.c **** {
 908              		.loc 1 628 0
 909              		.cfi_startproc
 910              		@ args = 0, pretend = 0, frame = 0
 911              		@ frame_needed = 0, uses_anonymous_args = 0
 912              	.LVL62:
 913 0000 70B5     		push	{r4, r5, r6, lr}
 914              		.cfi_def_cfa_offset 16
 915              		.cfi_offset 4, -16
 916              		.cfi_offset 5, -12
 917              		.cfi_offset 6, -8
 918              		.cfi_offset 14, -4
 919              		.loc 1 628 0
 920 0002 0400     		movs	r4, r0
 921 0004 0D00     		movs	r5, r1
 629:Generated_Source\PSoC4/CyDMA.c ****     uint32 regValue;
 630:Generated_Source\PSoC4/CyDMA.c **** 
ARM GAS  C:\Users\ilya\AppData\Local\Temp\cchJq1OJ.s 			page 30


 631:Generated_Source\PSoC4/CyDMA.c ****     CYASSERT((channel  >= 0) && (channel  <  CYDMA_CH_NR));
 922              		.loc 1 631 0
 923 0006 0728     		cmp	r0, #7
 924 0008 0FD8     		bhi	.L90
 925              	.LVL63:
 926              	.L88:
 632:Generated_Source\PSoC4/CyDMA.c ****     CYASSERT((priority >= 0) && (priority <= CY_DMA_MAX_PRIO));
 927              		.loc 1 632 0
 928 000a 032D     		cmp	r5, #3
 929 000c 02D9     		bls	.L89
 930              		.loc 1 632 0 is_stmt 0 discriminator 1
 931 000e 0020     		movs	r0, #0
 932 0010 FFF7FEFF 		bl	CyHalt
 933              	.LVL64:
 934              	.L89:
 935 0014 074B     		ldr	r3, .L91
 936 0016 A400     		lsls	r4, r4, #2
 937              	.LVL65:
 938 0018 9C46     		mov	ip, r3
 939 001a 6444     		add	r4, r4, ip
 633:Generated_Source\PSoC4/CyDMA.c **** 
 634:Generated_Source\PSoC4/CyDMA.c ****     regValue = CYDMA_CH_CTL_BASE.ctl[channel] & (uint32)~CYDMA_PRIO;
 940              		.loc 1 634 0 is_stmt 1
 941 001c 2268     		ldr	r2, [r4]
 942              	.LVL66:
 635:Generated_Source\PSoC4/CyDMA.c ****     CYDMA_CH_CTL_BASE.ctl[channel] = regValue | (uint32)((uint32)priority << CYDMA_PRIO_POS);
 943              		.loc 1 635 0
 944 001e 064B     		ldr	r3, .L91+4
 945 0020 2D07     		lsls	r5, r5, #28
 946              	.LVL67:
 947 0022 1340     		ands	r3, r2
 948              	.LVL68:
 949 0024 1D43     		orrs	r5, r3
 950 0026 2560     		str	r5, [r4]
 636:Generated_Source\PSoC4/CyDMA.c **** }
 951              		.loc 1 636 0
 952              		@ sp needed
 953 0028 70BD     		pop	{r4, r5, r6, pc}
 954              	.LVL69:
 955              	.L90:
 631:Generated_Source\PSoC4/CyDMA.c ****     CYASSERT((priority >= 0) && (priority <= CY_DMA_MAX_PRIO));
 956              		.loc 1 631 0 discriminator 1
 957 002a 0020     		movs	r0, #0
 958              	.LVL70:
 959 002c FFF7FEFF 		bl	CyHalt
 960              	.LVL71:
 961 0030 EBE7     		b	.L88
 962              	.L92:
 963 0032 C046     		.align	2
 964              	.L91:
 965 0034 80101040 		.word	1074794624
 966 0038 FFFFFFCF 		.word	-805306369
 967              		.cfi_endproc
 968              	.LFE22:
 969              		.size	CyDmaSetPriority, .-CyDmaSetPriority
 970              		.section	.text.CyDmaGetPriority,"ax",%progbits
 971              		.align	2
ARM GAS  C:\Users\ilya\AppData\Local\Temp\cchJq1OJ.s 			page 31


 972              		.global	CyDmaGetPriority
 973              		.code	16
 974              		.thumb_func
 975              		.type	CyDmaGetPriority, %function
 976              	CyDmaGetPriority:
 977              	.LFB23:
 637:Generated_Source\PSoC4/CyDMA.c **** 
 638:Generated_Source\PSoC4/CyDMA.c **** 
 639:Generated_Source\PSoC4/CyDMA.c **** /*******************************************************************************
 640:Generated_Source\PSoC4/CyDMA.c **** * Function Name: CyDmaGetPriority
 641:Generated_Source\PSoC4/CyDMA.c **** ********************************************************************************
 642:Generated_Source\PSoC4/CyDMA.c **** *
 643:Generated_Source\PSoC4/CyDMA.c **** * Summary:
 644:Generated_Source\PSoC4/CyDMA.c **** *  Gets the priority for the channel.
 645:Generated_Source\PSoC4/CyDMA.c **** *
 646:Generated_Source\PSoC4/CyDMA.c **** * Parameters:
 647:Generated_Source\PSoC4/CyDMA.c **** *  channel: Channel used by this function.
 648:Generated_Source\PSoC4/CyDMA.c **** *                   
 649:Generated_Source\PSoC4/CyDMA.c **** * Return:
 650:Generated_Source\PSoC4/CyDMA.c **** *  Priority for channel. Priority can be 0,1,2, or 3. 0 is the highest priority.
 651:Generated_Source\PSoC4/CyDMA.c **** *
 652:Generated_Source\PSoC4/CyDMA.c **** *******************************************************************************/
 653:Generated_Source\PSoC4/CyDMA.c **** int32 CyDmaGetPriority(int32 channel)
 654:Generated_Source\PSoC4/CyDMA.c **** {
 978              		.loc 1 654 0
 979              		.cfi_startproc
 980              		@ args = 0, pretend = 0, frame = 0
 981              		@ frame_needed = 0, uses_anonymous_args = 0
 982              	.LVL72:
 983 0000 10B5     		push	{r4, lr}
 984              		.cfi_def_cfa_offset 8
 985              		.cfi_offset 4, -8
 986              		.cfi_offset 14, -4
 987              		.loc 1 654 0
 988 0002 0400     		movs	r4, r0
 655:Generated_Source\PSoC4/CyDMA.c ****     uint32 priority;
 656:Generated_Source\PSoC4/CyDMA.c **** 
 657:Generated_Source\PSoC4/CyDMA.c ****     CYASSERT((channel >= 0) && (channel < CYDMA_CH_NR));
 989              		.loc 1 657 0
 990 0004 0728     		cmp	r0, #7
 991 0006 02D9     		bls	.L94
 992              		.loc 1 657 0 is_stmt 0 discriminator 1
 993 0008 0020     		movs	r0, #0
 994              	.LVL73:
 995 000a FFF7FEFF 		bl	CyHalt
 996              	.LVL74:
 997              	.L94:
 658:Generated_Source\PSoC4/CyDMA.c **** 
 659:Generated_Source\PSoC4/CyDMA.c ****     priority = (CYDMA_CH_CTL_BASE.ctl[channel] & CYDMA_PRIO) >> CYDMA_PRIO_POS;
 998              		.loc 1 659 0 is_stmt 1
 999 000e 034B     		ldr	r3, .L95
 1000 0010 A400     		lsls	r4, r4, #2
 1001              	.LVL75:
 1002 0012 E058     		ldr	r0, [r4, r3]
 1003              	.LVL76:
 660:Generated_Source\PSoC4/CyDMA.c ****     return ((int32)priority);
 661:Generated_Source\PSoC4/CyDMA.c **** }
ARM GAS  C:\Users\ilya\AppData\Local\Temp\cchJq1OJ.s 			page 32


 1004              		.loc 1 661 0
 1005              		@ sp needed
 660:Generated_Source\PSoC4/CyDMA.c ****     return ((int32)priority);
 1006              		.loc 1 660 0
 1007 0014 8000     		lsls	r0, r0, #2
 1008              	.LVL77:
 1009 0016 800F     		lsrs	r0, r0, #30
 1010              		.loc 1 661 0
 1011 0018 10BD     		pop	{r4, pc}
 1012              	.L96:
 1013 001a C046     		.align	2
 1014              	.L95:
 1015 001c 80101040 		.word	1074794624
 1016              		.cfi_endproc
 1017              	.LFE23:
 1018              		.size	CyDmaGetPriority, .-CyDmaGetPriority
 1019              		.section	.text.CyDmaSetNextDescriptor,"ax",%progbits
 1020              		.align	2
 1021              		.global	CyDmaSetNextDescriptor
 1022              		.code	16
 1023              		.thumb_func
 1024              		.type	CyDmaSetNextDescriptor, %function
 1025              	CyDmaSetNextDescriptor:
 1026              	.LFB24:
 662:Generated_Source\PSoC4/CyDMA.c **** 
 663:Generated_Source\PSoC4/CyDMA.c **** 
 664:Generated_Source\PSoC4/CyDMA.c **** /*******************************************************************************
 665:Generated_Source\PSoC4/CyDMA.c **** * Function Name: CyDmaSetNextDescriptor
 666:Generated_Source\PSoC4/CyDMA.c **** ********************************************************************************
 667:Generated_Source\PSoC4/CyDMA.c **** *
 668:Generated_Source\PSoC4/CyDMA.c **** * Summary:
 669:Generated_Source\PSoC4/CyDMA.c **** *  Sets the descriptor that should be run the next time the channel is
 670:Generated_Source\PSoC4/CyDMA.c **** *  triggered.
 671:Generated_Source\PSoC4/CyDMA.c **** *
 672:Generated_Source\PSoC4/CyDMA.c **** * Parameters:
 673:Generated_Source\PSoC4/CyDMA.c **** *  channel:    Channel used by this function.
 674:Generated_Source\PSoC4/CyDMA.c **** *  descriptor: Next Descriptor to run (0 or 1).
 675:Generated_Source\PSoC4/CyDMA.c **** *
 676:Generated_Source\PSoC4/CyDMA.c **** * Return:
 677:Generated_Source\PSoC4/CyDMA.c **** *  None.
 678:Generated_Source\PSoC4/CyDMA.c **** *                   
 679:Generated_Source\PSoC4/CyDMA.c **** * Side effect:
 680:Generated_Source\PSoC4/CyDMA.c **** *  This function should not be called while the channel is enabled.
 681:Generated_Source\PSoC4/CyDMA.c **** *
 682:Generated_Source\PSoC4/CyDMA.c **** *******************************************************************************/
 683:Generated_Source\PSoC4/CyDMA.c **** void CyDmaSetNextDescriptor(int32 channel, int32 descriptor)
 684:Generated_Source\PSoC4/CyDMA.c **** {
 1027              		.loc 1 684 0
 1028              		.cfi_startproc
 1029              		@ args = 0, pretend = 0, frame = 0
 1030              		@ frame_needed = 0, uses_anonymous_args = 0
 1031              	.LVL78:
 1032 0000 70B5     		push	{r4, r5, r6, lr}
 1033              		.cfi_def_cfa_offset 16
 1034              		.cfi_offset 4, -16
 1035              		.cfi_offset 5, -12
 1036              		.cfi_offset 6, -8
ARM GAS  C:\Users\ilya\AppData\Local\Temp\cchJq1OJ.s 			page 33


 1037              		.cfi_offset 14, -4
 1038              		.loc 1 684 0
 1039 0002 0400     		movs	r4, r0
 1040 0004 0D00     		movs	r5, r1
 685:Generated_Source\PSoC4/CyDMA.c ****     uint32 regValue;
 686:Generated_Source\PSoC4/CyDMA.c **** 
 687:Generated_Source\PSoC4/CyDMA.c ****     CYASSERT((channel    >= 0) && (channel    < CYDMA_CH_NR));
 1041              		.loc 1 687 0
 1042 0006 0728     		cmp	r0, #7
 1043 0008 0FD8     		bhi	.L100
 1044              	.LVL79:
 1045              	.L98:
 688:Generated_Source\PSoC4/CyDMA.c ****     CYASSERT((descriptor >= 0) && (descriptor < CYDMA_DESCR_NR));
 1046              		.loc 1 688 0
 1047 000a 012D     		cmp	r5, #1
 1048 000c 02D9     		bls	.L99
 1049              		.loc 1 688 0 is_stmt 0 discriminator 1
 1050 000e 0020     		movs	r0, #0
 1051 0010 FFF7FEFF 		bl	CyHalt
 1052              	.LVL80:
 1053              	.L99:
 1054 0014 074B     		ldr	r3, .L101
 1055 0016 A400     		lsls	r4, r4, #2
 1056              	.LVL81:
 1057 0018 9C46     		mov	ip, r3
 1058 001a 6444     		add	r4, r4, ip
 689:Generated_Source\PSoC4/CyDMA.c **** 
 690:Generated_Source\PSoC4/CyDMA.c ****     regValue = CYDMA_CH_CTL_BASE.ctl[channel] & (uint32)~CYDMA_DESCRIPTOR;
 1059              		.loc 1 690 0 is_stmt 1
 1060 001c 2268     		ldr	r2, [r4]
 1061              	.LVL82:
 691:Generated_Source\PSoC4/CyDMA.c ****     CYDMA_CH_CTL_BASE.ctl[channel] = regValue | (uint32)((uint32)descriptor << CYDMA_DESCRIPTOR_POS
 1062              		.loc 1 691 0
 1063 001e 064B     		ldr	r3, .L101+4
 1064 0020 AD07     		lsls	r5, r5, #30
 1065              	.LVL83:
 1066 0022 1340     		ands	r3, r2
 1067              	.LVL84:
 1068 0024 1D43     		orrs	r5, r3
 1069 0026 2560     		str	r5, [r4]
 692:Generated_Source\PSoC4/CyDMA.c **** }
 1070              		.loc 1 692 0
 1071              		@ sp needed
 1072 0028 70BD     		pop	{r4, r5, r6, pc}
 1073              	.LVL85:
 1074              	.L100:
 687:Generated_Source\PSoC4/CyDMA.c ****     CYASSERT((descriptor >= 0) && (descriptor < CYDMA_DESCR_NR));
 1075              		.loc 1 687 0 discriminator 1
 1076 002a 0020     		movs	r0, #0
 1077              	.LVL86:
 1078 002c FFF7FEFF 		bl	CyHalt
 1079              	.LVL87:
 1080 0030 EBE7     		b	.L98
 1081              	.L102:
 1082 0032 C046     		.align	2
 1083              	.L101:
 1084 0034 80101040 		.word	1074794624
ARM GAS  C:\Users\ilya\AppData\Local\Temp\cchJq1OJ.s 			page 34


 1085 0038 FFFFFFBF 		.word	-1073741825
 1086              		.cfi_endproc
 1087              	.LFE24:
 1088              		.size	CyDmaSetNextDescriptor, .-CyDmaSetNextDescriptor
 1089              		.section	.text.CyDmaGetNextDescriptor,"ax",%progbits
 1090              		.align	2
 1091              		.global	CyDmaGetNextDescriptor
 1092              		.code	16
 1093              		.thumb_func
 1094              		.type	CyDmaGetNextDescriptor, %function
 1095              	CyDmaGetNextDescriptor:
 1096              	.LFB25:
 693:Generated_Source\PSoC4/CyDMA.c **** 
 694:Generated_Source\PSoC4/CyDMA.c **** 
 695:Generated_Source\PSoC4/CyDMA.c **** /*******************************************************************************
 696:Generated_Source\PSoC4/CyDMA.c **** * Function Name: CyDmaGetNextDescriptor
 697:Generated_Source\PSoC4/CyDMA.c **** ********************************************************************************
 698:Generated_Source\PSoC4/CyDMA.c **** *
 699:Generated_Source\PSoC4/CyDMA.c **** * Summary:
 700:Generated_Source\PSoC4/CyDMA.c **** *  Returns the next descriptor that should be run, as set by 
 701:Generated_Source\PSoC4/CyDMA.c **** *  CyDmaSetNextDescriptor().
 702:Generated_Source\PSoC4/CyDMA.c **** *
 703:Generated_Source\PSoC4/CyDMA.c **** * Parameters:
 704:Generated_Source\PSoC4/CyDMA.c **** *  channel: channel used by this function.
 705:Generated_Source\PSoC4/CyDMA.c **** *                   
 706:Generated_Source\PSoC4/CyDMA.c **** * Return:
 707:Generated_Source\PSoC4/CyDMA.c **** *  Next Descriptor to run (0 or 1).
 708:Generated_Source\PSoC4/CyDMA.c **** *
 709:Generated_Source\PSoC4/CyDMA.c **** *******************************************************************************/
 710:Generated_Source\PSoC4/CyDMA.c **** int32 CyDmaGetNextDescriptor(int32 channel)
 711:Generated_Source\PSoC4/CyDMA.c **** {
 1097              		.loc 1 711 0
 1098              		.cfi_startproc
 1099              		@ args = 0, pretend = 0, frame = 0
 1100              		@ frame_needed = 0, uses_anonymous_args = 0
 1101              	.LVL88:
 1102 0000 10B5     		push	{r4, lr}
 1103              		.cfi_def_cfa_offset 8
 1104              		.cfi_offset 4, -8
 1105              		.cfi_offset 14, -4
 1106              		.loc 1 711 0
 1107 0002 0400     		movs	r4, r0
 712:Generated_Source\PSoC4/CyDMA.c ****     uint32 nextDescriptor;
 713:Generated_Source\PSoC4/CyDMA.c **** 
 714:Generated_Source\PSoC4/CyDMA.c ****     CYASSERT((channel >= 0) && (channel < CYDMA_CH_NR));
 1108              		.loc 1 714 0
 1109 0004 0728     		cmp	r0, #7
 1110 0006 02D9     		bls	.L104
 1111              		.loc 1 714 0 is_stmt 0 discriminator 1
 1112 0008 0020     		movs	r0, #0
 1113              	.LVL89:
 1114 000a FFF7FEFF 		bl	CyHalt
 1115              	.LVL90:
 1116              	.L104:
 715:Generated_Source\PSoC4/CyDMA.c **** 
 716:Generated_Source\PSoC4/CyDMA.c ****     nextDescriptor = (CYDMA_CH_CTL_BASE.ctl[channel] & CYDMA_DESCRIPTOR) >> CYDMA_DESCRIPTOR_POS;
 1117              		.loc 1 716 0 is_stmt 1
ARM GAS  C:\Users\ilya\AppData\Local\Temp\cchJq1OJ.s 			page 35


 1118 000e 034B     		ldr	r3, .L105
 1119 0010 A400     		lsls	r4, r4, #2
 1120              	.LVL91:
 1121 0012 E058     		ldr	r0, [r4, r3]
 1122              	.LVL92:
 717:Generated_Source\PSoC4/CyDMA.c ****     return ((int32)nextDescriptor);
 718:Generated_Source\PSoC4/CyDMA.c **** }
 1123              		.loc 1 718 0
 1124              		@ sp needed
 717:Generated_Source\PSoC4/CyDMA.c ****     return ((int32)nextDescriptor);
 1125              		.loc 1 717 0
 1126 0014 4000     		lsls	r0, r0, #1
 1127              	.LVL93:
 1128 0016 C00F     		lsrs	r0, r0, #31
 1129              		.loc 1 718 0
 1130 0018 10BD     		pop	{r4, pc}
 1131              	.L106:
 1132 001a C046     		.align	2
 1133              	.L105:
 1134 001c 80101040 		.word	1074794624
 1135              		.cfi_endproc
 1136              	.LFE25:
 1137              		.size	CyDmaGetNextDescriptor, .-CyDmaGetNextDescriptor
 1138              		.section	.text.CyDmaSetConfiguration,"ax",%progbits
 1139              		.align	2
 1140              		.global	CyDmaSetConfiguration
 1141              		.code	16
 1142              		.thumb_func
 1143              		.type	CyDmaSetConfiguration, %function
 1144              	CyDmaSetConfiguration:
 1145              	.LFB26:
 719:Generated_Source\PSoC4/CyDMA.c **** 
 720:Generated_Source\PSoC4/CyDMA.c **** 
 721:Generated_Source\PSoC4/CyDMA.c **** /*******************************************************************************
 722:Generated_Source\PSoC4/CyDMA.c **** * Function Name: CyDmaSetConfiguration
 723:Generated_Source\PSoC4/CyDMA.c **** ********************************************************************************
 724:Generated_Source\PSoC4/CyDMA.c **** *
 725:Generated_Source\PSoC4/CyDMA.c **** * Summary:
 726:Generated_Source\PSoC4/CyDMA.c **** *  Sets configuration information for the specified descriptor.
 727:Generated_Source\PSoC4/CyDMA.c **** *
 728:Generated_Source\PSoC4/CyDMA.c **** * Parameters:
 729:Generated_Source\PSoC4/CyDMA.c **** *  channel:    DMA channel modified by this function.
 730:Generated_Source\PSoC4/CyDMA.c **** *  descriptor: Descriptor (0 or 1) modified by this function.
 731:Generated_Source\PSoC4/CyDMA.c **** *  config:     Pointer to a configuration structure. Refer to cydma_init_struct
 732:Generated_Source\PSoC4/CyDMA.c **** *              structure definition in CyDMA_P4.h and/or DMA channel datasheet
 733:Generated_Source\PSoC4/CyDMA.c **** *              for more information.
 734:Generated_Source\PSoC4/CyDMA.c **** *                   
 735:Generated_Source\PSoC4/CyDMA.c **** * Return:
 736:Generated_Source\PSoC4/CyDMA.c **** *  None.
 737:Generated_Source\PSoC4/CyDMA.c **** *
 738:Generated_Source\PSoC4/CyDMA.c **** * Side effect:
 739:Generated_Source\PSoC4/CyDMA.c **** *  The status register associated with the specified descriptor is reset to
 740:Generated_Source\PSoC4/CyDMA.c **** *  zero after this function call. This function also validates the descriptor.
 741:Generated_Source\PSoC4/CyDMA.c **** *  This function should not be called while the descriptor is active.
 742:Generated_Source\PSoC4/CyDMA.c **** *  This can be checked by calling CyDmaGetStatus().
 743:Generated_Source\PSoC4/CyDMA.c **** *
 744:Generated_Source\PSoC4/CyDMA.c **** *******************************************************************************/
ARM GAS  C:\Users\ilya\AppData\Local\Temp\cchJq1OJ.s 			page 36


 745:Generated_Source\PSoC4/CyDMA.c **** void CyDmaSetConfiguration(int32 channel, int32 descriptor, const cydma_init_struct * config)
 746:Generated_Source\PSoC4/CyDMA.c **** {  
 1146              		.loc 1 746 0
 1147              		.cfi_startproc
 1148              		@ args = 0, pretend = 0, frame = 0
 1149              		@ frame_needed = 0, uses_anonymous_args = 0
 1150              	.LVL94:
 1151 0000 70B5     		push	{r4, r5, r6, lr}
 1152              		.cfi_def_cfa_offset 16
 1153              		.cfi_offset 4, -16
 1154              		.cfi_offset 5, -12
 1155              		.cfi_offset 6, -8
 1156              		.cfi_offset 14, -4
 1157              		.loc 1 746 0
 1158 0002 0600     		movs	r6, r0
 1159 0004 0D00     		movs	r5, r1
 1160 0006 1400     		movs	r4, r2
 747:Generated_Source\PSoC4/CyDMA.c ****     CYASSERT((channel        >= 0) && (channel         < CYDMA_CH_NR));
 1161              		.loc 1 747 0
 1162 0008 0728     		cmp	r0, #7
 1163 000a 5ED8     		bhi	.L138
 1164              	.LVL95:
 1165              	.L108:
 748:Generated_Source\PSoC4/CyDMA.c ****     CYASSERT((descriptor     >= 0) && (descriptor      < CYDMA_DESCR_NR));
 1166              		.loc 1 748 0
 1167 000c 012D     		cmp	r5, #1
 1168 000e 02D9     		bls	.L109
 1169              		.loc 1 748 0 is_stmt 0 discriminator 1
 1170 0010 0020     		movs	r0, #0
 1171 0012 FFF7FEFF 		bl	CyHalt
 1172              	.LVL96:
 1173              	.L109:
 749:Generated_Source\PSoC4/CyDMA.c **** 
 750:Generated_Source\PSoC4/CyDMA.c ****     CYASSERT(0u == (config->dataElementSize     & (uint32)~CYDMA_DATA_SIZE));   
 1174              		.loc 1 750 0 is_stmt 1
 1175 0016 2F4B     		ldr	r3, .L146
 1176 0018 2268     		ldr	r2, [r4]
 1177 001a 1A42     		tst	r2, r3
 1178 001c 51D1     		bne	.L139
 1179              	.L110:
 751:Generated_Source\PSoC4/CyDMA.c ****     CYASSERT((config->numDataElements > 0)     && (config->numDataElements <= CYDMA_MAX_DATA_NR));
 1180              		.loc 1 751 0
 1181 001e 6368     		ldr	r3, [r4, #4]
 1182 0020 2D4A     		ldr	r2, .L146+4
 1183 0022 013B     		subs	r3, r3, #1
 1184 0024 9342     		cmp	r3, r2
 1185 0026 48D8     		bhi	.L140
 1186              	.L111:
 752:Generated_Source\PSoC4/CyDMA.c ****     CYASSERT(0u == (config->srcDstTransferWidth & (uint32)~CYDMA_TRANSFER_WIDTH));
 1187              		.loc 1 752 0
 1188 0028 2C4B     		ldr	r3, .L146+8
 1189 002a A268     		ldr	r2, [r4, #8]
 1190 002c 1A42     		tst	r2, r3
 1191 002e 40D1     		bne	.L141
 1192              	.L112:
 753:Generated_Source\PSoC4/CyDMA.c ****     CYASSERT(0u == (config->addressIncrement    & (uint32)~CYDMA_ADDR_INCR));
 1193              		.loc 1 753 0
ARM GAS  C:\Users\ilya\AppData\Local\Temp\cchJq1OJ.s 			page 37


 1194 0030 2B4B     		ldr	r3, .L146+12
 1195 0032 E268     		ldr	r2, [r4, #12]
 1196 0034 1A42     		tst	r2, r3
 1197 0036 38D1     		bne	.L142
 1198              	.L113:
 754:Generated_Source\PSoC4/CyDMA.c ****     CYASSERT(0u == (config->triggerType         & (uint32)~CYDMA_TRIGGER_TYPE));
 1199              		.loc 1 754 0
 1200 0038 2A4B     		ldr	r3, .L146+16
 1201 003a 2269     		ldr	r2, [r4, #16]
 1202 003c 1A42     		tst	r2, r3
 1203 003e 30D1     		bne	.L143
 1204              	.L114:
 755:Generated_Source\PSoC4/CyDMA.c ****     CYASSERT(0u == (config->transferMode        & (uint32)~CYDMA_TRANSFER_MODE));
 1205              		.loc 1 755 0
 1206 0040 6369     		ldr	r3, [r4, #20]
 1207 0042 9B00     		lsls	r3, r3, #2
 1208 0044 29D1     		bne	.L144
 1209              	.L115:
 756:Generated_Source\PSoC4/CyDMA.c ****     CYASSERT(0u == (config->preemptable         & (uint32)~CYDMA_PREEMPTABLE));
 1210              		.loc 1 756 0
 1211 0046 284B     		ldr	r3, .L146+20
 1212 0048 A269     		ldr	r2, [r4, #24]
 1213 004a 1A42     		tst	r2, r3
 1214 004c 21D1     		bne	.L145
 1215              	.L116:
 757:Generated_Source\PSoC4/CyDMA.c ****     CYASSERT(0u == (config->actions             & (uint32)~CYDMA_POST_COMPLETE_ACTIONS));
 1216              		.loc 1 757 0
 1217 004e 274A     		ldr	r2, .L146+24
 1218 0050 E369     		ldr	r3, [r4, #28]
 1219 0052 1342     		tst	r3, r2
 1220 0054 03D0     		beq	.L117
 1221              		.loc 1 757 0 is_stmt 0 discriminator 1
 1222 0056 0020     		movs	r0, #0
 1223 0058 FFF7FEFF 		bl	CyHalt
 1224              	.LVL97:
 1225 005c E369     		ldr	r3, [r4, #28]
 1226              	.L117:
 758:Generated_Source\PSoC4/CyDMA.c ****     
 759:Generated_Source\PSoC4/CyDMA.c ****     CYDMA_DESCR_BASE.descriptor[channel][descriptor].ctl = config->dataElementSize     |
 760:Generated_Source\PSoC4/CyDMA.c ****                                                   ((uint32)config->numDataElements-1u) |
 761:Generated_Source\PSoC4/CyDMA.c ****                                                            config->srcDstTransferWidth |
 762:Generated_Source\PSoC4/CyDMA.c ****                                                            config->addressIncrement    |
 763:Generated_Source\PSoC4/CyDMA.c ****                                                            config->triggerType         |
 764:Generated_Source\PSoC4/CyDMA.c ****                                                            config->transferMode        |
 765:Generated_Source\PSoC4/CyDMA.c ****                                                            config->preemptable         |
 1227              		.loc 1 765 0 is_stmt 1
 1228 005e A168     		ldr	r1, [r4, #8]
 1229 0060 2268     		ldr	r2, [r4]
 759:Generated_Source\PSoC4/CyDMA.c ****                                                   ((uint32)config->numDataElements-1u) |
 1230              		.loc 1 759 0
 1231 0062 7600     		lsls	r6, r6, #1
 1232              	.LVL98:
 1233              		.loc 1 765 0
 1234 0064 0A43     		orrs	r2, r1
 1235 0066 E168     		ldr	r1, [r4, #12]
 759:Generated_Source\PSoC4/CyDMA.c ****                                                   ((uint32)config->numDataElements-1u) |
 1236              		.loc 1 759 0
ARM GAS  C:\Users\ilya\AppData\Local\Temp\cchJq1OJ.s 			page 38


 1237 0068 7519     		adds	r5, r6, r5
 1238              	.LVL99:
 1239              		.loc 1 765 0
 1240 006a 0A43     		orrs	r2, r1
 1241 006c 2169     		ldr	r1, [r4, #16]
 759:Generated_Source\PSoC4/CyDMA.c ****                                                   ((uint32)config->numDataElements-1u) |
 1242              		.loc 1 759 0
 1243 006e 2D01     		lsls	r5, r5, #4
 1244              		.loc 1 765 0
 1245 0070 0A43     		orrs	r2, r1
 1246 0072 6169     		ldr	r1, [r4, #20]
 766:Generated_Source\PSoC4/CyDMA.c ****                                                            config->actions;
 767:Generated_Source\PSoC4/CyDMA.c **** 
 768:Generated_Source\PSoC4/CyDMA.c ****     CYDMA_DESCR_BASE.descriptor[channel][descriptor].status = CYDMA_VALID;
 769:Generated_Source\PSoC4/CyDMA.c **** }
 1247              		.loc 1 769 0
 1248              		@ sp needed
 765:Generated_Source\PSoC4/CyDMA.c ****                                                            config->actions;
 1249              		.loc 1 765 0
 1250 0074 0A43     		orrs	r2, r1
 1251 0076 A169     		ldr	r1, [r4, #24]
 1252 0078 0A43     		orrs	r2, r1
 1253 007a 6168     		ldr	r1, [r4, #4]
 1254 007c 0139     		subs	r1, r1, #1
 1255 007e 0A43     		orrs	r2, r1
 1256 0080 1343     		orrs	r3, r2
 759:Generated_Source\PSoC4/CyDMA.c ****                                                   ((uint32)config->numDataElements-1u) |
 1257              		.loc 1 759 0
 1258 0082 1B4A     		ldr	r2, .L146+28
 1259 0084 9446     		mov	ip, r2
 1260 0086 6544     		add	r5, r5, ip
 1261 0088 AB60     		str	r3, [r5, #8]
 768:Generated_Source\PSoC4/CyDMA.c **** }
 1262              		.loc 1 768 0
 1263 008a 8023     		movs	r3, #128
 1264 008c 1B06     		lsls	r3, r3, #24
 1265 008e EB60     		str	r3, [r5, #12]
 1266              	.LVL100:
 1267              		.loc 1 769 0
 1268 0090 70BD     		pop	{r4, r5, r6, pc}
 1269              	.LVL101:
 1270              	.L145:
 756:Generated_Source\PSoC4/CyDMA.c ****     CYASSERT(0u == (config->actions             & (uint32)~CYDMA_POST_COMPLETE_ACTIONS));
 1271              		.loc 1 756 0 discriminator 1
 1272 0092 0020     		movs	r0, #0
 1273 0094 FFF7FEFF 		bl	CyHalt
 1274              	.LVL102:
 1275 0098 D9E7     		b	.L116
 1276              	.L144:
 755:Generated_Source\PSoC4/CyDMA.c ****     CYASSERT(0u == (config->preemptable         & (uint32)~CYDMA_PREEMPTABLE));
 1277              		.loc 1 755 0 discriminator 1
 1278 009a 0020     		movs	r0, #0
 1279 009c FFF7FEFF 		bl	CyHalt
 1280              	.LVL103:
 1281 00a0 D1E7     		b	.L115
 1282              	.L143:
 754:Generated_Source\PSoC4/CyDMA.c ****     CYASSERT(0u == (config->transferMode        & (uint32)~CYDMA_TRANSFER_MODE));
ARM GAS  C:\Users\ilya\AppData\Local\Temp\cchJq1OJ.s 			page 39


 1283              		.loc 1 754 0 discriminator 1
 1284 00a2 0020     		movs	r0, #0
 1285 00a4 FFF7FEFF 		bl	CyHalt
 1286              	.LVL104:
 1287 00a8 CAE7     		b	.L114
 1288              	.L142:
 753:Generated_Source\PSoC4/CyDMA.c ****     CYASSERT(0u == (config->triggerType         & (uint32)~CYDMA_TRIGGER_TYPE));
 1289              		.loc 1 753 0 discriminator 1
 1290 00aa 0020     		movs	r0, #0
 1291 00ac FFF7FEFF 		bl	CyHalt
 1292              	.LVL105:
 1293 00b0 C2E7     		b	.L113
 1294              	.L141:
 752:Generated_Source\PSoC4/CyDMA.c ****     CYASSERT(0u == (config->addressIncrement    & (uint32)~CYDMA_ADDR_INCR));
 1295              		.loc 1 752 0 discriminator 1
 1296 00b2 0020     		movs	r0, #0
 1297 00b4 FFF7FEFF 		bl	CyHalt
 1298              	.LVL106:
 1299 00b8 BAE7     		b	.L112
 1300              	.L140:
 751:Generated_Source\PSoC4/CyDMA.c ****     CYASSERT(0u == (config->srcDstTransferWidth & (uint32)~CYDMA_TRANSFER_WIDTH));
 1301              		.loc 1 751 0 discriminator 1
 1302 00ba 0020     		movs	r0, #0
 1303 00bc FFF7FEFF 		bl	CyHalt
 1304              	.LVL107:
 1305 00c0 B2E7     		b	.L111
 1306              	.L139:
 750:Generated_Source\PSoC4/CyDMA.c ****     CYASSERT((config->numDataElements > 0)     && (config->numDataElements <= CYDMA_MAX_DATA_NR));
 1307              		.loc 1 750 0 discriminator 1
 1308 00c2 0020     		movs	r0, #0
 1309 00c4 FFF7FEFF 		bl	CyHalt
 1310              	.LVL108:
 1311 00c8 A9E7     		b	.L110
 1312              	.LVL109:
 1313              	.L138:
 747:Generated_Source\PSoC4/CyDMA.c ****     CYASSERT((descriptor     >= 0) && (descriptor      < CYDMA_DESCR_NR));
 1314              		.loc 1 747 0 discriminator 1
 1315 00ca 0020     		movs	r0, #0
 1316              	.LVL110:
 1317 00cc FFF7FEFF 		bl	CyHalt
 1318              	.LVL111:
 1319 00d0 9CE7     		b	.L108
 1320              	.L147:
 1321 00d2 C046     		.align	2
 1322              	.L146:
 1323 00d4 FFFFFCFF 		.word	-196609
 1324 00d8 FFFF0000 		.word	65535
 1325 00dc FFFFAFFF 		.word	-5242881
 1326 00e0 FFFF5FFF 		.word	-10485761
 1327 00e4 FFFFFFFC 		.word	-50331649
 1328 00e8 FFFFFFEF 		.word	-268435457
 1329 00ec FFFFFFD3 		.word	-738197505
 1330 00f0 00181040 		.word	1074796544
 1331              		.cfi_endproc
 1332              	.LFE26:
 1333              		.size	CyDmaSetConfiguration, .-CyDmaSetConfiguration
 1334              		.section	.text.CyDmaValidateDescriptor,"ax",%progbits
ARM GAS  C:\Users\ilya\AppData\Local\Temp\cchJq1OJ.s 			page 40


 1335              		.align	2
 1336              		.global	CyDmaValidateDescriptor
 1337              		.code	16
 1338              		.thumb_func
 1339              		.type	CyDmaValidateDescriptor, %function
 1340              	CyDmaValidateDescriptor:
 1341              	.LFB27:
 770:Generated_Source\PSoC4/CyDMA.c **** 
 771:Generated_Source\PSoC4/CyDMA.c **** 
 772:Generated_Source\PSoC4/CyDMA.c **** /*******************************************************************************
 773:Generated_Source\PSoC4/CyDMA.c **** * Function Name: CyDmaValidateDescriptor
 774:Generated_Source\PSoC4/CyDMA.c **** ********************************************************************************
 775:Generated_Source\PSoC4/CyDMA.c **** *
 776:Generated_Source\PSoC4/CyDMA.c **** * Summary:
 777:Generated_Source\PSoC4/CyDMA.c **** *  Validates the specified descriptor after it has been invalidated.
 778:Generated_Source\PSoC4/CyDMA.c **** *
 779:Generated_Source\PSoC4/CyDMA.c **** * Parameters:
 780:Generated_Source\PSoC4/CyDMA.c **** *  channel:    Channel used by this function.
 781:Generated_Source\PSoC4/CyDMA.c **** *  descriptor: Descriptor (0 or 1) modified by this function.
 782:Generated_Source\PSoC4/CyDMA.c **** *                   
 783:Generated_Source\PSoC4/CyDMA.c **** * Return:
 784:Generated_Source\PSoC4/CyDMA.c **** *  None. 
 785:Generated_Source\PSoC4/CyDMA.c **** *
 786:Generated_Source\PSoC4/CyDMA.c **** * Side effect:
 787:Generated_Source\PSoC4/CyDMA.c **** *  The status register associated with the specified descriptor is reset to
 788:Generated_Source\PSoC4/CyDMA.c **** *  zero after this function call.
 789:Generated_Source\PSoC4/CyDMA.c **** *  This function should not be called when the specified descriptor is active
 790:Generated_Source\PSoC4/CyDMA.c **** *  in the DMA transfer engine. This can be checked by calling CyDmaGetStatus().
 791:Generated_Source\PSoC4/CyDMA.c **** *
 792:Generated_Source\PSoC4/CyDMA.c **** *******************************************************************************/
 793:Generated_Source\PSoC4/CyDMA.c **** void CyDmaValidateDescriptor(int32 channel, int32 descriptor)
 794:Generated_Source\PSoC4/CyDMA.c **** {
 1342              		.loc 1 794 0
 1343              		.cfi_startproc
 1344              		@ args = 0, pretend = 0, frame = 0
 1345              		@ frame_needed = 0, uses_anonymous_args = 0
 1346              	.LVL112:
 1347 0000 70B5     		push	{r4, r5, r6, lr}
 1348              		.cfi_def_cfa_offset 16
 1349              		.cfi_offset 4, -16
 1350              		.cfi_offset 5, -12
 1351              		.cfi_offset 6, -8
 1352              		.cfi_offset 14, -4
 1353              		.loc 1 794 0
 1354 0002 0500     		movs	r5, r0
 1355 0004 0C00     		movs	r4, r1
 795:Generated_Source\PSoC4/CyDMA.c ****     CYASSERT((channel    >= 0) && (channel    < CYDMA_CH_NR));
 1356              		.loc 1 795 0
 1357 0006 0728     		cmp	r0, #7
 1358 0008 0ED8     		bhi	.L151
 1359              	.LVL113:
 1360              	.L149:
 796:Generated_Source\PSoC4/CyDMA.c ****     CYASSERT((descriptor >= 0) && (descriptor < CYDMA_DESCR_NR));
 1361              		.loc 1 796 0
 1362 000a 012C     		cmp	r4, #1
 1363 000c 02D9     		bls	.L150
 1364              		.loc 1 796 0 is_stmt 0 discriminator 1
ARM GAS  C:\Users\ilya\AppData\Local\Temp\cchJq1OJ.s 			page 41


 1365 000e 0020     		movs	r0, #0
 1366 0010 FFF7FEFF 		bl	CyHalt
 1367              	.LVL114:
 1368              	.L150:
 797:Generated_Source\PSoC4/CyDMA.c **** 
 798:Generated_Source\PSoC4/CyDMA.c ****     CYDMA_DESCR_BASE.descriptor[channel][descriptor].status = CYDMA_VALID;
 1369              		.loc 1 798 0 is_stmt 1
 1370 0014 064B     		ldr	r3, .L152
 1371 0016 6D00     		lsls	r5, r5, #1
 1372              	.LVL115:
 1373 0018 9C46     		mov	ip, r3
 1374 001a 8023     		movs	r3, #128
 1375 001c 2C19     		adds	r4, r5, r4
 1376              	.LVL116:
 1377 001e 2401     		lsls	r4, r4, #4
 1378 0020 6444     		add	r4, r4, ip
 1379 0022 1B06     		lsls	r3, r3, #24
 1380 0024 E360     		str	r3, [r4, #12]
 799:Generated_Source\PSoC4/CyDMA.c **** }
 1381              		.loc 1 799 0
 1382              		@ sp needed
 1383 0026 70BD     		pop	{r4, r5, r6, pc}
 1384              	.LVL117:
 1385              	.L151:
 795:Generated_Source\PSoC4/CyDMA.c ****     CYASSERT((descriptor >= 0) && (descriptor < CYDMA_DESCR_NR));
 1386              		.loc 1 795 0 discriminator 1
 1387 0028 0020     		movs	r0, #0
 1388              	.LVL118:
 1389 002a FFF7FEFF 		bl	CyHalt
 1390              	.LVL119:
 1391 002e ECE7     		b	.L149
 1392              	.L153:
 1393              		.align	2
 1394              	.L152:
 1395 0030 00181040 		.word	1074796544
 1396              		.cfi_endproc
 1397              	.LFE27:
 1398              		.size	CyDmaValidateDescriptor, .-CyDmaValidateDescriptor
 1399              		.section	.text.CyDmaGetDescriptorStatus,"ax",%progbits
 1400              		.align	2
 1401              		.global	CyDmaGetDescriptorStatus
 1402              		.code	16
 1403              		.thumb_func
 1404              		.type	CyDmaGetDescriptorStatus, %function
 1405              	CyDmaGetDescriptorStatus:
 1406              	.LFB28:
 800:Generated_Source\PSoC4/CyDMA.c **** 
 801:Generated_Source\PSoC4/CyDMA.c **** 
 802:Generated_Source\PSoC4/CyDMA.c **** /*******************************************************************************
 803:Generated_Source\PSoC4/CyDMA.c **** * Function Name: CyDmaGetDescriptorStatus
 804:Generated_Source\PSoC4/CyDMA.c **** ********************************************************************************
 805:Generated_Source\PSoC4/CyDMA.c **** *
 806:Generated_Source\PSoC4/CyDMA.c **** * Summary:
 807:Generated_Source\PSoC4/CyDMA.c **** *  Returns the status of the specified descriptor.
 808:Generated_Source\PSoC4/CyDMA.c **** *
 809:Generated_Source\PSoC4/CyDMA.c **** * Parameters:
 810:Generated_Source\PSoC4/CyDMA.c **** *  channel:    Channel used by this function.
ARM GAS  C:\Users\ilya\AppData\Local\Temp\cchJq1OJ.s 			page 42


 811:Generated_Source\PSoC4/CyDMA.c **** *  descriptor: Descriptor (0 or 1) modified by this function.
 812:Generated_Source\PSoC4/CyDMA.c **** *                   
 813:Generated_Source\PSoC4/CyDMA.c **** * Return:
 814:Generated_Source\PSoC4/CyDMA.c **** *  Returns the contents of the specified descriptors status register. Refer to 
 815:Generated_Source\PSoC4/CyDMA.c **** *  descriptor status register bit definitions in CyDMA_P4.h or the API
 816:Generated_Source\PSoC4/CyDMA.c **** *  description in the DMA channel datasheet for more information.
 817:Generated_Source\PSoC4/CyDMA.c **** *
 818:Generated_Source\PSoC4/CyDMA.c **** *******************************************************************************/
 819:Generated_Source\PSoC4/CyDMA.c **** uint32 CyDmaGetDescriptorStatus(int32 channel, int32 descriptor)
 820:Generated_Source\PSoC4/CyDMA.c **** {
 1407              		.loc 1 820 0
 1408              		.cfi_startproc
 1409              		@ args = 0, pretend = 0, frame = 0
 1410              		@ frame_needed = 0, uses_anonymous_args = 0
 1411              	.LVL120:
 1412 0000 70B5     		push	{r4, r5, r6, lr}
 1413              		.cfi_def_cfa_offset 16
 1414              		.cfi_offset 4, -16
 1415              		.cfi_offset 5, -12
 1416              		.cfi_offset 6, -8
 1417              		.cfi_offset 14, -4
 1418              		.loc 1 820 0
 1419 0002 0500     		movs	r5, r0
 1420 0004 0C00     		movs	r4, r1
 821:Generated_Source\PSoC4/CyDMA.c ****     CYASSERT((channel    >= 0) && (channel    < CYDMA_CH_NR));
 1421              		.loc 1 821 0
 1422 0006 0728     		cmp	r0, #7
 1423 0008 0CD8     		bhi	.L157
 1424              	.LVL121:
 1425              	.L155:
 822:Generated_Source\PSoC4/CyDMA.c ****     CYASSERT((descriptor >= 0) && (descriptor < CYDMA_DESCR_NR));
 1426              		.loc 1 822 0
 1427 000a 012C     		cmp	r4, #1
 1428 000c 02D9     		bls	.L156
 1429              		.loc 1 822 0 is_stmt 0 discriminator 1
 1430 000e 0020     		movs	r0, #0
 1431 0010 FFF7FEFF 		bl	CyHalt
 1432              	.LVL122:
 1433              	.L156:
 823:Generated_Source\PSoC4/CyDMA.c **** 
 824:Generated_Source\PSoC4/CyDMA.c ****     return (CYDMA_DESCR_BASE.descriptor[channel][descriptor].status);
 1434              		.loc 1 824 0 is_stmt 1
 1435 0014 054B     		ldr	r3, .L158
 1436 0016 6D00     		lsls	r5, r5, #1
 1437              	.LVL123:
 1438 0018 9C46     		mov	ip, r3
 1439 001a 2C19     		adds	r4, r5, r4
 1440              	.LVL124:
 1441 001c 2401     		lsls	r4, r4, #4
 1442 001e 6444     		add	r4, r4, ip
 1443 0020 E068     		ldr	r0, [r4, #12]
 825:Generated_Source\PSoC4/CyDMA.c **** }
 1444              		.loc 1 825 0
 1445              		@ sp needed
 1446 0022 70BD     		pop	{r4, r5, r6, pc}
 1447              	.LVL125:
 1448              	.L157:
ARM GAS  C:\Users\ilya\AppData\Local\Temp\cchJq1OJ.s 			page 43


 821:Generated_Source\PSoC4/CyDMA.c ****     CYASSERT((descriptor >= 0) && (descriptor < CYDMA_DESCR_NR));
 1449              		.loc 1 821 0 discriminator 1
 1450 0024 0020     		movs	r0, #0
 1451              	.LVL126:
 1452 0026 FFF7FEFF 		bl	CyHalt
 1453              	.LVL127:
 1454 002a EEE7     		b	.L155
 1455              	.L159:
 1456              		.align	2
 1457              	.L158:
 1458 002c 00181040 		.word	1074796544
 1459              		.cfi_endproc
 1460              	.LFE28:
 1461              		.size	CyDmaGetDescriptorStatus, .-CyDmaGetDescriptorStatus
 1462              		.section	.text.CyDmaSetSrcAddress,"ax",%progbits
 1463              		.align	2
 1464              		.global	CyDmaSetSrcAddress
 1465              		.code	16
 1466              		.thumb_func
 1467              		.type	CyDmaSetSrcAddress, %function
 1468              	CyDmaSetSrcAddress:
 1469              	.LFB29:
 826:Generated_Source\PSoC4/CyDMA.c **** 
 827:Generated_Source\PSoC4/CyDMA.c **** 
 828:Generated_Source\PSoC4/CyDMA.c **** /*******************************************************************************
 829:Generated_Source\PSoC4/CyDMA.c **** * Function Name: CyDmaSetSrcAddress
 830:Generated_Source\PSoC4/CyDMA.c **** ********************************************************************************
 831:Generated_Source\PSoC4/CyDMA.c **** *
 832:Generated_Source\PSoC4/CyDMA.c **** * Summary:
 833:Generated_Source\PSoC4/CyDMA.c **** *  Configures the source address for the specified descriptor.
 834:Generated_Source\PSoC4/CyDMA.c **** *
 835:Generated_Source\PSoC4/CyDMA.c **** * Parameters:
 836:Generated_Source\PSoC4/CyDMA.c **** *  channel:    Channel used by this function.
 837:Generated_Source\PSoC4/CyDMA.c **** *  descriptor: Descriptor (0 or 1) modified by this function.
 838:Generated_Source\PSoC4/CyDMA.c **** *  srcAddress: Address of DMA transfer source.
 839:Generated_Source\PSoC4/CyDMA.c **** *                   
 840:Generated_Source\PSoC4/CyDMA.c **** * Return:
 841:Generated_Source\PSoC4/CyDMA.c **** *  None.
 842:Generated_Source\PSoC4/CyDMA.c **** *
 843:Generated_Source\PSoC4/CyDMA.c **** * Side effect:
 844:Generated_Source\PSoC4/CyDMA.c **** *  This function should not be called when the specified descriptor is active
 845:Generated_Source\PSoC4/CyDMA.c **** *  in the DMA transfer engine. This can be checked by calling CyDmaGetStatus(). 
 846:Generated_Source\PSoC4/CyDMA.c **** *
 847:Generated_Source\PSoC4/CyDMA.c **** *******************************************************************************/
 848:Generated_Source\PSoC4/CyDMA.c **** void CyDmaSetSrcAddress(int32 channel, int32 descriptor, void * srcAddress)
 849:Generated_Source\PSoC4/CyDMA.c **** {
 1470              		.loc 1 849 0
 1471              		.cfi_startproc
 1472              		@ args = 0, pretend = 0, frame = 0
 1473              		@ frame_needed = 0, uses_anonymous_args = 0
 1474              	.LVL128:
 1475 0000 70B5     		push	{r4, r5, r6, lr}
 1476              		.cfi_def_cfa_offset 16
 1477              		.cfi_offset 4, -16
 1478              		.cfi_offset 5, -12
 1479              		.cfi_offset 6, -8
 1480              		.cfi_offset 14, -4
ARM GAS  C:\Users\ilya\AppData\Local\Temp\cchJq1OJ.s 			page 44


 1481              		.loc 1 849 0
 1482 0002 0500     		movs	r5, r0
 1483 0004 0C00     		movs	r4, r1
 1484 0006 1600     		movs	r6, r2
 850:Generated_Source\PSoC4/CyDMA.c ****     CYASSERT((channel    >= 0) && (channel    < CYDMA_CH_NR));
 1485              		.loc 1 850 0
 1486 0008 0728     		cmp	r0, #7
 1487 000a 0AD8     		bhi	.L163
 1488              	.LVL129:
 1489              	.L161:
 851:Generated_Source\PSoC4/CyDMA.c ****     CYASSERT((descriptor >= 0) && (descriptor < CYDMA_DESCR_NR));
 1490              		.loc 1 851 0
 1491 000c 012C     		cmp	r4, #1
 1492 000e 02D9     		bls	.L162
 1493              		.loc 1 851 0 is_stmt 0 discriminator 1
 1494 0010 0020     		movs	r0, #0
 1495 0012 FFF7FEFF 		bl	CyHalt
 1496              	.LVL130:
 1497              	.L162:
 852:Generated_Source\PSoC4/CyDMA.c **** 
 853:Generated_Source\PSoC4/CyDMA.c ****     CYDMA_DESCR_BASE.descriptor[channel][descriptor].src = srcAddress;
 1498              		.loc 1 853 0 is_stmt 1
 1499 0016 6D00     		lsls	r5, r5, #1
 1500              	.LVL131:
 1501 0018 2C19     		adds	r4, r5, r4
 1502              	.LVL132:
 1503 001a 044B     		ldr	r3, .L164
 1504 001c 2401     		lsls	r4, r4, #4
 1505 001e E650     		str	r6, [r4, r3]
 854:Generated_Source\PSoC4/CyDMA.c **** }
 1506              		.loc 1 854 0
 1507              		@ sp needed
 1508              	.LVL133:
 1509 0020 70BD     		pop	{r4, r5, r6, pc}
 1510              	.LVL134:
 1511              	.L163:
 850:Generated_Source\PSoC4/CyDMA.c ****     CYASSERT((descriptor >= 0) && (descriptor < CYDMA_DESCR_NR));
 1512              		.loc 1 850 0 discriminator 1
 1513 0022 0020     		movs	r0, #0
 1514              	.LVL135:
 1515 0024 FFF7FEFF 		bl	CyHalt
 1516              	.LVL136:
 1517 0028 F0E7     		b	.L161
 1518              	.L165:
 1519 002a C046     		.align	2
 1520              	.L164:
 1521 002c 00181040 		.word	1074796544
 1522              		.cfi_endproc
 1523              	.LFE29:
 1524              		.size	CyDmaSetSrcAddress, .-CyDmaSetSrcAddress
 1525              		.section	.text.CyDmaGetSrcAddress,"ax",%progbits
 1526              		.align	2
 1527              		.global	CyDmaGetSrcAddress
 1528              		.code	16
 1529              		.thumb_func
 1530              		.type	CyDmaGetSrcAddress, %function
 1531              	CyDmaGetSrcAddress:
ARM GAS  C:\Users\ilya\AppData\Local\Temp\cchJq1OJ.s 			page 45


 1532              	.LFB30:
 855:Generated_Source\PSoC4/CyDMA.c **** 
 856:Generated_Source\PSoC4/CyDMA.c **** 
 857:Generated_Source\PSoC4/CyDMA.c **** /*******************************************************************************
 858:Generated_Source\PSoC4/CyDMA.c **** * Function Name: CyDmaGetSrcAddress
 859:Generated_Source\PSoC4/CyDMA.c **** ********************************************************************************
 860:Generated_Source\PSoC4/CyDMA.c **** *
 861:Generated_Source\PSoC4/CyDMA.c **** * Summary:
 862:Generated_Source\PSoC4/CyDMA.c **** *  Returns the source address for the specified descriptor, set by 
 863:Generated_Source\PSoC4/CyDMA.c **** *  CyDmaSetSrcAddress().
 864:Generated_Source\PSoC4/CyDMA.c **** *
 865:Generated_Source\PSoC4/CyDMA.c **** * Parameters:
 866:Generated_Source\PSoC4/CyDMA.c **** *  channel:    Channel used by this function.
 867:Generated_Source\PSoC4/CyDMA.c **** *  descriptor: Specifies descriptor (0 or 1) used by this function.
 868:Generated_Source\PSoC4/CyDMA.c **** *                   
 869:Generated_Source\PSoC4/CyDMA.c **** * Return:
 870:Generated_Source\PSoC4/CyDMA.c **** *  Source address written to specified descriptor.
 871:Generated_Source\PSoC4/CyDMA.c **** *
 872:Generated_Source\PSoC4/CyDMA.c **** *******************************************************************************/
 873:Generated_Source\PSoC4/CyDMA.c **** void * CyDmaGetSrcAddress(int32 channel, int32 descriptor)
 874:Generated_Source\PSoC4/CyDMA.c **** {
 1533              		.loc 1 874 0
 1534              		.cfi_startproc
 1535              		@ args = 0, pretend = 0, frame = 0
 1536              		@ frame_needed = 0, uses_anonymous_args = 0
 1537              	.LVL137:
 1538 0000 70B5     		push	{r4, r5, r6, lr}
 1539              		.cfi_def_cfa_offset 16
 1540              		.cfi_offset 4, -16
 1541              		.cfi_offset 5, -12
 1542              		.cfi_offset 6, -8
 1543              		.cfi_offset 14, -4
 1544              		.loc 1 874 0
 1545 0002 0500     		movs	r5, r0
 1546 0004 0C00     		movs	r4, r1
 875:Generated_Source\PSoC4/CyDMA.c ****     CYASSERT((channel    >= 0) && (channel    < CYDMA_CH_NR));
 1547              		.loc 1 875 0
 1548 0006 0728     		cmp	r0, #7
 1549 0008 0AD8     		bhi	.L169
 1550              	.LVL138:
 1551              	.L167:
 876:Generated_Source\PSoC4/CyDMA.c ****     CYASSERT((descriptor >= 0) && (descriptor < CYDMA_DESCR_NR));
 1552              		.loc 1 876 0
 1553 000a 012C     		cmp	r4, #1
 1554 000c 02D9     		bls	.L168
 1555              		.loc 1 876 0 is_stmt 0 discriminator 1
 1556 000e 0020     		movs	r0, #0
 1557 0010 FFF7FEFF 		bl	CyHalt
 1558              	.LVL139:
 1559              	.L168:
 877:Generated_Source\PSoC4/CyDMA.c **** 
 878:Generated_Source\PSoC4/CyDMA.c ****     return (CYDMA_DESCR_BASE.descriptor[channel][descriptor].src);
 1560              		.loc 1 878 0 is_stmt 1
 1561 0014 6D00     		lsls	r5, r5, #1
 1562              	.LVL140:
 1563 0016 2C19     		adds	r4, r5, r4
 1564              	.LVL141:
ARM GAS  C:\Users\ilya\AppData\Local\Temp\cchJq1OJ.s 			page 46


 1565 0018 034B     		ldr	r3, .L170
 1566 001a 2401     		lsls	r4, r4, #4
 1567 001c E058     		ldr	r0, [r4, r3]
 879:Generated_Source\PSoC4/CyDMA.c **** }
 1568              		.loc 1 879 0
 1569              		@ sp needed
 1570 001e 70BD     		pop	{r4, r5, r6, pc}
 1571              	.LVL142:
 1572              	.L169:
 875:Generated_Source\PSoC4/CyDMA.c ****     CYASSERT((descriptor >= 0) && (descriptor < CYDMA_DESCR_NR));
 1573              		.loc 1 875 0 discriminator 1
 1574 0020 0020     		movs	r0, #0
 1575              	.LVL143:
 1576 0022 FFF7FEFF 		bl	CyHalt
 1577              	.LVL144:
 1578 0026 F0E7     		b	.L167
 1579              	.L171:
 1580              		.align	2
 1581              	.L170:
 1582 0028 00181040 		.word	1074796544
 1583              		.cfi_endproc
 1584              	.LFE30:
 1585              		.size	CyDmaGetSrcAddress, .-CyDmaGetSrcAddress
 1586              		.section	.text.CyDmaSetDstAddress,"ax",%progbits
 1587              		.align	2
 1588              		.global	CyDmaSetDstAddress
 1589              		.code	16
 1590              		.thumb_func
 1591              		.type	CyDmaSetDstAddress, %function
 1592              	CyDmaSetDstAddress:
 1593              	.LFB31:
 880:Generated_Source\PSoC4/CyDMA.c **** 
 881:Generated_Source\PSoC4/CyDMA.c **** 
 882:Generated_Source\PSoC4/CyDMA.c **** /*******************************************************************************
 883:Generated_Source\PSoC4/CyDMA.c **** * Function Name: CyDmaSetDstAddress
 884:Generated_Source\PSoC4/CyDMA.c **** ********************************************************************************
 885:Generated_Source\PSoC4/CyDMA.c **** *
 886:Generated_Source\PSoC4/CyDMA.c **** * Summary:
 887:Generated_Source\PSoC4/CyDMA.c **** *  Configures the destination address for the specified descriptor.
 888:Generated_Source\PSoC4/CyDMA.c **** *
 889:Generated_Source\PSoC4/CyDMA.c **** * Parameters:
 890:Generated_Source\PSoC4/CyDMA.c **** *  channel:    Channel used by this function.
 891:Generated_Source\PSoC4/CyDMA.c **** *  descriptor: Descriptor (0 or 1) modified by this function.
 892:Generated_Source\PSoC4/CyDMA.c **** *  dstAddress: Address of DMA transfer destination.
 893:Generated_Source\PSoC4/CyDMA.c **** *                   
 894:Generated_Source\PSoC4/CyDMA.c **** * Return:
 895:Generated_Source\PSoC4/CyDMA.c **** *  None.
 896:Generated_Source\PSoC4/CyDMA.c **** *
 897:Generated_Source\PSoC4/CyDMA.c **** * Side effect:
 898:Generated_Source\PSoC4/CyDMA.c **** *  This function should not be called when the specified descriptor is active
 899:Generated_Source\PSoC4/CyDMA.c **** *  in the DMA transfer engine. This can be checked by calling CyDmaGetStatus(). 
 900:Generated_Source\PSoC4/CyDMA.c **** *
 901:Generated_Source\PSoC4/CyDMA.c **** *******************************************************************************/
 902:Generated_Source\PSoC4/CyDMA.c **** void CyDmaSetDstAddress(int32 channel, int32 descriptor, void * dstAddress)
 903:Generated_Source\PSoC4/CyDMA.c **** {
 1594              		.loc 1 903 0
 1595              		.cfi_startproc
ARM GAS  C:\Users\ilya\AppData\Local\Temp\cchJq1OJ.s 			page 47


 1596              		@ args = 0, pretend = 0, frame = 0
 1597              		@ frame_needed = 0, uses_anonymous_args = 0
 1598              	.LVL145:
 1599 0000 70B5     		push	{r4, r5, r6, lr}
 1600              		.cfi_def_cfa_offset 16
 1601              		.cfi_offset 4, -16
 1602              		.cfi_offset 5, -12
 1603              		.cfi_offset 6, -8
 1604              		.cfi_offset 14, -4
 1605              		.loc 1 903 0
 1606 0002 0500     		movs	r5, r0
 1607 0004 0C00     		movs	r4, r1
 1608 0006 1600     		movs	r6, r2
 904:Generated_Source\PSoC4/CyDMA.c ****     CYASSERT((channel    >= 0) && (channel    < CYDMA_CH_NR));
 1609              		.loc 1 904 0
 1610 0008 0728     		cmp	r0, #7
 1611 000a 0CD8     		bhi	.L175
 1612              	.LVL146:
 1613              	.L173:
 905:Generated_Source\PSoC4/CyDMA.c ****     CYASSERT((descriptor >= 0) && (descriptor < CYDMA_DESCR_NR));
 1614              		.loc 1 905 0
 1615 000c 012C     		cmp	r4, #1
 1616 000e 02D9     		bls	.L174
 1617              		.loc 1 905 0 is_stmt 0 discriminator 1
 1618 0010 0020     		movs	r0, #0
 1619 0012 FFF7FEFF 		bl	CyHalt
 1620              	.LVL147:
 1621              	.L174:
 906:Generated_Source\PSoC4/CyDMA.c **** 
 907:Generated_Source\PSoC4/CyDMA.c ****     CYDMA_DESCR_BASE.descriptor[channel][descriptor].dst = dstAddress;
 1622              		.loc 1 907 0 is_stmt 1
 1623 0016 064B     		ldr	r3, .L176
 1624 0018 6D00     		lsls	r5, r5, #1
 1625              	.LVL148:
 1626 001a 9C46     		mov	ip, r3
 1627 001c 2C19     		adds	r4, r5, r4
 1628              	.LVL149:
 1629 001e 2401     		lsls	r4, r4, #4
 1630 0020 6444     		add	r4, r4, ip
 1631 0022 6660     		str	r6, [r4, #4]
 908:Generated_Source\PSoC4/CyDMA.c **** }
 1632              		.loc 1 908 0
 1633              		@ sp needed
 1634              	.LVL150:
 1635 0024 70BD     		pop	{r4, r5, r6, pc}
 1636              	.LVL151:
 1637              	.L175:
 904:Generated_Source\PSoC4/CyDMA.c ****     CYASSERT((descriptor >= 0) && (descriptor < CYDMA_DESCR_NR));
 1638              		.loc 1 904 0 discriminator 1
 1639 0026 0020     		movs	r0, #0
 1640              	.LVL152:
 1641 0028 FFF7FEFF 		bl	CyHalt
 1642              	.LVL153:
 1643 002c EEE7     		b	.L173
 1644              	.L177:
 1645 002e C046     		.align	2
 1646              	.L176:
ARM GAS  C:\Users\ilya\AppData\Local\Temp\cchJq1OJ.s 			page 48


 1647 0030 00181040 		.word	1074796544
 1648              		.cfi_endproc
 1649              	.LFE31:
 1650              		.size	CyDmaSetDstAddress, .-CyDmaSetDstAddress
 1651              		.section	.text.CyDmaGetDstAddress,"ax",%progbits
 1652              		.align	2
 1653              		.global	CyDmaGetDstAddress
 1654              		.code	16
 1655              		.thumb_func
 1656              		.type	CyDmaGetDstAddress, %function
 1657              	CyDmaGetDstAddress:
 1658              	.LFB32:
 909:Generated_Source\PSoC4/CyDMA.c **** 
 910:Generated_Source\PSoC4/CyDMA.c **** 
 911:Generated_Source\PSoC4/CyDMA.c **** /*******************************************************************************
 912:Generated_Source\PSoC4/CyDMA.c **** * Function Name: CyDmaGetDstAddress
 913:Generated_Source\PSoC4/CyDMA.c **** ********************************************************************************
 914:Generated_Source\PSoC4/CyDMA.c **** *
 915:Generated_Source\PSoC4/CyDMA.c **** * Summary:
 916:Generated_Source\PSoC4/CyDMA.c **** *  Returns the destination address for the specified descriptor, set by 
 917:Generated_Source\PSoC4/CyDMA.c **** *  CyDmaSetDstAddress().
 918:Generated_Source\PSoC4/CyDMA.c **** *
 919:Generated_Source\PSoC4/CyDMA.c **** * Parameters:
 920:Generated_Source\PSoC4/CyDMA.c **** *  channel:    Channel used by this function.
 921:Generated_Source\PSoC4/CyDMA.c **** *  descriptor: Specifies descriptor (0 or 1) used by this function.
 922:Generated_Source\PSoC4/CyDMA.c **** *                   
 923:Generated_Source\PSoC4/CyDMA.c **** * Return:
 924:Generated_Source\PSoC4/CyDMA.c **** *  Destination address written to specified descriptor.
 925:Generated_Source\PSoC4/CyDMA.c **** *
 926:Generated_Source\PSoC4/CyDMA.c **** *******************************************************************************/
 927:Generated_Source\PSoC4/CyDMA.c **** void * CyDmaGetDstAddress(int32 channel, int32 descriptor)
 928:Generated_Source\PSoC4/CyDMA.c **** {
 1659              		.loc 1 928 0
 1660              		.cfi_startproc
 1661              		@ args = 0, pretend = 0, frame = 0
 1662              		@ frame_needed = 0, uses_anonymous_args = 0
 1663              	.LVL154:
 1664 0000 70B5     		push	{r4, r5, r6, lr}
 1665              		.cfi_def_cfa_offset 16
 1666              		.cfi_offset 4, -16
 1667              		.cfi_offset 5, -12
 1668              		.cfi_offset 6, -8
 1669              		.cfi_offset 14, -4
 1670              		.loc 1 928 0
 1671 0002 0500     		movs	r5, r0
 1672 0004 0C00     		movs	r4, r1
 929:Generated_Source\PSoC4/CyDMA.c ****     CYASSERT((channel    >= 0) && (channel    < CYDMA_CH_NR));
 1673              		.loc 1 929 0
 1674 0006 0728     		cmp	r0, #7
 1675 0008 0CD8     		bhi	.L181
 1676              	.LVL155:
 1677              	.L179:
 930:Generated_Source\PSoC4/CyDMA.c ****     CYASSERT((descriptor >= 0) && (descriptor < CYDMA_DESCR_NR));
 1678              		.loc 1 930 0
 1679 000a 012C     		cmp	r4, #1
 1680 000c 02D9     		bls	.L180
 1681              		.loc 1 930 0 is_stmt 0 discriminator 1
ARM GAS  C:\Users\ilya\AppData\Local\Temp\cchJq1OJ.s 			page 49


 1682 000e 0020     		movs	r0, #0
 1683 0010 FFF7FEFF 		bl	CyHalt
 1684              	.LVL156:
 1685              	.L180:
 931:Generated_Source\PSoC4/CyDMA.c **** 
 932:Generated_Source\PSoC4/CyDMA.c ****     return (CYDMA_DESCR_BASE.descriptor[channel][descriptor].dst);
 1686              		.loc 1 932 0 is_stmt 1
 1687 0014 054B     		ldr	r3, .L182
 1688 0016 6D00     		lsls	r5, r5, #1
 1689              	.LVL157:
 1690 0018 9C46     		mov	ip, r3
 1691 001a 2C19     		adds	r4, r5, r4
 1692              	.LVL158:
 1693 001c 2401     		lsls	r4, r4, #4
 1694 001e 6444     		add	r4, r4, ip
 1695 0020 6068     		ldr	r0, [r4, #4]
 933:Generated_Source\PSoC4/CyDMA.c **** }
 1696              		.loc 1 933 0
 1697              		@ sp needed
 1698 0022 70BD     		pop	{r4, r5, r6, pc}
 1699              	.LVL159:
 1700              	.L181:
 929:Generated_Source\PSoC4/CyDMA.c ****     CYASSERT((descriptor >= 0) && (descriptor < CYDMA_DESCR_NR));
 1701              		.loc 1 929 0 discriminator 1
 1702 0024 0020     		movs	r0, #0
 1703              	.LVL160:
 1704 0026 FFF7FEFF 		bl	CyHalt
 1705              	.LVL161:
 1706 002a EEE7     		b	.L179
 1707              	.L183:
 1708              		.align	2
 1709              	.L182:
 1710 002c 00181040 		.word	1074796544
 1711              		.cfi_endproc
 1712              	.LFE32:
 1713              		.size	CyDmaGetDstAddress, .-CyDmaGetDstAddress
 1714              		.section	.text.CyDmaSetDataElementSize,"ax",%progbits
 1715              		.align	2
 1716              		.global	CyDmaSetDataElementSize
 1717              		.code	16
 1718              		.thumb_func
 1719              		.type	CyDmaSetDataElementSize, %function
 1720              	CyDmaSetDataElementSize:
 1721              	.LFB33:
 934:Generated_Source\PSoC4/CyDMA.c **** 
 935:Generated_Source\PSoC4/CyDMA.c **** /*******************************************************************************
 936:Generated_Source\PSoC4/CyDMA.c **** * Function Name: CyDmaSetDataElementSize
 937:Generated_Source\PSoC4/CyDMA.c **** ********************************************************************************
 938:Generated_Source\PSoC4/CyDMA.c **** *
 939:Generated_Source\PSoC4/CyDMA.c **** * Summary:
 940:Generated_Source\PSoC4/CyDMA.c **** *  Sets the data element size for the specified descriptor.
 941:Generated_Source\PSoC4/CyDMA.c **** *
 942:Generated_Source\PSoC4/CyDMA.c **** * Parameters:
 943:Generated_Source\PSoC4/CyDMA.c **** *  channel:         Channel used by this function.
 944:Generated_Source\PSoC4/CyDMA.c **** *  descriptor:      Descriptor (0 or 1) modified by this function.
 945:Generated_Source\PSoC4/CyDMA.c **** *  dataElementSize: Specifies the size of the data element. The DMA transfer
 946:Generated_Source\PSoC4/CyDMA.c **** *                   engine transfers one data element at a time. How these
ARM GAS  C:\Users\ilya\AppData\Local\Temp\cchJq1OJ.s 			page 50


 947:Generated_Source\PSoC4/CyDMA.c **** *                   transfers occur is controlled by the transfer mode.
 948:Generated_Source\PSoC4/CyDMA.c **** *                   Refer to the API bit field definitions in CyDMA_P4.h
 949:Generated_Source\PSoC4/CyDMA.c **** *                   or API description in the DMA channel datasheet for the 
 950:Generated_Source\PSoC4/CyDMA.c **** *                   parameter options.
 951:Generated_Source\PSoC4/CyDMA.c **** *
 952:Generated_Source\PSoC4/CyDMA.c **** * Return:
 953:Generated_Source\PSoC4/CyDMA.c **** *  None.
 954:Generated_Source\PSoC4/CyDMA.c **** *
 955:Generated_Source\PSoC4/CyDMA.c **** * Side effect:
 956:Generated_Source\PSoC4/CyDMA.c **** *  This function should not be called when the specified descriptor is active
 957:Generated_Source\PSoC4/CyDMA.c **** *  in the DMA transfer engine. This can be checked by calling CyDmaGetStatus(). 
 958:Generated_Source\PSoC4/CyDMA.c **** *
 959:Generated_Source\PSoC4/CyDMA.c **** *******************************************************************************/
 960:Generated_Source\PSoC4/CyDMA.c **** void CyDmaSetDataElementSize(int32 channel, int32 descriptor, uint32 dataElementSize)
 961:Generated_Source\PSoC4/CyDMA.c **** {
 1722              		.loc 1 961 0
 1723              		.cfi_startproc
 1724              		@ args = 0, pretend = 0, frame = 0
 1725              		@ frame_needed = 0, uses_anonymous_args = 0
 1726              	.LVL162:
 1727 0000 70B5     		push	{r4, r5, r6, lr}
 1728              		.cfi_def_cfa_offset 16
 1729              		.cfi_offset 4, -16
 1730              		.cfi_offset 5, -12
 1731              		.cfi_offset 6, -8
 1732              		.cfi_offset 14, -4
 1733              		.loc 1 961 0
 1734 0002 0600     		movs	r6, r0
 1735 0004 0C00     		movs	r4, r1
 1736 0006 1500     		movs	r5, r2
 962:Generated_Source\PSoC4/CyDMA.c ****     uint32 regValue;
 963:Generated_Source\PSoC4/CyDMA.c ****     
 964:Generated_Source\PSoC4/CyDMA.c ****     CYASSERT((channel    >= 0) && (channel    < CYDMA_CH_NR));
 1737              		.loc 1 964 0
 1738 0008 0728     		cmp	r0, #7
 1739 000a 16D8     		bhi	.L191
 1740              	.LVL163:
 1741              	.L185:
 965:Generated_Source\PSoC4/CyDMA.c ****     CYASSERT((descriptor >= 0) && (descriptor < CYDMA_DESCR_NR));
 1742              		.loc 1 965 0
 1743 000c 012C     		cmp	r4, #1
 1744 000e 02D9     		bls	.L186
 1745              		.loc 1 965 0 is_stmt 0 discriminator 1
 1746 0010 0020     		movs	r0, #0
 1747 0012 FFF7FEFF 		bl	CyHalt
 1748              	.LVL164:
 1749              	.L186:
 966:Generated_Source\PSoC4/CyDMA.c ****     CYASSERT(0u == (dataElementSize & (uint32)~CYDMA_DATA_SIZE));
 1750              		.loc 1 966 0 is_stmt 1
 1751 0016 0B4B     		ldr	r3, .L192
 1752 0018 1D42     		tst	r5, r3
 1753 001a 02D0     		beq	.L187
 1754              		.loc 1 966 0 is_stmt 0 discriminator 1
 1755 001c 0020     		movs	r0, #0
 1756 001e FFF7FEFF 		bl	CyHalt
 1757              	.LVL165:
 1758              	.L187:
ARM GAS  C:\Users\ilya\AppData\Local\Temp\cchJq1OJ.s 			page 51


 967:Generated_Source\PSoC4/CyDMA.c **** 
 968:Generated_Source\PSoC4/CyDMA.c ****     regValue = CYDMA_DESCR_BASE.descriptor[channel][descriptor].ctl & (uint32)~CYDMA_DATA_SIZE;
 1759              		.loc 1 968 0 is_stmt 1
 1760 0022 094B     		ldr	r3, .L192+4
 1761 0024 7600     		lsls	r6, r6, #1
 1762              	.LVL166:
 1763 0026 9C46     		mov	ip, r3
 1764 0028 3419     		adds	r4, r6, r4
 1765              	.LVL167:
 1766 002a 2401     		lsls	r4, r4, #4
 1767 002c 6444     		add	r4, r4, ip
 1768 002e A268     		ldr	r2, [r4, #8]
 1769              	.LVL168:
 969:Generated_Source\PSoC4/CyDMA.c ****     CYDMA_DESCR_BASE.descriptor[channel][descriptor].ctl = regValue | dataElementSize;
 1770              		.loc 1 969 0
 1771 0030 044B     		ldr	r3, .L192
 970:Generated_Source\PSoC4/CyDMA.c **** }
 1772              		.loc 1 970 0
 1773              		@ sp needed
 969:Generated_Source\PSoC4/CyDMA.c ****     CYDMA_DESCR_BASE.descriptor[channel][descriptor].ctl = regValue | dataElementSize;
 1774              		.loc 1 969 0
 1775 0032 1340     		ands	r3, r2
 1776              	.LVL169:
 1777 0034 1D43     		orrs	r5, r3
 1778              	.LVL170:
 1779 0036 A560     		str	r5, [r4, #8]
 1780              		.loc 1 970 0
 1781 0038 70BD     		pop	{r4, r5, r6, pc}
 1782              	.LVL171:
 1783              	.L191:
 964:Generated_Source\PSoC4/CyDMA.c ****     CYASSERT((descriptor >= 0) && (descriptor < CYDMA_DESCR_NR));
 1784              		.loc 1 964 0 discriminator 1
 1785 003a 0020     		movs	r0, #0
 1786              	.LVL172:
 1787 003c FFF7FEFF 		bl	CyHalt
 1788              	.LVL173:
 1789 0040 E4E7     		b	.L185
 1790              	.L193:
 1791 0042 C046     		.align	2
 1792              	.L192:
 1793 0044 FFFFFCFF 		.word	-196609
 1794 0048 00181040 		.word	1074796544
 1795              		.cfi_endproc
 1796              	.LFE33:
 1797              		.size	CyDmaSetDataElementSize, .-CyDmaSetDataElementSize
 1798              		.section	.text.CyDmaGetDataElementSize,"ax",%progbits
 1799              		.align	2
 1800              		.global	CyDmaGetDataElementSize
 1801              		.code	16
 1802              		.thumb_func
 1803              		.type	CyDmaGetDataElementSize, %function
 1804              	CyDmaGetDataElementSize:
 1805              	.LFB34:
 971:Generated_Source\PSoC4/CyDMA.c **** 
 972:Generated_Source\PSoC4/CyDMA.c **** 
 973:Generated_Source\PSoC4/CyDMA.c **** /*******************************************************************************
 974:Generated_Source\PSoC4/CyDMA.c **** * Function Name: CyDmaGetDataElementSize
ARM GAS  C:\Users\ilya\AppData\Local\Temp\cchJq1OJ.s 			page 52


 975:Generated_Source\PSoC4/CyDMA.c **** ********************************************************************************
 976:Generated_Source\PSoC4/CyDMA.c **** *
 977:Generated_Source\PSoC4/CyDMA.c **** * Summary:
 978:Generated_Source\PSoC4/CyDMA.c **** *  Returns the data element size configured for the specified descriptor, set by
 979:Generated_Source\PSoC4/CyDMA.c **** *  CyDmaSetDataElementSize() or CyDmaSetConfiguration.
 980:Generated_Source\PSoC4/CyDMA.c **** *
 981:Generated_Source\PSoC4/CyDMA.c **** * Parameters:
 982:Generated_Source\PSoC4/CyDMA.c **** *  channel:    Channel used by this function.
 983:Generated_Source\PSoC4/CyDMA.c **** *  descriptor: Descriptor (0 or 1) modified by this function.
 984:Generated_Source\PSoC4/CyDMA.c **** *                   
 985:Generated_Source\PSoC4/CyDMA.c **** * Return:
 986:Generated_Source\PSoC4/CyDMA.c **** *  The size of the data element. The DMA transfer engine transfers one data
 987:Generated_Source\PSoC4/CyDMA.c **** *  element at a time. How these transfers occur is controlled by the transfer
 988:Generated_Source\PSoC4/CyDMA.c **** *  mode. Refer to the API bit field definitions in CyDMA_P4.h or the API 
 989:Generated_Source\PSoC4/CyDMA.c **** *  description in the DMA channel datasheet for more information.
 990:Generated_Source\PSoC4/CyDMA.c **** *
 991:Generated_Source\PSoC4/CyDMA.c **** * Note:
 992:Generated_Source\PSoC4/CyDMA.c **** *  The size of the source and destination can be configured to use the
 993:Generated_Source\PSoC4/CyDMA.c **** *  data element size, or a Word, this is set in CyDmaSetSrcDstTransferWidth().
 994:Generated_Source\PSoC4/CyDMA.c **** *
 995:Generated_Source\PSoC4/CyDMA.c **** *******************************************************************************/
 996:Generated_Source\PSoC4/CyDMA.c **** uint32 CyDmaGetDataElementSize(int32 channel, int32 descriptor)
 997:Generated_Source\PSoC4/CyDMA.c **** {
 1806              		.loc 1 997 0
 1807              		.cfi_startproc
 1808              		@ args = 0, pretend = 0, frame = 0
 1809              		@ frame_needed = 0, uses_anonymous_args = 0
 1810              	.LVL174:
 1811 0000 70B5     		push	{r4, r5, r6, lr}
 1812              		.cfi_def_cfa_offset 16
 1813              		.cfi_offset 4, -16
 1814              		.cfi_offset 5, -12
 1815              		.cfi_offset 6, -8
 1816              		.cfi_offset 14, -4
 1817              		.loc 1 997 0
 1818 0002 0500     		movs	r5, r0
 1819 0004 0C00     		movs	r4, r1
 998:Generated_Source\PSoC4/CyDMA.c ****     CYASSERT((channel    >= 0) && (channel    < CYDMA_CH_NR));
 1820              		.loc 1 998 0
 1821 0006 0728     		cmp	r0, #7
 1822 0008 0FD8     		bhi	.L197
 1823              	.LVL175:
 1824              	.L195:
 999:Generated_Source\PSoC4/CyDMA.c ****     CYASSERT((descriptor >= 0) && (descriptor < CYDMA_DESCR_NR));
 1825              		.loc 1 999 0
 1826 000a 012C     		cmp	r4, #1
 1827 000c 02D9     		bls	.L196
 1828              		.loc 1 999 0 is_stmt 0 discriminator 1
 1829 000e 0020     		movs	r0, #0
 1830 0010 FFF7FEFF 		bl	CyHalt
 1831              	.LVL176:
 1832              	.L196:
1000:Generated_Source\PSoC4/CyDMA.c **** 
1001:Generated_Source\PSoC4/CyDMA.c ****     return (CYDMA_DESCR_BASE.descriptor[channel][descriptor].ctl & CYDMA_DATA_SIZE);
 1833              		.loc 1 1001 0 is_stmt 1
 1834 0014 074B     		ldr	r3, .L198
 1835 0016 6D00     		lsls	r5, r5, #1
ARM GAS  C:\Users\ilya\AppData\Local\Temp\cchJq1OJ.s 			page 53


 1836              	.LVL177:
 1837 0018 9C46     		mov	ip, r3
 1838 001a C023     		movs	r3, #192
 1839 001c 2C19     		adds	r4, r5, r4
 1840              	.LVL178:
 1841 001e 2401     		lsls	r4, r4, #4
 1842 0020 6444     		add	r4, r4, ip
 1843 0022 A068     		ldr	r0, [r4, #8]
 1844 0024 9B02     		lsls	r3, r3, #10
 1845 0026 1840     		ands	r0, r3
1002:Generated_Source\PSoC4/CyDMA.c **** }
 1846              		.loc 1 1002 0
 1847              		@ sp needed
 1848 0028 70BD     		pop	{r4, r5, r6, pc}
 1849              	.LVL179:
 1850              	.L197:
 998:Generated_Source\PSoC4/CyDMA.c ****     CYASSERT((descriptor >= 0) && (descriptor < CYDMA_DESCR_NR));
 1851              		.loc 1 998 0 discriminator 1
 1852 002a 0020     		movs	r0, #0
 1853              	.LVL180:
 1854 002c FFF7FEFF 		bl	CyHalt
 1855              	.LVL181:
 1856 0030 EBE7     		b	.L195
 1857              	.L199:
 1858 0032 C046     		.align	2
 1859              	.L198:
 1860 0034 00181040 		.word	1074796544
 1861              		.cfi_endproc
 1862              	.LFE34:
 1863              		.size	CyDmaGetDataElementSize, .-CyDmaGetDataElementSize
 1864              		.section	.text.CyDmaSetNumDataElements,"ax",%progbits
 1865              		.align	2
 1866              		.global	CyDmaSetNumDataElements
 1867              		.code	16
 1868              		.thumb_func
 1869              		.type	CyDmaSetNumDataElements, %function
 1870              	CyDmaSetNumDataElements:
 1871              	.LFB35:
1003:Generated_Source\PSoC4/CyDMA.c **** 
1004:Generated_Source\PSoC4/CyDMA.c **** 
1005:Generated_Source\PSoC4/CyDMA.c **** /*******************************************************************************
1006:Generated_Source\PSoC4/CyDMA.c **** * Function Name: CyDmaSetNumDataElements
1007:Generated_Source\PSoC4/CyDMA.c **** ********************************************************************************
1008:Generated_Source\PSoC4/CyDMA.c **** *
1009:Generated_Source\PSoC4/CyDMA.c **** * Summary:
1010:Generated_Source\PSoC4/CyDMA.c **** *  Sets the number of data elements to transfer for specified descriptor.
1011:Generated_Source\PSoC4/CyDMA.c **** *
1012:Generated_Source\PSoC4/CyDMA.c **** * Parameters:
1013:Generated_Source\PSoC4/CyDMA.c **** *  channel:         Channel used by this function.
1014:Generated_Source\PSoC4/CyDMA.c **** *  descriptor:      Descriptor (0 or 1) modified by this function.
1015:Generated_Source\PSoC4/CyDMA.c **** *  numDataElements: Total number of data elements this descriptor transfers.
1016:Generated_Source\PSoC4/CyDMA.c **** *                   Valid ranges are 1 to 65536.
1017:Generated_Source\PSoC4/CyDMA.c **** *                   
1018:Generated_Source\PSoC4/CyDMA.c **** * Return:
1019:Generated_Source\PSoC4/CyDMA.c **** *  None.
1020:Generated_Source\PSoC4/CyDMA.c **** *
1021:Generated_Source\PSoC4/CyDMA.c **** * Side effect:
ARM GAS  C:\Users\ilya\AppData\Local\Temp\cchJq1OJ.s 			page 54


1022:Generated_Source\PSoC4/CyDMA.c **** *  This function should not be called when the specified descriptor is active
1023:Generated_Source\PSoC4/CyDMA.c **** *  in the DMA transfer engine. This can be checked by calling CyDmaGetStatus(). 
1024:Generated_Source\PSoC4/CyDMA.c **** *
1025:Generated_Source\PSoC4/CyDMA.c **** *******************************************************************************/
1026:Generated_Source\PSoC4/CyDMA.c **** void CyDmaSetNumDataElements(int32 channel, int32 descriptor, int32 numDataElements)
1027:Generated_Source\PSoC4/CyDMA.c **** {
 1872              		.loc 1 1027 0
 1873              		.cfi_startproc
 1874              		@ args = 0, pretend = 0, frame = 0
 1875              		@ frame_needed = 0, uses_anonymous_args = 0
 1876              	.LVL182:
 1877 0000 70B5     		push	{r4, r5, r6, lr}
 1878              		.cfi_def_cfa_offset 16
 1879              		.cfi_offset 4, -16
 1880              		.cfi_offset 5, -12
 1881              		.cfi_offset 6, -8
 1882              		.cfi_offset 14, -4
 1883              		.loc 1 1027 0
 1884 0002 0600     		movs	r6, r0
 1885 0004 0C00     		movs	r4, r1
 1886 0006 1500     		movs	r5, r2
1028:Generated_Source\PSoC4/CyDMA.c ****     uint32 regValue;
1029:Generated_Source\PSoC4/CyDMA.c ****     
1030:Generated_Source\PSoC4/CyDMA.c ****     CYASSERT((channel        >= 0) && (channel         <  CYDMA_CH_NR));
 1887              		.loc 1 1030 0
 1888 0008 0728     		cmp	r0, #7
 1889 000a 17D8     		bhi	.L204
 1890              	.LVL183:
 1891              	.L201:
1031:Generated_Source\PSoC4/CyDMA.c ****     CYASSERT((descriptor     >= 0) && (descriptor      <  CYDMA_DESCR_NR));
 1892              		.loc 1 1031 0
 1893 000c 012C     		cmp	r4, #1
 1894 000e 02D9     		bls	.L202
 1895              		.loc 1 1031 0 is_stmt 0 discriminator 1
 1896 0010 0020     		movs	r0, #0
 1897 0012 FFF7FEFF 		bl	CyHalt
 1898              	.LVL184:
 1899              	.L202:
1032:Generated_Source\PSoC4/CyDMA.c ****     CYASSERT((numDataElements > 0) && (numDataElements <= CYDMA_MAX_DATA_NR));
 1900              		.loc 1 1032 0 is_stmt 1
 1901 0016 0B4B     		ldr	r3, .L205
 1902 0018 013D     		subs	r5, r5, #1
 1903              	.LVL185:
 1904 001a 9D42     		cmp	r5, r3
 1905 001c 02D9     		bls	.L203
 1906              		.loc 1 1032 0 is_stmt 0 discriminator 1
 1907 001e 0020     		movs	r0, #0
 1908 0020 FFF7FEFF 		bl	CyHalt
 1909              	.LVL186:
 1910              	.L203:
1033:Generated_Source\PSoC4/CyDMA.c ****     
1034:Generated_Source\PSoC4/CyDMA.c ****     --numDataElements;
1035:Generated_Source\PSoC4/CyDMA.c ****     regValue = CYDMA_DESCR_BASE.descriptor[channel][descriptor].ctl & (uint32)~CYDMA_DATA_NR;
 1911              		.loc 1 1035 0 is_stmt 1
 1912 0024 084B     		ldr	r3, .L205+4
 1913 0026 7600     		lsls	r6, r6, #1
 1914              	.LVL187:
ARM GAS  C:\Users\ilya\AppData\Local\Temp\cchJq1OJ.s 			page 55


 1915 0028 9C46     		mov	ip, r3
 1916 002a 3419     		adds	r4, r6, r4
 1917              	.LVL188:
 1918 002c 2401     		lsls	r4, r4, #4
 1919 002e 6444     		add	r4, r4, ip
 1920 0030 A368     		ldr	r3, [r4, #8]
 1921              	.LVL189:
1036:Generated_Source\PSoC4/CyDMA.c ****     CYDMA_DESCR_BASE.descriptor[channel][descriptor].ctl = regValue | (uint32)numDataElements;
1037:Generated_Source\PSoC4/CyDMA.c **** }
 1922              		.loc 1 1037 0
 1923              		@ sp needed
1036:Generated_Source\PSoC4/CyDMA.c ****     CYDMA_DESCR_BASE.descriptor[channel][descriptor].ctl = regValue | (uint32)numDataElements;
 1924              		.loc 1 1036 0
 1925 0032 1B0C     		lsrs	r3, r3, #16
 1926              	.LVL190:
 1927 0034 1B04     		lsls	r3, r3, #16
 1928 0036 1D43     		orrs	r5, r3
 1929              	.LVL191:
 1930 0038 A560     		str	r5, [r4, #8]
 1931              		.loc 1 1037 0
 1932 003a 70BD     		pop	{r4, r5, r6, pc}
 1933              	.LVL192:
 1934              	.L204:
1030:Generated_Source\PSoC4/CyDMA.c ****     CYASSERT((descriptor     >= 0) && (descriptor      <  CYDMA_DESCR_NR));
 1935              		.loc 1 1030 0 discriminator 1
 1936 003c 0020     		movs	r0, #0
 1937              	.LVL193:
 1938 003e FFF7FEFF 		bl	CyHalt
 1939              	.LVL194:
 1940 0042 E3E7     		b	.L201
 1941              	.L206:
 1942              		.align	2
 1943              	.L205:
 1944 0044 FFFF0000 		.word	65535
 1945 0048 00181040 		.word	1074796544
 1946              		.cfi_endproc
 1947              	.LFE35:
 1948              		.size	CyDmaSetNumDataElements, .-CyDmaSetNumDataElements
 1949              		.section	.text.CyDmaGetNumDataElements,"ax",%progbits
 1950              		.align	2
 1951              		.global	CyDmaGetNumDataElements
 1952              		.code	16
 1953              		.thumb_func
 1954              		.type	CyDmaGetNumDataElements, %function
 1955              	CyDmaGetNumDataElements:
 1956              	.LFB36:
1038:Generated_Source\PSoC4/CyDMA.c **** 
1039:Generated_Source\PSoC4/CyDMA.c **** 
1040:Generated_Source\PSoC4/CyDMA.c **** /*******************************************************************************
1041:Generated_Source\PSoC4/CyDMA.c **** * Function Name: CyDmaGetNumDataElements
1042:Generated_Source\PSoC4/CyDMA.c **** ********************************************************************************
1043:Generated_Source\PSoC4/CyDMA.c **** *
1044:Generated_Source\PSoC4/CyDMA.c **** * Summary:
1045:Generated_Source\PSoC4/CyDMA.c **** *  Returns the number of data elements to be transferred. Only reflects the
1046:Generated_Source\PSoC4/CyDMA.c **** *  value written by CyDmaSetNumDataElements() or CyDmaSetConfiguration(). This
1047:Generated_Source\PSoC4/CyDMA.c **** *  does not reflect how many elements have been transferred. For that
1048:Generated_Source\PSoC4/CyDMA.c **** *  information use the CyDmaGetDescriptorStatus() function.
ARM GAS  C:\Users\ilya\AppData\Local\Temp\cchJq1OJ.s 			page 56


1049:Generated_Source\PSoC4/CyDMA.c **** *
1050:Generated_Source\PSoC4/CyDMA.c **** * Parameters:
1051:Generated_Source\PSoC4/CyDMA.c **** *  channel:    Channel used by this function.
1052:Generated_Source\PSoC4/CyDMA.c **** *  descriptor: Descriptor (0 or 1) modified by this function.
1053:Generated_Source\PSoC4/CyDMA.c **** *                   
1054:Generated_Source\PSoC4/CyDMA.c **** * Return:
1055:Generated_Source\PSoC4/CyDMA.c **** *  Number of data elements to transfer.
1056:Generated_Source\PSoC4/CyDMA.c **** *
1057:Generated_Source\PSoC4/CyDMA.c **** *******************************************************************************/
1058:Generated_Source\PSoC4/CyDMA.c **** int32 CyDmaGetNumDataElements(int32 channel, int32 descriptor)
1059:Generated_Source\PSoC4/CyDMA.c **** {
 1957              		.loc 1 1059 0
 1958              		.cfi_startproc
 1959              		@ args = 0, pretend = 0, frame = 0
 1960              		@ frame_needed = 0, uses_anonymous_args = 0
 1961              	.LVL195:
 1962 0000 70B5     		push	{r4, r5, r6, lr}
 1963              		.cfi_def_cfa_offset 16
 1964              		.cfi_offset 4, -16
 1965              		.cfi_offset 5, -12
 1966              		.cfi_offset 6, -8
 1967              		.cfi_offset 14, -4
 1968              		.loc 1 1059 0
 1969 0002 0500     		movs	r5, r0
 1970 0004 0C00     		movs	r4, r1
1060:Generated_Source\PSoC4/CyDMA.c ****     uint32 numElements;
1061:Generated_Source\PSoC4/CyDMA.c **** 
1062:Generated_Source\PSoC4/CyDMA.c ****     CYASSERT((channel    >= 0) && (channel    < CYDMA_CH_NR));
 1971              		.loc 1 1062 0
 1972 0006 0728     		cmp	r0, #7
 1973 0008 0FD8     		bhi	.L210
 1974              	.LVL196:
 1975              	.L208:
1063:Generated_Source\PSoC4/CyDMA.c ****     CYASSERT((descriptor >= 0) && (descriptor < CYDMA_DESCR_NR));
 1976              		.loc 1 1063 0
 1977 000a 012C     		cmp	r4, #1
 1978 000c 02D9     		bls	.L209
 1979              		.loc 1 1063 0 is_stmt 0 discriminator 1
 1980 000e 0020     		movs	r0, #0
 1981 0010 FFF7FEFF 		bl	CyHalt
 1982              	.LVL197:
 1983              	.L209:
1064:Generated_Source\PSoC4/CyDMA.c ****     
1065:Generated_Source\PSoC4/CyDMA.c ****     numElements = (CYDMA_DESCR_BASE.descriptor[channel][descriptor].ctl & CYDMA_DATA_NR) + 1u;
 1984              		.loc 1 1065 0 is_stmt 1
 1985 0014 074B     		ldr	r3, .L211
 1986 0016 6D00     		lsls	r5, r5, #1
 1987              	.LVL198:
 1988 0018 9C46     		mov	ip, r3
 1989 001a 2C19     		adds	r4, r5, r4
 1990              	.LVL199:
 1991 001c 2401     		lsls	r4, r4, #4
 1992 001e 6444     		add	r4, r4, ip
 1993 0020 A068     		ldr	r0, [r4, #8]
 1994              	.LVL200:
1066:Generated_Source\PSoC4/CyDMA.c ****     return ((int32)numElements);
1067:Generated_Source\PSoC4/CyDMA.c **** }
ARM GAS  C:\Users\ilya\AppData\Local\Temp\cchJq1OJ.s 			page 57


 1995              		.loc 1 1067 0
 1996              		@ sp needed
1066:Generated_Source\PSoC4/CyDMA.c ****     return ((int32)numElements);
 1997              		.loc 1 1066 0
 1998 0022 0004     		lsls	r0, r0, #16
 1999              	.LVL201:
 2000 0024 000C     		lsrs	r0, r0, #16
 2001 0026 0130     		adds	r0, r0, #1
 2002              		.loc 1 1067 0
 2003 0028 70BD     		pop	{r4, r5, r6, pc}
 2004              	.LVL202:
 2005              	.L210:
1062:Generated_Source\PSoC4/CyDMA.c ****     CYASSERT((descriptor >= 0) && (descriptor < CYDMA_DESCR_NR));
 2006              		.loc 1 1062 0 discriminator 1
 2007 002a 0020     		movs	r0, #0
 2008              	.LVL203:
 2009 002c FFF7FEFF 		bl	CyHalt
 2010              	.LVL204:
 2011 0030 EBE7     		b	.L208
 2012              	.L212:
 2013 0032 C046     		.align	2
 2014              	.L211:
 2015 0034 00181040 		.word	1074796544
 2016              		.cfi_endproc
 2017              	.LFE36:
 2018              		.size	CyDmaGetNumDataElements, .-CyDmaGetNumDataElements
 2019              		.section	.text.CyDmaSetSrcDstTransferWidth,"ax",%progbits
 2020              		.align	2
 2021              		.global	CyDmaSetSrcDstTransferWidth
 2022              		.code	16
 2023              		.thumb_func
 2024              		.type	CyDmaSetSrcDstTransferWidth, %function
 2025              	CyDmaSetSrcDstTransferWidth:
 2026              	.LFB37:
1068:Generated_Source\PSoC4/CyDMA.c **** 
1069:Generated_Source\PSoC4/CyDMA.c **** 
1070:Generated_Source\PSoC4/CyDMA.c **** /*******************************************************************************
1071:Generated_Source\PSoC4/CyDMA.c **** * Function Name: CyDmaSetSrcDstTransferWidth
1072:Generated_Source\PSoC4/CyDMA.c **** ********************************************************************************
1073:Generated_Source\PSoC4/CyDMA.c **** *
1074:Generated_Source\PSoC4/CyDMA.c **** * Summary:
1075:Generated_Source\PSoC4/CyDMA.c **** *  Sets the width of the source and destination. The DMA can either read and
1076:Generated_Source\PSoC4/CyDMA.c **** *  write data from the source and destination at the size specified by
1077:Generated_Source\PSoC4/CyDMA.c **** *  CyDmaSetDataElementSize() or by a word (4bytes). This also determines how
1078:Generated_Source\PSoC4/CyDMA.c **** *  many bytes the addresses are incremented if increment source and destination
1079:Generated_Source\PSoC4/CyDMA.c **** *  address are turned on.
1080:Generated_Source\PSoC4/CyDMA.c **** *
1081:Generated_Source\PSoC4/CyDMA.c **** * Parameters:
1082:Generated_Source\PSoC4/CyDMA.c **** *  channel:       Channel used by this function.
1083:Generated_Source\PSoC4/CyDMA.c **** *  descriptor:    Descriptor (0 or 1) modified by this function.
1084:Generated_Source\PSoC4/CyDMA.c **** *  transferWidth: Specifies the source and destination widths. Refer to 
1085:Generated_Source\PSoC4/CyDMA.c **** *                 the API bit field definitions in CyDMA_P4.h or the API
1086:Generated_Source\PSoC4/CyDMA.c **** *                 description in the DMA channel datasheet for the parameter
1087:Generated_Source\PSoC4/CyDMA.c **** *                 options.
1088:Generated_Source\PSoC4/CyDMA.c **** *                   
1089:Generated_Source\PSoC4/CyDMA.c **** * Return:
1090:Generated_Source\PSoC4/CyDMA.c **** *  None.
ARM GAS  C:\Users\ilya\AppData\Local\Temp\cchJq1OJ.s 			page 58


1091:Generated_Source\PSoC4/CyDMA.c **** *
1092:Generated_Source\PSoC4/CyDMA.c **** * Side effect:
1093:Generated_Source\PSoC4/CyDMA.c **** *  This function should not be called when the specified descriptor is active
1094:Generated_Source\PSoC4/CyDMA.c **** *  in the DMA transfer engine. This can be checked by calling CyDmaGetStatus(). 
1095:Generated_Source\PSoC4/CyDMA.c **** *
1096:Generated_Source\PSoC4/CyDMA.c **** *******************************************************************************/
1097:Generated_Source\PSoC4/CyDMA.c **** void CyDmaSetSrcDstTransferWidth(int32 channel, int32 descriptor, uint32 transferWidth)
1098:Generated_Source\PSoC4/CyDMA.c **** {
 2027              		.loc 1 1098 0
 2028              		.cfi_startproc
 2029              		@ args = 0, pretend = 0, frame = 0
 2030              		@ frame_needed = 0, uses_anonymous_args = 0
 2031              	.LVL205:
 2032 0000 70B5     		push	{r4, r5, r6, lr}
 2033              		.cfi_def_cfa_offset 16
 2034              		.cfi_offset 4, -16
 2035              		.cfi_offset 5, -12
 2036              		.cfi_offset 6, -8
 2037              		.cfi_offset 14, -4
 2038              		.loc 1 1098 0
 2039 0002 0600     		movs	r6, r0
 2040 0004 0C00     		movs	r4, r1
 2041 0006 1500     		movs	r5, r2
1099:Generated_Source\PSoC4/CyDMA.c ****     uint32 regValue;
1100:Generated_Source\PSoC4/CyDMA.c **** 
1101:Generated_Source\PSoC4/CyDMA.c ****     CYASSERT((channel    >= 0) && (channel    < CYDMA_CH_NR));
 2042              		.loc 1 1101 0
 2043 0008 0728     		cmp	r0, #7
 2044 000a 16D8     		bhi	.L220
 2045              	.LVL206:
 2046              	.L214:
1102:Generated_Source\PSoC4/CyDMA.c ****     CYASSERT((descriptor >= 0) && (descriptor < CYDMA_DESCR_NR));
 2047              		.loc 1 1102 0
 2048 000c 012C     		cmp	r4, #1
 2049 000e 02D9     		bls	.L215
 2050              		.loc 1 1102 0 is_stmt 0 discriminator 1
 2051 0010 0020     		movs	r0, #0
 2052 0012 FFF7FEFF 		bl	CyHalt
 2053              	.LVL207:
 2054              	.L215:
1103:Generated_Source\PSoC4/CyDMA.c ****     CYASSERT(0u == (transferWidth & (uint32)~CYDMA_TRANSFER_WIDTH));
 2055              		.loc 1 1103 0 is_stmt 1
 2056 0016 0B4B     		ldr	r3, .L221
 2057 0018 1D42     		tst	r5, r3
 2058 001a 02D0     		beq	.L216
 2059              		.loc 1 1103 0 is_stmt 0 discriminator 1
 2060 001c 0020     		movs	r0, #0
 2061 001e FFF7FEFF 		bl	CyHalt
 2062              	.LVL208:
 2063              	.L216:
1104:Generated_Source\PSoC4/CyDMA.c **** 
1105:Generated_Source\PSoC4/CyDMA.c ****     regValue = CYDMA_DESCR_BASE.descriptor[channel][descriptor].ctl & (uint32)~CYDMA_TRANSFER_WIDTH
 2064              		.loc 1 1105 0 is_stmt 1
 2065 0022 094B     		ldr	r3, .L221+4
 2066 0024 7600     		lsls	r6, r6, #1
 2067              	.LVL209:
 2068 0026 9C46     		mov	ip, r3
ARM GAS  C:\Users\ilya\AppData\Local\Temp\cchJq1OJ.s 			page 59


 2069 0028 3419     		adds	r4, r6, r4
 2070              	.LVL210:
 2071 002a 2401     		lsls	r4, r4, #4
 2072 002c 6444     		add	r4, r4, ip
 2073 002e A268     		ldr	r2, [r4, #8]
 2074              	.LVL211:
1106:Generated_Source\PSoC4/CyDMA.c ****     CYDMA_DESCR_BASE.descriptor[channel][descriptor].ctl = regValue | transferWidth;
 2075              		.loc 1 1106 0
 2076 0030 044B     		ldr	r3, .L221
1107:Generated_Source\PSoC4/CyDMA.c **** }
 2077              		.loc 1 1107 0
 2078              		@ sp needed
1106:Generated_Source\PSoC4/CyDMA.c ****     CYDMA_DESCR_BASE.descriptor[channel][descriptor].ctl = regValue | transferWidth;
 2079              		.loc 1 1106 0
 2080 0032 1340     		ands	r3, r2
 2081              	.LVL212:
 2082 0034 1D43     		orrs	r5, r3
 2083              	.LVL213:
 2084 0036 A560     		str	r5, [r4, #8]
 2085              		.loc 1 1107 0
 2086 0038 70BD     		pop	{r4, r5, r6, pc}
 2087              	.LVL214:
 2088              	.L220:
1101:Generated_Source\PSoC4/CyDMA.c ****     CYASSERT((descriptor >= 0) && (descriptor < CYDMA_DESCR_NR));
 2089              		.loc 1 1101 0 discriminator 1
 2090 003a 0020     		movs	r0, #0
 2091              	.LVL215:
 2092 003c FFF7FEFF 		bl	CyHalt
 2093              	.LVL216:
 2094 0040 E4E7     		b	.L214
 2095              	.L222:
 2096 0042 C046     		.align	2
 2097              	.L221:
 2098 0044 FFFFAFFF 		.word	-5242881
 2099 0048 00181040 		.word	1074796544
 2100              		.cfi_endproc
 2101              	.LFE37:
 2102              		.size	CyDmaSetSrcDstTransferWidth, .-CyDmaSetSrcDstTransferWidth
 2103              		.section	.text.CyDmaGetSrcDstTransferWidth,"ax",%progbits
 2104              		.align	2
 2105              		.global	CyDmaGetSrcDstTransferWidth
 2106              		.code	16
 2107              		.thumb_func
 2108              		.type	CyDmaGetSrcDstTransferWidth, %function
 2109              	CyDmaGetSrcDstTransferWidth:
 2110              	.LFB38:
1108:Generated_Source\PSoC4/CyDMA.c **** 
1109:Generated_Source\PSoC4/CyDMA.c **** 
1110:Generated_Source\PSoC4/CyDMA.c **** /*******************************************************************************
1111:Generated_Source\PSoC4/CyDMA.c **** * Function Name: CyDmaGetSrcDstTransferWidth
1112:Generated_Source\PSoC4/CyDMA.c **** ********************************************************************************
1113:Generated_Source\PSoC4/CyDMA.c **** *
1114:Generated_Source\PSoC4/CyDMA.c **** * Summary:
1115:Generated_Source\PSoC4/CyDMA.c **** *  Returns the width of the source and destination, as set by 
1116:Generated_Source\PSoC4/CyDMA.c **** *  CyDmaSetSrcDstTransferWidth() or CyDmaSetConfiguration().
1117:Generated_Source\PSoC4/CyDMA.c **** *
1118:Generated_Source\PSoC4/CyDMA.c **** * Parameters:
ARM GAS  C:\Users\ilya\AppData\Local\Temp\cchJq1OJ.s 			page 60


1119:Generated_Source\PSoC4/CyDMA.c **** *  channel:    Channel used by this function.
1120:Generated_Source\PSoC4/CyDMA.c **** *  descriptor: Descriptor (0 or 1) modified by this function.
1121:Generated_Source\PSoC4/CyDMA.c **** *                   
1122:Generated_Source\PSoC4/CyDMA.c **** * Return:
1123:Generated_Source\PSoC4/CyDMA.c **** *  Width of source and destination. Refer to the API bit field definitions in
1124:Generated_Source\PSoC4/CyDMA.c **** *  CyDMA_P4.h or the API description in the DMA channel datasheet for more
1125:Generated_Source\PSoC4/CyDMA.c **** *  information.
1126:Generated_Source\PSoC4/CyDMA.c **** *
1127:Generated_Source\PSoC4/CyDMA.c **** *******************************************************************************/
1128:Generated_Source\PSoC4/CyDMA.c **** uint32 CyDmaGetSrcDstTransferWidth(int32 channel, int32 descriptor)
1129:Generated_Source\PSoC4/CyDMA.c **** {
 2111              		.loc 1 1129 0
 2112              		.cfi_startproc
 2113              		@ args = 0, pretend = 0, frame = 0
 2114              		@ frame_needed = 0, uses_anonymous_args = 0
 2115              	.LVL217:
 2116 0000 70B5     		push	{r4, r5, r6, lr}
 2117              		.cfi_def_cfa_offset 16
 2118              		.cfi_offset 4, -16
 2119              		.cfi_offset 5, -12
 2120              		.cfi_offset 6, -8
 2121              		.cfi_offset 14, -4
 2122              		.loc 1 1129 0
 2123 0002 0500     		movs	r5, r0
 2124 0004 0C00     		movs	r4, r1
1130:Generated_Source\PSoC4/CyDMA.c ****     CYASSERT((channel    >= 0) && (channel    < CYDMA_CH_NR));
 2125              		.loc 1 1130 0
 2126 0006 0728     		cmp	r0, #7
 2127 0008 0FD8     		bhi	.L226
 2128              	.LVL218:
 2129              	.L224:
1131:Generated_Source\PSoC4/CyDMA.c ****     CYASSERT((descriptor >= 0) && (descriptor < CYDMA_DESCR_NR));
 2130              		.loc 1 1131 0
 2131 000a 012C     		cmp	r4, #1
 2132 000c 02D9     		bls	.L225
 2133              		.loc 1 1131 0 is_stmt 0 discriminator 1
 2134 000e 0020     		movs	r0, #0
 2135 0010 FFF7FEFF 		bl	CyHalt
 2136              	.LVL219:
 2137              	.L225:
1132:Generated_Source\PSoC4/CyDMA.c ****     return (CYDMA_DESCR_BASE.descriptor[channel][descriptor].ctl & CYDMA_TRANSFER_WIDTH);
 2138              		.loc 1 1132 0 is_stmt 1
 2139 0014 074B     		ldr	r3, .L227
 2140 0016 6D00     		lsls	r5, r5, #1
 2141              	.LVL220:
 2142 0018 9C46     		mov	ip, r3
 2143 001a A023     		movs	r3, #160
 2144 001c 2C19     		adds	r4, r5, r4
 2145              	.LVL221:
 2146 001e 2401     		lsls	r4, r4, #4
 2147 0020 6444     		add	r4, r4, ip
 2148 0022 A068     		ldr	r0, [r4, #8]
 2149 0024 DB03     		lsls	r3, r3, #15
 2150 0026 1840     		ands	r0, r3
1133:Generated_Source\PSoC4/CyDMA.c **** }
 2151              		.loc 1 1133 0
 2152              		@ sp needed
ARM GAS  C:\Users\ilya\AppData\Local\Temp\cchJq1OJ.s 			page 61


 2153 0028 70BD     		pop	{r4, r5, r6, pc}
 2154              	.LVL222:
 2155              	.L226:
1130:Generated_Source\PSoC4/CyDMA.c ****     CYASSERT((descriptor >= 0) && (descriptor < CYDMA_DESCR_NR));
 2156              		.loc 1 1130 0 discriminator 1
 2157 002a 0020     		movs	r0, #0
 2158              	.LVL223:
 2159 002c FFF7FEFF 		bl	CyHalt
 2160              	.LVL224:
 2161 0030 EBE7     		b	.L224
 2162              	.L228:
 2163 0032 C046     		.align	2
 2164              	.L227:
 2165 0034 00181040 		.word	1074796544
 2166              		.cfi_endproc
 2167              	.LFE38:
 2168              		.size	CyDmaGetSrcDstTransferWidth, .-CyDmaGetSrcDstTransferWidth
 2169              		.section	.text.CyDmaSetAddressIncrement,"ax",%progbits
 2170              		.align	2
 2171              		.global	CyDmaSetAddressIncrement
 2172              		.code	16
 2173              		.thumb_func
 2174              		.type	CyDmaSetAddressIncrement, %function
 2175              	CyDmaSetAddressIncrement:
 2176              	.LFB39:
1134:Generated_Source\PSoC4/CyDMA.c **** 
1135:Generated_Source\PSoC4/CyDMA.c **** 
1136:Generated_Source\PSoC4/CyDMA.c **** /*******************************************************************************
1137:Generated_Source\PSoC4/CyDMA.c **** * Function Name: CyDmaSetAddressIncrement
1138:Generated_Source\PSoC4/CyDMA.c **** ********************************************************************************
1139:Generated_Source\PSoC4/CyDMA.c **** *
1140:Generated_Source\PSoC4/CyDMA.c **** * Summary:
1141:Generated_Source\PSoC4/CyDMA.c **** *  Sets whether the source or destination addresses are incremented after the
1142:Generated_Source\PSoC4/CyDMA.c **** *  transfer of each data element. The amount that the source and destination
1143:Generated_Source\PSoC4/CyDMA.c **** *  address are incremented is determined by the CyDmaSetSrcDstTransferWidth()
1144:Generated_Source\PSoC4/CyDMA.c **** *  function. The addresses will either be incremented by the data element size
1145:Generated_Source\PSoC4/CyDMA.c **** *  or by a word (4 bytes).
1146:Generated_Source\PSoC4/CyDMA.c **** *
1147:Generated_Source\PSoC4/CyDMA.c **** * Parameters:
1148:Generated_Source\PSoC4/CyDMA.c **** *  channel:          Channel used by this function.
1149:Generated_Source\PSoC4/CyDMA.c **** *  descriptor:       Descriptor (0 or 1) modified by this function.
1150:Generated_Source\PSoC4/CyDMA.c **** *  addressIncrement: Address increment settings. Refer to the API bit fields 
1151:Generated_Source\PSoC4/CyDMA.c **** *                    definition in CyDMA_P4.h or the API description in the DMA
1152:Generated_Source\PSoC4/CyDMA.c **** *                    channel datasheet for the parameter options.
1153:Generated_Source\PSoC4/CyDMA.c **** *    
1154:Generated_Source\PSoC4/CyDMA.c **** * Return:
1155:Generated_Source\PSoC4/CyDMA.c **** *  None.
1156:Generated_Source\PSoC4/CyDMA.c **** *
1157:Generated_Source\PSoC4/CyDMA.c **** * Side effect:
1158:Generated_Source\PSoC4/CyDMA.c **** *  This function should not be called when the specified descriptor is active
1159:Generated_Source\PSoC4/CyDMA.c **** *  in the DMA transfer engine. This can be checked by calling CyDmaGetStatus(). 
1160:Generated_Source\PSoC4/CyDMA.c **** *
1161:Generated_Source\PSoC4/CyDMA.c **** *******************************************************************************/
1162:Generated_Source\PSoC4/CyDMA.c **** void CyDmaSetAddressIncrement(int32 channel, int32 descriptor, uint32 addressIncrement)
1163:Generated_Source\PSoC4/CyDMA.c **** {
 2177              		.loc 1 1163 0
 2178              		.cfi_startproc
ARM GAS  C:\Users\ilya\AppData\Local\Temp\cchJq1OJ.s 			page 62


 2179              		@ args = 0, pretend = 0, frame = 0
 2180              		@ frame_needed = 0, uses_anonymous_args = 0
 2181              	.LVL225:
 2182 0000 70B5     		push	{r4, r5, r6, lr}
 2183              		.cfi_def_cfa_offset 16
 2184              		.cfi_offset 4, -16
 2185              		.cfi_offset 5, -12
 2186              		.cfi_offset 6, -8
 2187              		.cfi_offset 14, -4
 2188              		.loc 1 1163 0
 2189 0002 0600     		movs	r6, r0
 2190 0004 0C00     		movs	r4, r1
 2191 0006 1500     		movs	r5, r2
1164:Generated_Source\PSoC4/CyDMA.c ****     uint32 regValue;
1165:Generated_Source\PSoC4/CyDMA.c **** 
1166:Generated_Source\PSoC4/CyDMA.c ****     CYASSERT((channel    >= 0) && (channel    < CYDMA_CH_NR));
 2192              		.loc 1 1166 0
 2193 0008 0728     		cmp	r0, #7
 2194 000a 16D8     		bhi	.L236
 2195              	.LVL226:
 2196              	.L230:
1167:Generated_Source\PSoC4/CyDMA.c ****     CYASSERT((descriptor >= 0) && (descriptor < CYDMA_DESCR_NR));
 2197              		.loc 1 1167 0
 2198 000c 012C     		cmp	r4, #1
 2199 000e 02D9     		bls	.L231
 2200              		.loc 1 1167 0 is_stmt 0 discriminator 1
 2201 0010 0020     		movs	r0, #0
 2202 0012 FFF7FEFF 		bl	CyHalt
 2203              	.LVL227:
 2204              	.L231:
1168:Generated_Source\PSoC4/CyDMA.c ****     CYASSERT(0u == (addressIncrement & (uint32)~CYDMA_ADDR_INCR));
 2205              		.loc 1 1168 0 is_stmt 1
 2206 0016 0B4B     		ldr	r3, .L237
 2207 0018 1D42     		tst	r5, r3
 2208 001a 02D0     		beq	.L232
 2209              		.loc 1 1168 0 is_stmt 0 discriminator 1
 2210 001c 0020     		movs	r0, #0
 2211 001e FFF7FEFF 		bl	CyHalt
 2212              	.LVL228:
 2213              	.L232:
1169:Generated_Source\PSoC4/CyDMA.c **** 
1170:Generated_Source\PSoC4/CyDMA.c ****     regValue = CYDMA_DESCR_BASE.descriptor[channel][descriptor].ctl & (uint32)~CYDMA_ADDR_INCR;
 2214              		.loc 1 1170 0 is_stmt 1
 2215 0022 094B     		ldr	r3, .L237+4
 2216 0024 7600     		lsls	r6, r6, #1
 2217              	.LVL229:
 2218 0026 9C46     		mov	ip, r3
 2219 0028 3419     		adds	r4, r6, r4
 2220              	.LVL230:
 2221 002a 2401     		lsls	r4, r4, #4
 2222 002c 6444     		add	r4, r4, ip
 2223 002e A268     		ldr	r2, [r4, #8]
 2224              	.LVL231:
1171:Generated_Source\PSoC4/CyDMA.c ****     CYDMA_DESCR_BASE.descriptor[channel][descriptor].ctl = regValue | addressIncrement;
 2225              		.loc 1 1171 0
 2226 0030 044B     		ldr	r3, .L237
1172:Generated_Source\PSoC4/CyDMA.c **** }
ARM GAS  C:\Users\ilya\AppData\Local\Temp\cchJq1OJ.s 			page 63


 2227              		.loc 1 1172 0
 2228              		@ sp needed
1171:Generated_Source\PSoC4/CyDMA.c ****     CYDMA_DESCR_BASE.descriptor[channel][descriptor].ctl = regValue | addressIncrement;
 2229              		.loc 1 1171 0
 2230 0032 1340     		ands	r3, r2
 2231              	.LVL232:
 2232 0034 1D43     		orrs	r5, r3
 2233              	.LVL233:
 2234 0036 A560     		str	r5, [r4, #8]
 2235              		.loc 1 1172 0
 2236 0038 70BD     		pop	{r4, r5, r6, pc}
 2237              	.LVL234:
 2238              	.L236:
1166:Generated_Source\PSoC4/CyDMA.c ****     CYASSERT((descriptor >= 0) && (descriptor < CYDMA_DESCR_NR));
 2239              		.loc 1 1166 0 discriminator 1
 2240 003a 0020     		movs	r0, #0
 2241              	.LVL235:
 2242 003c FFF7FEFF 		bl	CyHalt
 2243              	.LVL236:
 2244 0040 E4E7     		b	.L230
 2245              	.L238:
 2246 0042 C046     		.align	2
 2247              	.L237:
 2248 0044 FFFF5FFF 		.word	-10485761
 2249 0048 00181040 		.word	1074796544
 2250              		.cfi_endproc
 2251              	.LFE39:
 2252              		.size	CyDmaSetAddressIncrement, .-CyDmaSetAddressIncrement
 2253              		.section	.text.CyDmaGetAddressIncrement,"ax",%progbits
 2254              		.align	2
 2255              		.global	CyDmaGetAddressIncrement
 2256              		.code	16
 2257              		.thumb_func
 2258              		.type	CyDmaGetAddressIncrement, %function
 2259              	CyDmaGetAddressIncrement:
 2260              	.LFB40:
1173:Generated_Source\PSoC4/CyDMA.c **** 
1174:Generated_Source\PSoC4/CyDMA.c **** 
1175:Generated_Source\PSoC4/CyDMA.c **** /*******************************************************************************
1176:Generated_Source\PSoC4/CyDMA.c **** * Function Name: CyDmaGetAddressIncrement
1177:Generated_Source\PSoC4/CyDMA.c **** ********************************************************************************
1178:Generated_Source\PSoC4/CyDMA.c **** *
1179:Generated_Source\PSoC4/CyDMA.c **** * Summary:
1180:Generated_Source\PSoC4/CyDMA.c **** *  Returns address increment settings as set by CyDmaSetAddressIncrement() or
1181:Generated_Source\PSoC4/CyDMA.c **** *  CyDmaSetConfiguration().
1182:Generated_Source\PSoC4/CyDMA.c **** *
1183:Generated_Source\PSoC4/CyDMA.c **** * Parameters:
1184:Generated_Source\PSoC4/CyDMA.c **** *  channel:    Channel used by this function.
1185:Generated_Source\PSoC4/CyDMA.c **** *  descriptor: Descriptor (0 or 1) modified by this function.
1186:Generated_Source\PSoC4/CyDMA.c **** *                   
1187:Generated_Source\PSoC4/CyDMA.c **** * Return:
1188:Generated_Source\PSoC4/CyDMA.c **** *  Address increment settings. Refer to the API bit field definitions in
1189:Generated_Source\PSoC4/CyDMA.c **** *  CyDMA_P4.h or the API description in the DMA channel datasheet for more
1190:Generated_Source\PSoC4/CyDMA.c **** *  information.
1191:Generated_Source\PSoC4/CyDMA.c **** *
1192:Generated_Source\PSoC4/CyDMA.c **** *******************************************************************************/
1193:Generated_Source\PSoC4/CyDMA.c **** uint32 CyDmaGetAddressIncrement(int32 channel, int32 descriptor)
ARM GAS  C:\Users\ilya\AppData\Local\Temp\cchJq1OJ.s 			page 64


1194:Generated_Source\PSoC4/CyDMA.c **** {
 2261              		.loc 1 1194 0
 2262              		.cfi_startproc
 2263              		@ args = 0, pretend = 0, frame = 0
 2264              		@ frame_needed = 0, uses_anonymous_args = 0
 2265              	.LVL237:
 2266 0000 70B5     		push	{r4, r5, r6, lr}
 2267              		.cfi_def_cfa_offset 16
 2268              		.cfi_offset 4, -16
 2269              		.cfi_offset 5, -12
 2270              		.cfi_offset 6, -8
 2271              		.cfi_offset 14, -4
 2272              		.loc 1 1194 0
 2273 0002 0500     		movs	r5, r0
 2274 0004 0C00     		movs	r4, r1
1195:Generated_Source\PSoC4/CyDMA.c ****     CYASSERT((channel    >= 0) && (channel    < CYDMA_CH_NR));
 2275              		.loc 1 1195 0
 2276 0006 0728     		cmp	r0, #7
 2277 0008 0FD8     		bhi	.L242
 2278              	.LVL238:
 2279              	.L240:
1196:Generated_Source\PSoC4/CyDMA.c ****     CYASSERT((descriptor >= 0) && (descriptor < CYDMA_DESCR_NR));
 2280              		.loc 1 1196 0
 2281 000a 012C     		cmp	r4, #1
 2282 000c 02D9     		bls	.L241
 2283              		.loc 1 1196 0 is_stmt 0 discriminator 1
 2284 000e 0020     		movs	r0, #0
 2285 0010 FFF7FEFF 		bl	CyHalt
 2286              	.LVL239:
 2287              	.L241:
1197:Generated_Source\PSoC4/CyDMA.c **** 
1198:Generated_Source\PSoC4/CyDMA.c ****     return (CYDMA_DESCR_BASE.descriptor[channel][descriptor].ctl & CYDMA_ADDR_INCR);
 2288              		.loc 1 1198 0 is_stmt 1
 2289 0014 074B     		ldr	r3, .L243
 2290 0016 6D00     		lsls	r5, r5, #1
 2291              	.LVL240:
 2292 0018 9C46     		mov	ip, r3
 2293 001a A023     		movs	r3, #160
 2294 001c 2C19     		adds	r4, r5, r4
 2295              	.LVL241:
 2296 001e 2401     		lsls	r4, r4, #4
 2297 0020 6444     		add	r4, r4, ip
 2298 0022 A068     		ldr	r0, [r4, #8]
 2299 0024 1B04     		lsls	r3, r3, #16
 2300 0026 1840     		ands	r0, r3
1199:Generated_Source\PSoC4/CyDMA.c **** }
 2301              		.loc 1 1199 0
 2302              		@ sp needed
 2303 0028 70BD     		pop	{r4, r5, r6, pc}
 2304              	.LVL242:
 2305              	.L242:
1195:Generated_Source\PSoC4/CyDMA.c ****     CYASSERT((descriptor >= 0) && (descriptor < CYDMA_DESCR_NR));
 2306              		.loc 1 1195 0 discriminator 1
 2307 002a 0020     		movs	r0, #0
 2308              	.LVL243:
 2309 002c FFF7FEFF 		bl	CyHalt
 2310              	.LVL244:
ARM GAS  C:\Users\ilya\AppData\Local\Temp\cchJq1OJ.s 			page 65


 2311 0030 EBE7     		b	.L240
 2312              	.L244:
 2313 0032 C046     		.align	2
 2314              	.L243:
 2315 0034 00181040 		.word	1074796544
 2316              		.cfi_endproc
 2317              	.LFE40:
 2318              		.size	CyDmaGetAddressIncrement, .-CyDmaGetAddressIncrement
 2319              		.section	.text.CyDmaSetTriggerType,"ax",%progbits
 2320              		.align	2
 2321              		.global	CyDmaSetTriggerType
 2322              		.code	16
 2323              		.thumb_func
 2324              		.type	CyDmaSetTriggerType, %function
 2325              	CyDmaSetTriggerType:
 2326              	.LFB41:
1200:Generated_Source\PSoC4/CyDMA.c **** 
1201:Generated_Source\PSoC4/CyDMA.c **** 
1202:Generated_Source\PSoC4/CyDMA.c **** /*******************************************************************************
1203:Generated_Source\PSoC4/CyDMA.c **** * Function Name: CyDmaSetTriggerType
1204:Generated_Source\PSoC4/CyDMA.c **** ********************************************************************************
1205:Generated_Source\PSoC4/CyDMA.c **** *
1206:Generated_Source\PSoC4/CyDMA.c **** * Summary:
1207:Generated_Source\PSoC4/CyDMA.c **** *  Sets the type of input trigger for the DMA For level sensitive triggers sets
1208:Generated_Source\PSoC4/CyDMA.c **** *  how long the DMA waits for the trigger to go low (deactivate) before
1209:Generated_Source\PSoC4/CyDMA.c **** *  triggering the channel again.
1210:Generated_Source\PSoC4/CyDMA.c **** *
1211:Generated_Source\PSoC4/CyDMA.c **** * Parameters:
1212:Generated_Source\PSoC4/CyDMA.c **** *  channel:     Channel used by this function.
1213:Generated_Source\PSoC4/CyDMA.c **** *  descriptor:  Descriptor (0 or 1) modified by this function.
1214:Generated_Source\PSoC4/CyDMA.c **** *  triggerType: Type of DMA trigger. Refer to the API bit field definitions
1215:Generated_Source\PSoC4/CyDMA.c **** *               in CyDMA_P4.h or the API description in the DMA channel
1216:Generated_Source\PSoC4/CyDMA.c **** *               datasheet for the parameter options.
1217:Generated_Source\PSoC4/CyDMA.c **** *                   
1218:Generated_Source\PSoC4/CyDMA.c **** * Return:
1219:Generated_Source\PSoC4/CyDMA.c **** *  None.
1220:Generated_Source\PSoC4/CyDMA.c **** *
1221:Generated_Source\PSoC4/CyDMA.c **** * Side effect:
1222:Generated_Source\PSoC4/CyDMA.c **** *  This function should not be called when the specified descriptor is active
1223:Generated_Source\PSoC4/CyDMA.c **** *  in the DMA transfer engine. This can be checked by calling CyDmaGetStatus(). 
1224:Generated_Source\PSoC4/CyDMA.c **** *
1225:Generated_Source\PSoC4/CyDMA.c **** *******************************************************************************/
1226:Generated_Source\PSoC4/CyDMA.c **** void CyDmaSetTriggerType(int32 channel, int32 descriptor, uint32 triggerType)
1227:Generated_Source\PSoC4/CyDMA.c **** {
 2327              		.loc 1 1227 0
 2328              		.cfi_startproc
 2329              		@ args = 0, pretend = 0, frame = 0
 2330              		@ frame_needed = 0, uses_anonymous_args = 0
 2331              	.LVL245:
 2332 0000 70B5     		push	{r4, r5, r6, lr}
 2333              		.cfi_def_cfa_offset 16
 2334              		.cfi_offset 4, -16
 2335              		.cfi_offset 5, -12
 2336              		.cfi_offset 6, -8
 2337              		.cfi_offset 14, -4
 2338              		.loc 1 1227 0
 2339 0002 0600     		movs	r6, r0
ARM GAS  C:\Users\ilya\AppData\Local\Temp\cchJq1OJ.s 			page 66


 2340 0004 0C00     		movs	r4, r1
 2341 0006 1500     		movs	r5, r2
1228:Generated_Source\PSoC4/CyDMA.c ****     uint32 regValue;
1229:Generated_Source\PSoC4/CyDMA.c **** 
1230:Generated_Source\PSoC4/CyDMA.c ****     CYASSERT((channel    >= 0) && (channel    < CYDMA_CH_NR));
 2342              		.loc 1 1230 0
 2343 0008 0728     		cmp	r0, #7
 2344 000a 16D8     		bhi	.L252
 2345              	.LVL246:
 2346              	.L246:
1231:Generated_Source\PSoC4/CyDMA.c ****     CYASSERT((descriptor >= 0) && (descriptor < CYDMA_DESCR_NR));
 2347              		.loc 1 1231 0
 2348 000c 012C     		cmp	r4, #1
 2349 000e 02D9     		bls	.L247
 2350              		.loc 1 1231 0 is_stmt 0 discriminator 1
 2351 0010 0020     		movs	r0, #0
 2352 0012 FFF7FEFF 		bl	CyHalt
 2353              	.LVL247:
 2354              	.L247:
1232:Generated_Source\PSoC4/CyDMA.c ****     CYASSERT(0u == (triggerType & (uint32)~CYDMA_TRIGGER_TYPE));
 2355              		.loc 1 1232 0 is_stmt 1
 2356 0016 0B4B     		ldr	r3, .L253
 2357 0018 1D42     		tst	r5, r3
 2358 001a 02D0     		beq	.L248
 2359              		.loc 1 1232 0 is_stmt 0 discriminator 1
 2360 001c 0020     		movs	r0, #0
 2361 001e FFF7FEFF 		bl	CyHalt
 2362              	.LVL248:
 2363              	.L248:
1233:Generated_Source\PSoC4/CyDMA.c **** 
1234:Generated_Source\PSoC4/CyDMA.c ****     regValue = CYDMA_DESCR_BASE.descriptor[channel][descriptor].ctl & (uint32)~CYDMA_TRIGGER_TYPE;
 2364              		.loc 1 1234 0 is_stmt 1
 2365 0022 094B     		ldr	r3, .L253+4
 2366 0024 7600     		lsls	r6, r6, #1
 2367              	.LVL249:
 2368 0026 9C46     		mov	ip, r3
 2369 0028 3419     		adds	r4, r6, r4
 2370              	.LVL250:
 2371 002a 2401     		lsls	r4, r4, #4
 2372 002c 6444     		add	r4, r4, ip
 2373 002e A268     		ldr	r2, [r4, #8]
 2374              	.LVL251:
1235:Generated_Source\PSoC4/CyDMA.c ****     CYDMA_DESCR_BASE.descriptor[channel][descriptor].ctl = regValue | triggerType;
 2375              		.loc 1 1235 0
 2376 0030 044B     		ldr	r3, .L253
1236:Generated_Source\PSoC4/CyDMA.c **** }
 2377              		.loc 1 1236 0
 2378              		@ sp needed
1235:Generated_Source\PSoC4/CyDMA.c ****     CYDMA_DESCR_BASE.descriptor[channel][descriptor].ctl = regValue | triggerType;
 2379              		.loc 1 1235 0
 2380 0032 1340     		ands	r3, r2
 2381              	.LVL252:
 2382 0034 1D43     		orrs	r5, r3
 2383              	.LVL253:
 2384 0036 A560     		str	r5, [r4, #8]
 2385              		.loc 1 1236 0
 2386 0038 70BD     		pop	{r4, r5, r6, pc}
ARM GAS  C:\Users\ilya\AppData\Local\Temp\cchJq1OJ.s 			page 67


 2387              	.LVL254:
 2388              	.L252:
1230:Generated_Source\PSoC4/CyDMA.c ****     CYASSERT((descriptor >= 0) && (descriptor < CYDMA_DESCR_NR));
 2389              		.loc 1 1230 0 discriminator 1
 2390 003a 0020     		movs	r0, #0
 2391              	.LVL255:
 2392 003c FFF7FEFF 		bl	CyHalt
 2393              	.LVL256:
 2394 0040 E4E7     		b	.L246
 2395              	.L254:
 2396 0042 C046     		.align	2
 2397              	.L253:
 2398 0044 FFFFFFFC 		.word	-50331649
 2399 0048 00181040 		.word	1074796544
 2400              		.cfi_endproc
 2401              	.LFE41:
 2402              		.size	CyDmaSetTriggerType, .-CyDmaSetTriggerType
 2403              		.section	.text.CyDmaGetTriggerType,"ax",%progbits
 2404              		.align	2
 2405              		.global	CyDmaGetTriggerType
 2406              		.code	16
 2407              		.thumb_func
 2408              		.type	CyDmaGetTriggerType, %function
 2409              	CyDmaGetTriggerType:
 2410              	.LFB42:
1237:Generated_Source\PSoC4/CyDMA.c **** 
1238:Generated_Source\PSoC4/CyDMA.c **** 
1239:Generated_Source\PSoC4/CyDMA.c **** /*******************************************************************************
1240:Generated_Source\PSoC4/CyDMA.c **** * Function Name: CyDmaGetTriggerType
1241:Generated_Source\PSoC4/CyDMA.c **** ********************************************************************************
1242:Generated_Source\PSoC4/CyDMA.c **** *
1243:Generated_Source\PSoC4/CyDMA.c **** * Summary:
1244:Generated_Source\PSoC4/CyDMA.c **** *  Returns the trigger deactivation settings as set by CyDmaSetTriggerType() or
1245:Generated_Source\PSoC4/CyDMA.c **** *  CyDmaSetConfiguration().
1246:Generated_Source\PSoC4/CyDMA.c **** *
1247:Generated_Source\PSoC4/CyDMA.c **** * Parameters:
1248:Generated_Source\PSoC4/CyDMA.c **** *  channel:    Channel used by this function.
1249:Generated_Source\PSoC4/CyDMA.c **** *  descriptor: Descriptor (0 or 1) modified by this function.
1250:Generated_Source\PSoC4/CyDMA.c **** *                   
1251:Generated_Source\PSoC4/CyDMA.c **** * Return:
1252:Generated_Source\PSoC4/CyDMA.c **** *  Trigger deactivation settings. Refer to the API bit field definitions in
1253:Generated_Source\PSoC4/CyDMA.c **** *  CyDMA_P4.h or the API description in the DMA channel datasheet for more
1254:Generated_Source\PSoC4/CyDMA.c **** *  information.
1255:Generated_Source\PSoC4/CyDMA.c **** *
1256:Generated_Source\PSoC4/CyDMA.c **** *******************************************************************************/
1257:Generated_Source\PSoC4/CyDMA.c **** uint32 CyDmaGetTriggerType(int32 channel, int32 descriptor)
1258:Generated_Source\PSoC4/CyDMA.c **** {
 2411              		.loc 1 1258 0
 2412              		.cfi_startproc
 2413              		@ args = 0, pretend = 0, frame = 0
 2414              		@ frame_needed = 0, uses_anonymous_args = 0
 2415              	.LVL257:
 2416 0000 70B5     		push	{r4, r5, r6, lr}
 2417              		.cfi_def_cfa_offset 16
 2418              		.cfi_offset 4, -16
 2419              		.cfi_offset 5, -12
 2420              		.cfi_offset 6, -8
ARM GAS  C:\Users\ilya\AppData\Local\Temp\cchJq1OJ.s 			page 68


 2421              		.cfi_offset 14, -4
 2422              		.loc 1 1258 0
 2423 0002 0500     		movs	r5, r0
 2424 0004 0C00     		movs	r4, r1
1259:Generated_Source\PSoC4/CyDMA.c ****     CYASSERT((channel    >= 0) && (channel    < CYDMA_CH_NR));
 2425              		.loc 1 1259 0
 2426 0006 0728     		cmp	r0, #7
 2427 0008 0FD8     		bhi	.L258
 2428              	.LVL258:
 2429              	.L256:
1260:Generated_Source\PSoC4/CyDMA.c ****     CYASSERT((descriptor >= 0) && (descriptor < CYDMA_DESCR_NR));
 2430              		.loc 1 1260 0
 2431 000a 012C     		cmp	r4, #1
 2432 000c 02D9     		bls	.L257
 2433              		.loc 1 1260 0 is_stmt 0 discriminator 1
 2434 000e 0020     		movs	r0, #0
 2435 0010 FFF7FEFF 		bl	CyHalt
 2436              	.LVL259:
 2437              	.L257:
1261:Generated_Source\PSoC4/CyDMA.c **** 
1262:Generated_Source\PSoC4/CyDMA.c ****     return (CYDMA_DESCR_BASE.descriptor[channel][descriptor].ctl & CYDMA_TRIGGER_TYPE);
 2438              		.loc 1 1262 0 is_stmt 1
 2439 0014 074B     		ldr	r3, .L259
 2440 0016 6D00     		lsls	r5, r5, #1
 2441              	.LVL260:
 2442 0018 9C46     		mov	ip, r3
 2443 001a C023     		movs	r3, #192
 2444 001c 2C19     		adds	r4, r5, r4
 2445              	.LVL261:
 2446 001e 2401     		lsls	r4, r4, #4
 2447 0020 6444     		add	r4, r4, ip
 2448 0022 A068     		ldr	r0, [r4, #8]
 2449 0024 9B04     		lsls	r3, r3, #18
 2450 0026 1840     		ands	r0, r3
1263:Generated_Source\PSoC4/CyDMA.c **** }
 2451              		.loc 1 1263 0
 2452              		@ sp needed
 2453 0028 70BD     		pop	{r4, r5, r6, pc}
 2454              	.LVL262:
 2455              	.L258:
1259:Generated_Source\PSoC4/CyDMA.c ****     CYASSERT((descriptor >= 0) && (descriptor < CYDMA_DESCR_NR));
 2456              		.loc 1 1259 0 discriminator 1
 2457 002a 0020     		movs	r0, #0
 2458              	.LVL263:
 2459 002c FFF7FEFF 		bl	CyHalt
 2460              	.LVL264:
 2461 0030 EBE7     		b	.L256
 2462              	.L260:
 2463 0032 C046     		.align	2
 2464              	.L259:
 2465 0034 00181040 		.word	1074796544
 2466              		.cfi_endproc
 2467              	.LFE42:
 2468              		.size	CyDmaGetTriggerType, .-CyDmaGetTriggerType
 2469              		.section	.text.CyDmaSetTransferMode,"ax",%progbits
 2470              		.align	2
 2471              		.global	CyDmaSetTransferMode
ARM GAS  C:\Users\ilya\AppData\Local\Temp\cchJq1OJ.s 			page 69


 2472              		.code	16
 2473              		.thumb_func
 2474              		.type	CyDmaSetTransferMode, %function
 2475              	CyDmaSetTransferMode:
 2476              	.LFB43:
1264:Generated_Source\PSoC4/CyDMA.c **** 
1265:Generated_Source\PSoC4/CyDMA.c **** 
1266:Generated_Source\PSoC4/CyDMA.c **** /*******************************************************************************
1267:Generated_Source\PSoC4/CyDMA.c **** * Function Name: CyDmaSetTransferMode
1268:Generated_Source\PSoC4/CyDMA.c **** ********************************************************************************
1269:Generated_Source\PSoC4/CyDMA.c **** *
1270:Generated_Source\PSoC4/CyDMA.c **** * Summary:
1271:Generated_Source\PSoC4/CyDMA.c **** *  Sets the DMA transfer mode. This determines how the DMA reacts to each trigger
1272:Generated_Source\PSoC4/CyDMA.c **** *  event.
1273:Generated_Source\PSoC4/CyDMA.c **** *
1274:Generated_Source\PSoC4/CyDMA.c **** * Parameters:
1275:Generated_Source\PSoC4/CyDMA.c **** *  channel:      Channel used by this function.
1276:Generated_Source\PSoC4/CyDMA.c **** *  descriptor:   Descriptor (0 or 1) modified by this function.
1277:Generated_Source\PSoC4/CyDMA.c **** *  transferMode: Specifies the DMA transfer mode settings. Refer to the API bit
1278:Generated_Source\PSoC4/CyDMA.c **** *                field definitions in CyDMA_P4.h or the API description in the
1279:Generated_Source\PSoC4/CyDMA.c **** *                DMA channel datasheet for the parameter options.
1280:Generated_Source\PSoC4/CyDMA.c **** *                   
1281:Generated_Source\PSoC4/CyDMA.c **** * Return:
1282:Generated_Source\PSoC4/CyDMA.c **** *  None.
1283:Generated_Source\PSoC4/CyDMA.c **** *
1284:Generated_Source\PSoC4/CyDMA.c **** * Side effect:
1285:Generated_Source\PSoC4/CyDMA.c **** *  This function should not be called when the specified descriptor is active
1286:Generated_Source\PSoC4/CyDMA.c **** *  in the DMA transfer engine. This can be checked by calling CyDmaGetStatus(). 
1287:Generated_Source\PSoC4/CyDMA.c **** *
1288:Generated_Source\PSoC4/CyDMA.c **** *******************************************************************************/
1289:Generated_Source\PSoC4/CyDMA.c **** void CyDmaSetTransferMode(int32 channel, int32 descriptor, uint32 transferMode)
1290:Generated_Source\PSoC4/CyDMA.c **** {
 2477              		.loc 1 1290 0
 2478              		.cfi_startproc
 2479              		@ args = 0, pretend = 0, frame = 0
 2480              		@ frame_needed = 0, uses_anonymous_args = 0
 2481              	.LVL265:
 2482 0000 70B5     		push	{r4, r5, r6, lr}
 2483              		.cfi_def_cfa_offset 16
 2484              		.cfi_offset 4, -16
 2485              		.cfi_offset 5, -12
 2486              		.cfi_offset 6, -8
 2487              		.cfi_offset 14, -4
 2488              		.loc 1 1290 0
 2489 0002 0600     		movs	r6, r0
 2490 0004 0C00     		movs	r4, r1
 2491 0006 1500     		movs	r5, r2
1291:Generated_Source\PSoC4/CyDMA.c ****     uint32 regValue;
1292:Generated_Source\PSoC4/CyDMA.c **** 
1293:Generated_Source\PSoC4/CyDMA.c ****     CYASSERT((channel    >= 0) && (channel    < CYDMA_CH_NR));
 2492              		.loc 1 1293 0
 2493 0008 0728     		cmp	r0, #7
 2494 000a 15D8     		bhi	.L268
 2495              	.LVL266:
 2496              	.L262:
1294:Generated_Source\PSoC4/CyDMA.c ****     CYASSERT((descriptor >= 0) && (descriptor < CYDMA_DESCR_NR));
 2497              		.loc 1 1294 0
ARM GAS  C:\Users\ilya\AppData\Local\Temp\cchJq1OJ.s 			page 70


 2498 000c 012C     		cmp	r4, #1
 2499 000e 02D9     		bls	.L263
 2500              		.loc 1 1294 0 is_stmt 0 discriminator 1
 2501 0010 0020     		movs	r0, #0
 2502 0012 FFF7FEFF 		bl	CyHalt
 2503              	.LVL267:
 2504              	.L263:
1295:Generated_Source\PSoC4/CyDMA.c ****     CYASSERT(0u == (transferMode & (uint32)~CYDMA_TRANSFER_MODE));
 2505              		.loc 1 1295 0 is_stmt 1
 2506 0016 AB00     		lsls	r3, r5, #2
 2507 0018 02D0     		beq	.L264
 2508              		.loc 1 1295 0 is_stmt 0 discriminator 1
 2509 001a 0020     		movs	r0, #0
 2510 001c FFF7FEFF 		bl	CyHalt
 2511              	.LVL268:
 2512              	.L264:
1296:Generated_Source\PSoC4/CyDMA.c **** 
1297:Generated_Source\PSoC4/CyDMA.c ****     regValue = CYDMA_DESCR_BASE.descriptor[channel][descriptor].ctl & (uint32)~CYDMA_TRANSFER_MODE;
 2513              		.loc 1 1297 0 is_stmt 1
 2514 0020 074B     		ldr	r3, .L269
 2515 0022 7600     		lsls	r6, r6, #1
 2516              	.LVL269:
 2517 0024 9C46     		mov	ip, r3
 2518 0026 3419     		adds	r4, r6, r4
 2519              	.LVL270:
 2520 0028 2401     		lsls	r4, r4, #4
 2521 002a 6444     		add	r4, r4, ip
 2522 002c A268     		ldr	r2, [r4, #8]
 2523              	.LVL271:
1298:Generated_Source\PSoC4/CyDMA.c ****     CYDMA_DESCR_BASE.descriptor[channel][descriptor].ctl = regValue | transferMode;
1299:Generated_Source\PSoC4/CyDMA.c **** }
 2524              		.loc 1 1299 0
 2525              		@ sp needed
1298:Generated_Source\PSoC4/CyDMA.c ****     CYDMA_DESCR_BASE.descriptor[channel][descriptor].ctl = regValue | transferMode;
 2526              		.loc 1 1298 0
 2527 002e 9200     		lsls	r2, r2, #2
 2528              	.LVL272:
 2529 0030 9208     		lsrs	r2, r2, #2
 2530 0032 2A43     		orrs	r2, r5
 2531 0034 A260     		str	r2, [r4, #8]
 2532              	.LVL273:
 2533              		.loc 1 1299 0
 2534 0036 70BD     		pop	{r4, r5, r6, pc}
 2535              	.LVL274:
 2536              	.L268:
1293:Generated_Source\PSoC4/CyDMA.c ****     CYASSERT((descriptor >= 0) && (descriptor < CYDMA_DESCR_NR));
 2537              		.loc 1 1293 0 discriminator 1
 2538 0038 0020     		movs	r0, #0
 2539              	.LVL275:
 2540 003a FFF7FEFF 		bl	CyHalt
 2541              	.LVL276:
 2542 003e E5E7     		b	.L262
 2543              	.L270:
 2544              		.align	2
 2545              	.L269:
 2546 0040 00181040 		.word	1074796544
 2547              		.cfi_endproc
ARM GAS  C:\Users\ilya\AppData\Local\Temp\cchJq1OJ.s 			page 71


 2548              	.LFE43:
 2549              		.size	CyDmaSetTransferMode, .-CyDmaSetTransferMode
 2550              		.section	.text.CyDmaGetTransferMode,"ax",%progbits
 2551              		.align	2
 2552              		.global	CyDmaGetTransferMode
 2553              		.code	16
 2554              		.thumb_func
 2555              		.type	CyDmaGetTransferMode, %function
 2556              	CyDmaGetTransferMode:
 2557              	.LFB44:
1300:Generated_Source\PSoC4/CyDMA.c **** 
1301:Generated_Source\PSoC4/CyDMA.c **** 
1302:Generated_Source\PSoC4/CyDMA.c **** /*******************************************************************************
1303:Generated_Source\PSoC4/CyDMA.c **** * Function Name: CyDmaGetTransferMode
1304:Generated_Source\PSoC4/CyDMA.c **** ********************************************************************************
1305:Generated_Source\PSoC4/CyDMA.c **** *
1306:Generated_Source\PSoC4/CyDMA.c **** * Summary:
1307:Generated_Source\PSoC4/CyDMA.c **** *  Returns the transfer mode for the specified descriptor as set by 
1308:Generated_Source\PSoC4/CyDMA.c **** *  CyDmaSetTransferMode() or CyDmaSetConfiguration.
1309:Generated_Source\PSoC4/CyDMA.c **** *
1310:Generated_Source\PSoC4/CyDMA.c **** * Parameters:
1311:Generated_Source\PSoC4/CyDMA.c **** *  channel:    Channel used by this function.
1312:Generated_Source\PSoC4/CyDMA.c **** *  descriptor: Descriptor (0 or 1) modified by this function.
1313:Generated_Source\PSoC4/CyDMA.c **** *                   
1314:Generated_Source\PSoC4/CyDMA.c **** * Return:
1315:Generated_Source\PSoC4/CyDMA.c **** *  DMA transfer mode settings. Refer to the API bit field definitions in
1316:Generated_Source\PSoC4/CyDMA.c **** *  CyDMA_P4.h or the API description in the DMA channel datasheet for more
1317:Generated_Source\PSoC4/CyDMA.c **** *  information.
1318:Generated_Source\PSoC4/CyDMA.c **** *
1319:Generated_Source\PSoC4/CyDMA.c **** *******************************************************************************/
1320:Generated_Source\PSoC4/CyDMA.c **** uint32 CyDmaGetTransferMode(int32 channel, int32 descriptor)
1321:Generated_Source\PSoC4/CyDMA.c **** {
 2558              		.loc 1 1321 0
 2559              		.cfi_startproc
 2560              		@ args = 0, pretend = 0, frame = 0
 2561              		@ frame_needed = 0, uses_anonymous_args = 0
 2562              	.LVL277:
 2563 0000 70B5     		push	{r4, r5, r6, lr}
 2564              		.cfi_def_cfa_offset 16
 2565              		.cfi_offset 4, -16
 2566              		.cfi_offset 5, -12
 2567              		.cfi_offset 6, -8
 2568              		.cfi_offset 14, -4
 2569              		.loc 1 1321 0
 2570 0002 0500     		movs	r5, r0
 2571 0004 0C00     		movs	r4, r1
1322:Generated_Source\PSoC4/CyDMA.c ****     CYASSERT((channel    >= 0) && (channel    < CYDMA_CH_NR));
 2572              		.loc 1 1322 0
 2573 0006 0728     		cmp	r0, #7
 2574 0008 0ED8     		bhi	.L274
 2575              	.LVL278:
 2576              	.L272:
1323:Generated_Source\PSoC4/CyDMA.c ****     CYASSERT((descriptor >= 0) && (descriptor < CYDMA_DESCR_NR));
 2577              		.loc 1 1323 0
 2578 000a 012C     		cmp	r4, #1
 2579 000c 02D9     		bls	.L273
 2580              		.loc 1 1323 0 is_stmt 0 discriminator 1
ARM GAS  C:\Users\ilya\AppData\Local\Temp\cchJq1OJ.s 			page 72


 2581 000e 0020     		movs	r0, #0
 2582 0010 FFF7FEFF 		bl	CyHalt
 2583              	.LVL279:
 2584              	.L273:
1324:Generated_Source\PSoC4/CyDMA.c **** 
1325:Generated_Source\PSoC4/CyDMA.c ****     return (CYDMA_DESCR_BASE.descriptor[channel][descriptor].ctl & CYDMA_TRANSFER_MODE);
 2585              		.loc 1 1325 0 is_stmt 1
 2586 0014 064B     		ldr	r3, .L275
 2587 0016 6D00     		lsls	r5, r5, #1
 2588              	.LVL280:
 2589 0018 9C46     		mov	ip, r3
 2590 001a 2C19     		adds	r4, r5, r4
 2591              	.LVL281:
 2592 001c 2401     		lsls	r4, r4, #4
 2593 001e 6444     		add	r4, r4, ip
 2594 0020 A068     		ldr	r0, [r4, #8]
1326:Generated_Source\PSoC4/CyDMA.c **** }
 2595              		.loc 1 1326 0
 2596              		@ sp needed
1325:Generated_Source\PSoC4/CyDMA.c **** }
 2597              		.loc 1 1325 0
 2598 0022 800F     		lsrs	r0, r0, #30
 2599 0024 8007     		lsls	r0, r0, #30
 2600              		.loc 1 1326 0
 2601 0026 70BD     		pop	{r4, r5, r6, pc}
 2602              	.LVL282:
 2603              	.L274:
1322:Generated_Source\PSoC4/CyDMA.c ****     CYASSERT((descriptor >= 0) && (descriptor < CYDMA_DESCR_NR));
 2604              		.loc 1 1322 0 discriminator 1
 2605 0028 0020     		movs	r0, #0
 2606              	.LVL283:
 2607 002a FFF7FEFF 		bl	CyHalt
 2608              	.LVL284:
 2609 002e ECE7     		b	.L272
 2610              	.L276:
 2611              		.align	2
 2612              	.L275:
 2613 0030 00181040 		.word	1074796544
 2614              		.cfi_endproc
 2615              	.LFE44:
 2616              		.size	CyDmaGetTransferMode, .-CyDmaGetTransferMode
 2617              		.section	.text.CyDmaSetPreemptable,"ax",%progbits
 2618              		.align	2
 2619              		.global	CyDmaSetPreemptable
 2620              		.code	16
 2621              		.thumb_func
 2622              		.type	CyDmaSetPreemptable, %function
 2623              	CyDmaSetPreemptable:
 2624              	.LFB45:
1327:Generated_Source\PSoC4/CyDMA.c **** 
1328:Generated_Source\PSoC4/CyDMA.c **** 
1329:Generated_Source\PSoC4/CyDMA.c **** /*******************************************************************************
1330:Generated_Source\PSoC4/CyDMA.c **** * Function Name: CyDmaSetPreemptable
1331:Generated_Source\PSoC4/CyDMA.c **** ********************************************************************************
1332:Generated_Source\PSoC4/CyDMA.c **** *
1333:Generated_Source\PSoC4/CyDMA.c **** * Summary:
1334:Generated_Source\PSoC4/CyDMA.c **** *  Determines if the descriptor is preemptable.
ARM GAS  C:\Users\ilya\AppData\Local\Temp\cchJq1OJ.s 			page 73


1335:Generated_Source\PSoC4/CyDMA.c **** *
1336:Generated_Source\PSoC4/CyDMA.c **** * Parameters:
1337:Generated_Source\PSoC4/CyDMA.c **** *  channel:     Channel used by this function.
1338:Generated_Source\PSoC4/CyDMA.c **** *  descriptor:  Descriptor (0 or 1) modified by this function.
1339:Generated_Source\PSoC4/CyDMA.c **** *  preemptable: Descriptor preemption settings. Refer to the API bit fields
1340:Generated_Source\PSoC4/CyDMA.c **** *               definition in CyDMA_P4.h or the API description in the DMA 
1341:Generated_Source\PSoC4/CyDMA.c **** *               channel datasheet for the parameter options.
1342:Generated_Source\PSoC4/CyDMA.c **** *                   
1343:Generated_Source\PSoC4/CyDMA.c **** * Return:
1344:Generated_Source\PSoC4/CyDMA.c **** *  None.
1345:Generated_Source\PSoC4/CyDMA.c **** *
1346:Generated_Source\PSoC4/CyDMA.c **** * Side effect:
1347:Generated_Source\PSoC4/CyDMA.c **** *  This function should not be called when the specified descriptor is active
1348:Generated_Source\PSoC4/CyDMA.c **** *  in the DMA transfer engine. This can be checked by calling CyDmaGetStatus(). 
1349:Generated_Source\PSoC4/CyDMA.c **** *
1350:Generated_Source\PSoC4/CyDMA.c **** *******************************************************************************/
1351:Generated_Source\PSoC4/CyDMA.c **** void CyDmaSetPreemptable(int32 channel, int32 descriptor, uint32 preemptable)
1352:Generated_Source\PSoC4/CyDMA.c **** {
 2625              		.loc 1 1352 0
 2626              		.cfi_startproc
 2627              		@ args = 0, pretend = 0, frame = 0
 2628              		@ frame_needed = 0, uses_anonymous_args = 0
 2629              	.LVL285:
 2630 0000 70B5     		push	{r4, r5, r6, lr}
 2631              		.cfi_def_cfa_offset 16
 2632              		.cfi_offset 4, -16
 2633              		.cfi_offset 5, -12
 2634              		.cfi_offset 6, -8
 2635              		.cfi_offset 14, -4
 2636              		.loc 1 1352 0
 2637 0002 0600     		movs	r6, r0
 2638 0004 0C00     		movs	r4, r1
 2639 0006 1500     		movs	r5, r2
1353:Generated_Source\PSoC4/CyDMA.c ****     uint32 regValue;
1354:Generated_Source\PSoC4/CyDMA.c **** 
1355:Generated_Source\PSoC4/CyDMA.c ****     CYASSERT((channel    >= 0) && (channel    < CYDMA_CH_NR));
 2640              		.loc 1 1355 0
 2641 0008 0728     		cmp	r0, #7
 2642 000a 16D8     		bhi	.L284
 2643              	.LVL286:
 2644              	.L278:
1356:Generated_Source\PSoC4/CyDMA.c ****     CYASSERT((descriptor >= 0) && (descriptor < CYDMA_DESCR_NR));
 2645              		.loc 1 1356 0
 2646 000c 012C     		cmp	r4, #1
 2647 000e 02D9     		bls	.L279
 2648              		.loc 1 1356 0 is_stmt 0 discriminator 1
 2649 0010 0020     		movs	r0, #0
 2650 0012 FFF7FEFF 		bl	CyHalt
 2651              	.LVL287:
 2652              	.L279:
1357:Generated_Source\PSoC4/CyDMA.c ****     CYASSERT(0u == (preemptable & (uint32)~CYDMA_PREEMPTABLE));
 2653              		.loc 1 1357 0 is_stmt 1
 2654 0016 0B4B     		ldr	r3, .L285
 2655 0018 1D42     		tst	r5, r3
 2656 001a 02D0     		beq	.L280
 2657              		.loc 1 1357 0 is_stmt 0 discriminator 1
 2658 001c 0020     		movs	r0, #0
ARM GAS  C:\Users\ilya\AppData\Local\Temp\cchJq1OJ.s 			page 74


 2659 001e FFF7FEFF 		bl	CyHalt
 2660              	.LVL288:
 2661              	.L280:
1358:Generated_Source\PSoC4/CyDMA.c **** 
1359:Generated_Source\PSoC4/CyDMA.c ****     regValue = CYDMA_DESCR_BASE.descriptor[channel][descriptor].ctl & (uint32)~CYDMA_PREEMPTABLE;
 2662              		.loc 1 1359 0 is_stmt 1
 2663 0022 094B     		ldr	r3, .L285+4
 2664 0024 7600     		lsls	r6, r6, #1
 2665              	.LVL289:
 2666 0026 9C46     		mov	ip, r3
 2667 0028 3419     		adds	r4, r6, r4
 2668              	.LVL290:
 2669 002a 2401     		lsls	r4, r4, #4
 2670 002c 6444     		add	r4, r4, ip
 2671 002e A268     		ldr	r2, [r4, #8]
 2672              	.LVL291:
1360:Generated_Source\PSoC4/CyDMA.c ****     CYDMA_DESCR_BASE.descriptor[channel][descriptor].ctl = regValue | preemptable;
 2673              		.loc 1 1360 0
 2674 0030 044B     		ldr	r3, .L285
1361:Generated_Source\PSoC4/CyDMA.c **** }
 2675              		.loc 1 1361 0
 2676              		@ sp needed
1360:Generated_Source\PSoC4/CyDMA.c ****     CYDMA_DESCR_BASE.descriptor[channel][descriptor].ctl = regValue | preemptable;
 2677              		.loc 1 1360 0
 2678 0032 1340     		ands	r3, r2
 2679              	.LVL292:
 2680 0034 1D43     		orrs	r5, r3
 2681              	.LVL293:
 2682 0036 A560     		str	r5, [r4, #8]
 2683              		.loc 1 1361 0
 2684 0038 70BD     		pop	{r4, r5, r6, pc}
 2685              	.LVL294:
 2686              	.L284:
1355:Generated_Source\PSoC4/CyDMA.c ****     CYASSERT((descriptor >= 0) && (descriptor < CYDMA_DESCR_NR));
 2687              		.loc 1 1355 0 discriminator 1
 2688 003a 0020     		movs	r0, #0
 2689              	.LVL295:
 2690 003c FFF7FEFF 		bl	CyHalt
 2691              	.LVL296:
 2692 0040 E4E7     		b	.L278
 2693              	.L286:
 2694 0042 C046     		.align	2
 2695              	.L285:
 2696 0044 FFFFFFEF 		.word	-268435457
 2697 0048 00181040 		.word	1074796544
 2698              		.cfi_endproc
 2699              	.LFE45:
 2700              		.size	CyDmaSetPreemptable, .-CyDmaSetPreemptable
 2701              		.section	.text.CyDmaGetPreemptable,"ax",%progbits
 2702              		.align	2
 2703              		.global	CyDmaGetPreemptable
 2704              		.code	16
 2705              		.thumb_func
 2706              		.type	CyDmaGetPreemptable, %function
 2707              	CyDmaGetPreemptable:
 2708              	.LFB46:
1362:Generated_Source\PSoC4/CyDMA.c **** 
ARM GAS  C:\Users\ilya\AppData\Local\Temp\cchJq1OJ.s 			page 75


1363:Generated_Source\PSoC4/CyDMA.c **** 
1364:Generated_Source\PSoC4/CyDMA.c **** /*******************************************************************************
1365:Generated_Source\PSoC4/CyDMA.c **** * Function Name: CyDmaGetPreemptable
1366:Generated_Source\PSoC4/CyDMA.c **** ********************************************************************************
1367:Generated_Source\PSoC4/CyDMA.c **** *
1368:Generated_Source\PSoC4/CyDMA.c **** * Summary:
1369:Generated_Source\PSoC4/CyDMA.c **** *  Returns whether or not the descriptor is preemptable.
1370:Generated_Source\PSoC4/CyDMA.c **** *
1371:Generated_Source\PSoC4/CyDMA.c **** * Parameters:
1372:Generated_Source\PSoC4/CyDMA.c **** *  channel:    Channel used by this function.
1373:Generated_Source\PSoC4/CyDMA.c **** *  descriptor: Descriptor (0 or 1) modified by this function.
1374:Generated_Source\PSoC4/CyDMA.c **** *                   
1375:Generated_Source\PSoC4/CyDMA.c **** * Return:
1376:Generated_Source\PSoC4/CyDMA.c **** *  Descriptor preemption setting. Refer to the API bit field definitions in
1377:Generated_Source\PSoC4/CyDMA.c **** *  CyDMA_P4.h or the API description in the DMA channel datasheet for more
1378:Generated_Source\PSoC4/CyDMA.c **** *  information.
1379:Generated_Source\PSoC4/CyDMA.c **** *
1380:Generated_Source\PSoC4/CyDMA.c **** *******************************************************************************/
1381:Generated_Source\PSoC4/CyDMA.c **** uint32 CyDmaGetPreemptable(int32 channel, int32 descriptor)
1382:Generated_Source\PSoC4/CyDMA.c **** {
 2709              		.loc 1 1382 0
 2710              		.cfi_startproc
 2711              		@ args = 0, pretend = 0, frame = 0
 2712              		@ frame_needed = 0, uses_anonymous_args = 0
 2713              	.LVL297:
 2714 0000 70B5     		push	{r4, r5, r6, lr}
 2715              		.cfi_def_cfa_offset 16
 2716              		.cfi_offset 4, -16
 2717              		.cfi_offset 5, -12
 2718              		.cfi_offset 6, -8
 2719              		.cfi_offset 14, -4
 2720              		.loc 1 1382 0
 2721 0002 0500     		movs	r5, r0
 2722 0004 0C00     		movs	r4, r1
1383:Generated_Source\PSoC4/CyDMA.c ****     CYASSERT((channel    >= 0) && (channel    < CYDMA_CH_NR));
 2723              		.loc 1 1383 0
 2724 0006 0728     		cmp	r0, #7
 2725 0008 0FD8     		bhi	.L290
 2726              	.LVL298:
 2727              	.L288:
1384:Generated_Source\PSoC4/CyDMA.c ****     CYASSERT((descriptor >= 0) && (descriptor < CYDMA_DESCR_NR));
 2728              		.loc 1 1384 0
 2729 000a 012C     		cmp	r4, #1
 2730 000c 02D9     		bls	.L289
 2731              		.loc 1 1384 0 is_stmt 0 discriminator 1
 2732 000e 0020     		movs	r0, #0
 2733 0010 FFF7FEFF 		bl	CyHalt
 2734              	.LVL299:
 2735              	.L289:
1385:Generated_Source\PSoC4/CyDMA.c **** 
1386:Generated_Source\PSoC4/CyDMA.c ****     return (CYDMA_DESCR_BASE.descriptor[channel][descriptor].ctl & CYDMA_PREEMPTABLE);
 2736              		.loc 1 1386 0 is_stmt 1
 2737 0014 074B     		ldr	r3, .L291
 2738 0016 6D00     		lsls	r5, r5, #1
 2739              	.LVL300:
 2740 0018 9C46     		mov	ip, r3
 2741 001a 8023     		movs	r3, #128
ARM GAS  C:\Users\ilya\AppData\Local\Temp\cchJq1OJ.s 			page 76


 2742 001c 2C19     		adds	r4, r5, r4
 2743              	.LVL301:
 2744 001e 2401     		lsls	r4, r4, #4
 2745 0020 6444     		add	r4, r4, ip
 2746 0022 A068     		ldr	r0, [r4, #8]
 2747 0024 5B05     		lsls	r3, r3, #21
 2748 0026 1840     		ands	r0, r3
1387:Generated_Source\PSoC4/CyDMA.c **** }
 2749              		.loc 1 1387 0
 2750              		@ sp needed
 2751 0028 70BD     		pop	{r4, r5, r6, pc}
 2752              	.LVL302:
 2753              	.L290:
1383:Generated_Source\PSoC4/CyDMA.c ****     CYASSERT((descriptor >= 0) && (descriptor < CYDMA_DESCR_NR));
 2754              		.loc 1 1383 0 discriminator 1
 2755 002a 0020     		movs	r0, #0
 2756              	.LVL303:
 2757 002c FFF7FEFF 		bl	CyHalt
 2758              	.LVL304:
 2759 0030 EBE7     		b	.L288
 2760              	.L292:
 2761 0032 C046     		.align	2
 2762              	.L291:
 2763 0034 00181040 		.word	1074796544
 2764              		.cfi_endproc
 2765              	.LFE46:
 2766              		.size	CyDmaGetPreemptable, .-CyDmaGetPreemptable
 2767              		.section	.text.CyDmaSetPostCompletionActions,"ax",%progbits
 2768              		.align	2
 2769              		.global	CyDmaSetPostCompletionActions
 2770              		.code	16
 2771              		.thumb_func
 2772              		.type	CyDmaSetPostCompletionActions, %function
 2773              	CyDmaSetPostCompletionActions:
 2774              	.LFB47:
1388:Generated_Source\PSoC4/CyDMA.c **** 
1389:Generated_Source\PSoC4/CyDMA.c **** 
1390:Generated_Source\PSoC4/CyDMA.c **** /*******************************************************************************
1391:Generated_Source\PSoC4/CyDMA.c **** * Function Name: CyDmaSetPostCompletionActions
1392:Generated_Source\PSoC4/CyDMA.c **** ********************************************************************************
1393:Generated_Source\PSoC4/CyDMA.c **** *
1394:Generated_Source\PSoC4/CyDMA.c **** * Summary:
1395:Generated_Source\PSoC4/CyDMA.c **** *  Determines what occurs after a descriptor completes.
1396:Generated_Source\PSoC4/CyDMA.c **** *
1397:Generated_Source\PSoC4/CyDMA.c **** * Parameters:
1398:Generated_Source\PSoC4/CyDMA.c **** *  channel:    Channel used by this function.
1399:Generated_Source\PSoC4/CyDMA.c **** *  descriptor: Descriptor (0 or 1) modified by this function.
1400:Generated_Source\PSoC4/CyDMA.c **** *  actions:    Specifies descriptor post completion actions. Refer to the API
1401:Generated_Source\PSoC4/CyDMA.c **** *              bit field definitions in CyDMA_P4.h or the API description
1402:Generated_Source\PSoC4/CyDMA.c **** *              in the DMA channel datasheet for the parameter options.
1403:Generated_Source\PSoC4/CyDMA.c **** *                   
1404:Generated_Source\PSoC4/CyDMA.c **** * Return:
1405:Generated_Source\PSoC4/CyDMA.c **** *  None.  
1406:Generated_Source\PSoC4/CyDMA.c **** *
1407:Generated_Source\PSoC4/CyDMA.c **** * Side effect:
1408:Generated_Source\PSoC4/CyDMA.c **** *  This function should not be called when the specified descriptor is active
1409:Generated_Source\PSoC4/CyDMA.c **** *  in the DMA transfer engine. This can be checked by calling CyDmaGetStatus(). 
ARM GAS  C:\Users\ilya\AppData\Local\Temp\cchJq1OJ.s 			page 77


1410:Generated_Source\PSoC4/CyDMA.c **** *
1411:Generated_Source\PSoC4/CyDMA.c **** *******************************************************************************/
1412:Generated_Source\PSoC4/CyDMA.c **** void CyDmaSetPostCompletionActions(int32 channel, int32 descriptor, uint32 actions)
1413:Generated_Source\PSoC4/CyDMA.c **** {
 2775              		.loc 1 1413 0
 2776              		.cfi_startproc
 2777              		@ args = 0, pretend = 0, frame = 0
 2778              		@ frame_needed = 0, uses_anonymous_args = 0
 2779              	.LVL305:
 2780 0000 70B5     		push	{r4, r5, r6, lr}
 2781              		.cfi_def_cfa_offset 16
 2782              		.cfi_offset 4, -16
 2783              		.cfi_offset 5, -12
 2784              		.cfi_offset 6, -8
 2785              		.cfi_offset 14, -4
 2786              		.loc 1 1413 0
 2787 0002 0600     		movs	r6, r0
 2788 0004 0C00     		movs	r4, r1
 2789 0006 1500     		movs	r5, r2
1414:Generated_Source\PSoC4/CyDMA.c ****     uint32 regValue;
1415:Generated_Source\PSoC4/CyDMA.c **** 
1416:Generated_Source\PSoC4/CyDMA.c ****     CYASSERT((channel    >= 0) && (channel    < CYDMA_CH_NR));
 2790              		.loc 1 1416 0
 2791 0008 0728     		cmp	r0, #7
 2792 000a 16D8     		bhi	.L300
 2793              	.LVL306:
 2794              	.L294:
1417:Generated_Source\PSoC4/CyDMA.c ****     CYASSERT((descriptor >= 0) && (descriptor < CYDMA_DESCR_NR));
 2795              		.loc 1 1417 0
 2796 000c 012C     		cmp	r4, #1
 2797 000e 02D9     		bls	.L295
 2798              		.loc 1 1417 0 is_stmt 0 discriminator 1
 2799 0010 0020     		movs	r0, #0
 2800 0012 FFF7FEFF 		bl	CyHalt
 2801              	.LVL307:
 2802              	.L295:
1418:Generated_Source\PSoC4/CyDMA.c ****     CYASSERT(0u == (actions & (uint32)~CYDMA_POST_COMPLETE_ACTIONS));
 2803              		.loc 1 1418 0 is_stmt 1
 2804 0016 0B4B     		ldr	r3, .L301
 2805 0018 1D42     		tst	r5, r3
 2806 001a 02D0     		beq	.L296
 2807              		.loc 1 1418 0 is_stmt 0 discriminator 1
 2808 001c 0020     		movs	r0, #0
 2809 001e FFF7FEFF 		bl	CyHalt
 2810              	.LVL308:
 2811              	.L296:
1419:Generated_Source\PSoC4/CyDMA.c **** 
1420:Generated_Source\PSoC4/CyDMA.c ****     regValue = CYDMA_DESCR_BASE.descriptor[channel][descriptor].ctl & (uint32)~CYDMA_POST_COMPLETE_
 2812              		.loc 1 1420 0 is_stmt 1
 2813 0022 094B     		ldr	r3, .L301+4
 2814 0024 7600     		lsls	r6, r6, #1
 2815              	.LVL309:
 2816 0026 9C46     		mov	ip, r3
 2817 0028 3419     		adds	r4, r6, r4
 2818              	.LVL310:
 2819 002a 2401     		lsls	r4, r4, #4
 2820 002c 6444     		add	r4, r4, ip
ARM GAS  C:\Users\ilya\AppData\Local\Temp\cchJq1OJ.s 			page 78


 2821 002e A268     		ldr	r2, [r4, #8]
 2822              	.LVL311:
1421:Generated_Source\PSoC4/CyDMA.c ****     CYDMA_DESCR_BASE.descriptor[channel][descriptor].ctl = regValue | actions;
 2823              		.loc 1 1421 0
 2824 0030 044B     		ldr	r3, .L301
1422:Generated_Source\PSoC4/CyDMA.c **** }
 2825              		.loc 1 1422 0
 2826              		@ sp needed
1421:Generated_Source\PSoC4/CyDMA.c ****     CYDMA_DESCR_BASE.descriptor[channel][descriptor].ctl = regValue | actions;
 2827              		.loc 1 1421 0
 2828 0032 1340     		ands	r3, r2
 2829              	.LVL312:
 2830 0034 1D43     		orrs	r5, r3
 2831              	.LVL313:
 2832 0036 A560     		str	r5, [r4, #8]
 2833              		.loc 1 1422 0
 2834 0038 70BD     		pop	{r4, r5, r6, pc}
 2835              	.LVL314:
 2836              	.L300:
1416:Generated_Source\PSoC4/CyDMA.c ****     CYASSERT((descriptor >= 0) && (descriptor < CYDMA_DESCR_NR));
 2837              		.loc 1 1416 0 discriminator 1
 2838 003a 0020     		movs	r0, #0
 2839              	.LVL315:
 2840 003c FFF7FEFF 		bl	CyHalt
 2841              	.LVL316:
 2842 0040 E4E7     		b	.L294
 2843              	.L302:
 2844 0042 C046     		.align	2
 2845              	.L301:
 2846 0044 FFFFFFD3 		.word	-738197505
 2847 0048 00181040 		.word	1074796544
 2848              		.cfi_endproc
 2849              	.LFE47:
 2850              		.size	CyDmaSetPostCompletionActions, .-CyDmaSetPostCompletionActions
 2851              		.section	.text.CyDmaGetPostCompletionActions,"ax",%progbits
 2852              		.align	2
 2853              		.global	CyDmaGetPostCompletionActions
 2854              		.code	16
 2855              		.thumb_func
 2856              		.type	CyDmaGetPostCompletionActions, %function
 2857              	CyDmaGetPostCompletionActions:
 2858              	.LFB48:
1423:Generated_Source\PSoC4/CyDMA.c **** 
1424:Generated_Source\PSoC4/CyDMA.c **** 
1425:Generated_Source\PSoC4/CyDMA.c **** /*******************************************************************************
1426:Generated_Source\PSoC4/CyDMA.c **** * Function Name: CyDmaGetPostCompletionActions
1427:Generated_Source\PSoC4/CyDMA.c **** ********************************************************************************
1428:Generated_Source\PSoC4/CyDMA.c **** *
1429:Generated_Source\PSoC4/CyDMA.c **** * Summary:
1430:Generated_Source\PSoC4/CyDMA.c **** *  Returns the post descriptor action settings as set by 
1431:Generated_Source\PSoC4/CyDMA.c **** *  CyDmaSetPostCompletionActions() or CyDmaSetConfiguration().
1432:Generated_Source\PSoC4/CyDMA.c **** *
1433:Generated_Source\PSoC4/CyDMA.c **** * Parameters:
1434:Generated_Source\PSoC4/CyDMA.c **** *  channel:    Channel used by this function.
1435:Generated_Source\PSoC4/CyDMA.c **** *  descriptor: Descriptor (0 or 1) modified by this function.
1436:Generated_Source\PSoC4/CyDMA.c **** *                   
1437:Generated_Source\PSoC4/CyDMA.c **** * Return:
ARM GAS  C:\Users\ilya\AppData\Local\Temp\cchJq1OJ.s 			page 79


1438:Generated_Source\PSoC4/CyDMA.c **** *  Post descriptor actions. Refer to the API bit field definitions in
1439:Generated_Source\PSoC4/CyDMA.c **** *  CyDMA_P4.h or the API description in the DMA channel datasheet for more
1440:Generated_Source\PSoC4/CyDMA.c **** *  information.
1441:Generated_Source\PSoC4/CyDMA.c **** *
1442:Generated_Source\PSoC4/CyDMA.c **** *******************************************************************************/
1443:Generated_Source\PSoC4/CyDMA.c **** uint32 CyDmaGetPostCompletionActions(int32 channel, int32 descriptor)
1444:Generated_Source\PSoC4/CyDMA.c **** {
 2859              		.loc 1 1444 0
 2860              		.cfi_startproc
 2861              		@ args = 0, pretend = 0, frame = 0
 2862              		@ frame_needed = 0, uses_anonymous_args = 0
 2863              	.LVL317:
 2864 0000 70B5     		push	{r4, r5, r6, lr}
 2865              		.cfi_def_cfa_offset 16
 2866              		.cfi_offset 4, -16
 2867              		.cfi_offset 5, -12
 2868              		.cfi_offset 6, -8
 2869              		.cfi_offset 14, -4
 2870              		.loc 1 1444 0
 2871 0002 0500     		movs	r5, r0
 2872 0004 0C00     		movs	r4, r1
1445:Generated_Source\PSoC4/CyDMA.c ****     CYASSERT((channel    >= 0) && (channel    < CYDMA_CH_NR));
 2873              		.loc 1 1445 0
 2874 0006 0728     		cmp	r0, #7
 2875 0008 0FD8     		bhi	.L306
 2876              	.LVL318:
 2877              	.L304:
1446:Generated_Source\PSoC4/CyDMA.c ****     CYASSERT((descriptor >= 0) && (descriptor < CYDMA_DESCR_NR));
 2878              		.loc 1 1446 0
 2879 000a 012C     		cmp	r4, #1
 2880 000c 02D9     		bls	.L305
 2881              		.loc 1 1446 0 is_stmt 0 discriminator 1
 2882 000e 0020     		movs	r0, #0
 2883 0010 FFF7FEFF 		bl	CyHalt
 2884              	.LVL319:
 2885              	.L305:
1447:Generated_Source\PSoC4/CyDMA.c **** 
1448:Generated_Source\PSoC4/CyDMA.c ****     return (CYDMA_DESCR_BASE.descriptor[channel][descriptor].ctl & CYDMA_POST_COMPLETE_ACTIONS);
 2886              		.loc 1 1448 0 is_stmt 1
 2887 0014 074B     		ldr	r3, .L307
 2888 0016 6D00     		lsls	r5, r5, #1
 2889              	.LVL320:
 2890 0018 9C46     		mov	ip, r3
 2891 001a B023     		movs	r3, #176
 2892 001c 2C19     		adds	r4, r5, r4
 2893              	.LVL321:
 2894 001e 2401     		lsls	r4, r4, #4
 2895 0020 6444     		add	r4, r4, ip
 2896 0022 A068     		ldr	r0, [r4, #8]
 2897 0024 9B05     		lsls	r3, r3, #22
 2898 0026 1840     		ands	r0, r3
1449:Generated_Source\PSoC4/CyDMA.c **** }
 2899              		.loc 1 1449 0
 2900              		@ sp needed
 2901 0028 70BD     		pop	{r4, r5, r6, pc}
 2902              	.LVL322:
 2903              	.L306:
ARM GAS  C:\Users\ilya\AppData\Local\Temp\cchJq1OJ.s 			page 80


1445:Generated_Source\PSoC4/CyDMA.c ****     CYASSERT((descriptor >= 0) && (descriptor < CYDMA_DESCR_NR));
 2904              		.loc 1 1445 0 discriminator 1
 2905 002a 0020     		movs	r0, #0
 2906              	.LVL323:
 2907 002c FFF7FEFF 		bl	CyHalt
 2908              	.LVL324:
 2909 0030 EBE7     		b	.L304
 2910              	.L308:
 2911 0032 C046     		.align	2
 2912              	.L307:
 2913 0034 00181040 		.word	1074796544
 2914              		.cfi_endproc
 2915              	.LFE48:
 2916              		.size	CyDmaGetPostCompletionActions, .-CyDmaGetPostCompletionActions
 2917              		.data
 2918              		.align	2
 2919              		.set	.LANCHOR0,. + 0
 2920              		.type	CyDmaInterruptCallback, %object
 2921              		.size	CyDmaInterruptCallback, 32
 2922              	CyDmaInterruptCallback:
 2923 0000 00000000 		.word	CyDmaDefaultInterruptCallback
 2924 0004 00000000 		.word	CyDmaDefaultInterruptCallback
 2925 0008 00000000 		.word	CyDmaDefaultInterruptCallback
 2926 000c 00000000 		.word	CyDmaDefaultInterruptCallback
 2927 0010 00000000 		.word	CyDmaDefaultInterruptCallback
 2928 0014 00000000 		.word	CyDmaDefaultInterruptCallback
 2929 0018 00000000 		.word	CyDmaDefaultInterruptCallback
 2930 001c 00000000 		.word	CyDmaDefaultInterruptCallback
 2931              		.bss
 2932              		.align	2
 2933              		.set	.LANCHOR1,. + 0
 2934              		.type	initIntrVector.5006, %object
 2935              		.size	initIntrVector.5006, 1
 2936              	initIntrVector.5006:
 2937 0000 00       		.space	1
 2938 0001 000000   		.space	3
 2939              		.type	CyDmaChannelUsedMask, %object
 2940              		.size	CyDmaChannelUsedMask, 4
 2941              	CyDmaChannelUsedMask:
 2942 0004 00000000 		.space	4
 2943              		.text
 2944              	.Letext0:
 2945              		.file 2 "Generated_Source\\PSoC4\\cytypes.h"
 2946              		.file 3 "Generated_Source\\PSoC4\\CyDMA.h"
 2947              		.file 4 "Generated_Source\\PSoC4\\CyLib.h"