ARM GAS  C:\Users\ilya\AppData\Local\Temp\cc2j0tZW.s 			page 1


   1              		.syntax unified
   2              		.cpu cortex-m0
   3              		.fpu softvfp
   4              		.eabi_attribute 20, 1
   5              		.eabi_attribute 21, 1
   6              		.eabi_attribute 23, 3
   7              		.eabi_attribute 24, 1
   8              		.eabi_attribute 25, 1
   9              		.eabi_attribute 26, 1
  10              		.eabi_attribute 30, 2
  11              		.eabi_attribute 34, 0
  12              		.eabi_attribute 18, 4
  13              		.thumb
  14              		.syntax unified
  15              		.file	"cyfitter_cfg.c"
  16              		.text
  17              	.Ltext0:
  18              		.cfi_sections	.debug_frame
  19              		.section	.text.SetAnalogRoutingPumps,"ax",%progbits
  20              		.align	2
  21              		.global	SetAnalogRoutingPumps
  22              		.code	16
  23              		.thumb_func
  24              		.type	SetAnalogRoutingPumps, %function
  25              	SetAnalogRoutingPumps:
  26              	.LFB7:
  27              		.file 1 "Generated_Source\\PSoC4\\cyfitter_cfg.c"
   1:Generated_Source\PSoC4/cyfitter_cfg.c **** 
   2:Generated_Source\PSoC4/cyfitter_cfg.c **** /*******************************************************************************
   3:Generated_Source\PSoC4/cyfitter_cfg.c **** * File Name: cyfitter_cfg.c
   4:Generated_Source\PSoC4/cyfitter_cfg.c **** * 
   5:Generated_Source\PSoC4/cyfitter_cfg.c **** * PSoC Creator  4.2
   6:Generated_Source\PSoC4/cyfitter_cfg.c **** *
   7:Generated_Source\PSoC4/cyfitter_cfg.c **** * Description:
   8:Generated_Source\PSoC4/cyfitter_cfg.c **** * This file contains device initialization code.
   9:Generated_Source\PSoC4/cyfitter_cfg.c **** * Except for the user defined sections in CyClockStartupError(), this file should not be modified.
  10:Generated_Source\PSoC4/cyfitter_cfg.c **** * This file is automatically generated by PSoC Creator.
  11:Generated_Source\PSoC4/cyfitter_cfg.c **** *
  12:Generated_Source\PSoC4/cyfitter_cfg.c **** ********************************************************************************
  13:Generated_Source\PSoC4/cyfitter_cfg.c **** * Copyright (c) 2007-2018 Cypress Semiconductor.  All rights reserved.
  14:Generated_Source\PSoC4/cyfitter_cfg.c **** * You may use this file only in accordance with the license, terms, conditions, 
  15:Generated_Source\PSoC4/cyfitter_cfg.c **** * disclaimers, and limitations in the end user license agreement accompanying 
  16:Generated_Source\PSoC4/cyfitter_cfg.c **** * the software package with which this file was provided.
  17:Generated_Source\PSoC4/cyfitter_cfg.c **** ********************************************************************************/
  18:Generated_Source\PSoC4/cyfitter_cfg.c **** 
  19:Generated_Source\PSoC4/cyfitter_cfg.c **** #include <string.h>
  20:Generated_Source\PSoC4/cyfitter_cfg.c **** #include "cytypes.h"
  21:Generated_Source\PSoC4/cyfitter_cfg.c **** #include "cydevice_trm.h"
  22:Generated_Source\PSoC4/cyfitter_cfg.c **** #include "cyfitter.h"
  23:Generated_Source\PSoC4/cyfitter_cfg.c **** #include "CyLib.h"
  24:Generated_Source\PSoC4/cyfitter_cfg.c **** #include "CyLFClk.h"
  25:Generated_Source\PSoC4/cyfitter_cfg.c **** #include "cyfitter_cfg.h"
  26:Generated_Source\PSoC4/cyfitter_cfg.c **** #include "cyapicallbacks.h"
  27:Generated_Source\PSoC4/cyfitter_cfg.c **** 
  28:Generated_Source\PSoC4/cyfitter_cfg.c **** 
  29:Generated_Source\PSoC4/cyfitter_cfg.c **** #if defined(__GNUC__) || defined(__ARMCC_VERSION)
  30:Generated_Source\PSoC4/cyfitter_cfg.c ****     #define CYPACKED 
ARM GAS  C:\Users\ilya\AppData\Local\Temp\cc2j0tZW.s 			page 2


  31:Generated_Source\PSoC4/cyfitter_cfg.c ****     #define CYPACKED_ATTR __attribute__ ((packed))
  32:Generated_Source\PSoC4/cyfitter_cfg.c ****     #define CYALIGNED __attribute__ ((aligned))
  33:Generated_Source\PSoC4/cyfitter_cfg.c ****     #define CY_CFG_UNUSED __attribute__ ((unused))
  34:Generated_Source\PSoC4/cyfitter_cfg.c ****     #ifndef CY_CFG_SECTION
  35:Generated_Source\PSoC4/cyfitter_cfg.c ****         #define CY_CFG_SECTION __attribute__ ((section(".psocinit")))
  36:Generated_Source\PSoC4/cyfitter_cfg.c ****     #endif
  37:Generated_Source\PSoC4/cyfitter_cfg.c ****     
  38:Generated_Source\PSoC4/cyfitter_cfg.c ****     #if defined(__ARMCC_VERSION)
  39:Generated_Source\PSoC4/cyfitter_cfg.c ****         #define CY_CFG_MEMORY_BARRIER() __memory_changed()
  40:Generated_Source\PSoC4/cyfitter_cfg.c ****     #else
  41:Generated_Source\PSoC4/cyfitter_cfg.c ****         #define CY_CFG_MEMORY_BARRIER() __sync_synchronize()
  42:Generated_Source\PSoC4/cyfitter_cfg.c ****     #endif
  43:Generated_Source\PSoC4/cyfitter_cfg.c ****     
  44:Generated_Source\PSoC4/cyfitter_cfg.c **** #elif defined(__ICCARM__)
  45:Generated_Source\PSoC4/cyfitter_cfg.c ****     #include <intrinsics.h>
  46:Generated_Source\PSoC4/cyfitter_cfg.c **** 
  47:Generated_Source\PSoC4/cyfitter_cfg.c ****     #define CYPACKED __packed
  48:Generated_Source\PSoC4/cyfitter_cfg.c ****     #define CYPACKED_ATTR 
  49:Generated_Source\PSoC4/cyfitter_cfg.c ****     #define CYALIGNED _Pragma("data_alignment=4")
  50:Generated_Source\PSoC4/cyfitter_cfg.c ****     #define CY_CFG_UNUSED _Pragma("diag_suppress=Pe177")
  51:Generated_Source\PSoC4/cyfitter_cfg.c ****     #define CY_CFG_SECTION _Pragma("location=\".psocinit\"")
  52:Generated_Source\PSoC4/cyfitter_cfg.c ****     
  53:Generated_Source\PSoC4/cyfitter_cfg.c ****     #define CY_CFG_MEMORY_BARRIER() __DMB()
  54:Generated_Source\PSoC4/cyfitter_cfg.c ****     
  55:Generated_Source\PSoC4/cyfitter_cfg.c **** #else
  56:Generated_Source\PSoC4/cyfitter_cfg.c ****     #error Unsupported toolchain
  57:Generated_Source\PSoC4/cyfitter_cfg.c **** #endif
  58:Generated_Source\PSoC4/cyfitter_cfg.c **** 
  59:Generated_Source\PSoC4/cyfitter_cfg.c **** #ifndef CYCODE
  60:Generated_Source\PSoC4/cyfitter_cfg.c ****     #define CYCODE
  61:Generated_Source\PSoC4/cyfitter_cfg.c **** #endif
  62:Generated_Source\PSoC4/cyfitter_cfg.c **** #ifndef CYDATA
  63:Generated_Source\PSoC4/cyfitter_cfg.c ****     #define CYDATA
  64:Generated_Source\PSoC4/cyfitter_cfg.c **** #endif
  65:Generated_Source\PSoC4/cyfitter_cfg.c **** #ifndef CYFAR
  66:Generated_Source\PSoC4/cyfitter_cfg.c ****     #define CYFAR
  67:Generated_Source\PSoC4/cyfitter_cfg.c **** #endif
  68:Generated_Source\PSoC4/cyfitter_cfg.c **** #ifndef CYXDATA
  69:Generated_Source\PSoC4/cyfitter_cfg.c ****     #define CYXDATA
  70:Generated_Source\PSoC4/cyfitter_cfg.c **** #endif
  71:Generated_Source\PSoC4/cyfitter_cfg.c **** 
  72:Generated_Source\PSoC4/cyfitter_cfg.c **** 
  73:Generated_Source\PSoC4/cyfitter_cfg.c **** CY_CFG_UNUSED
  74:Generated_Source\PSoC4/cyfitter_cfg.c **** static void CYMEMZERO(void *s, size_t n);
  75:Generated_Source\PSoC4/cyfitter_cfg.c **** CY_CFG_UNUSED
  76:Generated_Source\PSoC4/cyfitter_cfg.c **** static void CYMEMZERO(void *s, size_t n)
  77:Generated_Source\PSoC4/cyfitter_cfg.c **** {
  78:Generated_Source\PSoC4/cyfitter_cfg.c **** 	(void)memset(s, 0, n);
  79:Generated_Source\PSoC4/cyfitter_cfg.c **** }
  80:Generated_Source\PSoC4/cyfitter_cfg.c **** CY_CFG_UNUSED
  81:Generated_Source\PSoC4/cyfitter_cfg.c **** static void CYCONFIGCPY(void *dest, const void *src, size_t n);
  82:Generated_Source\PSoC4/cyfitter_cfg.c **** CY_CFG_UNUSED
  83:Generated_Source\PSoC4/cyfitter_cfg.c **** static void CYCONFIGCPY(void *dest, const void *src, size_t n)
  84:Generated_Source\PSoC4/cyfitter_cfg.c **** {
  85:Generated_Source\PSoC4/cyfitter_cfg.c **** 	(void)memcpy(dest, src, n);
  86:Generated_Source\PSoC4/cyfitter_cfg.c **** }
  87:Generated_Source\PSoC4/cyfitter_cfg.c **** CY_CFG_UNUSED
ARM GAS  C:\Users\ilya\AppData\Local\Temp\cc2j0tZW.s 			page 3


  88:Generated_Source\PSoC4/cyfitter_cfg.c **** static void CYCONFIGCPYCODE(void *dest, const void *src, size_t n);
  89:Generated_Source\PSoC4/cyfitter_cfg.c **** CY_CFG_UNUSED
  90:Generated_Source\PSoC4/cyfitter_cfg.c **** static void CYCONFIGCPYCODE(void *dest, const void *src, size_t n)
  91:Generated_Source\PSoC4/cyfitter_cfg.c **** {
  92:Generated_Source\PSoC4/cyfitter_cfg.c **** 	(void)memcpy(dest, src, n);
  93:Generated_Source\PSoC4/cyfitter_cfg.c **** }
  94:Generated_Source\PSoC4/cyfitter_cfg.c **** 
  95:Generated_Source\PSoC4/cyfitter_cfg.c **** 
  96:Generated_Source\PSoC4/cyfitter_cfg.c **** 
  97:Generated_Source\PSoC4/cyfitter_cfg.c **** 
  98:Generated_Source\PSoC4/cyfitter_cfg.c **** /* Clock startup error codes                                                   */
  99:Generated_Source\PSoC4/cyfitter_cfg.c **** #define CYCLOCKSTART_NO_ERROR    0u
 100:Generated_Source\PSoC4/cyfitter_cfg.c **** #define CYCLOCKSTART_XTAL_ERROR  1u
 101:Generated_Source\PSoC4/cyfitter_cfg.c **** #define CYCLOCKSTART_32KHZ_ERROR 2u
 102:Generated_Source\PSoC4/cyfitter_cfg.c **** #define CYCLOCKSTART_PLL_ERROR   3u
 103:Generated_Source\PSoC4/cyfitter_cfg.c **** #define CYCLOCKSTART_FLL_ERROR   4u
 104:Generated_Source\PSoC4/cyfitter_cfg.c **** #define CYCLOCKSTART_WCO_ERROR   5u
 105:Generated_Source\PSoC4/cyfitter_cfg.c **** 
 106:Generated_Source\PSoC4/cyfitter_cfg.c **** 
 107:Generated_Source\PSoC4/cyfitter_cfg.c **** #ifdef CY_NEED_CYCLOCKSTARTUPERROR
 108:Generated_Source\PSoC4/cyfitter_cfg.c **** /*******************************************************************************
 109:Generated_Source\PSoC4/cyfitter_cfg.c **** * Function Name: CyClockStartupError
 110:Generated_Source\PSoC4/cyfitter_cfg.c **** ********************************************************************************
 111:Generated_Source\PSoC4/cyfitter_cfg.c **** * Summary:
 112:Generated_Source\PSoC4/cyfitter_cfg.c **** *  If an error is encountered during clock configuration (crystal startup error,
 113:Generated_Source\PSoC4/cyfitter_cfg.c **** *  PLL lock error, etc.), the system will end up here.  Unless reimplemented by
 114:Generated_Source\PSoC4/cyfitter_cfg.c **** *  the customer, this function will stop in an infinite loop.
 115:Generated_Source\PSoC4/cyfitter_cfg.c **** *
 116:Generated_Source\PSoC4/cyfitter_cfg.c **** * Parameters:
 117:Generated_Source\PSoC4/cyfitter_cfg.c **** *   void
 118:Generated_Source\PSoC4/cyfitter_cfg.c **** *
 119:Generated_Source\PSoC4/cyfitter_cfg.c **** * Return:
 120:Generated_Source\PSoC4/cyfitter_cfg.c **** *   void
 121:Generated_Source\PSoC4/cyfitter_cfg.c **** *
 122:Generated_Source\PSoC4/cyfitter_cfg.c **** *******************************************************************************/
 123:Generated_Source\PSoC4/cyfitter_cfg.c **** CY_CFG_UNUSED
 124:Generated_Source\PSoC4/cyfitter_cfg.c **** static void CyClockStartupError(uint8 errorCode);
 125:Generated_Source\PSoC4/cyfitter_cfg.c **** CY_CFG_UNUSED
 126:Generated_Source\PSoC4/cyfitter_cfg.c **** static void CyClockStartupError(uint8 errorCode)
 127:Generated_Source\PSoC4/cyfitter_cfg.c **** {
 128:Generated_Source\PSoC4/cyfitter_cfg.c ****     /* To remove the compiler warning if errorCode not used.                */
 129:Generated_Source\PSoC4/cyfitter_cfg.c ****     errorCode = errorCode;
 130:Generated_Source\PSoC4/cyfitter_cfg.c **** 
 131:Generated_Source\PSoC4/cyfitter_cfg.c ****     /* If we have a clock startup error (bad MHz crystal, PLL lock, etc.),  */
 132:Generated_Source\PSoC4/cyfitter_cfg.c ****     /* we will end up here to allow the customer to implement something to  */
 133:Generated_Source\PSoC4/cyfitter_cfg.c ****     /* deal with the clock condition.                                       */
 134:Generated_Source\PSoC4/cyfitter_cfg.c **** 
 135:Generated_Source\PSoC4/cyfitter_cfg.c **** #ifdef CY_CFG_CLOCK_STARTUP_ERROR_CALLBACK
 136:Generated_Source\PSoC4/cyfitter_cfg.c ****     CY_CFG_Clock_Startup_ErrorCallback();
 137:Generated_Source\PSoC4/cyfitter_cfg.c **** #else
 138:Generated_Source\PSoC4/cyfitter_cfg.c ****     /*  If not using CY_CFG_CLOCK_STARTUP_ERROR_CALLBACK, place your clock startup code here. */
 139:Generated_Source\PSoC4/cyfitter_cfg.c ****     /* `#START CyClockStartupError` */
 140:Generated_Source\PSoC4/cyfitter_cfg.c **** 
 141:Generated_Source\PSoC4/cyfitter_cfg.c **** 
 142:Generated_Source\PSoC4/cyfitter_cfg.c **** 
 143:Generated_Source\PSoC4/cyfitter_cfg.c ****     /* `#END` */
 144:Generated_Source\PSoC4/cyfitter_cfg.c **** 
ARM GAS  C:\Users\ilya\AppData\Local\Temp\cc2j0tZW.s 			page 4


 145:Generated_Source\PSoC4/cyfitter_cfg.c ****     while(1) {}
 146:Generated_Source\PSoC4/cyfitter_cfg.c **** #endif /* CY_CFG_CLOCK_STARTUP_ERROR_CALLBACK */
 147:Generated_Source\PSoC4/cyfitter_cfg.c **** }
 148:Generated_Source\PSoC4/cyfitter_cfg.c **** #endif
 149:Generated_Source\PSoC4/cyfitter_cfg.c **** 
 150:Generated_Source\PSoC4/cyfitter_cfg.c **** #define CY_CFG_BASE_ADDR_COUNT 7u
 151:Generated_Source\PSoC4/cyfitter_cfg.c **** CYPACKED typedef struct
 152:Generated_Source\PSoC4/cyfitter_cfg.c **** {
 153:Generated_Source\PSoC4/cyfitter_cfg.c **** 	uint8 offset;
 154:Generated_Source\PSoC4/cyfitter_cfg.c **** 	uint8 value;
 155:Generated_Source\PSoC4/cyfitter_cfg.c **** } CYPACKED_ATTR cy_cfg_addrvalue_t;
 156:Generated_Source\PSoC4/cyfitter_cfg.c **** 
 157:Generated_Source\PSoC4/cyfitter_cfg.c **** 
 158:Generated_Source\PSoC4/cyfitter_cfg.c **** 
 159:Generated_Source\PSoC4/cyfitter_cfg.c **** /*******************************************************************************
 160:Generated_Source\PSoC4/cyfitter_cfg.c **** * Function Name: cfg_write_bytes32
 161:Generated_Source\PSoC4/cyfitter_cfg.c **** ********************************************************************************
 162:Generated_Source\PSoC4/cyfitter_cfg.c **** * Summary:
 163:Generated_Source\PSoC4/cyfitter_cfg.c **** *  This function is used for setting up the chip configuration areas that
 164:Generated_Source\PSoC4/cyfitter_cfg.c **** *  contain relatively sparse data.
 165:Generated_Source\PSoC4/cyfitter_cfg.c **** *
 166:Generated_Source\PSoC4/cyfitter_cfg.c **** * Parameters:
 167:Generated_Source\PSoC4/cyfitter_cfg.c **** *   void
 168:Generated_Source\PSoC4/cyfitter_cfg.c **** *
 169:Generated_Source\PSoC4/cyfitter_cfg.c **** * Return:
 170:Generated_Source\PSoC4/cyfitter_cfg.c **** *   void
 171:Generated_Source\PSoC4/cyfitter_cfg.c **** *
 172:Generated_Source\PSoC4/cyfitter_cfg.c **** *******************************************************************************/
 173:Generated_Source\PSoC4/cyfitter_cfg.c **** static void cfg_write_bytes32(const uint32 addr_table[], const cy_cfg_addrvalue_t data_table[]);
 174:Generated_Source\PSoC4/cyfitter_cfg.c **** static void cfg_write_bytes32(const uint32 addr_table[], const cy_cfg_addrvalue_t data_table[])
 175:Generated_Source\PSoC4/cyfitter_cfg.c **** {
 176:Generated_Source\PSoC4/cyfitter_cfg.c **** 	/* For 32-bit little-endian architectures */
 177:Generated_Source\PSoC4/cyfitter_cfg.c **** 	uint32 i, j = 0u;
 178:Generated_Source\PSoC4/cyfitter_cfg.c **** 	for (i = 0u; i < CY_CFG_BASE_ADDR_COUNT; i++)
 179:Generated_Source\PSoC4/cyfitter_cfg.c **** 	{
 180:Generated_Source\PSoC4/cyfitter_cfg.c **** 		uint32 baseAddr = addr_table[i];
 181:Generated_Source\PSoC4/cyfitter_cfg.c **** 		uint8 count = (uint8)baseAddr;
 182:Generated_Source\PSoC4/cyfitter_cfg.c **** 		baseAddr &= 0xFFFFFF00u;
 183:Generated_Source\PSoC4/cyfitter_cfg.c **** 		while (count != 0u)
 184:Generated_Source\PSoC4/cyfitter_cfg.c **** 		{
 185:Generated_Source\PSoC4/cyfitter_cfg.c **** 			CY_SET_REG8((void *)(baseAddr + data_table[j].offset), data_table[j].value);
 186:Generated_Source\PSoC4/cyfitter_cfg.c **** 			j++;
 187:Generated_Source\PSoC4/cyfitter_cfg.c **** 			count--;
 188:Generated_Source\PSoC4/cyfitter_cfg.c **** 		}
 189:Generated_Source\PSoC4/cyfitter_cfg.c **** 	}
 190:Generated_Source\PSoC4/cyfitter_cfg.c **** }
 191:Generated_Source\PSoC4/cyfitter_cfg.c **** 
 192:Generated_Source\PSoC4/cyfitter_cfg.c **** 
 193:Generated_Source\PSoC4/cyfitter_cfg.c **** /*******************************************************************************
 194:Generated_Source\PSoC4/cyfitter_cfg.c **** * Function Name: ClockSetup
 195:Generated_Source\PSoC4/cyfitter_cfg.c **** ********************************************************************************
 196:Generated_Source\PSoC4/cyfitter_cfg.c **** *
 197:Generated_Source\PSoC4/cyfitter_cfg.c **** * Summary:
 198:Generated_Source\PSoC4/cyfitter_cfg.c **** *   Performs the initialization of all of the clocks in the device based on the
 199:Generated_Source\PSoC4/cyfitter_cfg.c **** *   settings in the Clock tab of the DWR.  This includes enabling the requested
 200:Generated_Source\PSoC4/cyfitter_cfg.c **** *   clocks and setting the necessary dividers to produce the desired frequency. 
 201:Generated_Source\PSoC4/cyfitter_cfg.c **** *
ARM GAS  C:\Users\ilya\AppData\Local\Temp\cc2j0tZW.s 			page 5


 202:Generated_Source\PSoC4/cyfitter_cfg.c **** * Parameters:
 203:Generated_Source\PSoC4/cyfitter_cfg.c **** *   void
 204:Generated_Source\PSoC4/cyfitter_cfg.c **** *
 205:Generated_Source\PSoC4/cyfitter_cfg.c **** * Return:
 206:Generated_Source\PSoC4/cyfitter_cfg.c **** *   void
 207:Generated_Source\PSoC4/cyfitter_cfg.c **** *
 208:Generated_Source\PSoC4/cyfitter_cfg.c **** *******************************************************************************/
 209:Generated_Source\PSoC4/cyfitter_cfg.c **** static void ClockSetup(void);
 210:Generated_Source\PSoC4/cyfitter_cfg.c **** CY_CFG_SECTION
 211:Generated_Source\PSoC4/cyfitter_cfg.c **** static void ClockSetup(void)
 212:Generated_Source\PSoC4/cyfitter_cfg.c **** {
 213:Generated_Source\PSoC4/cyfitter_cfg.c **** 
 214:Generated_Source\PSoC4/cyfitter_cfg.c **** 	/* Set Flash Cycles based on max possible frequency in case a glitch occurs during ClockSetup(). *
 215:Generated_Source\PSoC4/cyfitter_cfg.c **** 	CY_SET_REG32((void CYXDATA *)(CYREG_CPUSS_FLASH_CTL), (0x0012u));
 216:Generated_Source\PSoC4/cyfitter_cfg.c **** 	/* Setup and trim IMO based on desired frequency. */
 217:Generated_Source\PSoC4/cyfitter_cfg.c **** 	CySysClkWriteImoFreq(48u);
 218:Generated_Source\PSoC4/cyfitter_cfg.c **** 	/* CYDEV_CLK_ILO_CONFIG Starting address: CYDEV_CLK_ILO_CONFIG */
 219:Generated_Source\PSoC4/cyfitter_cfg.c **** 	CY_SET_REG32((void *)(CYREG_CLK_ILO_CONFIG), 0x80000006u);
 220:Generated_Source\PSoC4/cyfitter_cfg.c **** 
 221:Generated_Source\PSoC4/cyfitter_cfg.c **** 
 222:Generated_Source\PSoC4/cyfitter_cfg.c **** 	/* Setup phase aligned clocks */
 223:Generated_Source\PSoC4/cyfitter_cfg.c **** 	CY_SET_REG32((void *)CYREG_PERI_DIV_16_CTL1, 0x00000300u);
 224:Generated_Source\PSoC4/cyfitter_cfg.c **** 	CY_SET_REG32((void *)CYREG_PERI_DIV_CMD, 0x8000FF41u);
 225:Generated_Source\PSoC4/cyfitter_cfg.c **** 	CY_SET_REG32((void *)CYREG_PERI_DIV_16_CTL0, 0x00000000u);
 226:Generated_Source\PSoC4/cyfitter_cfg.c **** 	CY_SET_REG32((void *)CYREG_PERI_DIV_CMD, 0x8000FF40u);
 227:Generated_Source\PSoC4/cyfitter_cfg.c **** 	CY_SET_REG32((void *)CYREG_PERI_DIV_16_CTL3, 0x00002F00u);
 228:Generated_Source\PSoC4/cyfitter_cfg.c **** 	CY_SET_REG32((void *)CYREG_PERI_DIV_CMD, 0x8000FF43u);
 229:Generated_Source\PSoC4/cyfitter_cfg.c **** 	CY_SET_REG32((void *)CYREG_PERI_DIV_16_CTL2, 0x00000500u);
 230:Generated_Source\PSoC4/cyfitter_cfg.c **** 	CY_SET_REG32((void *)CYREG_PERI_DIV_CMD, 0x8000FF42u);
 231:Generated_Source\PSoC4/cyfitter_cfg.c **** 
 232:Generated_Source\PSoC4/cyfitter_cfg.c **** 	/* CYDEV_CLK_IMO_CONFIG Starting address: CYDEV_CLK_IMO_CONFIG */
 233:Generated_Source\PSoC4/cyfitter_cfg.c **** 	CY_SET_REG32((void *)(CYREG_CLK_IMO_CONFIG), 0x82000000u);
 234:Generated_Source\PSoC4/cyfitter_cfg.c **** 
 235:Generated_Source\PSoC4/cyfitter_cfg.c **** 	/* CYDEV_CLK_SELECT Starting address: CYDEV_CLK_SELECT */
 236:Generated_Source\PSoC4/cyfitter_cfg.c **** 	CY_SET_REG32((void *)(CYREG_CLK_SELECT), 0x00040000u);
 237:Generated_Source\PSoC4/cyfitter_cfg.c **** 
 238:Generated_Source\PSoC4/cyfitter_cfg.c **** 	/* CYDEV_PERI_PCLK_CTL12 Starting address: CYDEV_PERI_PCLK_CTL12 */
 239:Generated_Source\PSoC4/cyfitter_cfg.c **** 	CY_SET_REG32((void *)(CYREG_PERI_PCLK_CTL12), 0x00000041u);
 240:Generated_Source\PSoC4/cyfitter_cfg.c **** 
 241:Generated_Source\PSoC4/cyfitter_cfg.c **** 	/* CYDEV_PERI_PCLK_CTL11 Starting address: CYDEV_PERI_PCLK_CTL11 */
 242:Generated_Source\PSoC4/cyfitter_cfg.c **** 	CY_SET_REG32((void *)(CYREG_PERI_PCLK_CTL11), 0x00000040u);
 243:Generated_Source\PSoC4/cyfitter_cfg.c **** 
 244:Generated_Source\PSoC4/cyfitter_cfg.c **** 	/* CYDEV_PERI_PCLK_CTL10 Starting address: CYDEV_PERI_PCLK_CTL10 */
 245:Generated_Source\PSoC4/cyfitter_cfg.c **** 	CY_SET_REG32((void *)(CYREG_PERI_PCLK_CTL10), 0x00000043u);
 246:Generated_Source\PSoC4/cyfitter_cfg.c **** 
 247:Generated_Source\PSoC4/cyfitter_cfg.c **** 	/* CYDEV_PERI_PCLK_CTL3 Starting address: CYDEV_PERI_PCLK_CTL3 */
 248:Generated_Source\PSoC4/cyfitter_cfg.c **** 	CY_SET_REG32((void *)(CYREG_PERI_PCLK_CTL3), 0x00000042u);
 249:Generated_Source\PSoC4/cyfitter_cfg.c **** 
 250:Generated_Source\PSoC4/cyfitter_cfg.c **** 	(void)CyIntSetVector(7u, &CySysWdtIsr);
 251:Generated_Source\PSoC4/cyfitter_cfg.c **** 	CyIntEnable(7u);
 252:Generated_Source\PSoC4/cyfitter_cfg.c **** 	CY_SET_REG32((void *)(CYREG_WDT_CONFIG), 0x00000000u);
 253:Generated_Source\PSoC4/cyfitter_cfg.c **** }
 254:Generated_Source\PSoC4/cyfitter_cfg.c **** 
 255:Generated_Source\PSoC4/cyfitter_cfg.c **** 
 256:Generated_Source\PSoC4/cyfitter_cfg.c **** /* Analog API Functions */
 257:Generated_Source\PSoC4/cyfitter_cfg.c **** 
 258:Generated_Source\PSoC4/cyfitter_cfg.c **** 
ARM GAS  C:\Users\ilya\AppData\Local\Temp\cc2j0tZW.s 			page 6


 259:Generated_Source\PSoC4/cyfitter_cfg.c **** /*******************************************************************************
 260:Generated_Source\PSoC4/cyfitter_cfg.c **** * Function Name: AnalogSetDefault
 261:Generated_Source\PSoC4/cyfitter_cfg.c **** ********************************************************************************
 262:Generated_Source\PSoC4/cyfitter_cfg.c **** *
 263:Generated_Source\PSoC4/cyfitter_cfg.c **** * Summary:
 264:Generated_Source\PSoC4/cyfitter_cfg.c **** *  Sets up the analog portions of the chip to default values based on chip
 265:Generated_Source\PSoC4/cyfitter_cfg.c **** *  configuration options from the project.
 266:Generated_Source\PSoC4/cyfitter_cfg.c **** *
 267:Generated_Source\PSoC4/cyfitter_cfg.c **** * Parameters:
 268:Generated_Source\PSoC4/cyfitter_cfg.c **** *  void
 269:Generated_Source\PSoC4/cyfitter_cfg.c **** *
 270:Generated_Source\PSoC4/cyfitter_cfg.c **** * Return:
 271:Generated_Source\PSoC4/cyfitter_cfg.c **** *  void
 272:Generated_Source\PSoC4/cyfitter_cfg.c **** *
 273:Generated_Source\PSoC4/cyfitter_cfg.c **** *******************************************************************************/
 274:Generated_Source\PSoC4/cyfitter_cfg.c **** static void AnalogSetDefault(void);
 275:Generated_Source\PSoC4/cyfitter_cfg.c **** static void AnalogSetDefault(void)
 276:Generated_Source\PSoC4/cyfitter_cfg.c **** {
 277:Generated_Source\PSoC4/cyfitter_cfg.c **** 	CY_SET_XTND_REG32((void CYFAR *)CYREG_HSIOM_AMUX_SPLIT_CTL0, 0x00000003u);
 278:Generated_Source\PSoC4/cyfitter_cfg.c **** 	CY_SET_XTND_REG32((void CYFAR *)CYREG_HSIOM_AMUX_SPLIT_CTL1, 0x00000003u);
 279:Generated_Source\PSoC4/cyfitter_cfg.c **** 	CY_SET_XTND_REG32((void CYFAR *)CYREG_CTBM0_CTB_CTRL, 0x80000000u);
 280:Generated_Source\PSoC4/cyfitter_cfg.c **** 	CY_SET_XTND_REG32((void CYFAR *)CYREG_CTBM0_DFT_CTRL, 0x00000003u);
 281:Generated_Source\PSoC4/cyfitter_cfg.c **** 	CY_SET_XTND_REG32((void CYFAR *)CYREG_CTBM0_OA0_SW, 0x00204001u);
 282:Generated_Source\PSoC4/cyfitter_cfg.c **** 	CY_SET_XTND_REG32((void CYFAR *)CYREG_CTBM0_OA1_SW, 0x00000102u);
 283:Generated_Source\PSoC4/cyfitter_cfg.c **** 	CY_SET_XTND_REG32((void CYFAR *)CYREG_CTBM1_CTB_CTRL, 0x80000000u);
 284:Generated_Source\PSoC4/cyfitter_cfg.c **** 	CY_SET_XTND_REG32((void CYFAR *)CYREG_CTBM1_DFT_CTRL, 0x00000003u);
 285:Generated_Source\PSoC4/cyfitter_cfg.c **** 	CY_SET_XTND_REG32((void CYFAR *)CYREG_CTBM1_OA0_SW, 0x00204001u);
 286:Generated_Source\PSoC4/cyfitter_cfg.c **** 	CY_SET_XTND_REG32((void CYFAR *)CYREG_CTBM1_OA1_SW, 0x00204010u);
 287:Generated_Source\PSoC4/cyfitter_cfg.c **** 	CY_SET_XTND_REG32((void CYFAR *)CYREG_SAR_CTRL, 0x80000000u);
 288:Generated_Source\PSoC4/cyfitter_cfg.c **** 	CY_SET_XTND_REG32((void CYFAR *)CYREG_SAR_MUX_SWITCH0, 0x00000010u);
 289:Generated_Source\PSoC4/cyfitter_cfg.c **** 	CY_SET_XTND_REG32((void CYFAR *)CYREG_PASS_DSAB_DSAB_CTRL, 0x00000000u);
 290:Generated_Source\PSoC4/cyfitter_cfg.c **** 	SetAnalogRoutingPumps(1);
 291:Generated_Source\PSoC4/cyfitter_cfg.c **** }
 292:Generated_Source\PSoC4/cyfitter_cfg.c **** 
 293:Generated_Source\PSoC4/cyfitter_cfg.c **** 
 294:Generated_Source\PSoC4/cyfitter_cfg.c **** /*******************************************************************************
 295:Generated_Source\PSoC4/cyfitter_cfg.c **** * Function Name: SetAnalogRoutingPumps
 296:Generated_Source\PSoC4/cyfitter_cfg.c **** ********************************************************************************
 297:Generated_Source\PSoC4/cyfitter_cfg.c **** *
 298:Generated_Source\PSoC4/cyfitter_cfg.c **** * Summary:
 299:Generated_Source\PSoC4/cyfitter_cfg.c **** * Enables or disables the analog pumps feeding analog routing switches.
 300:Generated_Source\PSoC4/cyfitter_cfg.c **** * Intended to be called at startup, based on the Vdda system configuration;
 301:Generated_Source\PSoC4/cyfitter_cfg.c **** * may be called during operation when the user informs us that the Vdda voltage crossed the pump th
 302:Generated_Source\PSoC4/cyfitter_cfg.c **** *
 303:Generated_Source\PSoC4/cyfitter_cfg.c **** * Parameters:
 304:Generated_Source\PSoC4/cyfitter_cfg.c **** *  enabled - 1 to enable the pumps, 0 to disable the pumps
 305:Generated_Source\PSoC4/cyfitter_cfg.c **** *
 306:Generated_Source\PSoC4/cyfitter_cfg.c **** * Return:
 307:Generated_Source\PSoC4/cyfitter_cfg.c **** *  void
 308:Generated_Source\PSoC4/cyfitter_cfg.c **** *
 309:Generated_Source\PSoC4/cyfitter_cfg.c **** *******************************************************************************/
 310:Generated_Source\PSoC4/cyfitter_cfg.c **** void SetAnalogRoutingPumps(uint8 enabled)
 311:Generated_Source\PSoC4/cyfitter_cfg.c **** {
  28              		.loc 1 311 0
  29              		.cfi_startproc
  30              		@ args = 0, pretend = 0, frame = 0
  31              		@ frame_needed = 0, uses_anonymous_args = 0
ARM GAS  C:\Users\ilya\AppData\Local\Temp\cc2j0tZW.s 			page 7


  32              		@ link register save eliminated.
  33              	.LVL0:
 312:Generated_Source\PSoC4/cyfitter_cfg.c **** 	uint32 regValue = CY_GET_XTND_REG32((void *)(CYREG_SAR_PUMP_CTRL));
  34              		.loc 1 312 0
  35 0000 064B     		ldr	r3, .L6
  36 0002 1B68     		ldr	r3, [r3]
  37              	.LVL1:
 313:Generated_Source\PSoC4/cyfitter_cfg.c **** 	if (enabled != 0u)
  38              		.loc 1 313 0
  39 0004 0028     		cmp	r0, #0
  40 0006 04D1     		bne	.L5
 314:Generated_Source\PSoC4/cyfitter_cfg.c **** 	{
 315:Generated_Source\PSoC4/cyfitter_cfg.c **** 		regValue |= 0x80000000u;
 316:Generated_Source\PSoC4/cyfitter_cfg.c **** 	}
 317:Generated_Source\PSoC4/cyfitter_cfg.c **** 	else
 318:Generated_Source\PSoC4/cyfitter_cfg.c **** 	{
 319:Generated_Source\PSoC4/cyfitter_cfg.c **** 		regValue &= ~0x80000000u;
  41              		.loc 1 319 0
  42 0008 5B00     		lsls	r3, r3, #1
  43              	.LVL2:
  44 000a 5B08     		lsrs	r3, r3, #1
  45              	.LVL3:
  46              	.L3:
 320:Generated_Source\PSoC4/cyfitter_cfg.c **** 	}
 321:Generated_Source\PSoC4/cyfitter_cfg.c **** 	CY_SET_XTND_REG32((void *)(CYREG_SAR_PUMP_CTRL), regValue);
  47              		.loc 1 321 0
  48 000c 034A     		ldr	r2, .L6
 322:Generated_Source\PSoC4/cyfitter_cfg.c **** }
  49              		.loc 1 322 0
  50              		@ sp needed
 321:Generated_Source\PSoC4/cyfitter_cfg.c **** }
  51              		.loc 1 321 0
  52 000e 1360     		str	r3, [r2]
  53              		.loc 1 322 0
  54 0010 7047     		bx	lr
  55              	.L5:
 315:Generated_Source\PSoC4/cyfitter_cfg.c **** 	}
  56              		.loc 1 315 0
  57 0012 8022     		movs	r2, #128
  58 0014 1206     		lsls	r2, r2, #24
  59 0016 1343     		orrs	r3, r2
  60              	.LVL4:
  61 0018 F8E7     		b	.L3
  62              	.L7:
  63 001a C046     		.align	2
  64              	.L6:
  65 001c 80033A40 		.word	1077543808
  66              		.cfi_endproc
  67              	.LFE7:
  68              		.size	SetAnalogRoutingPumps, .-SetAnalogRoutingPumps
  69              		.section	.psocinit,"ax",%progbits
  70              		.align	2
  71              		.global	cyfitter_cfg
  72              		.code	16
  73              		.thumb_func
  74              		.type	cyfitter_cfg, %function
  75              	cyfitter_cfg:
ARM GAS  C:\Users\ilya\AppData\Local\Temp\cc2j0tZW.s 			page 8


  76              	.LFB8:
 323:Generated_Source\PSoC4/cyfitter_cfg.c **** 
 324:Generated_Source\PSoC4/cyfitter_cfg.c **** 
 325:Generated_Source\PSoC4/cyfitter_cfg.c **** 
 326:Generated_Source\PSoC4/cyfitter_cfg.c **** 
 327:Generated_Source\PSoC4/cyfitter_cfg.c **** /*******************************************************************************
 328:Generated_Source\PSoC4/cyfitter_cfg.c **** * Function Name: cyfitter_cfg
 329:Generated_Source\PSoC4/cyfitter_cfg.c **** ********************************************************************************
 330:Generated_Source\PSoC4/cyfitter_cfg.c **** * Summary:
 331:Generated_Source\PSoC4/cyfitter_cfg.c **** *  This function is called by the start-up code for the selected device. It
 332:Generated_Source\PSoC4/cyfitter_cfg.c **** *  performs all of the necessary device configuration based on the design
 333:Generated_Source\PSoC4/cyfitter_cfg.c **** *  settings.  This includes settings from the Design Wide Resources (DWR) such
 334:Generated_Source\PSoC4/cyfitter_cfg.c **** *  as Clocks and Pins as well as any component configuration that is necessary.
 335:Generated_Source\PSoC4/cyfitter_cfg.c **** *
 336:Generated_Source\PSoC4/cyfitter_cfg.c **** * Parameters:
 337:Generated_Source\PSoC4/cyfitter_cfg.c **** *   void
 338:Generated_Source\PSoC4/cyfitter_cfg.c **** *
 339:Generated_Source\PSoC4/cyfitter_cfg.c **** * Return:
 340:Generated_Source\PSoC4/cyfitter_cfg.c **** *   void
 341:Generated_Source\PSoC4/cyfitter_cfg.c **** *
 342:Generated_Source\PSoC4/cyfitter_cfg.c **** *******************************************************************************/
 343:Generated_Source\PSoC4/cyfitter_cfg.c **** CY_CFG_SECTION
 344:Generated_Source\PSoC4/cyfitter_cfg.c **** void cyfitter_cfg(void)
 345:Generated_Source\PSoC4/cyfitter_cfg.c **** {
  77              		.loc 1 345 0
  78              		.cfi_startproc
  79              		@ args = 0, pretend = 0, frame = 0
  80              		@ frame_needed = 0, uses_anonymous_args = 0
  81 0000 F0B5     		push	{r4, r5, r6, r7, lr}
  82              		.cfi_def_cfa_offset 20
  83              		.cfi_offset 4, -20
  84              		.cfi_offset 5, -16
  85              		.cfi_offset 6, -12
  86              		.cfi_offset 7, -8
  87              		.cfi_offset 14, -4
  88 0002 4746     		mov	r7, r8
  89 0004 80B4     		push	{r7}
  90              		.cfi_def_cfa_offset 24
  91              		.cfi_offset 8, -24
 346:Generated_Source\PSoC4/cyfitter_cfg.c **** 	/* Disable interrupts by default. Let user enable if/when they want. */
 347:Generated_Source\PSoC4/cyfitter_cfg.c **** 	CyGlobalIntDisable;
  92              		.loc 1 347 0
  93              		.syntax divided
  94              	@ 347 "Generated_Source\PSoC4\cyfitter_cfg.c" 1
  95 0006 72B6     		CPSID   i
  96              	@ 0 "" 2
 348:Generated_Source\PSoC4/cyfitter_cfg.c **** 
 349:Generated_Source\PSoC4/cyfitter_cfg.c **** 	/* Enable the clock in the interrupt controller for the routed interrupts */
 350:Generated_Source\PSoC4/cyfitter_cfg.c **** 	CY_SET_REG8((void *)CYREG_UDB_UDBIF_INT_CLK_CTL, 0x01u);
  97              		.loc 1 350 0
  98              		.thumb
  99              		.syntax unified
 100 0008 0122     		movs	r2, #1
 101 000a 744B     		ldr	r3, .L17
 102              	.LBB24:
 103              	.LBB25:
 104              	.LBB26:
ARM GAS  C:\Users\ilya\AppData\Local\Temp\cc2j0tZW.s 			page 9


 105              	.LBB27:
  78:Generated_Source\PSoC4/cyfitter_cfg.c **** }
 106              		.loc 1 78 0
 107 000c 0021     		movs	r1, #0
 108              	.LBE27:
 109              	.LBE26:
 110              	.LBE25:
 111              	.LBE24:
 112              		.loc 1 350 0
 113 000e 1A70     		strb	r2, [r3]
 114              	.LVL5:
 115              	.LBB40:
 116              	.LBB32:
 117              	.LBB30:
 118              	.LBB28:
  78:Generated_Source\PSoC4/cyfitter_cfg.c **** }
 119              		.loc 1 78 0
 120 0010 8022     		movs	r2, #128
 121 0012 7348     		ldr	r0, .L17+4
 122 0014 D200     		lsls	r2, r2, #3
 123 0016 FFF7FEFF 		bl	memset
 124              	.LVL6:
 125 001a 8022     		movs	r2, #128
 126 001c 0021     		movs	r1, #0
 127 001e D200     		lsls	r2, r2, #3
 128 0020 7048     		ldr	r0, .L17+8
 129 0022 FFF7FEFF 		bl	memset
 130              	.LVL7:
 131 0026 1C23     		movs	r3, #28
 132 0028 9846     		mov	r8, r3
 133 002a 6F4D     		ldr	r5, .L17+12
 134              	.LBE28:
 135              	.LBE30:
 136              	.LBE32:
 137              	.LBB33:
 138              	.LBB34:
 139              	.LBB35:
 182:Generated_Source\PSoC4/cyfitter_cfg.c **** 		while (count != 0u)
 140              		.loc 1 182 0
 141 002c E333     		adds	r3, r3, #227
 142 002e A844     		add	r8, r8, r5
 143              	.LBE35:
 144              	.LBE34:
 145              	.LBE33:
 146              	.LBB38:
 147              	.LBB31:
 148              	.LBB29:
  78:Generated_Source\PSoC4/cyfitter_cfg.c **** }
 149              		.loc 1 78 0
 150 0030 0027     		movs	r7, #0
 151              	.LBE29:
 152              	.LBE31:
 153              	.LBE38:
 154              	.LBB39:
 155              	.LBB37:
 156              	.LBB36:
 182:Generated_Source\PSoC4/cyfitter_cfg.c **** 		while (count != 0u)
ARM GAS  C:\Users\ilya\AppData\Local\Temp\cc2j0tZW.s 			page 10


 157              		.loc 1 182 0
 158 0032 9C46     		mov	ip, r3
 159 0034 4646     		mov	r6, r8
 160              	.LVL8:
 161              	.L11:
 162 0036 6346     		mov	r3, ip
 163 0038 2868     		ldr	r0, [r5]
 181:Generated_Source\PSoC4/cyfitter_cfg.c **** 		baseAddr &= 0xFFFFFF00u;
 164              		.loc 1 181 0
 165 003a 2A78     		ldrb	r2, [r5]
 166              	.LVL9:
 182:Generated_Source\PSoC4/cyfitter_cfg.c **** 		while (count != 0u)
 167              		.loc 1 182 0
 168 003c 9843     		bics	r0, r3
 169              	.LVL10:
 183:Generated_Source\PSoC4/cyfitter_cfg.c **** 		{
 170              		.loc 1 183 0
 171 003e 002A     		cmp	r2, #0
 172 0040 0ED0     		beq	.L9
 173 0042 013A     		subs	r2, r2, #1
 174              	.LVL11:
 175 0044 791C     		adds	r1, r7, #1
 176 0046 D2B2     		uxtb	r2, r2
 177              	.LVL12:
 178 0048 7B00     		lsls	r3, r7, #1
 179 004a 5718     		adds	r7, r2, r1
 180              	.LVL13:
 181 004c 7C00     		lsls	r4, r7, #1
 182 004e F318     		adds	r3, r6, r3
 183 0050 3419     		adds	r4, r6, r4
 184              	.LVL14:
 185              	.L10:
 185:Generated_Source\PSoC4/cyfitter_cfg.c **** 			j++;
 186              		.loc 1 185 0
 187 0052 1A78     		ldrb	r2, [r3]
 188 0054 5978     		ldrb	r1, [r3, #1]
 189 0056 1218     		adds	r2, r2, r0
 190 0058 0233     		adds	r3, r3, #2
 191 005a 1170     		strb	r1, [r2]
 183:Generated_Source\PSoC4/cyfitter_cfg.c **** 		{
 192              		.loc 1 183 0
 193 005c 9C42     		cmp	r4, r3
 194 005e F8D1     		bne	.L10
 195              	.L9:
 196              	.LVL15:
 197 0060 0435     		adds	r5, r5, #4
 198              	.LBE36:
 178:Generated_Source\PSoC4/cyfitter_cfg.c **** 	{
 199              		.loc 1 178 0
 200 0062 4545     		cmp	r5, r8
 201 0064 E7D1     		bne	.L11
 202              	.LVL16:
 203              	.LBE37:
 204              	.LBE39:
 351:Generated_Source\PSoC4/cyfitter_cfg.c **** 	{
 352:Generated_Source\PSoC4/cyfitter_cfg.c **** 		static const uint32 CYCODE cy_cfg_addr_table[] = {
 353:Generated_Source\PSoC4/cyfitter_cfg.c **** 			0x400F3104u, /* Base address: 0x400F3100 Count: 4 */
ARM GAS  C:\Users\ilya\AppData\Local\Temp\cc2j0tZW.s 			page 11


 354:Generated_Source\PSoC4/cyfitter_cfg.c **** 			0x400F3216u, /* Base address: 0x400F3200 Count: 22 */
 355:Generated_Source\PSoC4/cyfitter_cfg.c **** 			0x400F3320u, /* Base address: 0x400F3300 Count: 32 */
 356:Generated_Source\PSoC4/cyfitter_cfg.c **** 			0x400F400Bu, /* Base address: 0x400F4000 Count: 11 */
 357:Generated_Source\PSoC4/cyfitter_cfg.c **** 			0x400F4107u, /* Base address: 0x400F4100 Count: 7 */
 358:Generated_Source\PSoC4/cyfitter_cfg.c **** 			0x400F420Au, /* Base address: 0x400F4200 Count: 10 */
 359:Generated_Source\PSoC4/cyfitter_cfg.c **** 			0x400F430Au, /* Base address: 0x400F4300 Count: 10 */
 360:Generated_Source\PSoC4/cyfitter_cfg.c **** 		};
 361:Generated_Source\PSoC4/cyfitter_cfg.c **** 
 362:Generated_Source\PSoC4/cyfitter_cfg.c **** 		static const cy_cfg_addrvalue_t CYCODE cy_cfg_data_table[] = {
 363:Generated_Source\PSoC4/cyfitter_cfg.c **** 			{0x85u, 0x02u},
 364:Generated_Source\PSoC4/cyfitter_cfg.c **** 			{0x86u, 0x01u},
 365:Generated_Source\PSoC4/cyfitter_cfg.c **** 			{0x8Eu, 0x40u},
 366:Generated_Source\PSoC4/cyfitter_cfg.c **** 			{0xE6u, 0x08u},
 367:Generated_Source\PSoC4/cyfitter_cfg.c **** 			{0x80u, 0x18u},
 368:Generated_Source\PSoC4/cyfitter_cfg.c **** 			{0x8Au, 0x50u},
 369:Generated_Source\PSoC4/cyfitter_cfg.c **** 			{0x8Eu, 0x04u},
 370:Generated_Source\PSoC4/cyfitter_cfg.c **** 			{0x92u, 0x01u},
 371:Generated_Source\PSoC4/cyfitter_cfg.c **** 			{0x96u, 0x02u},
 372:Generated_Source\PSoC4/cyfitter_cfg.c **** 			{0x98u, 0x08u},
 373:Generated_Source\PSoC4/cyfitter_cfg.c **** 			{0x9Eu, 0x68u},
 374:Generated_Source\PSoC4/cyfitter_cfg.c **** 			{0xA2u, 0x01u},
 375:Generated_Source\PSoC4/cyfitter_cfg.c **** 			{0xA6u, 0x02u},
 376:Generated_Source\PSoC4/cyfitter_cfg.c **** 			{0xAAu, 0x04u},
 377:Generated_Source\PSoC4/cyfitter_cfg.c **** 			{0xB0u, 0x40u},
 378:Generated_Source\PSoC4/cyfitter_cfg.c **** 			{0xB2u, 0x18u},
 379:Generated_Source\PSoC4/cyfitter_cfg.c **** 			{0xB4u, 0x20u},
 380:Generated_Source\PSoC4/cyfitter_cfg.c **** 			{0xB6u, 0x07u},
 381:Generated_Source\PSoC4/cyfitter_cfg.c **** 			{0xB9u, 0x80u},
 382:Generated_Source\PSoC4/cyfitter_cfg.c **** 			{0xBEu, 0x41u},
 383:Generated_Source\PSoC4/cyfitter_cfg.c **** 			{0xBFu, 0x40u},
 384:Generated_Source\PSoC4/cyfitter_cfg.c **** 			{0xD8u, 0x04u},
 385:Generated_Source\PSoC4/cyfitter_cfg.c **** 			{0xD9u, 0x04u},
 386:Generated_Source\PSoC4/cyfitter_cfg.c **** 			{0xDBu, 0x04u},
 387:Generated_Source\PSoC4/cyfitter_cfg.c **** 			{0xDCu, 0x08u},
 388:Generated_Source\PSoC4/cyfitter_cfg.c **** 			{0xDFu, 0x31u},
 389:Generated_Source\PSoC4/cyfitter_cfg.c **** 			{0x00u, 0x10u},
 390:Generated_Source\PSoC4/cyfitter_cfg.c **** 			{0x01u, 0x42u},
 391:Generated_Source\PSoC4/cyfitter_cfg.c **** 			{0x08u, 0x40u},
 392:Generated_Source\PSoC4/cyfitter_cfg.c **** 			{0x09u, 0x04u},
 393:Generated_Source\PSoC4/cyfitter_cfg.c **** 			{0x0Au, 0x88u},
 394:Generated_Source\PSoC4/cyfitter_cfg.c **** 			{0x10u, 0x28u},
 395:Generated_Source\PSoC4/cyfitter_cfg.c **** 			{0x13u, 0x02u},
 396:Generated_Source\PSoC4/cyfitter_cfg.c **** 			{0x18u, 0x10u},
 397:Generated_Source\PSoC4/cyfitter_cfg.c **** 			{0x19u, 0x01u},
 398:Generated_Source\PSoC4/cyfitter_cfg.c **** 			{0x1Au, 0x0Au},
 399:Generated_Source\PSoC4/cyfitter_cfg.c **** 			{0x20u, 0x01u},
 400:Generated_Source\PSoC4/cyfitter_cfg.c **** 			{0x68u, 0x28u},
 401:Generated_Source\PSoC4/cyfitter_cfg.c **** 			{0x6Bu, 0x02u},
 402:Generated_Source\PSoC4/cyfitter_cfg.c **** 			{0x7Bu, 0x40u},
 403:Generated_Source\PSoC4/cyfitter_cfg.c **** 			{0x81u, 0x04u},
 404:Generated_Source\PSoC4/cyfitter_cfg.c **** 			{0x88u, 0x40u},
 405:Generated_Source\PSoC4/cyfitter_cfg.c **** 			{0x8Cu, 0x11u},
 406:Generated_Source\PSoC4/cyfitter_cfg.c **** 			{0x8Du, 0x01u},
 407:Generated_Source\PSoC4/cyfitter_cfg.c **** 			{0x91u, 0x40u},
 408:Generated_Source\PSoC4/cyfitter_cfg.c **** 			{0x92u, 0x80u},
 409:Generated_Source\PSoC4/cyfitter_cfg.c **** 			{0x96u, 0x02u},
 410:Generated_Source\PSoC4/cyfitter_cfg.c **** 			{0x99u, 0x02u},
ARM GAS  C:\Users\ilya\AppData\Local\Temp\cc2j0tZW.s 			page 12


 411:Generated_Source\PSoC4/cyfitter_cfg.c **** 			{0xA3u, 0x40u},
 412:Generated_Source\PSoC4/cyfitter_cfg.c **** 			{0xA9u, 0x40u},
 413:Generated_Source\PSoC4/cyfitter_cfg.c **** 			{0xABu, 0x40u},
 414:Generated_Source\PSoC4/cyfitter_cfg.c **** 			{0xC0u, 0x0Bu},
 415:Generated_Source\PSoC4/cyfitter_cfg.c **** 			{0xC2u, 0x0Fu},
 416:Generated_Source\PSoC4/cyfitter_cfg.c **** 			{0xC4u, 0x0Eu},
 417:Generated_Source\PSoC4/cyfitter_cfg.c **** 			{0xDEu, 0x01u},
 418:Generated_Source\PSoC4/cyfitter_cfg.c **** 			{0xE2u, 0x14u},
 419:Generated_Source\PSoC4/cyfitter_cfg.c **** 			{0xE6u, 0x40u},
 420:Generated_Source\PSoC4/cyfitter_cfg.c **** 			{0xEEu, 0x04u},
 421:Generated_Source\PSoC4/cyfitter_cfg.c **** 			{0x21u, 0x20u},
 422:Generated_Source\PSoC4/cyfitter_cfg.c **** 			{0x50u, 0x10u},
 423:Generated_Source\PSoC4/cyfitter_cfg.c **** 			{0x53u, 0x04u},
 424:Generated_Source\PSoC4/cyfitter_cfg.c **** 			{0x67u, 0x08u},
 425:Generated_Source\PSoC4/cyfitter_cfg.c **** 			{0x6Bu, 0x02u},
 426:Generated_Source\PSoC4/cyfitter_cfg.c **** 			{0x87u, 0x02u},
 427:Generated_Source\PSoC4/cyfitter_cfg.c **** 			{0xC8u, 0x10u},
 428:Generated_Source\PSoC4/cyfitter_cfg.c **** 			{0xD4u, 0x20u},
 429:Generated_Source\PSoC4/cyfitter_cfg.c **** 			{0xD8u, 0x80u},
 430:Generated_Source\PSoC4/cyfitter_cfg.c **** 			{0xDAu, 0x40u},
 431:Generated_Source\PSoC4/cyfitter_cfg.c **** 			{0xE6u, 0x40u},
 432:Generated_Source\PSoC4/cyfitter_cfg.c **** 			{0x66u, 0x08u},
 433:Generated_Source\PSoC4/cyfitter_cfg.c **** 			{0x8Cu, 0x10u},
 434:Generated_Source\PSoC4/cyfitter_cfg.c **** 			{0x8Eu, 0x08u},
 435:Generated_Source\PSoC4/cyfitter_cfg.c **** 			{0x94u, 0x20u},
 436:Generated_Source\PSoC4/cyfitter_cfg.c **** 			{0xA9u, 0x20u},
 437:Generated_Source\PSoC4/cyfitter_cfg.c **** 			{0xD8u, 0x80u},
 438:Generated_Source\PSoC4/cyfitter_cfg.c **** 			{0xE8u, 0x20u},
 439:Generated_Source\PSoC4/cyfitter_cfg.c **** 			{0x03u, 0x42u},
 440:Generated_Source\PSoC4/cyfitter_cfg.c **** 			{0x05u, 0x02u},
 441:Generated_Source\PSoC4/cyfitter_cfg.c **** 			{0x2Fu, 0x04u},
 442:Generated_Source\PSoC4/cyfitter_cfg.c **** 			{0x6Cu, 0x40u},
 443:Generated_Source\PSoC4/cyfitter_cfg.c **** 			{0x87u, 0x04u},
 444:Generated_Source\PSoC4/cyfitter_cfg.c **** 			{0x8Fu, 0x40u},
 445:Generated_Source\PSoC4/cyfitter_cfg.c **** 			{0xC0u, 0x0Eu},
 446:Generated_Source\PSoC4/cyfitter_cfg.c **** 			{0xCAu, 0x04u},
 447:Generated_Source\PSoC4/cyfitter_cfg.c **** 			{0xDCu, 0x02u},
 448:Generated_Source\PSoC4/cyfitter_cfg.c **** 			{0xE2u, 0x08u},
 449:Generated_Source\PSoC4/cyfitter_cfg.c **** 			{0x19u, 0x08u},
 450:Generated_Source\PSoC4/cyfitter_cfg.c **** 			{0x83u, 0x02u},
 451:Generated_Source\PSoC4/cyfitter_cfg.c **** 			{0x89u, 0x08u},
 452:Generated_Source\PSoC4/cyfitter_cfg.c **** 			{0x8Cu, 0x40u},
 453:Generated_Source\PSoC4/cyfitter_cfg.c **** 			{0x94u, 0x80u},
 454:Generated_Source\PSoC4/cyfitter_cfg.c **** 			{0xA3u, 0x02u},
 455:Generated_Source\PSoC4/cyfitter_cfg.c **** 			{0xA9u, 0x02u},
 456:Generated_Source\PSoC4/cyfitter_cfg.c **** 			{0xC6u, 0x08u},
 457:Generated_Source\PSoC4/cyfitter_cfg.c **** 			{0xE2u, 0x01u},
 458:Generated_Source\PSoC4/cyfitter_cfg.c **** 			{0xE4u, 0x08u},
 459:Generated_Source\PSoC4/cyfitter_cfg.c **** 		};
 460:Generated_Source\PSoC4/cyfitter_cfg.c **** 
 461:Generated_Source\PSoC4/cyfitter_cfg.c **** 
 462:Generated_Source\PSoC4/cyfitter_cfg.c **** 
 463:Generated_Source\PSoC4/cyfitter_cfg.c **** 		CYPACKED typedef struct {
 464:Generated_Source\PSoC4/cyfitter_cfg.c **** 			void CYFAR *address;
 465:Generated_Source\PSoC4/cyfitter_cfg.c **** 			uint16 size;
 466:Generated_Source\PSoC4/cyfitter_cfg.c **** 		} CYPACKED_ATTR cfg_memset_t;
 467:Generated_Source\PSoC4/cyfitter_cfg.c **** 
ARM GAS  C:\Users\ilya\AppData\Local\Temp\cc2j0tZW.s 			page 13


 468:Generated_Source\PSoC4/cyfitter_cfg.c **** 		static const cfg_memset_t CYCODE cfg_memset_list[] = {
 469:Generated_Source\PSoC4/cyfitter_cfg.c **** 			/* address, size */
 470:Generated_Source\PSoC4/cyfitter_cfg.c **** 			{(void CYFAR *)(CYDEV_UDB_P0_U0_BASE), 1024u},
 471:Generated_Source\PSoC4/cyfitter_cfg.c **** 			{(void CYFAR *)(CYDEV_UDB_DSI0_BASE), 1024u},
 472:Generated_Source\PSoC4/cyfitter_cfg.c **** 		};
 473:Generated_Source\PSoC4/cyfitter_cfg.c **** 
 474:Generated_Source\PSoC4/cyfitter_cfg.c **** 		uint8 CYDATA i;
 475:Generated_Source\PSoC4/cyfitter_cfg.c **** 
 476:Generated_Source\PSoC4/cyfitter_cfg.c **** 		/* Zero out critical memory blocks before beginning configuration */
 477:Generated_Source\PSoC4/cyfitter_cfg.c **** 		for (i = 0u; i < (sizeof(cfg_memset_list)/sizeof(cfg_memset_list[0])); i++)
 478:Generated_Source\PSoC4/cyfitter_cfg.c **** 		{
 479:Generated_Source\PSoC4/cyfitter_cfg.c **** 			const cfg_memset_t CYCODE * CYDATA ms = &cfg_memset_list[i];
 480:Generated_Source\PSoC4/cyfitter_cfg.c **** 			CYMEMZERO(ms->address, (size_t)(uint32)(ms->size));
 481:Generated_Source\PSoC4/cyfitter_cfg.c **** 		}
 482:Generated_Source\PSoC4/cyfitter_cfg.c **** 
 483:Generated_Source\PSoC4/cyfitter_cfg.c **** 		cfg_write_bytes32(cy_cfg_addr_table, cy_cfg_data_table);
 484:Generated_Source\PSoC4/cyfitter_cfg.c **** 
 485:Generated_Source\PSoC4/cyfitter_cfg.c **** 		/* HSIOM Starting address: CYDEV_HSIOM_BASE */
 486:Generated_Source\PSoC4/cyfitter_cfg.c **** 		CY_SET_REG32((void *)(CYDEV_HSIOM_BASE), 0x33333333u);
 205              		.loc 1 486 0
 206 0066 614A     		ldr	r2, .L17+16
 207 0068 614B     		ldr	r3, .L17+20
 487:Generated_Source\PSoC4/cyfitter_cfg.c **** 		CY_SET_REG32((void *)(CYREG_HSIOM_PORT_SEL1), 0x30000000u);
 488:Generated_Source\PSoC4/cyfitter_cfg.c **** 		CY_SET_REG32((void *)(CYREG_HSIOM_PORT_SEL3), 0x0000EEEEu);
 489:Generated_Source\PSoC4/cyfitter_cfg.c **** 		CY_SET_REG32((void *)(CYREG_HSIOM_PORT_SEL4), 0x60000000u);
 490:Generated_Source\PSoC4/cyfitter_cfg.c **** 		CY_SET_REG32((void *)(CYREG_HSIOM_PORT_SEL5), 0x60000000u);
 491:Generated_Source\PSoC4/cyfitter_cfg.c **** 
 492:Generated_Source\PSoC4/cyfitter_cfg.c **** 		/* UDB_PA_0 Starting address: CYDEV_UDB_PA0_BASE */
 493:Generated_Source\PSoC4/cyfitter_cfg.c **** 		CY_SET_REG32((void *)(CYDEV_UDB_PA0_BASE), 0x00990000u);
 494:Generated_Source\PSoC4/cyfitter_cfg.c **** 		CY_SET_REG32((void *)(CYREG_UDB_PA0_CFG8), 0xFF000000u);
 208              		.loc 1 494 0
 209 006a FF21     		movs	r1, #255
 486:Generated_Source\PSoC4/cyfitter_cfg.c **** 		CY_SET_REG32((void *)(CYREG_HSIOM_PORT_SEL1), 0x30000000u);
 210              		.loc 1 486 0
 211 006c 1A60     		str	r2, [r3]
 487:Generated_Source\PSoC4/cyfitter_cfg.c **** 		CY_SET_REG32((void *)(CYREG_HSIOM_PORT_SEL1), 0x30000000u);
 212              		.loc 1 487 0
 213 006e C022     		movs	r2, #192
 214 0070 604B     		ldr	r3, .L17+24
 215 0072 9205     		lsls	r2, r2, #22
 216 0074 1A60     		str	r2, [r3]
 488:Generated_Source\PSoC4/cyfitter_cfg.c **** 		CY_SET_REG32((void *)(CYREG_HSIOM_PORT_SEL4), 0x60000000u);
 217              		.loc 1 488 0
 218 0076 604A     		ldr	r2, .L17+28
 219 0078 604B     		ldr	r3, .L17+32
 220              		.loc 1 494 0
 221 007a 0906     		lsls	r1, r1, #24
 488:Generated_Source\PSoC4/cyfitter_cfg.c **** 		CY_SET_REG32((void *)(CYREG_HSIOM_PORT_SEL4), 0x60000000u);
 222              		.loc 1 488 0
 223 007c 1A60     		str	r2, [r3]
 489:Generated_Source\PSoC4/cyfitter_cfg.c **** 		CY_SET_REG32((void *)(CYREG_HSIOM_PORT_SEL5), 0x60000000u);
 224              		.loc 1 489 0
 225 007e C023     		movs	r3, #192
 226 0080 5F4A     		ldr	r2, .L17+36
 227 0082 DB05     		lsls	r3, r3, #23
 228 0084 1360     		str	r3, [r2]
 490:Generated_Source\PSoC4/cyfitter_cfg.c **** 
ARM GAS  C:\Users\ilya\AppData\Local\Temp\cc2j0tZW.s 			page 14


 229              		.loc 1 490 0
 230 0086 5F4A     		ldr	r2, .L17+40
 231              	.LBE40:
 495:Generated_Source\PSoC4/cyfitter_cfg.c **** 
 496:Generated_Source\PSoC4/cyfitter_cfg.c **** 		/* UDB_PA_1 Starting address: CYDEV_UDB_PA1_BASE */
 497:Generated_Source\PSoC4/cyfitter_cfg.c **** 		CY_SET_REG32((void *)(CYDEV_UDB_PA1_BASE), 0x00990000u);
 498:Generated_Source\PSoC4/cyfitter_cfg.c **** 		CY_SET_REG32((void *)(CYREG_UDB_PA1_CFG8), 0xC0000000u);
 499:Generated_Source\PSoC4/cyfitter_cfg.c **** 
 500:Generated_Source\PSoC4/cyfitter_cfg.c **** 		/* UDB_PA_2 Starting address: CYDEV_UDB_PA2_BASE */
 501:Generated_Source\PSoC4/cyfitter_cfg.c **** 		CY_SET_REG32((void *)(CYDEV_UDB_PA2_BASE), 0x00990000u);
 502:Generated_Source\PSoC4/cyfitter_cfg.c **** 
 503:Generated_Source\PSoC4/cyfitter_cfg.c **** 		/* UDB_PA_3 Starting address: CYDEV_UDB_PA3_BASE */
 504:Generated_Source\PSoC4/cyfitter_cfg.c **** 		CY_SET_REG32((void *)(CYDEV_UDB_PA3_BASE), 0x00990000u);
 505:Generated_Source\PSoC4/cyfitter_cfg.c **** 
 506:Generated_Source\PSoC4/cyfitter_cfg.c **** 		/* INT_SELECT Starting address: CYDEV_CPUSS_INT_SEL */
 507:Generated_Source\PSoC4/cyfitter_cfg.c **** 		CY_SET_REG32((void *)(CYREG_CPUSS_INT_SEL), 0x00000001u);
 508:Generated_Source\PSoC4/cyfitter_cfg.c **** 
 509:Generated_Source\PSoC4/cyfitter_cfg.c **** 		/* INT_CONFIG Starting address: CYDEV_UDB_INT_CFG */
 510:Generated_Source\PSoC4/cyfitter_cfg.c **** 		CY_SET_REG32((void *)(CYREG_UDB_INT_CFG), 0x00000001u);
 511:Generated_Source\PSoC4/cyfitter_cfg.c **** 
 512:Generated_Source\PSoC4/cyfitter_cfg.c **** 		/* Enable UDB array and digital routing */
 513:Generated_Source\PSoC4/cyfitter_cfg.c **** 		CY_SET_XTND_REG8((void *)CYREG_UDB_UDBIF_WAIT_CFG, (uint8)((CY_GET_XTND_REG8((void *)CYREG_UDB_UD
 514:Generated_Source\PSoC4/cyfitter_cfg.c **** 		CY_SET_XTND_REG8((void *)CYREG_UDB_UDBIF_BANK_CTL, (uint8)(CY_GET_XTND_REG8((void *)CYREG_UDB_UDB
 515:Generated_Source\PSoC4/cyfitter_cfg.c **** 	}
 516:Generated_Source\PSoC4/cyfitter_cfg.c **** 
 517:Generated_Source\PSoC4/cyfitter_cfg.c **** 	/* Perform second pass device configuration. These items must be configured in specific order afte
 518:Generated_Source\PSoC4/cyfitter_cfg.c **** 	/* IOPINS0_0 Starting address: CYDEV_GPIO_PRT0_BASE */
 519:Generated_Source\PSoC4/cyfitter_cfg.c **** 	CY_SET_REG32((void *)(CYDEV_GPIO_PRT0_BASE), 0x000000FFu);
 520:Generated_Source\PSoC4/cyfitter_cfg.c **** 	CY_SET_REG32((void *)(CYREG_GPIO_PRT0_PC), 0x00DB6DB6u);
 521:Generated_Source\PSoC4/cyfitter_cfg.c **** 
 522:Generated_Source\PSoC4/cyfitter_cfg.c **** 	/* IOPINS0_1 Starting address: CYDEV_GPIO_PRT1_BASE */
 523:Generated_Source\PSoC4/cyfitter_cfg.c **** 	CY_SET_REG32((void *)(CYDEV_GPIO_PRT1_BASE), 0x000000A0u);
 524:Generated_Source\PSoC4/cyfitter_cfg.c **** 	CY_SET_REG32((void *)(CYREG_GPIO_PRT1_PC), 0x00C2D1B0u);
 525:Generated_Source\PSoC4/cyfitter_cfg.c **** 
 526:Generated_Source\PSoC4/cyfitter_cfg.c **** 	/* IOPINS0_2 Starting address: CYDEV_GPIO_PRT2_BASE */
 527:Generated_Source\PSoC4/cyfitter_cfg.c **** 	CY_SET_REG32((void *)(CYDEV_GPIO_PRT2_BASE), 0x00000010u);
 232              		.loc 1 527 0
 233 0088 1026     		movs	r6, #16
 234              	.LBB41:
 490:Generated_Source\PSoC4/cyfitter_cfg.c **** 
 235              		.loc 1 490 0
 236 008a 1360     		str	r3, [r2]
 493:Generated_Source\PSoC4/cyfitter_cfg.c **** 		CY_SET_REG32((void *)(CYREG_UDB_PA0_CFG8), 0xFF000000u);
 237              		.loc 1 493 0
 238 008c 9923     		movs	r3, #153
 239 008e 5E4A     		ldr	r2, .L17+44
 240 0090 1B04     		lsls	r3, r3, #16
 241 0092 1360     		str	r3, [r2]
 494:Generated_Source\PSoC4/cyfitter_cfg.c **** 
 242              		.loc 1 494 0
 243 0094 5D4A     		ldr	r2, .L17+48
 244              	.LBE41:
 528:Generated_Source\PSoC4/cyfitter_cfg.c **** 	CY_SET_REG32((void *)(CYREG_GPIO_PRT2_PC), 0x00000049u);
 529:Generated_Source\PSoC4/cyfitter_cfg.c **** 	CY_SET_REG32((void *)(CYREG_GPIO_PRT2_PC2), 0x00000010u);
 530:Generated_Source\PSoC4/cyfitter_cfg.c **** 
 531:Generated_Source\PSoC4/cyfitter_cfg.c **** 	/* IOPINS0_3 Starting address: CYDEV_GPIO_PRT3_BASE */
 532:Generated_Source\PSoC4/cyfitter_cfg.c **** 	CY_SET_REG32((void *)(CYDEV_GPIO_PRT3_BASE), 0x00000003u);
ARM GAS  C:\Users\ilya\AppData\Local\Temp\cc2j0tZW.s 			page 15


 245              		.loc 1 532 0
 246 0096 0324     		movs	r4, #3
 247              	.LBB42:
 494:Generated_Source\PSoC4/cyfitter_cfg.c **** 
 248              		.loc 1 494 0
 249 0098 1160     		str	r1, [r2]
 498:Generated_Source\PSoC4/cyfitter_cfg.c **** 
 250              		.loc 1 498 0
 251 009a C021     		movs	r1, #192
 497:Generated_Source\PSoC4/cyfitter_cfg.c **** 		CY_SET_REG32((void *)(CYREG_UDB_PA1_CFG8), 0xC0000000u);
 252              		.loc 1 497 0
 253 009c 5C4A     		ldr	r2, .L17+52
 498:Generated_Source\PSoC4/cyfitter_cfg.c **** 
 254              		.loc 1 498 0
 255 009e 0906     		lsls	r1, r1, #24
 497:Generated_Source\PSoC4/cyfitter_cfg.c **** 		CY_SET_REG32((void *)(CYREG_UDB_PA1_CFG8), 0xC0000000u);
 256              		.loc 1 497 0
 257 00a0 1360     		str	r3, [r2]
 498:Generated_Source\PSoC4/cyfitter_cfg.c **** 
 258              		.loc 1 498 0
 259 00a2 5C4A     		ldr	r2, .L17+56
 260              	.LBE42:
 261              	.LBB43:
 262              	.LBB44:
 217:Generated_Source\PSoC4/cyfitter_cfg.c **** 	/* CYDEV_CLK_ILO_CONFIG Starting address: CYDEV_CLK_ILO_CONFIG */
 263              		.loc 1 217 0
 264 00a4 3020     		movs	r0, #48
 265              	.LBE44:
 266              	.LBE43:
 267              	.LBB48:
 498:Generated_Source\PSoC4/cyfitter_cfg.c **** 
 268              		.loc 1 498 0
 269 00a6 1160     		str	r1, [r2]
 501:Generated_Source\PSoC4/cyfitter_cfg.c **** 
 270              		.loc 1 501 0
 271 00a8 5B4A     		ldr	r2, .L17+60
 513:Generated_Source\PSoC4/cyfitter_cfg.c **** 		CY_SET_XTND_REG8((void *)CYREG_UDB_UDBIF_BANK_CTL, (uint8)(CY_GET_XTND_REG8((void *)CYREG_UDB_UDB
 272              		.loc 1 513 0
 273 00aa 5C49     		ldr	r1, .L17+64
 501:Generated_Source\PSoC4/cyfitter_cfg.c **** 
 274              		.loc 1 501 0
 275 00ac 1360     		str	r3, [r2]
 504:Generated_Source\PSoC4/cyfitter_cfg.c **** 
 276              		.loc 1 504 0
 277 00ae 5C4A     		ldr	r2, .L17+68
 278              	.LBE48:
 279              	.LBB49:
 280              	.LBB45:
 225:Generated_Source\PSoC4/cyfitter_cfg.c **** 	CY_SET_REG32((void *)CYREG_PERI_DIV_CMD, 0x8000FF40u);
 281              		.loc 1 225 0
 282 00b0 0025     		movs	r5, #0
 283              	.LBE45:
 284              	.LBE49:
 285              	.LBB50:
 504:Generated_Source\PSoC4/cyfitter_cfg.c **** 
 286              		.loc 1 504 0
 287 00b2 1360     		str	r3, [r2]
ARM GAS  C:\Users\ilya\AppData\Local\Temp\cc2j0tZW.s 			page 16


 507:Generated_Source\PSoC4/cyfitter_cfg.c **** 
 288              		.loc 1 507 0
 289 00b4 0123     		movs	r3, #1
 290 00b6 5B4A     		ldr	r2, .L17+72
 291              	.LBE50:
 533:Generated_Source\PSoC4/cyfitter_cfg.c **** 	CY_SET_REG32((void *)(CYREG_GPIO_PRT3_PC), 0x00000DA4u);
 534:Generated_Source\PSoC4/cyfitter_cfg.c **** 
 535:Generated_Source\PSoC4/cyfitter_cfg.c **** 	/* IOPINS0_4 Starting address: CYDEV_GPIO_PRT4_BASE */
 536:Generated_Source\PSoC4/cyfitter_cfg.c **** 	CY_SET_REG32((void *)(CYDEV_GPIO_PRT4_BASE), 0x00000080u);
 537:Generated_Source\PSoC4/cyfitter_cfg.c **** 	CY_SET_REG32((void *)(CYREG_GPIO_PRT4_PC2), 0x00000080u);
 538:Generated_Source\PSoC4/cyfitter_cfg.c **** 
 539:Generated_Source\PSoC4/cyfitter_cfg.c **** 	/* IOPINS0_5 Starting address: CYDEV_GPIO_PRT5_BASE */
 540:Generated_Source\PSoC4/cyfitter_cfg.c **** 	CY_SET_REG32((void *)(CYREG_GPIO_PRT5_PC), 0x00006DB0u);
 541:Generated_Source\PSoC4/cyfitter_cfg.c **** 
 542:Generated_Source\PSoC4/cyfitter_cfg.c **** 
 543:Generated_Source\PSoC4/cyfitter_cfg.c **** 	/* Setup clocks based on selections from Clock DWR */
 544:Generated_Source\PSoC4/cyfitter_cfg.c **** 	ClockSetup();
 545:Generated_Source\PSoC4/cyfitter_cfg.c **** 
 546:Generated_Source\PSoC4/cyfitter_cfg.c **** 	/* Perform basic analog initialization to defaults */
 547:Generated_Source\PSoC4/cyfitter_cfg.c **** 	AnalogSetDefault();
 548:Generated_Source\PSoC4/cyfitter_cfg.c **** 
 549:Generated_Source\PSoC4/cyfitter_cfg.c **** }
 292              		.loc 1 549 0
 293              		@ sp needed
 294              	.LBB51:
 507:Generated_Source\PSoC4/cyfitter_cfg.c **** 
 295              		.loc 1 507 0
 296 00b8 1360     		str	r3, [r2]
 510:Generated_Source\PSoC4/cyfitter_cfg.c **** 
 297              		.loc 1 510 0
 298 00ba 5B4A     		ldr	r2, .L17+76
 299 00bc 1360     		str	r3, [r2]
 513:Generated_Source\PSoC4/cyfitter_cfg.c **** 		CY_SET_XTND_REG8((void *)CYREG_UDB_UDBIF_BANK_CTL, (uint8)(CY_GET_XTND_REG8((void *)CYREG_UDB_UDB
 300              		.loc 1 513 0
 301 00be 3C22     		movs	r2, #60
 302 00c0 0B78     		ldrb	r3, [r1]
 303 00c2 9343     		bics	r3, r2
 304 00c4 283A     		subs	r2, r2, #40
 305 00c6 1343     		orrs	r3, r2
 306 00c8 0B70     		strb	r3, [r1]
 514:Generated_Source\PSoC4/cyfitter_cfg.c **** 	}
 307              		.loc 1 514 0
 308 00ca 1623     		movs	r3, #22
 309 00cc 574A     		ldr	r2, .L17+80
 310 00ce 1178     		ldrb	r1, [r2]
 311 00d0 0B43     		orrs	r3, r1
 312 00d2 1370     		strb	r3, [r2]
 313              	.LBE51:
 519:Generated_Source\PSoC4/cyfitter_cfg.c **** 	CY_SET_REG32((void *)(CYREG_GPIO_PRT0_PC), 0x00DB6DB6u);
 314              		.loc 1 519 0
 315 00d4 FF22     		movs	r2, #255
 316 00d6 564B     		ldr	r3, .L17+84
 317 00d8 1A60     		str	r2, [r3]
 520:Generated_Source\PSoC4/cyfitter_cfg.c **** 
 318              		.loc 1 520 0
 319 00da 564A     		ldr	r2, .L17+88
 320 00dc 564B     		ldr	r3, .L17+92
ARM GAS  C:\Users\ilya\AppData\Local\Temp\cc2j0tZW.s 			page 17


 321 00de 1A60     		str	r2, [r3]
 523:Generated_Source\PSoC4/cyfitter_cfg.c **** 	CY_SET_REG32((void *)(CYREG_GPIO_PRT1_PC), 0x00C2D1B0u);
 322              		.loc 1 523 0
 323 00e0 A022     		movs	r2, #160
 324 00e2 564B     		ldr	r3, .L17+96
 325 00e4 1A60     		str	r2, [r3]
 524:Generated_Source\PSoC4/cyfitter_cfg.c **** 
 326              		.loc 1 524 0
 327 00e6 564A     		ldr	r2, .L17+100
 328 00e8 564B     		ldr	r3, .L17+104
 329 00ea 1A60     		str	r2, [r3]
 528:Generated_Source\PSoC4/cyfitter_cfg.c **** 	CY_SET_REG32((void *)(CYREG_GPIO_PRT2_PC2), 0x00000010u);
 330              		.loc 1 528 0
 331 00ec 4922     		movs	r2, #73
 527:Generated_Source\PSoC4/cyfitter_cfg.c **** 	CY_SET_REG32((void *)(CYREG_GPIO_PRT2_PC), 0x00000049u);
 332              		.loc 1 527 0
 333 00ee 564B     		ldr	r3, .L17+108
 334 00f0 1E60     		str	r6, [r3]
 528:Generated_Source\PSoC4/cyfitter_cfg.c **** 	CY_SET_REG32((void *)(CYREG_GPIO_PRT2_PC2), 0x00000010u);
 335              		.loc 1 528 0
 336 00f2 564B     		ldr	r3, .L17+112
 337 00f4 1A60     		str	r2, [r3]
 529:Generated_Source\PSoC4/cyfitter_cfg.c **** 
 338              		.loc 1 529 0
 339 00f6 564B     		ldr	r3, .L17+116
 533:Generated_Source\PSoC4/cyfitter_cfg.c **** 
 340              		.loc 1 533 0
 341 00f8 564A     		ldr	r2, .L17+120
 529:Generated_Source\PSoC4/cyfitter_cfg.c **** 
 342              		.loc 1 529 0
 343 00fa 1E60     		str	r6, [r3]
 532:Generated_Source\PSoC4/cyfitter_cfg.c **** 	CY_SET_REG32((void *)(CYREG_GPIO_PRT3_PC), 0x00000DA4u);
 344              		.loc 1 532 0
 345 00fc 564B     		ldr	r3, .L17+124
 346 00fe 1C60     		str	r4, [r3]
 533:Generated_Source\PSoC4/cyfitter_cfg.c **** 
 347              		.loc 1 533 0
 348 0100 564B     		ldr	r3, .L17+128
 349 0102 1A60     		str	r2, [r3]
 536:Generated_Source\PSoC4/cyfitter_cfg.c **** 	CY_SET_REG32((void *)(CYREG_GPIO_PRT4_PC2), 0x00000080u);
 350              		.loc 1 536 0
 351 0104 8023     		movs	r3, #128
 352 0106 564A     		ldr	r2, .L17+132
 353 0108 1360     		str	r3, [r2]
 537:Generated_Source\PSoC4/cyfitter_cfg.c **** 
 354              		.loc 1 537 0
 355 010a 564A     		ldr	r2, .L17+136
 356 010c 1360     		str	r3, [r2]
 540:Generated_Source\PSoC4/cyfitter_cfg.c **** 
 357              		.loc 1 540 0
 358 010e 564A     		ldr	r2, .L17+140
 359 0110 564B     		ldr	r3, .L17+144
 360 0112 1A60     		str	r2, [r3]
 361              	.LBB52:
 362              	.LBB46:
 215:Generated_Source\PSoC4/cyfitter_cfg.c **** 	/* Setup and trim IMO based on desired frequency. */
 363              		.loc 1 215 0
ARM GAS  C:\Users\ilya\AppData\Local\Temp\cc2j0tZW.s 			page 18


 364 0114 1222     		movs	r2, #18
 365 0116 564B     		ldr	r3, .L17+148
 366 0118 1A60     		str	r2, [r3]
 217:Generated_Source\PSoC4/cyfitter_cfg.c **** 	/* CYDEV_CLK_ILO_CONFIG Starting address: CYDEV_CLK_ILO_CONFIG */
 367              		.loc 1 217 0
 368 011a FFF7FEFF 		bl	CySysClkWriteImoFreq
 369              	.LVL17:
 219:Generated_Source\PSoC4/cyfitter_cfg.c **** 
 370              		.loc 1 219 0
 371 011e 554A     		ldr	r2, .L17+152
 372 0120 554B     		ldr	r3, .L17+156
 227:Generated_Source\PSoC4/cyfitter_cfg.c **** 	CY_SET_REG32((void *)CYREG_PERI_DIV_CMD, 0x8000FF43u);
 373              		.loc 1 227 0
 374 0122 BC21     		movs	r1, #188
 219:Generated_Source\PSoC4/cyfitter_cfg.c **** 
 375              		.loc 1 219 0
 376 0124 1A60     		str	r2, [r3]
 223:Generated_Source\PSoC4/cyfitter_cfg.c **** 	CY_SET_REG32((void *)CYREG_PERI_DIV_CMD, 0x8000FF41u);
 377              		.loc 1 223 0
 378 0126 C022     		movs	r2, #192
 379 0128 544B     		ldr	r3, .L17+160
 380 012a 9200     		lsls	r2, r2, #2
 381 012c 1A60     		str	r2, [r3]
 224:Generated_Source\PSoC4/cyfitter_cfg.c **** 	CY_SET_REG32((void *)CYREG_PERI_DIV_16_CTL0, 0x00000000u);
 382              		.loc 1 224 0
 383 012e 544B     		ldr	r3, .L17+164
 384 0130 544A     		ldr	r2, .L17+168
 227:Generated_Source\PSoC4/cyfitter_cfg.c **** 	CY_SET_REG32((void *)CYREG_PERI_DIV_CMD, 0x8000FF43u);
 385              		.loc 1 227 0
 386 0132 8901     		lsls	r1, r1, #6
 224:Generated_Source\PSoC4/cyfitter_cfg.c **** 	CY_SET_REG32((void *)CYREG_PERI_DIV_16_CTL0, 0x00000000u);
 387              		.loc 1 224 0
 388 0134 1A60     		str	r2, [r3]
 225:Generated_Source\PSoC4/cyfitter_cfg.c **** 	CY_SET_REG32((void *)CYREG_PERI_DIV_CMD, 0x8000FF40u);
 389              		.loc 1 225 0
 390 0136 544A     		ldr	r2, .L17+172
 250:Generated_Source\PSoC4/cyfitter_cfg.c **** 	CyIntEnable(7u);
 391              		.loc 1 250 0
 392 0138 0720     		movs	r0, #7
 225:Generated_Source\PSoC4/cyfitter_cfg.c **** 	CY_SET_REG32((void *)CYREG_PERI_DIV_CMD, 0x8000FF40u);
 393              		.loc 1 225 0
 394 013a 1560     		str	r5, [r2]
 226:Generated_Source\PSoC4/cyfitter_cfg.c **** 	CY_SET_REG32((void *)CYREG_PERI_DIV_16_CTL3, 0x00002F00u);
 395              		.loc 1 226 0
 396 013c 534A     		ldr	r2, .L17+176
 397 013e 1A60     		str	r2, [r3]
 227:Generated_Source\PSoC4/cyfitter_cfg.c **** 	CY_SET_REG32((void *)CYREG_PERI_DIV_CMD, 0x8000FF43u);
 398              		.loc 1 227 0
 399 0140 534A     		ldr	r2, .L17+180
 400 0142 1160     		str	r1, [r2]
 229:Generated_Source\PSoC4/cyfitter_cfg.c **** 	CY_SET_REG32((void *)CYREG_PERI_DIV_CMD, 0x8000FF42u);
 401              		.loc 1 229 0
 402 0144 A021     		movs	r1, #160
 228:Generated_Source\PSoC4/cyfitter_cfg.c **** 	CY_SET_REG32((void *)CYREG_PERI_DIV_16_CTL2, 0x00000500u);
 403              		.loc 1 228 0
 404 0146 534A     		ldr	r2, .L17+184
 229:Generated_Source\PSoC4/cyfitter_cfg.c **** 	CY_SET_REG32((void *)CYREG_PERI_DIV_CMD, 0x8000FF42u);
ARM GAS  C:\Users\ilya\AppData\Local\Temp\cc2j0tZW.s 			page 19


 405              		.loc 1 229 0
 406 0148 C900     		lsls	r1, r1, #3
 228:Generated_Source\PSoC4/cyfitter_cfg.c **** 	CY_SET_REG32((void *)CYREG_PERI_DIV_16_CTL2, 0x00000500u);
 407              		.loc 1 228 0
 408 014a 1A60     		str	r2, [r3]
 229:Generated_Source\PSoC4/cyfitter_cfg.c **** 	CY_SET_REG32((void *)CYREG_PERI_DIV_CMD, 0x8000FF42u);
 409              		.loc 1 229 0
 410 014c 524A     		ldr	r2, .L17+188
 411 014e 1160     		str	r1, [r2]
 230:Generated_Source\PSoC4/cyfitter_cfg.c **** 
 412              		.loc 1 230 0
 413 0150 524A     		ldr	r2, .L17+192
 250:Generated_Source\PSoC4/cyfitter_cfg.c **** 	CyIntEnable(7u);
 414              		.loc 1 250 0
 415 0152 5349     		ldr	r1, .L17+196
 230:Generated_Source\PSoC4/cyfitter_cfg.c **** 
 416              		.loc 1 230 0
 417 0154 1A60     		str	r2, [r3]
 233:Generated_Source\PSoC4/cyfitter_cfg.c **** 
 418              		.loc 1 233 0
 419 0156 8222     		movs	r2, #130
 420 0158 524B     		ldr	r3, .L17+200
 421 015a 1206     		lsls	r2, r2, #24
 422 015c 1A60     		str	r2, [r3]
 236:Generated_Source\PSoC4/cyfitter_cfg.c **** 
 423              		.loc 1 236 0
 424 015e 8022     		movs	r2, #128
 425 0160 514B     		ldr	r3, .L17+204
 426 0162 D202     		lsls	r2, r2, #11
 427 0164 1A60     		str	r2, [r3]
 239:Generated_Source\PSoC4/cyfitter_cfg.c **** 
 428              		.loc 1 239 0
 429 0166 4122     		movs	r2, #65
 430 0168 504B     		ldr	r3, .L17+208
 431 016a 1A60     		str	r2, [r3]
 242:Generated_Source\PSoC4/cyfitter_cfg.c **** 
 432              		.loc 1 242 0
 433 016c 504B     		ldr	r3, .L17+212
 434 016e 013A     		subs	r2, r2, #1
 435 0170 1A60     		str	r2, [r3]
 245:Generated_Source\PSoC4/cyfitter_cfg.c **** 
 436              		.loc 1 245 0
 437 0172 504B     		ldr	r3, .L17+216
 438 0174 0332     		adds	r2, r2, #3
 439 0176 1A60     		str	r2, [r3]
 248:Generated_Source\PSoC4/cyfitter_cfg.c **** 
 440              		.loc 1 248 0
 441 0178 4F4B     		ldr	r3, .L17+220
 442 017a 013A     		subs	r2, r2, #1
 443 017c 1A60     		str	r2, [r3]
 250:Generated_Source\PSoC4/cyfitter_cfg.c **** 	CyIntEnable(7u);
 444              		.loc 1 250 0
 445 017e FFF7FEFF 		bl	CyIntSetVector
 446              	.LVL18:
 251:Generated_Source\PSoC4/cyfitter_cfg.c **** 	CY_SET_REG32((void *)(CYREG_WDT_CONFIG), 0x00000000u);
 447              		.loc 1 251 0
 448 0182 0720     		movs	r0, #7
ARM GAS  C:\Users\ilya\AppData\Local\Temp\cc2j0tZW.s 			page 20


 449 0184 FFF7FEFF 		bl	CyIntEnable
 450              	.LVL19:
 252:Generated_Source\PSoC4/cyfitter_cfg.c **** }
 451              		.loc 1 252 0
 452 0188 4C4B     		ldr	r3, .L17+224
 453              	.LBE46:
 454              	.LBE52:
 455              	.LBB53:
 456              	.LBB54:
 282:Generated_Source\PSoC4/cyfitter_cfg.c **** 	CY_SET_XTND_REG32((void CYFAR *)CYREG_CTBM1_CTB_CTRL, 0x80000000u);
 457              		.loc 1 282 0
 458 018a 8120     		movs	r0, #129
 459              	.LBE54:
 460              	.LBE53:
 461              	.LBB60:
 462              	.LBB47:
 252:Generated_Source\PSoC4/cyfitter_cfg.c **** }
 463              		.loc 1 252 0
 464 018c 1D60     		str	r5, [r3]
 465              	.LBE47:
 466              	.LBE60:
 467              	.LBB61:
 468              	.LBB59:
 277:Generated_Source\PSoC4/cyfitter_cfg.c **** 	CY_SET_XTND_REG32((void CYFAR *)CYREG_HSIOM_AMUX_SPLIT_CTL1, 0x00000003u);
 469              		.loc 1 277 0
 470 018e 4C4B     		ldr	r3, .L17+228
 279:Generated_Source\PSoC4/cyfitter_cfg.c **** 	CY_SET_XTND_REG32((void CYFAR *)CYREG_CTBM0_DFT_CTRL, 0x00000003u);
 471              		.loc 1 279 0
 472 0190 4C4A     		ldr	r2, .L17+232
 277:Generated_Source\PSoC4/cyfitter_cfg.c **** 	CY_SET_XTND_REG32((void CYFAR *)CYREG_HSIOM_AMUX_SPLIT_CTL1, 0x00000003u);
 473              		.loc 1 277 0
 474 0192 1C60     		str	r4, [r3]
 278:Generated_Source\PSoC4/cyfitter_cfg.c **** 	CY_SET_XTND_REG32((void CYFAR *)CYREG_CTBM0_CTB_CTRL, 0x80000000u);
 475              		.loc 1 278 0
 476 0194 4C4B     		ldr	r3, .L17+236
 281:Generated_Source\PSoC4/cyfitter_cfg.c **** 	CY_SET_XTND_REG32((void CYFAR *)CYREG_CTBM0_OA1_SW, 0x00000102u);
 477              		.loc 1 281 0
 478 0196 4D49     		ldr	r1, .L17+240
 278:Generated_Source\PSoC4/cyfitter_cfg.c **** 	CY_SET_XTND_REG32((void CYFAR *)CYREG_CTBM0_CTB_CTRL, 0x80000000u);
 479              		.loc 1 278 0
 480 0198 1C60     		str	r4, [r3]
 279:Generated_Source\PSoC4/cyfitter_cfg.c **** 	CY_SET_XTND_REG32((void CYFAR *)CYREG_CTBM0_DFT_CTRL, 0x00000003u);
 481              		.loc 1 279 0
 482 019a 8023     		movs	r3, #128
 483 019c 1B06     		lsls	r3, r3, #24
 484 019e 1360     		str	r3, [r2]
 280:Generated_Source\PSoC4/cyfitter_cfg.c **** 	CY_SET_XTND_REG32((void CYFAR *)CYREG_CTBM0_OA0_SW, 0x00204001u);
 485              		.loc 1 280 0
 486 01a0 4B4A     		ldr	r2, .L17+244
 282:Generated_Source\PSoC4/cyfitter_cfg.c **** 	CY_SET_XTND_REG32((void CYFAR *)CYREG_CTBM1_CTB_CTRL, 0x80000000u);
 487              		.loc 1 282 0
 488 01a2 4000     		lsls	r0, r0, #1
 280:Generated_Source\PSoC4/cyfitter_cfg.c **** 	CY_SET_XTND_REG32((void CYFAR *)CYREG_CTBM0_OA0_SW, 0x00204001u);
 489              		.loc 1 280 0
 490 01a4 1460     		str	r4, [r2]
 281:Generated_Source\PSoC4/cyfitter_cfg.c **** 	CY_SET_XTND_REG32((void CYFAR *)CYREG_CTBM0_OA1_SW, 0x00000102u);
 491              		.loc 1 281 0
ARM GAS  C:\Users\ilya\AppData\Local\Temp\cc2j0tZW.s 			page 21


 492 01a6 4B4A     		ldr	r2, .L17+248
 493 01a8 0A60     		str	r2, [r1]
 282:Generated_Source\PSoC4/cyfitter_cfg.c **** 	CY_SET_XTND_REG32((void CYFAR *)CYREG_CTBM1_CTB_CTRL, 0x80000000u);
 494              		.loc 1 282 0
 495 01aa 4B49     		ldr	r1, .L17+252
 496 01ac 0860     		str	r0, [r1]
 283:Generated_Source\PSoC4/cyfitter_cfg.c **** 	CY_SET_XTND_REG32((void CYFAR *)CYREG_CTBM1_DFT_CTRL, 0x00000003u);
 497              		.loc 1 283 0
 498 01ae 4B49     		ldr	r1, .L17+256
 499 01b0 0B60     		str	r3, [r1]
 284:Generated_Source\PSoC4/cyfitter_cfg.c **** 	CY_SET_XTND_REG32((void CYFAR *)CYREG_CTBM1_OA0_SW, 0x00204001u);
 500              		.loc 1 284 0
 501 01b2 4B49     		ldr	r1, .L17+260
 502 01b4 0C60     		str	r4, [r1]
 285:Generated_Source\PSoC4/cyfitter_cfg.c **** 	CY_SET_XTND_REG32((void CYFAR *)CYREG_CTBM1_OA1_SW, 0x00204010u);
 503              		.loc 1 285 0
 504 01b6 4B49     		ldr	r1, .L17+264
 505 01b8 0A60     		str	r2, [r1]
 286:Generated_Source\PSoC4/cyfitter_cfg.c **** 	CY_SET_XTND_REG32((void CYFAR *)CYREG_SAR_CTRL, 0x80000000u);
 506              		.loc 1 286 0
 507 01ba 4B49     		ldr	r1, .L17+268
 508 01bc 4B4A     		ldr	r2, .L17+272
 509 01be 1160     		str	r1, [r2]
 287:Generated_Source\PSoC4/cyfitter_cfg.c **** 	CY_SET_XTND_REG32((void CYFAR *)CYREG_SAR_MUX_SWITCH0, 0x00000010u);
 510              		.loc 1 287 0
 511 01c0 4B4A     		ldr	r2, .L17+276
 512              	.LBB55:
 513              	.LBB56:
 312:Generated_Source\PSoC4/cyfitter_cfg.c **** 	if (enabled != 0u)
 514              		.loc 1 312 0
 515 01c2 4C49     		ldr	r1, .L17+280
 516              	.LBE56:
 517              	.LBE55:
 287:Generated_Source\PSoC4/cyfitter_cfg.c **** 	CY_SET_XTND_REG32((void CYFAR *)CYREG_SAR_MUX_SWITCH0, 0x00000010u);
 518              		.loc 1 287 0
 519 01c4 1360     		str	r3, [r2]
 288:Generated_Source\PSoC4/cyfitter_cfg.c **** 	CY_SET_XTND_REG32((void CYFAR *)CYREG_PASS_DSAB_DSAB_CTRL, 0x00000000u);
 520              		.loc 1 288 0
 521 01c6 4C4A     		ldr	r2, .L17+284
 522 01c8 1660     		str	r6, [r2]
 289:Generated_Source\PSoC4/cyfitter_cfg.c **** 	SetAnalogRoutingPumps(1);
 523              		.loc 1 289 0
 524 01ca 4C4A     		ldr	r2, .L17+288
 525 01cc 1560     		str	r5, [r2]
 526              	.LVL20:
 527              	.LBB58:
 528              	.LBB57:
 312:Generated_Source\PSoC4/cyfitter_cfg.c **** 	if (enabled != 0u)
 529              		.loc 1 312 0
 530 01ce 0A68     		ldr	r2, [r1]
 531              	.LVL21:
 315:Generated_Source\PSoC4/cyfitter_cfg.c **** 	}
 532              		.loc 1 315 0
 533 01d0 1343     		orrs	r3, r2
 534              	.LVL22:
 321:Generated_Source\PSoC4/cyfitter_cfg.c **** }
 535              		.loc 1 321 0
ARM GAS  C:\Users\ilya\AppData\Local\Temp\cc2j0tZW.s 			page 22


 536 01d2 0B60     		str	r3, [r1]
 537              	.LVL23:
 538              	.LBE57:
 539              	.LBE58:
 540              	.LBE59:
 541              	.LBE61:
 542              		.loc 1 549 0
 543 01d4 04BC     		pop	{r2}
 544 01d6 9046     		mov	r8, r2
 545 01d8 F0BD     		pop	{r4, r5, r6, r7, pc}
 546              	.L18:
 547 01da C046     		.align	2
 548              	.L17:
 549 01dc 1C700F40 		.word	1074753564
 550 01e0 00300F40 		.word	1074737152
 551 01e4 00400F40 		.word	1074741248
 552 01e8 00000000 		.word	.LANCHOR0
 553 01ec 33333333 		.word	858993459
 554 01f0 00000240 		.word	1073872896
 555 01f4 00010240 		.word	1073873152
 556 01f8 EEEE0000 		.word	61166
 557 01fc 00030240 		.word	1073873664
 558 0200 00040240 		.word	1073873920
 559 0204 00050240 		.word	1073874176
 560 0208 00500F40 		.word	1074745344
 561 020c 08500F40 		.word	1074745352
 562 0210 10500F40 		.word	1074745360
 563 0214 18500F40 		.word	1074745368
 564 0218 20500F40 		.word	1074745376
 565 021c 01700F40 		.word	1074753537
 566 0220 30500F40 		.word	1074745392
 567 0224 20001040 		.word	1074790432
 568 0228 00800F40 		.word	1074757632
 569 022c 00700F40 		.word	1074753536
 570 0230 00000440 		.word	1074003968
 571 0234 B66DDB00 		.word	14380470
 572 0238 08000440 		.word	1074003976
 573 023c 00010440 		.word	1074004224
 574 0240 B0D1C200 		.word	12767664
 575 0244 08010440 		.word	1074004232
 576 0248 00020440 		.word	1074004480
 577 024c 08020440 		.word	1074004488
 578 0250 18020440 		.word	1074004504
 579 0254 A40D0000 		.word	3492
 580 0258 00030440 		.word	1074004736
 581 025c 08030440 		.word	1074004744
 582 0260 00040440 		.word	1074004992
 583 0264 18040440 		.word	1074005016
 584 0268 B06D0000 		.word	28080
 585 026c 08050440 		.word	1074005256
 586 0270 30001040 		.word	1074790448
 587 0274 06000080 		.word	-2147483642
 588 0278 04010B40 		.word	1074462980
 589 027c 04030140 		.word	1073808132
 590 0280 00000140 		.word	1073807360
 591 0284 41FF0080 		.word	-2147418303
 592 0288 00030140 		.word	1073808128
ARM GAS  C:\Users\ilya\AppData\Local\Temp\cc2j0tZW.s 			page 23


 593 028c 40FF0080 		.word	-2147418304
 594 0290 0C030140 		.word	1073808140
 595 0294 43FF0080 		.word	-2147418301
 596 0298 08030140 		.word	1073808136
 597 029c 42FF0080 		.word	-2147418302
 598 02a0 00000000 		.word	CySysWdtIsr
 599 02a4 08010B40 		.word	1074462984
 600 02a8 00010B40 		.word	1074462976
 601 02ac 30010140 		.word	1073807664
 602 02b0 2C010140 		.word	1073807660
 603 02b4 28010140 		.word	1073807656
 604 02b8 0C010140 		.word	1073807628
 605 02bc 0C020B40 		.word	1074463244
 606 02c0 00210240 		.word	1073881344
 607 02c4 00003040 		.word	1076887552
 608 02c8 04210240 		.word	1073881348
 609 02cc 80003040 		.word	1076887680
 610 02d0 30003040 		.word	1076887600
 611 02d4 01402000 		.word	2113537
 612 02d8 88003040 		.word	1076887688
 613 02dc 00003140 		.word	1076953088
 614 02e0 30003140 		.word	1076953136
 615 02e4 80003140 		.word	1076953216
 616 02e8 10402000 		.word	2113552
 617 02ec 88003140 		.word	1076953224
 618 02f0 00003A40 		.word	1077542912
 619 02f4 80033A40 		.word	1077543808
 620 02f8 00033A40 		.word	1077543680
 621 02fc 000E3F40 		.word	1077874176
 622              		.cfi_endproc
 623              	.LFE8:
 624              		.size	cyfitter_cfg, .-cyfitter_cfg
 625              		.section	.rodata
 626              		.align	2
 627              		.set	.LANCHOR0,. + 0
 628              		.type	cy_cfg_addr_table.4911, %object
 629              		.size	cy_cfg_addr_table.4911, 28
 630              	cy_cfg_addr_table.4911:
 631 0000 04310F40 		.word	1074737412
 632 0004 16320F40 		.word	1074737686
 633 0008 20330F40 		.word	1074737952
 634 000c 0B400F40 		.word	1074741259
 635 0010 07410F40 		.word	1074741511
 636 0014 0A420F40 		.word	1074741770
 637 0018 0A430F40 		.word	1074742026
 638              		.type	cy_cfg_data_table.4912, %object
 639              		.size	cy_cfg_data_table.4912, 192
 640              	cy_cfg_data_table.4912:
 641 001c 85       		.byte	-123
 642 001d 02       		.byte	2
 643 001e 86       		.byte	-122
 644 001f 01       		.byte	1
 645 0020 8E       		.byte	-114
 646 0021 40       		.byte	64
 647 0022 E6       		.byte	-26
 648 0023 08       		.byte	8
 649 0024 80       		.byte	-128
ARM GAS  C:\Users\ilya\AppData\Local\Temp\cc2j0tZW.s 			page 24


 650 0025 18       		.byte	24
 651 0026 8A       		.byte	-118
 652 0027 50       		.byte	80
 653 0028 8E       		.byte	-114
 654 0029 04       		.byte	4
 655 002a 92       		.byte	-110
 656 002b 01       		.byte	1
 657 002c 96       		.byte	-106
 658 002d 02       		.byte	2
 659 002e 98       		.byte	-104
 660 002f 08       		.byte	8
 661 0030 9E       		.byte	-98
 662 0031 68       		.byte	104
 663 0032 A2       		.byte	-94
 664 0033 01       		.byte	1
 665 0034 A6       		.byte	-90
 666 0035 02       		.byte	2
 667 0036 AA       		.byte	-86
 668 0037 04       		.byte	4
 669 0038 B0       		.byte	-80
 670 0039 40       		.byte	64
 671 003a B2       		.byte	-78
 672 003b 18       		.byte	24
 673 003c B4       		.byte	-76
 674 003d 20       		.byte	32
 675 003e B6       		.byte	-74
 676 003f 07       		.byte	7
 677 0040 B9       		.byte	-71
 678 0041 80       		.byte	-128
 679 0042 BE       		.byte	-66
 680 0043 41       		.byte	65
 681 0044 BF       		.byte	-65
 682 0045 40       		.byte	64
 683 0046 D8       		.byte	-40
 684 0047 04       		.byte	4
 685 0048 D9       		.byte	-39
 686 0049 04       		.byte	4
 687 004a DB       		.byte	-37
 688 004b 04       		.byte	4
 689 004c DC       		.byte	-36
 690 004d 08       		.byte	8
 691 004e DF       		.byte	-33
 692 004f 31       		.byte	49
 693 0050 00       		.byte	0
 694 0051 10       		.byte	16
 695 0052 01       		.byte	1
 696 0053 42       		.byte	66
 697 0054 08       		.byte	8
 698 0055 40       		.byte	64
 699 0056 09       		.byte	9
 700 0057 04       		.byte	4
 701 0058 0A       		.byte	10
 702 0059 88       		.byte	-120
 703 005a 10       		.byte	16
 704 005b 28       		.byte	40
 705 005c 13       		.byte	19
 706 005d 02       		.byte	2
ARM GAS  C:\Users\ilya\AppData\Local\Temp\cc2j0tZW.s 			page 25


 707 005e 18       		.byte	24
 708 005f 10       		.byte	16
 709 0060 19       		.byte	25
 710 0061 01       		.byte	1
 711 0062 1A       		.byte	26
 712 0063 0A       		.byte	10
 713 0064 20       		.byte	32
 714 0065 01       		.byte	1
 715 0066 68       		.byte	104
 716 0067 28       		.byte	40
 717 0068 6B       		.byte	107
 718 0069 02       		.byte	2
 719 006a 7B       		.byte	123
 720 006b 40       		.byte	64
 721 006c 81       		.byte	-127
 722 006d 04       		.byte	4
 723 006e 88       		.byte	-120
 724 006f 40       		.byte	64
 725 0070 8C       		.byte	-116
 726 0071 11       		.byte	17
 727 0072 8D       		.byte	-115
 728 0073 01       		.byte	1
 729 0074 91       		.byte	-111
 730 0075 40       		.byte	64
 731 0076 92       		.byte	-110
 732 0077 80       		.byte	-128
 733 0078 96       		.byte	-106
 734 0079 02       		.byte	2
 735 007a 99       		.byte	-103
 736 007b 02       		.byte	2
 737 007c A3       		.byte	-93
 738 007d 40       		.byte	64
 739 007e A9       		.byte	-87
 740 007f 40       		.byte	64
 741 0080 AB       		.byte	-85
 742 0081 40       		.byte	64
 743 0082 C0       		.byte	-64
 744 0083 0B       		.byte	11
 745 0084 C2       		.byte	-62
 746 0085 0F       		.byte	15
 747 0086 C4       		.byte	-60
 748 0087 0E       		.byte	14
 749 0088 DE       		.byte	-34
 750 0089 01       		.byte	1
 751 008a E2       		.byte	-30
 752 008b 14       		.byte	20
 753 008c E6       		.byte	-26
 754 008d 40       		.byte	64
 755 008e EE       		.byte	-18
 756 008f 04       		.byte	4
 757 0090 21       		.byte	33
 758 0091 20       		.byte	32
 759 0092 50       		.byte	80
 760 0093 10       		.byte	16
 761 0094 53       		.byte	83
 762 0095 04       		.byte	4
 763 0096 67       		.byte	103
ARM GAS  C:\Users\ilya\AppData\Local\Temp\cc2j0tZW.s 			page 26


 764 0097 08       		.byte	8
 765 0098 6B       		.byte	107
 766 0099 02       		.byte	2
 767 009a 87       		.byte	-121
 768 009b 02       		.byte	2
 769 009c C8       		.byte	-56
 770 009d 10       		.byte	16
 771 009e D4       		.byte	-44
 772 009f 20       		.byte	32
 773 00a0 D8       		.byte	-40
 774 00a1 80       		.byte	-128
 775 00a2 DA       		.byte	-38
 776 00a3 40       		.byte	64
 777 00a4 E6       		.byte	-26
 778 00a5 40       		.byte	64
 779 00a6 66       		.byte	102
 780 00a7 08       		.byte	8
 781 00a8 8C       		.byte	-116
 782 00a9 10       		.byte	16
 783 00aa 8E       		.byte	-114
 784 00ab 08       		.byte	8
 785 00ac 94       		.byte	-108
 786 00ad 20       		.byte	32
 787 00ae A9       		.byte	-87
 788 00af 20       		.byte	32
 789 00b0 D8       		.byte	-40
 790 00b1 80       		.byte	-128
 791 00b2 E8       		.byte	-24
 792 00b3 20       		.byte	32
 793 00b4 03       		.byte	3
 794 00b5 42       		.byte	66
 795 00b6 05       		.byte	5
 796 00b7 02       		.byte	2
 797 00b8 2F       		.byte	47
 798 00b9 04       		.byte	4
 799 00ba 6C       		.byte	108
 800 00bb 40       		.byte	64
 801 00bc 87       		.byte	-121
 802 00bd 04       		.byte	4
 803 00be 8F       		.byte	-113
 804 00bf 40       		.byte	64
 805 00c0 C0       		.byte	-64
 806 00c1 0E       		.byte	14
 807 00c2 CA       		.byte	-54
 808 00c3 04       		.byte	4
 809 00c4 DC       		.byte	-36
 810 00c5 02       		.byte	2
 811 00c6 E2       		.byte	-30
 812 00c7 08       		.byte	8
 813 00c8 19       		.byte	25
 814 00c9 08       		.byte	8
 815 00ca 83       		.byte	-125
 816 00cb 02       		.byte	2
 817 00cc 89       		.byte	-119
 818 00cd 08       		.byte	8
 819 00ce 8C       		.byte	-116
 820 00cf 40       		.byte	64
ARM GAS  C:\Users\ilya\AppData\Local\Temp\cc2j0tZW.s 			page 27


 821 00d0 94       		.byte	-108
 822 00d1 80       		.byte	-128
 823 00d2 A3       		.byte	-93
 824 00d3 02       		.byte	2
 825 00d4 A9       		.byte	-87
 826 00d5 02       		.byte	2
 827 00d6 C6       		.byte	-58
 828 00d7 08       		.byte	8
 829 00d8 E2       		.byte	-30
 830 00d9 01       		.byte	1
 831 00da E4       		.byte	-28
 832 00db 08       		.byte	8
 833              		.text
 834              	.Letext0:
 835              		.file 2 "c:\\program files (x86)\\cypress\\psoc creator\\4.2\\psoc creator\\import\\gnu\\arm\\5.4.
 836              		.file 3 "Generated_Source\\PSoC4\\cytypes.h"
 837              		.file 4 "Generated_Source\\PSoC4\\CyLib.h"