ARM GAS  C:\Users\ilya\AppData\Local\Temp\ccDzWwB9.s 			page 1


   1              		.syntax unified
   2              		.cpu cortex-m0
   3              		.fpu softvfp
   4              		.eabi_attribute 20, 1
   5              		.eabi_attribute 21, 1
   6              		.eabi_attribute 23, 3
   7              		.eabi_attribute 24, 1
   8              		.eabi_attribute 25, 1
   9              		.eabi_attribute 26, 1
  10              		.eabi_attribute 30, 2
  11              		.eabi_attribute 34, 0
  12              		.eabi_attribute 18, 4
  13              		.thumb
  14              		.syntax unified
  15              		.file	"isr_bbi2c.c"
  16              		.text
  17              	.Ltext0:
  18              		.cfi_sections	.debug_frame
  19              		.section	.text.isr_bbi2c_Interrupt,"ax",%progbits
  20              		.align	2
  21              		.global	isr_bbi2c_Interrupt
  22              		.code	16
  23              		.thumb_func
  24              		.type	isr_bbi2c_Interrupt, %function
  25              	isr_bbi2c_Interrupt:
  26              	.LFB4:
  27              		.file 1 "Generated_Source\\PSoC4\\isr_bbi2c.c"
   1:Generated_Source\PSoC4/isr_bbi2c.c **** /*******************************************************************************
   2:Generated_Source\PSoC4/isr_bbi2c.c **** * File Name: isr_bbi2c.c  
   3:Generated_Source\PSoC4/isr_bbi2c.c **** * Version 1.70
   4:Generated_Source\PSoC4/isr_bbi2c.c **** *
   5:Generated_Source\PSoC4/isr_bbi2c.c **** *  Description:
   6:Generated_Source\PSoC4/isr_bbi2c.c **** *   API for controlling the state of an interrupt.
   7:Generated_Source\PSoC4/isr_bbi2c.c **** *
   8:Generated_Source\PSoC4/isr_bbi2c.c **** *
   9:Generated_Source\PSoC4/isr_bbi2c.c **** *  Note:
  10:Generated_Source\PSoC4/isr_bbi2c.c **** *
  11:Generated_Source\PSoC4/isr_bbi2c.c **** ********************************************************************************
  12:Generated_Source\PSoC4/isr_bbi2c.c **** * Copyright 2008-2015, Cypress Semiconductor Corporation.  All rights reserved.
  13:Generated_Source\PSoC4/isr_bbi2c.c **** * You may use this file only in accordance with the license, terms, conditions, 
  14:Generated_Source\PSoC4/isr_bbi2c.c **** * disclaimers, and limitations in the end user license agreement accompanying 
  15:Generated_Source\PSoC4/isr_bbi2c.c **** * the software package with which this file was provided.
  16:Generated_Source\PSoC4/isr_bbi2c.c **** *******************************************************************************/
  17:Generated_Source\PSoC4/isr_bbi2c.c **** 
  18:Generated_Source\PSoC4/isr_bbi2c.c **** 
  19:Generated_Source\PSoC4/isr_bbi2c.c **** #include <cydevice_trm.h>
  20:Generated_Source\PSoC4/isr_bbi2c.c **** #include <CyLib.h>
  21:Generated_Source\PSoC4/isr_bbi2c.c **** #include <isr_bbi2c.h>
  22:Generated_Source\PSoC4/isr_bbi2c.c **** #include "cyapicallbacks.h"
  23:Generated_Source\PSoC4/isr_bbi2c.c **** 
  24:Generated_Source\PSoC4/isr_bbi2c.c **** #if !defined(isr_bbi2c__REMOVED) /* Check for removal by optimization */
  25:Generated_Source\PSoC4/isr_bbi2c.c **** 
  26:Generated_Source\PSoC4/isr_bbi2c.c **** /*******************************************************************************
  27:Generated_Source\PSoC4/isr_bbi2c.c **** *  Place your includes, defines and code here 
  28:Generated_Source\PSoC4/isr_bbi2c.c **** ********************************************************************************/
  29:Generated_Source\PSoC4/isr_bbi2c.c **** /* `#START isr_bbi2c_intc` */
  30:Generated_Source\PSoC4/isr_bbi2c.c **** 
ARM GAS  C:\Users\ilya\AppData\Local\Temp\ccDzWwB9.s 			page 2


  31:Generated_Source\PSoC4/isr_bbi2c.c **** /* `#END` */
  32:Generated_Source\PSoC4/isr_bbi2c.c **** 
  33:Generated_Source\PSoC4/isr_bbi2c.c **** extern cyisraddress CyRamVectors[CYINT_IRQ_BASE + CY_NUM_INTERRUPTS];
  34:Generated_Source\PSoC4/isr_bbi2c.c **** 
  35:Generated_Source\PSoC4/isr_bbi2c.c **** /* Declared in startup, used to set unused interrupts to. */
  36:Generated_Source\PSoC4/isr_bbi2c.c **** CY_ISR_PROTO(IntDefaultHandler);
  37:Generated_Source\PSoC4/isr_bbi2c.c **** 
  38:Generated_Source\PSoC4/isr_bbi2c.c **** 
  39:Generated_Source\PSoC4/isr_bbi2c.c **** /*******************************************************************************
  40:Generated_Source\PSoC4/isr_bbi2c.c **** * Function Name: isr_bbi2c_Start
  41:Generated_Source\PSoC4/isr_bbi2c.c **** ********************************************************************************
  42:Generated_Source\PSoC4/isr_bbi2c.c **** *
  43:Generated_Source\PSoC4/isr_bbi2c.c **** * Summary:
  44:Generated_Source\PSoC4/isr_bbi2c.c **** *  Set up the interrupt and enable it. This function disables the interrupt, 
  45:Generated_Source\PSoC4/isr_bbi2c.c **** *  sets the default interrupt vector, sets the priority from the value in the
  46:Generated_Source\PSoC4/isr_bbi2c.c **** *  Design Wide Resources Interrupt Editor, then enables the interrupt to the 
  47:Generated_Source\PSoC4/isr_bbi2c.c **** *  interrupt controller.
  48:Generated_Source\PSoC4/isr_bbi2c.c **** *
  49:Generated_Source\PSoC4/isr_bbi2c.c **** * Parameters:  
  50:Generated_Source\PSoC4/isr_bbi2c.c **** *   None
  51:Generated_Source\PSoC4/isr_bbi2c.c **** *
  52:Generated_Source\PSoC4/isr_bbi2c.c **** * Return:
  53:Generated_Source\PSoC4/isr_bbi2c.c **** *   None
  54:Generated_Source\PSoC4/isr_bbi2c.c **** *
  55:Generated_Source\PSoC4/isr_bbi2c.c **** *******************************************************************************/
  56:Generated_Source\PSoC4/isr_bbi2c.c **** void isr_bbi2c_Start(void)
  57:Generated_Source\PSoC4/isr_bbi2c.c **** {
  58:Generated_Source\PSoC4/isr_bbi2c.c ****     /* For all we know the interrupt is active. */
  59:Generated_Source\PSoC4/isr_bbi2c.c ****     isr_bbi2c_Disable();
  60:Generated_Source\PSoC4/isr_bbi2c.c **** 
  61:Generated_Source\PSoC4/isr_bbi2c.c ****     /* Set the ISR to point to the isr_bbi2c Interrupt. */
  62:Generated_Source\PSoC4/isr_bbi2c.c ****     isr_bbi2c_SetVector(&isr_bbi2c_Interrupt);
  63:Generated_Source\PSoC4/isr_bbi2c.c **** 
  64:Generated_Source\PSoC4/isr_bbi2c.c ****     /* Set the priority. */
  65:Generated_Source\PSoC4/isr_bbi2c.c ****     isr_bbi2c_SetPriority((uint8)isr_bbi2c_INTC_PRIOR_NUMBER);
  66:Generated_Source\PSoC4/isr_bbi2c.c **** 
  67:Generated_Source\PSoC4/isr_bbi2c.c ****     /* Enable it. */
  68:Generated_Source\PSoC4/isr_bbi2c.c ****     isr_bbi2c_Enable();
  69:Generated_Source\PSoC4/isr_bbi2c.c **** }
  70:Generated_Source\PSoC4/isr_bbi2c.c **** 
  71:Generated_Source\PSoC4/isr_bbi2c.c **** 
  72:Generated_Source\PSoC4/isr_bbi2c.c **** /*******************************************************************************
  73:Generated_Source\PSoC4/isr_bbi2c.c **** * Function Name: isr_bbi2c_StartEx
  74:Generated_Source\PSoC4/isr_bbi2c.c **** ********************************************************************************
  75:Generated_Source\PSoC4/isr_bbi2c.c **** *
  76:Generated_Source\PSoC4/isr_bbi2c.c **** * Summary:
  77:Generated_Source\PSoC4/isr_bbi2c.c **** *  Sets up the interrupt and enables it. This function disables the interrupt,
  78:Generated_Source\PSoC4/isr_bbi2c.c **** *  sets the interrupt vector based on the address passed in, sets the priority 
  79:Generated_Source\PSoC4/isr_bbi2c.c **** *  from the value in the Design Wide Resources Interrupt Editor, then enables 
  80:Generated_Source\PSoC4/isr_bbi2c.c **** *  the interrupt to the interrupt controller.
  81:Generated_Source\PSoC4/isr_bbi2c.c **** *  
  82:Generated_Source\PSoC4/isr_bbi2c.c **** *  When defining ISR functions, the CY_ISR and CY_ISR_PROTO macros should be 
  83:Generated_Source\PSoC4/isr_bbi2c.c **** *  used to provide consistent definition across compilers:
  84:Generated_Source\PSoC4/isr_bbi2c.c **** *  
  85:Generated_Source\PSoC4/isr_bbi2c.c **** *  Function definition example:
  86:Generated_Source\PSoC4/isr_bbi2c.c **** *   CY_ISR(MyISR)
  87:Generated_Source\PSoC4/isr_bbi2c.c **** *   {
ARM GAS  C:\Users\ilya\AppData\Local\Temp\ccDzWwB9.s 			page 3


  88:Generated_Source\PSoC4/isr_bbi2c.c **** *   }
  89:Generated_Source\PSoC4/isr_bbi2c.c **** *   Function prototype example:
  90:Generated_Source\PSoC4/isr_bbi2c.c **** *   CY_ISR_PROTO(MyISR);
  91:Generated_Source\PSoC4/isr_bbi2c.c **** *
  92:Generated_Source\PSoC4/isr_bbi2c.c **** * Parameters:  
  93:Generated_Source\PSoC4/isr_bbi2c.c **** *   address: Address of the ISR to set in the interrupt vector table.
  94:Generated_Source\PSoC4/isr_bbi2c.c **** *
  95:Generated_Source\PSoC4/isr_bbi2c.c **** * Return:
  96:Generated_Source\PSoC4/isr_bbi2c.c **** *   None
  97:Generated_Source\PSoC4/isr_bbi2c.c **** *
  98:Generated_Source\PSoC4/isr_bbi2c.c **** *******************************************************************************/
  99:Generated_Source\PSoC4/isr_bbi2c.c **** void isr_bbi2c_StartEx(cyisraddress address)
 100:Generated_Source\PSoC4/isr_bbi2c.c **** {
 101:Generated_Source\PSoC4/isr_bbi2c.c ****     /* For all we know the interrupt is active. */
 102:Generated_Source\PSoC4/isr_bbi2c.c ****     isr_bbi2c_Disable();
 103:Generated_Source\PSoC4/isr_bbi2c.c **** 
 104:Generated_Source\PSoC4/isr_bbi2c.c ****     /* Set the ISR to point to the isr_bbi2c Interrupt. */
 105:Generated_Source\PSoC4/isr_bbi2c.c ****     isr_bbi2c_SetVector(address);
 106:Generated_Source\PSoC4/isr_bbi2c.c **** 
 107:Generated_Source\PSoC4/isr_bbi2c.c ****     /* Set the priority. */
 108:Generated_Source\PSoC4/isr_bbi2c.c ****     isr_bbi2c_SetPriority((uint8)isr_bbi2c_INTC_PRIOR_NUMBER);
 109:Generated_Source\PSoC4/isr_bbi2c.c **** 
 110:Generated_Source\PSoC4/isr_bbi2c.c ****     /* Enable it. */
 111:Generated_Source\PSoC4/isr_bbi2c.c ****     isr_bbi2c_Enable();
 112:Generated_Source\PSoC4/isr_bbi2c.c **** }
 113:Generated_Source\PSoC4/isr_bbi2c.c **** 
 114:Generated_Source\PSoC4/isr_bbi2c.c **** 
 115:Generated_Source\PSoC4/isr_bbi2c.c **** /*******************************************************************************
 116:Generated_Source\PSoC4/isr_bbi2c.c **** * Function Name: isr_bbi2c_Stop
 117:Generated_Source\PSoC4/isr_bbi2c.c **** ********************************************************************************
 118:Generated_Source\PSoC4/isr_bbi2c.c **** *
 119:Generated_Source\PSoC4/isr_bbi2c.c **** * Summary:
 120:Generated_Source\PSoC4/isr_bbi2c.c **** *   Disables and removes the interrupt.
 121:Generated_Source\PSoC4/isr_bbi2c.c **** *
 122:Generated_Source\PSoC4/isr_bbi2c.c **** * Parameters:  
 123:Generated_Source\PSoC4/isr_bbi2c.c **** *   None
 124:Generated_Source\PSoC4/isr_bbi2c.c **** *
 125:Generated_Source\PSoC4/isr_bbi2c.c **** * Return:
 126:Generated_Source\PSoC4/isr_bbi2c.c **** *   None
 127:Generated_Source\PSoC4/isr_bbi2c.c **** *
 128:Generated_Source\PSoC4/isr_bbi2c.c **** *******************************************************************************/
 129:Generated_Source\PSoC4/isr_bbi2c.c **** void isr_bbi2c_Stop(void)
 130:Generated_Source\PSoC4/isr_bbi2c.c **** {
 131:Generated_Source\PSoC4/isr_bbi2c.c ****     /* Disable this interrupt. */
 132:Generated_Source\PSoC4/isr_bbi2c.c ****     isr_bbi2c_Disable();
 133:Generated_Source\PSoC4/isr_bbi2c.c **** 
 134:Generated_Source\PSoC4/isr_bbi2c.c ****     /* Set the ISR to point to the passive one. */
 135:Generated_Source\PSoC4/isr_bbi2c.c ****     isr_bbi2c_SetVector(&IntDefaultHandler);
 136:Generated_Source\PSoC4/isr_bbi2c.c **** }
 137:Generated_Source\PSoC4/isr_bbi2c.c **** 
 138:Generated_Source\PSoC4/isr_bbi2c.c **** 
 139:Generated_Source\PSoC4/isr_bbi2c.c **** /*******************************************************************************
 140:Generated_Source\PSoC4/isr_bbi2c.c **** * Function Name: isr_bbi2c_Interrupt
 141:Generated_Source\PSoC4/isr_bbi2c.c **** ********************************************************************************
 142:Generated_Source\PSoC4/isr_bbi2c.c **** *
 143:Generated_Source\PSoC4/isr_bbi2c.c **** * Summary:
 144:Generated_Source\PSoC4/isr_bbi2c.c **** *   The default Interrupt Service Routine for isr_bbi2c.
ARM GAS  C:\Users\ilya\AppData\Local\Temp\ccDzWwB9.s 			page 4


 145:Generated_Source\PSoC4/isr_bbi2c.c **** *
 146:Generated_Source\PSoC4/isr_bbi2c.c **** *   Add custom code between the START and END comments to keep the next version
 147:Generated_Source\PSoC4/isr_bbi2c.c **** *   of this file from over-writing your code.
 148:Generated_Source\PSoC4/isr_bbi2c.c **** *
 149:Generated_Source\PSoC4/isr_bbi2c.c **** *   Note You may use either the default ISR by using this API, or you may define
 150:Generated_Source\PSoC4/isr_bbi2c.c **** *   your own separate ISR through ISR_StartEx().
 151:Generated_Source\PSoC4/isr_bbi2c.c **** *
 152:Generated_Source\PSoC4/isr_bbi2c.c **** * Parameters:  
 153:Generated_Source\PSoC4/isr_bbi2c.c **** *   None
 154:Generated_Source\PSoC4/isr_bbi2c.c **** *
 155:Generated_Source\PSoC4/isr_bbi2c.c **** * Return:
 156:Generated_Source\PSoC4/isr_bbi2c.c **** *   None
 157:Generated_Source\PSoC4/isr_bbi2c.c **** *
 158:Generated_Source\PSoC4/isr_bbi2c.c **** *******************************************************************************/
 159:Generated_Source\PSoC4/isr_bbi2c.c **** CY_ISR(isr_bbi2c_Interrupt)
 160:Generated_Source\PSoC4/isr_bbi2c.c **** {
  28              		.loc 1 160 0
  29              		.cfi_startproc
  30              		@ args = 0, pretend = 0, frame = 0
  31              		@ frame_needed = 0, uses_anonymous_args = 0
  32              	.LBB20:
  33              	.LBB21:
 161:Generated_Source\PSoC4/isr_bbi2c.c ****     #ifdef isr_bbi2c_INTERRUPT_INTERRUPT_CALLBACK
 162:Generated_Source\PSoC4/isr_bbi2c.c ****         isr_bbi2c_Interrupt_InterruptCallback();
 163:Generated_Source\PSoC4/isr_bbi2c.c ****     #endif /* isr_bbi2c_INTERRUPT_INTERRUPT_CALLBACK */ 
 164:Generated_Source\PSoC4/isr_bbi2c.c **** 
 165:Generated_Source\PSoC4/isr_bbi2c.c ****     /*  Place your Interrupt code here. */
 166:Generated_Source\PSoC4/isr_bbi2c.c ****     /* `#START isr_bbi2c_Interrupt` */
 167:Generated_Source\PSoC4/isr_bbi2c.c **** void trigger_ISR(void);
 168:Generated_Source\PSoC4/isr_bbi2c.c **** isr_bbi2c_ClearPending();
 169:Generated_Source\PSoC4/isr_bbi2c.c ****  trigger_ISR();
 170:Generated_Source\PSoC4/isr_bbi2c.c ****     /* `#END` */
 171:Generated_Source\PSoC4/isr_bbi2c.c **** }
 172:Generated_Source\PSoC4/isr_bbi2c.c **** 
 173:Generated_Source\PSoC4/isr_bbi2c.c **** 
 174:Generated_Source\PSoC4/isr_bbi2c.c **** /*******************************************************************************
 175:Generated_Source\PSoC4/isr_bbi2c.c **** * Function Name: isr_bbi2c_SetVector
 176:Generated_Source\PSoC4/isr_bbi2c.c **** ********************************************************************************
 177:Generated_Source\PSoC4/isr_bbi2c.c **** *
 178:Generated_Source\PSoC4/isr_bbi2c.c **** * Summary:
 179:Generated_Source\PSoC4/isr_bbi2c.c **** *   Change the ISR vector for the Interrupt. Note calling isr_bbi2c_Start
 180:Generated_Source\PSoC4/isr_bbi2c.c **** *   will override any effect this method would have had. To set the vector 
 181:Generated_Source\PSoC4/isr_bbi2c.c **** *   before the component has been started use isr_bbi2c_StartEx instead.
 182:Generated_Source\PSoC4/isr_bbi2c.c **** * 
 183:Generated_Source\PSoC4/isr_bbi2c.c **** *   When defining ISR functions, the CY_ISR and CY_ISR_PROTO macros should be 
 184:Generated_Source\PSoC4/isr_bbi2c.c **** *   used to provide consistent definition across compilers:
 185:Generated_Source\PSoC4/isr_bbi2c.c **** *
 186:Generated_Source\PSoC4/isr_bbi2c.c **** *   Function definition example:
 187:Generated_Source\PSoC4/isr_bbi2c.c **** *   CY_ISR(MyISR)
 188:Generated_Source\PSoC4/isr_bbi2c.c **** *   {
 189:Generated_Source\PSoC4/isr_bbi2c.c **** *   }
 190:Generated_Source\PSoC4/isr_bbi2c.c **** *
 191:Generated_Source\PSoC4/isr_bbi2c.c **** *   Function prototype example:
 192:Generated_Source\PSoC4/isr_bbi2c.c **** *     CY_ISR_PROTO(MyISR);
 193:Generated_Source\PSoC4/isr_bbi2c.c **** *
 194:Generated_Source\PSoC4/isr_bbi2c.c **** * Parameters:
 195:Generated_Source\PSoC4/isr_bbi2c.c **** *   address: Address of the ISR to set in the interrupt vector table.
ARM GAS  C:\Users\ilya\AppData\Local\Temp\ccDzWwB9.s 			page 5


 196:Generated_Source\PSoC4/isr_bbi2c.c **** *
 197:Generated_Source\PSoC4/isr_bbi2c.c **** * Return:
 198:Generated_Source\PSoC4/isr_bbi2c.c **** *   None
 199:Generated_Source\PSoC4/isr_bbi2c.c **** *
 200:Generated_Source\PSoC4/isr_bbi2c.c **** *******************************************************************************/
 201:Generated_Source\PSoC4/isr_bbi2c.c **** void isr_bbi2c_SetVector(cyisraddress address)
 202:Generated_Source\PSoC4/isr_bbi2c.c **** {
 203:Generated_Source\PSoC4/isr_bbi2c.c ****     CyRamVectors[CYINT_IRQ_BASE + isr_bbi2c__INTC_NUMBER] = address;
 204:Generated_Source\PSoC4/isr_bbi2c.c **** }
 205:Generated_Source\PSoC4/isr_bbi2c.c **** 
 206:Generated_Source\PSoC4/isr_bbi2c.c **** 
 207:Generated_Source\PSoC4/isr_bbi2c.c **** /*******************************************************************************
 208:Generated_Source\PSoC4/isr_bbi2c.c **** * Function Name: isr_bbi2c_GetVector
 209:Generated_Source\PSoC4/isr_bbi2c.c **** ********************************************************************************
 210:Generated_Source\PSoC4/isr_bbi2c.c **** *
 211:Generated_Source\PSoC4/isr_bbi2c.c **** * Summary:
 212:Generated_Source\PSoC4/isr_bbi2c.c **** *   Gets the "address" of the current ISR vector for the Interrupt.
 213:Generated_Source\PSoC4/isr_bbi2c.c **** *
 214:Generated_Source\PSoC4/isr_bbi2c.c **** * Parameters:
 215:Generated_Source\PSoC4/isr_bbi2c.c **** *   None
 216:Generated_Source\PSoC4/isr_bbi2c.c **** *
 217:Generated_Source\PSoC4/isr_bbi2c.c **** * Return:
 218:Generated_Source\PSoC4/isr_bbi2c.c **** *   Address of the ISR in the interrupt vector table.
 219:Generated_Source\PSoC4/isr_bbi2c.c **** *
 220:Generated_Source\PSoC4/isr_bbi2c.c **** *******************************************************************************/
 221:Generated_Source\PSoC4/isr_bbi2c.c **** cyisraddress isr_bbi2c_GetVector(void)
 222:Generated_Source\PSoC4/isr_bbi2c.c **** {
 223:Generated_Source\PSoC4/isr_bbi2c.c ****     return CyRamVectors[CYINT_IRQ_BASE + isr_bbi2c__INTC_NUMBER];
 224:Generated_Source\PSoC4/isr_bbi2c.c **** }
 225:Generated_Source\PSoC4/isr_bbi2c.c **** 
 226:Generated_Source\PSoC4/isr_bbi2c.c **** 
 227:Generated_Source\PSoC4/isr_bbi2c.c **** /*******************************************************************************
 228:Generated_Source\PSoC4/isr_bbi2c.c **** * Function Name: isr_bbi2c_SetPriority
 229:Generated_Source\PSoC4/isr_bbi2c.c **** ********************************************************************************
 230:Generated_Source\PSoC4/isr_bbi2c.c **** *
 231:Generated_Source\PSoC4/isr_bbi2c.c **** * Summary:
 232:Generated_Source\PSoC4/isr_bbi2c.c **** *   Sets the Priority of the Interrupt. 
 233:Generated_Source\PSoC4/isr_bbi2c.c **** *
 234:Generated_Source\PSoC4/isr_bbi2c.c **** *   Note calling isr_bbi2c_Start or isr_bbi2c_StartEx will 
 235:Generated_Source\PSoC4/isr_bbi2c.c **** *   override any effect this API would have had. This API should only be called
 236:Generated_Source\PSoC4/isr_bbi2c.c **** *   after isr_bbi2c_Start or isr_bbi2c_StartEx has been called. 
 237:Generated_Source\PSoC4/isr_bbi2c.c **** *   To set the initial priority for the component, use the Design-Wide Resources
 238:Generated_Source\PSoC4/isr_bbi2c.c **** *   Interrupt Editor.
 239:Generated_Source\PSoC4/isr_bbi2c.c **** *
 240:Generated_Source\PSoC4/isr_bbi2c.c **** *   Note This API has no effect on Non-maskable interrupt NMI).
 241:Generated_Source\PSoC4/isr_bbi2c.c **** *
 242:Generated_Source\PSoC4/isr_bbi2c.c **** * Parameters:
 243:Generated_Source\PSoC4/isr_bbi2c.c **** *   priority: Priority of the interrupt, 0 being the highest priority
 244:Generated_Source\PSoC4/isr_bbi2c.c **** *             PSoC 3 and PSoC 5LP: Priority is from 0 to 7.
 245:Generated_Source\PSoC4/isr_bbi2c.c **** *             PSoC 4: Priority is from 0 to 3.
 246:Generated_Source\PSoC4/isr_bbi2c.c **** *
 247:Generated_Source\PSoC4/isr_bbi2c.c **** * Return:
 248:Generated_Source\PSoC4/isr_bbi2c.c **** *   None
 249:Generated_Source\PSoC4/isr_bbi2c.c **** *
 250:Generated_Source\PSoC4/isr_bbi2c.c **** *******************************************************************************/
 251:Generated_Source\PSoC4/isr_bbi2c.c **** void isr_bbi2c_SetPriority(uint8 priority)
 252:Generated_Source\PSoC4/isr_bbi2c.c **** {
ARM GAS  C:\Users\ilya\AppData\Local\Temp\ccDzWwB9.s 			page 6


 253:Generated_Source\PSoC4/isr_bbi2c.c **** 	uint8 interruptState;
 254:Generated_Source\PSoC4/isr_bbi2c.c ****     uint32 priorityOffset = ((isr_bbi2c__INTC_NUMBER % 4u) * 8u) + 6u;
 255:Generated_Source\PSoC4/isr_bbi2c.c ****     
 256:Generated_Source\PSoC4/isr_bbi2c.c **** 	interruptState = CyEnterCriticalSection();
 257:Generated_Source\PSoC4/isr_bbi2c.c ****     *isr_bbi2c_INTC_PRIOR = (*isr_bbi2c_INTC_PRIOR & (uint32)(~isr_bbi2c__INTC_PRIOR_MASK)) |
 258:Generated_Source\PSoC4/isr_bbi2c.c ****                                     ((uint32)priority << priorityOffset);
 259:Generated_Source\PSoC4/isr_bbi2c.c **** 	CyExitCriticalSection(interruptState);
 260:Generated_Source\PSoC4/isr_bbi2c.c **** }
 261:Generated_Source\PSoC4/isr_bbi2c.c **** 
 262:Generated_Source\PSoC4/isr_bbi2c.c **** 
 263:Generated_Source\PSoC4/isr_bbi2c.c **** /*******************************************************************************
 264:Generated_Source\PSoC4/isr_bbi2c.c **** * Function Name: isr_bbi2c_GetPriority
 265:Generated_Source\PSoC4/isr_bbi2c.c **** ********************************************************************************
 266:Generated_Source\PSoC4/isr_bbi2c.c **** *
 267:Generated_Source\PSoC4/isr_bbi2c.c **** * Summary:
 268:Generated_Source\PSoC4/isr_bbi2c.c **** *   Gets the Priority of the Interrupt.
 269:Generated_Source\PSoC4/isr_bbi2c.c **** *
 270:Generated_Source\PSoC4/isr_bbi2c.c **** * Parameters:
 271:Generated_Source\PSoC4/isr_bbi2c.c **** *   None
 272:Generated_Source\PSoC4/isr_bbi2c.c **** *
 273:Generated_Source\PSoC4/isr_bbi2c.c **** * Return:
 274:Generated_Source\PSoC4/isr_bbi2c.c **** *   Priority of the interrupt, 0 being the highest priority
 275:Generated_Source\PSoC4/isr_bbi2c.c **** *    PSoC 3 and PSoC 5LP: Priority is from 0 to 7.
 276:Generated_Source\PSoC4/isr_bbi2c.c **** *    PSoC 4: Priority is from 0 to 3.
 277:Generated_Source\PSoC4/isr_bbi2c.c **** *
 278:Generated_Source\PSoC4/isr_bbi2c.c **** *******************************************************************************/
 279:Generated_Source\PSoC4/isr_bbi2c.c **** uint8 isr_bbi2c_GetPriority(void)
 280:Generated_Source\PSoC4/isr_bbi2c.c **** {
 281:Generated_Source\PSoC4/isr_bbi2c.c ****     uint32 priority;
 282:Generated_Source\PSoC4/isr_bbi2c.c **** 	uint32 priorityOffset = ((isr_bbi2c__INTC_NUMBER % 4u) * 8u) + 6u;
 283:Generated_Source\PSoC4/isr_bbi2c.c **** 
 284:Generated_Source\PSoC4/isr_bbi2c.c ****     priority = (*isr_bbi2c_INTC_PRIOR & isr_bbi2c__INTC_PRIOR_MASK) >> priorityOffset;
 285:Generated_Source\PSoC4/isr_bbi2c.c **** 
 286:Generated_Source\PSoC4/isr_bbi2c.c ****     return (uint8)priority;
 287:Generated_Source\PSoC4/isr_bbi2c.c **** }
 288:Generated_Source\PSoC4/isr_bbi2c.c **** 
 289:Generated_Source\PSoC4/isr_bbi2c.c **** 
 290:Generated_Source\PSoC4/isr_bbi2c.c **** /*******************************************************************************
 291:Generated_Source\PSoC4/isr_bbi2c.c **** * Function Name: isr_bbi2c_Enable
 292:Generated_Source\PSoC4/isr_bbi2c.c **** ********************************************************************************
 293:Generated_Source\PSoC4/isr_bbi2c.c **** *
 294:Generated_Source\PSoC4/isr_bbi2c.c **** * Summary:
 295:Generated_Source\PSoC4/isr_bbi2c.c **** *   Enables the interrupt to the interrupt controller. Do not call this function
 296:Generated_Source\PSoC4/isr_bbi2c.c **** *   unless ISR_Start() has been called or the functionality of the ISR_Start() 
 297:Generated_Source\PSoC4/isr_bbi2c.c **** *   function, which sets the vector and the priority, has been called.
 298:Generated_Source\PSoC4/isr_bbi2c.c **** *
 299:Generated_Source\PSoC4/isr_bbi2c.c **** * Parameters:
 300:Generated_Source\PSoC4/isr_bbi2c.c **** *   None
 301:Generated_Source\PSoC4/isr_bbi2c.c **** *
 302:Generated_Source\PSoC4/isr_bbi2c.c **** * Return:
 303:Generated_Source\PSoC4/isr_bbi2c.c **** *   None
 304:Generated_Source\PSoC4/isr_bbi2c.c **** *
 305:Generated_Source\PSoC4/isr_bbi2c.c **** *******************************************************************************/
 306:Generated_Source\PSoC4/isr_bbi2c.c **** void isr_bbi2c_Enable(void)
 307:Generated_Source\PSoC4/isr_bbi2c.c **** {
 308:Generated_Source\PSoC4/isr_bbi2c.c ****     /* Enable the general interrupt. */
 309:Generated_Source\PSoC4/isr_bbi2c.c ****     *isr_bbi2c_INTC_SET_EN = isr_bbi2c__INTC_MASK;
ARM GAS  C:\Users\ilya\AppData\Local\Temp\ccDzWwB9.s 			page 7


 310:Generated_Source\PSoC4/isr_bbi2c.c **** }
 311:Generated_Source\PSoC4/isr_bbi2c.c **** 
 312:Generated_Source\PSoC4/isr_bbi2c.c **** 
 313:Generated_Source\PSoC4/isr_bbi2c.c **** /*******************************************************************************
 314:Generated_Source\PSoC4/isr_bbi2c.c **** * Function Name: isr_bbi2c_GetState
 315:Generated_Source\PSoC4/isr_bbi2c.c **** ********************************************************************************
 316:Generated_Source\PSoC4/isr_bbi2c.c **** *
 317:Generated_Source\PSoC4/isr_bbi2c.c **** * Summary:
 318:Generated_Source\PSoC4/isr_bbi2c.c **** *   Gets the state (enabled, disabled) of the Interrupt.
 319:Generated_Source\PSoC4/isr_bbi2c.c **** *
 320:Generated_Source\PSoC4/isr_bbi2c.c **** * Parameters:
 321:Generated_Source\PSoC4/isr_bbi2c.c **** *   None
 322:Generated_Source\PSoC4/isr_bbi2c.c **** *
 323:Generated_Source\PSoC4/isr_bbi2c.c **** * Return:
 324:Generated_Source\PSoC4/isr_bbi2c.c **** *   1 if enabled, 0 if disabled.
 325:Generated_Source\PSoC4/isr_bbi2c.c **** *
 326:Generated_Source\PSoC4/isr_bbi2c.c **** *******************************************************************************/
 327:Generated_Source\PSoC4/isr_bbi2c.c **** uint8 isr_bbi2c_GetState(void)
 328:Generated_Source\PSoC4/isr_bbi2c.c **** {
 329:Generated_Source\PSoC4/isr_bbi2c.c ****     /* Get the state of the general interrupt. */
 330:Generated_Source\PSoC4/isr_bbi2c.c ****     return ((*isr_bbi2c_INTC_SET_EN & (uint32)isr_bbi2c__INTC_MASK) != 0u) ? 1u:0u;
 331:Generated_Source\PSoC4/isr_bbi2c.c **** }
 332:Generated_Source\PSoC4/isr_bbi2c.c **** 
 333:Generated_Source\PSoC4/isr_bbi2c.c **** 
 334:Generated_Source\PSoC4/isr_bbi2c.c **** /*******************************************************************************
 335:Generated_Source\PSoC4/isr_bbi2c.c **** * Function Name: isr_bbi2c_Disable
 336:Generated_Source\PSoC4/isr_bbi2c.c **** ********************************************************************************
 337:Generated_Source\PSoC4/isr_bbi2c.c **** *
 338:Generated_Source\PSoC4/isr_bbi2c.c **** * Summary:
 339:Generated_Source\PSoC4/isr_bbi2c.c **** *   Disables the Interrupt in the interrupt controller.
 340:Generated_Source\PSoC4/isr_bbi2c.c **** *
 341:Generated_Source\PSoC4/isr_bbi2c.c **** * Parameters:
 342:Generated_Source\PSoC4/isr_bbi2c.c **** *   None
 343:Generated_Source\PSoC4/isr_bbi2c.c **** *
 344:Generated_Source\PSoC4/isr_bbi2c.c **** * Return:
 345:Generated_Source\PSoC4/isr_bbi2c.c **** *   None
 346:Generated_Source\PSoC4/isr_bbi2c.c **** *
 347:Generated_Source\PSoC4/isr_bbi2c.c **** *******************************************************************************/
 348:Generated_Source\PSoC4/isr_bbi2c.c **** void isr_bbi2c_Disable(void)
 349:Generated_Source\PSoC4/isr_bbi2c.c **** {
 350:Generated_Source\PSoC4/isr_bbi2c.c ****     /* Disable the general interrupt. */
 351:Generated_Source\PSoC4/isr_bbi2c.c ****     *isr_bbi2c_INTC_CLR_EN = isr_bbi2c__INTC_MASK;
 352:Generated_Source\PSoC4/isr_bbi2c.c **** }
 353:Generated_Source\PSoC4/isr_bbi2c.c **** 
 354:Generated_Source\PSoC4/isr_bbi2c.c **** 
 355:Generated_Source\PSoC4/isr_bbi2c.c **** /*******************************************************************************
 356:Generated_Source\PSoC4/isr_bbi2c.c **** * Function Name: isr_bbi2c_SetPending
 357:Generated_Source\PSoC4/isr_bbi2c.c **** ********************************************************************************
 358:Generated_Source\PSoC4/isr_bbi2c.c **** *
 359:Generated_Source\PSoC4/isr_bbi2c.c **** * Summary:
 360:Generated_Source\PSoC4/isr_bbi2c.c **** *   Causes the Interrupt to enter the pending state, a software method of
 361:Generated_Source\PSoC4/isr_bbi2c.c **** *   generating the interrupt.
 362:Generated_Source\PSoC4/isr_bbi2c.c **** *
 363:Generated_Source\PSoC4/isr_bbi2c.c **** * Parameters:
 364:Generated_Source\PSoC4/isr_bbi2c.c **** *   None
 365:Generated_Source\PSoC4/isr_bbi2c.c **** *
 366:Generated_Source\PSoC4/isr_bbi2c.c **** * Return:
ARM GAS  C:\Users\ilya\AppData\Local\Temp\ccDzWwB9.s 			page 8


 367:Generated_Source\PSoC4/isr_bbi2c.c **** *   None
 368:Generated_Source\PSoC4/isr_bbi2c.c **** *
 369:Generated_Source\PSoC4/isr_bbi2c.c **** * Side Effects:
 370:Generated_Source\PSoC4/isr_bbi2c.c **** *   If interrupts are enabled and the interrupt is set up properly, the ISR is
 371:Generated_Source\PSoC4/isr_bbi2c.c **** *   entered (depending on the priority of this interrupt and other pending 
 372:Generated_Source\PSoC4/isr_bbi2c.c **** *   interrupts).
 373:Generated_Source\PSoC4/isr_bbi2c.c **** *
 374:Generated_Source\PSoC4/isr_bbi2c.c **** *******************************************************************************/
 375:Generated_Source\PSoC4/isr_bbi2c.c **** void isr_bbi2c_SetPending(void)
 376:Generated_Source\PSoC4/isr_bbi2c.c **** {
 377:Generated_Source\PSoC4/isr_bbi2c.c ****     *isr_bbi2c_INTC_SET_PD = isr_bbi2c__INTC_MASK;
 378:Generated_Source\PSoC4/isr_bbi2c.c **** }
 379:Generated_Source\PSoC4/isr_bbi2c.c **** 
 380:Generated_Source\PSoC4/isr_bbi2c.c **** 
 381:Generated_Source\PSoC4/isr_bbi2c.c **** /*******************************************************************************
 382:Generated_Source\PSoC4/isr_bbi2c.c **** * Function Name: isr_bbi2c_ClearPending
 383:Generated_Source\PSoC4/isr_bbi2c.c **** ********************************************************************************
 384:Generated_Source\PSoC4/isr_bbi2c.c **** *
 385:Generated_Source\PSoC4/isr_bbi2c.c **** * Summary:
 386:Generated_Source\PSoC4/isr_bbi2c.c **** *   Clears a pending interrupt in the interrupt controller.
 387:Generated_Source\PSoC4/isr_bbi2c.c **** *
 388:Generated_Source\PSoC4/isr_bbi2c.c **** *   Note Some interrupt sources are clear-on-read and require the block 
 389:Generated_Source\PSoC4/isr_bbi2c.c **** *   interrupt/status register to be read/cleared with the appropriate block API 
 390:Generated_Source\PSoC4/isr_bbi2c.c **** *   (GPIO, UART, and so on). Otherwise the ISR will continue to remain in 
 391:Generated_Source\PSoC4/isr_bbi2c.c **** *   pending state even though the interrupt itself is cleared using this API.
 392:Generated_Source\PSoC4/isr_bbi2c.c **** *
 393:Generated_Source\PSoC4/isr_bbi2c.c **** * Parameters:
 394:Generated_Source\PSoC4/isr_bbi2c.c **** *   None
 395:Generated_Source\PSoC4/isr_bbi2c.c **** *
 396:Generated_Source\PSoC4/isr_bbi2c.c **** * Return:
 397:Generated_Source\PSoC4/isr_bbi2c.c **** *   None
 398:Generated_Source\PSoC4/isr_bbi2c.c **** *
 399:Generated_Source\PSoC4/isr_bbi2c.c **** *******************************************************************************/
 400:Generated_Source\PSoC4/isr_bbi2c.c **** void isr_bbi2c_ClearPending(void)
 401:Generated_Source\PSoC4/isr_bbi2c.c **** {
 402:Generated_Source\PSoC4/isr_bbi2c.c ****     *isr_bbi2c_INTC_CLR_PD = isr_bbi2c__INTC_MASK;
  34              		.loc 1 402 0
  35 0000 0122     		movs	r2, #1
  36              	.LBE21:
  37              	.LBE20:
 160:Generated_Source\PSoC4/isr_bbi2c.c ****     #ifdef isr_bbi2c_INTERRUPT_INTERRUPT_CALLBACK
  38              		.loc 1 160 0
  39 0002 10B5     		push	{r4, lr}
  40              		.cfi_def_cfa_offset 8
  41              		.cfi_offset 4, -8
  42              		.cfi_offset 14, -4
  43              	.LBB24:
  44              	.LBB22:
  45              		.loc 1 402 0
  46 0004 024B     		ldr	r3, .L2
  47              	.LBE22:
  48              	.LBE24:
 171:Generated_Source\PSoC4/isr_bbi2c.c **** 
  49              		.loc 1 171 0
  50              		@ sp needed
  51              	.LBB25:
  52              	.LBB23:
ARM GAS  C:\Users\ilya\AppData\Local\Temp\ccDzWwB9.s 			page 9


  53              		.loc 1 402 0
  54 0006 1A60     		str	r2, [r3]
  55              	.LBE23:
  56              	.LBE25:
 169:Generated_Source\PSoC4/isr_bbi2c.c ****     /* `#END` */
  57              		.loc 1 169 0
  58 0008 FFF7FEFF 		bl	trigger_ISR
  59              	.LVL0:
 171:Generated_Source\PSoC4/isr_bbi2c.c **** 
  60              		.loc 1 171 0
  61 000c 10BD     		pop	{r4, pc}
  62              	.L3:
  63 000e C046     		.align	2
  64              	.L2:
  65 0010 80E200E0 		.word	-536812928
  66              		.cfi_endproc
  67              	.LFE4:
  68              		.size	isr_bbi2c_Interrupt, .-isr_bbi2c_Interrupt
  69              		.section	.text.isr_bbi2c_Start,"ax",%progbits
  70              		.align	2
  71              		.global	isr_bbi2c_Start
  72              		.code	16
  73              		.thumb_func
  74              		.type	isr_bbi2c_Start, %function
  75              	isr_bbi2c_Start:
  76              	.LFB1:
  57:Generated_Source\PSoC4/isr_bbi2c.c ****     /* For all we know the interrupt is active. */
  77              		.loc 1 57 0
  78              		.cfi_startproc
  79              		@ args = 0, pretend = 0, frame = 0
  80              		@ frame_needed = 0, uses_anonymous_args = 0
  81 0000 10B5     		push	{r4, lr}
  82              		.cfi_def_cfa_offset 8
  83              		.cfi_offset 4, -8
  84              		.cfi_offset 14, -4
  85              	.LBB34:
  86              	.LBB35:
 351:Generated_Source\PSoC4/isr_bbi2c.c **** }
  87              		.loc 1 351 0
  88 0002 0124     		movs	r4, #1
  89 0004 084B     		ldr	r3, .L5
  90              	.LBE35:
  91              	.LBE34:
  92              	.LBB37:
  93              	.LBB38:
 203:Generated_Source\PSoC4/isr_bbi2c.c **** }
  94              		.loc 1 203 0
  95 0006 094A     		ldr	r2, .L5+4
  96              	.LBE38:
  97              	.LBE37:
  98              	.LBB41:
  99              	.LBB36:
 351:Generated_Source\PSoC4/isr_bbi2c.c **** }
 100              		.loc 1 351 0
 101 0008 1C60     		str	r4, [r3]
 102              	.LVL1:
 103              	.LBE36:
ARM GAS  C:\Users\ilya\AppData\Local\Temp\ccDzWwB9.s 			page 10


 104              	.LBE41:
 105              	.LBB42:
 106              	.LBB39:
 203:Generated_Source\PSoC4/isr_bbi2c.c **** }
 107              		.loc 1 203 0
 108 000a 094B     		ldr	r3, .L5+8
 109              	.LBE39:
 110              	.LBE42:
  69:Generated_Source\PSoC4/isr_bbi2c.c **** 
 111              		.loc 1 69 0
 112              		@ sp needed
 113              	.LBB43:
 114              	.LBB40:
 203:Generated_Source\PSoC4/isr_bbi2c.c **** }
 115              		.loc 1 203 0
 116 000c 1A64     		str	r2, [r3, #64]
 117              	.LVL2:
 118              	.LBE40:
 119              	.LBE43:
 120              	.LBB44:
 121              	.LBB45:
 256:Generated_Source\PSoC4/isr_bbi2c.c ****     *isr_bbi2c_INTC_PRIOR = (*isr_bbi2c_INTC_PRIOR & (uint32)(~isr_bbi2c__INTC_PRIOR_MASK)) |
 122              		.loc 1 256 0
 123 000e FFF7FEFF 		bl	CyEnterCriticalSection
 124              	.LVL3:
 257:Generated_Source\PSoC4/isr_bbi2c.c ****                                     ((uint32)priority << priorityOffset);
 125              		.loc 1 257 0
 126 0012 C021     		movs	r1, #192
 127 0014 074A     		ldr	r2, .L5+12
 128 0016 1368     		ldr	r3, [r2]
 129 0018 8B43     		bics	r3, r1
 130 001a 1360     		str	r3, [r2]
 259:Generated_Source\PSoC4/isr_bbi2c.c **** }
 131              		.loc 1 259 0
 132 001c FFF7FEFF 		bl	CyExitCriticalSection
 133              	.LVL4:
 134              	.LBE45:
 135              	.LBE44:
 136              	.LBB46:
 137              	.LBB47:
 309:Generated_Source\PSoC4/isr_bbi2c.c **** }
 138              		.loc 1 309 0
 139 0020 054B     		ldr	r3, .L5+16
 140 0022 1C60     		str	r4, [r3]
 141              	.LBE47:
 142              	.LBE46:
  69:Generated_Source\PSoC4/isr_bbi2c.c **** 
 143              		.loc 1 69 0
 144 0024 10BD     		pop	{r4, pc}
 145              	.L6:
 146 0026 C046     		.align	2
 147              	.L5:
 148 0028 80E100E0 		.word	-536813184
 149 002c 00000000 		.word	isr_bbi2c_Interrupt
 150 0030 00000000 		.word	CyRamVectors
 151 0034 00E400E0 		.word	-536812544
 152 0038 00E100E0 		.word	-536813312
ARM GAS  C:\Users\ilya\AppData\Local\Temp\ccDzWwB9.s 			page 11


 153              		.cfi_endproc
 154              	.LFE1:
 155              		.size	isr_bbi2c_Start, .-isr_bbi2c_Start
 156              		.section	.text.isr_bbi2c_StartEx,"ax",%progbits
 157              		.align	2
 158              		.global	isr_bbi2c_StartEx
 159              		.code	16
 160              		.thumb_func
 161              		.type	isr_bbi2c_StartEx, %function
 162              	isr_bbi2c_StartEx:
 163              	.LFB2:
 100:Generated_Source\PSoC4/isr_bbi2c.c ****     /* For all we know the interrupt is active. */
 164              		.loc 1 100 0
 165              		.cfi_startproc
 166              		@ args = 0, pretend = 0, frame = 0
 167              		@ frame_needed = 0, uses_anonymous_args = 0
 168              	.LVL5:
 169 0000 10B5     		push	{r4, lr}
 170              		.cfi_def_cfa_offset 8
 171              		.cfi_offset 4, -8
 172              		.cfi_offset 14, -4
 173              	.LBB56:
 174              	.LBB57:
 351:Generated_Source\PSoC4/isr_bbi2c.c **** }
 175              		.loc 1 351 0
 176 0002 0124     		movs	r4, #1
 177 0004 074B     		ldr	r3, .L8
 178              	.LBE57:
 179              	.LBE56:
 112:Generated_Source\PSoC4/isr_bbi2c.c **** 
 180              		.loc 1 112 0
 181              		@ sp needed
 182              	.LBB59:
 183              	.LBB58:
 351:Generated_Source\PSoC4/isr_bbi2c.c **** }
 184              		.loc 1 351 0
 185 0006 1C60     		str	r4, [r3]
 186              	.LVL6:
 187              	.LBE58:
 188              	.LBE59:
 189              	.LBB60:
 190              	.LBB61:
 203:Generated_Source\PSoC4/isr_bbi2c.c **** }
 191              		.loc 1 203 0
 192 0008 074B     		ldr	r3, .L8+4
 193 000a 1864     		str	r0, [r3, #64]
 194              	.LVL7:
 195              	.LBE61:
 196              	.LBE60:
 197              	.LBB62:
 198              	.LBB63:
 256:Generated_Source\PSoC4/isr_bbi2c.c ****     *isr_bbi2c_INTC_PRIOR = (*isr_bbi2c_INTC_PRIOR & (uint32)(~isr_bbi2c__INTC_PRIOR_MASK)) |
 199              		.loc 1 256 0
 200 000c FFF7FEFF 		bl	CyEnterCriticalSection
 201              	.LVL8:
 257:Generated_Source\PSoC4/isr_bbi2c.c ****                                     ((uint32)priority << priorityOffset);
 202              		.loc 1 257 0
ARM GAS  C:\Users\ilya\AppData\Local\Temp\ccDzWwB9.s 			page 12


 203 0010 C021     		movs	r1, #192
 204 0012 064A     		ldr	r2, .L8+8
 205 0014 1368     		ldr	r3, [r2]
 206 0016 8B43     		bics	r3, r1
 207 0018 1360     		str	r3, [r2]
 259:Generated_Source\PSoC4/isr_bbi2c.c **** }
 208              		.loc 1 259 0
 209 001a FFF7FEFF 		bl	CyExitCriticalSection
 210              	.LVL9:
 211              	.LBE63:
 212              	.LBE62:
 213              	.LBB64:
 214              	.LBB65:
 309:Generated_Source\PSoC4/isr_bbi2c.c **** }
 215              		.loc 1 309 0
 216 001e 044B     		ldr	r3, .L8+12
 217 0020 1C60     		str	r4, [r3]
 218              	.LBE65:
 219              	.LBE64:
 112:Generated_Source\PSoC4/isr_bbi2c.c **** 
 220              		.loc 1 112 0
 221 0022 10BD     		pop	{r4, pc}
 222              	.L9:
 223              		.align	2
 224              	.L8:
 225 0024 80E100E0 		.word	-536813184
 226 0028 00000000 		.word	CyRamVectors
 227 002c 00E400E0 		.word	-536812544
 228 0030 00E100E0 		.word	-536813312
 229              		.cfi_endproc
 230              	.LFE2:
 231              		.size	isr_bbi2c_StartEx, .-isr_bbi2c_StartEx
 232              		.section	.text.isr_bbi2c_Stop,"ax",%progbits
 233              		.align	2
 234              		.global	isr_bbi2c_Stop
 235              		.code	16
 236              		.thumb_func
 237              		.type	isr_bbi2c_Stop, %function
 238              	isr_bbi2c_Stop:
 239              	.LFB3:
 130:Generated_Source\PSoC4/isr_bbi2c.c ****     /* Disable this interrupt. */
 240              		.loc 1 130 0
 241              		.cfi_startproc
 242              		@ args = 0, pretend = 0, frame = 0
 243              		@ frame_needed = 0, uses_anonymous_args = 0
 244              		@ link register save eliminated.
 245              	.LBB66:
 246              	.LBB67:
 351:Generated_Source\PSoC4/isr_bbi2c.c **** }
 247              		.loc 1 351 0
 248 0000 0122     		movs	r2, #1
 249 0002 034B     		ldr	r3, .L11
 250              	.LBE67:
 251              	.LBE66:
 136:Generated_Source\PSoC4/isr_bbi2c.c **** 
 252              		.loc 1 136 0
 253              		@ sp needed
ARM GAS  C:\Users\ilya\AppData\Local\Temp\ccDzWwB9.s 			page 13


 254              	.LBB69:
 255              	.LBB68:
 351:Generated_Source\PSoC4/isr_bbi2c.c **** }
 256              		.loc 1 351 0
 257 0004 1A60     		str	r2, [r3]
 258              	.LVL10:
 259              	.LBE68:
 260              	.LBE69:
 261              	.LBB70:
 262              	.LBB71:
 203:Generated_Source\PSoC4/isr_bbi2c.c **** }
 263              		.loc 1 203 0
 264 0006 034A     		ldr	r2, .L11+4
 265 0008 034B     		ldr	r3, .L11+8
 266 000a 1A64     		str	r2, [r3, #64]
 267              	.LVL11:
 268              	.LBE71:
 269              	.LBE70:
 136:Generated_Source\PSoC4/isr_bbi2c.c **** 
 270              		.loc 1 136 0
 271 000c 7047     		bx	lr
 272              	.L12:
 273 000e C046     		.align	2
 274              	.L11:
 275 0010 80E100E0 		.word	-536813184
 276 0014 00000000 		.word	IntDefaultHandler
 277 0018 00000000 		.word	CyRamVectors
 278              		.cfi_endproc
 279              	.LFE3:
 280              		.size	isr_bbi2c_Stop, .-isr_bbi2c_Stop
 281              		.section	.text.isr_bbi2c_SetVector,"ax",%progbits
 282              		.align	2
 283              		.global	isr_bbi2c_SetVector
 284              		.code	16
 285              		.thumb_func
 286              		.type	isr_bbi2c_SetVector, %function
 287              	isr_bbi2c_SetVector:
 288              	.LFB5:
 202:Generated_Source\PSoC4/isr_bbi2c.c ****     CyRamVectors[CYINT_IRQ_BASE + isr_bbi2c__INTC_NUMBER] = address;
 289              		.loc 1 202 0
 290              		.cfi_startproc
 291              		@ args = 0, pretend = 0, frame = 0
 292              		@ frame_needed = 0, uses_anonymous_args = 0
 293              		@ link register save eliminated.
 294              	.LVL12:
 203:Generated_Source\PSoC4/isr_bbi2c.c **** }
 295              		.loc 1 203 0
 296 0000 014B     		ldr	r3, .L14
 204:Generated_Source\PSoC4/isr_bbi2c.c **** 
 297              		.loc 1 204 0
 298              		@ sp needed
 203:Generated_Source\PSoC4/isr_bbi2c.c **** }
 299              		.loc 1 203 0
 300 0002 1864     		str	r0, [r3, #64]
 204:Generated_Source\PSoC4/isr_bbi2c.c **** 
 301              		.loc 1 204 0
 302 0004 7047     		bx	lr
ARM GAS  C:\Users\ilya\AppData\Local\Temp\ccDzWwB9.s 			page 14


 303              	.L15:
 304 0006 C046     		.align	2
 305              	.L14:
 306 0008 00000000 		.word	CyRamVectors
 307              		.cfi_endproc
 308              	.LFE5:
 309              		.size	isr_bbi2c_SetVector, .-isr_bbi2c_SetVector
 310              		.section	.text.isr_bbi2c_GetVector,"ax",%progbits
 311              		.align	2
 312              		.global	isr_bbi2c_GetVector
 313              		.code	16
 314              		.thumb_func
 315              		.type	isr_bbi2c_GetVector, %function
 316              	isr_bbi2c_GetVector:
 317              	.LFB6:
 222:Generated_Source\PSoC4/isr_bbi2c.c ****     return CyRamVectors[CYINT_IRQ_BASE + isr_bbi2c__INTC_NUMBER];
 318              		.loc 1 222 0
 319              		.cfi_startproc
 320              		@ args = 0, pretend = 0, frame = 0
 321              		@ frame_needed = 0, uses_anonymous_args = 0
 322              		@ link register save eliminated.
 223:Generated_Source\PSoC4/isr_bbi2c.c **** }
 323              		.loc 1 223 0
 324 0000 014B     		ldr	r3, .L17
 224:Generated_Source\PSoC4/isr_bbi2c.c **** 
 325              		.loc 1 224 0
 326              		@ sp needed
 223:Generated_Source\PSoC4/isr_bbi2c.c **** }
 327              		.loc 1 223 0
 328 0002 186C     		ldr	r0, [r3, #64]
 224:Generated_Source\PSoC4/isr_bbi2c.c **** 
 329              		.loc 1 224 0
 330 0004 7047     		bx	lr
 331              	.L18:
 332 0006 C046     		.align	2
 333              	.L17:
 334 0008 00000000 		.word	CyRamVectors
 335              		.cfi_endproc
 336              	.LFE6:
 337              		.size	isr_bbi2c_GetVector, .-isr_bbi2c_GetVector
 338              		.section	.text.isr_bbi2c_SetPriority,"ax",%progbits
 339              		.align	2
 340              		.global	isr_bbi2c_SetPriority
 341              		.code	16
 342              		.thumb_func
 343              		.type	isr_bbi2c_SetPriority, %function
 344              	isr_bbi2c_SetPriority:
 345              	.LFB7:
 252:Generated_Source\PSoC4/isr_bbi2c.c **** 	uint8 interruptState;
 346              		.loc 1 252 0
 347              		.cfi_startproc
 348              		@ args = 0, pretend = 0, frame = 0
 349              		@ frame_needed = 0, uses_anonymous_args = 0
 350              	.LVL13:
 351 0000 10B5     		push	{r4, lr}
 352              		.cfi_def_cfa_offset 8
 353              		.cfi_offset 4, -8
ARM GAS  C:\Users\ilya\AppData\Local\Temp\ccDzWwB9.s 			page 15


 354              		.cfi_offset 14, -4
 252:Generated_Source\PSoC4/isr_bbi2c.c **** 	uint8 interruptState;
 355              		.loc 1 252 0
 356 0002 0400     		movs	r4, r0
 256:Generated_Source\PSoC4/isr_bbi2c.c ****     *isr_bbi2c_INTC_PRIOR = (*isr_bbi2c_INTC_PRIOR & (uint32)(~isr_bbi2c__INTC_PRIOR_MASK)) |
 357              		.loc 1 256 0
 358 0004 FFF7FEFF 		bl	CyEnterCriticalSection
 359              	.LVL14:
 257:Generated_Source\PSoC4/isr_bbi2c.c ****                                     ((uint32)priority << priorityOffset);
 360              		.loc 1 257 0
 361 0008 C021     		movs	r1, #192
 362 000a 044A     		ldr	r2, .L20
 363 000c A401     		lsls	r4, r4, #6
 364 000e 1368     		ldr	r3, [r2]
 260:Generated_Source\PSoC4/isr_bbi2c.c **** 
 365              		.loc 1 260 0
 366              		@ sp needed
 257:Generated_Source\PSoC4/isr_bbi2c.c ****                                     ((uint32)priority << priorityOffset);
 367              		.loc 1 257 0
 368 0010 8B43     		bics	r3, r1
 369 0012 1C43     		orrs	r4, r3
 370 0014 1460     		str	r4, [r2]
 259:Generated_Source\PSoC4/isr_bbi2c.c **** }
 371              		.loc 1 259 0
 372 0016 FFF7FEFF 		bl	CyExitCriticalSection
 373              	.LVL15:
 260:Generated_Source\PSoC4/isr_bbi2c.c **** 
 374              		.loc 1 260 0
 375 001a 10BD     		pop	{r4, pc}
 376              	.L21:
 377              		.align	2
 378              	.L20:
 379 001c 00E400E0 		.word	-536812544
 380              		.cfi_endproc
 381              	.LFE7:
 382              		.size	isr_bbi2c_SetPriority, .-isr_bbi2c_SetPriority
 383              		.section	.text.isr_bbi2c_GetPriority,"ax",%progbits
 384              		.align	2
 385              		.global	isr_bbi2c_GetPriority
 386              		.code	16
 387              		.thumb_func
 388              		.type	isr_bbi2c_GetPriority, %function
 389              	isr_bbi2c_GetPriority:
 390              	.LFB8:
 280:Generated_Source\PSoC4/isr_bbi2c.c ****     uint32 priority;
 391              		.loc 1 280 0
 392              		.cfi_startproc
 393              		@ args = 0, pretend = 0, frame = 0
 394              		@ frame_needed = 0, uses_anonymous_args = 0
 395              		@ link register save eliminated.
 396              	.LVL16:
 284:Generated_Source\PSoC4/isr_bbi2c.c **** 
 397              		.loc 1 284 0
 398 0000 024B     		ldr	r3, .L23
 287:Generated_Source\PSoC4/isr_bbi2c.c **** 
 399              		.loc 1 287 0
 400              		@ sp needed
ARM GAS  C:\Users\ilya\AppData\Local\Temp\ccDzWwB9.s 			page 16


 284:Generated_Source\PSoC4/isr_bbi2c.c **** 
 401              		.loc 1 284 0
 402 0002 1868     		ldr	r0, [r3]
 403              	.LVL17:
 286:Generated_Source\PSoC4/isr_bbi2c.c **** }
 404              		.loc 1 286 0
 405 0004 0006     		lsls	r0, r0, #24
 406              	.LVL18:
 407 0006 800F     		lsrs	r0, r0, #30
 287:Generated_Source\PSoC4/isr_bbi2c.c **** 
 408              		.loc 1 287 0
 409 0008 7047     		bx	lr
 410              	.L24:
 411 000a C046     		.align	2
 412              	.L23:
 413 000c 00E400E0 		.word	-536812544
 414              		.cfi_endproc
 415              	.LFE8:
 416              		.size	isr_bbi2c_GetPriority, .-isr_bbi2c_GetPriority
 417              		.section	.text.isr_bbi2c_Enable,"ax",%progbits
 418              		.align	2
 419              		.global	isr_bbi2c_Enable
 420              		.code	16
 421              		.thumb_func
 422              		.type	isr_bbi2c_Enable, %function
 423              	isr_bbi2c_Enable:
 424              	.LFB9:
 307:Generated_Source\PSoC4/isr_bbi2c.c ****     /* Enable the general interrupt. */
 425              		.loc 1 307 0
 426              		.cfi_startproc
 427              		@ args = 0, pretend = 0, frame = 0
 428              		@ frame_needed = 0, uses_anonymous_args = 0
 429              		@ link register save eliminated.
 309:Generated_Source\PSoC4/isr_bbi2c.c **** }
 430              		.loc 1 309 0
 431 0000 0122     		movs	r2, #1
 432 0002 014B     		ldr	r3, .L26
 310:Generated_Source\PSoC4/isr_bbi2c.c **** 
 433              		.loc 1 310 0
 434              		@ sp needed
 309:Generated_Source\PSoC4/isr_bbi2c.c **** }
 435              		.loc 1 309 0
 436 0004 1A60     		str	r2, [r3]
 310:Generated_Source\PSoC4/isr_bbi2c.c **** 
 437              		.loc 1 310 0
 438 0006 7047     		bx	lr
 439              	.L27:
 440              		.align	2
 441              	.L26:
 442 0008 00E100E0 		.word	-536813312
 443              		.cfi_endproc
 444              	.LFE9:
 445              		.size	isr_bbi2c_Enable, .-isr_bbi2c_Enable
 446              		.section	.text.isr_bbi2c_GetState,"ax",%progbits
 447              		.align	2
 448              		.global	isr_bbi2c_GetState
 449              		.code	16
ARM GAS  C:\Users\ilya\AppData\Local\Temp\ccDzWwB9.s 			page 17


 450              		.thumb_func
 451              		.type	isr_bbi2c_GetState, %function
 452              	isr_bbi2c_GetState:
 453              	.LFB10:
 328:Generated_Source\PSoC4/isr_bbi2c.c ****     /* Get the state of the general interrupt. */
 454              		.loc 1 328 0
 455              		.cfi_startproc
 456              		@ args = 0, pretend = 0, frame = 0
 457              		@ frame_needed = 0, uses_anonymous_args = 0
 458              		@ link register save eliminated.
 330:Generated_Source\PSoC4/isr_bbi2c.c **** }
 459              		.loc 1 330 0
 460 0000 0120     		movs	r0, #1
 461 0002 024B     		ldr	r3, .L29
 331:Generated_Source\PSoC4/isr_bbi2c.c **** 
 462              		.loc 1 331 0
 463              		@ sp needed
 330:Generated_Source\PSoC4/isr_bbi2c.c **** }
 464              		.loc 1 330 0
 465 0004 1B68     		ldr	r3, [r3]
 466 0006 1840     		ands	r0, r3
 331:Generated_Source\PSoC4/isr_bbi2c.c **** 
 467              		.loc 1 331 0
 468 0008 7047     		bx	lr
 469              	.L30:
 470 000a C046     		.align	2
 471              	.L29:
 472 000c 00E100E0 		.word	-536813312
 473              		.cfi_endproc
 474              	.LFE10:
 475              		.size	isr_bbi2c_GetState, .-isr_bbi2c_GetState
 476              		.section	.text.isr_bbi2c_Disable,"ax",%progbits
 477              		.align	2
 478              		.global	isr_bbi2c_Disable
 479              		.code	16
 480              		.thumb_func
 481              		.type	isr_bbi2c_Disable, %function
 482              	isr_bbi2c_Disable:
 483              	.LFB11:
 349:Generated_Source\PSoC4/isr_bbi2c.c ****     /* Disable the general interrupt. */
 484              		.loc 1 349 0
 485              		.cfi_startproc
 486              		@ args = 0, pretend = 0, frame = 0
 487              		@ frame_needed = 0, uses_anonymous_args = 0
 488              		@ link register save eliminated.
 351:Generated_Source\PSoC4/isr_bbi2c.c **** }
 489              		.loc 1 351 0
 490 0000 0122     		movs	r2, #1
 491 0002 014B     		ldr	r3, .L32
 352:Generated_Source\PSoC4/isr_bbi2c.c **** 
 492              		.loc 1 352 0
 493              		@ sp needed
 351:Generated_Source\PSoC4/isr_bbi2c.c **** }
 494              		.loc 1 351 0
 495 0004 1A60     		str	r2, [r3]
 352:Generated_Source\PSoC4/isr_bbi2c.c **** 
 496              		.loc 1 352 0
ARM GAS  C:\Users\ilya\AppData\Local\Temp\ccDzWwB9.s 			page 18


 497 0006 7047     		bx	lr
 498              	.L33:
 499              		.align	2
 500              	.L32:
 501 0008 80E100E0 		.word	-536813184
 502              		.cfi_endproc
 503              	.LFE11:
 504              		.size	isr_bbi2c_Disable, .-isr_bbi2c_Disable
 505              		.section	.text.isr_bbi2c_SetPending,"ax",%progbits
 506              		.align	2
 507              		.global	isr_bbi2c_SetPending
 508              		.code	16
 509              		.thumb_func
 510              		.type	isr_bbi2c_SetPending, %function
 511              	isr_bbi2c_SetPending:
 512              	.LFB12:
 376:Generated_Source\PSoC4/isr_bbi2c.c ****     *isr_bbi2c_INTC_SET_PD = isr_bbi2c__INTC_MASK;
 513              		.loc 1 376 0
 514              		.cfi_startproc
 515              		@ args = 0, pretend = 0, frame = 0
 516              		@ frame_needed = 0, uses_anonymous_args = 0
 517              		@ link register save eliminated.
 377:Generated_Source\PSoC4/isr_bbi2c.c **** }
 518              		.loc 1 377 0
 519 0000 0122     		movs	r2, #1
 520 0002 014B     		ldr	r3, .L35
 378:Generated_Source\PSoC4/isr_bbi2c.c **** 
 521              		.loc 1 378 0
 522              		@ sp needed
 377:Generated_Source\PSoC4/isr_bbi2c.c **** }
 523              		.loc 1 377 0
 524 0004 1A60     		str	r2, [r3]
 378:Generated_Source\PSoC4/isr_bbi2c.c **** 
 525              		.loc 1 378 0
 526 0006 7047     		bx	lr
 527              	.L36:
 528              		.align	2
 529              	.L35:
 530 0008 00E200E0 		.word	-536813056
 531              		.cfi_endproc
 532              	.LFE12:
 533              		.size	isr_bbi2c_SetPending, .-isr_bbi2c_SetPending
 534              		.section	.text.isr_bbi2c_ClearPending,"ax",%progbits
 535              		.align	2
 536              		.global	isr_bbi2c_ClearPending
 537              		.code	16
 538              		.thumb_func
 539              		.type	isr_bbi2c_ClearPending, %function
 540              	isr_bbi2c_ClearPending:
 541              	.LFB13:
 401:Generated_Source\PSoC4/isr_bbi2c.c ****     *isr_bbi2c_INTC_CLR_PD = isr_bbi2c__INTC_MASK;
 542              		.loc 1 401 0
 543              		.cfi_startproc
 544              		@ args = 0, pretend = 0, frame = 0
 545              		@ frame_needed = 0, uses_anonymous_args = 0
 546              		@ link register save eliminated.
 547              		.loc 1 402 0
ARM GAS  C:\Users\ilya\AppData\Local\Temp\ccDzWwB9.s 			page 19


 548 0000 0122     		movs	r2, #1
 549 0002 014B     		ldr	r3, .L38
 403:Generated_Source\PSoC4/isr_bbi2c.c **** }
 550              		.loc 1 403 0
 551              		@ sp needed
 402:Generated_Source\PSoC4/isr_bbi2c.c **** }
 552              		.loc 1 402 0
 553 0004 1A60     		str	r2, [r3]
 554              		.loc 1 403 0
 555 0006 7047     		bx	lr
 556              	.L39:
 557              		.align	2
 558              	.L38:
 559 0008 80E200E0 		.word	-536812928
 560              		.cfi_endproc
 561              	.LFE13:
 562              		.size	isr_bbi2c_ClearPending, .-isr_bbi2c_ClearPending
 563              		.text
 564              	.Letext0:
 565              		.file 2 "Generated_Source\\PSoC4/cytypes.h"
 566              		.file 3 "Generated_Source\\PSoC4/CyLib.h"