ARM GAS  C:\Users\ilya\AppData\Local\Temp\cc391SdI.s 			page 1


   1              		.syntax unified
   2              		.cpu cortex-m0
   3              		.fpu softvfp
   4              		.eabi_attribute 20, 1
   5              		.eabi_attribute 21, 1
   6              		.eabi_attribute 23, 3
   7              		.eabi_attribute 24, 1
   8              		.eabi_attribute 25, 1
   9              		.eabi_attribute 26, 1
  10              		.eabi_attribute 30, 2
  11              		.eabi_attribute 34, 0
  12              		.eabi_attribute 18, 4
  13              		.thumb
  14              		.syntax unified
  15              		.file	"PWM_CHARGE.c"
  16              		.text
  17              	.Ltext0:
  18              		.cfi_sections	.debug_frame
  19              		.section	.text.PWM_CHARGE_Init,"ax",%progbits
  20              		.align	2
  21              		.global	PWM_CHARGE_Init
  22              		.code	16
  23              		.thumb_func
  24              		.type	PWM_CHARGE_Init, %function
  25              	PWM_CHARGE_Init:
  26              	.LFB1:
  27              		.file 1 "Generated_Source\\PSoC4\\PWM_CHARGE.c"
   1:Generated_Source\PSoC4/PWM_CHARGE.c **** /*******************************************************************************
   2:Generated_Source\PSoC4/PWM_CHARGE.c **** * File Name: PWM_CHARGE.c
   3:Generated_Source\PSoC4/PWM_CHARGE.c **** * Version 2.10
   4:Generated_Source\PSoC4/PWM_CHARGE.c **** *
   5:Generated_Source\PSoC4/PWM_CHARGE.c **** * Description:
   6:Generated_Source\PSoC4/PWM_CHARGE.c **** *  This file provides the source code to the API for the PWM_CHARGE
   7:Generated_Source\PSoC4/PWM_CHARGE.c **** *  component
   8:Generated_Source\PSoC4/PWM_CHARGE.c **** *
   9:Generated_Source\PSoC4/PWM_CHARGE.c **** * Note:
  10:Generated_Source\PSoC4/PWM_CHARGE.c **** *  None
  11:Generated_Source\PSoC4/PWM_CHARGE.c **** *
  12:Generated_Source\PSoC4/PWM_CHARGE.c **** ********************************************************************************
  13:Generated_Source\PSoC4/PWM_CHARGE.c **** * Copyright 2013-2015, Cypress Semiconductor Corporation.  All rights reserved.
  14:Generated_Source\PSoC4/PWM_CHARGE.c **** * You may use this file only in accordance with the license, terms, conditions,
  15:Generated_Source\PSoC4/PWM_CHARGE.c **** * disclaimers, and limitations in the end user license agreement accompanying
  16:Generated_Source\PSoC4/PWM_CHARGE.c **** * the software package with which this file was provided.
  17:Generated_Source\PSoC4/PWM_CHARGE.c **** *******************************************************************************/
  18:Generated_Source\PSoC4/PWM_CHARGE.c **** 
  19:Generated_Source\PSoC4/PWM_CHARGE.c **** #include "PWM_CHARGE.h"
  20:Generated_Source\PSoC4/PWM_CHARGE.c **** 
  21:Generated_Source\PSoC4/PWM_CHARGE.c **** uint8 PWM_CHARGE_initVar = 0u;
  22:Generated_Source\PSoC4/PWM_CHARGE.c **** 
  23:Generated_Source\PSoC4/PWM_CHARGE.c **** 
  24:Generated_Source\PSoC4/PWM_CHARGE.c **** /*******************************************************************************
  25:Generated_Source\PSoC4/PWM_CHARGE.c **** * Function Name: PWM_CHARGE_Init
  26:Generated_Source\PSoC4/PWM_CHARGE.c **** ********************************************************************************
  27:Generated_Source\PSoC4/PWM_CHARGE.c **** *
  28:Generated_Source\PSoC4/PWM_CHARGE.c **** * Summary:
  29:Generated_Source\PSoC4/PWM_CHARGE.c **** *  Initialize/Restore default PWM_CHARGE configuration.
  30:Generated_Source\PSoC4/PWM_CHARGE.c **** *
ARM GAS  C:\Users\ilya\AppData\Local\Temp\cc391SdI.s 			page 2


  31:Generated_Source\PSoC4/PWM_CHARGE.c **** * Parameters:
  32:Generated_Source\PSoC4/PWM_CHARGE.c **** *  None
  33:Generated_Source\PSoC4/PWM_CHARGE.c **** *
  34:Generated_Source\PSoC4/PWM_CHARGE.c **** * Return:
  35:Generated_Source\PSoC4/PWM_CHARGE.c **** *  None
  36:Generated_Source\PSoC4/PWM_CHARGE.c **** *
  37:Generated_Source\PSoC4/PWM_CHARGE.c **** *******************************************************************************/
  38:Generated_Source\PSoC4/PWM_CHARGE.c **** void PWM_CHARGE_Init(void)
  39:Generated_Source\PSoC4/PWM_CHARGE.c **** {
  28              		.loc 1 39 0
  29              		.cfi_startproc
  30              		@ args = 0, pretend = 0, frame = 0
  31              		@ frame_needed = 0, uses_anonymous_args = 0
  32              		@ link register save eliminated.
  40:Generated_Source\PSoC4/PWM_CHARGE.c **** 
  41:Generated_Source\PSoC4/PWM_CHARGE.c ****     /* Set values from customizer to CTRL */
  42:Generated_Source\PSoC4/PWM_CHARGE.c ****     #if (PWM_CHARGE__QUAD == PWM_CHARGE_CONFIG)
  43:Generated_Source\PSoC4/PWM_CHARGE.c ****         PWM_CHARGE_CONTROL_REG = PWM_CHARGE_CTRL_QUAD_BASE_CONFIG;
  44:Generated_Source\PSoC4/PWM_CHARGE.c ****         
  45:Generated_Source\PSoC4/PWM_CHARGE.c ****         /* Set values from customizer to CTRL1 */
  46:Generated_Source\PSoC4/PWM_CHARGE.c ****         PWM_CHARGE_TRIG_CONTROL1_REG  = PWM_CHARGE_QUAD_SIGNALS_MODES;
  47:Generated_Source\PSoC4/PWM_CHARGE.c **** 
  48:Generated_Source\PSoC4/PWM_CHARGE.c ****         /* Set values from customizer to INTR */
  49:Generated_Source\PSoC4/PWM_CHARGE.c ****         PWM_CHARGE_SetInterruptMode(PWM_CHARGE_QUAD_INTERRUPT_MASK);
  50:Generated_Source\PSoC4/PWM_CHARGE.c ****         
  51:Generated_Source\PSoC4/PWM_CHARGE.c ****          /* Set other values */
  52:Generated_Source\PSoC4/PWM_CHARGE.c ****         PWM_CHARGE_SetCounterMode(PWM_CHARGE_COUNT_DOWN);
  53:Generated_Source\PSoC4/PWM_CHARGE.c ****         PWM_CHARGE_WritePeriod(PWM_CHARGE_QUAD_PERIOD_INIT_VALUE);
  54:Generated_Source\PSoC4/PWM_CHARGE.c ****         PWM_CHARGE_WriteCounter(PWM_CHARGE_QUAD_PERIOD_INIT_VALUE);
  55:Generated_Source\PSoC4/PWM_CHARGE.c ****     #endif  /* (PWM_CHARGE__QUAD == PWM_CHARGE_CONFIG) */
  56:Generated_Source\PSoC4/PWM_CHARGE.c **** 
  57:Generated_Source\PSoC4/PWM_CHARGE.c ****     #if (PWM_CHARGE__TIMER == PWM_CHARGE_CONFIG)
  58:Generated_Source\PSoC4/PWM_CHARGE.c ****         PWM_CHARGE_CONTROL_REG = PWM_CHARGE_CTRL_TIMER_BASE_CONFIG;
  59:Generated_Source\PSoC4/PWM_CHARGE.c ****         
  60:Generated_Source\PSoC4/PWM_CHARGE.c ****         /* Set values from customizer to CTRL1 */
  61:Generated_Source\PSoC4/PWM_CHARGE.c ****         PWM_CHARGE_TRIG_CONTROL1_REG  = PWM_CHARGE_TIMER_SIGNALS_MODES;
  62:Generated_Source\PSoC4/PWM_CHARGE.c ****     
  63:Generated_Source\PSoC4/PWM_CHARGE.c ****         /* Set values from customizer to INTR */
  64:Generated_Source\PSoC4/PWM_CHARGE.c ****         PWM_CHARGE_SetInterruptMode(PWM_CHARGE_TC_INTERRUPT_MASK);
  65:Generated_Source\PSoC4/PWM_CHARGE.c ****         
  66:Generated_Source\PSoC4/PWM_CHARGE.c ****         /* Set other values from customizer */
  67:Generated_Source\PSoC4/PWM_CHARGE.c ****         PWM_CHARGE_WritePeriod(PWM_CHARGE_TC_PERIOD_VALUE );
  68:Generated_Source\PSoC4/PWM_CHARGE.c **** 
  69:Generated_Source\PSoC4/PWM_CHARGE.c ****         #if (PWM_CHARGE__COMPARE == PWM_CHARGE_TC_COMP_CAP_MODE)
  70:Generated_Source\PSoC4/PWM_CHARGE.c ****             PWM_CHARGE_WriteCompare(PWM_CHARGE_TC_COMPARE_VALUE);
  71:Generated_Source\PSoC4/PWM_CHARGE.c **** 
  72:Generated_Source\PSoC4/PWM_CHARGE.c ****             #if (1u == PWM_CHARGE_TC_COMPARE_SWAP)
  73:Generated_Source\PSoC4/PWM_CHARGE.c ****                 PWM_CHARGE_SetCompareSwap(1u);
  74:Generated_Source\PSoC4/PWM_CHARGE.c ****                 PWM_CHARGE_WriteCompareBuf(PWM_CHARGE_TC_COMPARE_BUF_VALUE);
  75:Generated_Source\PSoC4/PWM_CHARGE.c ****             #endif  /* (1u == PWM_CHARGE_TC_COMPARE_SWAP) */
  76:Generated_Source\PSoC4/PWM_CHARGE.c ****         #endif  /* (PWM_CHARGE__COMPARE == PWM_CHARGE_TC_COMP_CAP_MODE) */
  77:Generated_Source\PSoC4/PWM_CHARGE.c **** 
  78:Generated_Source\PSoC4/PWM_CHARGE.c ****         /* Initialize counter value */
  79:Generated_Source\PSoC4/PWM_CHARGE.c ****         #if (PWM_CHARGE_CY_TCPWM_V2 && PWM_CHARGE_TIMER_UPDOWN_CNT_USED && !PWM_CHARGE_CY_TCPWM_400
  80:Generated_Source\PSoC4/PWM_CHARGE.c ****             PWM_CHARGE_WriteCounter(1u);
  81:Generated_Source\PSoC4/PWM_CHARGE.c ****         #elif(PWM_CHARGE__COUNT_DOWN == PWM_CHARGE_TC_COUNTER_MODE)
  82:Generated_Source\PSoC4/PWM_CHARGE.c ****             PWM_CHARGE_WriteCounter(PWM_CHARGE_TC_PERIOD_VALUE);
ARM GAS  C:\Users\ilya\AppData\Local\Temp\cc391SdI.s 			page 3


  83:Generated_Source\PSoC4/PWM_CHARGE.c ****         #else
  84:Generated_Source\PSoC4/PWM_CHARGE.c ****             PWM_CHARGE_WriteCounter(0u);
  85:Generated_Source\PSoC4/PWM_CHARGE.c ****         #endif /* (PWM_CHARGE_CY_TCPWM_V2 && PWM_CHARGE_TIMER_UPDOWN_CNT_USED && !PWM_CHARGE_CY_TCP
  86:Generated_Source\PSoC4/PWM_CHARGE.c ****     #endif  /* (PWM_CHARGE__TIMER == PWM_CHARGE_CONFIG) */
  87:Generated_Source\PSoC4/PWM_CHARGE.c **** 
  88:Generated_Source\PSoC4/PWM_CHARGE.c ****     #if (PWM_CHARGE__PWM_SEL == PWM_CHARGE_CONFIG)
  89:Generated_Source\PSoC4/PWM_CHARGE.c ****         PWM_CHARGE_CONTROL_REG = PWM_CHARGE_CTRL_PWM_BASE_CONFIG;
  33              		.loc 1 89 0
  34 0000 8022     		movs	r2, #128
  35              	.LBB22:
  36              	.LBB23:
  90:Generated_Source\PSoC4/PWM_CHARGE.c **** 
  91:Generated_Source\PSoC4/PWM_CHARGE.c ****         #if (PWM_CHARGE__PWM_PR == PWM_CHARGE_PWM_MODE)
  92:Generated_Source\PSoC4/PWM_CHARGE.c ****             PWM_CHARGE_CONTROL_REG |= PWM_CHARGE_CTRL_PWM_RUN_MODE;
  93:Generated_Source\PSoC4/PWM_CHARGE.c ****             PWM_CHARGE_WriteCounter(PWM_CHARGE_PWM_PR_INIT_VALUE);
  94:Generated_Source\PSoC4/PWM_CHARGE.c ****         #else
  95:Generated_Source\PSoC4/PWM_CHARGE.c ****             PWM_CHARGE_CONTROL_REG |= PWM_CHARGE_CTRL_PWM_ALIGN | PWM_CHARGE_CTRL_PWM_KILL_EVENT;
  96:Generated_Source\PSoC4/PWM_CHARGE.c ****             
  97:Generated_Source\PSoC4/PWM_CHARGE.c ****             /* Initialize counter value */
  98:Generated_Source\PSoC4/PWM_CHARGE.c ****             #if (PWM_CHARGE_CY_TCPWM_V2 && PWM_CHARGE_PWM_UPDOWN_CNT_USED && !PWM_CHARGE_CY_TCPWM_4
  99:Generated_Source\PSoC4/PWM_CHARGE.c ****                 PWM_CHARGE_WriteCounter(1u);
 100:Generated_Source\PSoC4/PWM_CHARGE.c ****             #elif (PWM_CHARGE__RIGHT == PWM_CHARGE_PWM_ALIGN)
 101:Generated_Source\PSoC4/PWM_CHARGE.c ****                 PWM_CHARGE_WriteCounter(PWM_CHARGE_PWM_PERIOD_VALUE);
 102:Generated_Source\PSoC4/PWM_CHARGE.c ****             #else 
 103:Generated_Source\PSoC4/PWM_CHARGE.c ****                 PWM_CHARGE_WriteCounter(0u);
 104:Generated_Source\PSoC4/PWM_CHARGE.c ****             #endif  /* (PWM_CHARGE_CY_TCPWM_V2 && PWM_CHARGE_PWM_UPDOWN_CNT_USED && !PWM_CHARGE_CY_
 105:Generated_Source\PSoC4/PWM_CHARGE.c ****         #endif  /* (PWM_CHARGE__PWM_PR == PWM_CHARGE_PWM_MODE) */
 106:Generated_Source\PSoC4/PWM_CHARGE.c **** 
 107:Generated_Source\PSoC4/PWM_CHARGE.c ****         #if (PWM_CHARGE__PWM_DT == PWM_CHARGE_PWM_MODE)
 108:Generated_Source\PSoC4/PWM_CHARGE.c ****             PWM_CHARGE_CONTROL_REG |= PWM_CHARGE_CTRL_PWM_DEAD_TIME_CYCLE;
 109:Generated_Source\PSoC4/PWM_CHARGE.c ****         #endif  /* (PWM_CHARGE__PWM_DT == PWM_CHARGE_PWM_MODE) */
 110:Generated_Source\PSoC4/PWM_CHARGE.c **** 
 111:Generated_Source\PSoC4/PWM_CHARGE.c ****         #if (PWM_CHARGE__PWM == PWM_CHARGE_PWM_MODE)
 112:Generated_Source\PSoC4/PWM_CHARGE.c ****             PWM_CHARGE_CONTROL_REG |= PWM_CHARGE_CTRL_PWM_PRESCALER;
 113:Generated_Source\PSoC4/PWM_CHARGE.c ****         #endif  /* (PWM_CHARGE__PWM == PWM_CHARGE_PWM_MODE) */
 114:Generated_Source\PSoC4/PWM_CHARGE.c **** 
 115:Generated_Source\PSoC4/PWM_CHARGE.c ****         /* Set values from customizer to CTRL1 */
 116:Generated_Source\PSoC4/PWM_CHARGE.c ****         PWM_CHARGE_TRIG_CONTROL1_REG  = PWM_CHARGE_PWM_SIGNALS_MODES;
 117:Generated_Source\PSoC4/PWM_CHARGE.c ****     
 118:Generated_Source\PSoC4/PWM_CHARGE.c ****         /* Set values from customizer to INTR */
 119:Generated_Source\PSoC4/PWM_CHARGE.c ****         PWM_CHARGE_SetInterruptMode(PWM_CHARGE_PWM_INTERRUPT_MASK);
 120:Generated_Source\PSoC4/PWM_CHARGE.c **** 
 121:Generated_Source\PSoC4/PWM_CHARGE.c ****         /* Set values from customizer to CTRL2 */
 122:Generated_Source\PSoC4/PWM_CHARGE.c ****         #if (PWM_CHARGE__PWM_PR == PWM_CHARGE_PWM_MODE)
 123:Generated_Source\PSoC4/PWM_CHARGE.c ****             PWM_CHARGE_TRIG_CONTROL2_REG =
 124:Generated_Source\PSoC4/PWM_CHARGE.c ****                     (PWM_CHARGE_CC_MATCH_NO_CHANGE    |
 125:Generated_Source\PSoC4/PWM_CHARGE.c ****                     PWM_CHARGE_OVERLOW_NO_CHANGE      |
 126:Generated_Source\PSoC4/PWM_CHARGE.c ****                     PWM_CHARGE_UNDERFLOW_NO_CHANGE);
 127:Generated_Source\PSoC4/PWM_CHARGE.c ****         #else
 128:Generated_Source\PSoC4/PWM_CHARGE.c ****             #if (PWM_CHARGE__LEFT == PWM_CHARGE_PWM_ALIGN)
 129:Generated_Source\PSoC4/PWM_CHARGE.c ****                 PWM_CHARGE_TRIG_CONTROL2_REG = PWM_CHARGE_PWM_MODE_LEFT;
 130:Generated_Source\PSoC4/PWM_CHARGE.c ****             #endif  /* ( PWM_CHARGE_PWM_LEFT == PWM_CHARGE_PWM_ALIGN) */
 131:Generated_Source\PSoC4/PWM_CHARGE.c **** 
 132:Generated_Source\PSoC4/PWM_CHARGE.c ****             #if (PWM_CHARGE__RIGHT == PWM_CHARGE_PWM_ALIGN)
 133:Generated_Source\PSoC4/PWM_CHARGE.c ****                 PWM_CHARGE_TRIG_CONTROL2_REG = PWM_CHARGE_PWM_MODE_RIGHT;
 134:Generated_Source\PSoC4/PWM_CHARGE.c ****             #endif  /* ( PWM_CHARGE_PWM_RIGHT == PWM_CHARGE_PWM_ALIGN) */
 135:Generated_Source\PSoC4/PWM_CHARGE.c **** 
ARM GAS  C:\Users\ilya\AppData\Local\Temp\cc391SdI.s 			page 4


 136:Generated_Source\PSoC4/PWM_CHARGE.c ****             #if (PWM_CHARGE__CENTER == PWM_CHARGE_PWM_ALIGN)
 137:Generated_Source\PSoC4/PWM_CHARGE.c ****                 PWM_CHARGE_TRIG_CONTROL2_REG = PWM_CHARGE_PWM_MODE_CENTER;
 138:Generated_Source\PSoC4/PWM_CHARGE.c ****             #endif  /* ( PWM_CHARGE_PWM_CENTER == PWM_CHARGE_PWM_ALIGN) */
 139:Generated_Source\PSoC4/PWM_CHARGE.c **** 
 140:Generated_Source\PSoC4/PWM_CHARGE.c ****             #if (PWM_CHARGE__ASYMMETRIC == PWM_CHARGE_PWM_ALIGN)
 141:Generated_Source\PSoC4/PWM_CHARGE.c ****                 PWM_CHARGE_TRIG_CONTROL2_REG = PWM_CHARGE_PWM_MODE_ASYM;
 142:Generated_Source\PSoC4/PWM_CHARGE.c ****             #endif  /* (PWM_CHARGE__ASYMMETRIC == PWM_CHARGE_PWM_ALIGN) */
 143:Generated_Source\PSoC4/PWM_CHARGE.c ****         #endif  /* (PWM_CHARGE__PWM_PR == PWM_CHARGE_PWM_MODE) */
 144:Generated_Source\PSoC4/PWM_CHARGE.c **** 
 145:Generated_Source\PSoC4/PWM_CHARGE.c ****         /* Set other values from customizer */
 146:Generated_Source\PSoC4/PWM_CHARGE.c ****         PWM_CHARGE_WritePeriod(PWM_CHARGE_PWM_PERIOD_VALUE );
 147:Generated_Source\PSoC4/PWM_CHARGE.c ****         PWM_CHARGE_WriteCompare(PWM_CHARGE_PWM_COMPARE_VALUE);
 148:Generated_Source\PSoC4/PWM_CHARGE.c **** 
 149:Generated_Source\PSoC4/PWM_CHARGE.c ****         #if (1u == PWM_CHARGE_PWM_COMPARE_SWAP)
 150:Generated_Source\PSoC4/PWM_CHARGE.c ****             PWM_CHARGE_SetCompareSwap(1u);
 151:Generated_Source\PSoC4/PWM_CHARGE.c ****             PWM_CHARGE_WriteCompareBuf(PWM_CHARGE_PWM_COMPARE_BUF_VALUE);
 152:Generated_Source\PSoC4/PWM_CHARGE.c ****         #endif  /* (1u == PWM_CHARGE_PWM_COMPARE_SWAP) */
 153:Generated_Source\PSoC4/PWM_CHARGE.c **** 
 154:Generated_Source\PSoC4/PWM_CHARGE.c ****         #if (1u == PWM_CHARGE_PWM_PERIOD_SWAP)
 155:Generated_Source\PSoC4/PWM_CHARGE.c ****             PWM_CHARGE_SetPeriodSwap(1u);
 156:Generated_Source\PSoC4/PWM_CHARGE.c ****             PWM_CHARGE_WritePeriodBuf(PWM_CHARGE_PWM_PERIOD_BUF_VALUE);
 157:Generated_Source\PSoC4/PWM_CHARGE.c ****         #endif  /* (1u == PWM_CHARGE_PWM_PERIOD_SWAP) */
 158:Generated_Source\PSoC4/PWM_CHARGE.c ****     #endif  /* (PWM_CHARGE__PWM_SEL == PWM_CHARGE_CONFIG) */
 159:Generated_Source\PSoC4/PWM_CHARGE.c ****     
 160:Generated_Source\PSoC4/PWM_CHARGE.c **** }
 161:Generated_Source\PSoC4/PWM_CHARGE.c **** 
 162:Generated_Source\PSoC4/PWM_CHARGE.c **** 
 163:Generated_Source\PSoC4/PWM_CHARGE.c **** /*******************************************************************************
 164:Generated_Source\PSoC4/PWM_CHARGE.c **** * Function Name: PWM_CHARGE_Enable
 165:Generated_Source\PSoC4/PWM_CHARGE.c **** ********************************************************************************
 166:Generated_Source\PSoC4/PWM_CHARGE.c **** *
 167:Generated_Source\PSoC4/PWM_CHARGE.c **** * Summary:
 168:Generated_Source\PSoC4/PWM_CHARGE.c **** *  Enables the PWM_CHARGE.
 169:Generated_Source\PSoC4/PWM_CHARGE.c **** *
 170:Generated_Source\PSoC4/PWM_CHARGE.c **** * Parameters:
 171:Generated_Source\PSoC4/PWM_CHARGE.c **** *  None
 172:Generated_Source\PSoC4/PWM_CHARGE.c **** *
 173:Generated_Source\PSoC4/PWM_CHARGE.c **** * Return:
 174:Generated_Source\PSoC4/PWM_CHARGE.c **** *  None
 175:Generated_Source\PSoC4/PWM_CHARGE.c **** *
 176:Generated_Source\PSoC4/PWM_CHARGE.c **** *******************************************************************************/
 177:Generated_Source\PSoC4/PWM_CHARGE.c **** void PWM_CHARGE_Enable(void)
 178:Generated_Source\PSoC4/PWM_CHARGE.c **** {
 179:Generated_Source\PSoC4/PWM_CHARGE.c ****     uint8 enableInterrupts;
 180:Generated_Source\PSoC4/PWM_CHARGE.c **** 
 181:Generated_Source\PSoC4/PWM_CHARGE.c ****     enableInterrupts = CyEnterCriticalSection();
 182:Generated_Source\PSoC4/PWM_CHARGE.c ****     PWM_CHARGE_BLOCK_CONTROL_REG |= PWM_CHARGE_MASK;
 183:Generated_Source\PSoC4/PWM_CHARGE.c ****     CyExitCriticalSection(enableInterrupts);
 184:Generated_Source\PSoC4/PWM_CHARGE.c **** 
 185:Generated_Source\PSoC4/PWM_CHARGE.c ****     /* Start Timer or PWM if start input is absent */
 186:Generated_Source\PSoC4/PWM_CHARGE.c ****     #if (PWM_CHARGE__PWM_SEL == PWM_CHARGE_CONFIG)
 187:Generated_Source\PSoC4/PWM_CHARGE.c ****         #if (0u == PWM_CHARGE_PWM_START_SIGNAL_PRESENT)
 188:Generated_Source\PSoC4/PWM_CHARGE.c ****             PWM_CHARGE_TriggerCommand(PWM_CHARGE_MASK, PWM_CHARGE_CMD_START);
 189:Generated_Source\PSoC4/PWM_CHARGE.c ****         #endif /* (0u == PWM_CHARGE_PWM_START_SIGNAL_PRESENT) */
 190:Generated_Source\PSoC4/PWM_CHARGE.c ****     #endif /* (PWM_CHARGE__PWM_SEL == PWM_CHARGE_CONFIG) */
 191:Generated_Source\PSoC4/PWM_CHARGE.c **** 
 192:Generated_Source\PSoC4/PWM_CHARGE.c ****     #if (PWM_CHARGE__TIMER == PWM_CHARGE_CONFIG)
ARM GAS  C:\Users\ilya\AppData\Local\Temp\cc391SdI.s 			page 5


 193:Generated_Source\PSoC4/PWM_CHARGE.c ****         #if (0u == PWM_CHARGE_TC_START_SIGNAL_PRESENT)
 194:Generated_Source\PSoC4/PWM_CHARGE.c ****             PWM_CHARGE_TriggerCommand(PWM_CHARGE_MASK, PWM_CHARGE_CMD_START);
 195:Generated_Source\PSoC4/PWM_CHARGE.c ****         #endif /* (0u == PWM_CHARGE_TC_START_SIGNAL_PRESENT) */
 196:Generated_Source\PSoC4/PWM_CHARGE.c ****     #endif /* (PWM_CHARGE__TIMER == PWM_CHARGE_CONFIG) */
 197:Generated_Source\PSoC4/PWM_CHARGE.c ****     
 198:Generated_Source\PSoC4/PWM_CHARGE.c ****     #if (PWM_CHARGE__QUAD == PWM_CHARGE_CONFIG)
 199:Generated_Source\PSoC4/PWM_CHARGE.c ****         #if (0u != PWM_CHARGE_QUAD_AUTO_START)
 200:Generated_Source\PSoC4/PWM_CHARGE.c ****             PWM_CHARGE_TriggerCommand(PWM_CHARGE_MASK, PWM_CHARGE_CMD_RELOAD);
 201:Generated_Source\PSoC4/PWM_CHARGE.c ****         #endif /* (0u != PWM_CHARGE_QUAD_AUTO_START) */
 202:Generated_Source\PSoC4/PWM_CHARGE.c ****     #endif  /* (PWM_CHARGE__QUAD == PWM_CHARGE_CONFIG) */
 203:Generated_Source\PSoC4/PWM_CHARGE.c **** }
 204:Generated_Source\PSoC4/PWM_CHARGE.c **** 
 205:Generated_Source\PSoC4/PWM_CHARGE.c **** 
 206:Generated_Source\PSoC4/PWM_CHARGE.c **** /*******************************************************************************
 207:Generated_Source\PSoC4/PWM_CHARGE.c **** * Function Name: PWM_CHARGE_Start
 208:Generated_Source\PSoC4/PWM_CHARGE.c **** ********************************************************************************
 209:Generated_Source\PSoC4/PWM_CHARGE.c **** *
 210:Generated_Source\PSoC4/PWM_CHARGE.c **** * Summary:
 211:Generated_Source\PSoC4/PWM_CHARGE.c **** *  Initializes the PWM_CHARGE with default customizer
 212:Generated_Source\PSoC4/PWM_CHARGE.c **** *  values when called the first time and enables the PWM_CHARGE.
 213:Generated_Source\PSoC4/PWM_CHARGE.c **** *  For subsequent calls the configuration is left unchanged and the component is
 214:Generated_Source\PSoC4/PWM_CHARGE.c **** *  just enabled.
 215:Generated_Source\PSoC4/PWM_CHARGE.c **** *
 216:Generated_Source\PSoC4/PWM_CHARGE.c **** * Parameters:
 217:Generated_Source\PSoC4/PWM_CHARGE.c **** *  None
 218:Generated_Source\PSoC4/PWM_CHARGE.c **** *
 219:Generated_Source\PSoC4/PWM_CHARGE.c **** * Return:
 220:Generated_Source\PSoC4/PWM_CHARGE.c **** *  None
 221:Generated_Source\PSoC4/PWM_CHARGE.c **** *
 222:Generated_Source\PSoC4/PWM_CHARGE.c **** * Global variables:
 223:Generated_Source\PSoC4/PWM_CHARGE.c **** *  PWM_CHARGE_initVar: global variable is used to indicate initial
 224:Generated_Source\PSoC4/PWM_CHARGE.c **** *  configuration of this component.  The variable is initialized to zero and set
 225:Generated_Source\PSoC4/PWM_CHARGE.c **** *  to 1 the first time PWM_CHARGE_Start() is called. This allows
 226:Generated_Source\PSoC4/PWM_CHARGE.c **** *  enabling/disabling a component without re-initialization in all subsequent
 227:Generated_Source\PSoC4/PWM_CHARGE.c **** *  calls to the PWM_CHARGE_Start() routine.
 228:Generated_Source\PSoC4/PWM_CHARGE.c **** *
 229:Generated_Source\PSoC4/PWM_CHARGE.c **** *******************************************************************************/
 230:Generated_Source\PSoC4/PWM_CHARGE.c **** void PWM_CHARGE_Start(void)
 231:Generated_Source\PSoC4/PWM_CHARGE.c **** {
 232:Generated_Source\PSoC4/PWM_CHARGE.c ****     if (0u == PWM_CHARGE_initVar)
 233:Generated_Source\PSoC4/PWM_CHARGE.c ****     {
 234:Generated_Source\PSoC4/PWM_CHARGE.c ****         PWM_CHARGE_Init();
 235:Generated_Source\PSoC4/PWM_CHARGE.c ****         PWM_CHARGE_initVar = 1u;
 236:Generated_Source\PSoC4/PWM_CHARGE.c ****     }
 237:Generated_Source\PSoC4/PWM_CHARGE.c **** 
 238:Generated_Source\PSoC4/PWM_CHARGE.c ****     PWM_CHARGE_Enable();
 239:Generated_Source\PSoC4/PWM_CHARGE.c **** }
 240:Generated_Source\PSoC4/PWM_CHARGE.c **** 
 241:Generated_Source\PSoC4/PWM_CHARGE.c **** 
 242:Generated_Source\PSoC4/PWM_CHARGE.c **** /*******************************************************************************
 243:Generated_Source\PSoC4/PWM_CHARGE.c **** * Function Name: PWM_CHARGE_Stop
 244:Generated_Source\PSoC4/PWM_CHARGE.c **** ********************************************************************************
 245:Generated_Source\PSoC4/PWM_CHARGE.c **** *
 246:Generated_Source\PSoC4/PWM_CHARGE.c **** * Summary:
 247:Generated_Source\PSoC4/PWM_CHARGE.c **** *  Disables the PWM_CHARGE.
 248:Generated_Source\PSoC4/PWM_CHARGE.c **** *
 249:Generated_Source\PSoC4/PWM_CHARGE.c **** * Parameters:
ARM GAS  C:\Users\ilya\AppData\Local\Temp\cc391SdI.s 			page 6


 250:Generated_Source\PSoC4/PWM_CHARGE.c **** *  None
 251:Generated_Source\PSoC4/PWM_CHARGE.c **** *
 252:Generated_Source\PSoC4/PWM_CHARGE.c **** * Return:
 253:Generated_Source\PSoC4/PWM_CHARGE.c **** *  None
 254:Generated_Source\PSoC4/PWM_CHARGE.c **** *
 255:Generated_Source\PSoC4/PWM_CHARGE.c **** *******************************************************************************/
 256:Generated_Source\PSoC4/PWM_CHARGE.c **** void PWM_CHARGE_Stop(void)
 257:Generated_Source\PSoC4/PWM_CHARGE.c **** {
 258:Generated_Source\PSoC4/PWM_CHARGE.c ****     uint8 enableInterrupts;
 259:Generated_Source\PSoC4/PWM_CHARGE.c **** 
 260:Generated_Source\PSoC4/PWM_CHARGE.c ****     enableInterrupts = CyEnterCriticalSection();
 261:Generated_Source\PSoC4/PWM_CHARGE.c **** 
 262:Generated_Source\PSoC4/PWM_CHARGE.c ****     PWM_CHARGE_BLOCK_CONTROL_REG &= (uint32)~PWM_CHARGE_MASK;
 263:Generated_Source\PSoC4/PWM_CHARGE.c **** 
 264:Generated_Source\PSoC4/PWM_CHARGE.c ****     CyExitCriticalSection(enableInterrupts);
 265:Generated_Source\PSoC4/PWM_CHARGE.c **** }
 266:Generated_Source\PSoC4/PWM_CHARGE.c **** 
 267:Generated_Source\PSoC4/PWM_CHARGE.c **** 
 268:Generated_Source\PSoC4/PWM_CHARGE.c **** /*******************************************************************************
 269:Generated_Source\PSoC4/PWM_CHARGE.c **** * Function Name: PWM_CHARGE_SetMode
 270:Generated_Source\PSoC4/PWM_CHARGE.c **** ********************************************************************************
 271:Generated_Source\PSoC4/PWM_CHARGE.c **** *
 272:Generated_Source\PSoC4/PWM_CHARGE.c **** * Summary:
 273:Generated_Source\PSoC4/PWM_CHARGE.c **** *  Sets the operation mode of the PWM_CHARGE. This function is used when
 274:Generated_Source\PSoC4/PWM_CHARGE.c **** *  configured as a generic PWM_CHARGE and the actual mode of operation is
 275:Generated_Source\PSoC4/PWM_CHARGE.c **** *  set at runtime. The mode must be set while the component is disabled.
 276:Generated_Source\PSoC4/PWM_CHARGE.c **** *
 277:Generated_Source\PSoC4/PWM_CHARGE.c **** * Parameters:
 278:Generated_Source\PSoC4/PWM_CHARGE.c **** *  mode: Mode for the PWM_CHARGE to operate in
 279:Generated_Source\PSoC4/PWM_CHARGE.c **** *   Values:
 280:Generated_Source\PSoC4/PWM_CHARGE.c **** *   - PWM_CHARGE_MODE_TIMER_COMPARE - Timer / Counter with
 281:Generated_Source\PSoC4/PWM_CHARGE.c **** *                                                 compare capability
 282:Generated_Source\PSoC4/PWM_CHARGE.c **** *         - PWM_CHARGE_MODE_TIMER_CAPTURE - Timer / Counter with
 283:Generated_Source\PSoC4/PWM_CHARGE.c **** *                                                 capture capability
 284:Generated_Source\PSoC4/PWM_CHARGE.c **** *         - PWM_CHARGE_MODE_QUAD - Quadrature decoder
 285:Generated_Source\PSoC4/PWM_CHARGE.c **** *         - PWM_CHARGE_MODE_PWM - PWM
 286:Generated_Source\PSoC4/PWM_CHARGE.c **** *         - PWM_CHARGE_MODE_PWM_DT - PWM with dead time
 287:Generated_Source\PSoC4/PWM_CHARGE.c **** *         - PWM_CHARGE_MODE_PWM_PR - PWM with pseudo random capability
 288:Generated_Source\PSoC4/PWM_CHARGE.c **** *
 289:Generated_Source\PSoC4/PWM_CHARGE.c **** * Return:
 290:Generated_Source\PSoC4/PWM_CHARGE.c **** *  None
 291:Generated_Source\PSoC4/PWM_CHARGE.c **** *
 292:Generated_Source\PSoC4/PWM_CHARGE.c **** *******************************************************************************/
 293:Generated_Source\PSoC4/PWM_CHARGE.c **** void PWM_CHARGE_SetMode(uint32 mode)
 294:Generated_Source\PSoC4/PWM_CHARGE.c **** {
 295:Generated_Source\PSoC4/PWM_CHARGE.c ****     uint8 enableInterrupts;
 296:Generated_Source\PSoC4/PWM_CHARGE.c **** 
 297:Generated_Source\PSoC4/PWM_CHARGE.c ****     enableInterrupts = CyEnterCriticalSection();
 298:Generated_Source\PSoC4/PWM_CHARGE.c **** 
 299:Generated_Source\PSoC4/PWM_CHARGE.c ****     PWM_CHARGE_CONTROL_REG &= (uint32)~PWM_CHARGE_MODE_MASK;
 300:Generated_Source\PSoC4/PWM_CHARGE.c ****     PWM_CHARGE_CONTROL_REG |= mode;
 301:Generated_Source\PSoC4/PWM_CHARGE.c **** 
 302:Generated_Source\PSoC4/PWM_CHARGE.c ****     CyExitCriticalSection(enableInterrupts);
 303:Generated_Source\PSoC4/PWM_CHARGE.c **** }
 304:Generated_Source\PSoC4/PWM_CHARGE.c **** 
 305:Generated_Source\PSoC4/PWM_CHARGE.c **** 
 306:Generated_Source\PSoC4/PWM_CHARGE.c **** /*******************************************************************************
ARM GAS  C:\Users\ilya\AppData\Local\Temp\cc391SdI.s 			page 7


 307:Generated_Source\PSoC4/PWM_CHARGE.c **** * Function Name: PWM_CHARGE_SetQDMode
 308:Generated_Source\PSoC4/PWM_CHARGE.c **** ********************************************************************************
 309:Generated_Source\PSoC4/PWM_CHARGE.c **** *
 310:Generated_Source\PSoC4/PWM_CHARGE.c **** * Summary:
 311:Generated_Source\PSoC4/PWM_CHARGE.c **** *  Sets the the Quadrature Decoder to one of the 3 supported modes.
 312:Generated_Source\PSoC4/PWM_CHARGE.c **** *  Its functionality is only applicable to Quadrature Decoder operation.
 313:Generated_Source\PSoC4/PWM_CHARGE.c **** *
 314:Generated_Source\PSoC4/PWM_CHARGE.c **** * Parameters:
 315:Generated_Source\PSoC4/PWM_CHARGE.c **** *  qdMode: Quadrature Decoder mode
 316:Generated_Source\PSoC4/PWM_CHARGE.c **** *   Values:
 317:Generated_Source\PSoC4/PWM_CHARGE.c **** *         - PWM_CHARGE_MODE_X1 - Counts on phi 1 rising
 318:Generated_Source\PSoC4/PWM_CHARGE.c **** *         - PWM_CHARGE_MODE_X2 - Counts on both edges of phi1 (2x faster)
 319:Generated_Source\PSoC4/PWM_CHARGE.c **** *         - PWM_CHARGE_MODE_X4 - Counts on both edges of phi1 and phi2
 320:Generated_Source\PSoC4/PWM_CHARGE.c **** *                                        (4x faster)
 321:Generated_Source\PSoC4/PWM_CHARGE.c **** *
 322:Generated_Source\PSoC4/PWM_CHARGE.c **** * Return:
 323:Generated_Source\PSoC4/PWM_CHARGE.c **** *  None
 324:Generated_Source\PSoC4/PWM_CHARGE.c **** *
 325:Generated_Source\PSoC4/PWM_CHARGE.c **** *******************************************************************************/
 326:Generated_Source\PSoC4/PWM_CHARGE.c **** void PWM_CHARGE_SetQDMode(uint32 qdMode)
 327:Generated_Source\PSoC4/PWM_CHARGE.c **** {
 328:Generated_Source\PSoC4/PWM_CHARGE.c ****     uint8 enableInterrupts;
 329:Generated_Source\PSoC4/PWM_CHARGE.c **** 
 330:Generated_Source\PSoC4/PWM_CHARGE.c ****     enableInterrupts = CyEnterCriticalSection();
 331:Generated_Source\PSoC4/PWM_CHARGE.c **** 
 332:Generated_Source\PSoC4/PWM_CHARGE.c ****     PWM_CHARGE_CONTROL_REG &= (uint32)~PWM_CHARGE_QUAD_MODE_MASK;
 333:Generated_Source\PSoC4/PWM_CHARGE.c ****     PWM_CHARGE_CONTROL_REG |= qdMode;
 334:Generated_Source\PSoC4/PWM_CHARGE.c **** 
 335:Generated_Source\PSoC4/PWM_CHARGE.c ****     CyExitCriticalSection(enableInterrupts);
 336:Generated_Source\PSoC4/PWM_CHARGE.c **** }
 337:Generated_Source\PSoC4/PWM_CHARGE.c **** 
 338:Generated_Source\PSoC4/PWM_CHARGE.c **** 
 339:Generated_Source\PSoC4/PWM_CHARGE.c **** /*******************************************************************************
 340:Generated_Source\PSoC4/PWM_CHARGE.c **** * Function Name: PWM_CHARGE_SetPrescaler
 341:Generated_Source\PSoC4/PWM_CHARGE.c **** ********************************************************************************
 342:Generated_Source\PSoC4/PWM_CHARGE.c **** *
 343:Generated_Source\PSoC4/PWM_CHARGE.c **** * Summary:
 344:Generated_Source\PSoC4/PWM_CHARGE.c **** *  Sets the prescaler value that is applied to the clock input.  Not applicable
 345:Generated_Source\PSoC4/PWM_CHARGE.c **** *  to a PWM with the dead time mode or Quadrature Decoder mode.
 346:Generated_Source\PSoC4/PWM_CHARGE.c **** *
 347:Generated_Source\PSoC4/PWM_CHARGE.c **** * Parameters:
 348:Generated_Source\PSoC4/PWM_CHARGE.c **** *  prescaler: Prescaler divider value
 349:Generated_Source\PSoC4/PWM_CHARGE.c **** *   Values:
 350:Generated_Source\PSoC4/PWM_CHARGE.c **** *         - PWM_CHARGE_PRESCALE_DIVBY1    - Divide by 1 (no prescaling)
 351:Generated_Source\PSoC4/PWM_CHARGE.c **** *         - PWM_CHARGE_PRESCALE_DIVBY2    - Divide by 2
 352:Generated_Source\PSoC4/PWM_CHARGE.c **** *         - PWM_CHARGE_PRESCALE_DIVBY4    - Divide by 4
 353:Generated_Source\PSoC4/PWM_CHARGE.c **** *         - PWM_CHARGE_PRESCALE_DIVBY8    - Divide by 8
 354:Generated_Source\PSoC4/PWM_CHARGE.c **** *         - PWM_CHARGE_PRESCALE_DIVBY16   - Divide by 16
 355:Generated_Source\PSoC4/PWM_CHARGE.c **** *         - PWM_CHARGE_PRESCALE_DIVBY32   - Divide by 32
 356:Generated_Source\PSoC4/PWM_CHARGE.c **** *         - PWM_CHARGE_PRESCALE_DIVBY64   - Divide by 64
 357:Generated_Source\PSoC4/PWM_CHARGE.c **** *         - PWM_CHARGE_PRESCALE_DIVBY128  - Divide by 128
 358:Generated_Source\PSoC4/PWM_CHARGE.c **** *
 359:Generated_Source\PSoC4/PWM_CHARGE.c **** * Return:
 360:Generated_Source\PSoC4/PWM_CHARGE.c **** *  None
 361:Generated_Source\PSoC4/PWM_CHARGE.c **** *
 362:Generated_Source\PSoC4/PWM_CHARGE.c **** *******************************************************************************/
 363:Generated_Source\PSoC4/PWM_CHARGE.c **** void PWM_CHARGE_SetPrescaler(uint32 prescaler)
ARM GAS  C:\Users\ilya\AppData\Local\Temp\cc391SdI.s 			page 8


 364:Generated_Source\PSoC4/PWM_CHARGE.c **** {
 365:Generated_Source\PSoC4/PWM_CHARGE.c ****     uint8 enableInterrupts;
 366:Generated_Source\PSoC4/PWM_CHARGE.c **** 
 367:Generated_Source\PSoC4/PWM_CHARGE.c ****     enableInterrupts = CyEnterCriticalSection();
 368:Generated_Source\PSoC4/PWM_CHARGE.c **** 
 369:Generated_Source\PSoC4/PWM_CHARGE.c ****     PWM_CHARGE_CONTROL_REG &= (uint32)~PWM_CHARGE_PRESCALER_MASK;
 370:Generated_Source\PSoC4/PWM_CHARGE.c ****     PWM_CHARGE_CONTROL_REG |= prescaler;
 371:Generated_Source\PSoC4/PWM_CHARGE.c **** 
 372:Generated_Source\PSoC4/PWM_CHARGE.c ****     CyExitCriticalSection(enableInterrupts);
 373:Generated_Source\PSoC4/PWM_CHARGE.c **** }
 374:Generated_Source\PSoC4/PWM_CHARGE.c **** 
 375:Generated_Source\PSoC4/PWM_CHARGE.c **** 
 376:Generated_Source\PSoC4/PWM_CHARGE.c **** /*******************************************************************************
 377:Generated_Source\PSoC4/PWM_CHARGE.c **** * Function Name: PWM_CHARGE_SetOneShot
 378:Generated_Source\PSoC4/PWM_CHARGE.c **** ********************************************************************************
 379:Generated_Source\PSoC4/PWM_CHARGE.c **** *
 380:Generated_Source\PSoC4/PWM_CHARGE.c **** * Summary:
 381:Generated_Source\PSoC4/PWM_CHARGE.c **** *  Writes the register that controls whether the PWM_CHARGE runs
 382:Generated_Source\PSoC4/PWM_CHARGE.c **** *  continuously or stops when terminal count is reached.  By default the
 383:Generated_Source\PSoC4/PWM_CHARGE.c **** *  PWM_CHARGE operates in the continuous mode.
 384:Generated_Source\PSoC4/PWM_CHARGE.c **** *
 385:Generated_Source\PSoC4/PWM_CHARGE.c **** * Parameters:
 386:Generated_Source\PSoC4/PWM_CHARGE.c **** *  oneShotEnable
 387:Generated_Source\PSoC4/PWM_CHARGE.c **** *   Values:
 388:Generated_Source\PSoC4/PWM_CHARGE.c **** *     - 0 - Continuous
 389:Generated_Source\PSoC4/PWM_CHARGE.c **** *     - 1 - Enable One Shot
 390:Generated_Source\PSoC4/PWM_CHARGE.c **** *
 391:Generated_Source\PSoC4/PWM_CHARGE.c **** * Return:
 392:Generated_Source\PSoC4/PWM_CHARGE.c **** *  None
 393:Generated_Source\PSoC4/PWM_CHARGE.c **** *
 394:Generated_Source\PSoC4/PWM_CHARGE.c **** *******************************************************************************/
 395:Generated_Source\PSoC4/PWM_CHARGE.c **** void PWM_CHARGE_SetOneShot(uint32 oneShotEnable)
 396:Generated_Source\PSoC4/PWM_CHARGE.c **** {
 397:Generated_Source\PSoC4/PWM_CHARGE.c ****     uint8 enableInterrupts;
 398:Generated_Source\PSoC4/PWM_CHARGE.c **** 
 399:Generated_Source\PSoC4/PWM_CHARGE.c ****     enableInterrupts = CyEnterCriticalSection();
 400:Generated_Source\PSoC4/PWM_CHARGE.c **** 
 401:Generated_Source\PSoC4/PWM_CHARGE.c ****     PWM_CHARGE_CONTROL_REG &= (uint32)~PWM_CHARGE_ONESHOT_MASK;
 402:Generated_Source\PSoC4/PWM_CHARGE.c ****     PWM_CHARGE_CONTROL_REG |= ((uint32)((oneShotEnable & PWM_CHARGE_1BIT_MASK) <<
 403:Generated_Source\PSoC4/PWM_CHARGE.c ****                                                                PWM_CHARGE_ONESHOT_SHIFT));
 404:Generated_Source\PSoC4/PWM_CHARGE.c **** 
 405:Generated_Source\PSoC4/PWM_CHARGE.c ****     CyExitCriticalSection(enableInterrupts);
 406:Generated_Source\PSoC4/PWM_CHARGE.c **** }
 407:Generated_Source\PSoC4/PWM_CHARGE.c **** 
 408:Generated_Source\PSoC4/PWM_CHARGE.c **** 
 409:Generated_Source\PSoC4/PWM_CHARGE.c **** /*******************************************************************************
 410:Generated_Source\PSoC4/PWM_CHARGE.c **** * Function Name: PWM_CHARGE_SetPWMMode
 411:Generated_Source\PSoC4/PWM_CHARGE.c **** ********************************************************************************
 412:Generated_Source\PSoC4/PWM_CHARGE.c **** *
 413:Generated_Source\PSoC4/PWM_CHARGE.c **** * Summary:
 414:Generated_Source\PSoC4/PWM_CHARGE.c **** *  Writes the control register that determines what mode of operation the PWM
 415:Generated_Source\PSoC4/PWM_CHARGE.c **** *  output lines are driven in.  There is a setting for what to do on a
 416:Generated_Source\PSoC4/PWM_CHARGE.c **** *  comparison match (CC_MATCH), on an overflow (OVERFLOW) and on an underflow
 417:Generated_Source\PSoC4/PWM_CHARGE.c **** *  (UNDERFLOW).  The value for each of the three must be ORed together to form
 418:Generated_Source\PSoC4/PWM_CHARGE.c **** *  the mode.
 419:Generated_Source\PSoC4/PWM_CHARGE.c **** *
 420:Generated_Source\PSoC4/PWM_CHARGE.c **** * Parameters:
ARM GAS  C:\Users\ilya\AppData\Local\Temp\cc391SdI.s 			page 9


 421:Generated_Source\PSoC4/PWM_CHARGE.c **** *  modeMask: A combination of three mode settings.  Mask must include a value
 422:Generated_Source\PSoC4/PWM_CHARGE.c **** *  for each of the three or use one of the preconfigured PWM settings.
 423:Generated_Source\PSoC4/PWM_CHARGE.c **** *   Values:
 424:Generated_Source\PSoC4/PWM_CHARGE.c **** *     - CC_MATCH_SET        - Set on comparison match
 425:Generated_Source\PSoC4/PWM_CHARGE.c **** *     - CC_MATCH_CLEAR      - Clear on comparison match
 426:Generated_Source\PSoC4/PWM_CHARGE.c **** *     - CC_MATCH_INVERT     - Invert on comparison match
 427:Generated_Source\PSoC4/PWM_CHARGE.c **** *     - CC_MATCH_NO_CHANGE  - No change on comparison match
 428:Generated_Source\PSoC4/PWM_CHARGE.c **** *     - OVERLOW_SET         - Set on overflow
 429:Generated_Source\PSoC4/PWM_CHARGE.c **** *     - OVERLOW_CLEAR       - Clear on  overflow
 430:Generated_Source\PSoC4/PWM_CHARGE.c **** *     - OVERLOW_INVERT      - Invert on overflow
 431:Generated_Source\PSoC4/PWM_CHARGE.c **** *     - OVERLOW_NO_CHANGE   - No change on overflow
 432:Generated_Source\PSoC4/PWM_CHARGE.c **** *     - UNDERFLOW_SET       - Set on underflow
 433:Generated_Source\PSoC4/PWM_CHARGE.c **** *     - UNDERFLOW_CLEAR     - Clear on underflow
 434:Generated_Source\PSoC4/PWM_CHARGE.c **** *     - UNDERFLOW_INVERT    - Invert on underflow
 435:Generated_Source\PSoC4/PWM_CHARGE.c **** *     - UNDERFLOW_NO_CHANGE - No change on underflow
 436:Generated_Source\PSoC4/PWM_CHARGE.c **** *     - PWM_MODE_LEFT       - Setting for left aligned PWM.  Should be combined
 437:Generated_Source\PSoC4/PWM_CHARGE.c **** *                             with up counting mode
 438:Generated_Source\PSoC4/PWM_CHARGE.c **** *     - PWM_MODE_RIGHT      - Setting for right aligned PWM.  Should be combined
 439:Generated_Source\PSoC4/PWM_CHARGE.c **** *                             with down counting mode
 440:Generated_Source\PSoC4/PWM_CHARGE.c **** *     - PWM_MODE_CENTER     - Setting for center aligned PWM.  Should be
 441:Generated_Source\PSoC4/PWM_CHARGE.c **** *                             combined with up/down 0 mode
 442:Generated_Source\PSoC4/PWM_CHARGE.c **** *     - PWM_MODE_ASYM       - Setting for asymmetric PWM.  Should be combined
 443:Generated_Source\PSoC4/PWM_CHARGE.c **** *                             with up/down 1 mode
 444:Generated_Source\PSoC4/PWM_CHARGE.c **** *
 445:Generated_Source\PSoC4/PWM_CHARGE.c **** * Return:
 446:Generated_Source\PSoC4/PWM_CHARGE.c **** *  None
 447:Generated_Source\PSoC4/PWM_CHARGE.c **** *
 448:Generated_Source\PSoC4/PWM_CHARGE.c **** *******************************************************************************/
 449:Generated_Source\PSoC4/PWM_CHARGE.c **** void PWM_CHARGE_SetPWMMode(uint32 modeMask)
 450:Generated_Source\PSoC4/PWM_CHARGE.c **** {
 451:Generated_Source\PSoC4/PWM_CHARGE.c ****     PWM_CHARGE_TRIG_CONTROL2_REG = (modeMask & PWM_CHARGE_6BIT_MASK);
 452:Generated_Source\PSoC4/PWM_CHARGE.c **** }
 453:Generated_Source\PSoC4/PWM_CHARGE.c **** 
 454:Generated_Source\PSoC4/PWM_CHARGE.c **** 
 455:Generated_Source\PSoC4/PWM_CHARGE.c **** 
 456:Generated_Source\PSoC4/PWM_CHARGE.c **** /*******************************************************************************
 457:Generated_Source\PSoC4/PWM_CHARGE.c **** * Function Name: PWM_CHARGE_SetPWMSyncKill
 458:Generated_Source\PSoC4/PWM_CHARGE.c **** ********************************************************************************
 459:Generated_Source\PSoC4/PWM_CHARGE.c **** *
 460:Generated_Source\PSoC4/PWM_CHARGE.c **** * Summary:
 461:Generated_Source\PSoC4/PWM_CHARGE.c **** *  Writes the register that controls whether the PWM kill signal (stop input)
 462:Generated_Source\PSoC4/PWM_CHARGE.c **** *  causes asynchronous or synchronous kill operation.  By default the kill
 463:Generated_Source\PSoC4/PWM_CHARGE.c **** *  operation is asynchronous.  This functionality is only applicable to the PWM
 464:Generated_Source\PSoC4/PWM_CHARGE.c **** *  and PWM with dead time modes.
 465:Generated_Source\PSoC4/PWM_CHARGE.c **** *
 466:Generated_Source\PSoC4/PWM_CHARGE.c **** *  For Synchronous mode the kill signal disables both the line and line_n
 467:Generated_Source\PSoC4/PWM_CHARGE.c **** *  signals until the next terminal count.
 468:Generated_Source\PSoC4/PWM_CHARGE.c **** *
 469:Generated_Source\PSoC4/PWM_CHARGE.c **** *  For Asynchronous mode the kill signal disables both the line and line_n
 470:Generated_Source\PSoC4/PWM_CHARGE.c **** *  signals when the kill signal is present.  This mode should only be used
 471:Generated_Source\PSoC4/PWM_CHARGE.c **** *  when the kill signal (stop input) is configured in the pass through mode
 472:Generated_Source\PSoC4/PWM_CHARGE.c **** *  (Level sensitive signal).
 473:Generated_Source\PSoC4/PWM_CHARGE.c **** 
 474:Generated_Source\PSoC4/PWM_CHARGE.c **** *
 475:Generated_Source\PSoC4/PWM_CHARGE.c **** * Parameters:
 476:Generated_Source\PSoC4/PWM_CHARGE.c **** *  syncKillEnable
 477:Generated_Source\PSoC4/PWM_CHARGE.c **** *   Values:
ARM GAS  C:\Users\ilya\AppData\Local\Temp\cc391SdI.s 			page 10


 478:Generated_Source\PSoC4/PWM_CHARGE.c **** *     - 0 - Asynchronous
 479:Generated_Source\PSoC4/PWM_CHARGE.c **** *     - 1 - Synchronous
 480:Generated_Source\PSoC4/PWM_CHARGE.c **** *
 481:Generated_Source\PSoC4/PWM_CHARGE.c **** * Return:
 482:Generated_Source\PSoC4/PWM_CHARGE.c **** *  None
 483:Generated_Source\PSoC4/PWM_CHARGE.c **** *
 484:Generated_Source\PSoC4/PWM_CHARGE.c **** *******************************************************************************/
 485:Generated_Source\PSoC4/PWM_CHARGE.c **** void PWM_CHARGE_SetPWMSyncKill(uint32 syncKillEnable)
 486:Generated_Source\PSoC4/PWM_CHARGE.c **** {
 487:Generated_Source\PSoC4/PWM_CHARGE.c ****     uint8 enableInterrupts;
 488:Generated_Source\PSoC4/PWM_CHARGE.c **** 
 489:Generated_Source\PSoC4/PWM_CHARGE.c ****     enableInterrupts = CyEnterCriticalSection();
 490:Generated_Source\PSoC4/PWM_CHARGE.c **** 
 491:Generated_Source\PSoC4/PWM_CHARGE.c ****     PWM_CHARGE_CONTROL_REG &= (uint32)~PWM_CHARGE_PWM_SYNC_KILL_MASK;
 492:Generated_Source\PSoC4/PWM_CHARGE.c ****     PWM_CHARGE_CONTROL_REG |= ((uint32)((syncKillEnable & PWM_CHARGE_1BIT_MASK)  <<
 493:Generated_Source\PSoC4/PWM_CHARGE.c ****                                                PWM_CHARGE_PWM_SYNC_KILL_SHIFT));
 494:Generated_Source\PSoC4/PWM_CHARGE.c **** 
 495:Generated_Source\PSoC4/PWM_CHARGE.c ****     CyExitCriticalSection(enableInterrupts);
 496:Generated_Source\PSoC4/PWM_CHARGE.c **** }
 497:Generated_Source\PSoC4/PWM_CHARGE.c **** 
 498:Generated_Source\PSoC4/PWM_CHARGE.c **** 
 499:Generated_Source\PSoC4/PWM_CHARGE.c **** /*******************************************************************************
 500:Generated_Source\PSoC4/PWM_CHARGE.c **** * Function Name: PWM_CHARGE_SetPWMStopOnKill
 501:Generated_Source\PSoC4/PWM_CHARGE.c **** ********************************************************************************
 502:Generated_Source\PSoC4/PWM_CHARGE.c **** *
 503:Generated_Source\PSoC4/PWM_CHARGE.c **** * Summary:
 504:Generated_Source\PSoC4/PWM_CHARGE.c **** *  Writes the register that controls whether the PWM kill signal (stop input)
 505:Generated_Source\PSoC4/PWM_CHARGE.c **** *  causes the PWM counter to stop.  By default the kill operation does not stop
 506:Generated_Source\PSoC4/PWM_CHARGE.c **** *  the counter.  This functionality is only applicable to the three PWM modes.
 507:Generated_Source\PSoC4/PWM_CHARGE.c **** *
 508:Generated_Source\PSoC4/PWM_CHARGE.c **** *
 509:Generated_Source\PSoC4/PWM_CHARGE.c **** * Parameters:
 510:Generated_Source\PSoC4/PWM_CHARGE.c **** *  stopOnKillEnable
 511:Generated_Source\PSoC4/PWM_CHARGE.c **** *   Values:
 512:Generated_Source\PSoC4/PWM_CHARGE.c **** *     - 0 - Don't stop
 513:Generated_Source\PSoC4/PWM_CHARGE.c **** *     - 1 - Stop
 514:Generated_Source\PSoC4/PWM_CHARGE.c **** *
 515:Generated_Source\PSoC4/PWM_CHARGE.c **** * Return:
 516:Generated_Source\PSoC4/PWM_CHARGE.c **** *  None
 517:Generated_Source\PSoC4/PWM_CHARGE.c **** *
 518:Generated_Source\PSoC4/PWM_CHARGE.c **** *******************************************************************************/
 519:Generated_Source\PSoC4/PWM_CHARGE.c **** void PWM_CHARGE_SetPWMStopOnKill(uint32 stopOnKillEnable)
 520:Generated_Source\PSoC4/PWM_CHARGE.c **** {
 521:Generated_Source\PSoC4/PWM_CHARGE.c ****     uint8 enableInterrupts;
 522:Generated_Source\PSoC4/PWM_CHARGE.c **** 
 523:Generated_Source\PSoC4/PWM_CHARGE.c ****     enableInterrupts = CyEnterCriticalSection();
 524:Generated_Source\PSoC4/PWM_CHARGE.c **** 
 525:Generated_Source\PSoC4/PWM_CHARGE.c ****     PWM_CHARGE_CONTROL_REG &= (uint32)~PWM_CHARGE_PWM_STOP_KILL_MASK;
 526:Generated_Source\PSoC4/PWM_CHARGE.c ****     PWM_CHARGE_CONTROL_REG |= ((uint32)((stopOnKillEnable & PWM_CHARGE_1BIT_MASK)  <<
 527:Generated_Source\PSoC4/PWM_CHARGE.c ****                                                          PWM_CHARGE_PWM_STOP_KILL_SHIFT));
 528:Generated_Source\PSoC4/PWM_CHARGE.c **** 
 529:Generated_Source\PSoC4/PWM_CHARGE.c ****     CyExitCriticalSection(enableInterrupts);
 530:Generated_Source\PSoC4/PWM_CHARGE.c **** }
 531:Generated_Source\PSoC4/PWM_CHARGE.c **** 
 532:Generated_Source\PSoC4/PWM_CHARGE.c **** 
 533:Generated_Source\PSoC4/PWM_CHARGE.c **** /*******************************************************************************
 534:Generated_Source\PSoC4/PWM_CHARGE.c **** * Function Name: PWM_CHARGE_SetPWMDeadTime
ARM GAS  C:\Users\ilya\AppData\Local\Temp\cc391SdI.s 			page 11


 535:Generated_Source\PSoC4/PWM_CHARGE.c **** ********************************************************************************
 536:Generated_Source\PSoC4/PWM_CHARGE.c **** *
 537:Generated_Source\PSoC4/PWM_CHARGE.c **** * Summary:
 538:Generated_Source\PSoC4/PWM_CHARGE.c **** *  Writes the dead time control value.  This value delays the rising edge of
 539:Generated_Source\PSoC4/PWM_CHARGE.c **** *  both the line and line_n signals the designated number of cycles resulting
 540:Generated_Source\PSoC4/PWM_CHARGE.c **** *  in both signals being inactive for that many cycles.  This functionality is
 541:Generated_Source\PSoC4/PWM_CHARGE.c **** *  only applicable to the PWM in the dead time mode.
 542:Generated_Source\PSoC4/PWM_CHARGE.c **** 
 543:Generated_Source\PSoC4/PWM_CHARGE.c **** *
 544:Generated_Source\PSoC4/PWM_CHARGE.c **** * Parameters:
 545:Generated_Source\PSoC4/PWM_CHARGE.c **** *  Dead time to insert
 546:Generated_Source\PSoC4/PWM_CHARGE.c **** *   Values: 0 to 255
 547:Generated_Source\PSoC4/PWM_CHARGE.c **** *
 548:Generated_Source\PSoC4/PWM_CHARGE.c **** * Return:
 549:Generated_Source\PSoC4/PWM_CHARGE.c **** *  None
 550:Generated_Source\PSoC4/PWM_CHARGE.c **** *
 551:Generated_Source\PSoC4/PWM_CHARGE.c **** *******************************************************************************/
 552:Generated_Source\PSoC4/PWM_CHARGE.c **** void PWM_CHARGE_SetPWMDeadTime(uint32 deadTime)
 553:Generated_Source\PSoC4/PWM_CHARGE.c **** {
 554:Generated_Source\PSoC4/PWM_CHARGE.c ****     uint8 enableInterrupts;
 555:Generated_Source\PSoC4/PWM_CHARGE.c **** 
 556:Generated_Source\PSoC4/PWM_CHARGE.c ****     enableInterrupts = CyEnterCriticalSection();
 557:Generated_Source\PSoC4/PWM_CHARGE.c **** 
 558:Generated_Source\PSoC4/PWM_CHARGE.c ****     PWM_CHARGE_CONTROL_REG &= (uint32)~PWM_CHARGE_PRESCALER_MASK;
 559:Generated_Source\PSoC4/PWM_CHARGE.c ****     PWM_CHARGE_CONTROL_REG |= ((uint32)((deadTime & PWM_CHARGE_8BIT_MASK) <<
 560:Generated_Source\PSoC4/PWM_CHARGE.c ****                                                           PWM_CHARGE_PRESCALER_SHIFT));
 561:Generated_Source\PSoC4/PWM_CHARGE.c **** 
 562:Generated_Source\PSoC4/PWM_CHARGE.c ****     CyExitCriticalSection(enableInterrupts);
 563:Generated_Source\PSoC4/PWM_CHARGE.c **** }
 564:Generated_Source\PSoC4/PWM_CHARGE.c **** 
 565:Generated_Source\PSoC4/PWM_CHARGE.c **** 
 566:Generated_Source\PSoC4/PWM_CHARGE.c **** /*******************************************************************************
 567:Generated_Source\PSoC4/PWM_CHARGE.c **** * Function Name: PWM_CHARGE_SetPWMInvert
 568:Generated_Source\PSoC4/PWM_CHARGE.c **** ********************************************************************************
 569:Generated_Source\PSoC4/PWM_CHARGE.c **** *
 570:Generated_Source\PSoC4/PWM_CHARGE.c **** * Summary:
 571:Generated_Source\PSoC4/PWM_CHARGE.c **** *  Writes the bits that control whether the line and line_n outputs are
 572:Generated_Source\PSoC4/PWM_CHARGE.c **** *  inverted from their normal output values.  This functionality is only
 573:Generated_Source\PSoC4/PWM_CHARGE.c **** *  applicable to the three PWM modes.
 574:Generated_Source\PSoC4/PWM_CHARGE.c **** *
 575:Generated_Source\PSoC4/PWM_CHARGE.c **** * Parameters:
 576:Generated_Source\PSoC4/PWM_CHARGE.c **** *  mask: Mask of outputs to invert.
 577:Generated_Source\PSoC4/PWM_CHARGE.c **** *   Values:
 578:Generated_Source\PSoC4/PWM_CHARGE.c **** *         - PWM_CHARGE_INVERT_LINE   - Inverts the line output
 579:Generated_Source\PSoC4/PWM_CHARGE.c **** *         - PWM_CHARGE_INVERT_LINE_N - Inverts the line_n output
 580:Generated_Source\PSoC4/PWM_CHARGE.c **** *
 581:Generated_Source\PSoC4/PWM_CHARGE.c **** * Return:
 582:Generated_Source\PSoC4/PWM_CHARGE.c **** *  None
 583:Generated_Source\PSoC4/PWM_CHARGE.c **** *
 584:Generated_Source\PSoC4/PWM_CHARGE.c **** *******************************************************************************/
 585:Generated_Source\PSoC4/PWM_CHARGE.c **** void PWM_CHARGE_SetPWMInvert(uint32 mask)
 586:Generated_Source\PSoC4/PWM_CHARGE.c **** {
 587:Generated_Source\PSoC4/PWM_CHARGE.c ****     uint8 enableInterrupts;
 588:Generated_Source\PSoC4/PWM_CHARGE.c **** 
 589:Generated_Source\PSoC4/PWM_CHARGE.c ****     enableInterrupts = CyEnterCriticalSection();
 590:Generated_Source\PSoC4/PWM_CHARGE.c **** 
 591:Generated_Source\PSoC4/PWM_CHARGE.c ****     PWM_CHARGE_CONTROL_REG &= (uint32)~PWM_CHARGE_INV_OUT_MASK;
ARM GAS  C:\Users\ilya\AppData\Local\Temp\cc391SdI.s 			page 12


 592:Generated_Source\PSoC4/PWM_CHARGE.c ****     PWM_CHARGE_CONTROL_REG |= mask;
 593:Generated_Source\PSoC4/PWM_CHARGE.c **** 
 594:Generated_Source\PSoC4/PWM_CHARGE.c ****     CyExitCriticalSection(enableInterrupts);
 595:Generated_Source\PSoC4/PWM_CHARGE.c **** }
 596:Generated_Source\PSoC4/PWM_CHARGE.c **** 
 597:Generated_Source\PSoC4/PWM_CHARGE.c **** 
 598:Generated_Source\PSoC4/PWM_CHARGE.c **** 
 599:Generated_Source\PSoC4/PWM_CHARGE.c **** /*******************************************************************************
 600:Generated_Source\PSoC4/PWM_CHARGE.c **** * Function Name: PWM_CHARGE_WriteCounter
 601:Generated_Source\PSoC4/PWM_CHARGE.c **** ********************************************************************************
 602:Generated_Source\PSoC4/PWM_CHARGE.c **** *
 603:Generated_Source\PSoC4/PWM_CHARGE.c **** * Summary:
 604:Generated_Source\PSoC4/PWM_CHARGE.c **** *  Writes a new 16bit counter value directly into the counter register, thus
 605:Generated_Source\PSoC4/PWM_CHARGE.c **** *  setting the counter (not the period) to the value written. It is not
 606:Generated_Source\PSoC4/PWM_CHARGE.c **** *  advised to write to this field when the counter is running.
 607:Generated_Source\PSoC4/PWM_CHARGE.c **** *
 608:Generated_Source\PSoC4/PWM_CHARGE.c **** * Parameters:
 609:Generated_Source\PSoC4/PWM_CHARGE.c **** *  count: value to write
 610:Generated_Source\PSoC4/PWM_CHARGE.c **** *
 611:Generated_Source\PSoC4/PWM_CHARGE.c **** * Return:
 612:Generated_Source\PSoC4/PWM_CHARGE.c **** *  None
 613:Generated_Source\PSoC4/PWM_CHARGE.c **** *
 614:Generated_Source\PSoC4/PWM_CHARGE.c **** *******************************************************************************/
 615:Generated_Source\PSoC4/PWM_CHARGE.c **** void PWM_CHARGE_WriteCounter(uint32 count)
 616:Generated_Source\PSoC4/PWM_CHARGE.c **** {
 617:Generated_Source\PSoC4/PWM_CHARGE.c ****     PWM_CHARGE_COUNTER_REG = (count & PWM_CHARGE_16BIT_MASK);
  37              		.loc 1 617 0
  38 0002 0021     		movs	r1, #0
  39              	.LBE23:
  40              	.LBE22:
  89:Generated_Source\PSoC4/PWM_CHARGE.c **** 
  41              		.loc 1 89 0
  42 0004 0C4B     		ldr	r3, .L2
  43 0006 D204     		lsls	r2, r2, #19
  44 0008 1A60     		str	r2, [r3]
  95:Generated_Source\PSoC4/PWM_CHARGE.c ****             
  45              		.loc 1 95 0
  46 000a 1A68     		ldr	r2, [r3]
 160:Generated_Source\PSoC4/PWM_CHARGE.c **** 
  47              		.loc 1 160 0
  48              		@ sp needed
  95:Generated_Source\PSoC4/PWM_CHARGE.c ****             
  49              		.loc 1 95 0
  50 000c 1A60     		str	r2, [r3]
  51              	.LVL0:
  52              	.LBB25:
  53              	.LBB24:
  54              		.loc 1 617 0
  55 000e 0B4A     		ldr	r2, .L2+4
  56 0010 1160     		str	r1, [r2]
  57              	.LVL1:
  58              	.LBE24:
  59              	.LBE25:
 112:Generated_Source\PSoC4/PWM_CHARGE.c ****         #endif  /* (PWM_CHARGE__PWM == PWM_CHARGE_PWM_MODE) */
  60              		.loc 1 112 0
  61 0012 1A68     		ldr	r2, [r3]
 129:Generated_Source\PSoC4/PWM_CHARGE.c ****             #endif  /* ( PWM_CHARGE_PWM_LEFT == PWM_CHARGE_PWM_ALIGN) */
ARM GAS  C:\Users\ilya\AppData\Local\Temp\cc391SdI.s 			page 13


  62              		.loc 1 129 0
  63 0014 3131     		adds	r1, r1, #49
 112:Generated_Source\PSoC4/PWM_CHARGE.c ****         #endif  /* (PWM_CHARGE__PWM == PWM_CHARGE_PWM_MODE) */
  64              		.loc 1 112 0
  65 0016 1A60     		str	r2, [r3]
 116:Generated_Source\PSoC4/PWM_CHARGE.c ****     
  66              		.loc 1 116 0
  67 0018 0C22     		movs	r2, #12
  68 001a 094B     		ldr	r3, .L2+8
  69 001c 1A60     		str	r2, [r3]
  70              	.LVL2:
  71              	.LBB26:
  72              	.LBB27:
 618:Generated_Source\PSoC4/PWM_CHARGE.c **** }
 619:Generated_Source\PSoC4/PWM_CHARGE.c **** 
 620:Generated_Source\PSoC4/PWM_CHARGE.c **** 
 621:Generated_Source\PSoC4/PWM_CHARGE.c **** /*******************************************************************************
 622:Generated_Source\PSoC4/PWM_CHARGE.c **** * Function Name: PWM_CHARGE_ReadCounter
 623:Generated_Source\PSoC4/PWM_CHARGE.c **** ********************************************************************************
 624:Generated_Source\PSoC4/PWM_CHARGE.c **** *
 625:Generated_Source\PSoC4/PWM_CHARGE.c **** * Summary:
 626:Generated_Source\PSoC4/PWM_CHARGE.c **** *  Reads the current counter value.
 627:Generated_Source\PSoC4/PWM_CHARGE.c **** *
 628:Generated_Source\PSoC4/PWM_CHARGE.c **** * Parameters:
 629:Generated_Source\PSoC4/PWM_CHARGE.c **** *  None
 630:Generated_Source\PSoC4/PWM_CHARGE.c **** *
 631:Generated_Source\PSoC4/PWM_CHARGE.c **** * Return:
 632:Generated_Source\PSoC4/PWM_CHARGE.c **** *  Current counter value
 633:Generated_Source\PSoC4/PWM_CHARGE.c **** *
 634:Generated_Source\PSoC4/PWM_CHARGE.c **** *******************************************************************************/
 635:Generated_Source\PSoC4/PWM_CHARGE.c **** uint32 PWM_CHARGE_ReadCounter(void)
 636:Generated_Source\PSoC4/PWM_CHARGE.c **** {
 637:Generated_Source\PSoC4/PWM_CHARGE.c ****     return (PWM_CHARGE_COUNTER_REG & PWM_CHARGE_16BIT_MASK);
 638:Generated_Source\PSoC4/PWM_CHARGE.c **** }
 639:Generated_Source\PSoC4/PWM_CHARGE.c **** 
 640:Generated_Source\PSoC4/PWM_CHARGE.c **** 
 641:Generated_Source\PSoC4/PWM_CHARGE.c **** /*******************************************************************************
 642:Generated_Source\PSoC4/PWM_CHARGE.c **** * Function Name: PWM_CHARGE_SetCounterMode
 643:Generated_Source\PSoC4/PWM_CHARGE.c **** ********************************************************************************
 644:Generated_Source\PSoC4/PWM_CHARGE.c **** *
 645:Generated_Source\PSoC4/PWM_CHARGE.c **** * Summary:
 646:Generated_Source\PSoC4/PWM_CHARGE.c **** *  Sets the counter mode.  Applicable to all modes except Quadrature Decoder
 647:Generated_Source\PSoC4/PWM_CHARGE.c **** *  and the PWM with a pseudo random output.
 648:Generated_Source\PSoC4/PWM_CHARGE.c **** *
 649:Generated_Source\PSoC4/PWM_CHARGE.c **** * Parameters:
 650:Generated_Source\PSoC4/PWM_CHARGE.c **** *  counterMode: Enumerated counter type values
 651:Generated_Source\PSoC4/PWM_CHARGE.c **** *   Values:
 652:Generated_Source\PSoC4/PWM_CHARGE.c **** *     - PWM_CHARGE_COUNT_UP       - Counts up
 653:Generated_Source\PSoC4/PWM_CHARGE.c **** *     - PWM_CHARGE_COUNT_DOWN     - Counts down
 654:Generated_Source\PSoC4/PWM_CHARGE.c **** *     - PWM_CHARGE_COUNT_UPDOWN0  - Counts up and down. Terminal count
 655:Generated_Source\PSoC4/PWM_CHARGE.c **** *                                         generated when counter reaches 0
 656:Generated_Source\PSoC4/PWM_CHARGE.c **** *     - PWM_CHARGE_COUNT_UPDOWN1  - Counts up and down. Terminal count
 657:Generated_Source\PSoC4/PWM_CHARGE.c **** *                                         generated both when counter reaches 0
 658:Generated_Source\PSoC4/PWM_CHARGE.c **** *                                         and period
 659:Generated_Source\PSoC4/PWM_CHARGE.c **** *
 660:Generated_Source\PSoC4/PWM_CHARGE.c **** * Return:
 661:Generated_Source\PSoC4/PWM_CHARGE.c **** *  None
ARM GAS  C:\Users\ilya\AppData\Local\Temp\cc391SdI.s 			page 14


 662:Generated_Source\PSoC4/PWM_CHARGE.c **** *
 663:Generated_Source\PSoC4/PWM_CHARGE.c **** *******************************************************************************/
 664:Generated_Source\PSoC4/PWM_CHARGE.c **** void PWM_CHARGE_SetCounterMode(uint32 counterMode)
 665:Generated_Source\PSoC4/PWM_CHARGE.c **** {
 666:Generated_Source\PSoC4/PWM_CHARGE.c ****     uint8 enableInterrupts;
 667:Generated_Source\PSoC4/PWM_CHARGE.c **** 
 668:Generated_Source\PSoC4/PWM_CHARGE.c ****     enableInterrupts = CyEnterCriticalSection();
 669:Generated_Source\PSoC4/PWM_CHARGE.c **** 
 670:Generated_Source\PSoC4/PWM_CHARGE.c ****     PWM_CHARGE_CONTROL_REG &= (uint32)~PWM_CHARGE_UPDOWN_MASK;
 671:Generated_Source\PSoC4/PWM_CHARGE.c ****     PWM_CHARGE_CONTROL_REG |= counterMode;
 672:Generated_Source\PSoC4/PWM_CHARGE.c **** 
 673:Generated_Source\PSoC4/PWM_CHARGE.c ****     CyExitCriticalSection(enableInterrupts);
 674:Generated_Source\PSoC4/PWM_CHARGE.c **** }
 675:Generated_Source\PSoC4/PWM_CHARGE.c **** 
 676:Generated_Source\PSoC4/PWM_CHARGE.c **** 
 677:Generated_Source\PSoC4/PWM_CHARGE.c **** /*******************************************************************************
 678:Generated_Source\PSoC4/PWM_CHARGE.c **** * Function Name: PWM_CHARGE_WritePeriod
 679:Generated_Source\PSoC4/PWM_CHARGE.c **** ********************************************************************************
 680:Generated_Source\PSoC4/PWM_CHARGE.c **** *
 681:Generated_Source\PSoC4/PWM_CHARGE.c **** * Summary:
 682:Generated_Source\PSoC4/PWM_CHARGE.c **** *  Writes the 16 bit period register with the new period value.
 683:Generated_Source\PSoC4/PWM_CHARGE.c **** *  To cause the counter to count for N cycles this register should be written
 684:Generated_Source\PSoC4/PWM_CHARGE.c **** *  with N-1 (counts from 0 to period inclusive).
 685:Generated_Source\PSoC4/PWM_CHARGE.c **** *
 686:Generated_Source\PSoC4/PWM_CHARGE.c **** * Parameters:
 687:Generated_Source\PSoC4/PWM_CHARGE.c **** *  period: Period value
 688:Generated_Source\PSoC4/PWM_CHARGE.c **** *
 689:Generated_Source\PSoC4/PWM_CHARGE.c **** * Return:
 690:Generated_Source\PSoC4/PWM_CHARGE.c **** *  None
 691:Generated_Source\PSoC4/PWM_CHARGE.c **** *
 692:Generated_Source\PSoC4/PWM_CHARGE.c **** *******************************************************************************/
 693:Generated_Source\PSoC4/PWM_CHARGE.c **** void PWM_CHARGE_WritePeriod(uint32 period)
 694:Generated_Source\PSoC4/PWM_CHARGE.c **** {
 695:Generated_Source\PSoC4/PWM_CHARGE.c ****     PWM_CHARGE_PERIOD_REG = (period & PWM_CHARGE_16BIT_MASK);
 696:Generated_Source\PSoC4/PWM_CHARGE.c **** }
 697:Generated_Source\PSoC4/PWM_CHARGE.c **** 
 698:Generated_Source\PSoC4/PWM_CHARGE.c **** 
 699:Generated_Source\PSoC4/PWM_CHARGE.c **** /*******************************************************************************
 700:Generated_Source\PSoC4/PWM_CHARGE.c **** * Function Name: PWM_CHARGE_ReadPeriod
 701:Generated_Source\PSoC4/PWM_CHARGE.c **** ********************************************************************************
 702:Generated_Source\PSoC4/PWM_CHARGE.c **** *
 703:Generated_Source\PSoC4/PWM_CHARGE.c **** * Summary:
 704:Generated_Source\PSoC4/PWM_CHARGE.c **** *  Reads the 16 bit period register.
 705:Generated_Source\PSoC4/PWM_CHARGE.c **** *
 706:Generated_Source\PSoC4/PWM_CHARGE.c **** * Parameters:
 707:Generated_Source\PSoC4/PWM_CHARGE.c **** *  None
 708:Generated_Source\PSoC4/PWM_CHARGE.c **** *
 709:Generated_Source\PSoC4/PWM_CHARGE.c **** * Return:
 710:Generated_Source\PSoC4/PWM_CHARGE.c **** *  Period value
 711:Generated_Source\PSoC4/PWM_CHARGE.c **** *
 712:Generated_Source\PSoC4/PWM_CHARGE.c **** *******************************************************************************/
 713:Generated_Source\PSoC4/PWM_CHARGE.c **** uint32 PWM_CHARGE_ReadPeriod(void)
 714:Generated_Source\PSoC4/PWM_CHARGE.c **** {
 715:Generated_Source\PSoC4/PWM_CHARGE.c ****     return (PWM_CHARGE_PERIOD_REG & PWM_CHARGE_16BIT_MASK);
 716:Generated_Source\PSoC4/PWM_CHARGE.c **** }
 717:Generated_Source\PSoC4/PWM_CHARGE.c **** 
 718:Generated_Source\PSoC4/PWM_CHARGE.c **** 
ARM GAS  C:\Users\ilya\AppData\Local\Temp\cc391SdI.s 			page 15


 719:Generated_Source\PSoC4/PWM_CHARGE.c **** /*******************************************************************************
 720:Generated_Source\PSoC4/PWM_CHARGE.c **** * Function Name: PWM_CHARGE_SetCompareSwap
 721:Generated_Source\PSoC4/PWM_CHARGE.c **** ********************************************************************************
 722:Generated_Source\PSoC4/PWM_CHARGE.c **** *
 723:Generated_Source\PSoC4/PWM_CHARGE.c **** * Summary:
 724:Generated_Source\PSoC4/PWM_CHARGE.c **** *  Writes the register that controls whether the compare registers are
 725:Generated_Source\PSoC4/PWM_CHARGE.c **** *  swapped. When enabled in the Timer/Counter mode(without capture) the swap
 726:Generated_Source\PSoC4/PWM_CHARGE.c **** *  occurs at a TC event. In the PWM mode the swap occurs at the next TC event
 727:Generated_Source\PSoC4/PWM_CHARGE.c **** *  following a hardware switch event.
 728:Generated_Source\PSoC4/PWM_CHARGE.c **** *
 729:Generated_Source\PSoC4/PWM_CHARGE.c **** * Parameters:
 730:Generated_Source\PSoC4/PWM_CHARGE.c **** *  swapEnable
 731:Generated_Source\PSoC4/PWM_CHARGE.c **** *   Values:
 732:Generated_Source\PSoC4/PWM_CHARGE.c **** *     - 0 - Disable swap
 733:Generated_Source\PSoC4/PWM_CHARGE.c **** *     - 1 - Enable swap
 734:Generated_Source\PSoC4/PWM_CHARGE.c **** *
 735:Generated_Source\PSoC4/PWM_CHARGE.c **** * Return:
 736:Generated_Source\PSoC4/PWM_CHARGE.c **** *  None
 737:Generated_Source\PSoC4/PWM_CHARGE.c **** *
 738:Generated_Source\PSoC4/PWM_CHARGE.c **** *******************************************************************************/
 739:Generated_Source\PSoC4/PWM_CHARGE.c **** void PWM_CHARGE_SetCompareSwap(uint32 swapEnable)
 740:Generated_Source\PSoC4/PWM_CHARGE.c **** {
 741:Generated_Source\PSoC4/PWM_CHARGE.c ****     uint8 enableInterrupts;
 742:Generated_Source\PSoC4/PWM_CHARGE.c **** 
 743:Generated_Source\PSoC4/PWM_CHARGE.c ****     enableInterrupts = CyEnterCriticalSection();
 744:Generated_Source\PSoC4/PWM_CHARGE.c **** 
 745:Generated_Source\PSoC4/PWM_CHARGE.c ****     PWM_CHARGE_CONTROL_REG &= (uint32)~PWM_CHARGE_RELOAD_CC_MASK;
 746:Generated_Source\PSoC4/PWM_CHARGE.c ****     PWM_CHARGE_CONTROL_REG |= (swapEnable & PWM_CHARGE_1BIT_MASK);
 747:Generated_Source\PSoC4/PWM_CHARGE.c **** 
 748:Generated_Source\PSoC4/PWM_CHARGE.c ****     CyExitCriticalSection(enableInterrupts);
 749:Generated_Source\PSoC4/PWM_CHARGE.c **** }
 750:Generated_Source\PSoC4/PWM_CHARGE.c **** 
 751:Generated_Source\PSoC4/PWM_CHARGE.c **** 
 752:Generated_Source\PSoC4/PWM_CHARGE.c **** /*******************************************************************************
 753:Generated_Source\PSoC4/PWM_CHARGE.c **** * Function Name: PWM_CHARGE_WritePeriodBuf
 754:Generated_Source\PSoC4/PWM_CHARGE.c **** ********************************************************************************
 755:Generated_Source\PSoC4/PWM_CHARGE.c **** *
 756:Generated_Source\PSoC4/PWM_CHARGE.c **** * Summary:
 757:Generated_Source\PSoC4/PWM_CHARGE.c **** *  Writes the 16 bit period buf register with the new period value.
 758:Generated_Source\PSoC4/PWM_CHARGE.c **** *
 759:Generated_Source\PSoC4/PWM_CHARGE.c **** * Parameters:
 760:Generated_Source\PSoC4/PWM_CHARGE.c **** *  periodBuf: Period value
 761:Generated_Source\PSoC4/PWM_CHARGE.c **** *
 762:Generated_Source\PSoC4/PWM_CHARGE.c **** * Return:
 763:Generated_Source\PSoC4/PWM_CHARGE.c **** *  None
 764:Generated_Source\PSoC4/PWM_CHARGE.c **** *
 765:Generated_Source\PSoC4/PWM_CHARGE.c **** *******************************************************************************/
 766:Generated_Source\PSoC4/PWM_CHARGE.c **** void PWM_CHARGE_WritePeriodBuf(uint32 periodBuf)
 767:Generated_Source\PSoC4/PWM_CHARGE.c **** {
 768:Generated_Source\PSoC4/PWM_CHARGE.c ****     PWM_CHARGE_PERIOD_BUF_REG = (periodBuf & PWM_CHARGE_16BIT_MASK);
 769:Generated_Source\PSoC4/PWM_CHARGE.c **** }
 770:Generated_Source\PSoC4/PWM_CHARGE.c **** 
 771:Generated_Source\PSoC4/PWM_CHARGE.c **** 
 772:Generated_Source\PSoC4/PWM_CHARGE.c **** /*******************************************************************************
 773:Generated_Source\PSoC4/PWM_CHARGE.c **** * Function Name: PWM_CHARGE_ReadPeriodBuf
 774:Generated_Source\PSoC4/PWM_CHARGE.c **** ********************************************************************************
 775:Generated_Source\PSoC4/PWM_CHARGE.c **** *
ARM GAS  C:\Users\ilya\AppData\Local\Temp\cc391SdI.s 			page 16


 776:Generated_Source\PSoC4/PWM_CHARGE.c **** * Summary:
 777:Generated_Source\PSoC4/PWM_CHARGE.c **** *  Reads the 16 bit period buf register.
 778:Generated_Source\PSoC4/PWM_CHARGE.c **** *
 779:Generated_Source\PSoC4/PWM_CHARGE.c **** * Parameters:
 780:Generated_Source\PSoC4/PWM_CHARGE.c **** *  None
 781:Generated_Source\PSoC4/PWM_CHARGE.c **** *
 782:Generated_Source\PSoC4/PWM_CHARGE.c **** * Return:
 783:Generated_Source\PSoC4/PWM_CHARGE.c **** *  Period value
 784:Generated_Source\PSoC4/PWM_CHARGE.c **** *
 785:Generated_Source\PSoC4/PWM_CHARGE.c **** *******************************************************************************/
 786:Generated_Source\PSoC4/PWM_CHARGE.c **** uint32 PWM_CHARGE_ReadPeriodBuf(void)
 787:Generated_Source\PSoC4/PWM_CHARGE.c **** {
 788:Generated_Source\PSoC4/PWM_CHARGE.c ****     return (PWM_CHARGE_PERIOD_BUF_REG & PWM_CHARGE_16BIT_MASK);
 789:Generated_Source\PSoC4/PWM_CHARGE.c **** }
 790:Generated_Source\PSoC4/PWM_CHARGE.c **** 
 791:Generated_Source\PSoC4/PWM_CHARGE.c **** 
 792:Generated_Source\PSoC4/PWM_CHARGE.c **** /*******************************************************************************
 793:Generated_Source\PSoC4/PWM_CHARGE.c **** * Function Name: PWM_CHARGE_SetPeriodSwap
 794:Generated_Source\PSoC4/PWM_CHARGE.c **** ********************************************************************************
 795:Generated_Source\PSoC4/PWM_CHARGE.c **** *
 796:Generated_Source\PSoC4/PWM_CHARGE.c **** * Summary:
 797:Generated_Source\PSoC4/PWM_CHARGE.c **** *  Writes the register that controls whether the period registers are
 798:Generated_Source\PSoC4/PWM_CHARGE.c **** *  swapped. When enabled in Timer/Counter mode the swap occurs at a TC event.
 799:Generated_Source\PSoC4/PWM_CHARGE.c **** *  In the PWM mode the swap occurs at the next TC event following a hardware
 800:Generated_Source\PSoC4/PWM_CHARGE.c **** *  switch event.
 801:Generated_Source\PSoC4/PWM_CHARGE.c **** *
 802:Generated_Source\PSoC4/PWM_CHARGE.c **** * Parameters:
 803:Generated_Source\PSoC4/PWM_CHARGE.c **** *  swapEnable
 804:Generated_Source\PSoC4/PWM_CHARGE.c **** *   Values:
 805:Generated_Source\PSoC4/PWM_CHARGE.c **** *     - 0 - Disable swap
 806:Generated_Source\PSoC4/PWM_CHARGE.c **** *     - 1 - Enable swap
 807:Generated_Source\PSoC4/PWM_CHARGE.c **** *
 808:Generated_Source\PSoC4/PWM_CHARGE.c **** * Return:
 809:Generated_Source\PSoC4/PWM_CHARGE.c **** *  None
 810:Generated_Source\PSoC4/PWM_CHARGE.c **** *
 811:Generated_Source\PSoC4/PWM_CHARGE.c **** *******************************************************************************/
 812:Generated_Source\PSoC4/PWM_CHARGE.c **** void PWM_CHARGE_SetPeriodSwap(uint32 swapEnable)
 813:Generated_Source\PSoC4/PWM_CHARGE.c **** {
 814:Generated_Source\PSoC4/PWM_CHARGE.c ****     uint8 enableInterrupts;
 815:Generated_Source\PSoC4/PWM_CHARGE.c **** 
 816:Generated_Source\PSoC4/PWM_CHARGE.c ****     enableInterrupts = CyEnterCriticalSection();
 817:Generated_Source\PSoC4/PWM_CHARGE.c **** 
 818:Generated_Source\PSoC4/PWM_CHARGE.c ****     PWM_CHARGE_CONTROL_REG &= (uint32)~PWM_CHARGE_RELOAD_PERIOD_MASK;
 819:Generated_Source\PSoC4/PWM_CHARGE.c ****     PWM_CHARGE_CONTROL_REG |= ((uint32)((swapEnable & PWM_CHARGE_1BIT_MASK) <<
 820:Generated_Source\PSoC4/PWM_CHARGE.c ****                                                             PWM_CHARGE_RELOAD_PERIOD_SHIFT));
 821:Generated_Source\PSoC4/PWM_CHARGE.c **** 
 822:Generated_Source\PSoC4/PWM_CHARGE.c ****     CyExitCriticalSection(enableInterrupts);
 823:Generated_Source\PSoC4/PWM_CHARGE.c **** }
 824:Generated_Source\PSoC4/PWM_CHARGE.c **** 
 825:Generated_Source\PSoC4/PWM_CHARGE.c **** 
 826:Generated_Source\PSoC4/PWM_CHARGE.c **** /*******************************************************************************
 827:Generated_Source\PSoC4/PWM_CHARGE.c **** * Function Name: PWM_CHARGE_WriteCompare
 828:Generated_Source\PSoC4/PWM_CHARGE.c **** ********************************************************************************
 829:Generated_Source\PSoC4/PWM_CHARGE.c **** *
 830:Generated_Source\PSoC4/PWM_CHARGE.c **** * Summary:
 831:Generated_Source\PSoC4/PWM_CHARGE.c **** *  Writes the 16 bit compare register with the new compare value. Not
 832:Generated_Source\PSoC4/PWM_CHARGE.c **** *  applicable for Timer/Counter with Capture or in Quadrature Decoder modes.
ARM GAS  C:\Users\ilya\AppData\Local\Temp\cc391SdI.s 			page 17


 833:Generated_Source\PSoC4/PWM_CHARGE.c **** *
 834:Generated_Source\PSoC4/PWM_CHARGE.c **** * Parameters:
 835:Generated_Source\PSoC4/PWM_CHARGE.c **** *  compare: Compare value
 836:Generated_Source\PSoC4/PWM_CHARGE.c **** *
 837:Generated_Source\PSoC4/PWM_CHARGE.c **** * Return:
 838:Generated_Source\PSoC4/PWM_CHARGE.c **** *  None
 839:Generated_Source\PSoC4/PWM_CHARGE.c **** *
 840:Generated_Source\PSoC4/PWM_CHARGE.c **** * Note:
 841:Generated_Source\PSoC4/PWM_CHARGE.c **** *  It is not recommended to use the value equal to "0" or equal to 
 842:Generated_Source\PSoC4/PWM_CHARGE.c **** *  "period value" in Center or Asymmetric align PWM modes on the 
 843:Generated_Source\PSoC4/PWM_CHARGE.c **** *  PSoC 4100/PSoC 4200 devices.
 844:Generated_Source\PSoC4/PWM_CHARGE.c **** *  PSoC 4000 devices write the 16 bit compare register with the decremented 
 845:Generated_Source\PSoC4/PWM_CHARGE.c **** *  compare value in the Up counting mode (except 0x0u), and the incremented 
 846:Generated_Source\PSoC4/PWM_CHARGE.c **** *  compare value in the Down counting mode (except 0xFFFFu).
 847:Generated_Source\PSoC4/PWM_CHARGE.c **** *
 848:Generated_Source\PSoC4/PWM_CHARGE.c **** *******************************************************************************/
 849:Generated_Source\PSoC4/PWM_CHARGE.c **** void PWM_CHARGE_WriteCompare(uint32 compare)
 850:Generated_Source\PSoC4/PWM_CHARGE.c **** {
 851:Generated_Source\PSoC4/PWM_CHARGE.c ****     #if (PWM_CHARGE_CY_TCPWM_4000)
 852:Generated_Source\PSoC4/PWM_CHARGE.c ****         uint32 currentMode;
 853:Generated_Source\PSoC4/PWM_CHARGE.c ****     #endif /* (PWM_CHARGE_CY_TCPWM_4000) */
 854:Generated_Source\PSoC4/PWM_CHARGE.c **** 
 855:Generated_Source\PSoC4/PWM_CHARGE.c ****     #if (PWM_CHARGE_CY_TCPWM_4000)
 856:Generated_Source\PSoC4/PWM_CHARGE.c ****         currentMode = ((PWM_CHARGE_CONTROL_REG & PWM_CHARGE_UPDOWN_MASK) >> PWM_CHARGE_UPDOWN_SHIFT
 857:Generated_Source\PSoC4/PWM_CHARGE.c **** 
 858:Generated_Source\PSoC4/PWM_CHARGE.c ****         if (((uint32)PWM_CHARGE__COUNT_DOWN == currentMode) && (0xFFFFu != compare))
 859:Generated_Source\PSoC4/PWM_CHARGE.c ****         {
 860:Generated_Source\PSoC4/PWM_CHARGE.c ****             compare++;
 861:Generated_Source\PSoC4/PWM_CHARGE.c ****         }
 862:Generated_Source\PSoC4/PWM_CHARGE.c ****         else if (((uint32)PWM_CHARGE__COUNT_UP == currentMode) && (0u != compare))
 863:Generated_Source\PSoC4/PWM_CHARGE.c ****         {
 864:Generated_Source\PSoC4/PWM_CHARGE.c ****             compare--;
 865:Generated_Source\PSoC4/PWM_CHARGE.c ****         }
 866:Generated_Source\PSoC4/PWM_CHARGE.c ****         else
 867:Generated_Source\PSoC4/PWM_CHARGE.c ****         {
 868:Generated_Source\PSoC4/PWM_CHARGE.c ****         }
 869:Generated_Source\PSoC4/PWM_CHARGE.c ****         
 870:Generated_Source\PSoC4/PWM_CHARGE.c ****     
 871:Generated_Source\PSoC4/PWM_CHARGE.c ****     #endif /* (PWM_CHARGE_CY_TCPWM_4000) */
 872:Generated_Source\PSoC4/PWM_CHARGE.c ****     
 873:Generated_Source\PSoC4/PWM_CHARGE.c ****     PWM_CHARGE_COMP_CAP_REG = (compare & PWM_CHARGE_16BIT_MASK);
 874:Generated_Source\PSoC4/PWM_CHARGE.c **** }
 875:Generated_Source\PSoC4/PWM_CHARGE.c **** 
 876:Generated_Source\PSoC4/PWM_CHARGE.c **** 
 877:Generated_Source\PSoC4/PWM_CHARGE.c **** /*******************************************************************************
 878:Generated_Source\PSoC4/PWM_CHARGE.c **** * Function Name: PWM_CHARGE_ReadCompare
 879:Generated_Source\PSoC4/PWM_CHARGE.c **** ********************************************************************************
 880:Generated_Source\PSoC4/PWM_CHARGE.c **** *
 881:Generated_Source\PSoC4/PWM_CHARGE.c **** * Summary:
 882:Generated_Source\PSoC4/PWM_CHARGE.c **** *  Reads the compare register. Not applicable for Timer/Counter with Capture
 883:Generated_Source\PSoC4/PWM_CHARGE.c **** *  or in Quadrature Decoder modes.
 884:Generated_Source\PSoC4/PWM_CHARGE.c **** *  PSoC 4000 devices read the incremented compare register value in the 
 885:Generated_Source\PSoC4/PWM_CHARGE.c **** *  Up counting mode (except 0xFFFFu), and the decremented value in the 
 886:Generated_Source\PSoC4/PWM_CHARGE.c **** *  Down counting mode (except 0x0u).
 887:Generated_Source\PSoC4/PWM_CHARGE.c **** *
 888:Generated_Source\PSoC4/PWM_CHARGE.c **** * Parameters:
 889:Generated_Source\PSoC4/PWM_CHARGE.c **** *  None
ARM GAS  C:\Users\ilya\AppData\Local\Temp\cc391SdI.s 			page 18


 890:Generated_Source\PSoC4/PWM_CHARGE.c **** *
 891:Generated_Source\PSoC4/PWM_CHARGE.c **** * Return:
 892:Generated_Source\PSoC4/PWM_CHARGE.c **** *  Compare value
 893:Generated_Source\PSoC4/PWM_CHARGE.c **** *
 894:Generated_Source\PSoC4/PWM_CHARGE.c **** * Note:
 895:Generated_Source\PSoC4/PWM_CHARGE.c **** *  PSoC 4000 devices read the incremented compare register value in the 
 896:Generated_Source\PSoC4/PWM_CHARGE.c **** *  Up counting mode (except 0xFFFFu), and the decremented value in the 
 897:Generated_Source\PSoC4/PWM_CHARGE.c **** *  Down counting mode (except 0x0u).
 898:Generated_Source\PSoC4/PWM_CHARGE.c **** *
 899:Generated_Source\PSoC4/PWM_CHARGE.c **** *******************************************************************************/
 900:Generated_Source\PSoC4/PWM_CHARGE.c **** uint32 PWM_CHARGE_ReadCompare(void)
 901:Generated_Source\PSoC4/PWM_CHARGE.c **** {
 902:Generated_Source\PSoC4/PWM_CHARGE.c ****     #if (PWM_CHARGE_CY_TCPWM_4000)
 903:Generated_Source\PSoC4/PWM_CHARGE.c ****         uint32 currentMode;
 904:Generated_Source\PSoC4/PWM_CHARGE.c ****         uint32 regVal;
 905:Generated_Source\PSoC4/PWM_CHARGE.c ****     #endif /* (PWM_CHARGE_CY_TCPWM_4000) */
 906:Generated_Source\PSoC4/PWM_CHARGE.c **** 
 907:Generated_Source\PSoC4/PWM_CHARGE.c ****     #if (PWM_CHARGE_CY_TCPWM_4000)
 908:Generated_Source\PSoC4/PWM_CHARGE.c ****         currentMode = ((PWM_CHARGE_CONTROL_REG & PWM_CHARGE_UPDOWN_MASK) >> PWM_CHARGE_UPDOWN_SHIFT
 909:Generated_Source\PSoC4/PWM_CHARGE.c ****         
 910:Generated_Source\PSoC4/PWM_CHARGE.c ****         regVal = PWM_CHARGE_COMP_CAP_REG;
 911:Generated_Source\PSoC4/PWM_CHARGE.c ****         
 912:Generated_Source\PSoC4/PWM_CHARGE.c ****         if (((uint32)PWM_CHARGE__COUNT_DOWN == currentMode) && (0u != regVal))
 913:Generated_Source\PSoC4/PWM_CHARGE.c ****         {
 914:Generated_Source\PSoC4/PWM_CHARGE.c ****             regVal--;
 915:Generated_Source\PSoC4/PWM_CHARGE.c ****         }
 916:Generated_Source\PSoC4/PWM_CHARGE.c ****         else if (((uint32)PWM_CHARGE__COUNT_UP == currentMode) && (0xFFFFu != regVal))
 917:Generated_Source\PSoC4/PWM_CHARGE.c ****         {
 918:Generated_Source\PSoC4/PWM_CHARGE.c ****             regVal++;
 919:Generated_Source\PSoC4/PWM_CHARGE.c ****         }
 920:Generated_Source\PSoC4/PWM_CHARGE.c ****         else
 921:Generated_Source\PSoC4/PWM_CHARGE.c ****         {
 922:Generated_Source\PSoC4/PWM_CHARGE.c ****         }
 923:Generated_Source\PSoC4/PWM_CHARGE.c **** 
 924:Generated_Source\PSoC4/PWM_CHARGE.c ****         return (regVal & PWM_CHARGE_16BIT_MASK);
 925:Generated_Source\PSoC4/PWM_CHARGE.c ****     #else
 926:Generated_Source\PSoC4/PWM_CHARGE.c ****         return (PWM_CHARGE_COMP_CAP_REG & PWM_CHARGE_16BIT_MASK);
 927:Generated_Source\PSoC4/PWM_CHARGE.c ****     #endif /* (PWM_CHARGE_CY_TCPWM_4000) */
 928:Generated_Source\PSoC4/PWM_CHARGE.c **** }
 929:Generated_Source\PSoC4/PWM_CHARGE.c **** 
 930:Generated_Source\PSoC4/PWM_CHARGE.c **** 
 931:Generated_Source\PSoC4/PWM_CHARGE.c **** /*******************************************************************************
 932:Generated_Source\PSoC4/PWM_CHARGE.c **** * Function Name: PWM_CHARGE_WriteCompareBuf
 933:Generated_Source\PSoC4/PWM_CHARGE.c **** ********************************************************************************
 934:Generated_Source\PSoC4/PWM_CHARGE.c **** *
 935:Generated_Source\PSoC4/PWM_CHARGE.c **** * Summary:
 936:Generated_Source\PSoC4/PWM_CHARGE.c **** *  Writes the 16 bit compare buffer register with the new compare value. Not
 937:Generated_Source\PSoC4/PWM_CHARGE.c **** *  applicable for Timer/Counter with Capture or in Quadrature Decoder modes.
 938:Generated_Source\PSoC4/PWM_CHARGE.c **** *
 939:Generated_Source\PSoC4/PWM_CHARGE.c **** * Parameters:
 940:Generated_Source\PSoC4/PWM_CHARGE.c **** *  compareBuf: Compare value
 941:Generated_Source\PSoC4/PWM_CHARGE.c **** *
 942:Generated_Source\PSoC4/PWM_CHARGE.c **** * Return:
 943:Generated_Source\PSoC4/PWM_CHARGE.c **** *  None
 944:Generated_Source\PSoC4/PWM_CHARGE.c **** *
 945:Generated_Source\PSoC4/PWM_CHARGE.c **** * Note:
 946:Generated_Source\PSoC4/PWM_CHARGE.c **** *  It is not recommended to use the value equal to "0" or equal to 
ARM GAS  C:\Users\ilya\AppData\Local\Temp\cc391SdI.s 			page 19


 947:Generated_Source\PSoC4/PWM_CHARGE.c **** *  "period value" in Center or Asymmetric align PWM modes on the 
 948:Generated_Source\PSoC4/PWM_CHARGE.c **** *  PSoC 4100/PSoC 4200 devices.
 949:Generated_Source\PSoC4/PWM_CHARGE.c **** *  PSoC 4000 devices write the 16 bit compare register with the decremented 
 950:Generated_Source\PSoC4/PWM_CHARGE.c **** *  compare value in the Up counting mode (except 0x0u), and the incremented 
 951:Generated_Source\PSoC4/PWM_CHARGE.c **** *  compare value in the Down counting mode (except 0xFFFFu).
 952:Generated_Source\PSoC4/PWM_CHARGE.c **** *
 953:Generated_Source\PSoC4/PWM_CHARGE.c **** *******************************************************************************/
 954:Generated_Source\PSoC4/PWM_CHARGE.c **** void PWM_CHARGE_WriteCompareBuf(uint32 compareBuf)
 955:Generated_Source\PSoC4/PWM_CHARGE.c **** {
 956:Generated_Source\PSoC4/PWM_CHARGE.c ****     #if (PWM_CHARGE_CY_TCPWM_4000)
 957:Generated_Source\PSoC4/PWM_CHARGE.c ****         uint32 currentMode;
 958:Generated_Source\PSoC4/PWM_CHARGE.c ****     #endif /* (PWM_CHARGE_CY_TCPWM_4000) */
 959:Generated_Source\PSoC4/PWM_CHARGE.c **** 
 960:Generated_Source\PSoC4/PWM_CHARGE.c ****     #if (PWM_CHARGE_CY_TCPWM_4000)
 961:Generated_Source\PSoC4/PWM_CHARGE.c ****         currentMode = ((PWM_CHARGE_CONTROL_REG & PWM_CHARGE_UPDOWN_MASK) >> PWM_CHARGE_UPDOWN_SHIFT
 962:Generated_Source\PSoC4/PWM_CHARGE.c **** 
 963:Generated_Source\PSoC4/PWM_CHARGE.c ****         if (((uint32)PWM_CHARGE__COUNT_DOWN == currentMode) && (0xFFFFu != compareBuf))
 964:Generated_Source\PSoC4/PWM_CHARGE.c ****         {
 965:Generated_Source\PSoC4/PWM_CHARGE.c ****             compareBuf++;
 966:Generated_Source\PSoC4/PWM_CHARGE.c ****         }
 967:Generated_Source\PSoC4/PWM_CHARGE.c ****         else if (((uint32)PWM_CHARGE__COUNT_UP == currentMode) && (0u != compareBuf))
 968:Generated_Source\PSoC4/PWM_CHARGE.c ****         {
 969:Generated_Source\PSoC4/PWM_CHARGE.c ****             compareBuf --;
 970:Generated_Source\PSoC4/PWM_CHARGE.c ****         }
 971:Generated_Source\PSoC4/PWM_CHARGE.c ****         else
 972:Generated_Source\PSoC4/PWM_CHARGE.c ****         {
 973:Generated_Source\PSoC4/PWM_CHARGE.c ****         }
 974:Generated_Source\PSoC4/PWM_CHARGE.c ****     #endif /* (PWM_CHARGE_CY_TCPWM_4000) */
 975:Generated_Source\PSoC4/PWM_CHARGE.c ****     
 976:Generated_Source\PSoC4/PWM_CHARGE.c ****     PWM_CHARGE_COMP_CAP_BUF_REG = (compareBuf & PWM_CHARGE_16BIT_MASK);
 977:Generated_Source\PSoC4/PWM_CHARGE.c **** }
 978:Generated_Source\PSoC4/PWM_CHARGE.c **** 
 979:Generated_Source\PSoC4/PWM_CHARGE.c **** 
 980:Generated_Source\PSoC4/PWM_CHARGE.c **** /*******************************************************************************
 981:Generated_Source\PSoC4/PWM_CHARGE.c **** * Function Name: PWM_CHARGE_ReadCompareBuf
 982:Generated_Source\PSoC4/PWM_CHARGE.c **** ********************************************************************************
 983:Generated_Source\PSoC4/PWM_CHARGE.c **** *
 984:Generated_Source\PSoC4/PWM_CHARGE.c **** * Summary:
 985:Generated_Source\PSoC4/PWM_CHARGE.c **** *  Reads the compare buffer register. Not applicable for Timer/Counter with
 986:Generated_Source\PSoC4/PWM_CHARGE.c **** *  Capture or in Quadrature Decoder modes.
 987:Generated_Source\PSoC4/PWM_CHARGE.c **** *
 988:Generated_Source\PSoC4/PWM_CHARGE.c **** * Parameters:
 989:Generated_Source\PSoC4/PWM_CHARGE.c **** *  None
 990:Generated_Source\PSoC4/PWM_CHARGE.c **** *
 991:Generated_Source\PSoC4/PWM_CHARGE.c **** * Return:
 992:Generated_Source\PSoC4/PWM_CHARGE.c **** *  Compare buffer value
 993:Generated_Source\PSoC4/PWM_CHARGE.c **** *
 994:Generated_Source\PSoC4/PWM_CHARGE.c **** * Note:
 995:Generated_Source\PSoC4/PWM_CHARGE.c **** *  PSoC 4000 devices read the incremented compare register value in the 
 996:Generated_Source\PSoC4/PWM_CHARGE.c **** *  Up counting mode (except 0xFFFFu), and the decremented value in the 
 997:Generated_Source\PSoC4/PWM_CHARGE.c **** *  Down counting mode (except 0x0u).
 998:Generated_Source\PSoC4/PWM_CHARGE.c **** *
 999:Generated_Source\PSoC4/PWM_CHARGE.c **** *******************************************************************************/
1000:Generated_Source\PSoC4/PWM_CHARGE.c **** uint32 PWM_CHARGE_ReadCompareBuf(void)
1001:Generated_Source\PSoC4/PWM_CHARGE.c **** {
1002:Generated_Source\PSoC4/PWM_CHARGE.c ****     #if (PWM_CHARGE_CY_TCPWM_4000)
1003:Generated_Source\PSoC4/PWM_CHARGE.c ****         uint32 currentMode;
ARM GAS  C:\Users\ilya\AppData\Local\Temp\cc391SdI.s 			page 20


1004:Generated_Source\PSoC4/PWM_CHARGE.c ****         uint32 regVal;
1005:Generated_Source\PSoC4/PWM_CHARGE.c ****     #endif /* (PWM_CHARGE_CY_TCPWM_4000) */
1006:Generated_Source\PSoC4/PWM_CHARGE.c **** 
1007:Generated_Source\PSoC4/PWM_CHARGE.c ****     #if (PWM_CHARGE_CY_TCPWM_4000)
1008:Generated_Source\PSoC4/PWM_CHARGE.c ****         currentMode = ((PWM_CHARGE_CONTROL_REG & PWM_CHARGE_UPDOWN_MASK) >> PWM_CHARGE_UPDOWN_SHIFT
1009:Generated_Source\PSoC4/PWM_CHARGE.c **** 
1010:Generated_Source\PSoC4/PWM_CHARGE.c ****         regVal = PWM_CHARGE_COMP_CAP_BUF_REG;
1011:Generated_Source\PSoC4/PWM_CHARGE.c ****         
1012:Generated_Source\PSoC4/PWM_CHARGE.c ****         if (((uint32)PWM_CHARGE__COUNT_DOWN == currentMode) && (0u != regVal))
1013:Generated_Source\PSoC4/PWM_CHARGE.c ****         {
1014:Generated_Source\PSoC4/PWM_CHARGE.c ****             regVal--;
1015:Generated_Source\PSoC4/PWM_CHARGE.c ****         }
1016:Generated_Source\PSoC4/PWM_CHARGE.c ****         else if (((uint32)PWM_CHARGE__COUNT_UP == currentMode) && (0xFFFFu != regVal))
1017:Generated_Source\PSoC4/PWM_CHARGE.c ****         {
1018:Generated_Source\PSoC4/PWM_CHARGE.c ****             regVal++;
1019:Generated_Source\PSoC4/PWM_CHARGE.c ****         }
1020:Generated_Source\PSoC4/PWM_CHARGE.c ****         else
1021:Generated_Source\PSoC4/PWM_CHARGE.c ****         {
1022:Generated_Source\PSoC4/PWM_CHARGE.c ****         }
1023:Generated_Source\PSoC4/PWM_CHARGE.c **** 
1024:Generated_Source\PSoC4/PWM_CHARGE.c ****         return (regVal & PWM_CHARGE_16BIT_MASK);
1025:Generated_Source\PSoC4/PWM_CHARGE.c ****     #else
1026:Generated_Source\PSoC4/PWM_CHARGE.c ****         return (PWM_CHARGE_COMP_CAP_BUF_REG & PWM_CHARGE_16BIT_MASK);
1027:Generated_Source\PSoC4/PWM_CHARGE.c ****     #endif /* (PWM_CHARGE_CY_TCPWM_4000) */
1028:Generated_Source\PSoC4/PWM_CHARGE.c **** }
1029:Generated_Source\PSoC4/PWM_CHARGE.c **** 
1030:Generated_Source\PSoC4/PWM_CHARGE.c **** 
1031:Generated_Source\PSoC4/PWM_CHARGE.c **** /*******************************************************************************
1032:Generated_Source\PSoC4/PWM_CHARGE.c **** * Function Name: PWM_CHARGE_ReadCapture
1033:Generated_Source\PSoC4/PWM_CHARGE.c **** ********************************************************************************
1034:Generated_Source\PSoC4/PWM_CHARGE.c **** *
1035:Generated_Source\PSoC4/PWM_CHARGE.c **** * Summary:
1036:Generated_Source\PSoC4/PWM_CHARGE.c **** *  Reads the captured counter value. This API is applicable only for
1037:Generated_Source\PSoC4/PWM_CHARGE.c **** *  Timer/Counter with the capture mode and Quadrature Decoder modes.
1038:Generated_Source\PSoC4/PWM_CHARGE.c **** *
1039:Generated_Source\PSoC4/PWM_CHARGE.c **** * Parameters:
1040:Generated_Source\PSoC4/PWM_CHARGE.c **** *  None
1041:Generated_Source\PSoC4/PWM_CHARGE.c **** *
1042:Generated_Source\PSoC4/PWM_CHARGE.c **** * Return:
1043:Generated_Source\PSoC4/PWM_CHARGE.c **** *  Capture value
1044:Generated_Source\PSoC4/PWM_CHARGE.c **** *
1045:Generated_Source\PSoC4/PWM_CHARGE.c **** *******************************************************************************/
1046:Generated_Source\PSoC4/PWM_CHARGE.c **** uint32 PWM_CHARGE_ReadCapture(void)
1047:Generated_Source\PSoC4/PWM_CHARGE.c **** {
1048:Generated_Source\PSoC4/PWM_CHARGE.c ****     return (PWM_CHARGE_COMP_CAP_REG & PWM_CHARGE_16BIT_MASK);
1049:Generated_Source\PSoC4/PWM_CHARGE.c **** }
1050:Generated_Source\PSoC4/PWM_CHARGE.c **** 
1051:Generated_Source\PSoC4/PWM_CHARGE.c **** 
1052:Generated_Source\PSoC4/PWM_CHARGE.c **** /*******************************************************************************
1053:Generated_Source\PSoC4/PWM_CHARGE.c **** * Function Name: PWM_CHARGE_ReadCaptureBuf
1054:Generated_Source\PSoC4/PWM_CHARGE.c **** ********************************************************************************
1055:Generated_Source\PSoC4/PWM_CHARGE.c **** *
1056:Generated_Source\PSoC4/PWM_CHARGE.c **** * Summary:
1057:Generated_Source\PSoC4/PWM_CHARGE.c **** *  Reads the capture buffer register. This API is applicable only for
1058:Generated_Source\PSoC4/PWM_CHARGE.c **** *  Timer/Counter with the capture mode and Quadrature Decoder modes.
1059:Generated_Source\PSoC4/PWM_CHARGE.c **** *
1060:Generated_Source\PSoC4/PWM_CHARGE.c **** * Parameters:
ARM GAS  C:\Users\ilya\AppData\Local\Temp\cc391SdI.s 			page 21


1061:Generated_Source\PSoC4/PWM_CHARGE.c **** *  None
1062:Generated_Source\PSoC4/PWM_CHARGE.c **** *
1063:Generated_Source\PSoC4/PWM_CHARGE.c **** * Return:
1064:Generated_Source\PSoC4/PWM_CHARGE.c **** *  Capture buffer value
1065:Generated_Source\PSoC4/PWM_CHARGE.c **** *
1066:Generated_Source\PSoC4/PWM_CHARGE.c **** *******************************************************************************/
1067:Generated_Source\PSoC4/PWM_CHARGE.c **** uint32 PWM_CHARGE_ReadCaptureBuf(void)
1068:Generated_Source\PSoC4/PWM_CHARGE.c **** {
1069:Generated_Source\PSoC4/PWM_CHARGE.c ****     return (PWM_CHARGE_COMP_CAP_BUF_REG & PWM_CHARGE_16BIT_MASK);
1070:Generated_Source\PSoC4/PWM_CHARGE.c **** }
1071:Generated_Source\PSoC4/PWM_CHARGE.c **** 
1072:Generated_Source\PSoC4/PWM_CHARGE.c **** 
1073:Generated_Source\PSoC4/PWM_CHARGE.c **** /*******************************************************************************
1074:Generated_Source\PSoC4/PWM_CHARGE.c **** * Function Name: PWM_CHARGE_SetCaptureMode
1075:Generated_Source\PSoC4/PWM_CHARGE.c **** ********************************************************************************
1076:Generated_Source\PSoC4/PWM_CHARGE.c **** *
1077:Generated_Source\PSoC4/PWM_CHARGE.c **** * Summary:
1078:Generated_Source\PSoC4/PWM_CHARGE.c **** *  Sets the capture trigger mode. For PWM mode this is the switch input.
1079:Generated_Source\PSoC4/PWM_CHARGE.c **** *  This input is not applicable to the Timer/Counter without Capture and
1080:Generated_Source\PSoC4/PWM_CHARGE.c **** *  Quadrature Decoder modes.
1081:Generated_Source\PSoC4/PWM_CHARGE.c **** *
1082:Generated_Source\PSoC4/PWM_CHARGE.c **** * Parameters:
1083:Generated_Source\PSoC4/PWM_CHARGE.c **** *  triggerMode: Enumerated trigger mode value
1084:Generated_Source\PSoC4/PWM_CHARGE.c **** *   Values:
1085:Generated_Source\PSoC4/PWM_CHARGE.c **** *     - PWM_CHARGE_TRIG_LEVEL     - Level
1086:Generated_Source\PSoC4/PWM_CHARGE.c **** *     - PWM_CHARGE_TRIG_RISING    - Rising edge
1087:Generated_Source\PSoC4/PWM_CHARGE.c **** *     - PWM_CHARGE_TRIG_FALLING   - Falling edge
1088:Generated_Source\PSoC4/PWM_CHARGE.c **** *     - PWM_CHARGE_TRIG_BOTH      - Both rising and falling edge
1089:Generated_Source\PSoC4/PWM_CHARGE.c **** *
1090:Generated_Source\PSoC4/PWM_CHARGE.c **** * Return:
1091:Generated_Source\PSoC4/PWM_CHARGE.c **** *  None
1092:Generated_Source\PSoC4/PWM_CHARGE.c **** *
1093:Generated_Source\PSoC4/PWM_CHARGE.c **** *******************************************************************************/
1094:Generated_Source\PSoC4/PWM_CHARGE.c **** void PWM_CHARGE_SetCaptureMode(uint32 triggerMode)
1095:Generated_Source\PSoC4/PWM_CHARGE.c **** {
1096:Generated_Source\PSoC4/PWM_CHARGE.c ****     uint8 enableInterrupts;
1097:Generated_Source\PSoC4/PWM_CHARGE.c **** 
1098:Generated_Source\PSoC4/PWM_CHARGE.c ****     enableInterrupts = CyEnterCriticalSection();
1099:Generated_Source\PSoC4/PWM_CHARGE.c **** 
1100:Generated_Source\PSoC4/PWM_CHARGE.c ****     PWM_CHARGE_TRIG_CONTROL1_REG &= (uint32)~PWM_CHARGE_CAPTURE_MASK;
1101:Generated_Source\PSoC4/PWM_CHARGE.c ****     PWM_CHARGE_TRIG_CONTROL1_REG |= triggerMode;
1102:Generated_Source\PSoC4/PWM_CHARGE.c **** 
1103:Generated_Source\PSoC4/PWM_CHARGE.c ****     CyExitCriticalSection(enableInterrupts);
1104:Generated_Source\PSoC4/PWM_CHARGE.c **** }
1105:Generated_Source\PSoC4/PWM_CHARGE.c **** 
1106:Generated_Source\PSoC4/PWM_CHARGE.c **** 
1107:Generated_Source\PSoC4/PWM_CHARGE.c **** /*******************************************************************************
1108:Generated_Source\PSoC4/PWM_CHARGE.c **** * Function Name: PWM_CHARGE_SetReloadMode
1109:Generated_Source\PSoC4/PWM_CHARGE.c **** ********************************************************************************
1110:Generated_Source\PSoC4/PWM_CHARGE.c **** *
1111:Generated_Source\PSoC4/PWM_CHARGE.c **** * Summary:
1112:Generated_Source\PSoC4/PWM_CHARGE.c **** *  Sets the reload trigger mode. For Quadrature Decoder mode this is the index
1113:Generated_Source\PSoC4/PWM_CHARGE.c **** *  input.
1114:Generated_Source\PSoC4/PWM_CHARGE.c **** *
1115:Generated_Source\PSoC4/PWM_CHARGE.c **** * Parameters:
1116:Generated_Source\PSoC4/PWM_CHARGE.c **** *  triggerMode: Enumerated trigger mode value
1117:Generated_Source\PSoC4/PWM_CHARGE.c **** *   Values:
ARM GAS  C:\Users\ilya\AppData\Local\Temp\cc391SdI.s 			page 22


1118:Generated_Source\PSoC4/PWM_CHARGE.c **** *     - PWM_CHARGE_TRIG_LEVEL     - Level
1119:Generated_Source\PSoC4/PWM_CHARGE.c **** *     - PWM_CHARGE_TRIG_RISING    - Rising edge
1120:Generated_Source\PSoC4/PWM_CHARGE.c **** *     - PWM_CHARGE_TRIG_FALLING   - Falling edge
1121:Generated_Source\PSoC4/PWM_CHARGE.c **** *     - PWM_CHARGE_TRIG_BOTH      - Both rising and falling edge
1122:Generated_Source\PSoC4/PWM_CHARGE.c **** *
1123:Generated_Source\PSoC4/PWM_CHARGE.c **** * Return:
1124:Generated_Source\PSoC4/PWM_CHARGE.c **** *  None
1125:Generated_Source\PSoC4/PWM_CHARGE.c **** *
1126:Generated_Source\PSoC4/PWM_CHARGE.c **** *******************************************************************************/
1127:Generated_Source\PSoC4/PWM_CHARGE.c **** void PWM_CHARGE_SetReloadMode(uint32 triggerMode)
1128:Generated_Source\PSoC4/PWM_CHARGE.c **** {
1129:Generated_Source\PSoC4/PWM_CHARGE.c ****     uint8 enableInterrupts;
1130:Generated_Source\PSoC4/PWM_CHARGE.c **** 
1131:Generated_Source\PSoC4/PWM_CHARGE.c ****     enableInterrupts = CyEnterCriticalSection();
1132:Generated_Source\PSoC4/PWM_CHARGE.c **** 
1133:Generated_Source\PSoC4/PWM_CHARGE.c ****     PWM_CHARGE_TRIG_CONTROL1_REG &= (uint32)~PWM_CHARGE_RELOAD_MASK;
1134:Generated_Source\PSoC4/PWM_CHARGE.c ****     PWM_CHARGE_TRIG_CONTROL1_REG |= ((uint32)(triggerMode << PWM_CHARGE_RELOAD_SHIFT));
1135:Generated_Source\PSoC4/PWM_CHARGE.c **** 
1136:Generated_Source\PSoC4/PWM_CHARGE.c ****     CyExitCriticalSection(enableInterrupts);
1137:Generated_Source\PSoC4/PWM_CHARGE.c **** }
1138:Generated_Source\PSoC4/PWM_CHARGE.c **** 
1139:Generated_Source\PSoC4/PWM_CHARGE.c **** 
1140:Generated_Source\PSoC4/PWM_CHARGE.c **** /*******************************************************************************
1141:Generated_Source\PSoC4/PWM_CHARGE.c **** * Function Name: PWM_CHARGE_SetStartMode
1142:Generated_Source\PSoC4/PWM_CHARGE.c **** ********************************************************************************
1143:Generated_Source\PSoC4/PWM_CHARGE.c **** *
1144:Generated_Source\PSoC4/PWM_CHARGE.c **** * Summary:
1145:Generated_Source\PSoC4/PWM_CHARGE.c **** *  Sets the start trigger mode. For Quadrature Decoder mode this is the
1146:Generated_Source\PSoC4/PWM_CHARGE.c **** *  phiB input.
1147:Generated_Source\PSoC4/PWM_CHARGE.c **** *
1148:Generated_Source\PSoC4/PWM_CHARGE.c **** * Parameters:
1149:Generated_Source\PSoC4/PWM_CHARGE.c **** *  triggerMode: Enumerated trigger mode value
1150:Generated_Source\PSoC4/PWM_CHARGE.c **** *   Values:
1151:Generated_Source\PSoC4/PWM_CHARGE.c **** *     - PWM_CHARGE_TRIG_LEVEL     - Level
1152:Generated_Source\PSoC4/PWM_CHARGE.c **** *     - PWM_CHARGE_TRIG_RISING    - Rising edge
1153:Generated_Source\PSoC4/PWM_CHARGE.c **** *     - PWM_CHARGE_TRIG_FALLING   - Falling edge
1154:Generated_Source\PSoC4/PWM_CHARGE.c **** *     - PWM_CHARGE_TRIG_BOTH      - Both rising and falling edge
1155:Generated_Source\PSoC4/PWM_CHARGE.c **** *
1156:Generated_Source\PSoC4/PWM_CHARGE.c **** * Return:
1157:Generated_Source\PSoC4/PWM_CHARGE.c **** *  None
1158:Generated_Source\PSoC4/PWM_CHARGE.c **** *
1159:Generated_Source\PSoC4/PWM_CHARGE.c **** *******************************************************************************/
1160:Generated_Source\PSoC4/PWM_CHARGE.c **** void PWM_CHARGE_SetStartMode(uint32 triggerMode)
1161:Generated_Source\PSoC4/PWM_CHARGE.c **** {
1162:Generated_Source\PSoC4/PWM_CHARGE.c ****     uint8 enableInterrupts;
1163:Generated_Source\PSoC4/PWM_CHARGE.c **** 
1164:Generated_Source\PSoC4/PWM_CHARGE.c ****     enableInterrupts = CyEnterCriticalSection();
1165:Generated_Source\PSoC4/PWM_CHARGE.c **** 
1166:Generated_Source\PSoC4/PWM_CHARGE.c ****     PWM_CHARGE_TRIG_CONTROL1_REG &= (uint32)~PWM_CHARGE_START_MASK;
1167:Generated_Source\PSoC4/PWM_CHARGE.c ****     PWM_CHARGE_TRIG_CONTROL1_REG |= ((uint32)(triggerMode << PWM_CHARGE_START_SHIFT));
1168:Generated_Source\PSoC4/PWM_CHARGE.c **** 
1169:Generated_Source\PSoC4/PWM_CHARGE.c ****     CyExitCriticalSection(enableInterrupts);
1170:Generated_Source\PSoC4/PWM_CHARGE.c **** }
1171:Generated_Source\PSoC4/PWM_CHARGE.c **** 
1172:Generated_Source\PSoC4/PWM_CHARGE.c **** 
1173:Generated_Source\PSoC4/PWM_CHARGE.c **** /*******************************************************************************
1174:Generated_Source\PSoC4/PWM_CHARGE.c **** * Function Name: PWM_CHARGE_SetStopMode
ARM GAS  C:\Users\ilya\AppData\Local\Temp\cc391SdI.s 			page 23


1175:Generated_Source\PSoC4/PWM_CHARGE.c **** ********************************************************************************
1176:Generated_Source\PSoC4/PWM_CHARGE.c **** *
1177:Generated_Source\PSoC4/PWM_CHARGE.c **** * Summary:
1178:Generated_Source\PSoC4/PWM_CHARGE.c **** *  Sets the stop trigger mode. For PWM mode this is the kill input.
1179:Generated_Source\PSoC4/PWM_CHARGE.c **** *
1180:Generated_Source\PSoC4/PWM_CHARGE.c **** * Parameters:
1181:Generated_Source\PSoC4/PWM_CHARGE.c **** *  triggerMode: Enumerated trigger mode value
1182:Generated_Source\PSoC4/PWM_CHARGE.c **** *   Values:
1183:Generated_Source\PSoC4/PWM_CHARGE.c **** *     - PWM_CHARGE_TRIG_LEVEL     - Level
1184:Generated_Source\PSoC4/PWM_CHARGE.c **** *     - PWM_CHARGE_TRIG_RISING    - Rising edge
1185:Generated_Source\PSoC4/PWM_CHARGE.c **** *     - PWM_CHARGE_TRIG_FALLING   - Falling edge
1186:Generated_Source\PSoC4/PWM_CHARGE.c **** *     - PWM_CHARGE_TRIG_BOTH      - Both rising and falling edge
1187:Generated_Source\PSoC4/PWM_CHARGE.c **** *
1188:Generated_Source\PSoC4/PWM_CHARGE.c **** * Return:
1189:Generated_Source\PSoC4/PWM_CHARGE.c **** *  None
1190:Generated_Source\PSoC4/PWM_CHARGE.c **** *
1191:Generated_Source\PSoC4/PWM_CHARGE.c **** *******************************************************************************/
1192:Generated_Source\PSoC4/PWM_CHARGE.c **** void PWM_CHARGE_SetStopMode(uint32 triggerMode)
1193:Generated_Source\PSoC4/PWM_CHARGE.c **** {
1194:Generated_Source\PSoC4/PWM_CHARGE.c ****     uint8 enableInterrupts;
1195:Generated_Source\PSoC4/PWM_CHARGE.c **** 
1196:Generated_Source\PSoC4/PWM_CHARGE.c ****     enableInterrupts = CyEnterCriticalSection();
1197:Generated_Source\PSoC4/PWM_CHARGE.c **** 
1198:Generated_Source\PSoC4/PWM_CHARGE.c ****     PWM_CHARGE_TRIG_CONTROL1_REG &= (uint32)~PWM_CHARGE_STOP_MASK;
1199:Generated_Source\PSoC4/PWM_CHARGE.c ****     PWM_CHARGE_TRIG_CONTROL1_REG |= ((uint32)(triggerMode << PWM_CHARGE_STOP_SHIFT));
1200:Generated_Source\PSoC4/PWM_CHARGE.c **** 
1201:Generated_Source\PSoC4/PWM_CHARGE.c ****     CyExitCriticalSection(enableInterrupts);
1202:Generated_Source\PSoC4/PWM_CHARGE.c **** }
1203:Generated_Source\PSoC4/PWM_CHARGE.c **** 
1204:Generated_Source\PSoC4/PWM_CHARGE.c **** 
1205:Generated_Source\PSoC4/PWM_CHARGE.c **** /*******************************************************************************
1206:Generated_Source\PSoC4/PWM_CHARGE.c **** * Function Name: PWM_CHARGE_SetCountMode
1207:Generated_Source\PSoC4/PWM_CHARGE.c **** ********************************************************************************
1208:Generated_Source\PSoC4/PWM_CHARGE.c **** *
1209:Generated_Source\PSoC4/PWM_CHARGE.c **** * Summary:
1210:Generated_Source\PSoC4/PWM_CHARGE.c **** *  Sets the count trigger mode. For Quadrature Decoder mode this is the phiA
1211:Generated_Source\PSoC4/PWM_CHARGE.c **** *  input.
1212:Generated_Source\PSoC4/PWM_CHARGE.c **** *
1213:Generated_Source\PSoC4/PWM_CHARGE.c **** * Parameters:
1214:Generated_Source\PSoC4/PWM_CHARGE.c **** *  triggerMode: Enumerated trigger mode value
1215:Generated_Source\PSoC4/PWM_CHARGE.c **** *   Values:
1216:Generated_Source\PSoC4/PWM_CHARGE.c **** *     - PWM_CHARGE_TRIG_LEVEL     - Level
1217:Generated_Source\PSoC4/PWM_CHARGE.c **** *     - PWM_CHARGE_TRIG_RISING    - Rising edge
1218:Generated_Source\PSoC4/PWM_CHARGE.c **** *     - PWM_CHARGE_TRIG_FALLING   - Falling edge
1219:Generated_Source\PSoC4/PWM_CHARGE.c **** *     - PWM_CHARGE_TRIG_BOTH      - Both rising and falling edge
1220:Generated_Source\PSoC4/PWM_CHARGE.c **** *
1221:Generated_Source\PSoC4/PWM_CHARGE.c **** * Return:
1222:Generated_Source\PSoC4/PWM_CHARGE.c **** *  None
1223:Generated_Source\PSoC4/PWM_CHARGE.c **** *
1224:Generated_Source\PSoC4/PWM_CHARGE.c **** *******************************************************************************/
1225:Generated_Source\PSoC4/PWM_CHARGE.c **** void PWM_CHARGE_SetCountMode(uint32 triggerMode)
1226:Generated_Source\PSoC4/PWM_CHARGE.c **** {
1227:Generated_Source\PSoC4/PWM_CHARGE.c ****     uint8 enableInterrupts;
1228:Generated_Source\PSoC4/PWM_CHARGE.c **** 
1229:Generated_Source\PSoC4/PWM_CHARGE.c ****     enableInterrupts = CyEnterCriticalSection();
1230:Generated_Source\PSoC4/PWM_CHARGE.c **** 
1231:Generated_Source\PSoC4/PWM_CHARGE.c ****     PWM_CHARGE_TRIG_CONTROL1_REG &= (uint32)~PWM_CHARGE_COUNT_MASK;
ARM GAS  C:\Users\ilya\AppData\Local\Temp\cc391SdI.s 			page 24


1232:Generated_Source\PSoC4/PWM_CHARGE.c ****     PWM_CHARGE_TRIG_CONTROL1_REG |= ((uint32)(triggerMode << PWM_CHARGE_COUNT_SHIFT));
1233:Generated_Source\PSoC4/PWM_CHARGE.c **** 
1234:Generated_Source\PSoC4/PWM_CHARGE.c ****     CyExitCriticalSection(enableInterrupts);
1235:Generated_Source\PSoC4/PWM_CHARGE.c **** }
1236:Generated_Source\PSoC4/PWM_CHARGE.c **** 
1237:Generated_Source\PSoC4/PWM_CHARGE.c **** 
1238:Generated_Source\PSoC4/PWM_CHARGE.c **** /*******************************************************************************
1239:Generated_Source\PSoC4/PWM_CHARGE.c **** * Function Name: PWM_CHARGE_TriggerCommand
1240:Generated_Source\PSoC4/PWM_CHARGE.c **** ********************************************************************************
1241:Generated_Source\PSoC4/PWM_CHARGE.c **** *
1242:Generated_Source\PSoC4/PWM_CHARGE.c **** * Summary:
1243:Generated_Source\PSoC4/PWM_CHARGE.c **** *  Triggers the designated command to occur on the designated TCPWM instances.
1244:Generated_Source\PSoC4/PWM_CHARGE.c **** *  The mask can be used to apply this command simultaneously to more than one
1245:Generated_Source\PSoC4/PWM_CHARGE.c **** *  instance.  This allows multiple TCPWM instances to be synchronized.
1246:Generated_Source\PSoC4/PWM_CHARGE.c **** *
1247:Generated_Source\PSoC4/PWM_CHARGE.c **** * Parameters:
1248:Generated_Source\PSoC4/PWM_CHARGE.c **** *  mask: A combination of mask bits for each instance of the TCPWM that the
1249:Generated_Source\PSoC4/PWM_CHARGE.c **** *        command should apply to.  This function from one instance can be used
1250:Generated_Source\PSoC4/PWM_CHARGE.c **** *        to apply the command to any of the instances in the design.
1251:Generated_Source\PSoC4/PWM_CHARGE.c **** *        The mask value for a specific instance is available with the MASK
1252:Generated_Source\PSoC4/PWM_CHARGE.c **** *        define.
1253:Generated_Source\PSoC4/PWM_CHARGE.c **** *  command: Enumerated command values. Capture command only applicable for
1254:Generated_Source\PSoC4/PWM_CHARGE.c **** *           Timer/Counter with Capture and PWM modes.
1255:Generated_Source\PSoC4/PWM_CHARGE.c **** *   Values:
1256:Generated_Source\PSoC4/PWM_CHARGE.c **** *     - PWM_CHARGE_CMD_CAPTURE    - Trigger Capture/Switch command
1257:Generated_Source\PSoC4/PWM_CHARGE.c **** *     - PWM_CHARGE_CMD_RELOAD     - Trigger Reload/Index command
1258:Generated_Source\PSoC4/PWM_CHARGE.c **** *     - PWM_CHARGE_CMD_STOP       - Trigger Stop/Kill command
1259:Generated_Source\PSoC4/PWM_CHARGE.c **** *     - PWM_CHARGE_CMD_START      - Trigger Start/phiB command
1260:Generated_Source\PSoC4/PWM_CHARGE.c **** *
1261:Generated_Source\PSoC4/PWM_CHARGE.c **** * Return:
1262:Generated_Source\PSoC4/PWM_CHARGE.c **** *  None
1263:Generated_Source\PSoC4/PWM_CHARGE.c **** *
1264:Generated_Source\PSoC4/PWM_CHARGE.c **** *******************************************************************************/
1265:Generated_Source\PSoC4/PWM_CHARGE.c **** void PWM_CHARGE_TriggerCommand(uint32 mask, uint32 command)
1266:Generated_Source\PSoC4/PWM_CHARGE.c **** {
1267:Generated_Source\PSoC4/PWM_CHARGE.c ****     uint8 enableInterrupts;
1268:Generated_Source\PSoC4/PWM_CHARGE.c **** 
1269:Generated_Source\PSoC4/PWM_CHARGE.c ****     enableInterrupts = CyEnterCriticalSection();
1270:Generated_Source\PSoC4/PWM_CHARGE.c **** 
1271:Generated_Source\PSoC4/PWM_CHARGE.c ****     PWM_CHARGE_COMMAND_REG = ((uint32)(mask << command));
1272:Generated_Source\PSoC4/PWM_CHARGE.c **** 
1273:Generated_Source\PSoC4/PWM_CHARGE.c ****     CyExitCriticalSection(enableInterrupts);
1274:Generated_Source\PSoC4/PWM_CHARGE.c **** }
1275:Generated_Source\PSoC4/PWM_CHARGE.c **** 
1276:Generated_Source\PSoC4/PWM_CHARGE.c **** 
1277:Generated_Source\PSoC4/PWM_CHARGE.c **** /*******************************************************************************
1278:Generated_Source\PSoC4/PWM_CHARGE.c **** * Function Name: PWM_CHARGE_ReadStatus
1279:Generated_Source\PSoC4/PWM_CHARGE.c **** ********************************************************************************
1280:Generated_Source\PSoC4/PWM_CHARGE.c **** *
1281:Generated_Source\PSoC4/PWM_CHARGE.c **** * Summary:
1282:Generated_Source\PSoC4/PWM_CHARGE.c **** *  Reads the status of the PWM_CHARGE.
1283:Generated_Source\PSoC4/PWM_CHARGE.c **** *
1284:Generated_Source\PSoC4/PWM_CHARGE.c **** * Parameters:
1285:Generated_Source\PSoC4/PWM_CHARGE.c **** *  None
1286:Generated_Source\PSoC4/PWM_CHARGE.c **** *
1287:Generated_Source\PSoC4/PWM_CHARGE.c **** * Return:
1288:Generated_Source\PSoC4/PWM_CHARGE.c **** *  Status
ARM GAS  C:\Users\ilya\AppData\Local\Temp\cc391SdI.s 			page 25


1289:Generated_Source\PSoC4/PWM_CHARGE.c **** *   Values:
1290:Generated_Source\PSoC4/PWM_CHARGE.c **** *     - PWM_CHARGE_STATUS_DOWN    - Set if counting down
1291:Generated_Source\PSoC4/PWM_CHARGE.c **** *     - PWM_CHARGE_STATUS_RUNNING - Set if counter is running
1292:Generated_Source\PSoC4/PWM_CHARGE.c **** *
1293:Generated_Source\PSoC4/PWM_CHARGE.c **** *******************************************************************************/
1294:Generated_Source\PSoC4/PWM_CHARGE.c **** uint32 PWM_CHARGE_ReadStatus(void)
1295:Generated_Source\PSoC4/PWM_CHARGE.c **** {
1296:Generated_Source\PSoC4/PWM_CHARGE.c ****     return ((PWM_CHARGE_STATUS_REG >> PWM_CHARGE_RUNNING_STATUS_SHIFT) |
1297:Generated_Source\PSoC4/PWM_CHARGE.c ****             (PWM_CHARGE_STATUS_REG & PWM_CHARGE_STATUS_DOWN));
1298:Generated_Source\PSoC4/PWM_CHARGE.c **** }
1299:Generated_Source\PSoC4/PWM_CHARGE.c **** 
1300:Generated_Source\PSoC4/PWM_CHARGE.c **** 
1301:Generated_Source\PSoC4/PWM_CHARGE.c **** /*******************************************************************************
1302:Generated_Source\PSoC4/PWM_CHARGE.c **** * Function Name: PWM_CHARGE_SetInterruptMode
1303:Generated_Source\PSoC4/PWM_CHARGE.c **** ********************************************************************************
1304:Generated_Source\PSoC4/PWM_CHARGE.c **** *
1305:Generated_Source\PSoC4/PWM_CHARGE.c **** * Summary:
1306:Generated_Source\PSoC4/PWM_CHARGE.c **** *  Sets the interrupt mask to control which interrupt
1307:Generated_Source\PSoC4/PWM_CHARGE.c **** *  requests generate the interrupt signal.
1308:Generated_Source\PSoC4/PWM_CHARGE.c **** *
1309:Generated_Source\PSoC4/PWM_CHARGE.c **** * Parameters:
1310:Generated_Source\PSoC4/PWM_CHARGE.c **** *   interruptMask: Mask of bits to be enabled
1311:Generated_Source\PSoC4/PWM_CHARGE.c **** *   Values:
1312:Generated_Source\PSoC4/PWM_CHARGE.c **** *     - PWM_CHARGE_INTR_MASK_TC       - Terminal count mask
1313:Generated_Source\PSoC4/PWM_CHARGE.c **** *     - PWM_CHARGE_INTR_MASK_CC_MATCH - Compare count / capture mask
1314:Generated_Source\PSoC4/PWM_CHARGE.c **** *
1315:Generated_Source\PSoC4/PWM_CHARGE.c **** * Return:
1316:Generated_Source\PSoC4/PWM_CHARGE.c **** *  None
1317:Generated_Source\PSoC4/PWM_CHARGE.c **** *
1318:Generated_Source\PSoC4/PWM_CHARGE.c **** *******************************************************************************/
1319:Generated_Source\PSoC4/PWM_CHARGE.c **** void PWM_CHARGE_SetInterruptMode(uint32 interruptMask)
1320:Generated_Source\PSoC4/PWM_CHARGE.c **** {
1321:Generated_Source\PSoC4/PWM_CHARGE.c ****     PWM_CHARGE_INTERRUPT_MASK_REG =  interruptMask;
  73              		.loc 1 1321 0
  74 001e 0123     		movs	r3, #1
  75 0020 084A     		ldr	r2, .L2+12
  76 0022 1360     		str	r3, [r2]
  77              	.LVL3:
  78              	.LBE27:
  79              	.LBE26:
 129:Generated_Source\PSoC4/PWM_CHARGE.c ****             #endif  /* ( PWM_CHARGE_PWM_LEFT == PWM_CHARGE_PWM_ALIGN) */
  80              		.loc 1 129 0
  81 0024 084A     		ldr	r2, .L2+16
  82 0026 1160     		str	r1, [r2]
  83              	.LVL4:
  84              	.LBB28:
  85              	.LBB29:
 695:Generated_Source\PSoC4/PWM_CHARGE.c **** }
  86              		.loc 1 695 0
  87 0028 084A     		ldr	r2, .L2+20
  88 002a 8831     		adds	r1, r1, #136
  89 002c FF31     		adds	r1, r1, #255
  90 002e 1160     		str	r1, [r2]
  91              	.LVL5:
  92              	.LBE29:
  93              	.LBE28:
  94              	.LBB30:
ARM GAS  C:\Users\ilya\AppData\Local\Temp\cc391SdI.s 			page 26


  95              	.LBB31:
 873:Generated_Source\PSoC4/PWM_CHARGE.c **** }
  96              		.loc 1 873 0
  97 0030 074A     		ldr	r2, .L2+24
  98 0032 1360     		str	r3, [r2]
  99              	.LVL6:
 100              	.LBE31:
 101              	.LBE30:
 160:Generated_Source\PSoC4/PWM_CHARGE.c **** 
 102              		.loc 1 160 0
 103 0034 7047     		bx	lr
 104              	.L3:
 105 0036 C046     		.align	2
 106              	.L2:
 107 0038 00012040 		.word	1075839232
 108 003c 08012040 		.word	1075839240
 109 0040 24012040 		.word	1075839268
 110 0044 38012040 		.word	1075839288
 111 0048 28012040 		.word	1075839272
 112 004c 14012040 		.word	1075839252
 113 0050 0C012040 		.word	1075839244
 114              		.cfi_endproc
 115              	.LFE1:
 116              		.size	PWM_CHARGE_Init, .-PWM_CHARGE_Init
 117              		.section	.text.PWM_CHARGE_Enable,"ax",%progbits
 118              		.align	2
 119              		.global	PWM_CHARGE_Enable
 120              		.code	16
 121              		.thumb_func
 122              		.type	PWM_CHARGE_Enable, %function
 123              	PWM_CHARGE_Enable:
 124              	.LFB2:
 178:Generated_Source\PSoC4/PWM_CHARGE.c ****     uint8 enableInterrupts;
 125              		.loc 1 178 0
 126              		.cfi_startproc
 127              		@ args = 0, pretend = 0, frame = 0
 128              		@ frame_needed = 0, uses_anonymous_args = 0
 129 0000 10B5     		push	{r4, lr}
 130              		.cfi_def_cfa_offset 8
 131              		.cfi_offset 4, -8
 132              		.cfi_offset 14, -4
 181:Generated_Source\PSoC4/PWM_CHARGE.c ****     PWM_CHARGE_BLOCK_CONTROL_REG |= PWM_CHARGE_MASK;
 133              		.loc 1 181 0
 134 0002 FFF7FEFF 		bl	CyEnterCriticalSection
 135              	.LVL7:
 182:Generated_Source\PSoC4/PWM_CHARGE.c ****     CyExitCriticalSection(enableInterrupts);
 136              		.loc 1 182 0
 137 0006 0123     		movs	r3, #1
 138 0008 074A     		ldr	r2, .L5
 203:Generated_Source\PSoC4/PWM_CHARGE.c **** 
 139              		.loc 1 203 0
 140              		@ sp needed
 182:Generated_Source\PSoC4/PWM_CHARGE.c ****     CyExitCriticalSection(enableInterrupts);
 141              		.loc 1 182 0
 142 000a 1168     		ldr	r1, [r2]
 143 000c 0B43     		orrs	r3, r1
 144 000e 1360     		str	r3, [r2]
ARM GAS  C:\Users\ilya\AppData\Local\Temp\cc391SdI.s 			page 27


 183:Generated_Source\PSoC4/PWM_CHARGE.c **** 
 145              		.loc 1 183 0
 146 0010 FFF7FEFF 		bl	CyExitCriticalSection
 147              	.LVL8:
 148              	.LBB34:
 149              	.LBB35:
1269:Generated_Source\PSoC4/PWM_CHARGE.c **** 
 150              		.loc 1 1269 0
 151 0014 FFF7FEFF 		bl	CyEnterCriticalSection
 152              	.LVL9:
1271:Generated_Source\PSoC4/PWM_CHARGE.c **** 
 153              		.loc 1 1271 0
 154 0018 8022     		movs	r2, #128
 155 001a 044B     		ldr	r3, .L5+4
 156 001c 5204     		lsls	r2, r2, #17
 157 001e 1A60     		str	r2, [r3]
1273:Generated_Source\PSoC4/PWM_CHARGE.c **** }
 158              		.loc 1 1273 0
 159 0020 FFF7FEFF 		bl	CyExitCriticalSection
 160              	.LVL10:
 161              	.LBE35:
 162              	.LBE34:
 203:Generated_Source\PSoC4/PWM_CHARGE.c **** 
 163              		.loc 1 203 0
 164 0024 10BD     		pop	{r4, pc}
 165              	.L6:
 166 0026 C046     		.align	2
 167              	.L5:
 168 0028 00002040 		.word	1075838976
 169 002c 08002040 		.word	1075838984
 170              		.cfi_endproc
 171              	.LFE2:
 172              		.size	PWM_CHARGE_Enable, .-PWM_CHARGE_Enable
 173              		.section	.text.PWM_CHARGE_Start,"ax",%progbits
 174              		.align	2
 175              		.global	PWM_CHARGE_Start
 176              		.code	16
 177              		.thumb_func
 178              		.type	PWM_CHARGE_Start, %function
 179              	PWM_CHARGE_Start:
 180              	.LFB3:
 231:Generated_Source\PSoC4/PWM_CHARGE.c ****     if (0u == PWM_CHARGE_initVar)
 181              		.loc 1 231 0
 182              		.cfi_startproc
 183              		@ args = 0, pretend = 0, frame = 0
 184              		@ frame_needed = 0, uses_anonymous_args = 0
 185 0000 10B5     		push	{r4, lr}
 186              		.cfi_def_cfa_offset 8
 187              		.cfi_offset 4, -8
 188              		.cfi_offset 14, -4
 232:Generated_Source\PSoC4/PWM_CHARGE.c ****     {
 189              		.loc 1 232 0
 190 0002 184A     		ldr	r2, .L10
 191 0004 1178     		ldrb	r1, [r2]
 192 0006 0029     		cmp	r1, #0
 193 0008 19D1     		bne	.L8
 194              	.LBB50:
ARM GAS  C:\Users\ilya\AppData\Local\Temp\cc391SdI.s 			page 28


 195              	.LBB51:
  89:Generated_Source\PSoC4/PWM_CHARGE.c **** 
 196              		.loc 1 89 0
 197 000a 8020     		movs	r0, #128
 198 000c 164B     		ldr	r3, .L10+4
 199 000e C004     		lsls	r0, r0, #19
 200 0010 1860     		str	r0, [r3]
  95:Generated_Source\PSoC4/PWM_CHARGE.c ****             
 201              		.loc 1 95 0
 202 0012 1868     		ldr	r0, [r3]
 203 0014 1860     		str	r0, [r3]
 204              	.LVL11:
 205              	.LBB52:
 206              	.LBB53:
 617:Generated_Source\PSoC4/PWM_CHARGE.c **** }
 207              		.loc 1 617 0
 208 0016 1548     		ldr	r0, .L10+8
 209 0018 0160     		str	r1, [r0]
 210              	.LVL12:
 211              	.LBE53:
 212              	.LBE52:
 112:Generated_Source\PSoC4/PWM_CHARGE.c ****         #endif  /* (PWM_CHARGE__PWM == PWM_CHARGE_PWM_MODE) */
 213              		.loc 1 112 0
 214 001a 1968     		ldr	r1, [r3]
 129:Generated_Source\PSoC4/PWM_CHARGE.c ****             #endif  /* ( PWM_CHARGE_PWM_LEFT == PWM_CHARGE_PWM_ALIGN) */
 215              		.loc 1 129 0
 216 001c 3120     		movs	r0, #49
 112:Generated_Source\PSoC4/PWM_CHARGE.c ****         #endif  /* (PWM_CHARGE__PWM == PWM_CHARGE_PWM_MODE) */
 217              		.loc 1 112 0
 218 001e 1960     		str	r1, [r3]
 116:Generated_Source\PSoC4/PWM_CHARGE.c ****     
 219              		.loc 1 116 0
 220 0020 0C21     		movs	r1, #12
 221 0022 134B     		ldr	r3, .L10+12
 222 0024 1960     		str	r1, [r3]
 223              	.LVL13:
 224              	.LBB54:
 225              	.LBB55:
 226              		.loc 1 1321 0
 227 0026 0123     		movs	r3, #1
 228 0028 1249     		ldr	r1, .L10+16
 229 002a 0B60     		str	r3, [r1]
 230              	.LVL14:
 231              	.LBE55:
 232              	.LBE54:
 129:Generated_Source\PSoC4/PWM_CHARGE.c ****             #endif  /* ( PWM_CHARGE_PWM_LEFT == PWM_CHARGE_PWM_ALIGN) */
 233              		.loc 1 129 0
 234 002c 1249     		ldr	r1, .L10+20
 235 002e 0860     		str	r0, [r1]
 236              	.LVL15:
 237              	.LBB56:
 238              	.LBB57:
 695:Generated_Source\PSoC4/PWM_CHARGE.c **** }
 239              		.loc 1 695 0
 240 0030 1249     		ldr	r1, .L10+24
 241 0032 8830     		adds	r0, r0, #136
 242 0034 FF30     		adds	r0, r0, #255
ARM GAS  C:\Users\ilya\AppData\Local\Temp\cc391SdI.s 			page 29


 243 0036 0860     		str	r0, [r1]
 244              	.LVL16:
 245              	.LBE57:
 246              	.LBE56:
 247              	.LBB58:
 248              	.LBB59:
 873:Generated_Source\PSoC4/PWM_CHARGE.c **** }
 249              		.loc 1 873 0
 250 0038 1149     		ldr	r1, .L10+28
 251 003a 0B60     		str	r3, [r1]
 252              	.LVL17:
 253              	.LBE59:
 254              	.LBE58:
 255              	.LBE51:
 256              	.LBE50:
 235:Generated_Source\PSoC4/PWM_CHARGE.c ****     }
 257              		.loc 1 235 0
 258 003c 1370     		strb	r3, [r2]
 259              	.L8:
 260              	.LBB60:
 261              	.LBB61:
 181:Generated_Source\PSoC4/PWM_CHARGE.c ****     PWM_CHARGE_BLOCK_CONTROL_REG |= PWM_CHARGE_MASK;
 262              		.loc 1 181 0
 263 003e FFF7FEFF 		bl	CyEnterCriticalSection
 264              	.LVL18:
 182:Generated_Source\PSoC4/PWM_CHARGE.c ****     CyExitCriticalSection(enableInterrupts);
 265              		.loc 1 182 0
 266 0042 0123     		movs	r3, #1
 267 0044 0F4A     		ldr	r2, .L10+32
 268              	.LBE61:
 269              	.LBE60:
 239:Generated_Source\PSoC4/PWM_CHARGE.c **** 
 270              		.loc 1 239 0
 271              		@ sp needed
 272              	.LBB65:
 273              	.LBB64:
 182:Generated_Source\PSoC4/PWM_CHARGE.c ****     CyExitCriticalSection(enableInterrupts);
 274              		.loc 1 182 0
 275 0046 1168     		ldr	r1, [r2]
 276 0048 0B43     		orrs	r3, r1
 277 004a 1360     		str	r3, [r2]
 183:Generated_Source\PSoC4/PWM_CHARGE.c **** 
 278              		.loc 1 183 0
 279 004c FFF7FEFF 		bl	CyExitCriticalSection
 280              	.LVL19:
 281              	.LBB62:
 282              	.LBB63:
1269:Generated_Source\PSoC4/PWM_CHARGE.c **** 
 283              		.loc 1 1269 0
 284 0050 FFF7FEFF 		bl	CyEnterCriticalSection
 285              	.LVL20:
1271:Generated_Source\PSoC4/PWM_CHARGE.c **** 
 286              		.loc 1 1271 0
 287 0054 8022     		movs	r2, #128
 288 0056 0C4B     		ldr	r3, .L10+36
 289 0058 5204     		lsls	r2, r2, #17
 290 005a 1A60     		str	r2, [r3]
ARM GAS  C:\Users\ilya\AppData\Local\Temp\cc391SdI.s 			page 30


1273:Generated_Source\PSoC4/PWM_CHARGE.c **** }
 291              		.loc 1 1273 0
 292 005c FFF7FEFF 		bl	CyExitCriticalSection
 293              	.LVL21:
 294              	.LBE63:
 295              	.LBE62:
 296              	.LBE64:
 297              	.LBE65:
 239:Generated_Source\PSoC4/PWM_CHARGE.c **** 
 298              		.loc 1 239 0
 299 0060 10BD     		pop	{r4, pc}
 300              	.L11:
 301 0062 C046     		.align	2
 302              	.L10:
 303 0064 00000000 		.word	.LANCHOR0
 304 0068 00012040 		.word	1075839232
 305 006c 08012040 		.word	1075839240
 306 0070 24012040 		.word	1075839268
 307 0074 38012040 		.word	1075839288
 308 0078 28012040 		.word	1075839272
 309 007c 14012040 		.word	1075839252
 310 0080 0C012040 		.word	1075839244
 311 0084 00002040 		.word	1075838976
 312 0088 08002040 		.word	1075838984
 313              		.cfi_endproc
 314              	.LFE3:
 315              		.size	PWM_CHARGE_Start, .-PWM_CHARGE_Start
 316              		.section	.text.PWM_CHARGE_Stop,"ax",%progbits
 317              		.align	2
 318              		.global	PWM_CHARGE_Stop
 319              		.code	16
 320              		.thumb_func
 321              		.type	PWM_CHARGE_Stop, %function
 322              	PWM_CHARGE_Stop:
 323              	.LFB4:
 257:Generated_Source\PSoC4/PWM_CHARGE.c ****     uint8 enableInterrupts;
 324              		.loc 1 257 0
 325              		.cfi_startproc
 326              		@ args = 0, pretend = 0, frame = 0
 327              		@ frame_needed = 0, uses_anonymous_args = 0
 328 0000 10B5     		push	{r4, lr}
 329              		.cfi_def_cfa_offset 8
 330              		.cfi_offset 4, -8
 331              		.cfi_offset 14, -4
 260:Generated_Source\PSoC4/PWM_CHARGE.c **** 
 332              		.loc 1 260 0
 333 0002 FFF7FEFF 		bl	CyEnterCriticalSection
 334              	.LVL22:
 262:Generated_Source\PSoC4/PWM_CHARGE.c **** 
 335              		.loc 1 262 0
 336 0006 0121     		movs	r1, #1
 337 0008 034A     		ldr	r2, .L13
 265:Generated_Source\PSoC4/PWM_CHARGE.c **** 
 338              		.loc 1 265 0
 339              		@ sp needed
 262:Generated_Source\PSoC4/PWM_CHARGE.c **** 
 340              		.loc 1 262 0
ARM GAS  C:\Users\ilya\AppData\Local\Temp\cc391SdI.s 			page 31


 341 000a 1368     		ldr	r3, [r2]
 342 000c 8B43     		bics	r3, r1
 343 000e 1360     		str	r3, [r2]
 264:Generated_Source\PSoC4/PWM_CHARGE.c **** }
 344              		.loc 1 264 0
 345 0010 FFF7FEFF 		bl	CyExitCriticalSection
 346              	.LVL23:
 265:Generated_Source\PSoC4/PWM_CHARGE.c **** 
 347              		.loc 1 265 0
 348 0014 10BD     		pop	{r4, pc}
 349              	.L14:
 350 0016 C046     		.align	2
 351              	.L13:
 352 0018 00002040 		.word	1075838976
 353              		.cfi_endproc
 354              	.LFE4:
 355              		.size	PWM_CHARGE_Stop, .-PWM_CHARGE_Stop
 356              		.section	.text.PWM_CHARGE_SetMode,"ax",%progbits
 357              		.align	2
 358              		.global	PWM_CHARGE_SetMode
 359              		.code	16
 360              		.thumb_func
 361              		.type	PWM_CHARGE_SetMode, %function
 362              	PWM_CHARGE_SetMode:
 363              	.LFB5:
 294:Generated_Source\PSoC4/PWM_CHARGE.c ****     uint8 enableInterrupts;
 364              		.loc 1 294 0
 365              		.cfi_startproc
 366              		@ args = 0, pretend = 0, frame = 0
 367              		@ frame_needed = 0, uses_anonymous_args = 0
 368              	.LVL24:
 369 0000 10B5     		push	{r4, lr}
 370              		.cfi_def_cfa_offset 8
 371              		.cfi_offset 4, -8
 372              		.cfi_offset 14, -4
 294:Generated_Source\PSoC4/PWM_CHARGE.c ****     uint8 enableInterrupts;
 373              		.loc 1 294 0
 374 0002 0400     		movs	r4, r0
 297:Generated_Source\PSoC4/PWM_CHARGE.c **** 
 375              		.loc 1 297 0
 376 0004 FFF7FEFF 		bl	CyEnterCriticalSection
 377              	.LVL25:
 299:Generated_Source\PSoC4/PWM_CHARGE.c ****     PWM_CHARGE_CONTROL_REG |= mode;
 378              		.loc 1 299 0
 379 0008 054B     		ldr	r3, .L16
 380 000a 064A     		ldr	r2, .L16+4
 381 000c 1968     		ldr	r1, [r3]
 303:Generated_Source\PSoC4/PWM_CHARGE.c **** 
 382              		.loc 1 303 0
 383              		@ sp needed
 299:Generated_Source\PSoC4/PWM_CHARGE.c ****     PWM_CHARGE_CONTROL_REG |= mode;
 384              		.loc 1 299 0
 385 000e 0A40     		ands	r2, r1
 386 0010 1A60     		str	r2, [r3]
 300:Generated_Source\PSoC4/PWM_CHARGE.c **** 
 387              		.loc 1 300 0
 388 0012 1A68     		ldr	r2, [r3]
ARM GAS  C:\Users\ilya\AppData\Local\Temp\cc391SdI.s 			page 32


 389 0014 1443     		orrs	r4, r2
 390              	.LVL26:
 391 0016 1C60     		str	r4, [r3]
 302:Generated_Source\PSoC4/PWM_CHARGE.c **** }
 392              		.loc 1 302 0
 393 0018 FFF7FEFF 		bl	CyExitCriticalSection
 394              	.LVL27:
 303:Generated_Source\PSoC4/PWM_CHARGE.c **** 
 395              		.loc 1 303 0
 396 001c 10BD     		pop	{r4, pc}
 397              	.L17:
 398 001e C046     		.align	2
 399              	.L16:
 400 0020 00012040 		.word	1075839232
 401 0024 FFFFFFF8 		.word	-117440513
 402              		.cfi_endproc
 403              	.LFE5:
 404              		.size	PWM_CHARGE_SetMode, .-PWM_CHARGE_SetMode
 405              		.section	.text.PWM_CHARGE_SetQDMode,"ax",%progbits
 406              		.align	2
 407              		.global	PWM_CHARGE_SetQDMode
 408              		.code	16
 409              		.thumb_func
 410              		.type	PWM_CHARGE_SetQDMode, %function
 411              	PWM_CHARGE_SetQDMode:
 412              	.LFB6:
 327:Generated_Source\PSoC4/PWM_CHARGE.c ****     uint8 enableInterrupts;
 413              		.loc 1 327 0
 414              		.cfi_startproc
 415              		@ args = 0, pretend = 0, frame = 0
 416              		@ frame_needed = 0, uses_anonymous_args = 0
 417              	.LVL28:
 418 0000 10B5     		push	{r4, lr}
 419              		.cfi_def_cfa_offset 8
 420              		.cfi_offset 4, -8
 421              		.cfi_offset 14, -4
 327:Generated_Source\PSoC4/PWM_CHARGE.c ****     uint8 enableInterrupts;
 422              		.loc 1 327 0
 423 0002 0400     		movs	r4, r0
 330:Generated_Source\PSoC4/PWM_CHARGE.c **** 
 424              		.loc 1 330 0
 425 0004 FFF7FEFF 		bl	CyEnterCriticalSection
 426              	.LVL29:
 332:Generated_Source\PSoC4/PWM_CHARGE.c ****     PWM_CHARGE_CONTROL_REG |= qdMode;
 427              		.loc 1 332 0
 428 0008 054B     		ldr	r3, .L19
 429 000a 064A     		ldr	r2, .L19+4
 430 000c 1968     		ldr	r1, [r3]
 336:Generated_Source\PSoC4/PWM_CHARGE.c **** 
 431              		.loc 1 336 0
 432              		@ sp needed
 332:Generated_Source\PSoC4/PWM_CHARGE.c ****     PWM_CHARGE_CONTROL_REG |= qdMode;
 433              		.loc 1 332 0
 434 000e 0A40     		ands	r2, r1
 435 0010 1A60     		str	r2, [r3]
 333:Generated_Source\PSoC4/PWM_CHARGE.c **** 
 436              		.loc 1 333 0
ARM GAS  C:\Users\ilya\AppData\Local\Temp\cc391SdI.s 			page 33


 437 0012 1A68     		ldr	r2, [r3]
 438 0014 1443     		orrs	r4, r2
 439              	.LVL30:
 440 0016 1C60     		str	r4, [r3]
 335:Generated_Source\PSoC4/PWM_CHARGE.c **** }
 441              		.loc 1 335 0
 442 0018 FFF7FEFF 		bl	CyExitCriticalSection
 443              	.LVL31:
 336:Generated_Source\PSoC4/PWM_CHARGE.c **** 
 444              		.loc 1 336 0
 445 001c 10BD     		pop	{r4, pc}
 446              	.L20:
 447 001e C046     		.align	2
 448              	.L19:
 449 0020 00012040 		.word	1075839232
 450 0024 FFFF8FFF 		.word	-7340033
 451              		.cfi_endproc
 452              	.LFE6:
 453              		.size	PWM_CHARGE_SetQDMode, .-PWM_CHARGE_SetQDMode
 454              		.section	.text.PWM_CHARGE_SetPrescaler,"ax",%progbits
 455              		.align	2
 456              		.global	PWM_CHARGE_SetPrescaler
 457              		.code	16
 458              		.thumb_func
 459              		.type	PWM_CHARGE_SetPrescaler, %function
 460              	PWM_CHARGE_SetPrescaler:
 461              	.LFB7:
 364:Generated_Source\PSoC4/PWM_CHARGE.c ****     uint8 enableInterrupts;
 462              		.loc 1 364 0
 463              		.cfi_startproc
 464              		@ args = 0, pretend = 0, frame = 0
 465              		@ frame_needed = 0, uses_anonymous_args = 0
 466              	.LVL32:
 467 0000 10B5     		push	{r4, lr}
 468              		.cfi_def_cfa_offset 8
 469              		.cfi_offset 4, -8
 470              		.cfi_offset 14, -4
 364:Generated_Source\PSoC4/PWM_CHARGE.c ****     uint8 enableInterrupts;
 471              		.loc 1 364 0
 472 0002 0400     		movs	r4, r0
 367:Generated_Source\PSoC4/PWM_CHARGE.c **** 
 473              		.loc 1 367 0
 474 0004 FFF7FEFF 		bl	CyEnterCriticalSection
 475              	.LVL33:
 369:Generated_Source\PSoC4/PWM_CHARGE.c ****     PWM_CHARGE_CONTROL_REG |= prescaler;
 476              		.loc 1 369 0
 477 0008 054B     		ldr	r3, .L22
 478 000a 064A     		ldr	r2, .L22+4
 479 000c 1968     		ldr	r1, [r3]
 373:Generated_Source\PSoC4/PWM_CHARGE.c **** 
 480              		.loc 1 373 0
 481              		@ sp needed
 369:Generated_Source\PSoC4/PWM_CHARGE.c ****     PWM_CHARGE_CONTROL_REG |= prescaler;
 482              		.loc 1 369 0
 483 000e 0A40     		ands	r2, r1
 484 0010 1A60     		str	r2, [r3]
 370:Generated_Source\PSoC4/PWM_CHARGE.c **** 
ARM GAS  C:\Users\ilya\AppData\Local\Temp\cc391SdI.s 			page 34


 485              		.loc 1 370 0
 486 0012 1A68     		ldr	r2, [r3]
 487 0014 1443     		orrs	r4, r2
 488              	.LVL34:
 489 0016 1C60     		str	r4, [r3]
 372:Generated_Source\PSoC4/PWM_CHARGE.c **** }
 490              		.loc 1 372 0
 491 0018 FFF7FEFF 		bl	CyExitCriticalSection
 492              	.LVL35:
 373:Generated_Source\PSoC4/PWM_CHARGE.c **** 
 493              		.loc 1 373 0
 494 001c 10BD     		pop	{r4, pc}
 495              	.L23:
 496 001e C046     		.align	2
 497              	.L22:
 498 0020 00012040 		.word	1075839232
 499 0024 FF00FFFF 		.word	-65281
 500              		.cfi_endproc
 501              	.LFE7:
 502              		.size	PWM_CHARGE_SetPrescaler, .-PWM_CHARGE_SetPrescaler
 503              		.section	.text.PWM_CHARGE_SetOneShot,"ax",%progbits
 504              		.align	2
 505              		.global	PWM_CHARGE_SetOneShot
 506              		.code	16
 507              		.thumb_func
 508              		.type	PWM_CHARGE_SetOneShot, %function
 509              	PWM_CHARGE_SetOneShot:
 510              	.LFB8:
 396:Generated_Source\PSoC4/PWM_CHARGE.c ****     uint8 enableInterrupts;
 511              		.loc 1 396 0
 512              		.cfi_startproc
 513              		@ args = 0, pretend = 0, frame = 0
 514              		@ frame_needed = 0, uses_anonymous_args = 0
 515              	.LVL36:
 516 0000 10B5     		push	{r4, lr}
 517              		.cfi_def_cfa_offset 8
 518              		.cfi_offset 4, -8
 519              		.cfi_offset 14, -4
 396:Generated_Source\PSoC4/PWM_CHARGE.c ****     uint8 enableInterrupts;
 520              		.loc 1 396 0
 521 0002 0400     		movs	r4, r0
 399:Generated_Source\PSoC4/PWM_CHARGE.c **** 
 522              		.loc 1 399 0
 523 0004 FFF7FEFF 		bl	CyEnterCriticalSection
 524              	.LVL37:
 401:Generated_Source\PSoC4/PWM_CHARGE.c ****     PWM_CHARGE_CONTROL_REG |= ((uint32)((oneShotEnable & PWM_CHARGE_1BIT_MASK) <<
 525              		.loc 1 401 0
 526 0008 074B     		ldr	r3, .L25
 527 000a 084A     		ldr	r2, .L25+4
 528 000c 1968     		ldr	r1, [r3]
 406:Generated_Source\PSoC4/PWM_CHARGE.c **** 
 529              		.loc 1 406 0
 530              		@ sp needed
 401:Generated_Source\PSoC4/PWM_CHARGE.c ****     PWM_CHARGE_CONTROL_REG |= ((uint32)((oneShotEnable & PWM_CHARGE_1BIT_MASK) <<
 531              		.loc 1 401 0
 532 000e 0A40     		ands	r2, r1
 533 0010 1A60     		str	r2, [r3]
ARM GAS  C:\Users\ilya\AppData\Local\Temp\cc391SdI.s 			page 35


 402:Generated_Source\PSoC4/PWM_CHARGE.c ****                                                                PWM_CHARGE_ONESHOT_SHIFT));
 534              		.loc 1 402 0
 535 0012 A204     		lsls	r2, r4, #18
 536 0014 8024     		movs	r4, #128
 537              	.LVL38:
 538 0016 1968     		ldr	r1, [r3]
 539 0018 E402     		lsls	r4, r4, #11
 540 001a 2240     		ands	r2, r4
 541 001c 0A43     		orrs	r2, r1
 542 001e 1A60     		str	r2, [r3]
 405:Generated_Source\PSoC4/PWM_CHARGE.c **** }
 543              		.loc 1 405 0
 544 0020 FFF7FEFF 		bl	CyExitCriticalSection
 545              	.LVL39:
 406:Generated_Source\PSoC4/PWM_CHARGE.c **** 
 546              		.loc 1 406 0
 547 0024 10BD     		pop	{r4, pc}
 548              	.L26:
 549 0026 C046     		.align	2
 550              	.L25:
 551 0028 00012040 		.word	1075839232
 552 002c FFFFFBFF 		.word	-262145
 553              		.cfi_endproc
 554              	.LFE8:
 555              		.size	PWM_CHARGE_SetOneShot, .-PWM_CHARGE_SetOneShot
 556              		.section	.text.PWM_CHARGE_SetPWMMode,"ax",%progbits
 557              		.align	2
 558              		.global	PWM_CHARGE_SetPWMMode
 559              		.code	16
 560              		.thumb_func
 561              		.type	PWM_CHARGE_SetPWMMode, %function
 562              	PWM_CHARGE_SetPWMMode:
 563              	.LFB9:
 450:Generated_Source\PSoC4/PWM_CHARGE.c ****     PWM_CHARGE_TRIG_CONTROL2_REG = (modeMask & PWM_CHARGE_6BIT_MASK);
 564              		.loc 1 450 0
 565              		.cfi_startproc
 566              		@ args = 0, pretend = 0, frame = 0
 567              		@ frame_needed = 0, uses_anonymous_args = 0
 568              		@ link register save eliminated.
 569              	.LVL40:
 451:Generated_Source\PSoC4/PWM_CHARGE.c **** }
 570              		.loc 1 451 0
 571 0000 3F23     		movs	r3, #63
 572 0002 1840     		ands	r0, r3
 573              	.LVL41:
 574 0004 014B     		ldr	r3, .L28
 452:Generated_Source\PSoC4/PWM_CHARGE.c **** 
 575              		.loc 1 452 0
 576              		@ sp needed
 451:Generated_Source\PSoC4/PWM_CHARGE.c **** }
 577              		.loc 1 451 0
 578 0006 1860     		str	r0, [r3]
 452:Generated_Source\PSoC4/PWM_CHARGE.c **** 
 579              		.loc 1 452 0
 580 0008 7047     		bx	lr
 581              	.L29:
 582 000a C046     		.align	2
ARM GAS  C:\Users\ilya\AppData\Local\Temp\cc391SdI.s 			page 36


 583              	.L28:
 584 000c 28012040 		.word	1075839272
 585              		.cfi_endproc
 586              	.LFE9:
 587              		.size	PWM_CHARGE_SetPWMMode, .-PWM_CHARGE_SetPWMMode
 588              		.section	.text.PWM_CHARGE_SetPWMSyncKill,"ax",%progbits
 589              		.align	2
 590              		.global	PWM_CHARGE_SetPWMSyncKill
 591              		.code	16
 592              		.thumb_func
 593              		.type	PWM_CHARGE_SetPWMSyncKill, %function
 594              	PWM_CHARGE_SetPWMSyncKill:
 595              	.LFB10:
 486:Generated_Source\PSoC4/PWM_CHARGE.c ****     uint8 enableInterrupts;
 596              		.loc 1 486 0
 597              		.cfi_startproc
 598              		@ args = 0, pretend = 0, frame = 0
 599              		@ frame_needed = 0, uses_anonymous_args = 0
 600              	.LVL42:
 601 0000 10B5     		push	{r4, lr}
 602              		.cfi_def_cfa_offset 8
 603              		.cfi_offset 4, -8
 604              		.cfi_offset 14, -4
 486:Generated_Source\PSoC4/PWM_CHARGE.c ****     uint8 enableInterrupts;
 605              		.loc 1 486 0
 606 0002 0400     		movs	r4, r0
 489:Generated_Source\PSoC4/PWM_CHARGE.c **** 
 607              		.loc 1 489 0
 608 0004 FFF7FEFF 		bl	CyEnterCriticalSection
 609              	.LVL43:
 491:Generated_Source\PSoC4/PWM_CHARGE.c ****     PWM_CHARGE_CONTROL_REG |= ((uint32)((syncKillEnable & PWM_CHARGE_1BIT_MASK)  <<
 610              		.loc 1 491 0
 611 0008 0421     		movs	r1, #4
 612 000a 064B     		ldr	r3, .L31
 492:Generated_Source\PSoC4/PWM_CHARGE.c ****                                                PWM_CHARGE_PWM_SYNC_KILL_SHIFT));
 613              		.loc 1 492 0
 614 000c A400     		lsls	r4, r4, #2
 615              	.LVL44:
 491:Generated_Source\PSoC4/PWM_CHARGE.c ****     PWM_CHARGE_CONTROL_REG |= ((uint32)((syncKillEnable & PWM_CHARGE_1BIT_MASK)  <<
 616              		.loc 1 491 0
 617 000e 1A68     		ldr	r2, [r3]
 492:Generated_Source\PSoC4/PWM_CHARGE.c ****                                                PWM_CHARGE_PWM_SYNC_KILL_SHIFT));
 618              		.loc 1 492 0
 619 0010 0C40     		ands	r4, r1
 491:Generated_Source\PSoC4/PWM_CHARGE.c ****     PWM_CHARGE_CONTROL_REG |= ((uint32)((syncKillEnable & PWM_CHARGE_1BIT_MASK)  <<
 620              		.loc 1 491 0
 621 0012 8A43     		bics	r2, r1
 622 0014 1A60     		str	r2, [r3]
 492:Generated_Source\PSoC4/PWM_CHARGE.c ****                                                PWM_CHARGE_PWM_SYNC_KILL_SHIFT));
 623              		.loc 1 492 0
 624 0016 1A68     		ldr	r2, [r3]
 496:Generated_Source\PSoC4/PWM_CHARGE.c **** 
 625              		.loc 1 496 0
 626              		@ sp needed
 492:Generated_Source\PSoC4/PWM_CHARGE.c ****                                                PWM_CHARGE_PWM_SYNC_KILL_SHIFT));
 627              		.loc 1 492 0
 628 0018 1443     		orrs	r4, r2
ARM GAS  C:\Users\ilya\AppData\Local\Temp\cc391SdI.s 			page 37


 629 001a 1C60     		str	r4, [r3]
 495:Generated_Source\PSoC4/PWM_CHARGE.c **** }
 630              		.loc 1 495 0
 631 001c FFF7FEFF 		bl	CyExitCriticalSection
 632              	.LVL45:
 496:Generated_Source\PSoC4/PWM_CHARGE.c **** 
 633              		.loc 1 496 0
 634 0020 10BD     		pop	{r4, pc}
 635              	.L32:
 636 0022 C046     		.align	2
 637              	.L31:
 638 0024 00012040 		.word	1075839232
 639              		.cfi_endproc
 640              	.LFE10:
 641              		.size	PWM_CHARGE_SetPWMSyncKill, .-PWM_CHARGE_SetPWMSyncKill
 642              		.section	.text.PWM_CHARGE_SetPWMStopOnKill,"ax",%progbits
 643              		.align	2
 644              		.global	PWM_CHARGE_SetPWMStopOnKill
 645              		.code	16
 646              		.thumb_func
 647              		.type	PWM_CHARGE_SetPWMStopOnKill, %function
 648              	PWM_CHARGE_SetPWMStopOnKill:
 649              	.LFB11:
 520:Generated_Source\PSoC4/PWM_CHARGE.c ****     uint8 enableInterrupts;
 650              		.loc 1 520 0
 651              		.cfi_startproc
 652              		@ args = 0, pretend = 0, frame = 0
 653              		@ frame_needed = 0, uses_anonymous_args = 0
 654              	.LVL46:
 655 0000 10B5     		push	{r4, lr}
 656              		.cfi_def_cfa_offset 8
 657              		.cfi_offset 4, -8
 658              		.cfi_offset 14, -4
 520:Generated_Source\PSoC4/PWM_CHARGE.c ****     uint8 enableInterrupts;
 659              		.loc 1 520 0
 660 0002 0400     		movs	r4, r0
 523:Generated_Source\PSoC4/PWM_CHARGE.c **** 
 661              		.loc 1 523 0
 662 0004 FFF7FEFF 		bl	CyEnterCriticalSection
 663              	.LVL47:
 525:Generated_Source\PSoC4/PWM_CHARGE.c ****     PWM_CHARGE_CONTROL_REG |= ((uint32)((stopOnKillEnable & PWM_CHARGE_1BIT_MASK)  <<
 664              		.loc 1 525 0
 665 0008 0821     		movs	r1, #8
 666 000a 064B     		ldr	r3, .L34
 526:Generated_Source\PSoC4/PWM_CHARGE.c ****                                                          PWM_CHARGE_PWM_STOP_KILL_SHIFT));
 667              		.loc 1 526 0
 668 000c E400     		lsls	r4, r4, #3
 669              	.LVL48:
 525:Generated_Source\PSoC4/PWM_CHARGE.c ****     PWM_CHARGE_CONTROL_REG |= ((uint32)((stopOnKillEnable & PWM_CHARGE_1BIT_MASK)  <<
 670              		.loc 1 525 0
 671 000e 1A68     		ldr	r2, [r3]
 526:Generated_Source\PSoC4/PWM_CHARGE.c ****                                                          PWM_CHARGE_PWM_STOP_KILL_SHIFT));
 672              		.loc 1 526 0
 673 0010 0C40     		ands	r4, r1
 525:Generated_Source\PSoC4/PWM_CHARGE.c ****     PWM_CHARGE_CONTROL_REG |= ((uint32)((stopOnKillEnable & PWM_CHARGE_1BIT_MASK)  <<
 674              		.loc 1 525 0
 675 0012 8A43     		bics	r2, r1
ARM GAS  C:\Users\ilya\AppData\Local\Temp\cc391SdI.s 			page 38


 676 0014 1A60     		str	r2, [r3]
 526:Generated_Source\PSoC4/PWM_CHARGE.c ****                                                          PWM_CHARGE_PWM_STOP_KILL_SHIFT));
 677              		.loc 1 526 0
 678 0016 1A68     		ldr	r2, [r3]
 530:Generated_Source\PSoC4/PWM_CHARGE.c **** 
 679              		.loc 1 530 0
 680              		@ sp needed
 526:Generated_Source\PSoC4/PWM_CHARGE.c ****                                                          PWM_CHARGE_PWM_STOP_KILL_SHIFT));
 681              		.loc 1 526 0
 682 0018 1443     		orrs	r4, r2
 683 001a 1C60     		str	r4, [r3]
 529:Generated_Source\PSoC4/PWM_CHARGE.c **** }
 684              		.loc 1 529 0
 685 001c FFF7FEFF 		bl	CyExitCriticalSection
 686              	.LVL49:
 530:Generated_Source\PSoC4/PWM_CHARGE.c **** 
 687              		.loc 1 530 0
 688 0020 10BD     		pop	{r4, pc}
 689              	.L35:
 690 0022 C046     		.align	2
 691              	.L34:
 692 0024 00012040 		.word	1075839232
 693              		.cfi_endproc
 694              	.LFE11:
 695              		.size	PWM_CHARGE_SetPWMStopOnKill, .-PWM_CHARGE_SetPWMStopOnKill
 696              		.section	.text.PWM_CHARGE_SetPWMDeadTime,"ax",%progbits
 697              		.align	2
 698              		.global	PWM_CHARGE_SetPWMDeadTime
 699              		.code	16
 700              		.thumb_func
 701              		.type	PWM_CHARGE_SetPWMDeadTime, %function
 702              	PWM_CHARGE_SetPWMDeadTime:
 703              	.LFB12:
 553:Generated_Source\PSoC4/PWM_CHARGE.c ****     uint8 enableInterrupts;
 704              		.loc 1 553 0
 705              		.cfi_startproc
 706              		@ args = 0, pretend = 0, frame = 0
 707              		@ frame_needed = 0, uses_anonymous_args = 0
 708              	.LVL50:
 709 0000 10B5     		push	{r4, lr}
 710              		.cfi_def_cfa_offset 8
 711              		.cfi_offset 4, -8
 712              		.cfi_offset 14, -4
 553:Generated_Source\PSoC4/PWM_CHARGE.c ****     uint8 enableInterrupts;
 713              		.loc 1 553 0
 714 0002 0400     		movs	r4, r0
 556:Generated_Source\PSoC4/PWM_CHARGE.c **** 
 715              		.loc 1 556 0
 716 0004 FFF7FEFF 		bl	CyEnterCriticalSection
 717              	.LVL51:
 558:Generated_Source\PSoC4/PWM_CHARGE.c ****     PWM_CHARGE_CONTROL_REG |= ((uint32)((deadTime & PWM_CHARGE_8BIT_MASK) <<
 718              		.loc 1 558 0
 719 0008 064B     		ldr	r3, .L37
 720 000a 074A     		ldr	r2, .L37+4
 721 000c 1968     		ldr	r1, [r3]
 559:Generated_Source\PSoC4/PWM_CHARGE.c ****                                                           PWM_CHARGE_PRESCALER_SHIFT));
 722              		.loc 1 559 0
ARM GAS  C:\Users\ilya\AppData\Local\Temp\cc391SdI.s 			page 39


 723 000e 2406     		lsls	r4, r4, #24
 724              	.LVL52:
 558:Generated_Source\PSoC4/PWM_CHARGE.c ****     PWM_CHARGE_CONTROL_REG |= ((uint32)((deadTime & PWM_CHARGE_8BIT_MASK) <<
 725              		.loc 1 558 0
 726 0010 0A40     		ands	r2, r1
 727 0012 1A60     		str	r2, [r3]
 559:Generated_Source\PSoC4/PWM_CHARGE.c ****                                                           PWM_CHARGE_PRESCALER_SHIFT));
 728              		.loc 1 559 0
 729 0014 1A68     		ldr	r2, [r3]
 730 0016 240C     		lsrs	r4, r4, #16
 731 0018 1443     		orrs	r4, r2
 732 001a 1C60     		str	r4, [r3]
 562:Generated_Source\PSoC4/PWM_CHARGE.c **** }
 733              		.loc 1 562 0
 734 001c FFF7FEFF 		bl	CyExitCriticalSection
 735              	.LVL53:
 563:Generated_Source\PSoC4/PWM_CHARGE.c **** 
 736              		.loc 1 563 0
 737              		@ sp needed
 738 0020 10BD     		pop	{r4, pc}
 739              	.L38:
 740 0022 C046     		.align	2
 741              	.L37:
 742 0024 00012040 		.word	1075839232
 743 0028 FF00FFFF 		.word	-65281
 744              		.cfi_endproc
 745              	.LFE12:
 746              		.size	PWM_CHARGE_SetPWMDeadTime, .-PWM_CHARGE_SetPWMDeadTime
 747              		.section	.text.PWM_CHARGE_SetPWMInvert,"ax",%progbits
 748              		.align	2
 749              		.global	PWM_CHARGE_SetPWMInvert
 750              		.code	16
 751              		.thumb_func
 752              		.type	PWM_CHARGE_SetPWMInvert, %function
 753              	PWM_CHARGE_SetPWMInvert:
 754              	.LFB13:
 586:Generated_Source\PSoC4/PWM_CHARGE.c ****     uint8 enableInterrupts;
 755              		.loc 1 586 0
 756              		.cfi_startproc
 757              		@ args = 0, pretend = 0, frame = 0
 758              		@ frame_needed = 0, uses_anonymous_args = 0
 759              	.LVL54:
 760 0000 10B5     		push	{r4, lr}
 761              		.cfi_def_cfa_offset 8
 762              		.cfi_offset 4, -8
 763              		.cfi_offset 14, -4
 586:Generated_Source\PSoC4/PWM_CHARGE.c ****     uint8 enableInterrupts;
 764              		.loc 1 586 0
 765 0002 0400     		movs	r4, r0
 589:Generated_Source\PSoC4/PWM_CHARGE.c **** 
 766              		.loc 1 589 0
 767 0004 FFF7FEFF 		bl	CyEnterCriticalSection
 768              	.LVL55:
 591:Generated_Source\PSoC4/PWM_CHARGE.c ****     PWM_CHARGE_CONTROL_REG |= mask;
 769              		.loc 1 591 0
 770 0008 054B     		ldr	r3, .L40
 771 000a 064A     		ldr	r2, .L40+4
ARM GAS  C:\Users\ilya\AppData\Local\Temp\cc391SdI.s 			page 40


 772 000c 1968     		ldr	r1, [r3]
 595:Generated_Source\PSoC4/PWM_CHARGE.c **** 
 773              		.loc 1 595 0
 774              		@ sp needed
 591:Generated_Source\PSoC4/PWM_CHARGE.c ****     PWM_CHARGE_CONTROL_REG |= mask;
 775              		.loc 1 591 0
 776 000e 0A40     		ands	r2, r1
 777 0010 1A60     		str	r2, [r3]
 592:Generated_Source\PSoC4/PWM_CHARGE.c **** 
 778              		.loc 1 592 0
 779 0012 1A68     		ldr	r2, [r3]
 780 0014 1443     		orrs	r4, r2
 781              	.LVL56:
 782 0016 1C60     		str	r4, [r3]
 594:Generated_Source\PSoC4/PWM_CHARGE.c **** }
 783              		.loc 1 594 0
 784 0018 FFF7FEFF 		bl	CyExitCriticalSection
 785              	.LVL57:
 595:Generated_Source\PSoC4/PWM_CHARGE.c **** 
 786              		.loc 1 595 0
 787 001c 10BD     		pop	{r4, pc}
 788              	.L41:
 789 001e C046     		.align	2
 790              	.L40:
 791 0020 00012040 		.word	1075839232
 792 0024 FFFFCFFF 		.word	-3145729
 793              		.cfi_endproc
 794              	.LFE13:
 795              		.size	PWM_CHARGE_SetPWMInvert, .-PWM_CHARGE_SetPWMInvert
 796              		.section	.text.PWM_CHARGE_WriteCounter,"ax",%progbits
 797              		.align	2
 798              		.global	PWM_CHARGE_WriteCounter
 799              		.code	16
 800              		.thumb_func
 801              		.type	PWM_CHARGE_WriteCounter, %function
 802              	PWM_CHARGE_WriteCounter:
 803              	.LFB14:
 616:Generated_Source\PSoC4/PWM_CHARGE.c ****     PWM_CHARGE_COUNTER_REG = (count & PWM_CHARGE_16BIT_MASK);
 804              		.loc 1 616 0
 805              		.cfi_startproc
 806              		@ args = 0, pretend = 0, frame = 0
 807              		@ frame_needed = 0, uses_anonymous_args = 0
 808              		@ link register save eliminated.
 809              	.LVL58:
 617:Generated_Source\PSoC4/PWM_CHARGE.c **** }
 810              		.loc 1 617 0
 811 0000 024B     		ldr	r3, .L43
 812 0002 0004     		lsls	r0, r0, #16
 813              	.LVL59:
 814 0004 000C     		lsrs	r0, r0, #16
 815 0006 1860     		str	r0, [r3]
 618:Generated_Source\PSoC4/PWM_CHARGE.c **** 
 816              		.loc 1 618 0
 817              		@ sp needed
 818 0008 7047     		bx	lr
 819              	.L44:
 820 000a C046     		.align	2
ARM GAS  C:\Users\ilya\AppData\Local\Temp\cc391SdI.s 			page 41


 821              	.L43:
 822 000c 08012040 		.word	1075839240
 823              		.cfi_endproc
 824              	.LFE14:
 825              		.size	PWM_CHARGE_WriteCounter, .-PWM_CHARGE_WriteCounter
 826              		.section	.text.PWM_CHARGE_ReadCounter,"ax",%progbits
 827              		.align	2
 828              		.global	PWM_CHARGE_ReadCounter
 829              		.code	16
 830              		.thumb_func
 831              		.type	PWM_CHARGE_ReadCounter, %function
 832              	PWM_CHARGE_ReadCounter:
 833              	.LFB15:
 636:Generated_Source\PSoC4/PWM_CHARGE.c ****     return (PWM_CHARGE_COUNTER_REG & PWM_CHARGE_16BIT_MASK);
 834              		.loc 1 636 0
 835              		.cfi_startproc
 836              		@ args = 0, pretend = 0, frame = 0
 837              		@ frame_needed = 0, uses_anonymous_args = 0
 838              		@ link register save eliminated.
 637:Generated_Source\PSoC4/PWM_CHARGE.c **** }
 839              		.loc 1 637 0
 840 0000 024B     		ldr	r3, .L46
 638:Generated_Source\PSoC4/PWM_CHARGE.c **** 
 841              		.loc 1 638 0
 842              		@ sp needed
 637:Generated_Source\PSoC4/PWM_CHARGE.c **** }
 843              		.loc 1 637 0
 844 0002 1868     		ldr	r0, [r3]
 845 0004 0004     		lsls	r0, r0, #16
 846 0006 000C     		lsrs	r0, r0, #16
 638:Generated_Source\PSoC4/PWM_CHARGE.c **** 
 847              		.loc 1 638 0
 848 0008 7047     		bx	lr
 849              	.L47:
 850 000a C046     		.align	2
 851              	.L46:
 852 000c 08012040 		.word	1075839240
 853              		.cfi_endproc
 854              	.LFE15:
 855              		.size	PWM_CHARGE_ReadCounter, .-PWM_CHARGE_ReadCounter
 856              		.section	.text.PWM_CHARGE_SetCounterMode,"ax",%progbits
 857              		.align	2
 858              		.global	PWM_CHARGE_SetCounterMode
 859              		.code	16
 860              		.thumb_func
 861              		.type	PWM_CHARGE_SetCounterMode, %function
 862              	PWM_CHARGE_SetCounterMode:
 863              	.LFB16:
 665:Generated_Source\PSoC4/PWM_CHARGE.c ****     uint8 enableInterrupts;
 864              		.loc 1 665 0
 865              		.cfi_startproc
 866              		@ args = 0, pretend = 0, frame = 0
 867              		@ frame_needed = 0, uses_anonymous_args = 0
 868              	.LVL60:
 869 0000 10B5     		push	{r4, lr}
 870              		.cfi_def_cfa_offset 8
 871              		.cfi_offset 4, -8
ARM GAS  C:\Users\ilya\AppData\Local\Temp\cc391SdI.s 			page 42


 872              		.cfi_offset 14, -4
 665:Generated_Source\PSoC4/PWM_CHARGE.c ****     uint8 enableInterrupts;
 873              		.loc 1 665 0
 874 0002 0400     		movs	r4, r0
 668:Generated_Source\PSoC4/PWM_CHARGE.c **** 
 875              		.loc 1 668 0
 876 0004 FFF7FEFF 		bl	CyEnterCriticalSection
 877              	.LVL61:
 670:Generated_Source\PSoC4/PWM_CHARGE.c ****     PWM_CHARGE_CONTROL_REG |= counterMode;
 878              		.loc 1 670 0
 879 0008 054B     		ldr	r3, .L49
 880 000a 064A     		ldr	r2, .L49+4
 881 000c 1968     		ldr	r1, [r3]
 674:Generated_Source\PSoC4/PWM_CHARGE.c **** 
 882              		.loc 1 674 0
 883              		@ sp needed
 670:Generated_Source\PSoC4/PWM_CHARGE.c ****     PWM_CHARGE_CONTROL_REG |= counterMode;
 884              		.loc 1 670 0
 885 000e 0A40     		ands	r2, r1
 886 0010 1A60     		str	r2, [r3]
 671:Generated_Source\PSoC4/PWM_CHARGE.c **** 
 887              		.loc 1 671 0
 888 0012 1A68     		ldr	r2, [r3]
 889 0014 1443     		orrs	r4, r2
 890              	.LVL62:
 891 0016 1C60     		str	r4, [r3]
 673:Generated_Source\PSoC4/PWM_CHARGE.c **** }
 892              		.loc 1 673 0
 893 0018 FFF7FEFF 		bl	CyExitCriticalSection
 894              	.LVL63:
 674:Generated_Source\PSoC4/PWM_CHARGE.c **** 
 895              		.loc 1 674 0
 896 001c 10BD     		pop	{r4, pc}
 897              	.L50:
 898 001e C046     		.align	2
 899              	.L49:
 900 0020 00012040 		.word	1075839232
 901 0024 FFFFFCFF 		.word	-196609
 902              		.cfi_endproc
 903              	.LFE16:
 904              		.size	PWM_CHARGE_SetCounterMode, .-PWM_CHARGE_SetCounterMode
 905              		.section	.text.PWM_CHARGE_WritePeriod,"ax",%progbits
 906              		.align	2
 907              		.global	PWM_CHARGE_WritePeriod
 908              		.code	16
 909              		.thumb_func
 910              		.type	PWM_CHARGE_WritePeriod, %function
 911              	PWM_CHARGE_WritePeriod:
 912              	.LFB17:
 694:Generated_Source\PSoC4/PWM_CHARGE.c ****     PWM_CHARGE_PERIOD_REG = (period & PWM_CHARGE_16BIT_MASK);
 913              		.loc 1 694 0
 914              		.cfi_startproc
 915              		@ args = 0, pretend = 0, frame = 0
 916              		@ frame_needed = 0, uses_anonymous_args = 0
 917              		@ link register save eliminated.
 918              	.LVL64:
 695:Generated_Source\PSoC4/PWM_CHARGE.c **** }
ARM GAS  C:\Users\ilya\AppData\Local\Temp\cc391SdI.s 			page 43


 919              		.loc 1 695 0
 920 0000 024B     		ldr	r3, .L52
 921 0002 0004     		lsls	r0, r0, #16
 922              	.LVL65:
 923 0004 000C     		lsrs	r0, r0, #16
 924 0006 1860     		str	r0, [r3]
 696:Generated_Source\PSoC4/PWM_CHARGE.c **** 
 925              		.loc 1 696 0
 926              		@ sp needed
 927 0008 7047     		bx	lr
 928              	.L53:
 929 000a C046     		.align	2
 930              	.L52:
 931 000c 14012040 		.word	1075839252
 932              		.cfi_endproc
 933              	.LFE17:
 934              		.size	PWM_CHARGE_WritePeriod, .-PWM_CHARGE_WritePeriod
 935              		.section	.text.PWM_CHARGE_ReadPeriod,"ax",%progbits
 936              		.align	2
 937              		.global	PWM_CHARGE_ReadPeriod
 938              		.code	16
 939              		.thumb_func
 940              		.type	PWM_CHARGE_ReadPeriod, %function
 941              	PWM_CHARGE_ReadPeriod:
 942              	.LFB18:
 714:Generated_Source\PSoC4/PWM_CHARGE.c ****     return (PWM_CHARGE_PERIOD_REG & PWM_CHARGE_16BIT_MASK);
 943              		.loc 1 714 0
 944              		.cfi_startproc
 945              		@ args = 0, pretend = 0, frame = 0
 946              		@ frame_needed = 0, uses_anonymous_args = 0
 947              		@ link register save eliminated.
 715:Generated_Source\PSoC4/PWM_CHARGE.c **** }
 948              		.loc 1 715 0
 949 0000 024B     		ldr	r3, .L55
 716:Generated_Source\PSoC4/PWM_CHARGE.c **** 
 950              		.loc 1 716 0
 951              		@ sp needed
 715:Generated_Source\PSoC4/PWM_CHARGE.c **** }
 952              		.loc 1 715 0
 953 0002 1868     		ldr	r0, [r3]
 954 0004 0004     		lsls	r0, r0, #16
 955 0006 000C     		lsrs	r0, r0, #16
 716:Generated_Source\PSoC4/PWM_CHARGE.c **** 
 956              		.loc 1 716 0
 957 0008 7047     		bx	lr
 958              	.L56:
 959 000a C046     		.align	2
 960              	.L55:
 961 000c 14012040 		.word	1075839252
 962              		.cfi_endproc
 963              	.LFE18:
 964              		.size	PWM_CHARGE_ReadPeriod, .-PWM_CHARGE_ReadPeriod
 965              		.section	.text.PWM_CHARGE_SetCompareSwap,"ax",%progbits
 966              		.align	2
 967              		.global	PWM_CHARGE_SetCompareSwap
 968              		.code	16
 969              		.thumb_func
ARM GAS  C:\Users\ilya\AppData\Local\Temp\cc391SdI.s 			page 44


 970              		.type	PWM_CHARGE_SetCompareSwap, %function
 971              	PWM_CHARGE_SetCompareSwap:
 972              	.LFB19:
 740:Generated_Source\PSoC4/PWM_CHARGE.c ****     uint8 enableInterrupts;
 973              		.loc 1 740 0
 974              		.cfi_startproc
 975              		@ args = 0, pretend = 0, frame = 0
 976              		@ frame_needed = 0, uses_anonymous_args = 0
 977              	.LVL66:
 978 0000 10B5     		push	{r4, lr}
 979              		.cfi_def_cfa_offset 8
 980              		.cfi_offset 4, -8
 981              		.cfi_offset 14, -4
 740:Generated_Source\PSoC4/PWM_CHARGE.c ****     uint8 enableInterrupts;
 982              		.loc 1 740 0
 983 0002 0400     		movs	r4, r0
 743:Generated_Source\PSoC4/PWM_CHARGE.c **** 
 984              		.loc 1 743 0
 985 0004 FFF7FEFF 		bl	CyEnterCriticalSection
 986              	.LVL67:
 745:Generated_Source\PSoC4/PWM_CHARGE.c ****     PWM_CHARGE_CONTROL_REG |= (swapEnable & PWM_CHARGE_1BIT_MASK);
 987              		.loc 1 745 0
 988 0008 0122     		movs	r2, #1
 989 000a 054B     		ldr	r3, .L58
 749:Generated_Source\PSoC4/PWM_CHARGE.c **** 
 990              		.loc 1 749 0
 991              		@ sp needed
 745:Generated_Source\PSoC4/PWM_CHARGE.c ****     PWM_CHARGE_CONTROL_REG |= (swapEnable & PWM_CHARGE_1BIT_MASK);
 992              		.loc 1 745 0
 993 000c 1968     		ldr	r1, [r3]
 994 000e 9143     		bics	r1, r2
 995 0010 1960     		str	r1, [r3]
 746:Generated_Source\PSoC4/PWM_CHARGE.c **** 
 996              		.loc 1 746 0
 997 0012 1968     		ldr	r1, [r3]
 998 0014 2240     		ands	r2, r4
 999 0016 0A43     		orrs	r2, r1
 1000 0018 1A60     		str	r2, [r3]
 748:Generated_Source\PSoC4/PWM_CHARGE.c **** }
 1001              		.loc 1 748 0
 1002 001a FFF7FEFF 		bl	CyExitCriticalSection
 1003              	.LVL68:
 1004              	.LVL69:
 749:Generated_Source\PSoC4/PWM_CHARGE.c **** 
 1005              		.loc 1 749 0
 1006 001e 10BD     		pop	{r4, pc}
 1007              	.L59:
 1008              		.align	2
 1009              	.L58:
 1010 0020 00012040 		.word	1075839232
 1011              		.cfi_endproc
 1012              	.LFE19:
 1013              		.size	PWM_CHARGE_SetCompareSwap, .-PWM_CHARGE_SetCompareSwap
 1014              		.section	.text.PWM_CHARGE_WritePeriodBuf,"ax",%progbits
 1015              		.align	2
 1016              		.global	PWM_CHARGE_WritePeriodBuf
 1017              		.code	16
ARM GAS  C:\Users\ilya\AppData\Local\Temp\cc391SdI.s 			page 45


 1018              		.thumb_func
 1019              		.type	PWM_CHARGE_WritePeriodBuf, %function
 1020              	PWM_CHARGE_WritePeriodBuf:
 1021              	.LFB20:
 767:Generated_Source\PSoC4/PWM_CHARGE.c ****     PWM_CHARGE_PERIOD_BUF_REG = (periodBuf & PWM_CHARGE_16BIT_MASK);
 1022              		.loc 1 767 0
 1023              		.cfi_startproc
 1024              		@ args = 0, pretend = 0, frame = 0
 1025              		@ frame_needed = 0, uses_anonymous_args = 0
 1026              		@ link register save eliminated.
 1027              	.LVL70:
 768:Generated_Source\PSoC4/PWM_CHARGE.c **** }
 1028              		.loc 1 768 0
 1029 0000 024B     		ldr	r3, .L61
 1030 0002 0004     		lsls	r0, r0, #16
 1031              	.LVL71:
 1032 0004 000C     		lsrs	r0, r0, #16
 1033 0006 1860     		str	r0, [r3]
 769:Generated_Source\PSoC4/PWM_CHARGE.c **** 
 1034              		.loc 1 769 0
 1035              		@ sp needed
 1036 0008 7047     		bx	lr
 1037              	.L62:
 1038 000a C046     		.align	2
 1039              	.L61:
 1040 000c 18012040 		.word	1075839256
 1041              		.cfi_endproc
 1042              	.LFE20:
 1043              		.size	PWM_CHARGE_WritePeriodBuf, .-PWM_CHARGE_WritePeriodBuf
 1044              		.section	.text.PWM_CHARGE_ReadPeriodBuf,"ax",%progbits
 1045              		.align	2
 1046              		.global	PWM_CHARGE_ReadPeriodBuf
 1047              		.code	16
 1048              		.thumb_func
 1049              		.type	PWM_CHARGE_ReadPeriodBuf, %function
 1050              	PWM_CHARGE_ReadPeriodBuf:
 1051              	.LFB21:
 787:Generated_Source\PSoC4/PWM_CHARGE.c ****     return (PWM_CHARGE_PERIOD_BUF_REG & PWM_CHARGE_16BIT_MASK);
 1052              		.loc 1 787 0
 1053              		.cfi_startproc
 1054              		@ args = 0, pretend = 0, frame = 0
 1055              		@ frame_needed = 0, uses_anonymous_args = 0
 1056              		@ link register save eliminated.
 788:Generated_Source\PSoC4/PWM_CHARGE.c **** }
 1057              		.loc 1 788 0
 1058 0000 024B     		ldr	r3, .L64
 789:Generated_Source\PSoC4/PWM_CHARGE.c **** 
 1059              		.loc 1 789 0
 1060              		@ sp needed
 788:Generated_Source\PSoC4/PWM_CHARGE.c **** }
 1061              		.loc 1 788 0
 1062 0002 1868     		ldr	r0, [r3]
 1063 0004 0004     		lsls	r0, r0, #16
 1064 0006 000C     		lsrs	r0, r0, #16
 789:Generated_Source\PSoC4/PWM_CHARGE.c **** 
 1065              		.loc 1 789 0
 1066 0008 7047     		bx	lr
ARM GAS  C:\Users\ilya\AppData\Local\Temp\cc391SdI.s 			page 46


 1067              	.L65:
 1068 000a C046     		.align	2
 1069              	.L64:
 1070 000c 18012040 		.word	1075839256
 1071              		.cfi_endproc
 1072              	.LFE21:
 1073              		.size	PWM_CHARGE_ReadPeriodBuf, .-PWM_CHARGE_ReadPeriodBuf
 1074              		.section	.text.PWM_CHARGE_SetPeriodSwap,"ax",%progbits
 1075              		.align	2
 1076              		.global	PWM_CHARGE_SetPeriodSwap
 1077              		.code	16
 1078              		.thumb_func
 1079              		.type	PWM_CHARGE_SetPeriodSwap, %function
 1080              	PWM_CHARGE_SetPeriodSwap:
 1081              	.LFB22:
 813:Generated_Source\PSoC4/PWM_CHARGE.c ****     uint8 enableInterrupts;
 1082              		.loc 1 813 0
 1083              		.cfi_startproc
 1084              		@ args = 0, pretend = 0, frame = 0
 1085              		@ frame_needed = 0, uses_anonymous_args = 0
 1086              	.LVL72:
 1087 0000 10B5     		push	{r4, lr}
 1088              		.cfi_def_cfa_offset 8
 1089              		.cfi_offset 4, -8
 1090              		.cfi_offset 14, -4
 813:Generated_Source\PSoC4/PWM_CHARGE.c ****     uint8 enableInterrupts;
 1091              		.loc 1 813 0
 1092 0002 0400     		movs	r4, r0
 816:Generated_Source\PSoC4/PWM_CHARGE.c **** 
 1093              		.loc 1 816 0
 1094 0004 FFF7FEFF 		bl	CyEnterCriticalSection
 1095              	.LVL73:
 818:Generated_Source\PSoC4/PWM_CHARGE.c ****     PWM_CHARGE_CONTROL_REG |= ((uint32)((swapEnable & PWM_CHARGE_1BIT_MASK) <<
 1096              		.loc 1 818 0
 1097 0008 0221     		movs	r1, #2
 1098 000a 064B     		ldr	r3, .L67
 819:Generated_Source\PSoC4/PWM_CHARGE.c ****                                                             PWM_CHARGE_RELOAD_PERIOD_SHIFT));
 1099              		.loc 1 819 0
 1100 000c 6400     		lsls	r4, r4, #1
 1101              	.LVL74:
 818:Generated_Source\PSoC4/PWM_CHARGE.c ****     PWM_CHARGE_CONTROL_REG |= ((uint32)((swapEnable & PWM_CHARGE_1BIT_MASK) <<
 1102              		.loc 1 818 0
 1103 000e 1A68     		ldr	r2, [r3]
 819:Generated_Source\PSoC4/PWM_CHARGE.c ****                                                             PWM_CHARGE_RELOAD_PERIOD_SHIFT));
 1104              		.loc 1 819 0
 1105 0010 0C40     		ands	r4, r1
 818:Generated_Source\PSoC4/PWM_CHARGE.c ****     PWM_CHARGE_CONTROL_REG |= ((uint32)((swapEnable & PWM_CHARGE_1BIT_MASK) <<
 1106              		.loc 1 818 0
 1107 0012 8A43     		bics	r2, r1
 1108 0014 1A60     		str	r2, [r3]
 819:Generated_Source\PSoC4/PWM_CHARGE.c ****                                                             PWM_CHARGE_RELOAD_PERIOD_SHIFT));
 1109              		.loc 1 819 0
 1110 0016 1A68     		ldr	r2, [r3]
 823:Generated_Source\PSoC4/PWM_CHARGE.c **** 
 1111              		.loc 1 823 0
 1112              		@ sp needed
 819:Generated_Source\PSoC4/PWM_CHARGE.c ****                                                             PWM_CHARGE_RELOAD_PERIOD_SHIFT));
ARM GAS  C:\Users\ilya\AppData\Local\Temp\cc391SdI.s 			page 47


 1113              		.loc 1 819 0
 1114 0018 1443     		orrs	r4, r2
 1115 001a 1C60     		str	r4, [r3]
 822:Generated_Source\PSoC4/PWM_CHARGE.c **** }
 1116              		.loc 1 822 0
 1117 001c FFF7FEFF 		bl	CyExitCriticalSection
 1118              	.LVL75:
 823:Generated_Source\PSoC4/PWM_CHARGE.c **** 
 1119              		.loc 1 823 0
 1120 0020 10BD     		pop	{r4, pc}
 1121              	.L68:
 1122 0022 C046     		.align	2
 1123              	.L67:
 1124 0024 00012040 		.word	1075839232
 1125              		.cfi_endproc
 1126              	.LFE22:
 1127              		.size	PWM_CHARGE_SetPeriodSwap, .-PWM_CHARGE_SetPeriodSwap
 1128              		.section	.text.PWM_CHARGE_WriteCompare,"ax",%progbits
 1129              		.align	2
 1130              		.global	PWM_CHARGE_WriteCompare
 1131              		.code	16
 1132              		.thumb_func
 1133              		.type	PWM_CHARGE_WriteCompare, %function
 1134              	PWM_CHARGE_WriteCompare:
 1135              	.LFB23:
 850:Generated_Source\PSoC4/PWM_CHARGE.c ****     #if (PWM_CHARGE_CY_TCPWM_4000)
 1136              		.loc 1 850 0
 1137              		.cfi_startproc
 1138              		@ args = 0, pretend = 0, frame = 0
 1139              		@ frame_needed = 0, uses_anonymous_args = 0
 1140              		@ link register save eliminated.
 1141              	.LVL76:
 873:Generated_Source\PSoC4/PWM_CHARGE.c **** }
 1142              		.loc 1 873 0
 1143 0000 024B     		ldr	r3, .L70
 1144 0002 0004     		lsls	r0, r0, #16
 1145              	.LVL77:
 1146 0004 000C     		lsrs	r0, r0, #16
 1147 0006 1860     		str	r0, [r3]
 874:Generated_Source\PSoC4/PWM_CHARGE.c **** 
 1148              		.loc 1 874 0
 1149              		@ sp needed
 1150 0008 7047     		bx	lr
 1151              	.L71:
 1152 000a C046     		.align	2
 1153              	.L70:
 1154 000c 0C012040 		.word	1075839244
 1155              		.cfi_endproc
 1156              	.LFE23:
 1157              		.size	PWM_CHARGE_WriteCompare, .-PWM_CHARGE_WriteCompare
 1158              		.section	.text.PWM_CHARGE_ReadCompare,"ax",%progbits
 1159              		.align	2
 1160              		.global	PWM_CHARGE_ReadCompare
 1161              		.code	16
 1162              		.thumb_func
 1163              		.type	PWM_CHARGE_ReadCompare, %function
 1164              	PWM_CHARGE_ReadCompare:
ARM GAS  C:\Users\ilya\AppData\Local\Temp\cc391SdI.s 			page 48


 1165              	.LFB44:
 1166              		.cfi_startproc
 1167              		@ args = 0, pretend = 0, frame = 0
 1168              		@ frame_needed = 0, uses_anonymous_args = 0
 1169              		@ link register save eliminated.
 1170 0000 024B     		ldr	r3, .L73
 1171              		@ sp needed
 1172 0002 1868     		ldr	r0, [r3]
 1173 0004 0004     		lsls	r0, r0, #16
 1174 0006 000C     		lsrs	r0, r0, #16
 1175 0008 7047     		bx	lr
 1176              	.L74:
 1177 000a C046     		.align	2
 1178              	.L73:
 1179 000c 0C012040 		.word	1075839244
 1180              		.cfi_endproc
 1181              	.LFE44:
 1182              		.size	PWM_CHARGE_ReadCompare, .-PWM_CHARGE_ReadCompare
 1183              		.section	.text.PWM_CHARGE_WriteCompareBuf,"ax",%progbits
 1184              		.align	2
 1185              		.global	PWM_CHARGE_WriteCompareBuf
 1186              		.code	16
 1187              		.thumb_func
 1188              		.type	PWM_CHARGE_WriteCompareBuf, %function
 1189              	PWM_CHARGE_WriteCompareBuf:
 1190              	.LFB25:
 955:Generated_Source\PSoC4/PWM_CHARGE.c ****     #if (PWM_CHARGE_CY_TCPWM_4000)
 1191              		.loc 1 955 0
 1192              		.cfi_startproc
 1193              		@ args = 0, pretend = 0, frame = 0
 1194              		@ frame_needed = 0, uses_anonymous_args = 0
 1195              		@ link register save eliminated.
 1196              	.LVL78:
 976:Generated_Source\PSoC4/PWM_CHARGE.c **** }
 1197              		.loc 1 976 0
 1198 0000 024B     		ldr	r3, .L76
 1199 0002 0004     		lsls	r0, r0, #16
 1200              	.LVL79:
 1201 0004 000C     		lsrs	r0, r0, #16
 1202 0006 1860     		str	r0, [r3]
 977:Generated_Source\PSoC4/PWM_CHARGE.c **** 
 1203              		.loc 1 977 0
 1204              		@ sp needed
 1205 0008 7047     		bx	lr
 1206              	.L77:
 1207 000a C046     		.align	2
 1208              	.L76:
 1209 000c 10012040 		.word	1075839248
 1210              		.cfi_endproc
 1211              	.LFE25:
 1212              		.size	PWM_CHARGE_WriteCompareBuf, .-PWM_CHARGE_WriteCompareBuf
 1213              		.section	.text.PWM_CHARGE_ReadCompareBuf,"ax",%progbits
 1214              		.align	2
 1215              		.global	PWM_CHARGE_ReadCompareBuf
 1216              		.code	16
 1217              		.thumb_func
 1218              		.type	PWM_CHARGE_ReadCompareBuf, %function
ARM GAS  C:\Users\ilya\AppData\Local\Temp\cc391SdI.s 			page 49


 1219              	PWM_CHARGE_ReadCompareBuf:
 1220              	.LFB42:
 1221              		.cfi_startproc
 1222              		@ args = 0, pretend = 0, frame = 0
 1223              		@ frame_needed = 0, uses_anonymous_args = 0
 1224              		@ link register save eliminated.
 1225 0000 024B     		ldr	r3, .L79
 1226              		@ sp needed
 1227 0002 1868     		ldr	r0, [r3]
 1228 0004 0004     		lsls	r0, r0, #16
 1229 0006 000C     		lsrs	r0, r0, #16
 1230 0008 7047     		bx	lr
 1231              	.L80:
 1232 000a C046     		.align	2
 1233              	.L79:
 1234 000c 10012040 		.word	1075839248
 1235              		.cfi_endproc
 1236              	.LFE42:
 1237              		.size	PWM_CHARGE_ReadCompareBuf, .-PWM_CHARGE_ReadCompareBuf
 1238              		.section	.text.PWM_CHARGE_ReadCapture,"ax",%progbits
 1239              		.align	2
 1240              		.global	PWM_CHARGE_ReadCapture
 1241              		.code	16
 1242              		.thumb_func
 1243              		.type	PWM_CHARGE_ReadCapture, %function
 1244              	PWM_CHARGE_ReadCapture:
 1245              	.LFB27:
1047:Generated_Source\PSoC4/PWM_CHARGE.c ****     return (PWM_CHARGE_COMP_CAP_REG & PWM_CHARGE_16BIT_MASK);
 1246              		.loc 1 1047 0
 1247              		.cfi_startproc
 1248              		@ args = 0, pretend = 0, frame = 0
 1249              		@ frame_needed = 0, uses_anonymous_args = 0
 1250              		@ link register save eliminated.
1048:Generated_Source\PSoC4/PWM_CHARGE.c **** }
 1251              		.loc 1 1048 0
 1252 0000 024B     		ldr	r3, .L82
1049:Generated_Source\PSoC4/PWM_CHARGE.c **** 
 1253              		.loc 1 1049 0
 1254              		@ sp needed
1048:Generated_Source\PSoC4/PWM_CHARGE.c **** }
 1255              		.loc 1 1048 0
 1256 0002 1868     		ldr	r0, [r3]
 1257 0004 0004     		lsls	r0, r0, #16
 1258 0006 000C     		lsrs	r0, r0, #16
1049:Generated_Source\PSoC4/PWM_CHARGE.c **** 
 1259              		.loc 1 1049 0
 1260 0008 7047     		bx	lr
 1261              	.L83:
 1262 000a C046     		.align	2
 1263              	.L82:
 1264 000c 0C012040 		.word	1075839244
 1265              		.cfi_endproc
 1266              	.LFE27:
 1267              		.size	PWM_CHARGE_ReadCapture, .-PWM_CHARGE_ReadCapture
 1268              		.section	.text.PWM_CHARGE_ReadCaptureBuf,"ax",%progbits
 1269              		.align	2
 1270              		.global	PWM_CHARGE_ReadCaptureBuf
ARM GAS  C:\Users\ilya\AppData\Local\Temp\cc391SdI.s 			page 50


 1271              		.code	16
 1272              		.thumb_func
 1273              		.type	PWM_CHARGE_ReadCaptureBuf, %function
 1274              	PWM_CHARGE_ReadCaptureBuf:
 1275              	.LFB28:
1068:Generated_Source\PSoC4/PWM_CHARGE.c ****     return (PWM_CHARGE_COMP_CAP_BUF_REG & PWM_CHARGE_16BIT_MASK);
 1276              		.loc 1 1068 0
 1277              		.cfi_startproc
 1278              		@ args = 0, pretend = 0, frame = 0
 1279              		@ frame_needed = 0, uses_anonymous_args = 0
 1280              		@ link register save eliminated.
1069:Generated_Source\PSoC4/PWM_CHARGE.c **** }
 1281              		.loc 1 1069 0
 1282 0000 024B     		ldr	r3, .L85
1070:Generated_Source\PSoC4/PWM_CHARGE.c **** 
 1283              		.loc 1 1070 0
 1284              		@ sp needed
1069:Generated_Source\PSoC4/PWM_CHARGE.c **** }
 1285              		.loc 1 1069 0
 1286 0002 1868     		ldr	r0, [r3]
 1287 0004 0004     		lsls	r0, r0, #16
 1288 0006 000C     		lsrs	r0, r0, #16
1070:Generated_Source\PSoC4/PWM_CHARGE.c **** 
 1289              		.loc 1 1070 0
 1290 0008 7047     		bx	lr
 1291              	.L86:
 1292 000a C046     		.align	2
 1293              	.L85:
 1294 000c 10012040 		.word	1075839248
 1295              		.cfi_endproc
 1296              	.LFE28:
 1297              		.size	PWM_CHARGE_ReadCaptureBuf, .-PWM_CHARGE_ReadCaptureBuf
 1298              		.section	.text.PWM_CHARGE_SetCaptureMode,"ax",%progbits
 1299              		.align	2
 1300              		.global	PWM_CHARGE_SetCaptureMode
 1301              		.code	16
 1302              		.thumb_func
 1303              		.type	PWM_CHARGE_SetCaptureMode, %function
 1304              	PWM_CHARGE_SetCaptureMode:
 1305              	.LFB29:
1095:Generated_Source\PSoC4/PWM_CHARGE.c ****     uint8 enableInterrupts;
 1306              		.loc 1 1095 0
 1307              		.cfi_startproc
 1308              		@ args = 0, pretend = 0, frame = 0
 1309              		@ frame_needed = 0, uses_anonymous_args = 0
 1310              	.LVL80:
 1311 0000 10B5     		push	{r4, lr}
 1312              		.cfi_def_cfa_offset 8
 1313              		.cfi_offset 4, -8
 1314              		.cfi_offset 14, -4
1095:Generated_Source\PSoC4/PWM_CHARGE.c ****     uint8 enableInterrupts;
 1315              		.loc 1 1095 0
 1316 0002 0400     		movs	r4, r0
1098:Generated_Source\PSoC4/PWM_CHARGE.c **** 
 1317              		.loc 1 1098 0
 1318 0004 FFF7FEFF 		bl	CyEnterCriticalSection
 1319              	.LVL81:
ARM GAS  C:\Users\ilya\AppData\Local\Temp\cc391SdI.s 			page 51


1100:Generated_Source\PSoC4/PWM_CHARGE.c ****     PWM_CHARGE_TRIG_CONTROL1_REG |= triggerMode;
 1320              		.loc 1 1100 0
 1321 0008 0321     		movs	r1, #3
 1322 000a 054B     		ldr	r3, .L88
1104:Generated_Source\PSoC4/PWM_CHARGE.c **** 
 1323              		.loc 1 1104 0
 1324              		@ sp needed
1100:Generated_Source\PSoC4/PWM_CHARGE.c ****     PWM_CHARGE_TRIG_CONTROL1_REG |= triggerMode;
 1325              		.loc 1 1100 0
 1326 000c 1A68     		ldr	r2, [r3]
 1327 000e 8A43     		bics	r2, r1
 1328 0010 1A60     		str	r2, [r3]
1101:Generated_Source\PSoC4/PWM_CHARGE.c **** 
 1329              		.loc 1 1101 0
 1330 0012 1A68     		ldr	r2, [r3]
 1331 0014 1443     		orrs	r4, r2
 1332              	.LVL82:
 1333 0016 1C60     		str	r4, [r3]
1103:Generated_Source\PSoC4/PWM_CHARGE.c **** }
 1334              		.loc 1 1103 0
 1335 0018 FFF7FEFF 		bl	CyExitCriticalSection
 1336              	.LVL83:
1104:Generated_Source\PSoC4/PWM_CHARGE.c **** 
 1337              		.loc 1 1104 0
 1338 001c 10BD     		pop	{r4, pc}
 1339              	.L89:
 1340 001e C046     		.align	2
 1341              	.L88:
 1342 0020 24012040 		.word	1075839268
 1343              		.cfi_endproc
 1344              	.LFE29:
 1345              		.size	PWM_CHARGE_SetCaptureMode, .-PWM_CHARGE_SetCaptureMode
 1346              		.section	.text.PWM_CHARGE_SetReloadMode,"ax",%progbits
 1347              		.align	2
 1348              		.global	PWM_CHARGE_SetReloadMode
 1349              		.code	16
 1350              		.thumb_func
 1351              		.type	PWM_CHARGE_SetReloadMode, %function
 1352              	PWM_CHARGE_SetReloadMode:
 1353              	.LFB30:
1128:Generated_Source\PSoC4/PWM_CHARGE.c ****     uint8 enableInterrupts;
 1354              		.loc 1 1128 0
 1355              		.cfi_startproc
 1356              		@ args = 0, pretend = 0, frame = 0
 1357              		@ frame_needed = 0, uses_anonymous_args = 0
 1358              	.LVL84:
 1359 0000 10B5     		push	{r4, lr}
 1360              		.cfi_def_cfa_offset 8
 1361              		.cfi_offset 4, -8
 1362              		.cfi_offset 14, -4
1128:Generated_Source\PSoC4/PWM_CHARGE.c ****     uint8 enableInterrupts;
 1363              		.loc 1 1128 0
 1364 0002 0400     		movs	r4, r0
1131:Generated_Source\PSoC4/PWM_CHARGE.c **** 
 1365              		.loc 1 1131 0
 1366 0004 FFF7FEFF 		bl	CyEnterCriticalSection
 1367              	.LVL85:
ARM GAS  C:\Users\ilya\AppData\Local\Temp\cc391SdI.s 			page 52


1133:Generated_Source\PSoC4/PWM_CHARGE.c ****     PWM_CHARGE_TRIG_CONTROL1_REG |= ((uint32)(triggerMode << PWM_CHARGE_RELOAD_SHIFT));
 1368              		.loc 1 1133 0
 1369 0008 3021     		movs	r1, #48
 1370 000a 054B     		ldr	r3, .L91
1137:Generated_Source\PSoC4/PWM_CHARGE.c **** 
 1371              		.loc 1 1137 0
 1372              		@ sp needed
1133:Generated_Source\PSoC4/PWM_CHARGE.c ****     PWM_CHARGE_TRIG_CONTROL1_REG |= ((uint32)(triggerMode << PWM_CHARGE_RELOAD_SHIFT));
 1373              		.loc 1 1133 0
 1374 000c 1A68     		ldr	r2, [r3]
 1375 000e 8A43     		bics	r2, r1
 1376 0010 1A60     		str	r2, [r3]
1134:Generated_Source\PSoC4/PWM_CHARGE.c **** 
 1377              		.loc 1 1134 0
 1378 0012 1968     		ldr	r1, [r3]
 1379 0014 2201     		lsls	r2, r4, #4
 1380 0016 0A43     		orrs	r2, r1
 1381 0018 1A60     		str	r2, [r3]
1136:Generated_Source\PSoC4/PWM_CHARGE.c **** }
 1382              		.loc 1 1136 0
 1383 001a FFF7FEFF 		bl	CyExitCriticalSection
 1384              	.LVL86:
 1385              	.LVL87:
1137:Generated_Source\PSoC4/PWM_CHARGE.c **** 
 1386              		.loc 1 1137 0
 1387 001e 10BD     		pop	{r4, pc}
 1388              	.L92:
 1389              		.align	2
 1390              	.L91:
 1391 0020 24012040 		.word	1075839268
 1392              		.cfi_endproc
 1393              	.LFE30:
 1394              		.size	PWM_CHARGE_SetReloadMode, .-PWM_CHARGE_SetReloadMode
 1395              		.section	.text.PWM_CHARGE_SetStartMode,"ax",%progbits
 1396              		.align	2
 1397              		.global	PWM_CHARGE_SetStartMode
 1398              		.code	16
 1399              		.thumb_func
 1400              		.type	PWM_CHARGE_SetStartMode, %function
 1401              	PWM_CHARGE_SetStartMode:
 1402              	.LFB31:
1161:Generated_Source\PSoC4/PWM_CHARGE.c ****     uint8 enableInterrupts;
 1403              		.loc 1 1161 0
 1404              		.cfi_startproc
 1405              		@ args = 0, pretend = 0, frame = 0
 1406              		@ frame_needed = 0, uses_anonymous_args = 0
 1407              	.LVL88:
 1408 0000 10B5     		push	{r4, lr}
 1409              		.cfi_def_cfa_offset 8
 1410              		.cfi_offset 4, -8
 1411              		.cfi_offset 14, -4
1161:Generated_Source\PSoC4/PWM_CHARGE.c ****     uint8 enableInterrupts;
 1412              		.loc 1 1161 0
 1413 0002 0400     		movs	r4, r0
1164:Generated_Source\PSoC4/PWM_CHARGE.c **** 
 1414              		.loc 1 1164 0
 1415 0004 FFF7FEFF 		bl	CyEnterCriticalSection
ARM GAS  C:\Users\ilya\AppData\Local\Temp\cc391SdI.s 			page 53


 1416              	.LVL89:
1166:Generated_Source\PSoC4/PWM_CHARGE.c ****     PWM_CHARGE_TRIG_CONTROL1_REG |= ((uint32)(triggerMode << PWM_CHARGE_START_SHIFT));
 1417              		.loc 1 1166 0
 1418 0008 054B     		ldr	r3, .L94
 1419 000a 064A     		ldr	r2, .L94+4
 1420 000c 1968     		ldr	r1, [r3]
1170:Generated_Source\PSoC4/PWM_CHARGE.c **** 
 1421              		.loc 1 1170 0
 1422              		@ sp needed
1166:Generated_Source\PSoC4/PWM_CHARGE.c ****     PWM_CHARGE_TRIG_CONTROL1_REG |= ((uint32)(triggerMode << PWM_CHARGE_START_SHIFT));
 1423              		.loc 1 1166 0
 1424 000e 0A40     		ands	r2, r1
 1425 0010 1A60     		str	r2, [r3]
1167:Generated_Source\PSoC4/PWM_CHARGE.c **** 
 1426              		.loc 1 1167 0
 1427 0012 1968     		ldr	r1, [r3]
 1428 0014 2202     		lsls	r2, r4, #8
 1429 0016 0A43     		orrs	r2, r1
 1430 0018 1A60     		str	r2, [r3]
1169:Generated_Source\PSoC4/PWM_CHARGE.c **** }
 1431              		.loc 1 1169 0
 1432 001a FFF7FEFF 		bl	CyExitCriticalSection
 1433              	.LVL90:
 1434              	.LVL91:
1170:Generated_Source\PSoC4/PWM_CHARGE.c **** 
 1435              		.loc 1 1170 0
 1436 001e 10BD     		pop	{r4, pc}
 1437              	.L95:
 1438              		.align	2
 1439              	.L94:
 1440 0020 24012040 		.word	1075839268
 1441 0024 FFFCFFFF 		.word	-769
 1442              		.cfi_endproc
 1443              	.LFE31:
 1444              		.size	PWM_CHARGE_SetStartMode, .-PWM_CHARGE_SetStartMode
 1445              		.section	.text.PWM_CHARGE_SetStopMode,"ax",%progbits
 1446              		.align	2
 1447              		.global	PWM_CHARGE_SetStopMode
 1448              		.code	16
 1449              		.thumb_func
 1450              		.type	PWM_CHARGE_SetStopMode, %function
 1451              	PWM_CHARGE_SetStopMode:
 1452              	.LFB32:
1193:Generated_Source\PSoC4/PWM_CHARGE.c ****     uint8 enableInterrupts;
 1453              		.loc 1 1193 0
 1454              		.cfi_startproc
 1455              		@ args = 0, pretend = 0, frame = 0
 1456              		@ frame_needed = 0, uses_anonymous_args = 0
 1457              	.LVL92:
 1458 0000 10B5     		push	{r4, lr}
 1459              		.cfi_def_cfa_offset 8
 1460              		.cfi_offset 4, -8
 1461              		.cfi_offset 14, -4
1193:Generated_Source\PSoC4/PWM_CHARGE.c ****     uint8 enableInterrupts;
 1462              		.loc 1 1193 0
 1463 0002 0400     		movs	r4, r0
1196:Generated_Source\PSoC4/PWM_CHARGE.c **** 
ARM GAS  C:\Users\ilya\AppData\Local\Temp\cc391SdI.s 			page 54


 1464              		.loc 1 1196 0
 1465 0004 FFF7FEFF 		bl	CyEnterCriticalSection
 1466              	.LVL93:
1198:Generated_Source\PSoC4/PWM_CHARGE.c ****     PWM_CHARGE_TRIG_CONTROL1_REG |= ((uint32)(triggerMode << PWM_CHARGE_STOP_SHIFT));
 1467              		.loc 1 1198 0
 1468 0008 C021     		movs	r1, #192
 1469 000a 054B     		ldr	r3, .L97
1202:Generated_Source\PSoC4/PWM_CHARGE.c **** 
 1470              		.loc 1 1202 0
 1471              		@ sp needed
1198:Generated_Source\PSoC4/PWM_CHARGE.c ****     PWM_CHARGE_TRIG_CONTROL1_REG |= ((uint32)(triggerMode << PWM_CHARGE_STOP_SHIFT));
 1472              		.loc 1 1198 0
 1473 000c 1A68     		ldr	r2, [r3]
 1474 000e 8A43     		bics	r2, r1
 1475 0010 1A60     		str	r2, [r3]
1199:Generated_Source\PSoC4/PWM_CHARGE.c **** 
 1476              		.loc 1 1199 0
 1477 0012 1968     		ldr	r1, [r3]
 1478 0014 A201     		lsls	r2, r4, #6
 1479 0016 0A43     		orrs	r2, r1
 1480 0018 1A60     		str	r2, [r3]
1201:Generated_Source\PSoC4/PWM_CHARGE.c **** }
 1481              		.loc 1 1201 0
 1482 001a FFF7FEFF 		bl	CyExitCriticalSection
 1483              	.LVL94:
 1484              	.LVL95:
1202:Generated_Source\PSoC4/PWM_CHARGE.c **** 
 1485              		.loc 1 1202 0
 1486 001e 10BD     		pop	{r4, pc}
 1487              	.L98:
 1488              		.align	2
 1489              	.L97:
 1490 0020 24012040 		.word	1075839268
 1491              		.cfi_endproc
 1492              	.LFE32:
 1493              		.size	PWM_CHARGE_SetStopMode, .-PWM_CHARGE_SetStopMode
 1494              		.section	.text.PWM_CHARGE_SetCountMode,"ax",%progbits
 1495              		.align	2
 1496              		.global	PWM_CHARGE_SetCountMode
 1497              		.code	16
 1498              		.thumb_func
 1499              		.type	PWM_CHARGE_SetCountMode, %function
 1500              	PWM_CHARGE_SetCountMode:
 1501              	.LFB33:
1226:Generated_Source\PSoC4/PWM_CHARGE.c ****     uint8 enableInterrupts;
 1502              		.loc 1 1226 0
 1503              		.cfi_startproc
 1504              		@ args = 0, pretend = 0, frame = 0
 1505              		@ frame_needed = 0, uses_anonymous_args = 0
 1506              	.LVL96:
 1507 0000 10B5     		push	{r4, lr}
 1508              		.cfi_def_cfa_offset 8
 1509              		.cfi_offset 4, -8
 1510              		.cfi_offset 14, -4
1226:Generated_Source\PSoC4/PWM_CHARGE.c ****     uint8 enableInterrupts;
 1511              		.loc 1 1226 0
 1512 0002 0400     		movs	r4, r0
ARM GAS  C:\Users\ilya\AppData\Local\Temp\cc391SdI.s 			page 55


1229:Generated_Source\PSoC4/PWM_CHARGE.c **** 
 1513              		.loc 1 1229 0
 1514 0004 FFF7FEFF 		bl	CyEnterCriticalSection
 1515              	.LVL97:
1231:Generated_Source\PSoC4/PWM_CHARGE.c ****     PWM_CHARGE_TRIG_CONTROL1_REG |= ((uint32)(triggerMode << PWM_CHARGE_COUNT_SHIFT));
 1516              		.loc 1 1231 0
 1517 0008 0C21     		movs	r1, #12
 1518 000a 054B     		ldr	r3, .L100
1235:Generated_Source\PSoC4/PWM_CHARGE.c **** 
 1519              		.loc 1 1235 0
 1520              		@ sp needed
1231:Generated_Source\PSoC4/PWM_CHARGE.c ****     PWM_CHARGE_TRIG_CONTROL1_REG |= ((uint32)(triggerMode << PWM_CHARGE_COUNT_SHIFT));
 1521              		.loc 1 1231 0
 1522 000c 1A68     		ldr	r2, [r3]
 1523 000e 8A43     		bics	r2, r1
 1524 0010 1A60     		str	r2, [r3]
1232:Generated_Source\PSoC4/PWM_CHARGE.c **** 
 1525              		.loc 1 1232 0
 1526 0012 1968     		ldr	r1, [r3]
 1527 0014 A200     		lsls	r2, r4, #2
 1528 0016 0A43     		orrs	r2, r1
 1529 0018 1A60     		str	r2, [r3]
1234:Generated_Source\PSoC4/PWM_CHARGE.c **** }
 1530              		.loc 1 1234 0
 1531 001a FFF7FEFF 		bl	CyExitCriticalSection
 1532              	.LVL98:
 1533              	.LVL99:
1235:Generated_Source\PSoC4/PWM_CHARGE.c **** 
 1534              		.loc 1 1235 0
 1535 001e 10BD     		pop	{r4, pc}
 1536              	.L101:
 1537              		.align	2
 1538              	.L100:
 1539 0020 24012040 		.word	1075839268
 1540              		.cfi_endproc
 1541              	.LFE33:
 1542              		.size	PWM_CHARGE_SetCountMode, .-PWM_CHARGE_SetCountMode
 1543              		.section	.text.PWM_CHARGE_TriggerCommand,"ax",%progbits
 1544              		.align	2
 1545              		.global	PWM_CHARGE_TriggerCommand
 1546              		.code	16
 1547              		.thumb_func
 1548              		.type	PWM_CHARGE_TriggerCommand, %function
 1549              	PWM_CHARGE_TriggerCommand:
 1550              	.LFB34:
1266:Generated_Source\PSoC4/PWM_CHARGE.c ****     uint8 enableInterrupts;
 1551              		.loc 1 1266 0
 1552              		.cfi_startproc
 1553              		@ args = 0, pretend = 0, frame = 0
 1554              		@ frame_needed = 0, uses_anonymous_args = 0
 1555              	.LVL100:
 1556 0000 70B5     		push	{r4, r5, r6, lr}
 1557              		.cfi_def_cfa_offset 16
 1558              		.cfi_offset 4, -16
 1559              		.cfi_offset 5, -12
 1560              		.cfi_offset 6, -8
 1561              		.cfi_offset 14, -4
ARM GAS  C:\Users\ilya\AppData\Local\Temp\cc391SdI.s 			page 56


1266:Generated_Source\PSoC4/PWM_CHARGE.c ****     uint8 enableInterrupts;
 1562              		.loc 1 1266 0
 1563 0002 0D00     		movs	r5, r1
 1564 0004 0400     		movs	r4, r0
1271:Generated_Source\PSoC4/PWM_CHARGE.c **** 
 1565              		.loc 1 1271 0
 1566 0006 AC40     		lsls	r4, r4, r5
1269:Generated_Source\PSoC4/PWM_CHARGE.c **** 
 1567              		.loc 1 1269 0
 1568 0008 FFF7FEFF 		bl	CyEnterCriticalSection
 1569              	.LVL101:
1271:Generated_Source\PSoC4/PWM_CHARGE.c **** 
 1570              		.loc 1 1271 0
 1571 000c 024B     		ldr	r3, .L103
1274:Generated_Source\PSoC4/PWM_CHARGE.c **** 
 1572              		.loc 1 1274 0
 1573              		@ sp needed
1271:Generated_Source\PSoC4/PWM_CHARGE.c **** 
 1574              		.loc 1 1271 0
 1575 000e 1C60     		str	r4, [r3]
1273:Generated_Source\PSoC4/PWM_CHARGE.c **** }
 1576              		.loc 1 1273 0
 1577 0010 FFF7FEFF 		bl	CyExitCriticalSection
 1578              	.LVL102:
 1579              	.LVL103:
1274:Generated_Source\PSoC4/PWM_CHARGE.c **** 
 1580              		.loc 1 1274 0
 1581 0014 70BD     		pop	{r4, r5, r6, pc}
 1582              	.L104:
 1583 0016 C046     		.align	2
 1584              	.L103:
 1585 0018 08002040 		.word	1075838984
 1586              		.cfi_endproc
 1587              	.LFE34:
 1588              		.size	PWM_CHARGE_TriggerCommand, .-PWM_CHARGE_TriggerCommand
 1589              		.section	.text.PWM_CHARGE_ReadStatus,"ax",%progbits
 1590              		.align	2
 1591              		.global	PWM_CHARGE_ReadStatus
 1592              		.code	16
 1593              		.thumb_func
 1594              		.type	PWM_CHARGE_ReadStatus, %function
 1595              	PWM_CHARGE_ReadStatus:
 1596              	.LFB35:
1295:Generated_Source\PSoC4/PWM_CHARGE.c ****     return ((PWM_CHARGE_STATUS_REG >> PWM_CHARGE_RUNNING_STATUS_SHIFT) |
 1597              		.loc 1 1295 0
 1598              		.cfi_startproc
 1599              		@ args = 0, pretend = 0, frame = 0
 1600              		@ frame_needed = 0, uses_anonymous_args = 0
 1601              		@ link register save eliminated.
1296:Generated_Source\PSoC4/PWM_CHARGE.c ****             (PWM_CHARGE_STATUS_REG & PWM_CHARGE_STATUS_DOWN));
 1602              		.loc 1 1296 0
 1603 0000 034B     		ldr	r3, .L106
1298:Generated_Source\PSoC4/PWM_CHARGE.c **** 
 1604              		.loc 1 1298 0
 1605              		@ sp needed
1296:Generated_Source\PSoC4/PWM_CHARGE.c ****             (PWM_CHARGE_STATUS_REG & PWM_CHARGE_STATUS_DOWN));
 1606              		.loc 1 1296 0
ARM GAS  C:\Users\ilya\AppData\Local\Temp\cc391SdI.s 			page 57


 1607 0002 1868     		ldr	r0, [r3]
1297:Generated_Source\PSoC4/PWM_CHARGE.c **** }
 1608              		.loc 1 1297 0
 1609 0004 1B68     		ldr	r3, [r3]
1296:Generated_Source\PSoC4/PWM_CHARGE.c ****             (PWM_CHARGE_STATUS_REG & PWM_CHARGE_STATUS_DOWN));
 1610              		.loc 1 1296 0
 1611 0006 820F     		lsrs	r2, r0, #30
 1612 0008 0120     		movs	r0, #1
 1613 000a 1840     		ands	r0, r3
 1614 000c 1043     		orrs	r0, r2
1298:Generated_Source\PSoC4/PWM_CHARGE.c **** 
 1615              		.loc 1 1298 0
 1616 000e 7047     		bx	lr
 1617              	.L107:
 1618              		.align	2
 1619              	.L106:
 1620 0010 04012040 		.word	1075839236
 1621              		.cfi_endproc
 1622              	.LFE35:
 1623              		.size	PWM_CHARGE_ReadStatus, .-PWM_CHARGE_ReadStatus
 1624              		.section	.text.PWM_CHARGE_SetInterruptMode,"ax",%progbits
 1625              		.align	2
 1626              		.global	PWM_CHARGE_SetInterruptMode
 1627              		.code	16
 1628              		.thumb_func
 1629              		.type	PWM_CHARGE_SetInterruptMode, %function
 1630              	PWM_CHARGE_SetInterruptMode:
 1631              	.LFB36:
1320:Generated_Source\PSoC4/PWM_CHARGE.c ****     PWM_CHARGE_INTERRUPT_MASK_REG =  interruptMask;
 1632              		.loc 1 1320 0
 1633              		.cfi_startproc
 1634              		@ args = 0, pretend = 0, frame = 0
 1635              		@ frame_needed = 0, uses_anonymous_args = 0
 1636              		@ link register save eliminated.
 1637              	.LVL104:
 1638              		.loc 1 1321 0
 1639 0000 014B     		ldr	r3, .L109
1322:Generated_Source\PSoC4/PWM_CHARGE.c **** }
 1640              		.loc 1 1322 0
 1641              		@ sp needed
1321:Generated_Source\PSoC4/PWM_CHARGE.c **** }
 1642              		.loc 1 1321 0
 1643 0002 1860     		str	r0, [r3]
 1644              		.loc 1 1322 0
 1645 0004 7047     		bx	lr
 1646              	.L110:
 1647 0006 C046     		.align	2
 1648              	.L109:
 1649 0008 38012040 		.word	1075839288
 1650              		.cfi_endproc
 1651              	.LFE36:
 1652              		.size	PWM_CHARGE_SetInterruptMode, .-PWM_CHARGE_SetInterruptMode
 1653              		.section	.text.PWM_CHARGE_GetInterruptSourceMasked,"ax",%progbits
 1654              		.align	2
 1655              		.global	PWM_CHARGE_GetInterruptSourceMasked
 1656              		.code	16
 1657              		.thumb_func
ARM GAS  C:\Users\ilya\AppData\Local\Temp\cc391SdI.s 			page 58


 1658              		.type	PWM_CHARGE_GetInterruptSourceMasked, %function
 1659              	PWM_CHARGE_GetInterruptSourceMasked:
 1660              	.LFB37:
1323:Generated_Source\PSoC4/PWM_CHARGE.c **** 
1324:Generated_Source\PSoC4/PWM_CHARGE.c **** 
1325:Generated_Source\PSoC4/PWM_CHARGE.c **** /*******************************************************************************
1326:Generated_Source\PSoC4/PWM_CHARGE.c **** * Function Name: PWM_CHARGE_GetInterruptSourceMasked
1327:Generated_Source\PSoC4/PWM_CHARGE.c **** ********************************************************************************
1328:Generated_Source\PSoC4/PWM_CHARGE.c **** *
1329:Generated_Source\PSoC4/PWM_CHARGE.c **** * Summary:
1330:Generated_Source\PSoC4/PWM_CHARGE.c **** *  Gets the interrupt requests masked by the interrupt mask.
1331:Generated_Source\PSoC4/PWM_CHARGE.c **** *
1332:Generated_Source\PSoC4/PWM_CHARGE.c **** * Parameters:
1333:Generated_Source\PSoC4/PWM_CHARGE.c **** *   None
1334:Generated_Source\PSoC4/PWM_CHARGE.c **** *
1335:Generated_Source\PSoC4/PWM_CHARGE.c **** * Return:
1336:Generated_Source\PSoC4/PWM_CHARGE.c **** *  Masked interrupt source
1337:Generated_Source\PSoC4/PWM_CHARGE.c **** *   Values:
1338:Generated_Source\PSoC4/PWM_CHARGE.c **** *     - PWM_CHARGE_INTR_MASK_TC       - Terminal count mask
1339:Generated_Source\PSoC4/PWM_CHARGE.c **** *     - PWM_CHARGE_INTR_MASK_CC_MATCH - Compare count / capture mask
1340:Generated_Source\PSoC4/PWM_CHARGE.c **** *
1341:Generated_Source\PSoC4/PWM_CHARGE.c **** *******************************************************************************/
1342:Generated_Source\PSoC4/PWM_CHARGE.c **** uint32 PWM_CHARGE_GetInterruptSourceMasked(void)
1343:Generated_Source\PSoC4/PWM_CHARGE.c **** {
 1661              		.loc 1 1343 0
 1662              		.cfi_startproc
 1663              		@ args = 0, pretend = 0, frame = 0
 1664              		@ frame_needed = 0, uses_anonymous_args = 0
 1665              		@ link register save eliminated.
1344:Generated_Source\PSoC4/PWM_CHARGE.c ****     return (PWM_CHARGE_INTERRUPT_MASKED_REG);
 1666              		.loc 1 1344 0
 1667 0000 014B     		ldr	r3, .L112
1345:Generated_Source\PSoC4/PWM_CHARGE.c **** }
 1668              		.loc 1 1345 0
 1669              		@ sp needed
1344:Generated_Source\PSoC4/PWM_CHARGE.c ****     return (PWM_CHARGE_INTERRUPT_MASKED_REG);
 1670              		.loc 1 1344 0
 1671 0002 1868     		ldr	r0, [r3]
 1672              		.loc 1 1345 0
 1673 0004 7047     		bx	lr
 1674              	.L113:
 1675 0006 C046     		.align	2
 1676              	.L112:
 1677 0008 3C012040 		.word	1075839292
 1678              		.cfi_endproc
 1679              	.LFE37:
 1680              		.size	PWM_CHARGE_GetInterruptSourceMasked, .-PWM_CHARGE_GetInterruptSourceMasked
 1681              		.section	.text.PWM_CHARGE_GetInterruptSource,"ax",%progbits
 1682              		.align	2
 1683              		.global	PWM_CHARGE_GetInterruptSource
 1684              		.code	16
 1685              		.thumb_func
 1686              		.type	PWM_CHARGE_GetInterruptSource, %function
 1687              	PWM_CHARGE_GetInterruptSource:
 1688              	.LFB38:
1346:Generated_Source\PSoC4/PWM_CHARGE.c **** 
1347:Generated_Source\PSoC4/PWM_CHARGE.c **** 
ARM GAS  C:\Users\ilya\AppData\Local\Temp\cc391SdI.s 			page 59


1348:Generated_Source\PSoC4/PWM_CHARGE.c **** /*******************************************************************************
1349:Generated_Source\PSoC4/PWM_CHARGE.c **** * Function Name: PWM_CHARGE_GetInterruptSource
1350:Generated_Source\PSoC4/PWM_CHARGE.c **** ********************************************************************************
1351:Generated_Source\PSoC4/PWM_CHARGE.c **** *
1352:Generated_Source\PSoC4/PWM_CHARGE.c **** * Summary:
1353:Generated_Source\PSoC4/PWM_CHARGE.c **** *  Gets the interrupt requests (without masking).
1354:Generated_Source\PSoC4/PWM_CHARGE.c **** *
1355:Generated_Source\PSoC4/PWM_CHARGE.c **** * Parameters:
1356:Generated_Source\PSoC4/PWM_CHARGE.c **** *  None
1357:Generated_Source\PSoC4/PWM_CHARGE.c **** *
1358:Generated_Source\PSoC4/PWM_CHARGE.c **** * Return:
1359:Generated_Source\PSoC4/PWM_CHARGE.c **** *  Interrupt request value
1360:Generated_Source\PSoC4/PWM_CHARGE.c **** *   Values:
1361:Generated_Source\PSoC4/PWM_CHARGE.c **** *     - PWM_CHARGE_INTR_MASK_TC       - Terminal count mask
1362:Generated_Source\PSoC4/PWM_CHARGE.c **** *     - PWM_CHARGE_INTR_MASK_CC_MATCH - Compare count / capture mask
1363:Generated_Source\PSoC4/PWM_CHARGE.c **** *
1364:Generated_Source\PSoC4/PWM_CHARGE.c **** *******************************************************************************/
1365:Generated_Source\PSoC4/PWM_CHARGE.c **** uint32 PWM_CHARGE_GetInterruptSource(void)
1366:Generated_Source\PSoC4/PWM_CHARGE.c **** {
 1689              		.loc 1 1366 0
 1690              		.cfi_startproc
 1691              		@ args = 0, pretend = 0, frame = 0
 1692              		@ frame_needed = 0, uses_anonymous_args = 0
 1693              		@ link register save eliminated.
1367:Generated_Source\PSoC4/PWM_CHARGE.c ****     return (PWM_CHARGE_INTERRUPT_REQ_REG);
 1694              		.loc 1 1367 0
 1695 0000 014B     		ldr	r3, .L115
1368:Generated_Source\PSoC4/PWM_CHARGE.c **** }
 1696              		.loc 1 1368 0
 1697              		@ sp needed
1367:Generated_Source\PSoC4/PWM_CHARGE.c ****     return (PWM_CHARGE_INTERRUPT_REQ_REG);
 1698              		.loc 1 1367 0
 1699 0002 1868     		ldr	r0, [r3]
 1700              		.loc 1 1368 0
 1701 0004 7047     		bx	lr
 1702              	.L116:
 1703 0006 C046     		.align	2
 1704              	.L115:
 1705 0008 30012040 		.word	1075839280
 1706              		.cfi_endproc
 1707              	.LFE38:
 1708              		.size	PWM_CHARGE_GetInterruptSource, .-PWM_CHARGE_GetInterruptSource
 1709              		.section	.text.PWM_CHARGE_ClearInterrupt,"ax",%progbits
 1710              		.align	2
 1711              		.global	PWM_CHARGE_ClearInterrupt
 1712              		.code	16
 1713              		.thumb_func
 1714              		.type	PWM_CHARGE_ClearInterrupt, %function
 1715              	PWM_CHARGE_ClearInterrupt:
 1716              	.LFB39:
1369:Generated_Source\PSoC4/PWM_CHARGE.c **** 
1370:Generated_Source\PSoC4/PWM_CHARGE.c **** 
1371:Generated_Source\PSoC4/PWM_CHARGE.c **** /*******************************************************************************
1372:Generated_Source\PSoC4/PWM_CHARGE.c **** * Function Name: PWM_CHARGE_ClearInterrupt
1373:Generated_Source\PSoC4/PWM_CHARGE.c **** ********************************************************************************
1374:Generated_Source\PSoC4/PWM_CHARGE.c **** *
1375:Generated_Source\PSoC4/PWM_CHARGE.c **** * Summary:
ARM GAS  C:\Users\ilya\AppData\Local\Temp\cc391SdI.s 			page 60


1376:Generated_Source\PSoC4/PWM_CHARGE.c **** *  Clears the interrupt request.
1377:Generated_Source\PSoC4/PWM_CHARGE.c **** *
1378:Generated_Source\PSoC4/PWM_CHARGE.c **** * Parameters:
1379:Generated_Source\PSoC4/PWM_CHARGE.c **** *   interruptMask: Mask of interrupts to clear
1380:Generated_Source\PSoC4/PWM_CHARGE.c **** *   Values:
1381:Generated_Source\PSoC4/PWM_CHARGE.c **** *     - PWM_CHARGE_INTR_MASK_TC       - Terminal count mask
1382:Generated_Source\PSoC4/PWM_CHARGE.c **** *     - PWM_CHARGE_INTR_MASK_CC_MATCH - Compare count / capture mask
1383:Generated_Source\PSoC4/PWM_CHARGE.c **** *
1384:Generated_Source\PSoC4/PWM_CHARGE.c **** * Return:
1385:Generated_Source\PSoC4/PWM_CHARGE.c **** *  None
1386:Generated_Source\PSoC4/PWM_CHARGE.c **** *
1387:Generated_Source\PSoC4/PWM_CHARGE.c **** *******************************************************************************/
1388:Generated_Source\PSoC4/PWM_CHARGE.c **** void PWM_CHARGE_ClearInterrupt(uint32 interruptMask)
1389:Generated_Source\PSoC4/PWM_CHARGE.c **** {
 1717              		.loc 1 1389 0
 1718              		.cfi_startproc
 1719              		@ args = 0, pretend = 0, frame = 0
 1720              		@ frame_needed = 0, uses_anonymous_args = 0
 1721              		@ link register save eliminated.
 1722              	.LVL105:
1390:Generated_Source\PSoC4/PWM_CHARGE.c ****     PWM_CHARGE_INTERRUPT_REQ_REG = interruptMask;
 1723              		.loc 1 1390 0
 1724 0000 014B     		ldr	r3, .L118
1391:Generated_Source\PSoC4/PWM_CHARGE.c **** }
 1725              		.loc 1 1391 0
 1726              		@ sp needed
1390:Generated_Source\PSoC4/PWM_CHARGE.c ****     PWM_CHARGE_INTERRUPT_REQ_REG = interruptMask;
 1727              		.loc 1 1390 0
 1728 0002 1860     		str	r0, [r3]
 1729              		.loc 1 1391 0
 1730 0004 7047     		bx	lr
 1731              	.L119:
 1732 0006 C046     		.align	2
 1733              	.L118:
 1734 0008 30012040 		.word	1075839280
 1735              		.cfi_endproc
 1736              	.LFE39:
 1737              		.size	PWM_CHARGE_ClearInterrupt, .-PWM_CHARGE_ClearInterrupt
 1738              		.section	.text.PWM_CHARGE_SetInterrupt,"ax",%progbits
 1739              		.align	2
 1740              		.global	PWM_CHARGE_SetInterrupt
 1741              		.code	16
 1742              		.thumb_func
 1743              		.type	PWM_CHARGE_SetInterrupt, %function
 1744              	PWM_CHARGE_SetInterrupt:
 1745              	.LFB40:
1392:Generated_Source\PSoC4/PWM_CHARGE.c **** 
1393:Generated_Source\PSoC4/PWM_CHARGE.c **** 
1394:Generated_Source\PSoC4/PWM_CHARGE.c **** /*******************************************************************************
1395:Generated_Source\PSoC4/PWM_CHARGE.c **** * Function Name: PWM_CHARGE_SetInterrupt
1396:Generated_Source\PSoC4/PWM_CHARGE.c **** ********************************************************************************
1397:Generated_Source\PSoC4/PWM_CHARGE.c **** *
1398:Generated_Source\PSoC4/PWM_CHARGE.c **** * Summary:
1399:Generated_Source\PSoC4/PWM_CHARGE.c **** *  Sets a software interrupt request.
1400:Generated_Source\PSoC4/PWM_CHARGE.c **** *
1401:Generated_Source\PSoC4/PWM_CHARGE.c **** * Parameters:
1402:Generated_Source\PSoC4/PWM_CHARGE.c **** *   interruptMask: Mask of interrupts to set
ARM GAS  C:\Users\ilya\AppData\Local\Temp\cc391SdI.s 			page 61


1403:Generated_Source\PSoC4/PWM_CHARGE.c **** *   Values:
1404:Generated_Source\PSoC4/PWM_CHARGE.c **** *     - PWM_CHARGE_INTR_MASK_TC       - Terminal count mask
1405:Generated_Source\PSoC4/PWM_CHARGE.c **** *     - PWM_CHARGE_INTR_MASK_CC_MATCH - Compare count / capture mask
1406:Generated_Source\PSoC4/PWM_CHARGE.c **** *
1407:Generated_Source\PSoC4/PWM_CHARGE.c **** * Return:
1408:Generated_Source\PSoC4/PWM_CHARGE.c **** *  None
1409:Generated_Source\PSoC4/PWM_CHARGE.c **** *
1410:Generated_Source\PSoC4/PWM_CHARGE.c **** *******************************************************************************/
1411:Generated_Source\PSoC4/PWM_CHARGE.c **** void PWM_CHARGE_SetInterrupt(uint32 interruptMask)
1412:Generated_Source\PSoC4/PWM_CHARGE.c **** {
 1746              		.loc 1 1412 0
 1747              		.cfi_startproc
 1748              		@ args = 0, pretend = 0, frame = 0
 1749              		@ frame_needed = 0, uses_anonymous_args = 0
 1750              		@ link register save eliminated.
 1751              	.LVL106:
1413:Generated_Source\PSoC4/PWM_CHARGE.c ****     PWM_CHARGE_INTERRUPT_SET_REG = interruptMask;
 1752              		.loc 1 1413 0
 1753 0000 014B     		ldr	r3, .L121
1414:Generated_Source\PSoC4/PWM_CHARGE.c **** }
 1754              		.loc 1 1414 0
 1755              		@ sp needed
1413:Generated_Source\PSoC4/PWM_CHARGE.c ****     PWM_CHARGE_INTERRUPT_SET_REG = interruptMask;
 1756              		.loc 1 1413 0
 1757 0002 1860     		str	r0, [r3]
 1758              		.loc 1 1414 0
 1759 0004 7047     		bx	lr
 1760              	.L122:
 1761 0006 C046     		.align	2
 1762              	.L121:
 1763 0008 34012040 		.word	1075839284
 1764              		.cfi_endproc
 1765              	.LFE40:
 1766              		.size	PWM_CHARGE_SetInterrupt, .-PWM_CHARGE_SetInterrupt
 1767              		.global	PWM_CHARGE_initVar
 1768              		.bss
 1769              		.set	.LANCHOR0,. + 0
 1770              		.type	PWM_CHARGE_initVar, %object
 1771              		.size	PWM_CHARGE_initVar, 1
 1772              	PWM_CHARGE_initVar:
 1773 0000 00       		.space	1
 1774              		.text
 1775              	.Letext0:
 1776              		.file 2 "Generated_Source\\PSoC4\\cytypes.h"
 1777              		.file 3 "Generated_Source\\PSoC4\\CyLib.h"
 1778              		.section	.debug_info,"",%progbits
 1779              	.Ldebug_info0:
 1780 0000 A00A0000 		.4byte	0xaa0
 1781 0004 0400     		.2byte	0x4
 1782 0006 00000000 		.4byte	.Ldebug_abbrev0
 1783 000a 04       		.byte	0x4
 1784 000b 01       		.uleb128 0x1
 1785 000c E1000000 		.4byte	.LASF76
 1786 0010 0C       		.byte	0xc
 1787 0011 91050000 		.4byte	.LASF77
 1788 0015 20050000 		.4byte	.LASF78
 1789 0019 30000000 		.4byte	.Ldebug_ranges0+0x30
ARM GAS  C:\Users\ilya\AppData\Local\Temp\cc391SdI.s 			page 62


 1790 001d 00000000 		.4byte	0
 1791 0021 00000000 		.4byte	.Ldebug_line0
 1792 0025 02       		.uleb128 0x2
 1793 0026 01       		.byte	0x1
 1794 0027 06       		.byte	0x6
 1795 0028 7D010000 		.4byte	.LASF0
 1796 002c 02       		.uleb128 0x2
 1797 002d 01       		.byte	0x1
 1798 002e 08       		.byte	0x8
 1799 002f 9A040000 		.4byte	.LASF1
 1800 0033 02       		.uleb128 0x2
 1801 0034 02       		.byte	0x2
 1802 0035 05       		.byte	0x5
 1803 0036 B9040000 		.4byte	.LASF2
 1804 003a 02       		.uleb128 0x2
 1805 003b 02       		.byte	0x2
 1806 003c 07       		.byte	0x7
 1807 003d 27030000 		.4byte	.LASF3
 1808 0041 02       		.uleb128 0x2
 1809 0042 04       		.byte	0x4
 1810 0043 05       		.byte	0x5
 1811 0044 AA010000 		.4byte	.LASF4
 1812 0048 02       		.uleb128 0x2
 1813 0049 04       		.byte	0x4
 1814 004a 07       		.byte	0x7
 1815 004b AB020000 		.4byte	.LASF5
 1816 004f 02       		.uleb128 0x2
 1817 0050 08       		.byte	0x8
 1818 0051 05       		.byte	0x5
 1819 0052 6F010000 		.4byte	.LASF6
 1820 0056 02       		.uleb128 0x2
 1821 0057 08       		.byte	0x8
 1822 0058 07       		.byte	0x7
 1823 0059 8E000000 		.4byte	.LASF7
 1824 005d 03       		.uleb128 0x3
 1825 005e 04       		.byte	0x4
 1826 005f 05       		.byte	0x5
 1827 0060 696E7400 		.ascii	"int\000"
 1828 0064 02       		.uleb128 0x2
 1829 0065 04       		.byte	0x4
 1830 0066 07       		.byte	0x7
 1831 0067 50020000 		.4byte	.LASF8
 1832 006b 04       		.uleb128 0x4
 1833 006c E4010000 		.4byte	.LASF9
 1834 0070 02       		.byte	0x2
 1835 0071 D201     		.2byte	0x1d2
 1836 0073 2C000000 		.4byte	0x2c
 1837 0077 04       		.uleb128 0x4
 1838 0078 09020000 		.4byte	.LASF10
 1839 007c 02       		.byte	0x2
 1840 007d D401     		.2byte	0x1d4
 1841 007f 48000000 		.4byte	0x48
 1842 0083 02       		.uleb128 0x2
 1843 0084 04       		.byte	0x4
 1844 0085 04       		.byte	0x4
 1845 0086 8A040000 		.4byte	.LASF11
 1846 008a 02       		.uleb128 0x2
ARM GAS  C:\Users\ilya\AppData\Local\Temp\cc391SdI.s 			page 63


 1847 008b 08       		.byte	0x8
 1848 008c 04       		.byte	0x4
 1849 008d EA010000 		.4byte	.LASF12
 1850 0091 02       		.uleb128 0x2
 1851 0092 01       		.byte	0x1
 1852 0093 08       		.byte	0x8
 1853 0094 EB040000 		.4byte	.LASF13
 1854 0098 04       		.uleb128 0x4
 1855 0099 8F030000 		.4byte	.LASF14
 1856 009d 02       		.byte	0x2
 1857 009e 7E02     		.2byte	0x27e
 1858 00a0 A4000000 		.4byte	0xa4
 1859 00a4 05       		.uleb128 0x5
 1860 00a5 77000000 		.4byte	0x77
 1861 00a9 02       		.uleb128 0x2
 1862 00aa 08       		.byte	0x8
 1863 00ab 04       		.byte	0x4
 1864 00ac E1030000 		.4byte	.LASF15
 1865 00b0 02       		.uleb128 0x2
 1866 00b1 04       		.byte	0x4
 1867 00b2 07       		.byte	0x7
 1868 00b3 D8030000 		.4byte	.LASF16
 1869 00b7 06       		.uleb128 0x6
 1870 00b8 89010000 		.4byte	.LASF19
 1871 00bc 01       		.byte	0x1
 1872 00bd F104     		.2byte	0x4f1
 1873 00bf 01       		.byte	0x1
 1874 00c0 E9000000 		.4byte	0xe9
 1875 00c4 07       		.uleb128 0x7
 1876 00c5 1C020000 		.4byte	.LASF17
 1877 00c9 01       		.byte	0x1
 1878 00ca F104     		.2byte	0x4f1
 1879 00cc 77000000 		.4byte	0x77
 1880 00d0 07       		.uleb128 0x7
 1881 00d1 76020000 		.4byte	.LASF18
 1882 00d5 01       		.byte	0x1
 1883 00d6 F104     		.2byte	0x4f1
 1884 00d8 77000000 		.4byte	0x77
 1885 00dc 08       		.uleb128 0x8
 1886 00dd 80050000 		.4byte	.LASF29
 1887 00e1 01       		.byte	0x1
 1888 00e2 F304     		.2byte	0x4f3
 1889 00e4 6B000000 		.4byte	0x6b
 1890 00e8 00       		.byte	0
 1891 00e9 06       		.uleb128 0x6
 1892 00ea A5000000 		.4byte	.LASF20
 1893 00ee 01       		.byte	0x1
 1894 00ef 5103     		.2byte	0x351
 1895 00f1 01       		.byte	0x1
 1896 00f2 03010000 		.4byte	0x103
 1897 00f6 07       		.uleb128 0x7
 1898 00f7 00040000 		.4byte	.LASF21
 1899 00fb 01       		.byte	0x1
 1900 00fc 5103     		.2byte	0x351
 1901 00fe 77000000 		.4byte	0x77
 1902 0102 00       		.byte	0
 1903 0103 06       		.uleb128 0x6
ARM GAS  C:\Users\ilya\AppData\Local\Temp\cc391SdI.s 			page 64


 1904 0104 94020000 		.4byte	.LASF22
 1905 0108 01       		.byte	0x1
 1906 0109 B502     		.2byte	0x2b5
 1907 010b 01       		.byte	0x1
 1908 010c 1D010000 		.4byte	0x11d
 1909 0110 07       		.uleb128 0x7
 1910 0111 87000000 		.4byte	.LASF23
 1911 0115 01       		.byte	0x1
 1912 0116 B502     		.2byte	0x2b5
 1913 0118 77000000 		.4byte	0x77
 1914 011c 00       		.byte	0
 1915 011d 06       		.uleb128 0x6
 1916 011e 20040000 		.4byte	.LASF24
 1917 0122 01       		.byte	0x1
 1918 0123 2705     		.2byte	0x527
 1919 0125 01       		.byte	0x1
 1920 0126 37010000 		.4byte	0x137
 1921 012a 07       		.uleb128 0x7
 1922 012b C3040000 		.4byte	.LASF25
 1923 012f 01       		.byte	0x1
 1924 0130 2705     		.2byte	0x527
 1925 0132 77000000 		.4byte	0x77
 1926 0136 00       		.byte	0
 1927 0137 06       		.uleb128 0x6
 1928 0138 F1010000 		.4byte	.LASF26
 1929 013c 01       		.byte	0x1
 1930 013d 6702     		.2byte	0x267
 1931 013f 01       		.byte	0x1
 1932 0140 51010000 		.4byte	0x151
 1933 0144 07       		.uleb128 0x7
 1934 0145 00000000 		.4byte	.LASF27
 1935 0149 01       		.byte	0x1
 1936 014a 6702     		.2byte	0x267
 1937 014c 77000000 		.4byte	0x77
 1938 0150 00       		.byte	0
 1939 0151 09       		.uleb128 0x9
 1940 0152 2A020000 		.4byte	.LASF79
 1941 0156 01       		.byte	0x1
 1942 0157 26       		.byte	0x26
 1943 0158 01       		.byte	0x1
 1944 0159 0A       		.uleb128 0xa
 1945 015a 51010000 		.4byte	0x151
 1946 015e 00000000 		.4byte	.LFB1
 1947 0162 54000000 		.4byte	.LFE1-.LFB1
 1948 0166 01       		.uleb128 0x1
 1949 0167 9C       		.byte	0x9c
 1950 0168 DD010000 		.4byte	0x1dd
 1951 016c 0B       		.uleb128 0xb
 1952 016d 37010000 		.4byte	0x137
 1953 0171 02000000 		.4byte	.LBB22
 1954 0175 00000000 		.4byte	.Ldebug_ranges0+0
 1955 0179 01       		.byte	0x1
 1956 017a 67       		.byte	0x67
 1957 017b 89010000 		.4byte	0x189
 1958 017f 0C       		.uleb128 0xc
 1959 0180 44010000 		.4byte	0x144
 1960 0184 00000000 		.4byte	.LLST0
ARM GAS  C:\Users\ilya\AppData\Local\Temp\cc391SdI.s 			page 65


 1961 0188 00       		.byte	0
 1962 0189 0D       		.uleb128 0xd
 1963 018a 1D010000 		.4byte	0x11d
 1964 018e 1E000000 		.4byte	.LBB26
 1965 0192 06000000 		.4byte	.LBE26-.LBB26
 1966 0196 01       		.byte	0x1
 1967 0197 77       		.byte	0x77
 1968 0198 A6010000 		.4byte	0x1a6
 1969 019c 0C       		.uleb128 0xc
 1970 019d 2A010000 		.4byte	0x12a
 1971 01a1 14000000 		.4byte	.LLST1
 1972 01a5 00       		.byte	0
 1973 01a6 0D       		.uleb128 0xd
 1974 01a7 03010000 		.4byte	0x103
 1975 01ab 28000000 		.4byte	.LBB28
 1976 01af 08000000 		.4byte	.LBE28-.LBB28
 1977 01b3 01       		.byte	0x1
 1978 01b4 92       		.byte	0x92
 1979 01b5 C3010000 		.4byte	0x1c3
 1980 01b9 0C       		.uleb128 0xc
 1981 01ba 10010000 		.4byte	0x110
 1982 01be 28000000 		.4byte	.LLST2
 1983 01c2 00       		.byte	0
 1984 01c3 0E       		.uleb128 0xe
 1985 01c4 E9000000 		.4byte	0xe9
 1986 01c8 30000000 		.4byte	.LBB30
 1987 01cc 04000000 		.4byte	.LBE30-.LBB30
 1988 01d0 01       		.byte	0x1
 1989 01d1 93       		.byte	0x93
 1990 01d2 0C       		.uleb128 0xc
 1991 01d3 F6000000 		.4byte	0xf6
 1992 01d7 3E000000 		.4byte	.LLST3
 1993 01db 00       		.byte	0
 1994 01dc 00       		.byte	0
 1995 01dd 0F       		.uleb128 0xf
 1996 01de 95030000 		.4byte	.LASF28
 1997 01e2 01       		.byte	0x1
 1998 01e3 B1       		.byte	0xb1
 1999 01e4 01       		.byte	0x1
 2000 01e5 F5010000 		.4byte	0x1f5
 2001 01e9 10       		.uleb128 0x10
 2002 01ea 80050000 		.4byte	.LASF29
 2003 01ee 01       		.byte	0x1
 2004 01ef B3       		.byte	0xb3
 2005 01f0 6B000000 		.4byte	0x6b
 2006 01f4 00       		.byte	0
 2007 01f5 0A       		.uleb128 0xa
 2008 01f6 DD010000 		.4byte	0x1dd
 2009 01fa 00000000 		.4byte	.LFB2
 2010 01fe 30000000 		.4byte	.LFE2-.LFB2
 2011 0202 01       		.uleb128 0x1
 2012 0203 9C       		.byte	0x9c
 2013 0204 6F020000 		.4byte	0x26f
 2014 0208 11       		.uleb128 0x11
 2015 0209 E9010000 		.4byte	0x1e9
 2016 020d 52000000 		.4byte	.LLST4
 2017 0211 0D       		.uleb128 0xd
ARM GAS  C:\Users\ilya\AppData\Local\Temp\cc391SdI.s 			page 66


 2018 0212 B7000000 		.4byte	0xb7
 2019 0216 14000000 		.4byte	.LBB34
 2020 021a 10000000 		.4byte	.LBE34-.LBB34
 2021 021e 01       		.byte	0x1
 2022 021f BC       		.byte	0xbc
 2023 0220 5C020000 		.4byte	0x25c
 2024 0224 0C       		.uleb128 0xc
 2025 0225 D0000000 		.4byte	0xd0
 2026 0229 65000000 		.4byte	.LLST5
 2027 022d 0C       		.uleb128 0xc
 2028 022e C4000000 		.4byte	0xc4
 2029 0232 79000000 		.4byte	.LLST6
 2030 0236 12       		.uleb128 0x12
 2031 0237 14000000 		.4byte	.LBB35
 2032 023b 10000000 		.4byte	.LBE35-.LBB35
 2033 023f 11       		.uleb128 0x11
 2034 0240 DC000000 		.4byte	0xdc
 2035 0244 8D000000 		.4byte	.LLST7
 2036 0248 13       		.uleb128 0x13
 2037 0249 18000000 		.4byte	.LVL9
 2038 024d 8D0A0000 		.4byte	0xa8d
 2039 0251 13       		.uleb128 0x13
 2040 0252 24000000 		.4byte	.LVL10
 2041 0256 980A0000 		.4byte	0xa98
 2042 025a 00       		.byte	0
 2043 025b 00       		.byte	0
 2044 025c 13       		.uleb128 0x13
 2045 025d 06000000 		.4byte	.LVL7
 2046 0261 8D0A0000 		.4byte	0xa8d
 2047 0265 13       		.uleb128 0x13
 2048 0266 14000000 		.4byte	.LVL8
 2049 026a 980A0000 		.4byte	0xa98
 2050 026e 00       		.byte	0
 2051 026f 14       		.uleb128 0x14
 2052 0270 3E050000 		.4byte	.LASF30
 2053 0274 01       		.byte	0x1
 2054 0275 E6       		.byte	0xe6
 2055 0276 00000000 		.4byte	.LFB3
 2056 027a 8C000000 		.4byte	.LFE3-.LFB3
 2057 027e 01       		.uleb128 0x1
 2058 027f 9C       		.byte	0x9c
 2059 0280 85030000 		.4byte	0x385
 2060 0284 0D       		.uleb128 0xd
 2061 0285 51010000 		.4byte	0x151
 2062 0289 0A000000 		.4byte	.LBB50
 2063 028d 32000000 		.4byte	.LBE50-.LBB50
 2064 0291 01       		.byte	0x1
 2065 0292 EA       		.byte	0xea
 2066 0293 08030000 		.4byte	0x308
 2067 0297 0D       		.uleb128 0xd
 2068 0298 37010000 		.4byte	0x137
 2069 029c 16000000 		.4byte	.LBB52
 2070 02a0 04000000 		.4byte	.LBE52-.LBB52
 2071 02a4 01       		.byte	0x1
 2072 02a5 67       		.byte	0x67
 2073 02a6 B4020000 		.4byte	0x2b4
 2074 02aa 0C       		.uleb128 0xc
ARM GAS  C:\Users\ilya\AppData\Local\Temp\cc391SdI.s 			page 67


 2075 02ab 44010000 		.4byte	0x144
 2076 02af A0000000 		.4byte	.LLST8
 2077 02b3 00       		.byte	0
 2078 02b4 0D       		.uleb128 0xd
 2079 02b5 1D010000 		.4byte	0x11d
 2080 02b9 26000000 		.4byte	.LBB54
 2081 02bd 06000000 		.4byte	.LBE54-.LBB54
 2082 02c1 01       		.byte	0x1
 2083 02c2 77       		.byte	0x77
 2084 02c3 D1020000 		.4byte	0x2d1
 2085 02c7 0C       		.uleb128 0xc
 2086 02c8 2A010000 		.4byte	0x12a
 2087 02cc B4000000 		.4byte	.LLST9
 2088 02d0 00       		.byte	0
 2089 02d1 0D       		.uleb128 0xd
 2090 02d2 03010000 		.4byte	0x103
 2091 02d6 30000000 		.4byte	.LBB56
 2092 02da 08000000 		.4byte	.LBE56-.LBB56
 2093 02de 01       		.byte	0x1
 2094 02df 92       		.byte	0x92
 2095 02e0 EE020000 		.4byte	0x2ee
 2096 02e4 0C       		.uleb128 0xc
 2097 02e5 10010000 		.4byte	0x110
 2098 02e9 C8000000 		.4byte	.LLST10
 2099 02ed 00       		.byte	0
 2100 02ee 0E       		.uleb128 0xe
 2101 02ef E9000000 		.4byte	0xe9
 2102 02f3 38000000 		.4byte	.LBB58
 2103 02f7 04000000 		.4byte	.LBE58-.LBB58
 2104 02fb 01       		.byte	0x1
 2105 02fc 93       		.byte	0x93
 2106 02fd 0C       		.uleb128 0xc
 2107 02fe F6000000 		.4byte	0xf6
 2108 0302 DE000000 		.4byte	.LLST11
 2109 0306 00       		.byte	0
 2110 0307 00       		.byte	0
 2111 0308 15       		.uleb128 0x15
 2112 0309 DD010000 		.4byte	0x1dd
 2113 030d 3E000000 		.4byte	.LBB60
 2114 0311 18000000 		.4byte	.Ldebug_ranges0+0x18
 2115 0315 01       		.byte	0x1
 2116 0316 EE       		.byte	0xee
 2117 0317 16       		.uleb128 0x16
 2118 0318 18000000 		.4byte	.Ldebug_ranges0+0x18
 2119 031c 11       		.uleb128 0x11
 2120 031d E9010000 		.4byte	0x1e9
 2121 0321 F2000000 		.4byte	.LLST12
 2122 0325 0D       		.uleb128 0xd
 2123 0326 B7000000 		.4byte	0xb7
 2124 032a 50000000 		.4byte	.LBB62
 2125 032e 10000000 		.4byte	.LBE62-.LBB62
 2126 0332 01       		.byte	0x1
 2127 0333 BC       		.byte	0xbc
 2128 0334 70030000 		.4byte	0x370
 2129 0338 0C       		.uleb128 0xc
 2130 0339 D0000000 		.4byte	0xd0
 2131 033d 05010000 		.4byte	.LLST13
ARM GAS  C:\Users\ilya\AppData\Local\Temp\cc391SdI.s 			page 68


 2132 0341 0C       		.uleb128 0xc
 2133 0342 C4000000 		.4byte	0xc4
 2134 0346 19010000 		.4byte	.LLST14
 2135 034a 12       		.uleb128 0x12
 2136 034b 50000000 		.4byte	.LBB63
 2137 034f 10000000 		.4byte	.LBE63-.LBB63
 2138 0353 11       		.uleb128 0x11
 2139 0354 DC000000 		.4byte	0xdc
 2140 0358 2D010000 		.4byte	.LLST15
 2141 035c 13       		.uleb128 0x13
 2142 035d 54000000 		.4byte	.LVL20
 2143 0361 8D0A0000 		.4byte	0xa8d
 2144 0365 13       		.uleb128 0x13
 2145 0366 60000000 		.4byte	.LVL21
 2146 036a 980A0000 		.4byte	0xa98
 2147 036e 00       		.byte	0
 2148 036f 00       		.byte	0
 2149 0370 13       		.uleb128 0x13
 2150 0371 42000000 		.4byte	.LVL18
 2151 0375 8D0A0000 		.4byte	0xa8d
 2152 0379 13       		.uleb128 0x13
 2153 037a 50000000 		.4byte	.LVL19
 2154 037e 980A0000 		.4byte	0xa98
 2155 0382 00       		.byte	0
 2156 0383 00       		.byte	0
 2157 0384 00       		.byte	0
 2158 0385 17       		.uleb128 0x17
 2159 0386 CD050000 		.4byte	.LASF31
 2160 038a 01       		.byte	0x1
 2161 038b 0001     		.2byte	0x100
 2162 038d 00000000 		.4byte	.LFB4
 2163 0391 1C000000 		.4byte	.LFE4-.LFB4
 2164 0395 01       		.uleb128 0x1
 2165 0396 9C       		.byte	0x9c
 2166 0397 BE030000 		.4byte	0x3be
 2167 039b 18       		.uleb128 0x18
 2168 039c 80050000 		.4byte	.LASF29
 2169 03a0 01       		.byte	0x1
 2170 03a1 0201     		.2byte	0x102
 2171 03a3 6B000000 		.4byte	0x6b
 2172 03a7 40010000 		.4byte	.LLST16
 2173 03ab 13       		.uleb128 0x13
 2174 03ac 06000000 		.4byte	.LVL22
 2175 03b0 8D0A0000 		.4byte	0xa8d
 2176 03b4 13       		.uleb128 0x13
 2177 03b5 14000000 		.4byte	.LVL23
 2178 03b9 980A0000 		.4byte	0xa98
 2179 03bd 00       		.byte	0
 2180 03be 17       		.uleb128 0x17
 2181 03bf F7050000 		.4byte	.LASF32
 2182 03c3 01       		.byte	0x1
 2183 03c4 2501     		.2byte	0x125
 2184 03c6 00000000 		.4byte	.LFB5
 2185 03ca 28000000 		.4byte	.LFE5-.LFB5
 2186 03ce 01       		.uleb128 0x1
 2187 03cf 9C       		.byte	0x9c
 2188 03d0 07040000 		.4byte	0x407
ARM GAS  C:\Users\ilya\AppData\Local\Temp\cc391SdI.s 			page 69


 2189 03d4 19       		.uleb128 0x19
 2190 03d5 F0040000 		.4byte	.LASF34
 2191 03d9 01       		.byte	0x1
 2192 03da 2501     		.2byte	0x125
 2193 03dc 77000000 		.4byte	0x77
 2194 03e0 53010000 		.4byte	.LLST17
 2195 03e4 18       		.uleb128 0x18
 2196 03e5 80050000 		.4byte	.LASF29
 2197 03e9 01       		.byte	0x1
 2198 03ea 2701     		.2byte	0x127
 2199 03ec 6B000000 		.4byte	0x6b
 2200 03f0 7F010000 		.4byte	.LLST18
 2201 03f4 13       		.uleb128 0x13
 2202 03f5 08000000 		.4byte	.LVL25
 2203 03f9 8D0A0000 		.4byte	0xa8d
 2204 03fd 13       		.uleb128 0x13
 2205 03fe 1C000000 		.4byte	.LVL27
 2206 0402 980A0000 		.4byte	0xa98
 2207 0406 00       		.byte	0
 2208 0407 17       		.uleb128 0x17
 2209 0408 0B050000 		.4byte	.LASF33
 2210 040c 01       		.byte	0x1
 2211 040d 4601     		.2byte	0x146
 2212 040f 00000000 		.4byte	.LFB6
 2213 0413 28000000 		.4byte	.LFE6-.LFB6
 2214 0417 01       		.uleb128 0x1
 2215 0418 9C       		.byte	0x9c
 2216 0419 50040000 		.4byte	0x450
 2217 041d 19       		.uleb128 0x19
 2218 041e A3010000 		.4byte	.LASF35
 2219 0422 01       		.byte	0x1
 2220 0423 4601     		.2byte	0x146
 2221 0425 77000000 		.4byte	0x77
 2222 0429 92010000 		.4byte	.LLST19
 2223 042d 18       		.uleb128 0x18
 2224 042e 80050000 		.4byte	.LASF29
 2225 0432 01       		.byte	0x1
 2226 0433 4801     		.2byte	0x148
 2227 0435 6B000000 		.4byte	0x6b
 2228 0439 BE010000 		.4byte	.LLST20
 2229 043d 13       		.uleb128 0x13
 2230 043e 08000000 		.4byte	.LVL29
 2231 0442 8D0A0000 		.4byte	0xa8d
 2232 0446 13       		.uleb128 0x13
 2233 0447 1C000000 		.4byte	.LVL31
 2234 044b 980A0000 		.4byte	0xa98
 2235 044f 00       		.byte	0
 2236 0450 17       		.uleb128 0x17
 2237 0451 08040000 		.4byte	.LASF36
 2238 0455 01       		.byte	0x1
 2239 0456 6B01     		.2byte	0x16b
 2240 0458 00000000 		.4byte	.LFB7
 2241 045c 28000000 		.4byte	.LFE7-.LFB7
 2242 0460 01       		.uleb128 0x1
 2243 0461 9C       		.byte	0x9c
 2244 0462 99040000 		.4byte	0x499
 2245 0466 19       		.uleb128 0x19
ARM GAS  C:\Users\ilya\AppData\Local\Temp\cc391SdI.s 			page 70


 2246 0467 90040000 		.4byte	.LASF37
 2247 046b 01       		.byte	0x1
 2248 046c 6B01     		.2byte	0x16b
 2249 046e 77000000 		.4byte	0x77
 2250 0472 D1010000 		.4byte	.LLST21
 2251 0476 18       		.uleb128 0x18
 2252 0477 80050000 		.4byte	.LASF29
 2253 047b 01       		.byte	0x1
 2254 047c 6D01     		.2byte	0x16d
 2255 047e 6B000000 		.4byte	0x6b
 2256 0482 FD010000 		.4byte	.LLST22
 2257 0486 13       		.uleb128 0x13
 2258 0487 08000000 		.4byte	.LVL33
 2259 048b 8D0A0000 		.4byte	0xa8d
 2260 048f 13       		.uleb128 0x13
 2261 0490 1C000000 		.4byte	.LVL35
 2262 0494 980A0000 		.4byte	0xa98
 2263 0498 00       		.byte	0
 2264 0499 17       		.uleb128 0x17
 2265 049a 7E020000 		.4byte	.LASF38
 2266 049e 01       		.byte	0x1
 2267 049f 8B01     		.2byte	0x18b
 2268 04a1 00000000 		.4byte	.LFB8
 2269 04a5 30000000 		.4byte	.LFE8-.LFB8
 2270 04a9 01       		.uleb128 0x1
 2271 04aa 9C       		.byte	0x9c
 2272 04ab E2040000 		.4byte	0x4e2
 2273 04af 19       		.uleb128 0x19
 2274 04b0 81030000 		.4byte	.LASF39
 2275 04b4 01       		.byte	0x1
 2276 04b5 8B01     		.2byte	0x18b
 2277 04b7 77000000 		.4byte	0x77
 2278 04bb 10020000 		.4byte	.LLST23
 2279 04bf 18       		.uleb128 0x18
 2280 04c0 80050000 		.4byte	.LASF29
 2281 04c4 01       		.byte	0x1
 2282 04c5 8D01     		.2byte	0x18d
 2283 04c7 6B000000 		.4byte	0x6b
 2284 04cb 3C020000 		.4byte	.LLST24
 2285 04cf 13       		.uleb128 0x13
 2286 04d0 08000000 		.4byte	.LVL37
 2287 04d4 8D0A0000 		.4byte	0xa8d
 2288 04d8 13       		.uleb128 0x13
 2289 04d9 24000000 		.4byte	.LVL39
 2290 04dd 980A0000 		.4byte	0xa98
 2291 04e1 00       		.byte	0
 2292 04e2 17       		.uleb128 0x17
 2293 04e3 F5040000 		.4byte	.LASF40
 2294 04e7 01       		.byte	0x1
 2295 04e8 C101     		.2byte	0x1c1
 2296 04ea 00000000 		.4byte	.LFB9
 2297 04ee 10000000 		.4byte	.LFE9-.LFB9
 2298 04f2 01       		.uleb128 0x1
 2299 04f3 9C       		.byte	0x9c
 2300 04f4 09050000 		.4byte	0x509
 2301 04f8 19       		.uleb128 0x19
 2302 04f9 BD020000 		.4byte	.LASF41
ARM GAS  C:\Users\ilya\AppData\Local\Temp\cc391SdI.s 			page 71


 2303 04fd 01       		.byte	0x1
 2304 04fe C101     		.2byte	0x1c1
 2305 0500 77000000 		.4byte	0x77
 2306 0504 4F020000 		.4byte	.LLST25
 2307 0508 00       		.byte	0
 2308 0509 17       		.uleb128 0x17
 2309 050a 6D000000 		.4byte	.LASF42
 2310 050e 01       		.byte	0x1
 2311 050f E501     		.2byte	0x1e5
 2312 0511 00000000 		.4byte	.LFB10
 2313 0515 28000000 		.4byte	.LFE10-.LFB10
 2314 0519 01       		.uleb128 0x1
 2315 051a 9C       		.byte	0x9c
 2316 051b 52050000 		.4byte	0x552
 2317 051f 19       		.uleb128 0x19
 2318 0520 DD050000 		.4byte	.LASF43
 2319 0524 01       		.byte	0x1
 2320 0525 E501     		.2byte	0x1e5
 2321 0527 77000000 		.4byte	0x77
 2322 052b 70020000 		.4byte	.LLST26
 2323 052f 18       		.uleb128 0x18
 2324 0530 80050000 		.4byte	.LASF29
 2325 0534 01       		.byte	0x1
 2326 0535 E701     		.2byte	0x1e7
 2327 0537 6B000000 		.4byte	0x6b
 2328 053b 9C020000 		.4byte	.LLST27
 2329 053f 13       		.uleb128 0x13
 2330 0540 08000000 		.4byte	.LVL43
 2331 0544 8D0A0000 		.4byte	0xa8d
 2332 0548 13       		.uleb128 0x13
 2333 0549 20000000 		.4byte	.LVL45
 2334 054d 980A0000 		.4byte	0xa98
 2335 0551 00       		.byte	0
 2336 0552 17       		.uleb128 0x17
 2337 0553 33000000 		.4byte	.LASF44
 2338 0557 01       		.byte	0x1
 2339 0558 0702     		.2byte	0x207
 2340 055a 00000000 		.4byte	.LFB11
 2341 055e 28000000 		.4byte	.LFE11-.LFB11
 2342 0562 01       		.uleb128 0x1
 2343 0563 9C       		.byte	0x9c
 2344 0564 9B050000 		.4byte	0x59b
 2345 0568 19       		.uleb128 0x19
 2346 0569 A8040000 		.4byte	.LASF45
 2347 056d 01       		.byte	0x1
 2348 056e 0702     		.2byte	0x207
 2349 0570 77000000 		.4byte	0x77
 2350 0574 AF020000 		.4byte	.LLST28
 2351 0578 18       		.uleb128 0x18
 2352 0579 80050000 		.4byte	.LASF29
 2353 057d 01       		.byte	0x1
 2354 057e 0902     		.2byte	0x209
 2355 0580 6B000000 		.4byte	0x6b
 2356 0584 DB020000 		.4byte	.LLST29
 2357 0588 13       		.uleb128 0x13
 2358 0589 08000000 		.4byte	.LVL47
 2359 058d 8D0A0000 		.4byte	0xa8d
ARM GAS  C:\Users\ilya\AppData\Local\Temp\cc391SdI.s 			page 72


 2360 0591 13       		.uleb128 0x13
 2361 0592 20000000 		.4byte	.LVL49
 2362 0596 980A0000 		.4byte	0xa98
 2363 059a 00       		.byte	0
 2364 059b 17       		.uleb128 0x17
 2365 059c C6020000 		.4byte	.LASF46
 2366 05a0 01       		.byte	0x1
 2367 05a1 2802     		.2byte	0x228
 2368 05a3 00000000 		.4byte	.LFB12
 2369 05a7 2C000000 		.4byte	.LFE12-.LFB12
 2370 05ab 01       		.uleb128 0x1
 2371 05ac 9C       		.byte	0x9c
 2372 05ad E4050000 		.4byte	0x5e4
 2373 05b1 19       		.uleb128 0x19
 2374 05b2 21020000 		.4byte	.LASF47
 2375 05b6 01       		.byte	0x1
 2376 05b7 2802     		.2byte	0x228
 2377 05b9 77000000 		.4byte	0x77
 2378 05bd EE020000 		.4byte	.LLST30
 2379 05c1 18       		.uleb128 0x18
 2380 05c2 80050000 		.4byte	.LASF29
 2381 05c6 01       		.byte	0x1
 2382 05c7 2A02     		.2byte	0x22a
 2383 05c9 6B000000 		.4byte	0x6b
 2384 05cd 1A030000 		.4byte	.LLST31
 2385 05d1 13       		.uleb128 0x13
 2386 05d2 08000000 		.4byte	.LVL51
 2387 05d6 8D0A0000 		.4byte	0xa8d
 2388 05da 13       		.uleb128 0x13
 2389 05db 20000000 		.4byte	.LVL53
 2390 05df 980A0000 		.4byte	0xa98
 2391 05e3 00       		.byte	0
 2392 05e4 17       		.uleb128 0x17
 2393 05e5 F7020000 		.4byte	.LASF48
 2394 05e9 01       		.byte	0x1
 2395 05ea 4902     		.2byte	0x249
 2396 05ec 00000000 		.4byte	.LFB13
 2397 05f0 28000000 		.4byte	.LFE13-.LFB13
 2398 05f4 01       		.uleb128 0x1
 2399 05f5 9C       		.byte	0x9c
 2400 05f6 2D060000 		.4byte	0x62d
 2401 05fa 19       		.uleb128 0x19
 2402 05fb 1C020000 		.4byte	.LASF17
 2403 05ff 01       		.byte	0x1
 2404 0600 4902     		.2byte	0x249
 2405 0602 77000000 		.4byte	0x77
 2406 0606 2D030000 		.4byte	.LLST32
 2407 060a 18       		.uleb128 0x18
 2408 060b 80050000 		.4byte	.LASF29
 2409 060f 01       		.byte	0x1
 2410 0610 4B02     		.2byte	0x24b
 2411 0612 6B000000 		.4byte	0x6b
 2412 0616 59030000 		.4byte	.LLST33
 2413 061a 13       		.uleb128 0x13
 2414 061b 08000000 		.4byte	.LVL55
 2415 061f 8D0A0000 		.4byte	0xa8d
 2416 0623 13       		.uleb128 0x13
ARM GAS  C:\Users\ilya\AppData\Local\Temp\cc391SdI.s 			page 73


 2417 0624 1C000000 		.4byte	.LVL57
 2418 0628 980A0000 		.4byte	0xa98
 2419 062c 00       		.byte	0
 2420 062d 0A       		.uleb128 0xa
 2421 062e 37010000 		.4byte	0x137
 2422 0632 00000000 		.4byte	.LFB14
 2423 0636 10000000 		.4byte	.LFE14-.LFB14
 2424 063a 01       		.uleb128 0x1
 2425 063b 9C       		.byte	0x9c
 2426 063c 4A060000 		.4byte	0x64a
 2427 0640 0C       		.uleb128 0xc
 2428 0641 44010000 		.4byte	0x144
 2429 0645 6C030000 		.4byte	.LLST34
 2430 0649 00       		.byte	0
 2431 064a 1A       		.uleb128 0x1a
 2432 064b 06000000 		.4byte	.LASF51
 2433 064f 01       		.byte	0x1
 2434 0650 7B02     		.2byte	0x27b
 2435 0652 77000000 		.4byte	0x77
 2436 0656 00000000 		.4byte	.LFB15
 2437 065a 10000000 		.4byte	.LFE15-.LFB15
 2438 065e 01       		.uleb128 0x1
 2439 065f 9C       		.byte	0x9c
 2440 0660 17       		.uleb128 0x17
 2441 0661 D1040000 		.4byte	.LASF49
 2442 0665 01       		.byte	0x1
 2443 0666 9802     		.2byte	0x298
 2444 0668 00000000 		.4byte	.LFB16
 2445 066c 28000000 		.4byte	.LFE16-.LFB16
 2446 0670 01       		.uleb128 0x1
 2447 0671 9C       		.byte	0x9c
 2448 0672 A9060000 		.4byte	0x6a9
 2449 0676 19       		.uleb128 0x19
 2450 0677 4F050000 		.4byte	.LASF50
 2451 067b 01       		.byte	0x1
 2452 067c 9802     		.2byte	0x298
 2453 067e 77000000 		.4byte	0x77
 2454 0682 8D030000 		.4byte	.LLST35
 2455 0686 18       		.uleb128 0x18
 2456 0687 80050000 		.4byte	.LASF29
 2457 068b 01       		.byte	0x1
 2458 068c 9A02     		.2byte	0x29a
 2459 068e 6B000000 		.4byte	0x6b
 2460 0692 B9030000 		.4byte	.LLST36
 2461 0696 13       		.uleb128 0x13
 2462 0697 08000000 		.4byte	.LVL61
 2463 069b 8D0A0000 		.4byte	0xa8d
 2464 069f 13       		.uleb128 0x13
 2465 06a0 1C000000 		.4byte	.LVL63
 2466 06a4 980A0000 		.4byte	0xa98
 2467 06a8 00       		.byte	0
 2468 06a9 0A       		.uleb128 0xa
 2469 06aa 03010000 		.4byte	0x103
 2470 06ae 00000000 		.4byte	.LFB17
 2471 06b2 10000000 		.4byte	.LFE17-.LFB17
 2472 06b6 01       		.uleb128 0x1
 2473 06b7 9C       		.byte	0x9c
ARM GAS  C:\Users\ilya\AppData\Local\Temp\cc391SdI.s 			page 74


 2474 06b8 C6060000 		.4byte	0x6c6
 2475 06bc 0C       		.uleb128 0xc
 2476 06bd 10010000 		.4byte	0x110
 2477 06c1 CC030000 		.4byte	.LLST37
 2478 06c5 00       		.byte	0
 2479 06c6 1A       		.uleb128 0x1a
 2480 06c7 3A020000 		.4byte	.LASF52
 2481 06cb 01       		.byte	0x1
 2482 06cc C902     		.2byte	0x2c9
 2483 06ce 77000000 		.4byte	0x77
 2484 06d2 00000000 		.4byte	.LFB18
 2485 06d6 10000000 		.4byte	.LFE18-.LFB18
 2486 06da 01       		.uleb128 0x1
 2487 06db 9C       		.byte	0x9c
 2488 06dc 17       		.uleb128 0x17
 2489 06dd 0A060000 		.4byte	.LASF53
 2490 06e1 01       		.byte	0x1
 2491 06e2 E302     		.2byte	0x2e3
 2492 06e4 00000000 		.4byte	.LFB19
 2493 06e8 24000000 		.4byte	.LFE19-.LFB19
 2494 06ec 01       		.uleb128 0x1
 2495 06ed 9C       		.byte	0x9c
 2496 06ee 25070000 		.4byte	0x725
 2497 06f2 19       		.uleb128 0x19
 2498 06f3 EC050000 		.4byte	.LASF54
 2499 06f7 01       		.byte	0x1
 2500 06f8 E302     		.2byte	0x2e3
 2501 06fa 77000000 		.4byte	0x77
 2502 06fe ED030000 		.4byte	.LLST38
 2503 0702 18       		.uleb128 0x18
 2504 0703 80050000 		.4byte	.LASF29
 2505 0707 01       		.byte	0x1
 2506 0708 E502     		.2byte	0x2e5
 2507 070a 6B000000 		.4byte	0x6b
 2508 070e 19040000 		.4byte	.LLST39
 2509 0712 13       		.uleb128 0x13
 2510 0713 08000000 		.4byte	.LVL67
 2511 0717 8D0A0000 		.4byte	0xa8d
 2512 071b 13       		.uleb128 0x13
 2513 071c 1E000000 		.4byte	.LVL68
 2514 0720 980A0000 		.4byte	0xa98
 2515 0724 00       		.byte	0
 2516 0725 17       		.uleb128 0x17
 2517 0726 A7030000 		.4byte	.LASF55
 2518 072a 01       		.byte	0x1
 2519 072b FE02     		.2byte	0x2fe
 2520 072d 00000000 		.4byte	.LFB20
 2521 0731 10000000 		.4byte	.LFE20-.LFB20
 2522 0735 01       		.uleb128 0x1
 2523 0736 9C       		.byte	0x9c
 2524 0737 4C070000 		.4byte	0x74c
 2525 073b 19       		.uleb128 0x19
 2526 073c 24060000 		.4byte	.LASF56
 2527 0740 01       		.byte	0x1
 2528 0741 FE02     		.2byte	0x2fe
 2529 0743 77000000 		.4byte	0x77
 2530 0747 2C040000 		.4byte	.LLST40
ARM GAS  C:\Users\ilya\AppData\Local\Temp\cc391SdI.s 			page 75


 2531 074b 00       		.byte	0
 2532 074c 1A       		.uleb128 0x1a
 2533 074d 5D020000 		.4byte	.LASF57
 2534 0751 01       		.byte	0x1
 2535 0752 1203     		.2byte	0x312
 2536 0754 77000000 		.4byte	0x77
 2537 0758 00000000 		.4byte	.LFB21
 2538 075c 10000000 		.4byte	.LFE21-.LFB21
 2539 0760 01       		.uleb128 0x1
 2540 0761 9C       		.byte	0x9c
 2541 0762 17       		.uleb128 0x17
 2542 0763 68030000 		.4byte	.LASF58
 2543 0767 01       		.byte	0x1
 2544 0768 2C03     		.2byte	0x32c
 2545 076a 00000000 		.4byte	.LFB22
 2546 076e 28000000 		.4byte	.LFE22-.LFB22
 2547 0772 01       		.uleb128 0x1
 2548 0773 9C       		.byte	0x9c
 2549 0774 AB070000 		.4byte	0x7ab
 2550 0778 19       		.uleb128 0x19
 2551 0779 EC050000 		.4byte	.LASF54
 2552 077d 01       		.byte	0x1
 2553 077e 2C03     		.2byte	0x32c
 2554 0780 77000000 		.4byte	0x77
 2555 0784 4D040000 		.4byte	.LLST41
 2556 0788 18       		.uleb128 0x18
 2557 0789 80050000 		.4byte	.LASF29
 2558 078d 01       		.byte	0x1
 2559 078e 2E03     		.2byte	0x32e
 2560 0790 6B000000 		.4byte	0x6b
 2561 0794 79040000 		.4byte	.LLST42
 2562 0798 13       		.uleb128 0x13
 2563 0799 08000000 		.4byte	.LVL73
 2564 079d 8D0A0000 		.4byte	0xa8d
 2565 07a1 13       		.uleb128 0x13
 2566 07a2 20000000 		.4byte	.LVL75
 2567 07a6 980A0000 		.4byte	0xa98
 2568 07aa 00       		.byte	0
 2569 07ab 0A       		.uleb128 0xa
 2570 07ac E9000000 		.4byte	0xe9
 2571 07b0 00000000 		.4byte	.LFB23
 2572 07b4 10000000 		.4byte	.LFE23-.LFB23
 2573 07b8 01       		.uleb128 0x1
 2574 07b9 9C       		.byte	0x9c
 2575 07ba C8070000 		.4byte	0x7c8
 2576 07be 0C       		.uleb128 0xc
 2577 07bf F6000000 		.4byte	0xf6
 2578 07c3 8C040000 		.4byte	.LLST43
 2579 07c7 00       		.byte	0
 2580 07c8 17       		.uleb128 0x17
 2581 07c9 3C040000 		.4byte	.LASF59
 2582 07cd 01       		.byte	0x1
 2583 07ce BA03     		.2byte	0x3ba
 2584 07d0 00000000 		.4byte	.LFB25
 2585 07d4 10000000 		.4byte	.LFE25-.LFB25
 2586 07d8 01       		.uleb128 0x1
 2587 07d9 9C       		.byte	0x9c
ARM GAS  C:\Users\ilya\AppData\Local\Temp\cc391SdI.s 			page 76


 2588 07da EF070000 		.4byte	0x7ef
 2589 07de 19       		.uleb128 0x19
 2590 07df 5B050000 		.4byte	.LASF60
 2591 07e3 01       		.byte	0x1
 2592 07e4 BA03     		.2byte	0x3ba
 2593 07e6 77000000 		.4byte	0x77
 2594 07ea AD040000 		.4byte	.LLST44
 2595 07ee 00       		.byte	0
 2596 07ef 1B       		.uleb128 0x1b
 2597 07f0 C1030000 		.4byte	.LASF61
 2598 07f4 01       		.byte	0x1
 2599 07f5 1604     		.2byte	0x416
 2600 07f7 77000000 		.4byte	0x77
 2601 07fb 01       		.byte	0x1
 2602 07fc 1C       		.uleb128 0x1c
 2603 07fd EF070000 		.4byte	0x7ef
 2604 0801 00000000 		.4byte	.LFB27
 2605 0805 10000000 		.4byte	.LFE27-.LFB27
 2606 0809 01       		.uleb128 0x1
 2607 080a 9C       		.byte	0x9c
 2608 080b 1B       		.uleb128 0x1b
 2609 080c 57040000 		.4byte	.LASF62
 2610 0810 01       		.byte	0x1
 2611 0811 2B04     		.2byte	0x42b
 2612 0813 77000000 		.4byte	0x77
 2613 0817 01       		.byte	0x1
 2614 0818 1C       		.uleb128 0x1c
 2615 0819 0B080000 		.4byte	0x80b
 2616 081d 00000000 		.4byte	.LFB28
 2617 0821 10000000 		.4byte	.LFE28-.LFB28
 2618 0825 01       		.uleb128 0x1
 2619 0826 9C       		.byte	0x9c
 2620 0827 17       		.uleb128 0x17
 2621 0828 66050000 		.4byte	.LASF63
 2622 082c 01       		.byte	0x1
 2623 082d 4604     		.2byte	0x446
 2624 082f 00000000 		.4byte	.LFB29
 2625 0833 24000000 		.4byte	.LFE29-.LFB29
 2626 0837 01       		.uleb128 0x1
 2627 0838 9C       		.byte	0x9c
 2628 0839 70080000 		.4byte	0x870
 2629 083d 19       		.uleb128 0x19
 2630 083e 10020000 		.4byte	.LASF64
 2631 0842 01       		.byte	0x1
 2632 0843 4604     		.2byte	0x446
 2633 0845 77000000 		.4byte	0x77
 2634 0849 CE040000 		.4byte	.LLST45
 2635 084d 18       		.uleb128 0x18
 2636 084e 80050000 		.4byte	.LASF29
 2637 0852 01       		.byte	0x1
 2638 0853 4804     		.2byte	0x448
 2639 0855 6B000000 		.4byte	0x6b
 2640 0859 FA040000 		.4byte	.LLST46
 2641 085d 13       		.uleb128 0x13
 2642 085e 08000000 		.4byte	.LVL81
 2643 0862 8D0A0000 		.4byte	0xa8d
 2644 0866 13       		.uleb128 0x13
ARM GAS  C:\Users\ilya\AppData\Local\Temp\cc391SdI.s 			page 77


 2645 0867 1C000000 		.4byte	.LVL83
 2646 086b 980A0000 		.4byte	0xa98
 2647 086f 00       		.byte	0
 2648 0870 17       		.uleb128 0x17
 2649 0871 71040000 		.4byte	.LASF65
 2650 0875 01       		.byte	0x1
 2651 0876 6704     		.2byte	0x467
 2652 0878 00000000 		.4byte	.LFB30
 2653 087c 24000000 		.4byte	.LFE30-.LFB30
 2654 0880 01       		.uleb128 0x1
 2655 0881 9C       		.byte	0x9c
 2656 0882 B9080000 		.4byte	0x8b9
 2657 0886 19       		.uleb128 0x19
 2658 0887 10020000 		.4byte	.LASF64
 2659 088b 01       		.byte	0x1
 2660 088c 6704     		.2byte	0x467
 2661 088e 77000000 		.4byte	0x77
 2662 0892 0D050000 		.4byte	.LLST47
 2663 0896 18       		.uleb128 0x18
 2664 0897 80050000 		.4byte	.LASF29
 2665 089b 01       		.byte	0x1
 2666 089c 6904     		.2byte	0x469
 2667 089e 6B000000 		.4byte	0x6b
 2668 08a2 39050000 		.4byte	.LLST48
 2669 08a6 13       		.uleb128 0x13
 2670 08a7 08000000 		.4byte	.LVL85
 2671 08ab 8D0A0000 		.4byte	0xa8d
 2672 08af 13       		.uleb128 0x13
 2673 08b0 1E000000 		.4byte	.LVL86
 2674 08b4 980A0000 		.4byte	0xa98
 2675 08b8 00       		.byte	0
 2676 08b9 17       		.uleb128 0x17
 2677 08ba 3A030000 		.4byte	.LASF66
 2678 08be 01       		.byte	0x1
 2679 08bf 8804     		.2byte	0x488
 2680 08c1 00000000 		.4byte	.LFB31
 2681 08c5 28000000 		.4byte	.LFE31-.LFB31
 2682 08c9 01       		.uleb128 0x1
 2683 08ca 9C       		.byte	0x9c
 2684 08cb 02090000 		.4byte	0x902
 2685 08cf 19       		.uleb128 0x19
 2686 08d0 10020000 		.4byte	.LASF64
 2687 08d4 01       		.byte	0x1
 2688 08d5 8804     		.2byte	0x488
 2689 08d7 77000000 		.4byte	0x77
 2690 08db 4C050000 		.4byte	.LLST49
 2691 08df 18       		.uleb128 0x18
 2692 08e0 80050000 		.4byte	.LASF29
 2693 08e4 01       		.byte	0x1
 2694 08e5 8A04     		.2byte	0x48a
 2695 08e7 6B000000 		.4byte	0x6b
 2696 08eb 78050000 		.4byte	.LLST50
 2697 08ef 13       		.uleb128 0x13
 2698 08f0 08000000 		.4byte	.LVL89
 2699 08f4 8D0A0000 		.4byte	0xa8d
 2700 08f8 13       		.uleb128 0x13
 2701 08f9 1E000000 		.4byte	.LVL90
ARM GAS  C:\Users\ilya\AppData\Local\Temp\cc391SdI.s 			page 78


 2702 08fd 980A0000 		.4byte	0xa98
 2703 0901 00       		.byte	0
 2704 0902 17       		.uleb128 0x17
 2705 0903 CD010000 		.4byte	.LASF67
 2706 0907 01       		.byte	0x1
 2707 0908 A804     		.2byte	0x4a8
 2708 090a 00000000 		.4byte	.LFB32
 2709 090e 24000000 		.4byte	.LFE32-.LFB32
 2710 0912 01       		.uleb128 0x1
 2711 0913 9C       		.byte	0x9c
 2712 0914 4B090000 		.4byte	0x94b
 2713 0918 19       		.uleb128 0x19
 2714 0919 10020000 		.4byte	.LASF64
 2715 091d 01       		.byte	0x1
 2716 091e A804     		.2byte	0x4a8
 2717 0920 77000000 		.4byte	0x77
 2718 0924 8B050000 		.4byte	.LLST51
 2719 0928 18       		.uleb128 0x18
 2720 0929 80050000 		.4byte	.LASF29
 2721 092d 01       		.byte	0x1
 2722 092e AA04     		.2byte	0x4aa
 2723 0930 6B000000 		.4byte	0x6b
 2724 0934 B7050000 		.4byte	.LLST52
 2725 0938 13       		.uleb128 0x13
 2726 0939 08000000 		.4byte	.LVL93
 2727 093d 8D0A0000 		.4byte	0xa8d
 2728 0941 13       		.uleb128 0x13
 2729 0942 1E000000 		.4byte	.LVL94
 2730 0946 980A0000 		.4byte	0xa98
 2731 094a 00       		.byte	0
 2732 094b 17       		.uleb128 0x17
 2733 094c 0F030000 		.4byte	.LASF68
 2734 0950 01       		.byte	0x1
 2735 0951 C904     		.2byte	0x4c9
 2736 0953 00000000 		.4byte	.LFB33
 2737 0957 24000000 		.4byte	.LFE33-.LFB33
 2738 095b 01       		.uleb128 0x1
 2739 095c 9C       		.byte	0x9c
 2740 095d 94090000 		.4byte	0x994
 2741 0961 19       		.uleb128 0x19
 2742 0962 10020000 		.4byte	.LASF64
 2743 0966 01       		.byte	0x1
 2744 0967 C904     		.2byte	0x4c9
 2745 0969 77000000 		.4byte	0x77
 2746 096d CA050000 		.4byte	.LLST53
 2747 0971 18       		.uleb128 0x18
 2748 0972 80050000 		.4byte	.LASF29
 2749 0976 01       		.byte	0x1
 2750 0977 CB04     		.2byte	0x4cb
 2751 0979 6B000000 		.4byte	0x6b
 2752 097d F6050000 		.4byte	.LLST54
 2753 0981 13       		.uleb128 0x13
 2754 0982 08000000 		.4byte	.LVL97
 2755 0986 8D0A0000 		.4byte	0xa8d
 2756 098a 13       		.uleb128 0x13
 2757 098b 1E000000 		.4byte	.LVL98
 2758 098f 980A0000 		.4byte	0xa98
ARM GAS  C:\Users\ilya\AppData\Local\Temp\cc391SdI.s 			page 79


 2759 0993 00       		.byte	0
 2760 0994 0A       		.uleb128 0xa
 2761 0995 B7000000 		.4byte	0xb7
 2762 0999 00000000 		.4byte	.LFB34
 2763 099d 1C000000 		.4byte	.LFE34-.LFB34
 2764 09a1 01       		.uleb128 0x1
 2765 09a2 9C       		.byte	0x9c
 2766 09a3 D5090000 		.4byte	0x9d5
 2767 09a7 0C       		.uleb128 0xc
 2768 09a8 C4000000 		.4byte	0xc4
 2769 09ac 09060000 		.4byte	.LLST55
 2770 09b0 0C       		.uleb128 0xc
 2771 09b1 D0000000 		.4byte	0xd0
 2772 09b5 2A060000 		.4byte	.LLST56
 2773 09b9 11       		.uleb128 0x11
 2774 09ba DC000000 		.4byte	0xdc
 2775 09be 56060000 		.4byte	.LLST57
 2776 09c2 13       		.uleb128 0x13
 2777 09c3 0C000000 		.4byte	.LVL101
 2778 09c7 8D0A0000 		.4byte	0xa8d
 2779 09cb 13       		.uleb128 0x13
 2780 09cc 14000000 		.4byte	.LVL102
 2781 09d0 980A0000 		.4byte	0xa98
 2782 09d4 00       		.byte	0
 2783 09d5 1A       		.uleb128 0x1a
 2784 09d6 52030000 		.4byte	.LASF69
 2785 09da 01       		.byte	0x1
 2786 09db 0E05     		.2byte	0x50e
 2787 09dd 77000000 		.4byte	0x77
 2788 09e1 00000000 		.4byte	.LFB35
 2789 09e5 14000000 		.4byte	.LFE35-.LFB35
 2790 09e9 01       		.uleb128 0x1
 2791 09ea 9C       		.byte	0x9c
 2792 09eb 0A       		.uleb128 0xa
 2793 09ec 1D010000 		.4byte	0x11d
 2794 09f0 00000000 		.4byte	.LFB36
 2795 09f4 0C000000 		.4byte	.LFE36-.LFB36
 2796 09f8 01       		.uleb128 0x1
 2797 09f9 9C       		.byte	0x9c
 2798 09fa 060A0000 		.4byte	0xa06
 2799 09fe 1D       		.uleb128 0x1d
 2800 09ff 2A010000 		.4byte	0x12a
 2801 0a03 01       		.uleb128 0x1
 2802 0a04 50       		.byte	0x50
 2803 0a05 00       		.byte	0
 2804 0a06 1A       		.uleb128 0x1a
 2805 0a07 BD000000 		.4byte	.LASF70
 2806 0a0b 01       		.byte	0x1
 2807 0a0c 3E05     		.2byte	0x53e
 2808 0a0e 77000000 		.4byte	0x77
 2809 0a12 00000000 		.4byte	.LFB37
 2810 0a16 0C000000 		.4byte	.LFE37-.LFB37
 2811 0a1a 01       		.uleb128 0x1
 2812 0a1b 9C       		.byte	0x9c
 2813 0a1c 1A       		.uleb128 0x1a
 2814 0a1d 4F000000 		.4byte	.LASF71
 2815 0a21 01       		.byte	0x1
ARM GAS  C:\Users\ilya\AppData\Local\Temp\cc391SdI.s 			page 80


 2816 0a22 5505     		.2byte	0x555
 2817 0a24 77000000 		.4byte	0x77
 2818 0a28 00000000 		.4byte	.LFB38
 2819 0a2c 0C000000 		.4byte	.LFE38-.LFB38
 2820 0a30 01       		.uleb128 0x1
 2821 0a31 9C       		.byte	0x9c
 2822 0a32 17       		.uleb128 0x17
 2823 0a33 B3010000 		.4byte	.LASF72
 2824 0a37 01       		.byte	0x1
 2825 0a38 6C05     		.2byte	0x56c
 2826 0a3a 00000000 		.4byte	.LFB39
 2827 0a3e 0C000000 		.4byte	.LFE39-.LFB39
 2828 0a42 01       		.uleb128 0x1
 2829 0a43 9C       		.byte	0x9c
 2830 0a44 570A0000 		.4byte	0xa57
 2831 0a48 1E       		.uleb128 0x1e
 2832 0a49 C3040000 		.4byte	.LASF25
 2833 0a4d 01       		.byte	0x1
 2834 0a4e 6C05     		.2byte	0x56c
 2835 0a50 77000000 		.4byte	0x77
 2836 0a54 01       		.uleb128 0x1
 2837 0a55 50       		.byte	0x50
 2838 0a56 00       		.byte	0
 2839 0a57 17       		.uleb128 0x17
 2840 0a58 B5050000 		.4byte	.LASF73
 2841 0a5c 01       		.byte	0x1
 2842 0a5d 8305     		.2byte	0x583
 2843 0a5f 00000000 		.4byte	.LFB40
 2844 0a63 0C000000 		.4byte	.LFE40-.LFB40
 2845 0a67 01       		.uleb128 0x1
 2846 0a68 9C       		.byte	0x9c
 2847 0a69 7C0A0000 		.4byte	0xa7c
 2848 0a6d 1E       		.uleb128 0x1e
 2849 0a6e C3040000 		.4byte	.LASF25
 2850 0a72 01       		.byte	0x1
 2851 0a73 8305     		.2byte	0x583
 2852 0a75 77000000 		.4byte	0x77
 2853 0a79 01       		.uleb128 0x1
 2854 0a7a 50       		.byte	0x50
 2855 0a7b 00       		.byte	0
 2856 0a7c 1F       		.uleb128 0x1f
 2857 0a7d ED030000 		.4byte	.LASF80
 2858 0a81 01       		.byte	0x1
 2859 0a82 15       		.byte	0x15
 2860 0a83 6B000000 		.4byte	0x6b
 2861 0a87 05       		.uleb128 0x5
 2862 0a88 03       		.byte	0x3
 2863 0a89 00000000 		.4byte	PWM_CHARGE_initVar
 2864 0a8d 20       		.uleb128 0x20
 2865 0a8e E0020000 		.4byte	.LASF74
 2866 0a92 E0020000 		.4byte	.LASF74
 2867 0a96 03       		.byte	0x3
 2868 0a97 E5       		.byte	0xe5
 2869 0a98 20       		.uleb128 0x20
 2870 0a99 1D000000 		.4byte	.LASF75
 2871 0a9d 1D000000 		.4byte	.LASF75
 2872 0aa1 03       		.byte	0x3
ARM GAS  C:\Users\ilya\AppData\Local\Temp\cc391SdI.s 			page 81


 2873 0aa2 E6       		.byte	0xe6
 2874 0aa3 00       		.byte	0
 2875              		.section	.debug_abbrev,"",%progbits
 2876              	.Ldebug_abbrev0:
 2877 0000 01       		.uleb128 0x1
 2878 0001 11       		.uleb128 0x11
 2879 0002 01       		.byte	0x1
 2880 0003 25       		.uleb128 0x25
 2881 0004 0E       		.uleb128 0xe
 2882 0005 13       		.uleb128 0x13
 2883 0006 0B       		.uleb128 0xb
 2884 0007 03       		.uleb128 0x3
 2885 0008 0E       		.uleb128 0xe
 2886 0009 1B       		.uleb128 0x1b
 2887 000a 0E       		.uleb128 0xe
 2888 000b 55       		.uleb128 0x55
 2889 000c 17       		.uleb128 0x17
 2890 000d 11       		.uleb128 0x11
 2891 000e 01       		.uleb128 0x1
 2892 000f 10       		.uleb128 0x10
 2893 0010 17       		.uleb128 0x17
 2894 0011 00       		.byte	0
 2895 0012 00       		.byte	0
 2896 0013 02       		.uleb128 0x2
 2897 0014 24       		.uleb128 0x24
 2898 0015 00       		.byte	0
 2899 0016 0B       		.uleb128 0xb
 2900 0017 0B       		.uleb128 0xb
 2901 0018 3E       		.uleb128 0x3e
 2902 0019 0B       		.uleb128 0xb
 2903 001a 03       		.uleb128 0x3
 2904 001b 0E       		.uleb128 0xe
 2905 001c 00       		.byte	0
 2906 001d 00       		.byte	0
 2907 001e 03       		.uleb128 0x3
 2908 001f 24       		.uleb128 0x24
 2909 0020 00       		.byte	0
 2910 0021 0B       		.uleb128 0xb
 2911 0022 0B       		.uleb128 0xb
 2912 0023 3E       		.uleb128 0x3e
 2913 0024 0B       		.uleb128 0xb
 2914 0025 03       		.uleb128 0x3
 2915 0026 08       		.uleb128 0x8
 2916 0027 00       		.byte	0
 2917 0028 00       		.byte	0
 2918 0029 04       		.uleb128 0x4
 2919 002a 16       		.uleb128 0x16
 2920 002b 00       		.byte	0
 2921 002c 03       		.uleb128 0x3
 2922 002d 0E       		.uleb128 0xe
 2923 002e 3A       		.uleb128 0x3a
 2924 002f 0B       		.uleb128 0xb
 2925 0030 3B       		.uleb128 0x3b
 2926 0031 05       		.uleb128 0x5
 2927 0032 49       		.uleb128 0x49
 2928 0033 13       		.uleb128 0x13
 2929 0034 00       		.byte	0
ARM GAS  C:\Users\ilya\AppData\Local\Temp\cc391SdI.s 			page 82


 2930 0035 00       		.byte	0
 2931 0036 05       		.uleb128 0x5
 2932 0037 35       		.uleb128 0x35
 2933 0038 00       		.byte	0
 2934 0039 49       		.uleb128 0x49
 2935 003a 13       		.uleb128 0x13
 2936 003b 00       		.byte	0
 2937 003c 00       		.byte	0
 2938 003d 06       		.uleb128 0x6
 2939 003e 2E       		.uleb128 0x2e
 2940 003f 01       		.byte	0x1
 2941 0040 3F       		.uleb128 0x3f
 2942 0041 19       		.uleb128 0x19
 2943 0042 03       		.uleb128 0x3
 2944 0043 0E       		.uleb128 0xe
 2945 0044 3A       		.uleb128 0x3a
 2946 0045 0B       		.uleb128 0xb
 2947 0046 3B       		.uleb128 0x3b
 2948 0047 05       		.uleb128 0x5
 2949 0048 27       		.uleb128 0x27
 2950 0049 19       		.uleb128 0x19
 2951 004a 20       		.uleb128 0x20
 2952 004b 0B       		.uleb128 0xb
 2953 004c 01       		.uleb128 0x1
 2954 004d 13       		.uleb128 0x13
 2955 004e 00       		.byte	0
 2956 004f 00       		.byte	0
 2957 0050 07       		.uleb128 0x7
 2958 0051 05       		.uleb128 0x5
 2959 0052 00       		.byte	0
 2960 0053 03       		.uleb128 0x3
 2961 0054 0E       		.uleb128 0xe
 2962 0055 3A       		.uleb128 0x3a
 2963 0056 0B       		.uleb128 0xb
 2964 0057 3B       		.uleb128 0x3b
 2965 0058 05       		.uleb128 0x5
 2966 0059 49       		.uleb128 0x49
 2967 005a 13       		.uleb128 0x13
 2968 005b 00       		.byte	0
 2969 005c 00       		.byte	0
 2970 005d 08       		.uleb128 0x8
 2971 005e 34       		.uleb128 0x34
 2972 005f 00       		.byte	0
 2973 0060 03       		.uleb128 0x3
 2974 0061 0E       		.uleb128 0xe
 2975 0062 3A       		.uleb128 0x3a
 2976 0063 0B       		.uleb128 0xb
 2977 0064 3B       		.uleb128 0x3b
 2978 0065 05       		.uleb128 0x5
 2979 0066 49       		.uleb128 0x49
 2980 0067 13       		.uleb128 0x13
 2981 0068 00       		.byte	0
 2982 0069 00       		.byte	0
 2983 006a 09       		.uleb128 0x9
 2984 006b 2E       		.uleb128 0x2e
 2985 006c 00       		.byte	0
 2986 006d 3F       		.uleb128 0x3f
ARM GAS  C:\Users\ilya\AppData\Local\Temp\cc391SdI.s 			page 83


 2987 006e 19       		.uleb128 0x19
 2988 006f 03       		.uleb128 0x3
 2989 0070 0E       		.uleb128 0xe
 2990 0071 3A       		.uleb128 0x3a
 2991 0072 0B       		.uleb128 0xb
 2992 0073 3B       		.uleb128 0x3b
 2993 0074 0B       		.uleb128 0xb
 2994 0075 27       		.uleb128 0x27
 2995 0076 19       		.uleb128 0x19
 2996 0077 20       		.uleb128 0x20
 2997 0078 0B       		.uleb128 0xb
 2998 0079 00       		.byte	0
 2999 007a 00       		.byte	0
 3000 007b 0A       		.uleb128 0xa
 3001 007c 2E       		.uleb128 0x2e
 3002 007d 01       		.byte	0x1
 3003 007e 31       		.uleb128 0x31
 3004 007f 13       		.uleb128 0x13
 3005 0080 11       		.uleb128 0x11
 3006 0081 01       		.uleb128 0x1
 3007 0082 12       		.uleb128 0x12
 3008 0083 06       		.uleb128 0x6
 3009 0084 40       		.uleb128 0x40
 3010 0085 18       		.uleb128 0x18
 3011 0086 9742     		.uleb128 0x2117
 3012 0088 19       		.uleb128 0x19
 3013 0089 01       		.uleb128 0x1
 3014 008a 13       		.uleb128 0x13
 3015 008b 00       		.byte	0
 3016 008c 00       		.byte	0
 3017 008d 0B       		.uleb128 0xb
 3018 008e 1D       		.uleb128 0x1d
 3019 008f 01       		.byte	0x1
 3020 0090 31       		.uleb128 0x31
 3021 0091 13       		.uleb128 0x13
 3022 0092 52       		.uleb128 0x52
 3023 0093 01       		.uleb128 0x1
 3024 0094 55       		.uleb128 0x55
 3025 0095 17       		.uleb128 0x17
 3026 0096 58       		.uleb128 0x58
 3027 0097 0B       		.uleb128 0xb
 3028 0098 59       		.uleb128 0x59
 3029 0099 0B       		.uleb128 0xb
 3030 009a 01       		.uleb128 0x1
 3031 009b 13       		.uleb128 0x13
 3032 009c 00       		.byte	0
 3033 009d 00       		.byte	0
 3034 009e 0C       		.uleb128 0xc
 3035 009f 05       		.uleb128 0x5
 3036 00a0 00       		.byte	0
 3037 00a1 31       		.uleb128 0x31
 3038 00a2 13       		.uleb128 0x13
 3039 00a3 02       		.uleb128 0x2
 3040 00a4 17       		.uleb128 0x17
 3041 00a5 00       		.byte	0
 3042 00a6 00       		.byte	0
 3043 00a7 0D       		.uleb128 0xd
ARM GAS  C:\Users\ilya\AppData\Local\Temp\cc391SdI.s 			page 84


 3044 00a8 1D       		.uleb128 0x1d
 3045 00a9 01       		.byte	0x1
 3046 00aa 31       		.uleb128 0x31
 3047 00ab 13       		.uleb128 0x13
 3048 00ac 11       		.uleb128 0x11
 3049 00ad 01       		.uleb128 0x1
 3050 00ae 12       		.uleb128 0x12
 3051 00af 06       		.uleb128 0x6
 3052 00b0 58       		.uleb128 0x58
 3053 00b1 0B       		.uleb128 0xb
 3054 00b2 59       		.uleb128 0x59
 3055 00b3 0B       		.uleb128 0xb
 3056 00b4 01       		.uleb128 0x1
 3057 00b5 13       		.uleb128 0x13
 3058 00b6 00       		.byte	0
 3059 00b7 00       		.byte	0
 3060 00b8 0E       		.uleb128 0xe
 3061 00b9 1D       		.uleb128 0x1d
 3062 00ba 01       		.byte	0x1
 3063 00bb 31       		.uleb128 0x31
 3064 00bc 13       		.uleb128 0x13
 3065 00bd 11       		.uleb128 0x11
 3066 00be 01       		.uleb128 0x1
 3067 00bf 12       		.uleb128 0x12
 3068 00c0 06       		.uleb128 0x6
 3069 00c1 58       		.uleb128 0x58
 3070 00c2 0B       		.uleb128 0xb
 3071 00c3 59       		.uleb128 0x59
 3072 00c4 0B       		.uleb128 0xb
 3073 00c5 00       		.byte	0
 3074 00c6 00       		.byte	0
 3075 00c7 0F       		.uleb128 0xf
 3076 00c8 2E       		.uleb128 0x2e
 3077 00c9 01       		.byte	0x1
 3078 00ca 3F       		.uleb128 0x3f
 3079 00cb 19       		.uleb128 0x19
 3080 00cc 03       		.uleb128 0x3
 3081 00cd 0E       		.uleb128 0xe
 3082 00ce 3A       		.uleb128 0x3a
 3083 00cf 0B       		.uleb128 0xb
 3084 00d0 3B       		.uleb128 0x3b
 3085 00d1 0B       		.uleb128 0xb
 3086 00d2 27       		.uleb128 0x27
 3087 00d3 19       		.uleb128 0x19
 3088 00d4 20       		.uleb128 0x20
 3089 00d5 0B       		.uleb128 0xb
 3090 00d6 01       		.uleb128 0x1
 3091 00d7 13       		.uleb128 0x13
 3092 00d8 00       		.byte	0
 3093 00d9 00       		.byte	0
 3094 00da 10       		.uleb128 0x10
 3095 00db 34       		.uleb128 0x34
 3096 00dc 00       		.byte	0
 3097 00dd 03       		.uleb128 0x3
 3098 00de 0E       		.uleb128 0xe
 3099 00df 3A       		.uleb128 0x3a
 3100 00e0 0B       		.uleb128 0xb
ARM GAS  C:\Users\ilya\AppData\Local\Temp\cc391SdI.s 			page 85


 3101 00e1 3B       		.uleb128 0x3b
 3102 00e2 0B       		.uleb128 0xb
 3103 00e3 49       		.uleb128 0x49
 3104 00e4 13       		.uleb128 0x13
 3105 00e5 00       		.byte	0
 3106 00e6 00       		.byte	0
 3107 00e7 11       		.uleb128 0x11
 3108 00e8 34       		.uleb128 0x34
 3109 00e9 00       		.byte	0
 3110 00ea 31       		.uleb128 0x31
 3111 00eb 13       		.uleb128 0x13
 3112 00ec 02       		.uleb128 0x2
 3113 00ed 17       		.uleb128 0x17
 3114 00ee 00       		.byte	0
 3115 00ef 00       		.byte	0
 3116 00f0 12       		.uleb128 0x12
 3117 00f1 0B       		.uleb128 0xb
 3118 00f2 01       		.byte	0x1
 3119 00f3 11       		.uleb128 0x11
 3120 00f4 01       		.uleb128 0x1
 3121 00f5 12       		.uleb128 0x12
 3122 00f6 06       		.uleb128 0x6
 3123 00f7 00       		.byte	0
 3124 00f8 00       		.byte	0
 3125 00f9 13       		.uleb128 0x13
 3126 00fa 898201   		.uleb128 0x4109
 3127 00fd 00       		.byte	0
 3128 00fe 11       		.uleb128 0x11
 3129 00ff 01       		.uleb128 0x1
 3130 0100 31       		.uleb128 0x31
 3131 0101 13       		.uleb128 0x13
 3132 0102 00       		.byte	0
 3133 0103 00       		.byte	0
 3134 0104 14       		.uleb128 0x14
 3135 0105 2E       		.uleb128 0x2e
 3136 0106 01       		.byte	0x1
 3137 0107 3F       		.uleb128 0x3f
 3138 0108 19       		.uleb128 0x19
 3139 0109 03       		.uleb128 0x3
 3140 010a 0E       		.uleb128 0xe
 3141 010b 3A       		.uleb128 0x3a
 3142 010c 0B       		.uleb128 0xb
 3143 010d 3B       		.uleb128 0x3b
 3144 010e 0B       		.uleb128 0xb
 3145 010f 27       		.uleb128 0x27
 3146 0110 19       		.uleb128 0x19
 3147 0111 11       		.uleb128 0x11
 3148 0112 01       		.uleb128 0x1
 3149 0113 12       		.uleb128 0x12
 3150 0114 06       		.uleb128 0x6
 3151 0115 40       		.uleb128 0x40
 3152 0116 18       		.uleb128 0x18
 3153 0117 9742     		.uleb128 0x2117
 3154 0119 19       		.uleb128 0x19
 3155 011a 01       		.uleb128 0x1
 3156 011b 13       		.uleb128 0x13
 3157 011c 00       		.byte	0
ARM GAS  C:\Users\ilya\AppData\Local\Temp\cc391SdI.s 			page 86


 3158 011d 00       		.byte	0
 3159 011e 15       		.uleb128 0x15
 3160 011f 1D       		.uleb128 0x1d
 3161 0120 01       		.byte	0x1
 3162 0121 31       		.uleb128 0x31
 3163 0122 13       		.uleb128 0x13
 3164 0123 52       		.uleb128 0x52
 3165 0124 01       		.uleb128 0x1
 3166 0125 55       		.uleb128 0x55
 3167 0126 17       		.uleb128 0x17
 3168 0127 58       		.uleb128 0x58
 3169 0128 0B       		.uleb128 0xb
 3170 0129 59       		.uleb128 0x59
 3171 012a 0B       		.uleb128 0xb
 3172 012b 00       		.byte	0
 3173 012c 00       		.byte	0
 3174 012d 16       		.uleb128 0x16
 3175 012e 0B       		.uleb128 0xb
 3176 012f 01       		.byte	0x1
 3177 0130 55       		.uleb128 0x55
 3178 0131 17       		.uleb128 0x17
 3179 0132 00       		.byte	0
 3180 0133 00       		.byte	0
 3181 0134 17       		.uleb128 0x17
 3182 0135 2E       		.uleb128 0x2e
 3183 0136 01       		.byte	0x1
 3184 0137 3F       		.uleb128 0x3f
 3185 0138 19       		.uleb128 0x19
 3186 0139 03       		.uleb128 0x3
 3187 013a 0E       		.uleb128 0xe
 3188 013b 3A       		.uleb128 0x3a
 3189 013c 0B       		.uleb128 0xb
 3190 013d 3B       		.uleb128 0x3b
 3191 013e 05       		.uleb128 0x5
 3192 013f 27       		.uleb128 0x27
 3193 0140 19       		.uleb128 0x19
 3194 0141 11       		.uleb128 0x11
 3195 0142 01       		.uleb128 0x1
 3196 0143 12       		.uleb128 0x12
 3197 0144 06       		.uleb128 0x6
 3198 0145 40       		.uleb128 0x40
 3199 0146 18       		.uleb128 0x18
 3200 0147 9742     		.uleb128 0x2117
 3201 0149 19       		.uleb128 0x19
 3202 014a 01       		.uleb128 0x1
 3203 014b 13       		.uleb128 0x13
 3204 014c 00       		.byte	0
 3205 014d 00       		.byte	0
 3206 014e 18       		.uleb128 0x18
 3207 014f 34       		.uleb128 0x34
 3208 0150 00       		.byte	0
 3209 0151 03       		.uleb128 0x3
 3210 0152 0E       		.uleb128 0xe
 3211 0153 3A       		.uleb128 0x3a
 3212 0154 0B       		.uleb128 0xb
 3213 0155 3B       		.uleb128 0x3b
 3214 0156 05       		.uleb128 0x5
ARM GAS  C:\Users\ilya\AppData\Local\Temp\cc391SdI.s 			page 87


 3215 0157 49       		.uleb128 0x49
 3216 0158 13       		.uleb128 0x13
 3217 0159 02       		.uleb128 0x2
 3218 015a 17       		.uleb128 0x17
 3219 015b 00       		.byte	0
 3220 015c 00       		.byte	0
 3221 015d 19       		.uleb128 0x19
 3222 015e 05       		.uleb128 0x5
 3223 015f 00       		.byte	0
 3224 0160 03       		.uleb128 0x3
 3225 0161 0E       		.uleb128 0xe
 3226 0162 3A       		.uleb128 0x3a
 3227 0163 0B       		.uleb128 0xb
 3228 0164 3B       		.uleb128 0x3b
 3229 0165 05       		.uleb128 0x5
 3230 0166 49       		.uleb128 0x49
 3231 0167 13       		.uleb128 0x13
 3232 0168 02       		.uleb128 0x2
 3233 0169 17       		.uleb128 0x17
 3234 016a 00       		.byte	0
 3235 016b 00       		.byte	0
 3236 016c 1A       		.uleb128 0x1a
 3237 016d 2E       		.uleb128 0x2e
 3238 016e 00       		.byte	0
 3239 016f 3F       		.uleb128 0x3f
 3240 0170 19       		.uleb128 0x19
 3241 0171 03       		.uleb128 0x3
 3242 0172 0E       		.uleb128 0xe
 3243 0173 3A       		.uleb128 0x3a
 3244 0174 0B       		.uleb128 0xb
 3245 0175 3B       		.uleb128 0x3b
 3246 0176 05       		.uleb128 0x5
 3247 0177 27       		.uleb128 0x27
 3248 0178 19       		.uleb128 0x19
 3249 0179 49       		.uleb128 0x49
 3250 017a 13       		.uleb128 0x13
 3251 017b 11       		.uleb128 0x11
 3252 017c 01       		.uleb128 0x1
 3253 017d 12       		.uleb128 0x12
 3254 017e 06       		.uleb128 0x6
 3255 017f 40       		.uleb128 0x40
 3256 0180 18       		.uleb128 0x18
 3257 0181 9742     		.uleb128 0x2117
 3258 0183 19       		.uleb128 0x19
 3259 0184 00       		.byte	0
 3260 0185 00       		.byte	0
 3261 0186 1B       		.uleb128 0x1b
 3262 0187 2E       		.uleb128 0x2e
 3263 0188 00       		.byte	0
 3264 0189 3F       		.uleb128 0x3f
 3265 018a 19       		.uleb128 0x19
 3266 018b 03       		.uleb128 0x3
 3267 018c 0E       		.uleb128 0xe
 3268 018d 3A       		.uleb128 0x3a
 3269 018e 0B       		.uleb128 0xb
 3270 018f 3B       		.uleb128 0x3b
 3271 0190 05       		.uleb128 0x5
ARM GAS  C:\Users\ilya\AppData\Local\Temp\cc391SdI.s 			page 88


 3272 0191 27       		.uleb128 0x27
 3273 0192 19       		.uleb128 0x19
 3274 0193 49       		.uleb128 0x49
 3275 0194 13       		.uleb128 0x13
 3276 0195 20       		.uleb128 0x20
 3277 0196 0B       		.uleb128 0xb
 3278 0197 00       		.byte	0
 3279 0198 00       		.byte	0
 3280 0199 1C       		.uleb128 0x1c
 3281 019a 2E       		.uleb128 0x2e
 3282 019b 00       		.byte	0
 3283 019c 31       		.uleb128 0x31
 3284 019d 13       		.uleb128 0x13
 3285 019e 11       		.uleb128 0x11
 3286 019f 01       		.uleb128 0x1
 3287 01a0 12       		.uleb128 0x12
 3288 01a1 06       		.uleb128 0x6
 3289 01a2 40       		.uleb128 0x40
 3290 01a3 18       		.uleb128 0x18
 3291 01a4 9742     		.uleb128 0x2117
 3292 01a6 19       		.uleb128 0x19
 3293 01a7 00       		.byte	0
 3294 01a8 00       		.byte	0
 3295 01a9 1D       		.uleb128 0x1d
 3296 01aa 05       		.uleb128 0x5
 3297 01ab 00       		.byte	0
 3298 01ac 31       		.uleb128 0x31
 3299 01ad 13       		.uleb128 0x13
 3300 01ae 02       		.uleb128 0x2
 3301 01af 18       		.uleb128 0x18
 3302 01b0 00       		.byte	0
 3303 01b1 00       		.byte	0
 3304 01b2 1E       		.uleb128 0x1e
 3305 01b3 05       		.uleb128 0x5
 3306 01b4 00       		.byte	0
 3307 01b5 03       		.uleb128 0x3
 3308 01b6 0E       		.uleb128 0xe
 3309 01b7 3A       		.uleb128 0x3a
 3310 01b8 0B       		.uleb128 0xb
 3311 01b9 3B       		.uleb128 0x3b
 3312 01ba 05       		.uleb128 0x5
 3313 01bb 49       		.uleb128 0x49
 3314 01bc 13       		.uleb128 0x13
 3315 01bd 02       		.uleb128 0x2
 3316 01be 18       		.uleb128 0x18
 3317 01bf 00       		.byte	0
 3318 01c0 00       		.byte	0
 3319 01c1 1F       		.uleb128 0x1f
 3320 01c2 34       		.uleb128 0x34
 3321 01c3 00       		.byte	0
 3322 01c4 03       		.uleb128 0x3
 3323 01c5 0E       		.uleb128 0xe
 3324 01c6 3A       		.uleb128 0x3a
 3325 01c7 0B       		.uleb128 0xb
 3326 01c8 3B       		.uleb128 0x3b
 3327 01c9 0B       		.uleb128 0xb
 3328 01ca 49       		.uleb128 0x49
ARM GAS  C:\Users\ilya\AppData\Local\Temp\cc391SdI.s 			page 89


 3329 01cb 13       		.uleb128 0x13
 3330 01cc 3F       		.uleb128 0x3f
 3331 01cd 19       		.uleb128 0x19
 3332 01ce 02       		.uleb128 0x2
 3333 01cf 18       		.uleb128 0x18
 3334 01d0 00       		.byte	0
 3335 01d1 00       		.byte	0
 3336 01d2 20       		.uleb128 0x20
 3337 01d3 2E       		.uleb128 0x2e
 3338 01d4 00       		.byte	0
 3339 01d5 3F       		.uleb128 0x3f
 3340 01d6 19       		.uleb128 0x19
 3341 01d7 3C       		.uleb128 0x3c
 3342 01d8 19       		.uleb128 0x19
 3343 01d9 6E       		.uleb128 0x6e
 3344 01da 0E       		.uleb128 0xe
 3345 01db 03       		.uleb128 0x3
 3346 01dc 0E       		.uleb128 0xe
 3347 01dd 3A       		.uleb128 0x3a
 3348 01de 0B       		.uleb128 0xb
 3349 01df 3B       		.uleb128 0x3b
 3350 01e0 0B       		.uleb128 0xb
 3351 01e1 00       		.byte	0
 3352 01e2 00       		.byte	0
 3353 01e3 00       		.byte	0
 3354              		.section	.debug_loc,"",%progbits
 3355              	.Ldebug_loc0:
 3356              	.LLST0:
 3357 0000 0E000000 		.4byte	.LVL0
 3358 0004 12000000 		.4byte	.LVL1
 3359 0008 0200     		.2byte	0x2
 3360 000a 30       		.byte	0x30
 3361 000b 9F       		.byte	0x9f
 3362 000c 00000000 		.4byte	0
 3363 0010 00000000 		.4byte	0
 3364              	.LLST1:
 3365 0014 1E000000 		.4byte	.LVL2
 3366 0018 24000000 		.4byte	.LVL3
 3367 001c 0200     		.2byte	0x2
 3368 001e 31       		.byte	0x31
 3369 001f 9F       		.byte	0x9f
 3370 0020 00000000 		.4byte	0
 3371 0024 00000000 		.4byte	0
 3372              	.LLST2:
 3373 0028 28000000 		.4byte	.LVL4
 3374 002c 30000000 		.4byte	.LVL5
 3375 0030 0400     		.2byte	0x4
 3376 0032 0A       		.byte	0xa
 3377 0033 B801     		.2byte	0x1b8
 3378 0035 9F       		.byte	0x9f
 3379 0036 00000000 		.4byte	0
 3380 003a 00000000 		.4byte	0
 3381              	.LLST3:
 3382 003e 30000000 		.4byte	.LVL5
 3383 0042 34000000 		.4byte	.LVL6
 3384 0046 0200     		.2byte	0x2
 3385 0048 31       		.byte	0x31
ARM GAS  C:\Users\ilya\AppData\Local\Temp\cc391SdI.s 			page 90


 3386 0049 9F       		.byte	0x9f
 3387 004a 00000000 		.4byte	0
 3388 004e 00000000 		.4byte	0
 3389              	.LLST4:
 3390 0052 06000000 		.4byte	.LVL7
 3391 0056 13000000 		.4byte	.LVL8-1
 3392 005a 0100     		.2byte	0x1
 3393 005c 50       		.byte	0x50
 3394 005d 00000000 		.4byte	0
 3395 0061 00000000 		.4byte	0
 3396              	.LLST5:
 3397 0065 14000000 		.4byte	.LVL8
 3398 0069 24000000 		.4byte	.LVL10
 3399 006d 0200     		.2byte	0x2
 3400 006f 48       		.byte	0x48
 3401 0070 9F       		.byte	0x9f
 3402 0071 00000000 		.4byte	0
 3403 0075 00000000 		.4byte	0
 3404              	.LLST6:
 3405 0079 14000000 		.4byte	.LVL8
 3406 007d 24000000 		.4byte	.LVL10
 3407 0081 0200     		.2byte	0x2
 3408 0083 31       		.byte	0x31
 3409 0084 9F       		.byte	0x9f
 3410 0085 00000000 		.4byte	0
 3411 0089 00000000 		.4byte	0
 3412              	.LLST7:
 3413 008d 18000000 		.4byte	.LVL9
 3414 0091 23000000 		.4byte	.LVL10-1
 3415 0095 0100     		.2byte	0x1
 3416 0097 50       		.byte	0x50
 3417 0098 00000000 		.4byte	0
 3418 009c 00000000 		.4byte	0
 3419              	.LLST8:
 3420 00a0 16000000 		.4byte	.LVL11
 3421 00a4 1A000000 		.4byte	.LVL12
 3422 00a8 0200     		.2byte	0x2
 3423 00aa 30       		.byte	0x30
 3424 00ab 9F       		.byte	0x9f
 3425 00ac 00000000 		.4byte	0
 3426 00b0 00000000 		.4byte	0
 3427              	.LLST9:
 3428 00b4 26000000 		.4byte	.LVL13
 3429 00b8 2C000000 		.4byte	.LVL14
 3430 00bc 0200     		.2byte	0x2
 3431 00be 31       		.byte	0x31
 3432 00bf 9F       		.byte	0x9f
 3433 00c0 00000000 		.4byte	0
 3434 00c4 00000000 		.4byte	0
 3435              	.LLST10:
 3436 00c8 30000000 		.4byte	.LVL15
 3437 00cc 38000000 		.4byte	.LVL16
 3438 00d0 0400     		.2byte	0x4
 3439 00d2 0A       		.byte	0xa
 3440 00d3 B801     		.2byte	0x1b8
 3441 00d5 9F       		.byte	0x9f
 3442 00d6 00000000 		.4byte	0
ARM GAS  C:\Users\ilya\AppData\Local\Temp\cc391SdI.s 			page 91


 3443 00da 00000000 		.4byte	0
 3444              	.LLST11:
 3445 00de 38000000 		.4byte	.LVL16
 3446 00e2 3C000000 		.4byte	.LVL17
 3447 00e6 0200     		.2byte	0x2
 3448 00e8 31       		.byte	0x31
 3449 00e9 9F       		.byte	0x9f
 3450 00ea 00000000 		.4byte	0
 3451 00ee 00000000 		.4byte	0
 3452              	.LLST12:
 3453 00f2 42000000 		.4byte	.LVL18
 3454 00f6 4F000000 		.4byte	.LVL19-1
 3455 00fa 0100     		.2byte	0x1
 3456 00fc 50       		.byte	0x50
 3457 00fd 00000000 		.4byte	0
 3458 0101 00000000 		.4byte	0
 3459              	.LLST13:
 3460 0105 50000000 		.4byte	.LVL19
 3461 0109 60000000 		.4byte	.LVL21
 3462 010d 0200     		.2byte	0x2
 3463 010f 48       		.byte	0x48
 3464 0110 9F       		.byte	0x9f
 3465 0111 00000000 		.4byte	0
 3466 0115 00000000 		.4byte	0
 3467              	.LLST14:
 3468 0119 50000000 		.4byte	.LVL19
 3469 011d 60000000 		.4byte	.LVL21
 3470 0121 0200     		.2byte	0x2
 3471 0123 31       		.byte	0x31
 3472 0124 9F       		.byte	0x9f
 3473 0125 00000000 		.4byte	0
 3474 0129 00000000 		.4byte	0
 3475              	.LLST15:
 3476 012d 54000000 		.4byte	.LVL20
 3477 0131 5F000000 		.4byte	.LVL21-1
 3478 0135 0100     		.2byte	0x1
 3479 0137 50       		.byte	0x50
 3480 0138 00000000 		.4byte	0
 3481 013c 00000000 		.4byte	0
 3482              	.LLST16:
 3483 0140 06000000 		.4byte	.LVL22
 3484 0144 13000000 		.4byte	.LVL23-1
 3485 0148 0100     		.2byte	0x1
 3486 014a 50       		.byte	0x50
 3487 014b 00000000 		.4byte	0
 3488 014f 00000000 		.4byte	0
 3489              	.LLST17:
 3490 0153 00000000 		.4byte	.LVL24
 3491 0157 07000000 		.4byte	.LVL25-1
 3492 015b 0100     		.2byte	0x1
 3493 015d 50       		.byte	0x50
 3494 015e 07000000 		.4byte	.LVL25-1
 3495 0162 16000000 		.4byte	.LVL26
 3496 0166 0100     		.2byte	0x1
 3497 0168 54       		.byte	0x54
 3498 0169 16000000 		.4byte	.LVL26
 3499 016d 28000000 		.4byte	.LFE5
ARM GAS  C:\Users\ilya\AppData\Local\Temp\cc391SdI.s 			page 92


 3500 0171 0400     		.2byte	0x4
 3501 0173 F3       		.byte	0xf3
 3502 0174 01       		.uleb128 0x1
 3503 0175 50       		.byte	0x50
 3504 0176 9F       		.byte	0x9f
 3505 0177 00000000 		.4byte	0
 3506 017b 00000000 		.4byte	0
 3507              	.LLST18:
 3508 017f 08000000 		.4byte	.LVL25
 3509 0183 1B000000 		.4byte	.LVL27-1
 3510 0187 0100     		.2byte	0x1
 3511 0189 50       		.byte	0x50
 3512 018a 00000000 		.4byte	0
 3513 018e 00000000 		.4byte	0
 3514              	.LLST19:
 3515 0192 00000000 		.4byte	.LVL28
 3516 0196 07000000 		.4byte	.LVL29-1
 3517 019a 0100     		.2byte	0x1
 3518 019c 50       		.byte	0x50
 3519 019d 07000000 		.4byte	.LVL29-1
 3520 01a1 16000000 		.4byte	.LVL30
 3521 01a5 0100     		.2byte	0x1
 3522 01a7 54       		.byte	0x54
 3523 01a8 16000000 		.4byte	.LVL30
 3524 01ac 28000000 		.4byte	.LFE6
 3525 01b0 0400     		.2byte	0x4
 3526 01b2 F3       		.byte	0xf3
 3527 01b3 01       		.uleb128 0x1
 3528 01b4 50       		.byte	0x50
 3529 01b5 9F       		.byte	0x9f
 3530 01b6 00000000 		.4byte	0
 3531 01ba 00000000 		.4byte	0
 3532              	.LLST20:
 3533 01be 08000000 		.4byte	.LVL29
 3534 01c2 1B000000 		.4byte	.LVL31-1
 3535 01c6 0100     		.2byte	0x1
 3536 01c8 50       		.byte	0x50
 3537 01c9 00000000 		.4byte	0
 3538 01cd 00000000 		.4byte	0
 3539              	.LLST21:
 3540 01d1 00000000 		.4byte	.LVL32
 3541 01d5 07000000 		.4byte	.LVL33-1
 3542 01d9 0100     		.2byte	0x1
 3543 01db 50       		.byte	0x50
 3544 01dc 07000000 		.4byte	.LVL33-1
 3545 01e0 16000000 		.4byte	.LVL34
 3546 01e4 0100     		.2byte	0x1
 3547 01e6 54       		.byte	0x54
 3548 01e7 16000000 		.4byte	.LVL34
 3549 01eb 28000000 		.4byte	.LFE7
 3550 01ef 0400     		.2byte	0x4
 3551 01f1 F3       		.byte	0xf3
 3552 01f2 01       		.uleb128 0x1
 3553 01f3 50       		.byte	0x50
 3554 01f4 9F       		.byte	0x9f
 3555 01f5 00000000 		.4byte	0
 3556 01f9 00000000 		.4byte	0
ARM GAS  C:\Users\ilya\AppData\Local\Temp\cc391SdI.s 			page 93


 3557              	.LLST22:
 3558 01fd 08000000 		.4byte	.LVL33
 3559 0201 1B000000 		.4byte	.LVL35-1
 3560 0205 0100     		.2byte	0x1
 3561 0207 50       		.byte	0x50
 3562 0208 00000000 		.4byte	0
 3563 020c 00000000 		.4byte	0
 3564              	.LLST23:
 3565 0210 00000000 		.4byte	.LVL36
 3566 0214 07000000 		.4byte	.LVL37-1
 3567 0218 0100     		.2byte	0x1
 3568 021a 50       		.byte	0x50
 3569 021b 07000000 		.4byte	.LVL37-1
 3570 021f 16000000 		.4byte	.LVL38
 3571 0223 0100     		.2byte	0x1
 3572 0225 54       		.byte	0x54
 3573 0226 16000000 		.4byte	.LVL38
 3574 022a 30000000 		.4byte	.LFE8
 3575 022e 0400     		.2byte	0x4
 3576 0230 F3       		.byte	0xf3
 3577 0231 01       		.uleb128 0x1
 3578 0232 50       		.byte	0x50
 3579 0233 9F       		.byte	0x9f
 3580 0234 00000000 		.4byte	0
 3581 0238 00000000 		.4byte	0
 3582              	.LLST24:
 3583 023c 08000000 		.4byte	.LVL37
 3584 0240 23000000 		.4byte	.LVL39-1
 3585 0244 0100     		.2byte	0x1
 3586 0246 50       		.byte	0x50
 3587 0247 00000000 		.4byte	0
 3588 024b 00000000 		.4byte	0
 3589              	.LLST25:
 3590 024f 00000000 		.4byte	.LVL40
 3591 0253 04000000 		.4byte	.LVL41
 3592 0257 0100     		.2byte	0x1
 3593 0259 50       		.byte	0x50
 3594 025a 04000000 		.4byte	.LVL41
 3595 025e 10000000 		.4byte	.LFE9
 3596 0262 0400     		.2byte	0x4
 3597 0264 F3       		.byte	0xf3
 3598 0265 01       		.uleb128 0x1
 3599 0266 50       		.byte	0x50
 3600 0267 9F       		.byte	0x9f
 3601 0268 00000000 		.4byte	0
 3602 026c 00000000 		.4byte	0
 3603              	.LLST26:
 3604 0270 00000000 		.4byte	.LVL42
 3605 0274 07000000 		.4byte	.LVL43-1
 3606 0278 0100     		.2byte	0x1
 3607 027a 50       		.byte	0x50
 3608 027b 07000000 		.4byte	.LVL43-1
 3609 027f 0E000000 		.4byte	.LVL44
 3610 0283 0100     		.2byte	0x1
 3611 0285 54       		.byte	0x54
 3612 0286 0E000000 		.4byte	.LVL44
 3613 028a 28000000 		.4byte	.LFE10
ARM GAS  C:\Users\ilya\AppData\Local\Temp\cc391SdI.s 			page 94


 3614 028e 0400     		.2byte	0x4
 3615 0290 F3       		.byte	0xf3
 3616 0291 01       		.uleb128 0x1
 3617 0292 50       		.byte	0x50
 3618 0293 9F       		.byte	0x9f
 3619 0294 00000000 		.4byte	0
 3620 0298 00000000 		.4byte	0
 3621              	.LLST27:
 3622 029c 08000000 		.4byte	.LVL43
 3623 02a0 1F000000 		.4byte	.LVL45-1
 3624 02a4 0100     		.2byte	0x1
 3625 02a6 50       		.byte	0x50
 3626 02a7 00000000 		.4byte	0
 3627 02ab 00000000 		.4byte	0
 3628              	.LLST28:
 3629 02af 00000000 		.4byte	.LVL46
 3630 02b3 07000000 		.4byte	.LVL47-1
 3631 02b7 0100     		.2byte	0x1
 3632 02b9 50       		.byte	0x50
 3633 02ba 07000000 		.4byte	.LVL47-1
 3634 02be 0E000000 		.4byte	.LVL48
 3635 02c2 0100     		.2byte	0x1
 3636 02c4 54       		.byte	0x54
 3637 02c5 0E000000 		.4byte	.LVL48
 3638 02c9 28000000 		.4byte	.LFE11
 3639 02cd 0400     		.2byte	0x4
 3640 02cf F3       		.byte	0xf3
 3641 02d0 01       		.uleb128 0x1
 3642 02d1 50       		.byte	0x50
 3643 02d2 9F       		.byte	0x9f
 3644 02d3 00000000 		.4byte	0
 3645 02d7 00000000 		.4byte	0
 3646              	.LLST29:
 3647 02db 08000000 		.4byte	.LVL47
 3648 02df 1F000000 		.4byte	.LVL49-1
 3649 02e3 0100     		.2byte	0x1
 3650 02e5 50       		.byte	0x50
 3651 02e6 00000000 		.4byte	0
 3652 02ea 00000000 		.4byte	0
 3653              	.LLST30:
 3654 02ee 00000000 		.4byte	.LVL50
 3655 02f2 07000000 		.4byte	.LVL51-1
 3656 02f6 0100     		.2byte	0x1
 3657 02f8 50       		.byte	0x50
 3658 02f9 07000000 		.4byte	.LVL51-1
 3659 02fd 10000000 		.4byte	.LVL52
 3660 0301 0100     		.2byte	0x1
 3661 0303 54       		.byte	0x54
 3662 0304 10000000 		.4byte	.LVL52
 3663 0308 2C000000 		.4byte	.LFE12
 3664 030c 0400     		.2byte	0x4
 3665 030e F3       		.byte	0xf3
 3666 030f 01       		.uleb128 0x1
 3667 0310 50       		.byte	0x50
 3668 0311 9F       		.byte	0x9f
 3669 0312 00000000 		.4byte	0
 3670 0316 00000000 		.4byte	0
ARM GAS  C:\Users\ilya\AppData\Local\Temp\cc391SdI.s 			page 95


 3671              	.LLST31:
 3672 031a 08000000 		.4byte	.LVL51
 3673 031e 1F000000 		.4byte	.LVL53-1
 3674 0322 0100     		.2byte	0x1
 3675 0324 50       		.byte	0x50
 3676 0325 00000000 		.4byte	0
 3677 0329 00000000 		.4byte	0
 3678              	.LLST32:
 3679 032d 00000000 		.4byte	.LVL54
 3680 0331 07000000 		.4byte	.LVL55-1
 3681 0335 0100     		.2byte	0x1
 3682 0337 50       		.byte	0x50
 3683 0338 07000000 		.4byte	.LVL55-1
 3684 033c 16000000 		.4byte	.LVL56
 3685 0340 0100     		.2byte	0x1
 3686 0342 54       		.byte	0x54
 3687 0343 16000000 		.4byte	.LVL56
 3688 0347 28000000 		.4byte	.LFE13
 3689 034b 0400     		.2byte	0x4
 3690 034d F3       		.byte	0xf3
 3691 034e 01       		.uleb128 0x1
 3692 034f 50       		.byte	0x50
 3693 0350 9F       		.byte	0x9f
 3694 0351 00000000 		.4byte	0
 3695 0355 00000000 		.4byte	0
 3696              	.LLST33:
 3697 0359 08000000 		.4byte	.LVL55
 3698 035d 1B000000 		.4byte	.LVL57-1
 3699 0361 0100     		.2byte	0x1
 3700 0363 50       		.byte	0x50
 3701 0364 00000000 		.4byte	0
 3702 0368 00000000 		.4byte	0
 3703              	.LLST34:
 3704 036c 00000000 		.4byte	.LVL58
 3705 0370 04000000 		.4byte	.LVL59
 3706 0374 0100     		.2byte	0x1
 3707 0376 50       		.byte	0x50
 3708 0377 04000000 		.4byte	.LVL59
 3709 037b 10000000 		.4byte	.LFE14
 3710 037f 0400     		.2byte	0x4
 3711 0381 F3       		.byte	0xf3
 3712 0382 01       		.uleb128 0x1
 3713 0383 50       		.byte	0x50
 3714 0384 9F       		.byte	0x9f
 3715 0385 00000000 		.4byte	0
 3716 0389 00000000 		.4byte	0
 3717              	.LLST35:
 3718 038d 00000000 		.4byte	.LVL60
 3719 0391 07000000 		.4byte	.LVL61-1
 3720 0395 0100     		.2byte	0x1
 3721 0397 50       		.byte	0x50
 3722 0398 07000000 		.4byte	.LVL61-1
 3723 039c 16000000 		.4byte	.LVL62
 3724 03a0 0100     		.2byte	0x1
 3725 03a2 54       		.byte	0x54
 3726 03a3 16000000 		.4byte	.LVL62
 3727 03a7 28000000 		.4byte	.LFE16
ARM GAS  C:\Users\ilya\AppData\Local\Temp\cc391SdI.s 			page 96


 3728 03ab 0400     		.2byte	0x4
 3729 03ad F3       		.byte	0xf3
 3730 03ae 01       		.uleb128 0x1
 3731 03af 50       		.byte	0x50
 3732 03b0 9F       		.byte	0x9f
 3733 03b1 00000000 		.4byte	0
 3734 03b5 00000000 		.4byte	0
 3735              	.LLST36:
 3736 03b9 08000000 		.4byte	.LVL61
 3737 03bd 1B000000 		.4byte	.LVL63-1
 3738 03c1 0100     		.2byte	0x1
 3739 03c3 50       		.byte	0x50
 3740 03c4 00000000 		.4byte	0
 3741 03c8 00000000 		.4byte	0
 3742              	.LLST37:
 3743 03cc 00000000 		.4byte	.LVL64
 3744 03d0 04000000 		.4byte	.LVL65
 3745 03d4 0100     		.2byte	0x1
 3746 03d6 50       		.byte	0x50
 3747 03d7 04000000 		.4byte	.LVL65
 3748 03db 10000000 		.4byte	.LFE17
 3749 03df 0400     		.2byte	0x4
 3750 03e1 F3       		.byte	0xf3
 3751 03e2 01       		.uleb128 0x1
 3752 03e3 50       		.byte	0x50
 3753 03e4 9F       		.byte	0x9f
 3754 03e5 00000000 		.4byte	0
 3755 03e9 00000000 		.4byte	0
 3756              	.LLST38:
 3757 03ed 00000000 		.4byte	.LVL66
 3758 03f1 07000000 		.4byte	.LVL67-1
 3759 03f5 0100     		.2byte	0x1
 3760 03f7 50       		.byte	0x50
 3761 03f8 07000000 		.4byte	.LVL67-1
 3762 03fc 1E000000 		.4byte	.LVL69
 3763 0400 0100     		.2byte	0x1
 3764 0402 54       		.byte	0x54
 3765 0403 1E000000 		.4byte	.LVL69
 3766 0407 24000000 		.4byte	.LFE19
 3767 040b 0400     		.2byte	0x4
 3768 040d F3       		.byte	0xf3
 3769 040e 01       		.uleb128 0x1
 3770 040f 50       		.byte	0x50
 3771 0410 9F       		.byte	0x9f
 3772 0411 00000000 		.4byte	0
 3773 0415 00000000 		.4byte	0
 3774              	.LLST39:
 3775 0419 08000000 		.4byte	.LVL67
 3776 041d 1D000000 		.4byte	.LVL68-1
 3777 0421 0100     		.2byte	0x1
 3778 0423 50       		.byte	0x50
 3779 0424 00000000 		.4byte	0
 3780 0428 00000000 		.4byte	0
 3781              	.LLST40:
 3782 042c 00000000 		.4byte	.LVL70
 3783 0430 04000000 		.4byte	.LVL71
 3784 0434 0100     		.2byte	0x1
ARM GAS  C:\Users\ilya\AppData\Local\Temp\cc391SdI.s 			page 97


 3785 0436 50       		.byte	0x50
 3786 0437 04000000 		.4byte	.LVL71
 3787 043b 10000000 		.4byte	.LFE20
 3788 043f 0400     		.2byte	0x4
 3789 0441 F3       		.byte	0xf3
 3790 0442 01       		.uleb128 0x1
 3791 0443 50       		.byte	0x50
 3792 0444 9F       		.byte	0x9f
 3793 0445 00000000 		.4byte	0
 3794 0449 00000000 		.4byte	0
 3795              	.LLST41:
 3796 044d 00000000 		.4byte	.LVL72
 3797 0451 07000000 		.4byte	.LVL73-1
 3798 0455 0100     		.2byte	0x1
 3799 0457 50       		.byte	0x50
 3800 0458 07000000 		.4byte	.LVL73-1
 3801 045c 0E000000 		.4byte	.LVL74
 3802 0460 0100     		.2byte	0x1
 3803 0462 54       		.byte	0x54
 3804 0463 0E000000 		.4byte	.LVL74
 3805 0467 28000000 		.4byte	.LFE22
 3806 046b 0400     		.2byte	0x4
 3807 046d F3       		.byte	0xf3
 3808 046e 01       		.uleb128 0x1
 3809 046f 50       		.byte	0x50
 3810 0470 9F       		.byte	0x9f
 3811 0471 00000000 		.4byte	0
 3812 0475 00000000 		.4byte	0
 3813              	.LLST42:
 3814 0479 08000000 		.4byte	.LVL73
 3815 047d 1F000000 		.4byte	.LVL75-1
 3816 0481 0100     		.2byte	0x1
 3817 0483 50       		.byte	0x50
 3818 0484 00000000 		.4byte	0
 3819 0488 00000000 		.4byte	0
 3820              	.LLST43:
 3821 048c 00000000 		.4byte	.LVL76
 3822 0490 04000000 		.4byte	.LVL77
 3823 0494 0100     		.2byte	0x1
 3824 0496 50       		.byte	0x50
 3825 0497 04000000 		.4byte	.LVL77
 3826 049b 10000000 		.4byte	.LFE23
 3827 049f 0400     		.2byte	0x4
 3828 04a1 F3       		.byte	0xf3
 3829 04a2 01       		.uleb128 0x1
 3830 04a3 50       		.byte	0x50
 3831 04a4 9F       		.byte	0x9f
 3832 04a5 00000000 		.4byte	0
 3833 04a9 00000000 		.4byte	0
 3834              	.LLST44:
 3835 04ad 00000000 		.4byte	.LVL78
 3836 04b1 04000000 		.4byte	.LVL79
 3837 04b5 0100     		.2byte	0x1
 3838 04b7 50       		.byte	0x50
 3839 04b8 04000000 		.4byte	.LVL79
 3840 04bc 10000000 		.4byte	.LFE25
 3841 04c0 0400     		.2byte	0x4
ARM GAS  C:\Users\ilya\AppData\Local\Temp\cc391SdI.s 			page 98


 3842 04c2 F3       		.byte	0xf3
 3843 04c3 01       		.uleb128 0x1
 3844 04c4 50       		.byte	0x50
 3845 04c5 9F       		.byte	0x9f
 3846 04c6 00000000 		.4byte	0
 3847 04ca 00000000 		.4byte	0
 3848              	.LLST45:
 3849 04ce 00000000 		.4byte	.LVL80
 3850 04d2 07000000 		.4byte	.LVL81-1
 3851 04d6 0100     		.2byte	0x1
 3852 04d8 50       		.byte	0x50
 3853 04d9 07000000 		.4byte	.LVL81-1
 3854 04dd 16000000 		.4byte	.LVL82
 3855 04e1 0100     		.2byte	0x1
 3856 04e3 54       		.byte	0x54
 3857 04e4 16000000 		.4byte	.LVL82
 3858 04e8 24000000 		.4byte	.LFE29
 3859 04ec 0400     		.2byte	0x4
 3860 04ee F3       		.byte	0xf3
 3861 04ef 01       		.uleb128 0x1
 3862 04f0 50       		.byte	0x50
 3863 04f1 9F       		.byte	0x9f
 3864 04f2 00000000 		.4byte	0
 3865 04f6 00000000 		.4byte	0
 3866              	.LLST46:
 3867 04fa 08000000 		.4byte	.LVL81
 3868 04fe 1B000000 		.4byte	.LVL83-1
 3869 0502 0100     		.2byte	0x1
 3870 0504 50       		.byte	0x50
 3871 0505 00000000 		.4byte	0
 3872 0509 00000000 		.4byte	0
 3873              	.LLST47:
 3874 050d 00000000 		.4byte	.LVL84
 3875 0511 07000000 		.4byte	.LVL85-1
 3876 0515 0100     		.2byte	0x1
 3877 0517 50       		.byte	0x50
 3878 0518 07000000 		.4byte	.LVL85-1
 3879 051c 1E000000 		.4byte	.LVL87
 3880 0520 0100     		.2byte	0x1
 3881 0522 54       		.byte	0x54
 3882 0523 1E000000 		.4byte	.LVL87
 3883 0527 24000000 		.4byte	.LFE30
 3884 052b 0400     		.2byte	0x4
 3885 052d F3       		.byte	0xf3
 3886 052e 01       		.uleb128 0x1
 3887 052f 50       		.byte	0x50
 3888 0530 9F       		.byte	0x9f
 3889 0531 00000000 		.4byte	0
 3890 0535 00000000 		.4byte	0
 3891              	.LLST48:
 3892 0539 08000000 		.4byte	.LVL85
 3893 053d 1D000000 		.4byte	.LVL86-1
 3894 0541 0100     		.2byte	0x1
 3895 0543 50       		.byte	0x50
 3896 0544 00000000 		.4byte	0
 3897 0548 00000000 		.4byte	0
 3898              	.LLST49:
ARM GAS  C:\Users\ilya\AppData\Local\Temp\cc391SdI.s 			page 99


 3899 054c 00000000 		.4byte	.LVL88
 3900 0550 07000000 		.4byte	.LVL89-1
 3901 0554 0100     		.2byte	0x1
 3902 0556 50       		.byte	0x50
 3903 0557 07000000 		.4byte	.LVL89-1
 3904 055b 1E000000 		.4byte	.LVL91
 3905 055f 0100     		.2byte	0x1
 3906 0561 54       		.byte	0x54
 3907 0562 1E000000 		.4byte	.LVL91
 3908 0566 28000000 		.4byte	.LFE31
 3909 056a 0400     		.2byte	0x4
 3910 056c F3       		.byte	0xf3
 3911 056d 01       		.uleb128 0x1
 3912 056e 50       		.byte	0x50
 3913 056f 9F       		.byte	0x9f
 3914 0570 00000000 		.4byte	0
 3915 0574 00000000 		.4byte	0
 3916              	.LLST50:
 3917 0578 08000000 		.4byte	.LVL89
 3918 057c 1D000000 		.4byte	.LVL90-1
 3919 0580 0100     		.2byte	0x1
 3920 0582 50       		.byte	0x50
 3921 0583 00000000 		.4byte	0
 3922 0587 00000000 		.4byte	0
 3923              	.LLST51:
 3924 058b 00000000 		.4byte	.LVL92
 3925 058f 07000000 		.4byte	.LVL93-1
 3926 0593 0100     		.2byte	0x1
 3927 0595 50       		.byte	0x50
 3928 0596 07000000 		.4byte	.LVL93-1
 3929 059a 1E000000 		.4byte	.LVL95
 3930 059e 0100     		.2byte	0x1
 3931 05a0 54       		.byte	0x54
 3932 05a1 1E000000 		.4byte	.LVL95
 3933 05a5 24000000 		.4byte	.LFE32
 3934 05a9 0400     		.2byte	0x4
 3935 05ab F3       		.byte	0xf3
 3936 05ac 01       		.uleb128 0x1
 3937 05ad 50       		.byte	0x50
 3938 05ae 9F       		.byte	0x9f
 3939 05af 00000000 		.4byte	0
 3940 05b3 00000000 		.4byte	0
 3941              	.LLST52:
 3942 05b7 08000000 		.4byte	.LVL93
 3943 05bb 1D000000 		.4byte	.LVL94-1
 3944 05bf 0100     		.2byte	0x1
 3945 05c1 50       		.byte	0x50
 3946 05c2 00000000 		.4byte	0
 3947 05c6 00000000 		.4byte	0
 3948              	.LLST53:
 3949 05ca 00000000 		.4byte	.LVL96
 3950 05ce 07000000 		.4byte	.LVL97-1
 3951 05d2 0100     		.2byte	0x1
 3952 05d4 50       		.byte	0x50
 3953 05d5 07000000 		.4byte	.LVL97-1
 3954 05d9 1E000000 		.4byte	.LVL99
 3955 05dd 0100     		.2byte	0x1
ARM GAS  C:\Users\ilya\AppData\Local\Temp\cc391SdI.s 			page 100


 3956 05df 54       		.byte	0x54
 3957 05e0 1E000000 		.4byte	.LVL99
 3958 05e4 24000000 		.4byte	.LFE33
 3959 05e8 0400     		.2byte	0x4
 3960 05ea F3       		.byte	0xf3
 3961 05eb 01       		.uleb128 0x1
 3962 05ec 50       		.byte	0x50
 3963 05ed 9F       		.byte	0x9f
 3964 05ee 00000000 		.4byte	0
 3965 05f2 00000000 		.4byte	0
 3966              	.LLST54:
 3967 05f6 08000000 		.4byte	.LVL97
 3968 05fa 1D000000 		.4byte	.LVL98-1
 3969 05fe 0100     		.2byte	0x1
 3970 0600 50       		.byte	0x50
 3971 0601 00000000 		.4byte	0
 3972 0605 00000000 		.4byte	0
 3973              	.LLST55:
 3974 0609 00000000 		.4byte	.LVL100
 3975 060d 0B000000 		.4byte	.LVL101-1
 3976 0611 0100     		.2byte	0x1
 3977 0613 50       		.byte	0x50
 3978 0614 0B000000 		.4byte	.LVL101-1
 3979 0618 1C000000 		.4byte	.LFE34
 3980 061c 0400     		.2byte	0x4
 3981 061e F3       		.byte	0xf3
 3982 061f 01       		.uleb128 0x1
 3983 0620 50       		.byte	0x50
 3984 0621 9F       		.byte	0x9f
 3985 0622 00000000 		.4byte	0
 3986 0626 00000000 		.4byte	0
 3987              	.LLST56:
 3988 062a 00000000 		.4byte	.LVL100
 3989 062e 0B000000 		.4byte	.LVL101-1
 3990 0632 0100     		.2byte	0x1
 3991 0634 51       		.byte	0x51
 3992 0635 0B000000 		.4byte	.LVL101-1
 3993 0639 14000000 		.4byte	.LVL103
 3994 063d 0100     		.2byte	0x1
 3995 063f 55       		.byte	0x55
 3996 0640 14000000 		.4byte	.LVL103
 3997 0644 1C000000 		.4byte	.LFE34
 3998 0648 0400     		.2byte	0x4
 3999 064a F3       		.byte	0xf3
 4000 064b 01       		.uleb128 0x1
 4001 064c 51       		.byte	0x51
 4002 064d 9F       		.byte	0x9f
 4003 064e 00000000 		.4byte	0
 4004 0652 00000000 		.4byte	0
 4005              	.LLST57:
 4006 0656 0C000000 		.4byte	.LVL101
 4007 065a 13000000 		.4byte	.LVL102-1
 4008 065e 0100     		.2byte	0x1
 4009 0660 50       		.byte	0x50
 4010 0661 00000000 		.4byte	0
 4011 0665 00000000 		.4byte	0
 4012              		.section	.debug_aranges,"",%progbits
ARM GAS  C:\Users\ilya\AppData\Local\Temp\cc391SdI.s 			page 101


 4013 0000 44010000 		.4byte	0x144
 4014 0004 0200     		.2byte	0x2
 4015 0006 00000000 		.4byte	.Ldebug_info0
 4016 000a 04       		.byte	0x4
 4017 000b 00       		.byte	0
 4018 000c 0000     		.2byte	0
 4019 000e 0000     		.2byte	0
 4020 0010 00000000 		.4byte	.LFB1
 4021 0014 54000000 		.4byte	.LFE1-.LFB1
 4022 0018 00000000 		.4byte	.LFB2
 4023 001c 30000000 		.4byte	.LFE2-.LFB2
 4024 0020 00000000 		.4byte	.LFB3
 4025 0024 8C000000 		.4byte	.LFE3-.LFB3
 4026 0028 00000000 		.4byte	.LFB4
 4027 002c 1C000000 		.4byte	.LFE4-.LFB4
 4028 0030 00000000 		.4byte	.LFB5
 4029 0034 28000000 		.4byte	.LFE5-.LFB5
 4030 0038 00000000 		.4byte	.LFB6
 4031 003c 28000000 		.4byte	.LFE6-.LFB6
 4032 0040 00000000 		.4byte	.LFB7
 4033 0044 28000000 		.4byte	.LFE7-.LFB7
 4034 0048 00000000 		.4byte	.LFB8
 4035 004c 30000000 		.4byte	.LFE8-.LFB8
 4036 0050 00000000 		.4byte	.LFB9
 4037 0054 10000000 		.4byte	.LFE9-.LFB9
 4038 0058 00000000 		.4byte	.LFB10
 4039 005c 28000000 		.4byte	.LFE10-.LFB10
 4040 0060 00000000 		.4byte	.LFB11
 4041 0064 28000000 		.4byte	.LFE11-.LFB11
 4042 0068 00000000 		.4byte	.LFB12
 4043 006c 2C000000 		.4byte	.LFE12-.LFB12
 4044 0070 00000000 		.4byte	.LFB13
 4045 0074 28000000 		.4byte	.LFE13-.LFB13
 4046 0078 00000000 		.4byte	.LFB14
 4047 007c 10000000 		.4byte	.LFE14-.LFB14
 4048 0080 00000000 		.4byte	.LFB15
 4049 0084 10000000 		.4byte	.LFE15-.LFB15
 4050 0088 00000000 		.4byte	.LFB16
 4051 008c 28000000 		.4byte	.LFE16-.LFB16
 4052 0090 00000000 		.4byte	.LFB17
 4053 0094 10000000 		.4byte	.LFE17-.LFB17
 4054 0098 00000000 		.4byte	.LFB18
 4055 009c 10000000 		.4byte	.LFE18-.LFB18
 4056 00a0 00000000 		.4byte	.LFB19
 4057 00a4 24000000 		.4byte	.LFE19-.LFB19
 4058 00a8 00000000 		.4byte	.LFB20
 4059 00ac 10000000 		.4byte	.LFE20-.LFB20
 4060 00b0 00000000 		.4byte	.LFB21
 4061 00b4 10000000 		.4byte	.LFE21-.LFB21
 4062 00b8 00000000 		.4byte	.LFB22
 4063 00bc 28000000 		.4byte	.LFE22-.LFB22
 4064 00c0 00000000 		.4byte	.LFB23
 4065 00c4 10000000 		.4byte	.LFE23-.LFB23
 4066 00c8 00000000 		.4byte	.LFB25
 4067 00cc 10000000 		.4byte	.LFE25-.LFB25
 4068 00d0 00000000 		.4byte	.LFB27
 4069 00d4 10000000 		.4byte	.LFE27-.LFB27
ARM GAS  C:\Users\ilya\AppData\Local\Temp\cc391SdI.s 			page 102


 4070 00d8 00000000 		.4byte	.LFB28
 4071 00dc 10000000 		.4byte	.LFE28-.LFB28
 4072 00e0 00000000 		.4byte	.LFB29
 4073 00e4 24000000 		.4byte	.LFE29-.LFB29
 4074 00e8 00000000 		.4byte	.LFB30
 4075 00ec 24000000 		.4byte	.LFE30-.LFB30
 4076 00f0 00000000 		.4byte	.LFB31
 4077 00f4 28000000 		.4byte	.LFE31-.LFB31
 4078 00f8 00000000 		.4byte	.LFB32
 4079 00fc 24000000 		.4byte	.LFE32-.LFB32
 4080 0100 00000000 		.4byte	.LFB33
 4081 0104 24000000 		.4byte	.LFE33-.LFB33
 4082 0108 00000000 		.4byte	.LFB34
 4083 010c 1C000000 		.4byte	.LFE34-.LFB34
 4084 0110 00000000 		.4byte	.LFB35
 4085 0114 14000000 		.4byte	.LFE35-.LFB35
 4086 0118 00000000 		.4byte	.LFB36
 4087 011c 0C000000 		.4byte	.LFE36-.LFB36
 4088 0120 00000000 		.4byte	.LFB37
 4089 0124 0C000000 		.4byte	.LFE37-.LFB37
 4090 0128 00000000 		.4byte	.LFB38
 4091 012c 0C000000 		.4byte	.LFE38-.LFB38
 4092 0130 00000000 		.4byte	.LFB39
 4093 0134 0C000000 		.4byte	.LFE39-.LFB39
 4094 0138 00000000 		.4byte	.LFB40
 4095 013c 0C000000 		.4byte	.LFE40-.LFB40
 4096 0140 00000000 		.4byte	0
 4097 0144 00000000 		.4byte	0
 4098              		.section	.debug_ranges,"",%progbits
 4099              	.Ldebug_ranges0:
 4100 0000 02000000 		.4byte	.LBB22
 4101 0004 04000000 		.4byte	.LBE22
 4102 0008 0E000000 		.4byte	.LBB25
 4103 000c 12000000 		.4byte	.LBE25
 4104 0010 00000000 		.4byte	0
 4105 0014 00000000 		.4byte	0
 4106 0018 3E000000 		.4byte	.LBB60
 4107 001c 46000000 		.4byte	.LBE60
 4108 0020 46000000 		.4byte	.LBB65
 4109 0024 60000000 		.4byte	.LBE65
 4110 0028 00000000 		.4byte	0
 4111 002c 00000000 		.4byte	0
 4112 0030 00000000 		.4byte	.LFB1
 4113 0034 54000000 		.4byte	.LFE1
 4114 0038 00000000 		.4byte	.LFB2
 4115 003c 30000000 		.4byte	.LFE2
 4116 0040 00000000 		.4byte	.LFB3
 4117 0044 8C000000 		.4byte	.LFE3
 4118 0048 00000000 		.4byte	.LFB4
 4119 004c 1C000000 		.4byte	.LFE4
 4120 0050 00000000 		.4byte	.LFB5
 4121 0054 28000000 		.4byte	.LFE5
 4122 0058 00000000 		.4byte	.LFB6
 4123 005c 28000000 		.4byte	.LFE6
 4124 0060 00000000 		.4byte	.LFB7
 4125 0064 28000000 		.4byte	.LFE7
 4126 0068 00000000 		.4byte	.LFB8
ARM GAS  C:\Users\ilya\AppData\Local\Temp\cc391SdI.s 			page 103


 4127 006c 30000000 		.4byte	.LFE8
 4128 0070 00000000 		.4byte	.LFB9
 4129 0074 10000000 		.4byte	.LFE9
 4130 0078 00000000 		.4byte	.LFB10
 4131 007c 28000000 		.4byte	.LFE10
 4132 0080 00000000 		.4byte	.LFB11
 4133 0084 28000000 		.4byte	.LFE11
 4134 0088 00000000 		.4byte	.LFB12
 4135 008c 2C000000 		.4byte	.LFE12
 4136 0090 00000000 		.4byte	.LFB13
 4137 0094 28000000 		.4byte	.LFE13
 4138 0098 00000000 		.4byte	.LFB14
 4139 009c 10000000 		.4byte	.LFE14
 4140 00a0 00000000 		.4byte	.LFB15
 4141 00a4 10000000 		.4byte	.LFE15
 4142 00a8 00000000 		.4byte	.LFB16
 4143 00ac 28000000 		.4byte	.LFE16
 4144 00b0 00000000 		.4byte	.LFB17
 4145 00b4 10000000 		.4byte	.LFE17
 4146 00b8 00000000 		.4byte	.LFB18
 4147 00bc 10000000 		.4byte	.LFE18
 4148 00c0 00000000 		.4byte	.LFB19
 4149 00c4 24000000 		.4byte	.LFE19
 4150 00c8 00000000 		.4byte	.LFB20
 4151 00cc 10000000 		.4byte	.LFE20
 4152 00d0 00000000 		.4byte	.LFB21
 4153 00d4 10000000 		.4byte	.LFE21
 4154 00d8 00000000 		.4byte	.LFB22
 4155 00dc 28000000 		.4byte	.LFE22
 4156 00e0 00000000 		.4byte	.LFB23
 4157 00e4 10000000 		.4byte	.LFE23
 4158 00e8 00000000 		.4byte	.LFB25
 4159 00ec 10000000 		.4byte	.LFE25
 4160 00f0 00000000 		.4byte	.LFB27
 4161 00f4 10000000 		.4byte	.LFE27
 4162 00f8 00000000 		.4byte	.LFB28
 4163 00fc 10000000 		.4byte	.LFE28
 4164 0100 00000000 		.4byte	.LFB29
 4165 0104 24000000 		.4byte	.LFE29
 4166 0108 00000000 		.4byte	.LFB30
 4167 010c 24000000 		.4byte	.LFE30
 4168 0110 00000000 		.4byte	.LFB31
 4169 0114 28000000 		.4byte	.LFE31
 4170 0118 00000000 		.4byte	.LFB32
 4171 011c 24000000 		.4byte	.LFE32
 4172 0120 00000000 		.4byte	.LFB33
 4173 0124 24000000 		.4byte	.LFE33
 4174 0128 00000000 		.4byte	.LFB34
 4175 012c 1C000000 		.4byte	.LFE34
 4176 0130 00000000 		.4byte	.LFB35
 4177 0134 14000000 		.4byte	.LFE35
 4178 0138 00000000 		.4byte	.LFB36
 4179 013c 0C000000 		.4byte	.LFE36
 4180 0140 00000000 		.4byte	.LFB37
 4181 0144 0C000000 		.4byte	.LFE37
 4182 0148 00000000 		.4byte	.LFB38
 4183 014c 0C000000 		.4byte	.LFE38
ARM GAS  C:\Users\ilya\AppData\Local\Temp\cc391SdI.s 			page 104


 4184 0150 00000000 		.4byte	.LFB39
 4185 0154 0C000000 		.4byte	.LFE39
 4186 0158 00000000 		.4byte	.LFB40
 4187 015c 0C000000 		.4byte	.LFE40
 4188 0160 00000000 		.4byte	0
 4189 0164 00000000 		.4byte	0
 4190              		.section	.debug_line,"",%progbits
 4191              	.Ldebug_line0:
 4192 0000 19040000 		.section	.debug_str,"MS",%progbits,1
 4192      02005200 
 4192      00000201 
 4192      FB0E0D00 
 4192      01010101 
 4193              	.LASF27:
 4194 0000 636F756E 		.ascii	"count\000"
 4194      7400
 4195              	.LASF51:
 4196 0006 50574D5F 		.ascii	"PWM_CHARGE_ReadCounter\000"
 4196      43484152 
 4196      47455F52 
 4196      65616443 
 4196      6F756E74 
 4197              	.LASF75:
 4198 001d 43794578 		.ascii	"CyExitCriticalSection\000"
 4198      69744372 
 4198      69746963 
 4198      616C5365 
 4198      6374696F 
 4199              	.LASF44:
 4200 0033 50574D5F 		.ascii	"PWM_CHARGE_SetPWMStopOnKill\000"
 4200      43484152 
 4200      47455F53 
 4200      65745057 
 4200      4D53746F 
 4201              	.LASF71:
 4202 004f 50574D5F 		.ascii	"PWM_CHARGE_GetInterruptSource\000"
 4202      43484152 
 4202      47455F47 
 4202      6574496E 
 4202      74657272 
 4203              	.LASF42:
 4204 006d 50574D5F 		.ascii	"PWM_CHARGE_SetPWMSyncKill\000"
 4204      43484152 
 4204      47455F53 
 4204      65745057 
 4204      4D53796E 
 4205              	.LASF23:
 4206 0087 70657269 		.ascii	"period\000"
 4206      6F6400
 4207              	.LASF7:
 4208 008e 6C6F6E67 		.ascii	"long long unsigned int\000"
 4208      206C6F6E 
 4208      6720756E 
 4208      7369676E 
 4208      65642069 
 4209              	.LASF20:
 4210 00a5 50574D5F 		.ascii	"PWM_CHARGE_WriteCompare\000"
ARM GAS  C:\Users\ilya\AppData\Local\Temp\cc391SdI.s 			page 105


 4210      43484152 
 4210      47455F57 
 4210      72697465 
 4210      436F6D70 
 4211              	.LASF70:
 4212 00bd 50574D5F 		.ascii	"PWM_CHARGE_GetInterruptSourceMasked\000"
 4212      43484152 
 4212      47455F47 
 4212      6574496E 
 4212      74657272 
 4213              	.LASF76:
 4214 00e1 474E5520 		.ascii	"GNU C11 5.4.1 20160609 (release) [ARM/embedded-5-br"
 4214      43313120 
 4214      352E342E 
 4214      31203230 
 4214      31363036 
 4215 0114 616E6368 		.ascii	"anch revision 237715] -mcpu=cortex-m0 -mthumb -g -O"
 4215      20726576 
 4215      6973696F 
 4215      6E203233 
 4215      37373135 
 4216 0147 33202D66 		.ascii	"3 -ffunction-sections -ffat-lto-objects\000"
 4216      66756E63 
 4216      74696F6E 
 4216      2D736563 
 4216      74696F6E 
 4217              	.LASF6:
 4218 016f 6C6F6E67 		.ascii	"long long int\000"
 4218      206C6F6E 
 4218      6720696E 
 4218      7400
 4219              	.LASF0:
 4220 017d 7369676E 		.ascii	"signed char\000"
 4220      65642063 
 4220      68617200 
 4221              	.LASF19:
 4222 0189 50574D5F 		.ascii	"PWM_CHARGE_TriggerCommand\000"
 4222      43484152 
 4222      47455F54 
 4222      72696767 
 4222      6572436F 
 4223              	.LASF35:
 4224 01a3 71644D6F 		.ascii	"qdMode\000"
 4224      646500
 4225              	.LASF4:
 4226 01aa 6C6F6E67 		.ascii	"long int\000"
 4226      20696E74 
 4226      00
 4227              	.LASF72:
 4228 01b3 50574D5F 		.ascii	"PWM_CHARGE_ClearInterrupt\000"
 4228      43484152 
 4228      47455F43 
 4228      6C656172 
 4228      496E7465 
 4229              	.LASF67:
 4230 01cd 50574D5F 		.ascii	"PWM_CHARGE_SetStopMode\000"
 4230      43484152 
ARM GAS  C:\Users\ilya\AppData\Local\Temp\cc391SdI.s 			page 106


 4230      47455F53 
 4230      65745374 
 4230      6F704D6F 
 4231              	.LASF9:
 4232 01e4 75696E74 		.ascii	"uint8\000"
 4232      3800
 4233              	.LASF12:
 4234 01ea 646F7562 		.ascii	"double\000"
 4234      6C6500
 4235              	.LASF26:
 4236 01f1 50574D5F 		.ascii	"PWM_CHARGE_WriteCounter\000"
 4236      43484152 
 4236      47455F57 
 4236      72697465 
 4236      436F756E 
 4237              	.LASF10:
 4238 0209 75696E74 		.ascii	"uint32\000"
 4238      333200
 4239              	.LASF64:
 4240 0210 74726967 		.ascii	"triggerMode\000"
 4240      6765724D 
 4240      6F646500 
 4241              	.LASF17:
 4242 021c 6D61736B 		.ascii	"mask\000"
 4242      00
 4243              	.LASF47:
 4244 0221 64656164 		.ascii	"deadTime\000"
 4244      54696D65 
 4244      00
 4245              	.LASF79:
 4246 022a 50574D5F 		.ascii	"PWM_CHARGE_Init\000"
 4246      43484152 
 4246      47455F49 
 4246      6E697400 
 4247              	.LASF52:
 4248 023a 50574D5F 		.ascii	"PWM_CHARGE_ReadPeriod\000"
 4248      43484152 
 4248      47455F52 
 4248      65616450 
 4248      6572696F 
 4249              	.LASF8:
 4250 0250 756E7369 		.ascii	"unsigned int\000"
 4250      676E6564 
 4250      20696E74 
 4250      00
 4251              	.LASF57:
 4252 025d 50574D5F 		.ascii	"PWM_CHARGE_ReadPeriodBuf\000"
 4252      43484152 
 4252      47455F52 
 4252      65616450 
 4252      6572696F 
 4253              	.LASF18:
 4254 0276 636F6D6D 		.ascii	"command\000"
 4254      616E6400 
 4255              	.LASF38:
 4256 027e 50574D5F 		.ascii	"PWM_CHARGE_SetOneShot\000"
 4256      43484152 
ARM GAS  C:\Users\ilya\AppData\Local\Temp\cc391SdI.s 			page 107


 4256      47455F53 
 4256      65744F6E 
 4256      6553686F 
 4257              	.LASF22:
 4258 0294 50574D5F 		.ascii	"PWM_CHARGE_WritePeriod\000"
 4258      43484152 
 4258      47455F57 
 4258      72697465 
 4258      50657269 
 4259              	.LASF5:
 4260 02ab 6C6F6E67 		.ascii	"long unsigned int\000"
 4260      20756E73 
 4260      69676E65 
 4260      6420696E 
 4260      7400
 4261              	.LASF41:
 4262 02bd 6D6F6465 		.ascii	"modeMask\000"
 4262      4D61736B 
 4262      00
 4263              	.LASF46:
 4264 02c6 50574D5F 		.ascii	"PWM_CHARGE_SetPWMDeadTime\000"
 4264      43484152 
 4264      47455F53 
 4264      65745057 
 4264      4D446561 
 4265              	.LASF74:
 4266 02e0 4379456E 		.ascii	"CyEnterCriticalSection\000"
 4266      74657243 
 4266      72697469 
 4266      63616C53 
 4266      65637469 
 4267              	.LASF48:
 4268 02f7 50574D5F 		.ascii	"PWM_CHARGE_SetPWMInvert\000"
 4268      43484152 
 4268      47455F53 
 4268      65745057 
 4268      4D496E76 
 4269              	.LASF68:
 4270 030f 50574D5F 		.ascii	"PWM_CHARGE_SetCountMode\000"
 4270      43484152 
 4270      47455F53 
 4270      6574436F 
 4270      756E744D 
 4271              	.LASF3:
 4272 0327 73686F72 		.ascii	"short unsigned int\000"
 4272      7420756E 
 4272      7369676E 
 4272      65642069 
 4272      6E7400
 4273              	.LASF66:
 4274 033a 50574D5F 		.ascii	"PWM_CHARGE_SetStartMode\000"
 4274      43484152 
 4274      47455F53 
 4274      65745374 
 4274      6172744D 
 4275              	.LASF69:
 4276 0352 50574D5F 		.ascii	"PWM_CHARGE_ReadStatus\000"
ARM GAS  C:\Users\ilya\AppData\Local\Temp\cc391SdI.s 			page 108


 4276      43484152 
 4276      47455F52 
 4276      65616453 
 4276      74617475 
 4277              	.LASF58:
 4278 0368 50574D5F 		.ascii	"PWM_CHARGE_SetPeriodSwap\000"
 4278      43484152 
 4278      47455F53 
 4278      65745065 
 4278      72696F64 
 4279              	.LASF39:
 4280 0381 6F6E6553 		.ascii	"oneShotEnable\000"
 4280      686F7445 
 4280      6E61626C 
 4280      6500
 4281              	.LASF14:
 4282 038f 72656733 		.ascii	"reg32\000"
 4282      3200
 4283              	.LASF28:
 4284 0395 50574D5F 		.ascii	"PWM_CHARGE_Enable\000"
 4284      43484152 
 4284      47455F45 
 4284      6E61626C 
 4284      6500
 4285              	.LASF55:
 4286 03a7 50574D5F 		.ascii	"PWM_CHARGE_WritePeriodBuf\000"
 4286      43484152 
 4286      47455F57 
 4286      72697465 
 4286      50657269 
 4287              	.LASF61:
 4288 03c1 50574D5F 		.ascii	"PWM_CHARGE_ReadCapture\000"
 4288      43484152 
 4288      47455F52 
 4288      65616443 
 4288      61707475 
 4289              	.LASF16:
 4290 03d8 73697A65 		.ascii	"sizetype\000"
 4290      74797065 
 4290      00
 4291              	.LASF15:
 4292 03e1 6C6F6E67 		.ascii	"long double\000"
 4292      20646F75 
 4292      626C6500 
 4293              	.LASF80:
 4294 03ed 50574D5F 		.ascii	"PWM_CHARGE_initVar\000"
 4294      43484152 
 4294      47455F69 
 4294      6E697456 
 4294      617200
 4295              	.LASF21:
 4296 0400 636F6D70 		.ascii	"compare\000"
 4296      61726500 
 4297              	.LASF36:
 4298 0408 50574D5F 		.ascii	"PWM_CHARGE_SetPrescaler\000"
 4298      43484152 
 4298      47455F53 
ARM GAS  C:\Users\ilya\AppData\Local\Temp\cc391SdI.s 			page 109


 4298      65745072 
 4298      65736361 
 4299              	.LASF24:
 4300 0420 50574D5F 		.ascii	"PWM_CHARGE_SetInterruptMode\000"
 4300      43484152 
 4300      47455F53 
 4300      6574496E 
 4300      74657272 
 4301              	.LASF59:
 4302 043c 50574D5F 		.ascii	"PWM_CHARGE_WriteCompareBuf\000"
 4302      43484152 
 4302      47455F57 
 4302      72697465 
 4302      436F6D70 
 4303              	.LASF62:
 4304 0457 50574D5F 		.ascii	"PWM_CHARGE_ReadCaptureBuf\000"
 4304      43484152 
 4304      47455F52 
 4304      65616443 
 4304      61707475 
 4305              	.LASF65:
 4306 0471 50574D5F 		.ascii	"PWM_CHARGE_SetReloadMode\000"
 4306      43484152 
 4306      47455F53 
 4306      65745265 
 4306      6C6F6164 
 4307              	.LASF11:
 4308 048a 666C6F61 		.ascii	"float\000"
 4308      7400
 4309              	.LASF37:
 4310 0490 70726573 		.ascii	"prescaler\000"
 4310      63616C65 
 4310      7200
 4311              	.LASF1:
 4312 049a 756E7369 		.ascii	"unsigned char\000"
 4312      676E6564 
 4312      20636861 
 4312      7200
 4313              	.LASF45:
 4314 04a8 73746F70 		.ascii	"stopOnKillEnable\000"
 4314      4F6E4B69 
 4314      6C6C456E 
 4314      61626C65 
 4314      00
 4315              	.LASF2:
 4316 04b9 73686F72 		.ascii	"short int\000"
 4316      7420696E 
 4316      7400
 4317              	.LASF25:
 4318 04c3 696E7465 		.ascii	"interruptMask\000"
 4318      72727570 
 4318      744D6173 
 4318      6B00
 4319              	.LASF49:
 4320 04d1 50574D5F 		.ascii	"PWM_CHARGE_SetCounterMode\000"
 4320      43484152 
 4320      47455F53 
ARM GAS  C:\Users\ilya\AppData\Local\Temp\cc391SdI.s 			page 110


 4320      6574436F 
 4320      756E7465 
 4321              	.LASF13:
 4322 04eb 63686172 		.ascii	"char\000"
 4322      00
 4323              	.LASF34:
 4324 04f0 6D6F6465 		.ascii	"mode\000"
 4324      00
 4325              	.LASF40:
 4326 04f5 50574D5F 		.ascii	"PWM_CHARGE_SetPWMMode\000"
 4326      43484152 
 4326      47455F53 
 4326      65745057 
 4326      4D4D6F64 
 4327              	.LASF33:
 4328 050b 50574D5F 		.ascii	"PWM_CHARGE_SetQDMode\000"
 4328      43484152 
 4328      47455F53 
 4328      65745144 
 4328      4D6F6465 
 4329              	.LASF78:
 4330 0520 433A5C70 		.ascii	"C:\\psoc\\chamonix\\camera.cydsn\000"
 4330      736F635C 
 4330      6368616D 
 4330      6F6E6978 
 4330      5C63616D 
 4331              	.LASF30:
 4332 053e 50574D5F 		.ascii	"PWM_CHARGE_Start\000"
 4332      43484152 
 4332      47455F53 
 4332      74617274 
 4332      00
 4333              	.LASF50:
 4334 054f 636F756E 		.ascii	"counterMode\000"
 4334      7465724D 
 4334      6F646500 
 4335              	.LASF60:
 4336 055b 636F6D70 		.ascii	"compareBuf\000"
 4336      61726542 
 4336      756600
 4337              	.LASF63:
 4338 0566 50574D5F 		.ascii	"PWM_CHARGE_SetCaptureMode\000"
 4338      43484152 
 4338      47455F53 
 4338      65744361 
 4338      70747572 
 4339              	.LASF29:
 4340 0580 656E6162 		.ascii	"enableInterrupts\000"
 4340      6C65496E 
 4340      74657272 
 4340      75707473 
 4340      00
 4341              	.LASF77:
 4342 0591 47656E65 		.ascii	"Generated_Source\\PSoC4\\PWM_CHARGE.c\000"
 4342      72617465 
 4342      645F536F 
 4342      75726365 
ARM GAS  C:\Users\ilya\AppData\Local\Temp\cc391SdI.s 			page 111


 4342      5C50536F 
 4343              	.LASF73:
 4344 05b5 50574D5F 		.ascii	"PWM_CHARGE_SetInterrupt\000"
 4344      43484152 
 4344      47455F53 
 4344      6574496E 
 4344      74657272 
 4345              	.LASF31:
 4346 05cd 50574D5F 		.ascii	"PWM_CHARGE_Stop\000"
 4346      43484152 
 4346      47455F53 
 4346      746F7000 
 4347              	.LASF43:
 4348 05dd 73796E63 		.ascii	"syncKillEnable\000"
 4348      4B696C6C 
 4348      456E6162 
 4348      6C6500
 4349              	.LASF54:
 4350 05ec 73776170 		.ascii	"swapEnable\000"
 4350      456E6162 
 4350      6C6500
 4351              	.LASF32:
 4352 05f7 50574D5F 		.ascii	"PWM_CHARGE_SetMode\000"
 4352      43484152 
 4352      47455F53 
 4352      65744D6F 
 4352      646500
 4353              	.LASF53:
 4354 060a 50574D5F 		.ascii	"PWM_CHARGE_SetCompareSwap\000"
 4354      43484152 
 4354      47455F53 
 4354      6574436F 
 4354      6D706172 
 4355              	.LASF56:
 4356 0624 70657269 		.ascii	"periodBuf\000"
 4356      6F644275 
 4356      6600
 4357              		.ident	"GCC: (GNU Tools for ARM Embedded Processors) 5.4.1 20160609 (release) [ARM/embedded-5-bran
