ARM GAS  C:\Users\Yiquing\AppData\Local\Temp\cc40TUTJ.s 			page 1


   1              		.syntax unified
   2              		.cpu cortex-m3
   3              		.fpu softvfp
   4              		.eabi_attribute 20, 1
   5              		.eabi_attribute 21, 1
   6              		.eabi_attribute 23, 3
   7              		.eabi_attribute 24, 1
   8              		.eabi_attribute 25, 1
   9              		.eabi_attribute 26, 1
  10              		.eabi_attribute 30, 4
  11              		.eabi_attribute 34, 1
  12              		.eabi_attribute 18, 4
  13              		.thumb
  14              		.file	"cyfitter_cfg.c"
  15              		.text
  16              	.Ltext0:
  17              		.cfi_sections	.debug_frame
  18              		.section	.text.SetAnalogRoutingPumps,"ax",%progbits
  19              		.align	1
  20              		.global	SetAnalogRoutingPumps
  21              		.thumb
  22              		.thumb_func
  23              		.type	SetAnalogRoutingPumps, %function
  24              	SetAnalogRoutingPumps:
  25              	.LFB7:
  26              		.file 1 ".\\Generated_Source\\PSoC5\\cyfitter_cfg.c"
   1:.\Generated_Source\PSoC5/cyfitter_cfg.c **** /*******************************************************************************
   2:.\Generated_Source\PSoC5/cyfitter_cfg.c **** * FILENAME: cyfitter_cfg.c
   3:.\Generated_Source\PSoC5/cyfitter_cfg.c **** * 
   4:.\Generated_Source\PSoC5/cyfitter_cfg.c **** * PSoC Creator  3.2 SP1
   5:.\Generated_Source\PSoC5/cyfitter_cfg.c **** *
   6:.\Generated_Source\PSoC5/cyfitter_cfg.c **** * DESCRIPTION:
   7:.\Generated_Source\PSoC5/cyfitter_cfg.c **** * This file contains device initialization code.
   8:.\Generated_Source\PSoC5/cyfitter_cfg.c **** * Except for the user defined sections in CyClockStartupError(), this file should not be modified.
   9:.\Generated_Source\PSoC5/cyfitter_cfg.c **** * This file is automatically generated by PSoC Creator.
  10:.\Generated_Source\PSoC5/cyfitter_cfg.c **** *
  11:.\Generated_Source\PSoC5/cyfitter_cfg.c **** ********************************************************************************
  12:.\Generated_Source\PSoC5/cyfitter_cfg.c **** * Copyright (c) 2007-2015 Cypress Semiconductor.  All rights reserved.
  13:.\Generated_Source\PSoC5/cyfitter_cfg.c **** * You may use this file only in accordance with the license, terms, conditions, 
  14:.\Generated_Source\PSoC5/cyfitter_cfg.c **** * disclaimers, and limitations in the end user license agreement accompanying 
  15:.\Generated_Source\PSoC5/cyfitter_cfg.c **** * the software package with which this file was provided.
  16:.\Generated_Source\PSoC5/cyfitter_cfg.c **** ********************************************************************************/
  17:.\Generated_Source\PSoC5/cyfitter_cfg.c **** 
  18:.\Generated_Source\PSoC5/cyfitter_cfg.c **** #include <string.h>
  19:.\Generated_Source\PSoC5/cyfitter_cfg.c **** #include "cytypes.h"
  20:.\Generated_Source\PSoC5/cyfitter_cfg.c **** #include "cydevice_trm.h"
  21:.\Generated_Source\PSoC5/cyfitter_cfg.c **** #include "cyfitter.h"
  22:.\Generated_Source\PSoC5/cyfitter_cfg.c **** #include "CyLib.h"
  23:.\Generated_Source\PSoC5/cyfitter_cfg.c **** #include "cyfitter_cfg.h"
  24:.\Generated_Source\PSoC5/cyfitter_cfg.c **** 
  25:.\Generated_Source\PSoC5/cyfitter_cfg.c **** #define CY_NEED_CYCLOCKSTARTUPERROR 1
  26:.\Generated_Source\PSoC5/cyfitter_cfg.c **** 
  27:.\Generated_Source\PSoC5/cyfitter_cfg.c **** 
  28:.\Generated_Source\PSoC5/cyfitter_cfg.c **** #if defined(__GNUC__) || defined(__ARMCC_VERSION)
  29:.\Generated_Source\PSoC5/cyfitter_cfg.c ****     #define CYPACKED 
  30:.\Generated_Source\PSoC5/cyfitter_cfg.c ****     #define CYPACKED_ATTR __attribute__ ((packed))
  31:.\Generated_Source\PSoC5/cyfitter_cfg.c ****     #define CYALIGNED __attribute__ ((aligned))
ARM GAS  C:\Users\Yiquing\AppData\Local\Temp\cc40TUTJ.s 			page 2


  32:.\Generated_Source\PSoC5/cyfitter_cfg.c ****     #define CY_CFG_UNUSED __attribute__ ((unused))
  33:.\Generated_Source\PSoC5/cyfitter_cfg.c ****     #define CY_CFG_SECTION __attribute__ ((section(".psocinit")))
  34:.\Generated_Source\PSoC5/cyfitter_cfg.c ****     
  35:.\Generated_Source\PSoC5/cyfitter_cfg.c ****     #if defined(__ARMCC_VERSION)
  36:.\Generated_Source\PSoC5/cyfitter_cfg.c ****         #define CY_CFG_MEMORY_BARRIER() __memory_changed()
  37:.\Generated_Source\PSoC5/cyfitter_cfg.c ****     #else
  38:.\Generated_Source\PSoC5/cyfitter_cfg.c ****         #define CY_CFG_MEMORY_BARRIER() __sync_synchronize()
  39:.\Generated_Source\PSoC5/cyfitter_cfg.c ****     #endif
  40:.\Generated_Source\PSoC5/cyfitter_cfg.c ****     
  41:.\Generated_Source\PSoC5/cyfitter_cfg.c **** #elif defined(__ICCARM__)
  42:.\Generated_Source\PSoC5/cyfitter_cfg.c ****     #include <intrinsics.h>
  43:.\Generated_Source\PSoC5/cyfitter_cfg.c **** 
  44:.\Generated_Source\PSoC5/cyfitter_cfg.c ****     #define CYPACKED __packed
  45:.\Generated_Source\PSoC5/cyfitter_cfg.c ****     #define CYPACKED_ATTR 
  46:.\Generated_Source\PSoC5/cyfitter_cfg.c ****     #define CYALIGNED _Pragma("data_alignment=4")
  47:.\Generated_Source\PSoC5/cyfitter_cfg.c ****     #define CY_CFG_UNUSED _Pragma("diag_suppress=Pe177")
  48:.\Generated_Source\PSoC5/cyfitter_cfg.c ****     #define CY_CFG_SECTION _Pragma("location=\".psocinit\"")
  49:.\Generated_Source\PSoC5/cyfitter_cfg.c ****     
  50:.\Generated_Source\PSoC5/cyfitter_cfg.c ****     #define CY_CFG_MEMORY_BARRIER() __DMB()
  51:.\Generated_Source\PSoC5/cyfitter_cfg.c ****     
  52:.\Generated_Source\PSoC5/cyfitter_cfg.c **** #else
  53:.\Generated_Source\PSoC5/cyfitter_cfg.c ****     #error Unsupported toolchain
  54:.\Generated_Source\PSoC5/cyfitter_cfg.c **** #endif
  55:.\Generated_Source\PSoC5/cyfitter_cfg.c **** 
  56:.\Generated_Source\PSoC5/cyfitter_cfg.c **** #if defined(__ARMCC_VERSION)
  57:.\Generated_Source\PSoC5/cyfitter_cfg.c ****     extern unsigned int Load$$LR$$CYCONFIGECC$$Base;
  58:.\Generated_Source\PSoC5/cyfitter_cfg.c ****     #pragma diag_suppress 170,1296
  59:.\Generated_Source\PSoC5/cyfitter_cfg.c ****     #define CYDEV_ECC_VIRT_BASE 0x80000000
  60:.\Generated_Source\PSoC5/cyfitter_cfg.c ****     #define CYAPP_ECC_OFFSET ((uint32)&Load$$LR$$CYCONFIGECC$$Base - CYDEV_ECC_VIRT_BASE)
  61:.\Generated_Source\PSoC5/cyfitter_cfg.c **** #elif defined (__GNUC__) || defined (__ICCARM__)
  62:.\Generated_Source\PSoC5/cyfitter_cfg.c ****     extern int CY_ECC_OFFSET;
  63:.\Generated_Source\PSoC5/cyfitter_cfg.c ****     #define CYAPP_ECC_OFFSET ((uint32)&CY_ECC_OFFSET)
  64:.\Generated_Source\PSoC5/cyfitter_cfg.c **** #endif
  65:.\Generated_Source\PSoC5/cyfitter_cfg.c **** 
  66:.\Generated_Source\PSoC5/cyfitter_cfg.c **** CY_CFG_UNUSED
  67:.\Generated_Source\PSoC5/cyfitter_cfg.c **** static void CYMEMZERO(void *s, size_t n);
  68:.\Generated_Source\PSoC5/cyfitter_cfg.c **** CY_CFG_UNUSED
  69:.\Generated_Source\PSoC5/cyfitter_cfg.c **** static void CYMEMZERO(void *s, size_t n)
  70:.\Generated_Source\PSoC5/cyfitter_cfg.c **** {
  71:.\Generated_Source\PSoC5/cyfitter_cfg.c **** 	(void)memset(s, 0, n);
  72:.\Generated_Source\PSoC5/cyfitter_cfg.c **** }
  73:.\Generated_Source\PSoC5/cyfitter_cfg.c **** CY_CFG_UNUSED
  74:.\Generated_Source\PSoC5/cyfitter_cfg.c **** static void CYCONFIGCPY(void *dest, const void *src, size_t n);
  75:.\Generated_Source\PSoC5/cyfitter_cfg.c **** CY_CFG_UNUSED
  76:.\Generated_Source\PSoC5/cyfitter_cfg.c **** static void CYCONFIGCPY(void *dest, const void *src, size_t n)
  77:.\Generated_Source\PSoC5/cyfitter_cfg.c **** {
  78:.\Generated_Source\PSoC5/cyfitter_cfg.c **** 	(void)memcpy(dest, src, n);
  79:.\Generated_Source\PSoC5/cyfitter_cfg.c **** }
  80:.\Generated_Source\PSoC5/cyfitter_cfg.c **** CY_CFG_UNUSED
  81:.\Generated_Source\PSoC5/cyfitter_cfg.c **** static void CYCONFIGCPYCODE(void *dest, const void *src, size_t n);
  82:.\Generated_Source\PSoC5/cyfitter_cfg.c **** CY_CFG_UNUSED
  83:.\Generated_Source\PSoC5/cyfitter_cfg.c **** static void CYCONFIGCPYCODE(void *dest, const void *src, size_t n)
  84:.\Generated_Source\PSoC5/cyfitter_cfg.c **** {
  85:.\Generated_Source\PSoC5/cyfitter_cfg.c **** 	(void)memcpy(dest, src, n);
  86:.\Generated_Source\PSoC5/cyfitter_cfg.c **** }
  87:.\Generated_Source\PSoC5/cyfitter_cfg.c **** 
  88:.\Generated_Source\PSoC5/cyfitter_cfg.c **** 
ARM GAS  C:\Users\Yiquing\AppData\Local\Temp\cc40TUTJ.s 			page 3


  89:.\Generated_Source\PSoC5/cyfitter_cfg.c **** 
  90:.\Generated_Source\PSoC5/cyfitter_cfg.c **** /* Clock startup error codes                                                   */
  91:.\Generated_Source\PSoC5/cyfitter_cfg.c **** #define CYCLOCKSTART_NO_ERROR    0u
  92:.\Generated_Source\PSoC5/cyfitter_cfg.c **** #define CYCLOCKSTART_XTAL_ERROR  1u
  93:.\Generated_Source\PSoC5/cyfitter_cfg.c **** #define CYCLOCKSTART_32KHZ_ERROR 2u
  94:.\Generated_Source\PSoC5/cyfitter_cfg.c **** #define CYCLOCKSTART_PLL_ERROR   3u
  95:.\Generated_Source\PSoC5/cyfitter_cfg.c **** 
  96:.\Generated_Source\PSoC5/cyfitter_cfg.c **** #ifdef CY_NEED_CYCLOCKSTARTUPERROR
  97:.\Generated_Source\PSoC5/cyfitter_cfg.c **** /*******************************************************************************
  98:.\Generated_Source\PSoC5/cyfitter_cfg.c **** * Function Name: CyClockStartupError
  99:.\Generated_Source\PSoC5/cyfitter_cfg.c **** ********************************************************************************
 100:.\Generated_Source\PSoC5/cyfitter_cfg.c **** * Summary:
 101:.\Generated_Source\PSoC5/cyfitter_cfg.c **** *  If an error is encountered during clock configuration (crystal startup error,
 102:.\Generated_Source\PSoC5/cyfitter_cfg.c **** *  PLL lock error, etc.), the system will end up here.  Unless reimplemented by
 103:.\Generated_Source\PSoC5/cyfitter_cfg.c **** *  the customer, this function will stop in an infinite loop.
 104:.\Generated_Source\PSoC5/cyfitter_cfg.c **** *
 105:.\Generated_Source\PSoC5/cyfitter_cfg.c **** * Parameters:
 106:.\Generated_Source\PSoC5/cyfitter_cfg.c **** *   void
 107:.\Generated_Source\PSoC5/cyfitter_cfg.c **** *
 108:.\Generated_Source\PSoC5/cyfitter_cfg.c **** * Return:
 109:.\Generated_Source\PSoC5/cyfitter_cfg.c **** *   void
 110:.\Generated_Source\PSoC5/cyfitter_cfg.c **** *
 111:.\Generated_Source\PSoC5/cyfitter_cfg.c **** *******************************************************************************/
 112:.\Generated_Source\PSoC5/cyfitter_cfg.c **** CY_CFG_UNUSED
 113:.\Generated_Source\PSoC5/cyfitter_cfg.c **** static void CyClockStartupError(uint8 errorCode);
 114:.\Generated_Source\PSoC5/cyfitter_cfg.c **** CY_CFG_UNUSED
 115:.\Generated_Source\PSoC5/cyfitter_cfg.c **** static void CyClockStartupError(uint8 errorCode)
 116:.\Generated_Source\PSoC5/cyfitter_cfg.c **** {
 117:.\Generated_Source\PSoC5/cyfitter_cfg.c ****     /* To remove the compiler warning if errorCode not used.                */
 118:.\Generated_Source\PSoC5/cyfitter_cfg.c ****     errorCode = errorCode;
 119:.\Generated_Source\PSoC5/cyfitter_cfg.c **** 
 120:.\Generated_Source\PSoC5/cyfitter_cfg.c ****     /* `#START CyClockStartupError` */
 121:.\Generated_Source\PSoC5/cyfitter_cfg.c **** 
 122:.\Generated_Source\PSoC5/cyfitter_cfg.c ****     /* If we have a clock startup error (bad MHz crystal, PLL lock, etc.),  */
 123:.\Generated_Source\PSoC5/cyfitter_cfg.c ****     /* we will end up here to allow the customer to implement something to  */
 124:.\Generated_Source\PSoC5/cyfitter_cfg.c ****     /* deal with the clock condition.                                       */
 125:.\Generated_Source\PSoC5/cyfitter_cfg.c **** 
 126:.\Generated_Source\PSoC5/cyfitter_cfg.c ****     /* `#END` */
 127:.\Generated_Source\PSoC5/cyfitter_cfg.c **** 
 128:.\Generated_Source\PSoC5/cyfitter_cfg.c ****     /* If nothing else, stop here since the clocks have not started         */
 129:.\Generated_Source\PSoC5/cyfitter_cfg.c ****     /* correctly.                                                           */
 130:.\Generated_Source\PSoC5/cyfitter_cfg.c ****     while(1) {}
 131:.\Generated_Source\PSoC5/cyfitter_cfg.c **** }
 132:.\Generated_Source\PSoC5/cyfitter_cfg.c **** #endif
 133:.\Generated_Source\PSoC5/cyfitter_cfg.c **** 
 134:.\Generated_Source\PSoC5/cyfitter_cfg.c **** #define CY_CFG_BASE_ADDR_COUNT 39u
 135:.\Generated_Source\PSoC5/cyfitter_cfg.c **** CYPACKED typedef struct
 136:.\Generated_Source\PSoC5/cyfitter_cfg.c **** {
 137:.\Generated_Source\PSoC5/cyfitter_cfg.c **** 	uint8 offset;
 138:.\Generated_Source\PSoC5/cyfitter_cfg.c **** 	uint8 value;
 139:.\Generated_Source\PSoC5/cyfitter_cfg.c **** } CYPACKED_ATTR cy_cfg_addrvalue_t;
 140:.\Generated_Source\PSoC5/cyfitter_cfg.c **** 
 141:.\Generated_Source\PSoC5/cyfitter_cfg.c **** #define cy_cfg_addr_table ((const uint32 CYFAR *)(0x48000000u + CYAPP_ECC_OFFSET))
 142:.\Generated_Source\PSoC5/cyfitter_cfg.c **** #define cy_cfg_data_table ((const cy_cfg_addrvalue_t CYFAR *)(0x4800009Cu + CYAPP_ECC_OFFSET))
 143:.\Generated_Source\PSoC5/cyfitter_cfg.c **** 
 144:.\Generated_Source\PSoC5/cyfitter_cfg.c **** /* UDB_1_3_0_CONFIG Address: CYDEV_UCFG_B0_P2_U0_BASE Size (bytes): 128 */
 145:.\Generated_Source\PSoC5/cyfitter_cfg.c **** #define BS_UDB_1_3_0_CONFIG_VAL ((const uint8 CYFAR *)(0x48000D70u + CYAPP_ECC_OFFSET))
ARM GAS  C:\Users\Yiquing\AppData\Local\Temp\cc40TUTJ.s 			page 4


 146:.\Generated_Source\PSoC5/cyfitter_cfg.c **** 
 147:.\Generated_Source\PSoC5/cyfitter_cfg.c **** /* UDB_1_2_0_CONFIG Address: CYDEV_UCFG_B0_P3_U1_BASE Size (bytes): 128 */
 148:.\Generated_Source\PSoC5/cyfitter_cfg.c **** #define BS_UDB_1_2_0_CONFIG_VAL ((const uint8 CYFAR *)(0x48000DF0u + CYAPP_ECC_OFFSET))
 149:.\Generated_Source\PSoC5/cyfitter_cfg.c **** 
 150:.\Generated_Source\PSoC5/cyfitter_cfg.c **** /* UCFG_BCTL0 Address: CYREG_BCTL0_MDCLK_EN Size (bytes): 16 */
 151:.\Generated_Source\PSoC5/cyfitter_cfg.c **** #define BS_UCFG_BCTL0_VAL ((const uint8 CYFAR *)(0x48000E70u + CYAPP_ECC_OFFSET))
 152:.\Generated_Source\PSoC5/cyfitter_cfg.c **** 
 153:.\Generated_Source\PSoC5/cyfitter_cfg.c **** /* IOPINS0_0 Address: CYREG_PRT0_DR Size (bytes): 10 */
 154:.\Generated_Source\PSoC5/cyfitter_cfg.c **** #define BS_IOPINS0_0_VAL ((const uint8 CYFAR *)(0x48000E80u + CYAPP_ECC_OFFSET))
 155:.\Generated_Source\PSoC5/cyfitter_cfg.c **** 
 156:.\Generated_Source\PSoC5/cyfitter_cfg.c **** /* IOPINS0_7 Address: CYREG_PRT12_DR Size (bytes): 10 */
 157:.\Generated_Source\PSoC5/cyfitter_cfg.c **** #define BS_IOPINS0_7_VAL ((const uint8 CYFAR *)(0x48000E8Cu + CYAPP_ECC_OFFSET))
 158:.\Generated_Source\PSoC5/cyfitter_cfg.c **** 
 159:.\Generated_Source\PSoC5/cyfitter_cfg.c **** /* IOPINS0_8 Address: CYREG_PRT15_DR Size (bytes): 10 */
 160:.\Generated_Source\PSoC5/cyfitter_cfg.c **** #define BS_IOPINS0_8_VAL ((const uint8 CYFAR *)(0x48000E98u + CYAPP_ECC_OFFSET))
 161:.\Generated_Source\PSoC5/cyfitter_cfg.c **** 
 162:.\Generated_Source\PSoC5/cyfitter_cfg.c **** /* IOPINS0_1 Address: CYREG_PRT1_DR Size (bytes): 10 */
 163:.\Generated_Source\PSoC5/cyfitter_cfg.c **** #define BS_IOPINS0_1_VAL ((const uint8 CYFAR *)(0x48000EA4u + CYAPP_ECC_OFFSET))
 164:.\Generated_Source\PSoC5/cyfitter_cfg.c **** 
 165:.\Generated_Source\PSoC5/cyfitter_cfg.c **** /* IOPINS0_2 Address: CYREG_PRT2_DR Size (bytes): 10 */
 166:.\Generated_Source\PSoC5/cyfitter_cfg.c **** #define BS_IOPINS0_2_VAL ((const uint8 CYFAR *)(0x48000EB0u + CYAPP_ECC_OFFSET))
 167:.\Generated_Source\PSoC5/cyfitter_cfg.c **** 
 168:.\Generated_Source\PSoC5/cyfitter_cfg.c **** /* IOPINS0_3 Address: CYREG_PRT3_DR Size (bytes): 10 */
 169:.\Generated_Source\PSoC5/cyfitter_cfg.c **** #define BS_IOPINS0_3_VAL ((const uint8 CYFAR *)(0x48000EBCu + CYAPP_ECC_OFFSET))
 170:.\Generated_Source\PSoC5/cyfitter_cfg.c **** 
 171:.\Generated_Source\PSoC5/cyfitter_cfg.c **** 
 172:.\Generated_Source\PSoC5/cyfitter_cfg.c **** /*******************************************************************************
 173:.\Generated_Source\PSoC5/cyfitter_cfg.c **** * Function Name: cfg_write_bytes32
 174:.\Generated_Source\PSoC5/cyfitter_cfg.c **** ********************************************************************************
 175:.\Generated_Source\PSoC5/cyfitter_cfg.c **** * Summary:
 176:.\Generated_Source\PSoC5/cyfitter_cfg.c **** *  This function is used for setting up the chip configuration areas that
 177:.\Generated_Source\PSoC5/cyfitter_cfg.c **** *  contain relatively sparse data.
 178:.\Generated_Source\PSoC5/cyfitter_cfg.c **** *
 179:.\Generated_Source\PSoC5/cyfitter_cfg.c **** * Parameters:
 180:.\Generated_Source\PSoC5/cyfitter_cfg.c **** *   void
 181:.\Generated_Source\PSoC5/cyfitter_cfg.c **** *
 182:.\Generated_Source\PSoC5/cyfitter_cfg.c **** * Return:
 183:.\Generated_Source\PSoC5/cyfitter_cfg.c **** *   void
 184:.\Generated_Source\PSoC5/cyfitter_cfg.c **** *
 185:.\Generated_Source\PSoC5/cyfitter_cfg.c **** *******************************************************************************/
 186:.\Generated_Source\PSoC5/cyfitter_cfg.c **** static void cfg_write_bytes32(const uint32 addr_table[], const cy_cfg_addrvalue_t data_table[]);
 187:.\Generated_Source\PSoC5/cyfitter_cfg.c **** static void cfg_write_bytes32(const uint32 addr_table[], const cy_cfg_addrvalue_t data_table[])
 188:.\Generated_Source\PSoC5/cyfitter_cfg.c **** {
 189:.\Generated_Source\PSoC5/cyfitter_cfg.c **** 	/* For 32-bit little-endian architectures */
 190:.\Generated_Source\PSoC5/cyfitter_cfg.c **** 	uint32 i, j = 0u;
 191:.\Generated_Source\PSoC5/cyfitter_cfg.c **** 	for (i = 0u; i < CY_CFG_BASE_ADDR_COUNT; i++)
 192:.\Generated_Source\PSoC5/cyfitter_cfg.c **** 	{
 193:.\Generated_Source\PSoC5/cyfitter_cfg.c **** 		uint32 baseAddr = addr_table[i];
 194:.\Generated_Source\PSoC5/cyfitter_cfg.c **** 		uint8 count = (uint8)baseAddr;
 195:.\Generated_Source\PSoC5/cyfitter_cfg.c **** 		baseAddr &= 0xFFFFFF00u;
 196:.\Generated_Source\PSoC5/cyfitter_cfg.c **** 		while (count != 0u)
 197:.\Generated_Source\PSoC5/cyfitter_cfg.c **** 		{
 198:.\Generated_Source\PSoC5/cyfitter_cfg.c **** 			CY_SET_XTND_REG8((void CYFAR *)(baseAddr + data_table[j].offset), data_table[j].value);
 199:.\Generated_Source\PSoC5/cyfitter_cfg.c **** 			j++;
 200:.\Generated_Source\PSoC5/cyfitter_cfg.c **** 			count--;
 201:.\Generated_Source\PSoC5/cyfitter_cfg.c **** 		}
 202:.\Generated_Source\PSoC5/cyfitter_cfg.c **** 	}
ARM GAS  C:\Users\Yiquing\AppData\Local\Temp\cc40TUTJ.s 			page 5


 203:.\Generated_Source\PSoC5/cyfitter_cfg.c **** }
 204:.\Generated_Source\PSoC5/cyfitter_cfg.c **** 
 205:.\Generated_Source\PSoC5/cyfitter_cfg.c **** /*******************************************************************************
 206:.\Generated_Source\PSoC5/cyfitter_cfg.c **** * Function Name: ClockSetup
 207:.\Generated_Source\PSoC5/cyfitter_cfg.c **** ********************************************************************************
 208:.\Generated_Source\PSoC5/cyfitter_cfg.c **** *
 209:.\Generated_Source\PSoC5/cyfitter_cfg.c **** * Summary:
 210:.\Generated_Source\PSoC5/cyfitter_cfg.c **** *  Performs the initialization of all of the clocks in the device based on the
 211:.\Generated_Source\PSoC5/cyfitter_cfg.c **** *  settings in the Clock tab of the DWR.  This includes enabling the requested
 212:.\Generated_Source\PSoC5/cyfitter_cfg.c **** *  clocks and setting the necessary dividers to produce the desired frequency. 
 213:.\Generated_Source\PSoC5/cyfitter_cfg.c **** *
 214:.\Generated_Source\PSoC5/cyfitter_cfg.c **** * Parameters:
 215:.\Generated_Source\PSoC5/cyfitter_cfg.c **** *  void
 216:.\Generated_Source\PSoC5/cyfitter_cfg.c **** *
 217:.\Generated_Source\PSoC5/cyfitter_cfg.c **** * Return:
 218:.\Generated_Source\PSoC5/cyfitter_cfg.c **** *  void
 219:.\Generated_Source\PSoC5/cyfitter_cfg.c **** *
 220:.\Generated_Source\PSoC5/cyfitter_cfg.c **** *******************************************************************************/
 221:.\Generated_Source\PSoC5/cyfitter_cfg.c **** static void ClockSetup(void);
 222:.\Generated_Source\PSoC5/cyfitter_cfg.c **** static void ClockSetup(void)
 223:.\Generated_Source\PSoC5/cyfitter_cfg.c **** {
 224:.\Generated_Source\PSoC5/cyfitter_cfg.c **** 	uint32 timeout;
 225:.\Generated_Source\PSoC5/cyfitter_cfg.c **** 	uint8 pllLock;
 226:.\Generated_Source\PSoC5/cyfitter_cfg.c **** 
 227:.\Generated_Source\PSoC5/cyfitter_cfg.c **** 
 228:.\Generated_Source\PSoC5/cyfitter_cfg.c **** 	/* Configure Digital Clocks based on settings from Clock DWR */
 229:.\Generated_Source\PSoC5/cyfitter_cfg.c **** 	CY_SET_XTND_REG16((void CYFAR *)(CYREG_CLKDIST_DCFG0_CFG0), 0x0001u);
 230:.\Generated_Source\PSoC5/cyfitter_cfg.c **** 	CY_SET_XTND_REG8((void CYFAR *)(CYREG_CLKDIST_DCFG0_CFG0 + 0x2u), 0x19u);
 231:.\Generated_Source\PSoC5/cyfitter_cfg.c **** 	CY_SET_XTND_REG16((void CYFAR *)(CYREG_CLKDIST_DCFG1_CFG0), 0x005Fu);
 232:.\Generated_Source\PSoC5/cyfitter_cfg.c **** 	CY_SET_XTND_REG8((void CYFAR *)(CYREG_CLKDIST_DCFG1_CFG0 + 0x2u), 0x19u);
 233:.\Generated_Source\PSoC5/cyfitter_cfg.c **** 	CY_SET_XTND_REG16((void CYFAR *)(CYREG_CLKDIST_DCFG2_CFG0), 0x0067u);
 234:.\Generated_Source\PSoC5/cyfitter_cfg.c **** 	CY_SET_XTND_REG8((void CYFAR *)(CYREG_CLKDIST_DCFG2_CFG0 + 0x2u), 0x19u);
 235:.\Generated_Source\PSoC5/cyfitter_cfg.c **** 	CY_SET_XTND_REG16((void CYFAR *)(CYREG_CLKDIST_DCFG3_CFG0), 0x0067u);
 236:.\Generated_Source\PSoC5/cyfitter_cfg.c **** 	CY_SET_XTND_REG8((void CYFAR *)(CYREG_CLKDIST_DCFG3_CFG0 + 0x2u), 0x19u);
 237:.\Generated_Source\PSoC5/cyfitter_cfg.c **** 	CY_SET_XTND_REG16((void CYFAR *)(CYREG_CLKDIST_DCFG4_CFG0), 0x01DFu);
 238:.\Generated_Source\PSoC5/cyfitter_cfg.c **** 	CY_SET_XTND_REG8((void CYFAR *)(CYREG_CLKDIST_DCFG4_CFG0 + 0x2u), 0x19u);
 239:.\Generated_Source\PSoC5/cyfitter_cfg.c **** 	CY_SET_XTND_REG16((void CYFAR *)(CYREG_CLKDIST_DCFG5_CFG0), 0x04E1u);
 240:.\Generated_Source\PSoC5/cyfitter_cfg.c **** 	CY_SET_XTND_REG8((void CYFAR *)(CYREG_CLKDIST_DCFG5_CFG0 + 0x2u), 0x19u);
 241:.\Generated_Source\PSoC5/cyfitter_cfg.c **** 	CY_SET_XTND_REG16((void CYFAR *)(CYREG_CLKDIST_DCFG6_CFG0), 0x0149u);
 242:.\Generated_Source\PSoC5/cyfitter_cfg.c **** 	CY_SET_XTND_REG8((void CYFAR *)(CYREG_CLKDIST_DCFG6_CFG0 + 0x2u), 0x1Bu);
 243:.\Generated_Source\PSoC5/cyfitter_cfg.c **** 
 244:.\Generated_Source\PSoC5/cyfitter_cfg.c **** 	/* Configure ILO based on settings from Clock DWR */
 245:.\Generated_Source\PSoC5/cyfitter_cfg.c **** 	CY_SET_XTND_REG8((void CYFAR *)(CYREG_SLOWCLK_ILO_CR0), 0x26u);
 246:.\Generated_Source\PSoC5/cyfitter_cfg.c **** 	CY_SET_XTND_REG8((void CYFAR *)(CYREG_CLKDIST_CR), 0x04u);
 247:.\Generated_Source\PSoC5/cyfitter_cfg.c **** 
 248:.\Generated_Source\PSoC5/cyfitter_cfg.c **** 	/* Configure IMO based on settings from Clock DWR */
 249:.\Generated_Source\PSoC5/cyfitter_cfg.c **** 	CY_SET_XTND_REG8((void CYFAR *)(CYREG_FASTCLK_IMO_CR), 0x04u);
 250:.\Generated_Source\PSoC5/cyfitter_cfg.c **** 	CY_SET_XTND_REG8((void CYFAR *)(CYREG_IMO_TR1), (CY_GET_XTND_REG8((void CYFAR *)(CYREG_FLSHID_MFG_
 251:.\Generated_Source\PSoC5/cyfitter_cfg.c **** 
 252:.\Generated_Source\PSoC5/cyfitter_cfg.c **** 	/* Configure PLL based on settings from Clock DWR */
 253:.\Generated_Source\PSoC5/cyfitter_cfg.c **** 	CY_SET_XTND_REG16((void CYFAR *)(CYREG_FASTCLK_PLL_P), 0x0F10u);
 254:.\Generated_Source\PSoC5/cyfitter_cfg.c **** 	CY_SET_XTND_REG16((void CYFAR *)(CYREG_FASTCLK_PLL_CFG0), 0x1251u);
 255:.\Generated_Source\PSoC5/cyfitter_cfg.c **** 	/* Wait up to 250us for the PLL to lock */
 256:.\Generated_Source\PSoC5/cyfitter_cfg.c **** 	pllLock = 0u;
 257:.\Generated_Source\PSoC5/cyfitter_cfg.c **** 	for (timeout = 250u / 10u; (timeout > 0u) && (pllLock != 0x03u); timeout--)
 258:.\Generated_Source\PSoC5/cyfitter_cfg.c **** 	{ 
 259:.\Generated_Source\PSoC5/cyfitter_cfg.c **** 		pllLock = 0x03u & ((uint8)((uint8)pllLock << 1) | ((CY_GET_XTND_REG8((void CYFAR *)CYREG_FASTCLK_
ARM GAS  C:\Users\Yiquing\AppData\Local\Temp\cc40TUTJ.s 			page 6


 260:.\Generated_Source\PSoC5/cyfitter_cfg.c **** 		CyDelayCycles(10u * 48u); /* Delay 10us based on 48MHz clock */
 261:.\Generated_Source\PSoC5/cyfitter_cfg.c **** 	}
 262:.\Generated_Source\PSoC5/cyfitter_cfg.c **** 	/* If we ran out of time the PLL didn't lock so go to the error function */
 263:.\Generated_Source\PSoC5/cyfitter_cfg.c **** 	if (timeout == 0u)
 264:.\Generated_Source\PSoC5/cyfitter_cfg.c **** 	{
 265:.\Generated_Source\PSoC5/cyfitter_cfg.c **** 		CyClockStartupError(CYCLOCKSTART_PLL_ERROR);
 266:.\Generated_Source\PSoC5/cyfitter_cfg.c **** 	}
 267:.\Generated_Source\PSoC5/cyfitter_cfg.c **** 
 268:.\Generated_Source\PSoC5/cyfitter_cfg.c **** 	/* Configure Bus/Master Clock based on settings from Clock DWR */
 269:.\Generated_Source\PSoC5/cyfitter_cfg.c **** 	CY_SET_XTND_REG16((void CYFAR *)(CYREG_CLKDIST_MSTR0), 0x0100u);
 270:.\Generated_Source\PSoC5/cyfitter_cfg.c **** 	CY_SET_XTND_REG8((void CYFAR *)(CYREG_CLKDIST_MSTR0), 0x07u);
 271:.\Generated_Source\PSoC5/cyfitter_cfg.c **** 	CY_SET_XTND_REG8((void CYFAR *)(CYREG_CLKDIST_BCFG0), 0x00u);
 272:.\Generated_Source\PSoC5/cyfitter_cfg.c **** 	CY_SET_XTND_REG8((void CYFAR *)(CYREG_CLKDIST_BCFG2), 0x48u);
 273:.\Generated_Source\PSoC5/cyfitter_cfg.c **** 	CY_SET_XTND_REG8((void CYFAR *)(CYREG_CLKDIST_MSTR0), 0x00u);
 274:.\Generated_Source\PSoC5/cyfitter_cfg.c **** 	CY_SET_XTND_REG8((void CYFAR *)(CYREG_CLKDIST_LD), 0x02u);
 275:.\Generated_Source\PSoC5/cyfitter_cfg.c **** 
 276:.\Generated_Source\PSoC5/cyfitter_cfg.c **** 	CY_SET_XTND_REG8((void CYFAR *)(CYREG_PM_ACT_CFG2), ((CY_GET_XTND_REG8((void CYFAR *)CYREG_PM_ACT_
 277:.\Generated_Source\PSoC5/cyfitter_cfg.c **** }
 278:.\Generated_Source\PSoC5/cyfitter_cfg.c **** 
 279:.\Generated_Source\PSoC5/cyfitter_cfg.c **** 
 280:.\Generated_Source\PSoC5/cyfitter_cfg.c **** /* Analog API Functions */
 281:.\Generated_Source\PSoC5/cyfitter_cfg.c **** 
 282:.\Generated_Source\PSoC5/cyfitter_cfg.c **** 
 283:.\Generated_Source\PSoC5/cyfitter_cfg.c **** /*******************************************************************************
 284:.\Generated_Source\PSoC5/cyfitter_cfg.c **** * Function Name: AnalogSetDefault
 285:.\Generated_Source\PSoC5/cyfitter_cfg.c **** ********************************************************************************
 286:.\Generated_Source\PSoC5/cyfitter_cfg.c **** *
 287:.\Generated_Source\PSoC5/cyfitter_cfg.c **** * Summary:
 288:.\Generated_Source\PSoC5/cyfitter_cfg.c **** *  Sets up the analog portions of the chip to default values based on chip
 289:.\Generated_Source\PSoC5/cyfitter_cfg.c **** *  configuration options from the project.
 290:.\Generated_Source\PSoC5/cyfitter_cfg.c **** *
 291:.\Generated_Source\PSoC5/cyfitter_cfg.c **** * Parameters:
 292:.\Generated_Source\PSoC5/cyfitter_cfg.c **** *  void
 293:.\Generated_Source\PSoC5/cyfitter_cfg.c **** *
 294:.\Generated_Source\PSoC5/cyfitter_cfg.c **** * Return:
 295:.\Generated_Source\PSoC5/cyfitter_cfg.c **** *  void
 296:.\Generated_Source\PSoC5/cyfitter_cfg.c **** *
 297:.\Generated_Source\PSoC5/cyfitter_cfg.c **** *******************************************************************************/
 298:.\Generated_Source\PSoC5/cyfitter_cfg.c **** static void AnalogSetDefault(void);
 299:.\Generated_Source\PSoC5/cyfitter_cfg.c **** static void AnalogSetDefault(void)
 300:.\Generated_Source\PSoC5/cyfitter_cfg.c **** {
 301:.\Generated_Source\PSoC5/cyfitter_cfg.c **** 	uint8 bg_xover_inl_trim = CY_GET_XTND_REG8((void CYFAR *)(CYREG_FLSHID_MFG_CFG_BG_XOVER_INL_TRIM +
 302:.\Generated_Source\PSoC5/cyfitter_cfg.c **** 	CY_SET_XTND_REG8((void CYFAR *)(CYREG_BG_DFT0), (bg_xover_inl_trim & 0x07u));
 303:.\Generated_Source\PSoC5/cyfitter_cfg.c **** 	CY_SET_XTND_REG8((void CYFAR *)(CYREG_BG_DFT1), ((bg_xover_inl_trim >> 4) & 0x0Fu));
 304:.\Generated_Source\PSoC5/cyfitter_cfg.c **** 	CY_SET_XTND_REG8((void CYFAR *)CYREG_PUMP_CR0, 0x44u);
 305:.\Generated_Source\PSoC5/cyfitter_cfg.c **** }
 306:.\Generated_Source\PSoC5/cyfitter_cfg.c **** 
 307:.\Generated_Source\PSoC5/cyfitter_cfg.c **** 
 308:.\Generated_Source\PSoC5/cyfitter_cfg.c **** /*******************************************************************************
 309:.\Generated_Source\PSoC5/cyfitter_cfg.c **** * Function Name: SetAnalogRoutingPumps
 310:.\Generated_Source\PSoC5/cyfitter_cfg.c **** ********************************************************************************
 311:.\Generated_Source\PSoC5/cyfitter_cfg.c **** *
 312:.\Generated_Source\PSoC5/cyfitter_cfg.c **** * Summary:
 313:.\Generated_Source\PSoC5/cyfitter_cfg.c **** * Enables or disables the analog pumps feeding analog routing switches.
 314:.\Generated_Source\PSoC5/cyfitter_cfg.c **** * Intended to be called at startup, based on the Vdda system configuration;
 315:.\Generated_Source\PSoC5/cyfitter_cfg.c **** * may be called during operation when the user informs us that the Vdda voltage
 316:.\Generated_Source\PSoC5/cyfitter_cfg.c **** * crossed the pump threshold.
ARM GAS  C:\Users\Yiquing\AppData\Local\Temp\cc40TUTJ.s 			page 7


 317:.\Generated_Source\PSoC5/cyfitter_cfg.c **** *
 318:.\Generated_Source\PSoC5/cyfitter_cfg.c **** * Parameters:
 319:.\Generated_Source\PSoC5/cyfitter_cfg.c **** *  enabled - 1 to enable the pumps, 0 to disable the pumps
 320:.\Generated_Source\PSoC5/cyfitter_cfg.c **** *
 321:.\Generated_Source\PSoC5/cyfitter_cfg.c **** * Return:
 322:.\Generated_Source\PSoC5/cyfitter_cfg.c **** *  void
 323:.\Generated_Source\PSoC5/cyfitter_cfg.c **** *
 324:.\Generated_Source\PSoC5/cyfitter_cfg.c **** *******************************************************************************/
 325:.\Generated_Source\PSoC5/cyfitter_cfg.c **** void SetAnalogRoutingPumps(uint8 enabled)
 326:.\Generated_Source\PSoC5/cyfitter_cfg.c **** {
  27              		.loc 1 326 0
  28              		.cfi_startproc
  29              		@ args = 0, pretend = 0, frame = 0
  30              		@ frame_needed = 0, uses_anonymous_args = 0
  31              		@ link register save eliminated.
  32              	.LVL0:
 327:.\Generated_Source\PSoC5/cyfitter_cfg.c **** 	uint8 regValue = CY_GET_XTND_REG8((void CYFAR *)CYREG_PUMP_CR0);
  33              		.loc 1 327 0
  34 0000 024B     		ldr	r3, .L2
  35 0002 1A78     		ldrb	r2, [r3]	@ zero_extendqisi2
  36 0004 D2B2     		uxtb	r2, r2
  37              	.LVL1:
 328:.\Generated_Source\PSoC5/cyfitter_cfg.c **** 	if (enabled != 0u)
 329:.\Generated_Source\PSoC5/cyfitter_cfg.c **** 	{
 330:.\Generated_Source\PSoC5/cyfitter_cfg.c **** 		regValue |= 0x00u;
 331:.\Generated_Source\PSoC5/cyfitter_cfg.c **** 	}
 332:.\Generated_Source\PSoC5/cyfitter_cfg.c **** 	else
 333:.\Generated_Source\PSoC5/cyfitter_cfg.c **** 	{
 334:.\Generated_Source\PSoC5/cyfitter_cfg.c **** 		regValue &= (uint8)~0x00u;
 335:.\Generated_Source\PSoC5/cyfitter_cfg.c **** 	}
 336:.\Generated_Source\PSoC5/cyfitter_cfg.c **** 	CY_SET_XTND_REG8((void CYFAR *)CYREG_PUMP_CR0, regValue);
  38              		.loc 1 336 0
  39 0006 1A70     		strb	r2, [r3]
  40 0008 7047     		bx	lr
  41              	.L3:
  42 000a 00BF     		.align	2
  43              	.L2:
  44 000c 76580040 		.word	1073764470
  45              		.cfi_endproc
  46              	.LFE7:
  47              		.size	SetAnalogRoutingPumps, .-SetAnalogRoutingPumps
  48              		.section	.text.cyfitter_cfg,"ax",%progbits
  49              		.align	1
  50              		.global	cyfitter_cfg
  51              		.thumb
  52              		.thumb_func
  53              		.type	cyfitter_cfg, %function
  54              	cyfitter_cfg:
  55              	.LFB8:
 337:.\Generated_Source\PSoC5/cyfitter_cfg.c **** }
 338:.\Generated_Source\PSoC5/cyfitter_cfg.c **** 
 339:.\Generated_Source\PSoC5/cyfitter_cfg.c **** #define CY_AMUX_UNUSED CYREG_BOOST_SR
 340:.\Generated_Source\PSoC5/cyfitter_cfg.c **** 
 341:.\Generated_Source\PSoC5/cyfitter_cfg.c **** 
 342:.\Generated_Source\PSoC5/cyfitter_cfg.c **** /*******************************************************************************
 343:.\Generated_Source\PSoC5/cyfitter_cfg.c **** * Function Name: cyfitter_cfg
 344:.\Generated_Source\PSoC5/cyfitter_cfg.c **** ********************************************************************************
ARM GAS  C:\Users\Yiquing\AppData\Local\Temp\cc40TUTJ.s 			page 8


 345:.\Generated_Source\PSoC5/cyfitter_cfg.c **** * Summary:
 346:.\Generated_Source\PSoC5/cyfitter_cfg.c **** *  This function is called by the start-up code for the selected device. It
 347:.\Generated_Source\PSoC5/cyfitter_cfg.c **** *  performs all of the necessary device configuration based on the design
 348:.\Generated_Source\PSoC5/cyfitter_cfg.c **** *  settings.  This includes settings from the Design Wide Resources (DWR) such
 349:.\Generated_Source\PSoC5/cyfitter_cfg.c **** *  as Clocks and Pins as well as any component configuration that is necessary.
 350:.\Generated_Source\PSoC5/cyfitter_cfg.c **** *
 351:.\Generated_Source\PSoC5/cyfitter_cfg.c **** * Parameters:  
 352:.\Generated_Source\PSoC5/cyfitter_cfg.c **** *   void
 353:.\Generated_Source\PSoC5/cyfitter_cfg.c **** *
 354:.\Generated_Source\PSoC5/cyfitter_cfg.c **** * Return:
 355:.\Generated_Source\PSoC5/cyfitter_cfg.c **** *   void
 356:.\Generated_Source\PSoC5/cyfitter_cfg.c **** *
 357:.\Generated_Source\PSoC5/cyfitter_cfg.c **** *******************************************************************************/
 358:.\Generated_Source\PSoC5/cyfitter_cfg.c **** 
 359:.\Generated_Source\PSoC5/cyfitter_cfg.c **** void cyfitter_cfg(void)
 360:.\Generated_Source\PSoC5/cyfitter_cfg.c **** {
  56              		.loc 1 360 0
  57              		.cfi_startproc
  58              		@ args = 0, pretend = 0, frame = 0
  59              		@ frame_needed = 0, uses_anonymous_args = 0
  60 0000 F8B5     		push	{r3, r4, r5, r6, r7, lr}
  61              		.cfi_def_cfa_offset 24
  62              		.cfi_offset 3, -24
  63              		.cfi_offset 4, -20
  64              		.cfi_offset 5, -16
  65              		.cfi_offset 6, -12
  66              		.cfi_offset 7, -8
  67              		.cfi_offset 14, -4
 361:.\Generated_Source\PSoC5/cyfitter_cfg.c **** #ifdef CYGlobalIntDisable
 362:.\Generated_Source\PSoC5/cyfitter_cfg.c **** 	/* Disable interrupts by default. Let user enable if/when they want. */
 363:.\Generated_Source\PSoC5/cyfitter_cfg.c **** 	CYGlobalIntDisable
  68              		.loc 1 363 0
  69              	@ 363 ".\Generated_Source\PSoC5\cyfitter_cfg.c" 1
  70 0002 72B6     		CPSID   i
  71              	@ 0 "" 2
 364:.\Generated_Source\PSoC5/cyfitter_cfg.c **** #endif
 365:.\Generated_Source\PSoC5/cyfitter_cfg.c **** 
 366:.\Generated_Source\PSoC5/cyfitter_cfg.c **** 	/* Enable/Disable Debug functionality based on settings from System DWR */
 367:.\Generated_Source\PSoC5/cyfitter_cfg.c **** 	CY_SET_XTND_REG8((void CYFAR *)CYREG_MLOGIC_DEBUG, (CY_GET_XTND_REG8((void CYFAR *)CYREG_MLOGIC_DE
  72              		.loc 1 367 0
  73              		.thumb
  74 0004 774B     		ldr	r3, .L20
  75 0006 0024     		movs	r4, #0
  76 0008 1A78     		ldrb	r2, [r3]	@ zero_extendqisi2
  77 000a 42F00402 		orr	r2, r2, #4
  78 000e 1A70     		strb	r2, [r3]
  79              	.LVL2:
  80              	.L6:
  81 0010 754B     		ldr	r3, .L20+4
  82              	.LBB51:
  83              	.LBB52:
  84              	.LBB53:
  85              	.LBB54:
  71:.\Generated_Source\PSoC5/cyfitter_cfg.c **** 	(void)memset(s, 0, n);
  86              		.loc 1 71 0 discriminator 2
  87 0012 0021     		movs	r1, #0
  88 0014 2344     		add	r3, r3, r4
ARM GAS  C:\Users\Yiquing\AppData\Local\Temp\cc40TUTJ.s 			page 9


  89              	.LVL3:
  90 0016 1868     		ldr	r0, [r3]	@ unaligned
  91 0018 9A88     		ldrh	r2, [r3, #4]	@ unaligned
  92 001a 0634     		adds	r4, r4, #6
  93 001c FFF7FEFF 		bl	memset
  94              	.LVL4:
  95              	.LBE54:
  96              	.LBE53:
  97              	.LBE52:
 368:.\Generated_Source\PSoC5/cyfitter_cfg.c **** 
 369:.\Generated_Source\PSoC5/cyfitter_cfg.c **** 	{
 370:.\Generated_Source\PSoC5/cyfitter_cfg.c **** 
 371:.\Generated_Source\PSoC5/cyfitter_cfg.c **** 		CYPACKED typedef struct {
 372:.\Generated_Source\PSoC5/cyfitter_cfg.c **** 			void CYFAR *address;
 373:.\Generated_Source\PSoC5/cyfitter_cfg.c **** 			uint16 size;
 374:.\Generated_Source\PSoC5/cyfitter_cfg.c **** 		} CYPACKED_ATTR cfg_memset_t;
 375:.\Generated_Source\PSoC5/cyfitter_cfg.c **** 
 376:.\Generated_Source\PSoC5/cyfitter_cfg.c **** 
 377:.\Generated_Source\PSoC5/cyfitter_cfg.c **** 		CYPACKED typedef struct {
 378:.\Generated_Source\PSoC5/cyfitter_cfg.c **** 			void CYFAR *dest;
 379:.\Generated_Source\PSoC5/cyfitter_cfg.c **** 			const void CYFAR *src;
 380:.\Generated_Source\PSoC5/cyfitter_cfg.c **** 			uint16 size;
 381:.\Generated_Source\PSoC5/cyfitter_cfg.c **** 		} CYPACKED_ATTR cfg_memcpy_t;
 382:.\Generated_Source\PSoC5/cyfitter_cfg.c **** 
 383:.\Generated_Source\PSoC5/cyfitter_cfg.c **** 		static const cfg_memset_t CYCODE cfg_memset_list [] = {
 384:.\Generated_Source\PSoC5/cyfitter_cfg.c **** 			/* address, size */
 385:.\Generated_Source\PSoC5/cyfitter_cfg.c **** 			{(void CYFAR *)(CYREG_I2C_XCFG), 25u},
 386:.\Generated_Source\PSoC5/cyfitter_cfg.c **** 			{(void CYFAR *)(CYREG_TMR0_CFG0), 36u},
 387:.\Generated_Source\PSoC5/cyfitter_cfg.c **** 			{(void CYFAR *)(CYREG_PRT4_DR), 48u},
 388:.\Generated_Source\PSoC5/cyfitter_cfg.c **** 			{(void CYFAR *)(CYDEV_UCFG_B0_P0_U0_BASE), 1024u},
 389:.\Generated_Source\PSoC5/cyfitter_cfg.c **** 			{(void CYFAR *)(CYDEV_UCFG_B0_P2_U1_BASE), 512u},
 390:.\Generated_Source\PSoC5/cyfitter_cfg.c **** 			{(void CYFAR *)(CYDEV_UCFG_B0_P3_ROUTE_BASE), 2304u},
 391:.\Generated_Source\PSoC5/cyfitter_cfg.c **** 			{(void CYFAR *)(CYDEV_UCFG_B1_P2_U0_BASE), 2048u},
 392:.\Generated_Source\PSoC5/cyfitter_cfg.c **** 			{(void CYFAR *)(CYDEV_UCFG_DSI0_BASE), 2560u},
 393:.\Generated_Source\PSoC5/cyfitter_cfg.c **** 			{(void CYFAR *)(CYDEV_UCFG_DSI12_BASE), 512u},
 394:.\Generated_Source\PSoC5/cyfitter_cfg.c **** 			{(void CYFAR *)(CYREG_BCTL1_MDCLK_EN), 16u},
 395:.\Generated_Source\PSoC5/cyfitter_cfg.c **** 		};
 396:.\Generated_Source\PSoC5/cyfitter_cfg.c **** 
 397:.\Generated_Source\PSoC5/cyfitter_cfg.c **** 		static const cfg_memcpy_t CYCODE cfg_memcpy_list [] = {
 398:.\Generated_Source\PSoC5/cyfitter_cfg.c **** 			/* dest, src, size */
 399:.\Generated_Source\PSoC5/cyfitter_cfg.c **** 			{(void CYFAR *)(CYDEV_UCFG_B0_P2_U0_BASE), BS_UDB_1_3_0_CONFIG_VAL, 128u},
 400:.\Generated_Source\PSoC5/cyfitter_cfg.c **** 			{(void CYFAR *)(CYDEV_UCFG_B0_P3_U1_BASE), BS_UDB_1_2_0_CONFIG_VAL, 128u},
 401:.\Generated_Source\PSoC5/cyfitter_cfg.c **** 			{(void CYFAR *)(CYREG_BCTL0_MDCLK_EN), BS_UCFG_BCTL0_VAL, 16u},
 402:.\Generated_Source\PSoC5/cyfitter_cfg.c **** 		};
 403:.\Generated_Source\PSoC5/cyfitter_cfg.c **** 
 404:.\Generated_Source\PSoC5/cyfitter_cfg.c **** 		uint8 CYDATA i;
 405:.\Generated_Source\PSoC5/cyfitter_cfg.c **** 
 406:.\Generated_Source\PSoC5/cyfitter_cfg.c **** 		/* Zero out critical memory blocks before beginning configuration */
 407:.\Generated_Source\PSoC5/cyfitter_cfg.c **** 		for (i = 0u; i < (sizeof(cfg_memset_list)/sizeof(cfg_memset_list[0])); i++)
  98              		.loc 1 407 0 discriminator 2
  99 0020 3C2C     		cmp	r4, #60
 100 0022 F5D1     		bne	.L6
 101              		.loc 1 407 0 is_stmt 0
 102 0024 0024     		movs	r4, #0
 103              	.LVL5:
 104              	.L8:
 105 0026 714B     		ldr	r3, .L20+8
ARM GAS  C:\Users\Yiquing\AppData\Local\Temp\cc40TUTJ.s 			page 10


 106 0028 2344     		add	r3, r3, r4
 107              	.LVL6:
 108              	.LBB55:
 109              	.LBB56:
 110              	.LBB57:
  78:.\Generated_Source\PSoC5/cyfitter_cfg.c **** 	(void)memcpy(dest, src, n);
 111              		.loc 1 78 0 is_stmt 1 discriminator 2
 112 002a 1868     		ldr	r0, [r3]	@ unaligned
 113 002c 5968     		ldr	r1, [r3, #4]	@ unaligned
 114 002e 1A89     		ldrh	r2, [r3, #8]	@ unaligned
 115 0030 0A34     		adds	r4, r4, #10
 116 0032 FFF7FEFF 		bl	memcpy
 117              	.LVL7:
 118              	.LBE57:
 119              	.LBE56:
 120              	.LBE55:
 408:.\Generated_Source\PSoC5/cyfitter_cfg.c **** 		{
 409:.\Generated_Source\PSoC5/cyfitter_cfg.c **** 			const cfg_memset_t CYCODE * CYDATA ms = &cfg_memset_list[i];
 410:.\Generated_Source\PSoC5/cyfitter_cfg.c **** 			CYMEMZERO(ms->address, (size_t)(uint32)(ms->size));
 411:.\Generated_Source\PSoC5/cyfitter_cfg.c **** 		}
 412:.\Generated_Source\PSoC5/cyfitter_cfg.c **** 
 413:.\Generated_Source\PSoC5/cyfitter_cfg.c **** 		/* Copy device configuration data into registers */
 414:.\Generated_Source\PSoC5/cyfitter_cfg.c **** 		for (i = 0u; i < (sizeof(cfg_memcpy_list)/sizeof(cfg_memcpy_list[0])); i++)
 121              		.loc 1 414 0 discriminator 2
 122 0036 1E2C     		cmp	r4, #30
 123 0038 F5D1     		bne	.L8
 415:.\Generated_Source\PSoC5/cyfitter_cfg.c **** 		{
 416:.\Generated_Source\PSoC5/cyfitter_cfg.c **** 			const cfg_memcpy_t CYCODE * CYDATA mc = &cfg_memcpy_list[i];
 417:.\Generated_Source\PSoC5/cyfitter_cfg.c **** 			void * CYDATA destPtr = mc->dest;
 418:.\Generated_Source\PSoC5/cyfitter_cfg.c **** 			const void * CYDATA srcPtr = mc->src;
 419:.\Generated_Source\PSoC5/cyfitter_cfg.c **** 			uint16 CYDATA numBytes = mc->size;
 420:.\Generated_Source\PSoC5/cyfitter_cfg.c **** 			CYCONFIGCPY(destPtr, srcPtr, numBytes);
 421:.\Generated_Source\PSoC5/cyfitter_cfg.c **** 		}
 422:.\Generated_Source\PSoC5/cyfitter_cfg.c **** 
 423:.\Generated_Source\PSoC5/cyfitter_cfg.c **** 		cfg_write_bytes32(cy_cfg_addr_table, cy_cfg_data_table);
 124              		.loc 1 423 0
 125 003a 6D48     		ldr	r0, .L20+12
 126              	.LVL8:
 127              	.LBB58:
 128              	.LBB59:
 190:.\Generated_Source\PSoC5/cyfitter_cfg.c **** 	uint32 i, j = 0u;
 129              		.loc 1 190 0
 130 003c 0021     		movs	r1, #0
 131 003e A0F1A002 		sub	r2, r0, #160
 132 0042 051F     		subs	r5, r0, #4
 133              	.LVL9:
 134              	.L12:
 135              	.LBB60:
 193:.\Generated_Source\PSoC5/cyfitter_cfg.c **** 		uint32 baseAddr = addr_table[i];
 136              		.loc 1 193 0
 137 0044 52F8043F 		ldr	r3, [r2, #4]!
 138              	.LVL10:
 194:.\Generated_Source\PSoC5/cyfitter_cfg.c **** 		uint8 count = (uint8)baseAddr;
 139              		.loc 1 194 0
 140 0048 DCB2     		uxtb	r4, r3
 141              	.LVL11:
 195:.\Generated_Source\PSoC5/cyfitter_cfg.c **** 		baseAddr &= 0xFFFFFF00u;
ARM GAS  C:\Users\Yiquing\AppData\Local\Temp\cc40TUTJ.s 			page 11


 142              		.loc 1 195 0
 143 004a 23F0FF07 		bic	r7, r3, #255
 144              	.LVL12:
 145 004e 2646     		mov	r6, r4
 146              	.LBE60:
 147              	.LBE59:
 198:.\Generated_Source\PSoC5/cyfitter_cfg.c **** 			CY_SET_XTND_REG8((void CYFAR *)(baseAddr + data_table[j].offset), data_table[j].value);
 148              		.loc 1 198 0
 149 0050 00EB4103 		add	r3, r0, r1, lsl #1
 150              	.LVL13:
 151              	.L9:
 152 0054 0233     		adds	r3, r3, #2
 153              	.LBB62:
 154              	.LBB61:
 196:.\Generated_Source\PSoC5/cyfitter_cfg.c **** 		while (count != 0u)
 155              		.loc 1 196 0
 156 0056 44B1     		cbz	r4, .L19
 198:.\Generated_Source\PSoC5/cyfitter_cfg.c **** 			CY_SET_XTND_REG8((void CYFAR *)(baseAddr + data_table[j].offset), data_table[j].value);
 157              		.loc 1 198 0
 158 0058 13F802EC 		ldrb	lr, [r3, #-2]	@ zero_extendqisi2
 159 005c 13F801CC 		ldrb	ip, [r3, #-1]	@ zero_extendqisi2
 200:.\Generated_Source\PSoC5/cyfitter_cfg.c **** 			count--;
 160              		.loc 1 200 0
 161 0060 013C     		subs	r4, r4, #1
 162              	.LVL14:
 198:.\Generated_Source\PSoC5/cyfitter_cfg.c **** 			CY_SET_XTND_REG8((void CYFAR *)(baseAddr + data_table[j].offset), data_table[j].value);
 163              		.loc 1 198 0
 164 0062 07F80EC0 		strb	ip, [r7, lr]
 200:.\Generated_Source\PSoC5/cyfitter_cfg.c **** 			count--;
 165              		.loc 1 200 0
 166 0066 E4B2     		uxtb	r4, r4
 167              	.LVL15:
 168 0068 F4E7     		b	.L9
 169              	.L19:
 170              	.LBE61:
 191:.\Generated_Source\PSoC5/cyfitter_cfg.c **** 	for (i = 0u; i < CY_CFG_BASE_ADDR_COUNT; i++)
 171              		.loc 1 191 0
 172 006a AA42     		cmp	r2, r5
 173 006c 3144     		add	r1, r1, r6
 174              	.LVL16:
 175 006e E9D1     		bne	.L12
 176              	.LBE62:
 177              	.LBE58:
 424:.\Generated_Source\PSoC5/cyfitter_cfg.c **** 
 425:.\Generated_Source\PSoC5/cyfitter_cfg.c **** 		/* Enable digital routing */
 426:.\Generated_Source\PSoC5/cyfitter_cfg.c **** 		CY_SET_XTND_REG8((void CYFAR *)CYREG_BCTL0_BANK_CTL, CY_GET_XTND_REG8((void CYFAR *)CYREG_BCTL0_B
 178              		.loc 1 426 0
 179 0070 604B     		ldr	r3, .L20+16
 427:.\Generated_Source\PSoC5/cyfitter_cfg.c **** 		CY_SET_XTND_REG8((void CYFAR *)CYREG_BCTL1_BANK_CTL, CY_GET_XTND_REG8((void CYFAR *)CYREG_BCTL1_B
 428:.\Generated_Source\PSoC5/cyfitter_cfg.c **** 
 429:.\Generated_Source\PSoC5/cyfitter_cfg.c **** 		/* Enable UDB array */
 430:.\Generated_Source\PSoC5/cyfitter_cfg.c **** 		CY_SET_XTND_REG8((void CYFAR *)CYREG_PM_ACT_CFG0, CY_GET_XTND_REG8((void CYFAR *)CYREG_PM_ACT_CFG
 180              		.loc 1 430 0
 181 0072 614E     		ldr	r6, .L20+20
 426:.\Generated_Source\PSoC5/cyfitter_cfg.c **** 		CY_SET_XTND_REG8((void CYFAR *)CYREG_BCTL0_BANK_CTL, CY_GET_XTND_REG8((void CYFAR *)CYREG_BCTL0_B
 182              		.loc 1 426 0
 183 0074 1A78     		ldrb	r2, [r3]	@ zero_extendqisi2
ARM GAS  C:\Users\Yiquing\AppData\Local\Temp\cc40TUTJ.s 			page 12


 184              	.LBE51:
 185              	.LBB63:
 186              	.LBB64:
  78:.\Generated_Source\PSoC5/cyfitter_cfg.c **** 	(void)memcpy(dest, src, n);
 187              		.loc 1 78 0
 188 0076 614D     		ldr	r5, .L20+24
 189              	.LBE64:
 190              	.LBE63:
 191              	.LBB66:
 426:.\Generated_Source\PSoC5/cyfitter_cfg.c **** 		CY_SET_XTND_REG8((void CYFAR *)CYREG_BCTL0_BANK_CTL, CY_GET_XTND_REG8((void CYFAR *)CYREG_BCTL0_B
 192              		.loc 1 426 0
 193 0078 42F00202 		orr	r2, r2, #2
 194 007c 1A70     		strb	r2, [r3]
 427:.\Generated_Source\PSoC5/cyfitter_cfg.c **** 		CY_SET_XTND_REG8((void CYFAR *)CYREG_BCTL1_BANK_CTL, CY_GET_XTND_REG8((void CYFAR *)CYREG_BCTL1_B
 195              		.loc 1 427 0
 196 007e 1A7C     		ldrb	r2, [r3, #16]	@ zero_extendqisi2
 197 0080 42F00202 		orr	r2, r2, #2
 198 0084 1A74     		strb	r2, [r3, #16]
 199              		.loc 1 430 0
 200 0086 3378     		ldrb	r3, [r6]	@ zero_extendqisi2
 201 0088 43F04003 		orr	r3, r3, #64
 202 008c 3370     		strb	r3, [r6]
 431:.\Generated_Source\PSoC5/cyfitter_cfg.c **** 		CY_SET_XTND_REG8((void CYFAR *)CYREG_PM_AVAIL_CR2, CY_GET_XTND_REG8((void CYFAR *)CYREG_PM_AVAIL_
 203              		.loc 1 431 0
 204 008e 5C4B     		ldr	r3, .L20+28
 205 0090 1A78     		ldrb	r2, [r3]	@ zero_extendqisi2
 206 0092 42F01002 		orr	r2, r2, #16
 207 0096 1A70     		strb	r2, [r3]
 208              	.LVL17:
 209              	.LBE66:
 432:.\Generated_Source\PSoC5/cyfitter_cfg.c **** 	}
 433:.\Generated_Source\PSoC5/cyfitter_cfg.c **** 
 434:.\Generated_Source\PSoC5/cyfitter_cfg.c **** 
 435:.\Generated_Source\PSoC5/cyfitter_cfg.c **** 	/* Perform second pass device configuration. These items must be configured in specific order afte
 436:.\Generated_Source\PSoC5/cyfitter_cfg.c **** 	CYCONFIGCPY((void CYFAR *)(CYREG_PRT0_DR), (const void CYFAR *)(BS_IOPINS0_0_VAL), 10u);
 210              		.loc 1 436 0
 211 0098 5A4B     		ldr	r3, .L20+32
 212              	.LVL18:
 213              	.LBB67:
 214              	.LBB65:
  78:.\Generated_Source\PSoC5/cyfitter_cfg.c **** 	(void)memcpy(dest, src, n);
 215              		.loc 1 78 0
 216 009a 93E80700 		ldmia	r3, {r0, r1, r2}
 217              	.LVL19:
 218 009e 03C5     		stmia	r5!, {r0, r1}
 219 00a0 2A80     		strh	r2, [r5]	@ movhi
 220              	.LVL20:
 221              	.LBE65:
 222              	.LBE67:
 437:.\Generated_Source\PSoC5/cyfitter_cfg.c **** 	CYCONFIGCPY((void CYFAR *)(CYREG_PRT12_DR), (const void CYFAR *)(BS_IOPINS0_7_VAL), 10u);
 223              		.loc 1 437 0
 224 00a2 03F10C02 		add	r2, r3, #12
 225              	.LBB68:
 226              	.LBB69:
  78:.\Generated_Source\PSoC5/cyfitter_cfg.c **** 	(void)memcpy(dest, src, n);
 227              		.loc 1 78 0
 228 00a6 B835     		adds	r5, r5, #184
ARM GAS  C:\Users\Yiquing\AppData\Local\Temp\cc40TUTJ.s 			page 13


 229 00a8 07CA     		ldmia	r2, {r0, r1, r2}
 230 00aa 03C5     		stmia	r5!, {r0, r1}
 231 00ac 2A80     		strh	r2, [r5]	@ movhi
 232              	.LVL21:
 233              	.LBE69:
 234              	.LBE68:
 438:.\Generated_Source\PSoC5/cyfitter_cfg.c **** 	CYCONFIGCPY((void CYFAR *)(CYREG_PRT15_DR), (const void CYFAR *)(BS_IOPINS0_8_VAL), 10u);
 235              		.loc 1 438 0
 236 00ae 03F11802 		add	r2, r3, #24
 237              	.LBB70:
 238              	.LBB71:
  78:.\Generated_Source\PSoC5/cyfitter_cfg.c **** 	(void)memcpy(dest, src, n);
 239              		.loc 1 78 0
 240 00b2 2835     		adds	r5, r5, #40
 241 00b4 07CA     		ldmia	r2, {r0, r1, r2}
 242 00b6 03C5     		stmia	r5!, {r0, r1}
 243 00b8 2A80     		strh	r2, [r5]	@ movhi
 244              	.LVL22:
 245              	.LBE71:
 246              	.LBE70:
 439:.\Generated_Source\PSoC5/cyfitter_cfg.c **** 	CYCONFIGCPY((void CYFAR *)(CYREG_PRT1_DR), (const void CYFAR *)(BS_IOPINS0_1_VAL), 10u);
 247              		.loc 1 439 0
 248 00ba 03F12402 		add	r2, r3, #36
 249              	.LBB72:
 250              	.LBB73:
  78:.\Generated_Source\PSoC5/cyfitter_cfg.c **** 	(void)memcpy(dest, src, n);
 251              		.loc 1 78 0
 252 00be E83D     		subs	r5, r5, #232
 253 00c0 07CA     		ldmia	r2, {r0, r1, r2}
 254 00c2 03C5     		stmia	r5!, {r0, r1}
 255 00c4 2A80     		strh	r2, [r5]	@ movhi
 256              	.LVL23:
 257              	.LBE73:
 258              	.LBE72:
 440:.\Generated_Source\PSoC5/cyfitter_cfg.c **** 	CYCONFIGCPY((void CYFAR *)(CYREG_PRT2_DR), (const void CYFAR *)(BS_IOPINS0_2_VAL), 10u);
 259              		.loc 1 440 0
 260 00c6 03F13002 		add	r2, r3, #48
 261              	.LBB74:
 262              	.LBB75:
  78:.\Generated_Source\PSoC5/cyfitter_cfg.c **** 	(void)memcpy(dest, src, n);
 263              		.loc 1 78 0
 264 00ca 0835     		adds	r5, r5, #8
 265 00cc 07CA     		ldmia	r2, {r0, r1, r2}
 266 00ce 03C5     		stmia	r5!, {r0, r1}
 267              	.LBE75:
 268              	.LBE74:
 441:.\Generated_Source\PSoC5/cyfitter_cfg.c **** 	CYCONFIGCPY((void CYFAR *)(CYREG_PRT3_DR), (const void CYFAR *)(BS_IOPINS0_3_VAL), 10u);
 269              		.loc 1 441 0
 270 00d0 3C33     		adds	r3, r3, #60
 271              	.LVL24:
 272              	.LBB77:
 273              	.LBB76:
  78:.\Generated_Source\PSoC5/cyfitter_cfg.c **** 	(void)memcpy(dest, src, n);
 274              		.loc 1 78 0
 275 00d2 2A80     		strh	r2, [r5]	@ movhi
 276              	.LVL25:
 277              	.LBE76:
ARM GAS  C:\Users\Yiquing\AppData\Local\Temp\cc40TUTJ.s 			page 14


 278              	.LBE77:
 279              	.LBB78:
 280              	.LBB79:
 281 00d4 0835     		adds	r5, r5, #8
 282 00d6 93E80700 		ldmia	r3, {r0, r1, r2}
 283 00da 03C5     		stmia	r5!, {r0, r1}
 284 00dc 2A80     		strh	r2, [r5]	@ movhi
 285              	.LBE79:
 286              	.LBE78:
 442:.\Generated_Source\PSoC5/cyfitter_cfg.c **** 	CY_SET_XTND_REG8((void CYFAR *)(CYREG_B0_P3_U1_CFG27), 0x84u);
 287              		.loc 1 442 0
 288 00de 4A4A     		ldr	r2, .L20+36
 289 00e0 8423     		movs	r3, #132
 290 00e2 1370     		strb	r3, [r2]
 443:.\Generated_Source\PSoC5/cyfitter_cfg.c **** 	CY_SET_XTND_REG8((void CYFAR *)(CYREG_B1_P5_U0_CFG27), 0x84u);
 291              		.loc 1 443 0
 292 00e4 02F59C52 		add	r2, r2, #4992
 293 00e8 1370     		strb	r3, [r2]
 444:.\Generated_Source\PSoC5/cyfitter_cfg.c **** 	/* Switch Boost to the precision bandgap reference from its internal reference */
 445:.\Generated_Source\PSoC5/cyfitter_cfg.c **** 	CY_SET_REG8((void CYXDATA *)CYREG_BOOST_CR2, (CY_GET_REG8((void CYXDATA *)CYREG_BOOST_CR2) | 0x08u
 294              		.loc 1 445 0
 295 00ea 484B     		ldr	r3, .L20+40
 296              	.LBB80:
 297              	.LBB81:
 231:.\Generated_Source\PSoC5/cyfitter_cfg.c **** 	CY_SET_XTND_REG16((void CYFAR *)(CYREG_CLKDIST_DCFG1_CFG0), 0x005Fu);
 298              		.loc 1 231 0
 299 00ec 5F21     		movs	r1, #95
 300              	.LBE81:
 301              	.LBE80:
 302              		.loc 1 445 0
 303 00ee 1A78     		ldrb	r2, [r3]	@ zero_extendqisi2
 304 00f0 3546     		mov	r5, r6
 305 00f2 42F00802 		orr	r2, r2, #8
 306 00f6 1A70     		strb	r2, [r3]
 446:.\Generated_Source\PSoC5/cyfitter_cfg.c **** 
 447:.\Generated_Source\PSoC5/cyfitter_cfg.c **** 	/* Set Flash Cycles based on max possible frequency in case a glitch occurs during ClockSetup(). *
 448:.\Generated_Source\PSoC5/cyfitter_cfg.c **** 	CY_SET_XTND_REG8((void CYFAR *)(CYREG_CACHE_CC_CTL), (((CYDEV_INSTRUCT_CACHE_ENABLED) != 0) ? 0x01
 307              		.loc 1 448 0
 308 00f8 454A     		ldr	r2, .L20+44
 309 00fa 0123     		movs	r3, #1
 310 00fc 1370     		strb	r3, [r2]
 311              	.LBB84:
 312              	.LBB82:
 229:.\Generated_Source\PSoC5/cyfitter_cfg.c **** 	CY_SET_XTND_REG16((void CYFAR *)(CYREG_CLKDIST_DCFG0_CFG0), 0x0001u);
 313              		.loc 1 229 0
 314 00fe A2F5F062 		sub	r2, r2, #1920
 315 0102 1380     		strh	r3, [r2]	@ movhi
 230:.\Generated_Source\PSoC5/cyfitter_cfg.c **** 	CY_SET_XTND_REG8((void CYFAR *)(CYREG_CLKDIST_DCFG0_CFG0 + 0x2u), 0x19u);
 316              		.loc 1 230 0
 317 0104 1923     		movs	r3, #25
 318 0106 9370     		strb	r3, [r2, #2]
 231:.\Generated_Source\PSoC5/cyfitter_cfg.c **** 	CY_SET_XTND_REG16((void CYFAR *)(CYREG_CLKDIST_DCFG1_CFG0), 0x005Fu);
 319              		.loc 1 231 0
 320 0108 9180     		strh	r1, [r2, #4]	@ movhi
 233:.\Generated_Source\PSoC5/cyfitter_cfg.c **** 	CY_SET_XTND_REG16((void CYFAR *)(CYREG_CLKDIST_DCFG2_CFG0), 0x0067u);
 321              		.loc 1 233 0
 322 010a 4249     		ldr	r1, .L20+48
ARM GAS  C:\Users\Yiquing\AppData\Local\Temp\cc40TUTJ.s 			page 15


 232:.\Generated_Source\PSoC5/cyfitter_cfg.c **** 	CY_SET_XTND_REG8((void CYFAR *)(CYREG_CLKDIST_DCFG1_CFG0 + 0x2u), 0x19u);
 323              		.loc 1 232 0
 324 010c 9371     		strb	r3, [r2, #6]
 233:.\Generated_Source\PSoC5/cyfitter_cfg.c **** 	CY_SET_XTND_REG16((void CYFAR *)(CYREG_CLKDIST_DCFG2_CFG0), 0x0067u);
 325              		.loc 1 233 0
 326 010e 6722     		movs	r2, #103
 327 0110 0A80     		strh	r2, [r1]	@ movhi
 234:.\Generated_Source\PSoC5/cyfitter_cfg.c **** 	CY_SET_XTND_REG8((void CYFAR *)(CYREG_CLKDIST_DCFG2_CFG0 + 0x2u), 0x19u);
 328              		.loc 1 234 0
 329 0112 8B70     		strb	r3, [r1, #2]
 235:.\Generated_Source\PSoC5/cyfitter_cfg.c **** 	CY_SET_XTND_REG16((void CYFAR *)(CYREG_CLKDIST_DCFG3_CFG0), 0x0067u);
 330              		.loc 1 235 0
 331 0114 8A80     		strh	r2, [r1, #4]	@ movhi
 236:.\Generated_Source\PSoC5/cyfitter_cfg.c **** 	CY_SET_XTND_REG8((void CYFAR *)(CYREG_CLKDIST_DCFG3_CFG0 + 0x2u), 0x19u);
 332              		.loc 1 236 0
 333 0116 404A     		ldr	r2, .L20+52
 237:.\Generated_Source\PSoC5/cyfitter_cfg.c **** 	CY_SET_XTND_REG16((void CYFAR *)(CYREG_CLKDIST_DCFG4_CFG0), 0x01DFu);
 334              		.loc 1 237 0
 335 0118 40F2DF11 		movw	r1, #479
 236:.\Generated_Source\PSoC5/cyfitter_cfg.c **** 	CY_SET_XTND_REG8((void CYFAR *)(CYREG_CLKDIST_DCFG3_CFG0 + 0x2u), 0x19u);
 336              		.loc 1 236 0
 337 011c 1370     		strb	r3, [r2]
 237:.\Generated_Source\PSoC5/cyfitter_cfg.c **** 	CY_SET_XTND_REG16((void CYFAR *)(CYREG_CLKDIST_DCFG4_CFG0), 0x01DFu);
 338              		.loc 1 237 0
 339 011e 5180     		strh	r1, [r2, #2]	@ movhi
 239:.\Generated_Source\PSoC5/cyfitter_cfg.c **** 	CY_SET_XTND_REG16((void CYFAR *)(CYREG_CLKDIST_DCFG5_CFG0), 0x04E1u);
 340              		.loc 1 239 0
 341 0120 40F2E141 		movw	r1, #1249
 238:.\Generated_Source\PSoC5/cyfitter_cfg.c **** 	CY_SET_XTND_REG8((void CYFAR *)(CYREG_CLKDIST_DCFG4_CFG0 + 0x2u), 0x19u);
 342              		.loc 1 238 0
 343 0124 1371     		strb	r3, [r2, #4]
 239:.\Generated_Source\PSoC5/cyfitter_cfg.c **** 	CY_SET_XTND_REG16((void CYFAR *)(CYREG_CLKDIST_DCFG5_CFG0), 0x04E1u);
 344              		.loc 1 239 0
 345 0126 D180     		strh	r1, [r2, #6]	@ movhi
 241:.\Generated_Source\PSoC5/cyfitter_cfg.c **** 	CY_SET_XTND_REG16((void CYFAR *)(CYREG_CLKDIST_DCFG6_CFG0), 0x0149u);
 346              		.loc 1 241 0
 347 0128 40F24911 		movw	r1, #329
 240:.\Generated_Source\PSoC5/cyfitter_cfg.c **** 	CY_SET_XTND_REG8((void CYFAR *)(CYREG_CLKDIST_DCFG5_CFG0 + 0x2u), 0x19u);
 348              		.loc 1 240 0
 349 012c 1372     		strb	r3, [r2, #8]
 241:.\Generated_Source\PSoC5/cyfitter_cfg.c **** 	CY_SET_XTND_REG16((void CYFAR *)(CYREG_CLKDIST_DCFG6_CFG0), 0x0149u);
 350              		.loc 1 241 0
 351 012e 5181     		strh	r1, [r2, #10]	@ movhi
 242:.\Generated_Source\PSoC5/cyfitter_cfg.c **** 	CY_SET_XTND_REG8((void CYFAR *)(CYREG_CLKDIST_DCFG6_CFG0 + 0x2u), 0x1Bu);
 352              		.loc 1 242 0
 353 0130 1B21     		movs	r1, #27
 354 0132 1173     		strb	r1, [r2, #12]
 245:.\Generated_Source\PSoC5/cyfitter_cfg.c **** 	CY_SET_XTND_REG8((void CYFAR *)(CYREG_SLOWCLK_ILO_CR0), 0x26u);
 355              		.loc 1 245 0
 356 0134 2621     		movs	r1, #38
 357 0136 82F87212 		strb	r1, [r2, #626]
 246:.\Generated_Source\PSoC5/cyfitter_cfg.c **** 	CY_SET_XTND_REG8((void CYFAR *)(CYREG_CLKDIST_CR), 0x04u);
 358              		.loc 1 246 0
 359 013a 0422     		movs	r2, #4
 360 013c 4FF04021 		mov	r1, #1073758208
 361 0140 0A70     		strb	r2, [r1]
 249:.\Generated_Source\PSoC5/cyfitter_cfg.c **** 	CY_SET_XTND_REG8((void CYFAR *)(CYREG_FASTCLK_IMO_CR), 0x04u);
ARM GAS  C:\Users\Yiquing\AppData\Local\Temp\cc40TUTJ.s 			page 16


 362              		.loc 1 249 0
 363 0142 81F80022 		strb	r2, [r1, #512]
 250:.\Generated_Source\PSoC5/cyfitter_cfg.c **** 	CY_SET_XTND_REG8((void CYFAR *)(CYREG_IMO_TR1), (CY_GET_XTND_REG8((void CYFAR *)(CYREG_FLSHID_MFG_
 364              		.loc 1 250 0
 365 0146 354A     		ldr	r2, .L20+56
 254:.\Generated_Source\PSoC5/cyfitter_cfg.c **** 	CY_SET_XTND_REG16((void CYFAR *)(CYREG_FASTCLK_PLL_CFG0), 0x1251u);
 366              		.loc 1 254 0
 367 0148 1F46     		mov	r7, r3
 368              	.LVL26:
 250:.\Generated_Source\PSoC5/cyfitter_cfg.c **** 	CY_SET_XTND_REG8((void CYFAR *)(CYREG_IMO_TR1), (CY_GET_XTND_REG8((void CYFAR *)(CYREG_FLSHID_MFG_
 369              		.loc 1 250 0
 370 014a 1178     		ldrb	r1, [r2]	@ zero_extendqisi2
 371 014c 344A     		ldr	r2, .L20+60
 372 014e C9B2     		uxtb	r1, r1
 373 0150 1170     		strb	r1, [r2]
 253:.\Generated_Source\PSoC5/cyfitter_cfg.c **** 	CY_SET_XTND_REG16((void CYFAR *)(CYREG_FASTCLK_PLL_P), 0x0F10u);
 374              		.loc 1 253 0
 375 0152 4FF47161 		mov	r1, #3856
 376 0156 A2F27F42 		subw	r2, r2, #1151
 377 015a 1180     		strh	r1, [r2]	@ movhi
 254:.\Generated_Source\PSoC5/cyfitter_cfg.c **** 	CY_SET_XTND_REG16((void CYFAR *)(CYREG_FASTCLK_PLL_CFG0), 0x1251u);
 378              		.loc 1 254 0
 379 015c 41F25121 		movw	r1, #4689
 380 0160 22F8021C 		strh	r1, [r2, #-2]	@ movhi
 381              	.LVL27:
 382              	.L16:
 259:.\Generated_Source\PSoC5/cyfitter_cfg.c **** 		pllLock = 0x03u & ((uint8)((uint8)pllLock << 1) | ((CY_GET_XTND_REG8((void CYFAR *)CYREG_FASTCLK_
 383              		.loc 1 259 0
 384 0164 2F4B     		ldr	r3, .L20+64
 260:.\Generated_Source\PSoC5/cyfitter_cfg.c **** 		CyDelayCycles(10u * 48u); /* Delay 10us based on 48MHz clock */
 385              		.loc 1 260 0
 386 0166 4FF4F070 		mov	r0, #480
 259:.\Generated_Source\PSoC5/cyfitter_cfg.c **** 		pllLock = 0x03u & ((uint8)((uint8)pllLock << 1) | ((CY_GET_XTND_REG8((void CYFAR *)CYREG_FASTCLK_
 387              		.loc 1 259 0
 388 016a 1B78     		ldrb	r3, [r3]	@ zero_extendqisi2
 389 016c 03F00103 		and	r3, r3, #1
 390 0170 43EA4404 		orr	r4, r3, r4, lsl #1
 391              	.LVL28:
 260:.\Generated_Source\PSoC5/cyfitter_cfg.c **** 		CyDelayCycles(10u * 48u); /* Delay 10us based on 48MHz clock */
 392              		.loc 1 260 0
 393 0174 FFF7FEFF 		bl	CyDelayCycles
 394              	.LVL29:
 257:.\Generated_Source\PSoC5/cyfitter_cfg.c **** 	for (timeout = 250u / 10u; (timeout > 0u) && (pllLock != 0x03u); timeout--)
 395              		.loc 1 257 0
 396 0178 013F     		subs	r7, r7, #1
 397              	.LVL30:
 259:.\Generated_Source\PSoC5/cyfitter_cfg.c **** 		pllLock = 0x03u & ((uint8)((uint8)pllLock << 1) | ((CY_GET_XTND_REG8((void CYFAR *)CYREG_FASTCLK_
 398              		.loc 1 259 0
 399 017a 04F00304 		and	r4, r4, #3
 400              	.LVL31:
 257:.\Generated_Source\PSoC5/cyfitter_cfg.c **** 	for (timeout = 250u / 10u; (timeout > 0u) && (pllLock != 0x03u); timeout--)
 401              		.loc 1 257 0
 402 017e 2FD0     		beq	.L14
 403              	.LVL32:
 404 0180 032C     		cmp	r4, #3
 405 0182 EFD1     		bne	.L16
 269:.\Generated_Source\PSoC5/cyfitter_cfg.c **** 	CY_SET_XTND_REG16((void CYFAR *)(CYREG_CLKDIST_MSTR0), 0x0100u);
ARM GAS  C:\Users\Yiquing\AppData\Local\Temp\cc40TUTJ.s 			page 17


 406              		.loc 1 269 0
 407 0184 284B     		ldr	r3, .L20+68
 408 0186 4FF48072 		mov	r2, #256
 409 018a 1A80     		strh	r2, [r3]	@ movhi
 271:.\Generated_Source\PSoC5/cyfitter_cfg.c **** 	CY_SET_XTND_REG8((void CYFAR *)(CYREG_CLKDIST_BCFG0), 0x00u);
 410              		.loc 1 271 0
 411 018c 2749     		ldr	r1, .L20+72
 270:.\Generated_Source\PSoC5/cyfitter_cfg.c **** 	CY_SET_XTND_REG8((void CYFAR *)(CYREG_CLKDIST_MSTR0), 0x07u);
 412              		.loc 1 270 0
 413 018e 0722     		movs	r2, #7
 414 0190 1A70     		strb	r2, [r3]
 272:.\Generated_Source\PSoC5/cyfitter_cfg.c **** 	CY_SET_XTND_REG8((void CYFAR *)(CYREG_CLKDIST_BCFG2), 0x48u);
 415              		.loc 1 272 0
 416 0192 4820     		movs	r0, #72
 271:.\Generated_Source\PSoC5/cyfitter_cfg.c **** 	CY_SET_XTND_REG8((void CYFAR *)(CYREG_CLKDIST_BCFG0), 0x00u);
 417              		.loc 1 271 0
 418 0194 0022     		movs	r2, #0
 419 0196 0A70     		strb	r2, [r1]
 272:.\Generated_Source\PSoC5/cyfitter_cfg.c **** 	CY_SET_XTND_REG8((void CYFAR *)(CYREG_CLKDIST_BCFG2), 0x48u);
 420              		.loc 1 272 0
 421 0198 8870     		strb	r0, [r1, #2]
 273:.\Generated_Source\PSoC5/cyfitter_cfg.c **** 	CY_SET_XTND_REG8((void CYFAR *)(CYREG_CLKDIST_MSTR0), 0x00u);
 422              		.loc 1 273 0
 423 019a 1A70     		strb	r2, [r3]
 274:.\Generated_Source\PSoC5/cyfitter_cfg.c **** 	CY_SET_XTND_REG8((void CYFAR *)(CYREG_CLKDIST_LD), 0x02u);
 424              		.loc 1 274 0
 425 019c 0222     		movs	r2, #2
 426 019e 03F8032C 		strb	r2, [r3, #-3]
 276:.\Generated_Source\PSoC5/cyfitter_cfg.c **** 	CY_SET_XTND_REG8((void CYFAR *)(CYREG_PM_ACT_CFG2), ((CY_GET_XTND_REG8((void CYFAR *)CYREG_PM_ACT_
 427              		.loc 1 276 0
 428 01a2 93F89E23 		ldrb	r2, [r3, #926]	@ zero_extendqisi2
 429              	.LBE82:
 430              	.LBE84:
 431              	.LBB85:
 432              	.LBB86:
  78:.\Generated_Source\PSoC5/cyfitter_cfg.c **** 	(void)memcpy(dest, src, n);
 433              		.loc 1 78 0
 434 01a6 224C     		ldr	r4, .L20+76
 435              	.LVL33:
 436              	.LBE86:
 437              	.LBE85:
 438              	.LBB88:
 439              	.LBB83:
 276:.\Generated_Source\PSoC5/cyfitter_cfg.c **** 	CY_SET_XTND_REG8((void CYFAR *)(CYREG_PM_ACT_CFG2), ((CY_GET_XTND_REG8((void CYFAR *)CYREG_PM_ACT_
 440              		.loc 1 276 0
 441 01a8 42F07F02 		orr	r2, r2, #127
 442 01ac 83F89E23 		strb	r2, [r3, #926]
 443              	.LBE83:
 444              	.LBE88:
 449:.\Generated_Source\PSoC5/cyfitter_cfg.c **** 	/* Setup clocks based on selections from Clock DWR */
 450:.\Generated_Source\PSoC5/cyfitter_cfg.c **** 	ClockSetup();
 451:.\Generated_Source\PSoC5/cyfitter_cfg.c **** 	/* Set Flash Cycles based on newly configured 48.00MHz Bus Clock. */
 452:.\Generated_Source\PSoC5/cyfitter_cfg.c **** 	CY_SET_XTND_REG8((void CYFAR *)(CYREG_CACHE_CC_CTL), (((CYDEV_INSTRUCT_CACHE_ENABLED) != 0) ? 0xC1
 445              		.loc 1 452 0
 446 01b0 C122     		movs	r2, #193
 447 01b2 83F8FC27 		strb	r2, [r3, #2044]
 453:.\Generated_Source\PSoC5/cyfitter_cfg.c **** 	CY_SET_XTND_REG8((void CYFAR *)(CYREG_PANTHER_WAITPIPE), 0x01u);
ARM GAS  C:\Users\Yiquing\AppData\Local\Temp\cc40TUTJ.s 			page 18


 448              		.loc 1 453 0
 449 01b6 0122     		movs	r2, #1
 450 01b8 03F5F823 		add	r3, r3, #507904
 451 01bc 1A70     		strb	r2, [r3]
 452              	.LBB89:
 453              	.LBB90:
 301:.\Generated_Source\PSoC5/cyfitter_cfg.c **** 	uint8 bg_xover_inl_trim = CY_GET_XTND_REG8((void CYFAR *)(CYREG_FLSHID_MFG_CFG_BG_XOVER_INL_TRIM +
 454              		.loc 1 301 0
 455 01be 1D4B     		ldr	r3, .L20+80
 302:.\Generated_Source\PSoC5/cyfitter_cfg.c **** 	CY_SET_XTND_REG8((void CYFAR *)(CYREG_BG_DFT0), (bg_xover_inl_trim & 0x07u));
 456              		.loc 1 302 0
 457 01c0 1D4A     		ldr	r2, .L20+84
 301:.\Generated_Source\PSoC5/cyfitter_cfg.c **** 	uint8 bg_xover_inl_trim = CY_GET_XTND_REG8((void CYFAR *)(CYREG_FLSHID_MFG_CFG_BG_XOVER_INL_TRIM +
 458              		.loc 1 301 0
 459 01c2 1B78     		ldrb	r3, [r3]	@ zero_extendqisi2
 460 01c4 DBB2     		uxtb	r3, r3
 461              	.LVL34:
 302:.\Generated_Source\PSoC5/cyfitter_cfg.c **** 	CY_SET_XTND_REG8((void CYFAR *)(CYREG_BG_DFT0), (bg_xover_inl_trim & 0x07u));
 462              		.loc 1 302 0
 463 01c6 03F00701 		and	r1, r3, #7
 303:.\Generated_Source\PSoC5/cyfitter_cfg.c **** 	CY_SET_XTND_REG8((void CYFAR *)(CYREG_BG_DFT1), ((bg_xover_inl_trim >> 4) & 0x0Fu));
 464              		.loc 1 303 0
 465 01ca 1B09     		lsrs	r3, r3, #4
 466              	.LVL35:
 302:.\Generated_Source\PSoC5/cyfitter_cfg.c **** 	CY_SET_XTND_REG8((void CYFAR *)(CYREG_BG_DFT0), (bg_xover_inl_trim & 0x07u));
 467              		.loc 1 302 0
 468 01cc 1170     		strb	r1, [r2]
 303:.\Generated_Source\PSoC5/cyfitter_cfg.c **** 	CY_SET_XTND_REG8((void CYFAR *)(CYREG_BG_DFT1), ((bg_xover_inl_trim >> 4) & 0x0Fu));
 469              		.loc 1 303 0
 470 01ce 5370     		strb	r3, [r2, #1]
 304:.\Generated_Source\PSoC5/cyfitter_cfg.c **** 	CY_SET_XTND_REG8((void CYFAR *)CYREG_PUMP_CR0, 0x44u);
 471              		.loc 1 304 0
 472 01d0 1A4B     		ldr	r3, .L20+88
 473 01d2 4422     		movs	r2, #68
 474 01d4 1A70     		strb	r2, [r3]
 475              	.LVL36:
 476              	.LBE90:
 477              	.LBE89:
 478              	.LBB91:
 479              	.LBB87:
  78:.\Generated_Source\PSoC5/cyfitter_cfg.c **** 	(void)memcpy(dest, src, n);
 480              		.loc 1 78 0
 481 01d6 95E80F00 		ldmia	r5, {r0, r1, r2, r3}
 482 01da 07C4     		stmia	r4!, {r0, r1, r2}
 483 01dc 2380     		strh	r3, [r4]	@ movhi
 484 01de F8BD     		pop	{r3, r4, r5, r6, r7, pc}
 485              	.LVL37:
 486              	.L14:
 487 01e0 FEE7     		b	.L14
 488              	.L21:
 489 01e2 00BF     		.align	2
 490              	.L20:
 491 01e4 E8460040 		.word	1073759976
 492 01e8 00000000 		.word	.LANCHOR0
 493 01ec 3C000000 		.word	.LANCHOR0+60
 494 01f0 9C000048 		.word	CY_ECC_OFFSET+1207959708
 495 01f4 03500140 		.word	1073827843
ARM GAS  C:\Users\Yiquing\AppData\Local\Temp\cc40TUTJ.s 			page 19


 496 01f8 A0430040 		.word	1073759136
 497 01fc 00510040 		.word	1073762560
 498 0200 C2430040 		.word	1073759170
 499 0204 800E0048 		.word	CY_ECC_OFFSET+1207963264
 500 0208 DB060140 		.word	1073809115
 501 020c 22430040 		.word	1073759010
 502 0210 00480040 		.word	1073760256
 503 0214 88400040 		.word	1073758344
 504 0218 8E400040 		.word	1073758350
 505 021c 89010049 		.word	1224737161
 506 0220 A1460040 		.word	1073759905
 507 0224 25420040 		.word	1073758757
 508 0228 04400040 		.word	1073758212
 509 022c 06400040 		.word	1073758214
 510 0230 B0430040 		.word	1073759152
 511 0234 CF010049 		.word	1224737231
 512 0238 6E580040 		.word	1073764462
 513 023c 76580040 		.word	1073764470
 514              	.LBE87:
 515              	.LBE91:
 516              		.cfi_endproc
 517              	.LFE8:
 518              		.size	cyfitter_cfg, .-cyfitter_cfg
 519              		.section	.rodata
 520              		.set	.LANCHOR0,. + 0
 521              		.type	cfg_memset_list.4889, %object
 522              		.size	cfg_memset_list.4889, 60
 523              	cfg_memset_list.4889:
 524 0000 C8490040 		.4byte	1073760712
 525 0004 1900     		.2byte	25
 526 0006 004F0040 		.4byte	1073762048
 527 000a 2400     		.2byte	36
 528 000c 40510040 		.4byte	1073762624
 529 0010 3000     		.2byte	48
 530 0012 00000140 		.4byte	1073807360
 531 0016 0004     		.2byte	1024
 532 0018 80040140 		.4byte	1073808512
 533 001c 0002     		.2byte	512
 534 001e 00070140 		.4byte	1073809152
 535 0022 0009     		.2byte	2304
 536 0024 00140140 		.4byte	1073812480
 537 0028 0008     		.2byte	2048
 538 002a 00400140 		.4byte	1073823744
 539 002e 000A     		.2byte	2560
 540 0030 004C0140 		.4byte	1073826816
 541 0034 0002     		.2byte	512
 542 0036 10500140 		.4byte	1073827856
 543 003a 1000     		.2byte	16
 544              		.type	cfg_memcpy_list.4890, %object
 545              		.size	cfg_memcpy_list.4890, 30
 546              	cfg_memcpy_list.4890:
 547 003c 00040140 		.4byte	1073808384
 548 0040 700D0048 		.4byte	CY_ECC_OFFSET+1207962992
 549 0044 8000     		.2byte	128
 550 0046 80060140 		.4byte	1073809024
 551 004a F00D0048 		.4byte	CY_ECC_OFFSET+1207963120
 552 004e 8000     		.2byte	128
ARM GAS  C:\Users\Yiquing\AppData\Local\Temp\cc40TUTJ.s 			page 20


 553 0050 00500140 		.4byte	1073827840
 554 0054 700E0048 		.4byte	CY_ECC_OFFSET+1207963248
 555 0058 1000     		.2byte	16
 556              		.text
 557              	.Letext0:
 558              		.file 2 "c:\\program files (x86)\\cypress\\psoc creator\\3.2\\psoc creator\\import\\gnu\\arm\\4.8.
 559              		.file 3 ".\\Generated_Source\\PSoC5\\cytypes.h"
 560              		.file 4 ".\\Generated_Source\\PSoC5\\CyLib.h"