ARM GAS  C:\Users\Yiquing\AppData\Local\Temp\ccgwqGZH.s 			page 1


   1              		.syntax unified
   2              		.cpu cortex-m3
   3              		.fpu softvfp
   4              		.eabi_attribute 20, 1
   5              		.eabi_attribute 21, 1
   6              		.eabi_attribute 23, 3
   7              		.eabi_attribute 24, 1
   8              		.eabi_attribute 25, 1
   9              		.eabi_attribute 26, 1
  10              		.eabi_attribute 30, 4
  11              		.eabi_attribute 34, 1
  12              		.eabi_attribute 18, 4
  13              		.thumb
  14              		.file	"CyFlash.c"
  15              		.text
  16              	.Ltext0:
  17              		.cfi_sections	.debug_frame
  18              		.section	.text.CyFlash_Start,"ax",%progbits
  19              		.align	1
  20              		.global	CyFlash_Start
  21              		.thumb
  22              		.thumb_func
  23              		.type	CyFlash_Start, %function
  24              	CyFlash_Start:
  25              	.LFB0:
  26              		.file 1 ".\\Generated_Source\\PSoC5\\CyFlash.c"
   1:.\Generated_Source\PSoC5/CyFlash.c **** /*******************************************************************************
   2:.\Generated_Source\PSoC5/CyFlash.c **** * File Name: CyFlash.c
   3:.\Generated_Source\PSoC5/CyFlash.c **** * Version 5.0
   4:.\Generated_Source\PSoC5/CyFlash.c **** *
   5:.\Generated_Source\PSoC5/CyFlash.c **** *  Description:
   6:.\Generated_Source\PSoC5/CyFlash.c **** *   Provides an API for the FLASH/EEPROM.
   7:.\Generated_Source\PSoC5/CyFlash.c **** *
   8:.\Generated_Source\PSoC5/CyFlash.c **** *  Note:
   9:.\Generated_Source\PSoC5/CyFlash.c **** *   This code is endian agnostic.
  10:.\Generated_Source\PSoC5/CyFlash.c **** *
  11:.\Generated_Source\PSoC5/CyFlash.c **** *  Note:
  12:.\Generated_Source\PSoC5/CyFlash.c **** *   Documentation of the API's in this file is located in the
  13:.\Generated_Source\PSoC5/CyFlash.c **** *   System Reference Guide provided with PSoC Creator.
  14:.\Generated_Source\PSoC5/CyFlash.c **** *
  15:.\Generated_Source\PSoC5/CyFlash.c **** ********************************************************************************
  16:.\Generated_Source\PSoC5/CyFlash.c **** * Copyright 2008-2015, Cypress Semiconductor Corporation. All rights reserved.
  17:.\Generated_Source\PSoC5/CyFlash.c **** * You may use this file only in accordance with the license, terms, conditions,
  18:.\Generated_Source\PSoC5/CyFlash.c **** * disclaimers, and limitations in the end user license agreement accompanying
  19:.\Generated_Source\PSoC5/CyFlash.c **** * the software package with which this file was provided.
  20:.\Generated_Source\PSoC5/CyFlash.c **** *******************************************************************************/
  21:.\Generated_Source\PSoC5/CyFlash.c **** 
  22:.\Generated_Source\PSoC5/CyFlash.c **** #include "CyFlash.h"
  23:.\Generated_Source\PSoC5/CyFlash.c **** 
  24:.\Generated_Source\PSoC5/CyFlash.c **** /*  The number of EEPROM arrays */
  25:.\Generated_Source\PSoC5/CyFlash.c **** #define CY_FLASH_EEPROM_NUMBER_ARRAYS                 (1u)
  26:.\Generated_Source\PSoC5/CyFlash.c **** 
  27:.\Generated_Source\PSoC5/CyFlash.c **** 
  28:.\Generated_Source\PSoC5/CyFlash.c **** /*******************************************************************************
  29:.\Generated_Source\PSoC5/CyFlash.c **** * Holds the die temperature, updated by CySetTemp(). Used for flash writing.
  30:.\Generated_Source\PSoC5/CyFlash.c **** * The first byte is the sign of the temperature (0 = negative, 1 = positive).
  31:.\Generated_Source\PSoC5/CyFlash.c **** * The second byte is the magnitude.
ARM GAS  C:\Users\Yiquing\AppData\Local\Temp\ccgwqGZH.s 			page 2


  32:.\Generated_Source\PSoC5/CyFlash.c **** *******************************************************************************/
  33:.\Generated_Source\PSoC5/CyFlash.c **** uint8 dieTemperature[CY_FLASH_DIE_TEMP_DATA_SIZE];
  34:.\Generated_Source\PSoC5/CyFlash.c **** 
  35:.\Generated_Source\PSoC5/CyFlash.c **** #if(CYDEV_ECC_ENABLE == 0)
  36:.\Generated_Source\PSoC5/CyFlash.c ****     static uint8 * rowBuffer = 0;
  37:.\Generated_Source\PSoC5/CyFlash.c **** #endif  /* (CYDEV_ECC_ENABLE == 0) */
  38:.\Generated_Source\PSoC5/CyFlash.c **** 
  39:.\Generated_Source\PSoC5/CyFlash.c **** 
  40:.\Generated_Source\PSoC5/CyFlash.c **** static cystatus CySetTempInt(void);
  41:.\Generated_Source\PSoC5/CyFlash.c **** static cystatus CyFlashGetSpcAlgorithm(void);
  42:.\Generated_Source\PSoC5/CyFlash.c **** 
  43:.\Generated_Source\PSoC5/CyFlash.c **** 
  44:.\Generated_Source\PSoC5/CyFlash.c **** /*******************************************************************************
  45:.\Generated_Source\PSoC5/CyFlash.c **** * Function Name: CyFlash_Start
  46:.\Generated_Source\PSoC5/CyFlash.c **** ********************************************************************************
  47:.\Generated_Source\PSoC5/CyFlash.c **** *
  48:.\Generated_Source\PSoC5/CyFlash.c **** * Summary:
  49:.\Generated_Source\PSoC5/CyFlash.c **** *  Enable the Flash.
  50:.\Generated_Source\PSoC5/CyFlash.c **** *
  51:.\Generated_Source\PSoC5/CyFlash.c **** * Parameters:
  52:.\Generated_Source\PSoC5/CyFlash.c **** *  None
  53:.\Generated_Source\PSoC5/CyFlash.c **** *
  54:.\Generated_Source\PSoC5/CyFlash.c **** * Return:
  55:.\Generated_Source\PSoC5/CyFlash.c **** *  None
  56:.\Generated_Source\PSoC5/CyFlash.c **** *
  57:.\Generated_Source\PSoC5/CyFlash.c **** *******************************************************************************/
  58:.\Generated_Source\PSoC5/CyFlash.c **** void CyFlash_Start(void) 
  59:.\Generated_Source\PSoC5/CyFlash.c **** {
  27              		.loc 1 59 0
  28              		.cfi_startproc
  29              		@ args = 0, pretend = 0, frame = 0
  30              		@ frame_needed = 0, uses_anonymous_args = 0
  31 0000 08B5     		push	{r3, lr}
  32              		.cfi_def_cfa_offset 8
  33              		.cfi_offset 3, -8
  34              		.cfi_offset 14, -4
  60:.\Generated_Source\PSoC5/CyFlash.c ****     uint8 interruptState;
  61:.\Generated_Source\PSoC5/CyFlash.c **** 
  62:.\Generated_Source\PSoC5/CyFlash.c ****     interruptState = CyEnterCriticalSection();
  35              		.loc 1 62 0
  36 0002 FFF7FEFF 		bl	CyEnterCriticalSection
  37              	.LVL0:
  63:.\Generated_Source\PSoC5/CyFlash.c **** 
  64:.\Generated_Source\PSoC5/CyFlash.c **** 
  65:.\Generated_Source\PSoC5/CyFlash.c ****     /***************************************************************************
  66:.\Generated_Source\PSoC5/CyFlash.c ****     * Enable SPC clock. This also internally enables the 36MHz IMO, since this
  67:.\Generated_Source\PSoC5/CyFlash.c ****     * is required for the SPC to function.
  68:.\Generated_Source\PSoC5/CyFlash.c ****     ***************************************************************************/
  69:.\Generated_Source\PSoC5/CyFlash.c ****     CY_FLASH_PM_ACT_CFG0_REG    |= CY_FLASH_PM_ACT_CFG0_EN_CLK_SPC;
  38              		.loc 1 69 0
  39 0006 0F4B     		ldr	r3, .L5
  40 0008 1A78     		ldrb	r2, [r3]	@ zero_extendqisi2
  70:.\Generated_Source\PSoC5/CyFlash.c ****     CY_FLASH_PM_ALTACT_CFG0_REG |= CY_FLASH_PM_ALTACT_CFG0_EN_CLK_SPC;
  71:.\Generated_Source\PSoC5/CyFlash.c **** 
  72:.\Generated_Source\PSoC5/CyFlash.c **** 
  73:.\Generated_Source\PSoC5/CyFlash.c ****     /***************************************************************************
  74:.\Generated_Source\PSoC5/CyFlash.c ****     * The wake count defines the number of Bus Clock cycles it takes for the
ARM GAS  C:\Users\Yiquing\AppData\Local\Temp\ccgwqGZH.s 			page 3


  75:.\Generated_Source\PSoC5/CyFlash.c ****     * flash or eeprom to wake up from a low power mode independent of the chip
  76:.\Generated_Source\PSoC5/CyFlash.c ****     * power mode. Wake up time for these blocks is 5 us.
  77:.\Generated_Source\PSoC5/CyFlash.c ****     * The granularity of this register is 2 Bus Clock cycles, so a value of 0x1E
  78:.\Generated_Source\PSoC5/CyFlash.c ****     * (30d) defines the wake up time as 60 cycles of the Bus Clock.
  79:.\Generated_Source\PSoC5/CyFlash.c ****     * This register needs to be written with a value dependent on the Bus Clock
  80:.\Generated_Source\PSoC5/CyFlash.c ****     * frequency so that the duration of the cycles is equal to or greater than
  81:.\Generated_Source\PSoC5/CyFlash.c ****     * the 5 us delay required.
  82:.\Generated_Source\PSoC5/CyFlash.c ****     ***************************************************************************/
  83:.\Generated_Source\PSoC5/CyFlash.c ****     CY_FLASH_SPC_FM_EE_WAKE_CNT_REG = CY_FLASH_SPC_FM_EE_WAKE_CNT_80MHZ;
  84:.\Generated_Source\PSoC5/CyFlash.c **** 
  85:.\Generated_Source\PSoC5/CyFlash.c **** 
  86:.\Generated_Source\PSoC5/CyFlash.c ****     /***************************************************************************
  87:.\Generated_Source\PSoC5/CyFlash.c ****     * Enable flash. Active flash macros consume current, but re-enabling a
  88:.\Generated_Source\PSoC5/CyFlash.c ****     * disabled flash macro takes 5us. If the CPU attempts to fetch out of the
  89:.\Generated_Source\PSoC5/CyFlash.c ****     * macro during that time, it will be stalled. This bit allows the flash to
  90:.\Generated_Source\PSoC5/CyFlash.c ****     * be enabled even if the CPU is disabled, which allows a quicker return to
  91:.\Generated_Source\PSoC5/CyFlash.c ****     * code execution.
  92:.\Generated_Source\PSoC5/CyFlash.c ****     ***************************************************************************/
  93:.\Generated_Source\PSoC5/CyFlash.c ****     CY_FLASH_PM_ACT_CFG12_REG    |= CY_FLASH_PM_ACT_CFG12_EN_FM;
  41              		.loc 1 93 0
  42 000a 0C33     		adds	r3, r3, #12
  69:.\Generated_Source\PSoC5/CyFlash.c ****     CY_FLASH_PM_ACT_CFG0_REG    |= CY_FLASH_PM_ACT_CFG0_EN_CLK_SPC;
  43              		.loc 1 69 0
  44 000c 42F00802 		orr	r2, r2, #8
  45 0010 03F80C2C 		strb	r2, [r3, #-12]
  70:.\Generated_Source\PSoC5/CyFlash.c ****     CY_FLASH_PM_ALTACT_CFG0_REG |= CY_FLASH_PM_ALTACT_CFG0_EN_CLK_SPC;
  46              		.loc 1 70 0
  47 0014 1A79     		ldrb	r2, [r3, #4]	@ zero_extendqisi2
  48 0016 42F00802 		orr	r2, r2, #8
  49 001a 1A71     		strb	r2, [r3, #4]
  83:.\Generated_Source\PSoC5/CyFlash.c ****     CY_FLASH_SPC_FM_EE_WAKE_CNT_REG = CY_FLASH_SPC_FM_EE_WAKE_CNT_80MHZ;
  50              		.loc 1 83 0
  51 001c C822     		movs	r2, #200
  52 001e 83F85523 		strb	r2, [r3, #853]
  53              		.loc 1 93 0
  54 0022 1A78     		ldrb	r2, [r3]	@ zero_extendqisi2
  55 0024 42F00F02 		orr	r2, r2, #15
  56 0028 1A70     		strb	r2, [r3]
  94:.\Generated_Source\PSoC5/CyFlash.c ****     CY_FLASH_PM_ALTACT_CFG12_REG |= CY_FLASH_PM_ALTACT_CFG12_EN_FM;
  57              		.loc 1 94 0
  58 002a 1A7C     		ldrb	r2, [r3, #16]	@ zero_extendqisi2
  59 002c 42F00F02 		orr	r2, r2, #15
  60 0030 1A74     		strb	r2, [r3, #16]
  61              	.L3:
  95:.\Generated_Source\PSoC5/CyFlash.c **** 
  96:.\Generated_Source\PSoC5/CyFlash.c ****     while(0u == (CY_FLASH_SPC_FM_EE_CR_REG & CY_FLASH_EE_EE_AWAKE))
  62              		.loc 1 96 0 discriminator 1
  63 0032 054B     		ldr	r3, .L5+4
  64 0034 1B78     		ldrb	r3, [r3]	@ zero_extendqisi2
  65 0036 9B06     		lsls	r3, r3, #26
  66 0038 FBD5     		bpl	.L3
  97:.\Generated_Source\PSoC5/CyFlash.c ****     {
  98:.\Generated_Source\PSoC5/CyFlash.c ****         /* Non-zero status denotes that the EEPROM/Flash is awake & powered. */
  99:.\Generated_Source\PSoC5/CyFlash.c ****     }
 100:.\Generated_Source\PSoC5/CyFlash.c **** 
 101:.\Generated_Source\PSoC5/CyFlash.c ****     CyExitCriticalSection(interruptState);
 102:.\Generated_Source\PSoC5/CyFlash.c **** }
ARM GAS  C:\Users\Yiquing\AppData\Local\Temp\ccgwqGZH.s 			page 4


  67              		.loc 1 102 0
  68 003a BDE80840 		pop	{r3, lr}
 101:.\Generated_Source\PSoC5/CyFlash.c ****     CyExitCriticalSection(interruptState);
  69              		.loc 1 101 0
  70 003e FFF7FEBF 		b	CyExitCriticalSection
  71              	.LVL1:
  72              	.L6:
  73 0042 00BF     		.align	2
  74              	.L5:
  75 0044 A0430040 		.word	1073759136
  76 0048 00470040 		.word	1073760000
  77              		.cfi_endproc
  78              	.LFE0:
  79              		.size	CyFlash_Start, .-CyFlash_Start
  80              		.section	.text.CyFlash_Stop,"ax",%progbits
  81              		.align	1
  82              		.global	CyFlash_Stop
  83              		.thumb
  84              		.thumb_func
  85              		.type	CyFlash_Stop, %function
  86              	CyFlash_Stop:
  87              	.LFB1:
 103:.\Generated_Source\PSoC5/CyFlash.c **** 
 104:.\Generated_Source\PSoC5/CyFlash.c **** 
 105:.\Generated_Source\PSoC5/CyFlash.c **** /*******************************************************************************
 106:.\Generated_Source\PSoC5/CyFlash.c **** * Function Name: CyFlash_Stop
 107:.\Generated_Source\PSoC5/CyFlash.c **** ********************************************************************************
 108:.\Generated_Source\PSoC5/CyFlash.c **** *
 109:.\Generated_Source\PSoC5/CyFlash.c **** * Summary:
 110:.\Generated_Source\PSoC5/CyFlash.c **** *  Disable the Flash.
 111:.\Generated_Source\PSoC5/CyFlash.c **** *
 112:.\Generated_Source\PSoC5/CyFlash.c **** * Parameters:
 113:.\Generated_Source\PSoC5/CyFlash.c **** *  None
 114:.\Generated_Source\PSoC5/CyFlash.c **** *
 115:.\Generated_Source\PSoC5/CyFlash.c **** * Return:
 116:.\Generated_Source\PSoC5/CyFlash.c **** *  None
 117:.\Generated_Source\PSoC5/CyFlash.c **** *
 118:.\Generated_Source\PSoC5/CyFlash.c **** * Side Effects:
 119:.\Generated_Source\PSoC5/CyFlash.c **** *  This setting is ignored as long as the CPU is currently running.  This will
 120:.\Generated_Source\PSoC5/CyFlash.c **** *  only take effect when the CPU is later disabled.
 121:.\Generated_Source\PSoC5/CyFlash.c **** *
 122:.\Generated_Source\PSoC5/CyFlash.c **** *******************************************************************************/
 123:.\Generated_Source\PSoC5/CyFlash.c **** void CyFlash_Stop(void) 
 124:.\Generated_Source\PSoC5/CyFlash.c **** {
  88              		.loc 1 124 0
  89              		.cfi_startproc
  90              		@ args = 0, pretend = 0, frame = 0
  91              		@ frame_needed = 0, uses_anonymous_args = 0
  92 0000 08B5     		push	{r3, lr}
  93              		.cfi_def_cfa_offset 8
  94              		.cfi_offset 3, -8
  95              		.cfi_offset 14, -4
 125:.\Generated_Source\PSoC5/CyFlash.c ****     uint8 interruptState;
 126:.\Generated_Source\PSoC5/CyFlash.c **** 
 127:.\Generated_Source\PSoC5/CyFlash.c ****     interruptState = CyEnterCriticalSection();
  96              		.loc 1 127 0
  97 0002 FFF7FEFF 		bl	CyEnterCriticalSection
ARM GAS  C:\Users\Yiquing\AppData\Local\Temp\ccgwqGZH.s 			page 5


  98              	.LVL2:
 128:.\Generated_Source\PSoC5/CyFlash.c **** 
 129:.\Generated_Source\PSoC5/CyFlash.c ****     CY_FLASH_PM_ACT_CFG12_REG    &= ((uint8)(~CY_FLASH_PM_ACT_CFG12_EN_FM));
  99              		.loc 1 129 0
 100 0006 064B     		ldr	r3, .L8
 101 0008 1A78     		ldrb	r2, [r3]	@ zero_extendqisi2
 102 000a 02F0F002 		and	r2, r2, #240
 103 000e 1A70     		strb	r2, [r3]
 130:.\Generated_Source\PSoC5/CyFlash.c ****     CY_FLASH_PM_ALTACT_CFG12_REG &= ((uint8)(~CY_FLASH_PM_ALTACT_CFG12_EN_FM));
 104              		.loc 1 130 0
 105 0010 1A7C     		ldrb	r2, [r3, #16]	@ zero_extendqisi2
 106 0012 02F0F002 		and	r2, r2, #240
 107 0016 1A74     		strb	r2, [r3, #16]
 131:.\Generated_Source\PSoC5/CyFlash.c **** 
 132:.\Generated_Source\PSoC5/CyFlash.c ****     CyExitCriticalSection(interruptState);
 133:.\Generated_Source\PSoC5/CyFlash.c **** }
 108              		.loc 1 133 0
 109 0018 BDE80840 		pop	{r3, lr}
 132:.\Generated_Source\PSoC5/CyFlash.c ****     CyExitCriticalSection(interruptState);
 110              		.loc 1 132 0
 111 001c FFF7FEBF 		b	CyExitCriticalSection
 112              	.LVL3:
 113              	.L9:
 114              		.align	2
 115              	.L8:
 116 0020 AC430040 		.word	1073759148
 117              		.cfi_endproc
 118              	.LFE1:
 119              		.size	CyFlash_Stop, .-CyFlash_Stop
 120              		.section	.text.CySetTemp,"ax",%progbits
 121              		.align	1
 122              		.global	CySetTemp
 123              		.thumb
 124              		.thumb_func
 125              		.type	CySetTemp, %function
 126              	CySetTemp:
 127              	.LFB4:
 134:.\Generated_Source\PSoC5/CyFlash.c **** 
 135:.\Generated_Source\PSoC5/CyFlash.c **** 
 136:.\Generated_Source\PSoC5/CyFlash.c **** /*******************************************************************************
 137:.\Generated_Source\PSoC5/CyFlash.c **** * Function Name: CySetTempInt
 138:.\Generated_Source\PSoC5/CyFlash.c **** ********************************************************************************
 139:.\Generated_Source\PSoC5/CyFlash.c **** *
 140:.\Generated_Source\PSoC5/CyFlash.c **** * Summary:
 141:.\Generated_Source\PSoC5/CyFlash.c **** *  Sends a command to the SPC to read the die temperature. Sets a global value
 142:.\Generated_Source\PSoC5/CyFlash.c **** *  used by the Write function. This function must be called once before
 143:.\Generated_Source\PSoC5/CyFlash.c **** *  executing a series of Flash writing functions.
 144:.\Generated_Source\PSoC5/CyFlash.c **** *
 145:.\Generated_Source\PSoC5/CyFlash.c **** * Parameters:
 146:.\Generated_Source\PSoC5/CyFlash.c **** *  None
 147:.\Generated_Source\PSoC5/CyFlash.c **** *
 148:.\Generated_Source\PSoC5/CyFlash.c **** * Return:
 149:.\Generated_Source\PSoC5/CyFlash.c **** *  status:
 150:.\Generated_Source\PSoC5/CyFlash.c **** *   CYRET_SUCCESS - if successful
 151:.\Generated_Source\PSoC5/CyFlash.c **** *   CYRET_LOCKED  - if Flash writing already in use
 152:.\Generated_Source\PSoC5/CyFlash.c **** *   CYRET_UNKNOWN - if there was an SPC error
 153:.\Generated_Source\PSoC5/CyFlash.c **** *
ARM GAS  C:\Users\Yiquing\AppData\Local\Temp\ccgwqGZH.s 			page 6


 154:.\Generated_Source\PSoC5/CyFlash.c **** *******************************************************************************/
 155:.\Generated_Source\PSoC5/CyFlash.c **** static cystatus CySetTempInt(void) 
 156:.\Generated_Source\PSoC5/CyFlash.c **** {
 157:.\Generated_Source\PSoC5/CyFlash.c ****     cystatus status;
 158:.\Generated_Source\PSoC5/CyFlash.c **** 
 159:.\Generated_Source\PSoC5/CyFlash.c ****     /* Make sure SPC is powered */
 160:.\Generated_Source\PSoC5/CyFlash.c ****     CySpcStart();
 161:.\Generated_Source\PSoC5/CyFlash.c **** 
 162:.\Generated_Source\PSoC5/CyFlash.c ****     /* Plan for failure. */
 163:.\Generated_Source\PSoC5/CyFlash.c ****     status = CYRET_UNKNOWN;
 164:.\Generated_Source\PSoC5/CyFlash.c **** 
 165:.\Generated_Source\PSoC5/CyFlash.c ****     if(CySpcLock() == CYRET_SUCCESS)
 166:.\Generated_Source\PSoC5/CyFlash.c ****     {
 167:.\Generated_Source\PSoC5/CyFlash.c ****         /* Write the command. */
 168:.\Generated_Source\PSoC5/CyFlash.c ****         if(CYRET_STARTED == CySpcGetTemp(CY_TEMP_NUMBER_OF_SAMPLES))
 169:.\Generated_Source\PSoC5/CyFlash.c ****         {
 170:.\Generated_Source\PSoC5/CyFlash.c ****             do
 171:.\Generated_Source\PSoC5/CyFlash.c ****             {
 172:.\Generated_Source\PSoC5/CyFlash.c ****                 if(CySpcReadData(dieTemperature, CY_FLASH_DIE_TEMP_DATA_SIZE) == CY_FLASH_DIE_TEMP_
 173:.\Generated_Source\PSoC5/CyFlash.c ****                 {
 174:.\Generated_Source\PSoC5/CyFlash.c ****                     status = CYRET_SUCCESS;
 175:.\Generated_Source\PSoC5/CyFlash.c **** 
 176:.\Generated_Source\PSoC5/CyFlash.c ****                     while(CY_SPC_BUSY)
 177:.\Generated_Source\PSoC5/CyFlash.c ****                     {
 178:.\Generated_Source\PSoC5/CyFlash.c ****                         /* Spin until idle. */
 179:.\Generated_Source\PSoC5/CyFlash.c ****                         CyDelayUs(1u);
 180:.\Generated_Source\PSoC5/CyFlash.c ****                     }
 181:.\Generated_Source\PSoC5/CyFlash.c ****                     break;
 182:.\Generated_Source\PSoC5/CyFlash.c ****                 }
 183:.\Generated_Source\PSoC5/CyFlash.c **** 
 184:.\Generated_Source\PSoC5/CyFlash.c ****             } while(CY_SPC_BUSY);
 185:.\Generated_Source\PSoC5/CyFlash.c ****         }
 186:.\Generated_Source\PSoC5/CyFlash.c **** 
 187:.\Generated_Source\PSoC5/CyFlash.c ****         CySpcUnlock();
 188:.\Generated_Source\PSoC5/CyFlash.c ****     }
 189:.\Generated_Source\PSoC5/CyFlash.c ****     else
 190:.\Generated_Source\PSoC5/CyFlash.c ****     {
 191:.\Generated_Source\PSoC5/CyFlash.c ****         status = CYRET_LOCKED;
 192:.\Generated_Source\PSoC5/CyFlash.c ****     }
 193:.\Generated_Source\PSoC5/CyFlash.c **** 
 194:.\Generated_Source\PSoC5/CyFlash.c ****     return (status);
 195:.\Generated_Source\PSoC5/CyFlash.c **** }
 196:.\Generated_Source\PSoC5/CyFlash.c **** 
 197:.\Generated_Source\PSoC5/CyFlash.c **** 
 198:.\Generated_Source\PSoC5/CyFlash.c **** /*******************************************************************************
 199:.\Generated_Source\PSoC5/CyFlash.c **** * Function Name: CyFlashGetSpcAlgorithm
 200:.\Generated_Source\PSoC5/CyFlash.c **** ********************************************************************************
 201:.\Generated_Source\PSoC5/CyFlash.c **** *
 202:.\Generated_Source\PSoC5/CyFlash.c **** * Summary:
 203:.\Generated_Source\PSoC5/CyFlash.c **** *  Sends a command to the SPC to download code into RAM.
 204:.\Generated_Source\PSoC5/CyFlash.c **** *
 205:.\Generated_Source\PSoC5/CyFlash.c **** * Parameters:
 206:.\Generated_Source\PSoC5/CyFlash.c **** *  None
 207:.\Generated_Source\PSoC5/CyFlash.c **** *
 208:.\Generated_Source\PSoC5/CyFlash.c **** * Return:
 209:.\Generated_Source\PSoC5/CyFlash.c **** *  status:
 210:.\Generated_Source\PSoC5/CyFlash.c **** *   CYRET_SUCCESS - if successful
ARM GAS  C:\Users\Yiquing\AppData\Local\Temp\ccgwqGZH.s 			page 7


 211:.\Generated_Source\PSoC5/CyFlash.c **** *   CYRET_LOCKED  - if Flash writing already in use
 212:.\Generated_Source\PSoC5/CyFlash.c **** *   CYRET_UNKNOWN - if there was an SPC error
 213:.\Generated_Source\PSoC5/CyFlash.c **** *
 214:.\Generated_Source\PSoC5/CyFlash.c **** *******************************************************************************/
 215:.\Generated_Source\PSoC5/CyFlash.c **** static cystatus CyFlashGetSpcAlgorithm(void) 
 216:.\Generated_Source\PSoC5/CyFlash.c **** {
 217:.\Generated_Source\PSoC5/CyFlash.c ****     cystatus status;
 218:.\Generated_Source\PSoC5/CyFlash.c **** 
 219:.\Generated_Source\PSoC5/CyFlash.c ****     /* Make sure SPC is powered */
 220:.\Generated_Source\PSoC5/CyFlash.c ****     CySpcStart();
 221:.\Generated_Source\PSoC5/CyFlash.c **** 
 222:.\Generated_Source\PSoC5/CyFlash.c ****     if(CySpcLock() == CYRET_SUCCESS)
 223:.\Generated_Source\PSoC5/CyFlash.c ****     {
 224:.\Generated_Source\PSoC5/CyFlash.c ****         status = CySpcGetAlgorithm();
 225:.\Generated_Source\PSoC5/CyFlash.c **** 
 226:.\Generated_Source\PSoC5/CyFlash.c ****         if(CYRET_STARTED == status)
 227:.\Generated_Source\PSoC5/CyFlash.c ****         {
 228:.\Generated_Source\PSoC5/CyFlash.c ****             while(CY_SPC_BUSY)
 229:.\Generated_Source\PSoC5/CyFlash.c ****             {
 230:.\Generated_Source\PSoC5/CyFlash.c ****                 /* Spin until idle. */
 231:.\Generated_Source\PSoC5/CyFlash.c ****                 CyDelayUs(1u);
 232:.\Generated_Source\PSoC5/CyFlash.c ****             }
 233:.\Generated_Source\PSoC5/CyFlash.c **** 
 234:.\Generated_Source\PSoC5/CyFlash.c ****             if(CY_SPC_STATUS_SUCCESS == CY_SPC_READ_STATUS)
 235:.\Generated_Source\PSoC5/CyFlash.c ****             {
 236:.\Generated_Source\PSoC5/CyFlash.c ****                 status = CYRET_SUCCESS;
 237:.\Generated_Source\PSoC5/CyFlash.c ****             }
 238:.\Generated_Source\PSoC5/CyFlash.c ****         }
 239:.\Generated_Source\PSoC5/CyFlash.c ****         CySpcUnlock();
 240:.\Generated_Source\PSoC5/CyFlash.c ****     }
 241:.\Generated_Source\PSoC5/CyFlash.c ****     else
 242:.\Generated_Source\PSoC5/CyFlash.c ****     {
 243:.\Generated_Source\PSoC5/CyFlash.c ****         status = CYRET_LOCKED;
 244:.\Generated_Source\PSoC5/CyFlash.c ****     }
 245:.\Generated_Source\PSoC5/CyFlash.c **** 
 246:.\Generated_Source\PSoC5/CyFlash.c ****     return (status);
 247:.\Generated_Source\PSoC5/CyFlash.c **** }
 248:.\Generated_Source\PSoC5/CyFlash.c **** 
 249:.\Generated_Source\PSoC5/CyFlash.c **** 
 250:.\Generated_Source\PSoC5/CyFlash.c **** /*******************************************************************************
 251:.\Generated_Source\PSoC5/CyFlash.c **** * Function Name: CySetTemp
 252:.\Generated_Source\PSoC5/CyFlash.c **** ********************************************************************************
 253:.\Generated_Source\PSoC5/CyFlash.c **** *
 254:.\Generated_Source\PSoC5/CyFlash.c **** * Summary:
 255:.\Generated_Source\PSoC5/CyFlash.c **** *  This is a wraparound for CySetTempInt(). It is used to return the second
 256:.\Generated_Source\PSoC5/CyFlash.c **** *  successful read of the temperature value.
 257:.\Generated_Source\PSoC5/CyFlash.c **** *
 258:.\Generated_Source\PSoC5/CyFlash.c **** * Parameters:
 259:.\Generated_Source\PSoC5/CyFlash.c **** *  None
 260:.\Generated_Source\PSoC5/CyFlash.c **** *
 261:.\Generated_Source\PSoC5/CyFlash.c **** * Return:
 262:.\Generated_Source\PSoC5/CyFlash.c **** *  status:
 263:.\Generated_Source\PSoC5/CyFlash.c **** *   CYRET_SUCCESS if successful.
 264:.\Generated_Source\PSoC5/CyFlash.c **** *   CYRET_LOCKED  if Flash writing already in use
 265:.\Generated_Source\PSoC5/CyFlash.c **** *   CYRET_UNKNOWN if there was an SPC error.
 266:.\Generated_Source\PSoC5/CyFlash.c **** *
 267:.\Generated_Source\PSoC5/CyFlash.c **** *  uint8 dieTemperature[2]:
ARM GAS  C:\Users\Yiquing\AppData\Local\Temp\ccgwqGZH.s 			page 8


 268:.\Generated_Source\PSoC5/CyFlash.c **** *   Holds the die temperature for the flash writing algorithm. The first byte is
 269:.\Generated_Source\PSoC5/CyFlash.c **** *   the sign of the temperature (0 = negative, 1 = positive). The second byte is
 270:.\Generated_Source\PSoC5/CyFlash.c **** *   the magnitude.
 271:.\Generated_Source\PSoC5/CyFlash.c **** *
 272:.\Generated_Source\PSoC5/CyFlash.c **** *******************************************************************************/
 273:.\Generated_Source\PSoC5/CyFlash.c **** cystatus CySetTemp(void) 
 274:.\Generated_Source\PSoC5/CyFlash.c **** {
 128              		.loc 1 274 0
 129              		.cfi_startproc
 130              		@ args = 0, pretend = 0, frame = 0
 131              		@ frame_needed = 0, uses_anonymous_args = 0
 132 0000 38B5     		push	{r3, r4, r5, lr}
 133              		.cfi_def_cfa_offset 16
 134              		.cfi_offset 3, -16
 135              		.cfi_offset 4, -12
 136              		.cfi_offset 5, -8
 137              		.cfi_offset 14, -4
 138              	.LBB6:
 139              	.LBB7:
 220:.\Generated_Source\PSoC5/CyFlash.c ****     CySpcStart();
 140              		.loc 1 220 0
 141 0002 FFF7FEFF 		bl	CySpcStart
 142              	.LVL4:
 222:.\Generated_Source\PSoC5/CyFlash.c ****     if(CySpcLock() == CYRET_SUCCESS)
 143              		.loc 1 222 0
 144 0006 FFF7FEFF 		bl	CySpcLock
 145              	.LVL5:
 146 000a 0028     		cmp	r0, #0
 147 000c 38D1     		bne	.L23
 224:.\Generated_Source\PSoC5/CyFlash.c ****         status = CySpcGetAlgorithm();
 148              		.loc 1 224 0
 149 000e FFF7FEFF 		bl	CySpcGetAlgorithm
 150              	.LVL6:
 226:.\Generated_Source\PSoC5/CyFlash.c ****         if(CYRET_STARTED == status)
 151              		.loc 1 226 0
 152 0012 0728     		cmp	r0, #7
 224:.\Generated_Source\PSoC5/CyFlash.c ****         status = CySpcGetAlgorithm();
 153              		.loc 1 224 0
 154 0014 0446     		mov	r4, r0
 155              	.LVL7:
 226:.\Generated_Source\PSoC5/CyFlash.c ****         if(CYRET_STARTED == status)
 156              		.loc 1 226 0
 157 0016 0FD1     		bne	.L12
 158              	.LVL8:
 159              	.L13:
 228:.\Generated_Source\PSoC5/CyFlash.c ****             while(CY_SPC_BUSY)
 160              		.loc 1 228 0
 161 0018 1B4B     		ldr	r3, .L31
 162 001a 1A78     		ldrb	r2, [r3]	@ zero_extendqisi2
 163 001c 9007     		lsls	r0, r2, #30
 164 001e 03D4     		bmi	.L30
 231:.\Generated_Source\PSoC5/CyFlash.c ****                 CyDelayUs(1u);
 165              		.loc 1 231 0
 166 0020 0120     		movs	r0, #1
 167 0022 FFF7FEFF 		bl	CyDelayUs
 168              	.LVL9:
 169 0026 F7E7     		b	.L13
ARM GAS  C:\Users\Yiquing\AppData\Local\Temp\ccgwqGZH.s 			page 9


 170              	.L30:
 234:.\Generated_Source\PSoC5/CyFlash.c ****             if(CY_SPC_STATUS_SUCCESS == CY_SPC_READ_STATUS)
 171              		.loc 1 234 0
 172 0028 1A78     		ldrb	r2, [r3]	@ zero_extendqisi2
 173 002a 9107     		lsls	r1, r2, #30
 174 002c 04D5     		bpl	.L12
 175 002e 1B78     		ldrb	r3, [r3]	@ zero_extendqisi2
 236:.\Generated_Source\PSoC5/CyFlash.c ****                 status = CYRET_SUCCESS;
 176              		.loc 1 236 0
 177 0030 9B08     		lsrs	r3, r3, #2
 178 0032 14BF     		ite	ne
 179 0034 0724     		movne	r4, #7
 180 0036 0024     		moveq	r4, #0
 181              	.LVL10:
 182              	.L12:
 239:.\Generated_Source\PSoC5/CyFlash.c ****         CySpcUnlock();
 183              		.loc 1 239 0
 184 0038 FFF7FEFF 		bl	CySpcUnlock
 185              	.LVL11:
 186              	.LBE7:
 187              	.LBE6:
 275:.\Generated_Source\PSoC5/CyFlash.c ****     cystatus status = CyFlashGetSpcAlgorithm();
 276:.\Generated_Source\PSoC5/CyFlash.c **** 
 277:.\Generated_Source\PSoC5/CyFlash.c ****     if(status == CYRET_SUCCESS)
 188              		.loc 1 277 0
 189 003c 0CBB     		cbnz	r4, .L11
 190              	.LVL12:
 191              	.LBB9:
 192              	.LBB10:
 160:.\Generated_Source\PSoC5/CyFlash.c ****     CySpcStart();
 193              		.loc 1 160 0
 194 003e FFF7FEFF 		bl	CySpcStart
 195              	.LVL13:
 165:.\Generated_Source\PSoC5/CyFlash.c ****     if(CySpcLock() == CYRET_SUCCESS)
 196              		.loc 1 165 0
 197 0042 FFF7FEFF 		bl	CySpcLock
 198              	.LVL14:
 199 0046 D8B9     		cbnz	r0, .L23
 168:.\Generated_Source\PSoC5/CyFlash.c ****         if(CYRET_STARTED == CySpcGetTemp(CY_TEMP_NUMBER_OF_SAMPLES))
 200              		.loc 1 168 0
 201 0048 0120     		movs	r0, #1
 202 004a FFF7FEFF 		bl	CySpcGetTemp
 203              	.LVL15:
 204 004e 0728     		cmp	r0, #7
 205 0050 05D0     		beq	.L22
 206              	.L21:
 163:.\Generated_Source\PSoC5/CyFlash.c ****     status = CYRET_UNKNOWN;
 207              		.loc 1 163 0
 208 0052 4FF0FF34 		mov	r4, #-1
 209 0056 10E0     		b	.L17
 210              	.L18:
 184:.\Generated_Source\PSoC5/CyFlash.c ****             } while(CY_SPC_BUSY);
 211              		.loc 1 184 0
 212 0058 2B78     		ldrb	r3, [r5]	@ zero_extendqisi2
 213 005a 9B07     		lsls	r3, r3, #30
 214 005c F9D4     		bmi	.L21
 215              	.L22:
ARM GAS  C:\Users\Yiquing\AppData\Local\Temp\ccgwqGZH.s 			page 10


 172:.\Generated_Source\PSoC5/CyFlash.c ****                 if(CySpcReadData(dieTemperature, CY_FLASH_DIE_TEMP_DATA_SIZE) == CY_FLASH_DIE_TEMP_
 216              		.loc 1 172 0
 217 005e 0B48     		ldr	r0, .L31+4
 218 0060 0221     		movs	r1, #2
 219 0062 FFF7FEFF 		bl	CySpcReadData
 220              	.LVL16:
 221 0066 0228     		cmp	r0, #2
 222 0068 074D     		ldr	r5, .L31
 223 006a F5D1     		bne	.L18
 224              	.L19:
 176:.\Generated_Source\PSoC5/CyFlash.c ****                     while(CY_SPC_BUSY)
 225              		.loc 1 176 0
 226 006c 2B78     		ldrb	r3, [r5]	@ zero_extendqisi2
 227 006e 9A07     		lsls	r2, r3, #30
 228 0070 03D4     		bmi	.L17
 179:.\Generated_Source\PSoC5/CyFlash.c ****                         CyDelayUs(1u);
 229              		.loc 1 179 0
 230 0072 0120     		movs	r0, #1
 231 0074 FFF7FEFF 		bl	CyDelayUs
 232              	.LVL17:
 233 0078 F8E7     		b	.L19
 234              	.L17:
 235              	.LVL18:
 187:.\Generated_Source\PSoC5/CyFlash.c ****         CySpcUnlock();
 236              		.loc 1 187 0
 237 007a FFF7FEFF 		bl	CySpcUnlock
 238              	.LVL19:
 239 007e 00E0     		b	.L11
 240              	.LVL20:
 241              	.L23:
 242              	.LBE10:
 243              	.LBE9:
 244              	.LBB11:
 245              	.LBB8:
 243:.\Generated_Source\PSoC5/CyFlash.c ****         status = CYRET_LOCKED;
 246              		.loc 1 243 0
 247 0080 0424     		movs	r4, #4
 248              	.L11:
 249              	.LVL21:
 250              	.LBE8:
 251              	.LBE11:
 278:.\Generated_Source\PSoC5/CyFlash.c ****     {
 279:.\Generated_Source\PSoC5/CyFlash.c ****         status = CySetTempInt();
 280:.\Generated_Source\PSoC5/CyFlash.c ****     }
 281:.\Generated_Source\PSoC5/CyFlash.c **** 
 282:.\Generated_Source\PSoC5/CyFlash.c ****     return (status);
 283:.\Generated_Source\PSoC5/CyFlash.c **** }
 252              		.loc 1 283 0
 253 0082 2046     		mov	r0, r4
 254 0084 38BD     		pop	{r3, r4, r5, pc}
 255              	.LVL22:
 256              	.L32:
 257 0086 00BF     		.align	2
 258              	.L31:
 259 0088 22470040 		.word	1073760034
 260 008c 00000000 		.word	dieTemperature
 261              		.cfi_endproc
ARM GAS  C:\Users\Yiquing\AppData\Local\Temp\ccgwqGZH.s 			page 11


 262              	.LFE4:
 263              		.size	CySetTemp, .-CySetTemp
 264              		.section	.text.CySetFlashEEBuffer,"ax",%progbits
 265              		.align	1
 266              		.global	CySetFlashEEBuffer
 267              		.thumb
 268              		.thumb_func
 269              		.type	CySetFlashEEBuffer, %function
 270              	CySetFlashEEBuffer:
 271              	.LFB5:
 284:.\Generated_Source\PSoC5/CyFlash.c **** 
 285:.\Generated_Source\PSoC5/CyFlash.c **** 
 286:.\Generated_Source\PSoC5/CyFlash.c **** /*******************************************************************************
 287:.\Generated_Source\PSoC5/CyFlash.c **** * Function Name: CySetFlashEEBuffer
 288:.\Generated_Source\PSoC5/CyFlash.c **** ********************************************************************************
 289:.\Generated_Source\PSoC5/CyFlash.c **** *
 290:.\Generated_Source\PSoC5/CyFlash.c **** * Summary:
 291:.\Generated_Source\PSoC5/CyFlash.c **** *  Sets the user supplied temporary buffer to store SPC data while performing
 292:.\Generated_Source\PSoC5/CyFlash.c **** *  Flash and EEPROM commands. This buffer is only necessary when the Flash ECC
 293:.\Generated_Source\PSoC5/CyFlash.c **** *  is disabled.
 294:.\Generated_Source\PSoC5/CyFlash.c **** *
 295:.\Generated_Source\PSoC5/CyFlash.c **** * Parameters:
 296:.\Generated_Source\PSoC5/CyFlash.c **** *  buffer:
 297:.\Generated_Source\PSoC5/CyFlash.c **** *   The address of a block of memory to store temporary memory. The size of the
 298:.\Generated_Source\PSoC5/CyFlash.c **** *   block of memory is CYDEV_FLS_ROW_SIZE + CYDEV_ECC_ROW_SIZE.
 299:.\Generated_Source\PSoC5/CyFlash.c **** *
 300:.\Generated_Source\PSoC5/CyFlash.c **** * Return:
 301:.\Generated_Source\PSoC5/CyFlash.c **** *  status:
 302:.\Generated_Source\PSoC5/CyFlash.c **** *   CYRET_SUCCESS if successful.
 303:.\Generated_Source\PSoC5/CyFlash.c **** *   CYRET_BAD_PARAM if the buffer is NULL
 304:.\Generated_Source\PSoC5/CyFlash.c **** *
 305:.\Generated_Source\PSoC5/CyFlash.c **** *******************************************************************************/
 306:.\Generated_Source\PSoC5/CyFlash.c **** cystatus CySetFlashEEBuffer(uint8 * buffer) 
 307:.\Generated_Source\PSoC5/CyFlash.c **** {
 272              		.loc 1 307 0
 273              		.cfi_startproc
 274              		@ args = 0, pretend = 0, frame = 0
 275              		@ frame_needed = 0, uses_anonymous_args = 0
 276              	.LVL23:
 277 0000 38B5     		push	{r3, r4, r5, lr}
 278              		.cfi_def_cfa_offset 16
 279              		.cfi_offset 3, -16
 280              		.cfi_offset 4, -12
 281              		.cfi_offset 5, -8
 282              		.cfi_offset 14, -4
 283              		.loc 1 307 0
 284 0002 0446     		mov	r4, r0
 308:.\Generated_Source\PSoC5/CyFlash.c ****     cystatus status = CYRET_SUCCESS;
 309:.\Generated_Source\PSoC5/CyFlash.c **** 
 310:.\Generated_Source\PSoC5/CyFlash.c ****     CySpcStart();
 285              		.loc 1 310 0
 286 0004 FFF7FEFF 		bl	CySpcStart
 287              	.LVL24:
 311:.\Generated_Source\PSoC5/CyFlash.c **** 
 312:.\Generated_Source\PSoC5/CyFlash.c ****     #if(CYDEV_ECC_ENABLE == 0)
 313:.\Generated_Source\PSoC5/CyFlash.c **** 
 314:.\Generated_Source\PSoC5/CyFlash.c ****         if(NULL == buffer)
ARM GAS  C:\Users\Yiquing\AppData\Local\Temp\ccgwqGZH.s 			page 12


 288              		.loc 1 314 0
 289 0008 4CB1     		cbz	r4, .L35
 315:.\Generated_Source\PSoC5/CyFlash.c ****         {
 316:.\Generated_Source\PSoC5/CyFlash.c ****             rowBuffer = rowBuffer;
 317:.\Generated_Source\PSoC5/CyFlash.c ****             status = CYRET_BAD_PARAM;
 318:.\Generated_Source\PSoC5/CyFlash.c ****         }
 319:.\Generated_Source\PSoC5/CyFlash.c ****         else if(CySpcLock() != CYRET_SUCCESS)
 290              		.loc 1 319 0
 291 000a FFF7FEFF 		bl	CySpcLock
 292              	.LVL25:
 293 000e 0546     		mov	r5, r0
 294 0010 38B9     		cbnz	r0, .L36
 320:.\Generated_Source\PSoC5/CyFlash.c ****         {
 321:.\Generated_Source\PSoC5/CyFlash.c ****             rowBuffer = rowBuffer;
 322:.\Generated_Source\PSoC5/CyFlash.c ****             status = CYRET_LOCKED;
 323:.\Generated_Source\PSoC5/CyFlash.c ****         }
 324:.\Generated_Source\PSoC5/CyFlash.c ****         else
 325:.\Generated_Source\PSoC5/CyFlash.c ****         {
 326:.\Generated_Source\PSoC5/CyFlash.c ****             rowBuffer = buffer;
 295              		.loc 1 326 0
 296 0012 054B     		ldr	r3, .L37
 297 0014 1C60     		str	r4, [r3]
 327:.\Generated_Source\PSoC5/CyFlash.c ****             CySpcUnlock();
 298              		.loc 1 327 0
 299 0016 FFF7FEFF 		bl	CySpcUnlock
 300              	.LVL26:
 308:.\Generated_Source\PSoC5/CyFlash.c ****     cystatus status = CYRET_SUCCESS;
 301              		.loc 1 308 0
 302 001a 2846     		mov	r0, r5
 303 001c 38BD     		pop	{r3, r4, r5, pc}
 304              	.LVL27:
 305              	.L35:
 317:.\Generated_Source\PSoC5/CyFlash.c ****             status = CYRET_BAD_PARAM;
 306              		.loc 1 317 0
 307 001e 0120     		movs	r0, #1
 308 0020 38BD     		pop	{r3, r4, r5, pc}
 309              	.LVL28:
 310              	.L36:
 322:.\Generated_Source\PSoC5/CyFlash.c ****             status = CYRET_LOCKED;
 311              		.loc 1 322 0
 312 0022 0420     		movs	r0, #4
 313              	.LVL29:
 328:.\Generated_Source\PSoC5/CyFlash.c ****         }
 329:.\Generated_Source\PSoC5/CyFlash.c **** 
 330:.\Generated_Source\PSoC5/CyFlash.c ****     #else
 331:.\Generated_Source\PSoC5/CyFlash.c **** 
 332:.\Generated_Source\PSoC5/CyFlash.c ****         /* To suppress warning */
 333:.\Generated_Source\PSoC5/CyFlash.c ****         buffer = buffer;
 334:.\Generated_Source\PSoC5/CyFlash.c **** 
 335:.\Generated_Source\PSoC5/CyFlash.c ****     #endif  /* (CYDEV_ECC_ENABLE == 0u) */
 336:.\Generated_Source\PSoC5/CyFlash.c **** 
 337:.\Generated_Source\PSoC5/CyFlash.c ****     return(status);
 338:.\Generated_Source\PSoC5/CyFlash.c **** }
 314              		.loc 1 338 0
 315 0024 38BD     		pop	{r3, r4, r5, pc}
 316              	.LVL30:
 317              	.L38:
ARM GAS  C:\Users\Yiquing\AppData\Local\Temp\ccgwqGZH.s 			page 13


 318 0026 00BF     		.align	2
 319              	.L37:
 320 0028 00000000 		.word	.LANCHOR0
 321              		.cfi_endproc
 322              	.LFE5:
 323              		.size	CySetFlashEEBuffer, .-CySetFlashEEBuffer
 324              		.section	.text.CyWriteRowFull,"ax",%progbits
 325              		.align	1
 326              		.global	CyWriteRowFull
 327              		.thumb
 328              		.thumb_func
 329              		.type	CyWriteRowFull, %function
 330              	CyWriteRowFull:
 331              	.LFB7:
 339:.\Generated_Source\PSoC5/CyFlash.c **** 
 340:.\Generated_Source\PSoC5/CyFlash.c **** 
 341:.\Generated_Source\PSoC5/CyFlash.c **** /*******************************************************************************
 342:.\Generated_Source\PSoC5/CyFlash.c **** * Function Name: CyWriteRowData
 343:.\Generated_Source\PSoC5/CyFlash.c **** ********************************************************************************
 344:.\Generated_Source\PSoC5/CyFlash.c **** *
 345:.\Generated_Source\PSoC5/CyFlash.c **** * Summary:
 346:.\Generated_Source\PSoC5/CyFlash.c **** *  Sends a command to the SPC to load and program a row of data in
 347:.\Generated_Source\PSoC5/CyFlash.c **** *  Flash or EEPROM.
 348:.\Generated_Source\PSoC5/CyFlash.c **** *
 349:.\Generated_Source\PSoC5/CyFlash.c **** * Parameters:
 350:.\Generated_Source\PSoC5/CyFlash.c **** *  arrayID:    ID of the array to write.
 351:.\Generated_Source\PSoC5/CyFlash.c **** *   The type of write, Flash or EEPROM, is determined from the array ID.
 352:.\Generated_Source\PSoC5/CyFlash.c **** *   The arrays in the part are sequential starting at the first ID for the
 353:.\Generated_Source\PSoC5/CyFlash.c **** *   specific memory type. The array ID for the Flash memory lasts from 0x00 to
 354:.\Generated_Source\PSoC5/CyFlash.c **** *   0x3F and for the EEPROM memory it lasts from 0x40 to 0x7F.
 355:.\Generated_Source\PSoC5/CyFlash.c **** *  rowAddress: rowAddress of flash row to program.
 356:.\Generated_Source\PSoC5/CyFlash.c **** *  rowData:    Array of bytes to write.
 357:.\Generated_Source\PSoC5/CyFlash.c **** *
 358:.\Generated_Source\PSoC5/CyFlash.c **** * Return:
 359:.\Generated_Source\PSoC5/CyFlash.c **** *  status:
 360:.\Generated_Source\PSoC5/CyFlash.c **** *   CYRET_SUCCESS if successful.
 361:.\Generated_Source\PSoC5/CyFlash.c **** *   CYRET_LOCKED if the SPC is already in use.
 362:.\Generated_Source\PSoC5/CyFlash.c **** *   CYRET_CANCELED if command not accepted
 363:.\Generated_Source\PSoC5/CyFlash.c **** *   CYRET_UNKNOWN if there was an SPC error.
 364:.\Generated_Source\PSoC5/CyFlash.c **** *
 365:.\Generated_Source\PSoC5/CyFlash.c **** *******************************************************************************/
 366:.\Generated_Source\PSoC5/CyFlash.c **** cystatus CyWriteRowData(uint8 arrayId, uint16 rowAddress, const uint8 * rowData) 
 367:.\Generated_Source\PSoC5/CyFlash.c **** {
 368:.\Generated_Source\PSoC5/CyFlash.c ****     uint16 rowSize;
 369:.\Generated_Source\PSoC5/CyFlash.c ****     cystatus status;
 370:.\Generated_Source\PSoC5/CyFlash.c **** 
 371:.\Generated_Source\PSoC5/CyFlash.c ****     rowSize = (arrayId > CY_SPC_LAST_FLASH_ARRAYID) ? CYDEV_EEPROM_ROW_SIZE : CYDEV_FLS_ROW_SIZE;
 372:.\Generated_Source\PSoC5/CyFlash.c ****     status = CyWriteRowFull(arrayId, rowAddress, rowData, rowSize);
 373:.\Generated_Source\PSoC5/CyFlash.c **** 
 374:.\Generated_Source\PSoC5/CyFlash.c ****     return(status);
 375:.\Generated_Source\PSoC5/CyFlash.c **** }
 376:.\Generated_Source\PSoC5/CyFlash.c **** 
 377:.\Generated_Source\PSoC5/CyFlash.c **** 
 378:.\Generated_Source\PSoC5/CyFlash.c **** /*******************************************************************
 379:.\Generated_Source\PSoC5/CyFlash.c **** * If "Enable Error Correcting Code (ECC)" and "Store Configuration
 380:.\Generated_Source\PSoC5/CyFlash.c **** * Data in ECC" DWR options are disabled, ECC section is available
 381:.\Generated_Source\PSoC5/CyFlash.c **** * for user data.
ARM GAS  C:\Users\Yiquing\AppData\Local\Temp\ccgwqGZH.s 			page 14


 382:.\Generated_Source\PSoC5/CyFlash.c **** *******************************************************************/
 383:.\Generated_Source\PSoC5/CyFlash.c **** #if ((CYDEV_ECC_ENABLE == 0u) && (CYDEV_CONFIGURATION_ECC == 0u))
 384:.\Generated_Source\PSoC5/CyFlash.c **** 
 385:.\Generated_Source\PSoC5/CyFlash.c ****     /*******************************************************************************
 386:.\Generated_Source\PSoC5/CyFlash.c ****     * Function Name: CyWriteRowConfig
 387:.\Generated_Source\PSoC5/CyFlash.c ****     ********************************************************************************
 388:.\Generated_Source\PSoC5/CyFlash.c ****     *
 389:.\Generated_Source\PSoC5/CyFlash.c ****     * Summary:
 390:.\Generated_Source\PSoC5/CyFlash.c ****     *  Sends a command to the SPC to load and program a row of config data in the
 391:.\Generated_Source\PSoC5/CyFlash.c ****     *  Flash. This function is only valid for Flash array IDs (not for EEPROM).
 392:.\Generated_Source\PSoC5/CyFlash.c ****     *
 393:.\Generated_Source\PSoC5/CyFlash.c ****     * Parameters:
 394:.\Generated_Source\PSoC5/CyFlash.c ****     *  arrayId:      ID of the array to write
 395:.\Generated_Source\PSoC5/CyFlash.c ****     *   The arrays in the part are sequential starting at the first ID for the
 396:.\Generated_Source\PSoC5/CyFlash.c ****     *   specific memory type. The array ID for the Flash memory lasts
 397:.\Generated_Source\PSoC5/CyFlash.c ****     *   from 0x00 to 0x3F.
 398:.\Generated_Source\PSoC5/CyFlash.c ****     *  rowAddress:   The address of the sector to erase.
 399:.\Generated_Source\PSoC5/CyFlash.c ****     *  rowECC:       The array of bytes to write.
 400:.\Generated_Source\PSoC5/CyFlash.c ****     *
 401:.\Generated_Source\PSoC5/CyFlash.c ****     * Return:
 402:.\Generated_Source\PSoC5/CyFlash.c ****     *  status:
 403:.\Generated_Source\PSoC5/CyFlash.c ****     *   CYRET_SUCCESS if successful.
 404:.\Generated_Source\PSoC5/CyFlash.c ****     *   CYRET_LOCKED if the SPC is already in use.
 405:.\Generated_Source\PSoC5/CyFlash.c ****     *   CYRET_CANCELED if command not accepted
 406:.\Generated_Source\PSoC5/CyFlash.c ****     *   CYRET_UNKNOWN if there was an SPC error.
 407:.\Generated_Source\PSoC5/CyFlash.c ****     *
 408:.\Generated_Source\PSoC5/CyFlash.c ****     *******************************************************************************/
 409:.\Generated_Source\PSoC5/CyFlash.c ****     cystatus CyWriteRowConfig(uint8 arrayId, uint16 rowAddress, const uint8 * rowECC)\
 410:.\Generated_Source\PSoC5/CyFlash.c ****     
 411:.\Generated_Source\PSoC5/CyFlash.c ****     {
 412:.\Generated_Source\PSoC5/CyFlash.c ****         cystatus status;
 413:.\Generated_Source\PSoC5/CyFlash.c **** 
 414:.\Generated_Source\PSoC5/CyFlash.c ****         status = CyWriteRowFull(arrayId, rowAddress, rowECC, CYDEV_ECC_ROW_SIZE);
 415:.\Generated_Source\PSoC5/CyFlash.c **** 
 416:.\Generated_Source\PSoC5/CyFlash.c ****         return (status);
 417:.\Generated_Source\PSoC5/CyFlash.c ****     }
 418:.\Generated_Source\PSoC5/CyFlash.c **** 
 419:.\Generated_Source\PSoC5/CyFlash.c **** #endif  /* ((CYDEV_ECC_ENABLE == 0u) && (CYDEV_CONFIGURATION_ECC == 0u)) */
 420:.\Generated_Source\PSoC5/CyFlash.c **** 
 421:.\Generated_Source\PSoC5/CyFlash.c **** 
 422:.\Generated_Source\PSoC5/CyFlash.c **** 
 423:.\Generated_Source\PSoC5/CyFlash.c **** /*******************************************************************************
 424:.\Generated_Source\PSoC5/CyFlash.c **** * Function Name: CyWriteRowFull
 425:.\Generated_Source\PSoC5/CyFlash.c **** ********************************************************************************
 426:.\Generated_Source\PSoC5/CyFlash.c **** * Summary:
 427:.\Generated_Source\PSoC5/CyFlash.c **** *  Sends a command to the SPC to load and program a row of data in the Flash.
 428:.\Generated_Source\PSoC5/CyFlash.c **** *  rowData array is expected to contain Flash and ECC data if needed.
 429:.\Generated_Source\PSoC5/CyFlash.c **** *
 430:.\Generated_Source\PSoC5/CyFlash.c **** * Parameters:
 431:.\Generated_Source\PSoC5/CyFlash.c **** *  arrayId:    FLASH or EEPROM array id.
 432:.\Generated_Source\PSoC5/CyFlash.c **** *  rowData:    Pointer to a row of data to write.
 433:.\Generated_Source\PSoC5/CyFlash.c **** *  rowNumber:  Zero based number of the row.
 434:.\Generated_Source\PSoC5/CyFlash.c **** *  rowSize:    Size of the row.
 435:.\Generated_Source\PSoC5/CyFlash.c **** *
 436:.\Generated_Source\PSoC5/CyFlash.c **** * Return:
 437:.\Generated_Source\PSoC5/CyFlash.c **** *  CYRET_SUCCESS if successful.
 438:.\Generated_Source\PSoC5/CyFlash.c **** *  CYRET_LOCKED if the SPC is already in use.
ARM GAS  C:\Users\Yiquing\AppData\Local\Temp\ccgwqGZH.s 			page 15


 439:.\Generated_Source\PSoC5/CyFlash.c **** *  CYRET_CANCELED if command not accepted
 440:.\Generated_Source\PSoC5/CyFlash.c **** *  CYRET_UNKNOWN if there was an SPC error.
 441:.\Generated_Source\PSoC5/CyFlash.c **** *
 442:.\Generated_Source\PSoC5/CyFlash.c **** *******************************************************************************/
 443:.\Generated_Source\PSoC5/CyFlash.c **** cystatus CyWriteRowFull(uint8 arrayId, uint16 rowNumber, const uint8* rowData, uint16 rowSize) \
 444:.\Generated_Source\PSoC5/CyFlash.c ****         
 445:.\Generated_Source\PSoC5/CyFlash.c **** {
 332              		.loc 1 445 0
 333              		.cfi_startproc
 334              		@ args = 0, pretend = 0, frame = 0
 335              		@ frame_needed = 0, uses_anonymous_args = 0
 336              	.LVL31:
 446:.\Generated_Source\PSoC5/CyFlash.c ****     cystatus status = CYRET_SUCCESS;
 447:.\Generated_Source\PSoC5/CyFlash.c **** 
 448:.\Generated_Source\PSoC5/CyFlash.c ****     if((arrayId <=  CY_SPC_LAST_FLASH_ARRAYID) && (arrayId > (CY_FLASH_NUMBER_ARRAYS  + CY_SPC_FIRS
 449:.\Generated_Source\PSoC5/CyFlash.c ****     {
 450:.\Generated_Source\PSoC5/CyFlash.c ****         status = CYRET_BAD_PARAM;
 451:.\Generated_Source\PSoC5/CyFlash.c ****     }
 452:.\Generated_Source\PSoC5/CyFlash.c **** 
 453:.\Generated_Source\PSoC5/CyFlash.c ****     if(arrayId > CY_SPC_LAST_EE_ARRAYID)
 454:.\Generated_Source\PSoC5/CyFlash.c ****     {
 455:.\Generated_Source\PSoC5/CyFlash.c ****         status = CYRET_BAD_PARAM;
 456:.\Generated_Source\PSoC5/CyFlash.c ****     }
 457:.\Generated_Source\PSoC5/CyFlash.c **** 
 458:.\Generated_Source\PSoC5/CyFlash.c ****     if((arrayId >= CY_SPC_FIRST_EE_ARRAYID) && (arrayId > (CY_FLASH_EEPROM_NUMBER_ARRAYS + CY_SPC_F
 337              		.loc 1 458 0
 338 0000 4128     		cmp	r0, #65
 445:.\Generated_Source\PSoC5/CyFlash.c **** {
 339              		.loc 1 445 0
 340 0002 F8B5     		push	{r3, r4, r5, r6, r7, lr}
 341              		.cfi_def_cfa_offset 24
 342              		.cfi_offset 3, -24
 343              		.cfi_offset 4, -20
 344              		.cfi_offset 5, -16
 345              		.cfi_offset 6, -12
 346              		.cfi_offset 7, -8
 347              		.cfi_offset 14, -4
 445:.\Generated_Source\PSoC5/CyFlash.c **** {
 348              		.loc 1 445 0
 349 0004 0546     		mov	r5, r0
 350 0006 0E46     		mov	r6, r1
 351 0008 1746     		mov	r7, r2
 352 000a 1C46     		mov	r4, r3
 353              		.loc 1 458 0
 354 000c 0AD8     		bhi	.L50
 448:.\Generated_Source\PSoC5/CyFlash.c ****     if((arrayId <=  CY_SPC_LAST_FLASH_ARRAYID) && (arrayId > (CY_FLASH_NUMBER_ARRAYS  + CY_SPC_FIRS
 355              		.loc 1 448 0
 356 000e 411F     		subs	r1, r0, #5
 357              	.LVL32:
 358 0010 3A29     		cmp	r1, #58
 359 0012 8CBF     		ite	hi
 360 0014 0021     		movhi	r1, #0
 361 0016 0121     		movls	r1, #1
 459:.\Generated_Source\PSoC5/CyFlash.c ****     {
 460:.\Generated_Source\PSoC5/CyFlash.c ****         status = CYRET_BAD_PARAM;
 461:.\Generated_Source\PSoC5/CyFlash.c ****     }
 462:.\Generated_Source\PSoC5/CyFlash.c **** 
ARM GAS  C:\Users\Yiquing\AppData\Local\Temp\ccgwqGZH.s 			page 16


 463:.\Generated_Source\PSoC5/CyFlash.c ****     if(arrayId <=  CY_SPC_LAST_FLASH_ARRAYID)
 362              		.loc 1 463 0
 363 0018 3F28     		cmp	r0, #63
 364 001a 04D8     		bhi	.L40
 464:.\Generated_Source\PSoC5/CyFlash.c ****     {
 465:.\Generated_Source\PSoC5/CyFlash.c ****         /* Flash */
 466:.\Generated_Source\PSoC5/CyFlash.c ****         if(rowNumber > (CY_FLASH_NUMBER_ROWS/CY_FLASH_NUMBER_ARRAYS))
 365              		.loc 1 466 0
 366 001c B6F5807F 		cmp	r6, #256
 367 0020 29D8     		bhi	.L55
 368 0022 05E0     		b	.L42
 369              	.LVL33:
 370              	.L50:
 371 0024 0121     		movs	r1, #1
 372              	.LVL34:
 373              	.L40:
 467:.\Generated_Source\PSoC5/CyFlash.c ****         {
 468:.\Generated_Source\PSoC5/CyFlash.c ****             status = CYRET_BAD_PARAM;
 469:.\Generated_Source\PSoC5/CyFlash.c ****         }
 470:.\Generated_Source\PSoC5/CyFlash.c ****     }
 471:.\Generated_Source\PSoC5/CyFlash.c ****     else
 472:.\Generated_Source\PSoC5/CyFlash.c ****     {
 473:.\Generated_Source\PSoC5/CyFlash.c ****         /* EEPROM */
 474:.\Generated_Source\PSoC5/CyFlash.c ****         if(rowNumber > (CY_EEPROM_NUMBER_ROWS/CY_FLASH_EEPROM_NUMBER_ARRAYS))
 475:.\Generated_Source\PSoC5/CyFlash.c ****         {
 476:.\Generated_Source\PSoC5/CyFlash.c ****             status = CYRET_BAD_PARAM;
 374              		.loc 1 476 0
 375 0026 812E     		cmp	r6, #129
 376 0028 28BF     		it	cs
 377 002a 0121     		movcs	r1, #1
 378              	.LVL35:
 477:.\Generated_Source\PSoC5/CyFlash.c ****         }
 478:.\Generated_Source\PSoC5/CyFlash.c **** 
 479:.\Generated_Source\PSoC5/CyFlash.c ****         if(CY_EEPROM_SIZEOF_ROW != rowSize)
 379              		.loc 1 479 0
 380 002c 102C     		cmp	r4, #16
 381 002e 22D1     		bne	.L55
 382              	.LVL36:
 383              	.L42:
 480:.\Generated_Source\PSoC5/CyFlash.c ****         {
 481:.\Generated_Source\PSoC5/CyFlash.c ****             status = CYRET_BAD_PARAM;
 482:.\Generated_Source\PSoC5/CyFlash.c ****         }
 483:.\Generated_Source\PSoC5/CyFlash.c ****     }
 484:.\Generated_Source\PSoC5/CyFlash.c **** 
 485:.\Generated_Source\PSoC5/CyFlash.c ****     if(rowData == NULL)
 384              		.loc 1 485 0
 385 0030 0FB3     		cbz	r7, .L55
 486:.\Generated_Source\PSoC5/CyFlash.c ****     {
 487:.\Generated_Source\PSoC5/CyFlash.c ****         status = CYRET_BAD_PARAM;
 488:.\Generated_Source\PSoC5/CyFlash.c ****     }
 489:.\Generated_Source\PSoC5/CyFlash.c **** 
 490:.\Generated_Source\PSoC5/CyFlash.c **** 
 491:.\Generated_Source\PSoC5/CyFlash.c ****     if(status == CYRET_SUCCESS)
 386              		.loc 1 491 0
 387 0032 01BB     		cbnz	r1, .L55
 492:.\Generated_Source\PSoC5/CyFlash.c ****     {
 493:.\Generated_Source\PSoC5/CyFlash.c ****         if(CySpcLock() == CYRET_SUCCESS)
ARM GAS  C:\Users\Yiquing\AppData\Local\Temp\ccgwqGZH.s 			page 17


 388              		.loc 1 493 0
 389 0034 FFF7FEFF 		bl	CySpcLock
 390              	.LVL37:
 391 0038 F8B9     		cbnz	r0, .L56
 494:.\Generated_Source\PSoC5/CyFlash.c ****         {
 495:.\Generated_Source\PSoC5/CyFlash.c ****             /* Load row data into SPC internal latch */
 496:.\Generated_Source\PSoC5/CyFlash.c ****             status = CySpcLoadRowFull(arrayId, rowNumber, rowData, rowSize);
 392              		.loc 1 496 0
 393 003a 2346     		mov	r3, r4
 394 003c 2846     		mov	r0, r5
 395 003e 3146     		mov	r1, r6
 396 0040 3A46     		mov	r2, r7
 397 0042 FFF7FEFF 		bl	CySpcLoadRowFull
 398              	.LVL38:
 497:.\Generated_Source\PSoC5/CyFlash.c **** 
 498:.\Generated_Source\PSoC5/CyFlash.c ****             if(CYRET_STARTED == status)
 399              		.loc 1 498 0
 400 0046 0728     		cmp	r0, #7
 496:.\Generated_Source\PSoC5/CyFlash.c ****             status = CySpcLoadRowFull(arrayId, rowNumber, rowData, rowSize);
 401              		.loc 1 496 0
 402 0048 0446     		mov	r4, r0
 403              	.LVL39:
 404              		.loc 1 498 0
 405 004a 11D1     		bne	.L44
 406              	.LVL40:
 407              	.L45:
 499:.\Generated_Source\PSoC5/CyFlash.c ****             {
 500:.\Generated_Source\PSoC5/CyFlash.c ****                 while(CY_SPC_BUSY)
 408              		.loc 1 500 0 discriminator 1
 409 004c 1B4B     		ldr	r3, .L62
 410 004e 1A78     		ldrb	r2, [r3]	@ zero_extendqisi2
 411 0050 1F46     		mov	r7, r3
 412 0052 12F0020F 		tst	r2, #2
 413 0056 03D1     		bne	.L60
 501:.\Generated_Source\PSoC5/CyFlash.c ****                 {
 502:.\Generated_Source\PSoC5/CyFlash.c ****                     /* Wait for SPC to finish and get SPC status */
 503:.\Generated_Source\PSoC5/CyFlash.c ****                     CyDelayUs(1u);
 414              		.loc 1 503 0
 415 0058 0120     		movs	r0, #1
 416 005a FFF7FEFF 		bl	CyDelayUs
 417              	.LVL41:
 418 005e F5E7     		b	.L45
 419              	.L60:
 504:.\Generated_Source\PSoC5/CyFlash.c ****                 }
 505:.\Generated_Source\PSoC5/CyFlash.c **** 
 506:.\Generated_Source\PSoC5/CyFlash.c ****                 /* Hide SPC status */
 507:.\Generated_Source\PSoC5/CyFlash.c ****                 if(CY_SPC_STATUS_SUCCESS == CY_SPC_READ_STATUS)
 420              		.loc 1 507 0
 421 0060 1A78     		ldrb	r2, [r3]	@ zero_extendqisi2
 422 0062 9007     		lsls	r0, r2, #30
 423 0064 02D5     		bpl	.L58
 424              		.loc 1 507 0 is_stmt 0 discriminator 1
 425 0066 1B78     		ldrb	r3, [r3]	@ zero_extendqisi2
 426 0068 9B08     		lsrs	r3, r3, #2
 427 006a 08D0     		beq	.L47
 428              	.L58:
 508:.\Generated_Source\PSoC5/CyFlash.c ****                 {
ARM GAS  C:\Users\Yiquing\AppData\Local\Temp\ccgwqGZH.s 			page 18


 509:.\Generated_Source\PSoC5/CyFlash.c ****                     status = CYRET_SUCCESS;
 510:.\Generated_Source\PSoC5/CyFlash.c ****                 }
 511:.\Generated_Source\PSoC5/CyFlash.c ****                 else
 512:.\Generated_Source\PSoC5/CyFlash.c ****                 {
 513:.\Generated_Source\PSoC5/CyFlash.c ****                     status = CYRET_UNKNOWN;
 514:.\Generated_Source\PSoC5/CyFlash.c ****                 }
 515:.\Generated_Source\PSoC5/CyFlash.c **** 
 516:.\Generated_Source\PSoC5/CyFlash.c ****                 if(CYRET_SUCCESS == status)
 517:.\Generated_Source\PSoC5/CyFlash.c ****                 {
 518:.\Generated_Source\PSoC5/CyFlash.c ****                     /* Erase and program flash with data from SPC interval latch */
 519:.\Generated_Source\PSoC5/CyFlash.c ****                     status = CySpcWriteRow(arrayId, rowNumber, dieTemperature[0u], dieTemperature[1
 520:.\Generated_Source\PSoC5/CyFlash.c **** 
 521:.\Generated_Source\PSoC5/CyFlash.c ****                     if(CYRET_STARTED == status)
 522:.\Generated_Source\PSoC5/CyFlash.c ****                     {
 523:.\Generated_Source\PSoC5/CyFlash.c ****                         while(CY_SPC_BUSY)
 524:.\Generated_Source\PSoC5/CyFlash.c ****                         {
 525:.\Generated_Source\PSoC5/CyFlash.c ****                             /* Wait for SPC to finish and get SPC status */
 526:.\Generated_Source\PSoC5/CyFlash.c ****                             CyDelayUs(1u);
 527:.\Generated_Source\PSoC5/CyFlash.c ****                         }
 528:.\Generated_Source\PSoC5/CyFlash.c **** 
 529:.\Generated_Source\PSoC5/CyFlash.c ****                         /* Hide SPC status */
 530:.\Generated_Source\PSoC5/CyFlash.c ****                         if(CY_SPC_STATUS_SUCCESS == CY_SPC_READ_STATUS)
 531:.\Generated_Source\PSoC5/CyFlash.c ****                         {
 532:.\Generated_Source\PSoC5/CyFlash.c ****                             status = CYRET_SUCCESS;
 533:.\Generated_Source\PSoC5/CyFlash.c ****                         }
 534:.\Generated_Source\PSoC5/CyFlash.c ****                         else
 535:.\Generated_Source\PSoC5/CyFlash.c ****                         {
 536:.\Generated_Source\PSoC5/CyFlash.c ****                             status = CYRET_UNKNOWN;
 429              		.loc 1 536 0 is_stmt 1
 430 006c 4FF0FF34 		mov	r4, #-1
 431              	.LVL42:
 432              	.L44:
 537:.\Generated_Source\PSoC5/CyFlash.c ****                         }
 538:.\Generated_Source\PSoC5/CyFlash.c ****                     }
 539:.\Generated_Source\PSoC5/CyFlash.c ****                 }
 540:.\Generated_Source\PSoC5/CyFlash.c ****             }
 541:.\Generated_Source\PSoC5/CyFlash.c ****             CySpcUnlock();
 433              		.loc 1 541 0
 434 0070 FFF7FEFF 		bl	CySpcUnlock
 435              	.LVL43:
 436 0074 1FE0     		b	.L59
 437              	.LVL44:
 438              	.L55:
 439 0076 0124     		movs	r4, #1
 440 0078 1DE0     		b	.L59
 441              	.LVL45:
 442              	.L56:
 542:.\Generated_Source\PSoC5/CyFlash.c ****         }   /* if(CySpcLock() == CYRET_SUCCESS) */
 543:.\Generated_Source\PSoC5/CyFlash.c ****         else
 544:.\Generated_Source\PSoC5/CyFlash.c ****         {
 545:.\Generated_Source\PSoC5/CyFlash.c ****             status = CYRET_LOCKED;
 443              		.loc 1 545 0
 444 007a 0424     		movs	r4, #4
 445              	.LVL46:
 446 007c 1BE0     		b	.L59
 447              	.LVL47:
 448              	.L47:
ARM GAS  C:\Users\Yiquing\AppData\Local\Temp\ccgwqGZH.s 			page 19


 519:.\Generated_Source\PSoC5/CyFlash.c ****                     status = CySpcWriteRow(arrayId, rowNumber, dieTemperature[0u], dieTemperature[1
 449              		.loc 1 519 0
 450 007e 104B     		ldr	r3, .L62+4
 451 0080 2846     		mov	r0, r5
 452 0082 1A78     		ldrb	r2, [r3]	@ zero_extendqisi2
 453 0084 3146     		mov	r1, r6
 454 0086 5B78     		ldrb	r3, [r3, #1]	@ zero_extendqisi2
 455 0088 FFF7FEFF 		bl	CySpcWriteRow
 456              	.LVL48:
 521:.\Generated_Source\PSoC5/CyFlash.c ****                     if(CYRET_STARTED == status)
 457              		.loc 1 521 0
 458 008c 0728     		cmp	r0, #7
 519:.\Generated_Source\PSoC5/CyFlash.c ****                     status = CySpcWriteRow(arrayId, rowNumber, dieTemperature[0u], dieTemperature[1
 459              		.loc 1 519 0
 460 008e 0446     		mov	r4, r0
 461              	.LVL49:
 521:.\Generated_Source\PSoC5/CyFlash.c ****                     if(CYRET_STARTED == status)
 462              		.loc 1 521 0
 463 0090 EED1     		bne	.L44
 464              	.LVL50:
 465              	.L49:
 523:.\Generated_Source\PSoC5/CyFlash.c ****                         while(CY_SPC_BUSY)
 466              		.loc 1 523 0 discriminator 1
 467 0092 3A78     		ldrb	r2, [r7]	@ zero_extendqisi2
 468 0094 094B     		ldr	r3, .L62
 469 0096 9107     		lsls	r1, r2, #30
 470 0098 03D4     		bmi	.L61
 526:.\Generated_Source\PSoC5/CyFlash.c ****                             CyDelayUs(1u);
 471              		.loc 1 526 0
 472 009a 0120     		movs	r0, #1
 473 009c FFF7FEFF 		bl	CyDelayUs
 474              	.LVL51:
 475 00a0 F7E7     		b	.L49
 476              	.L61:
 530:.\Generated_Source\PSoC5/CyFlash.c ****                         if(CY_SPC_STATUS_SUCCESS == CY_SPC_READ_STATUS)
 477              		.loc 1 530 0
 478 00a2 1A78     		ldrb	r2, [r3]	@ zero_extendqisi2
 479 00a4 9207     		lsls	r2, r2, #30
 480 00a6 E1D5     		bpl	.L58
 530:.\Generated_Source\PSoC5/CyFlash.c ****                         if(CY_SPC_STATUS_SUCCESS == CY_SPC_READ_STATUS)
 481              		.loc 1 530 0 is_stmt 0 discriminator 1
 482 00a8 1B78     		ldrb	r3, [r3]	@ zero_extendqisi2
 483 00aa 9B08     		lsrs	r3, r3, #2
 484 00ac 0CBF     		ite	eq
 485 00ae 0024     		moveq	r4, #0
 486 00b0 6FF00004 		mvnne	r4, #0
 487              	.LVL52:
 488 00b4 DCE7     		b	.L44
 489              	.L59:
 546:.\Generated_Source\PSoC5/CyFlash.c ****         }
 547:.\Generated_Source\PSoC5/CyFlash.c ****     }
 548:.\Generated_Source\PSoC5/CyFlash.c **** 
 549:.\Generated_Source\PSoC5/CyFlash.c ****     return(status);
 550:.\Generated_Source\PSoC5/CyFlash.c **** }
 490              		.loc 1 550 0 is_stmt 1
 491 00b6 2046     		mov	r0, r4
 492 00b8 F8BD     		pop	{r3, r4, r5, r6, r7, pc}
ARM GAS  C:\Users\Yiquing\AppData\Local\Temp\ccgwqGZH.s 			page 20


 493              	.L63:
 494 00ba 00BF     		.align	2
 495              	.L62:
 496 00bc 22470040 		.word	1073760034
 497 00c0 00000000 		.word	dieTemperature
 498              		.cfi_endproc
 499              	.LFE7:
 500              		.size	CyWriteRowFull, .-CyWriteRowFull
 501              		.section	.text.CyWriteRowData,"ax",%progbits
 502              		.align	1
 503              		.global	CyWriteRowData
 504              		.thumb
 505              		.thumb_func
 506              		.type	CyWriteRowData, %function
 507              	CyWriteRowData:
 508              	.LFB6:
 367:.\Generated_Source\PSoC5/CyFlash.c **** {
 509              		.loc 1 367 0
 510              		.cfi_startproc
 511              		@ args = 0, pretend = 0, frame = 0
 512              		@ frame_needed = 0, uses_anonymous_args = 0
 513              		@ link register save eliminated.
 514              	.LVL53:
 371:.\Generated_Source\PSoC5/CyFlash.c ****     rowSize = (arrayId > CY_SPC_LAST_FLASH_ARRAYID) ? CYDEV_EEPROM_ROW_SIZE : CYDEV_FLS_ROW_SIZE;
 515              		.loc 1 371 0
 516 0000 3F28     		cmp	r0, #63
 517              	.LVL54:
 372:.\Generated_Source\PSoC5/CyFlash.c ****     status = CyWriteRowFull(arrayId, rowAddress, rowData, rowSize);
 518              		.loc 1 372 0
 519 0002 94BF     		ite	ls
 520 0004 4FF48073 		movls	r3, #256
 521 0008 1023     		movhi	r3, #16
 522 000a FFF7FEBF 		b	CyWriteRowFull
 523              	.LVL55:
 524              		.cfi_endproc
 525              	.LFE6:
 526              		.size	CyWriteRowData, .-CyWriteRowData
 527              		.section	.text.CyFlash_SetWaitCycles,"ax",%progbits
 528              		.align	1
 529              		.global	CyFlash_SetWaitCycles
 530              		.thumb
 531              		.thumb_func
 532              		.type	CyFlash_SetWaitCycles, %function
 533              	CyFlash_SetWaitCycles:
 534              	.LFB8:
 551:.\Generated_Source\PSoC5/CyFlash.c **** 
 552:.\Generated_Source\PSoC5/CyFlash.c **** 
 553:.\Generated_Source\PSoC5/CyFlash.c **** /*******************************************************************************
 554:.\Generated_Source\PSoC5/CyFlash.c **** * Function Name: CyFlash_SetWaitCycles
 555:.\Generated_Source\PSoC5/CyFlash.c **** ********************************************************************************
 556:.\Generated_Source\PSoC5/CyFlash.c **** *
 557:.\Generated_Source\PSoC5/CyFlash.c **** * Summary:
 558:.\Generated_Source\PSoC5/CyFlash.c **** *  Sets the number of clock cycles the cache will wait before it samples data
 559:.\Generated_Source\PSoC5/CyFlash.c **** *  coming back from the Flash. This function must be called before increasing
 560:.\Generated_Source\PSoC5/CyFlash.c **** *  the CPU clock frequency. It can optionally be called after lowering the CPU
 561:.\Generated_Source\PSoC5/CyFlash.c **** *  clock frequency in order to improve the CPU performance.
 562:.\Generated_Source\PSoC5/CyFlash.c **** *
ARM GAS  C:\Users\Yiquing\AppData\Local\Temp\ccgwqGZH.s 			page 21


 563:.\Generated_Source\PSoC5/CyFlash.c **** * Parameters:
 564:.\Generated_Source\PSoC5/CyFlash.c **** *  uint8 freq:
 565:.\Generated_Source\PSoC5/CyFlash.c **** *   Frequency of operation in Megahertz.
 566:.\Generated_Source\PSoC5/CyFlash.c **** *
 567:.\Generated_Source\PSoC5/CyFlash.c **** * Return:
 568:.\Generated_Source\PSoC5/CyFlash.c **** *  None
 569:.\Generated_Source\PSoC5/CyFlash.c **** *
 570:.\Generated_Source\PSoC5/CyFlash.c **** *******************************************************************************/
 571:.\Generated_Source\PSoC5/CyFlash.c **** void CyFlash_SetWaitCycles(uint8 freq) 
 572:.\Generated_Source\PSoC5/CyFlash.c **** {
 535              		.loc 1 572 0
 536              		.cfi_startproc
 537              		@ args = 0, pretend = 0, frame = 0
 538              		@ frame_needed = 0, uses_anonymous_args = 0
 539              	.LVL56:
 540 0000 10B5     		push	{r4, lr}
 541              		.cfi_def_cfa_offset 8
 542              		.cfi_offset 4, -8
 543              		.cfi_offset 14, -4
 544              		.loc 1 572 0
 545 0002 0446     		mov	r4, r0
 573:.\Generated_Source\PSoC5/CyFlash.c ****     uint8 interruptState;
 574:.\Generated_Source\PSoC5/CyFlash.c **** 
 575:.\Generated_Source\PSoC5/CyFlash.c ****     /* Save current global interrupt enable and disable it */
 576:.\Generated_Source\PSoC5/CyFlash.c ****     interruptState = CyEnterCriticalSection();
 546              		.loc 1 576 0
 547 0004 FFF7FEFF 		bl	CyEnterCriticalSection
 548              	.LVL57:
 577:.\Generated_Source\PSoC5/CyFlash.c **** 
 578:.\Generated_Source\PSoC5/CyFlash.c ****     /***************************************************************************
 579:.\Generated_Source\PSoC5/CyFlash.c ****     * The number of clock cycles the cache will wait before it samples data
 580:.\Generated_Source\PSoC5/CyFlash.c ****     * coming back from the Flash must be equal or greater to to the CPU frequency
 581:.\Generated_Source\PSoC5/CyFlash.c ****     * outlined in clock cycles.
 582:.\Generated_Source\PSoC5/CyFlash.c ****     ***************************************************************************/
 583:.\Generated_Source\PSoC5/CyFlash.c **** 
 584:.\Generated_Source\PSoC5/CyFlash.c ****     if (freq < CY_FLASH_CACHE_WS_1_FREQ_MAX)
 549              		.loc 1 584 0
 550 0008 0F2C     		cmp	r4, #15
 551 000a 06D8     		bhi	.L68
 585:.\Generated_Source\PSoC5/CyFlash.c ****     {
 586:.\Generated_Source\PSoC5/CyFlash.c ****         CY_FLASH_CONTROL_REG = (CY_FLASH_CONTROL_REG & (uint8)(~CY_FLASH_CACHE_WS_VALUE_MASK)) |
 552              		.loc 1 586 0
 553 000c 164B     		ldr	r3, .L74
 554 000e 1A78     		ldrb	r2, [r3]	@ zero_extendqisi2
 555 0010 02F01F02 		and	r2, r2, #31
 556 0014 42F04002 		orr	r2, r2, #64
 557 0018 20E0     		b	.L73
 558              	.L68:
 587:.\Generated_Source\PSoC5/CyFlash.c ****                                     CY_FLASH_CACHE_WS_1_VALUE_MASK;
 588:.\Generated_Source\PSoC5/CyFlash.c ****     }
 589:.\Generated_Source\PSoC5/CyFlash.c ****     else if (freq < CY_FLASH_CACHE_WS_2_FREQ_MAX)
 559              		.loc 1 589 0
 560 001a 202C     		cmp	r4, #32
 561 001c 06D8     		bhi	.L70
 590:.\Generated_Source\PSoC5/CyFlash.c ****     {
 591:.\Generated_Source\PSoC5/CyFlash.c ****         CY_FLASH_CONTROL_REG = (CY_FLASH_CONTROL_REG & (uint8)(~CY_FLASH_CACHE_WS_VALUE_MASK)) |
 562              		.loc 1 591 0
ARM GAS  C:\Users\Yiquing\AppData\Local\Temp\ccgwqGZH.s 			page 22


 563 001e 124B     		ldr	r3, .L74
 564 0020 1A78     		ldrb	r2, [r3]	@ zero_extendqisi2
 565 0022 02F01F02 		and	r2, r2, #31
 566 0026 42F08002 		orr	r2, r2, #128
 567 002a 17E0     		b	.L73
 568              	.L70:
 592:.\Generated_Source\PSoC5/CyFlash.c ****                                     CY_FLASH_CACHE_WS_2_VALUE_MASK;
 593:.\Generated_Source\PSoC5/CyFlash.c ****     }
 594:.\Generated_Source\PSoC5/CyFlash.c ****     else if (freq < CY_FLASH_CACHE_WS_3_FREQ_MAX)
 569              		.loc 1 594 0
 570 002c 312C     		cmp	r4, #49
 571 002e 06D8     		bhi	.L71
 595:.\Generated_Source\PSoC5/CyFlash.c ****     {
 596:.\Generated_Source\PSoC5/CyFlash.c ****         CY_FLASH_CONTROL_REG = (CY_FLASH_CONTROL_REG & (uint8)(~CY_FLASH_CACHE_WS_VALUE_MASK)) |
 572              		.loc 1 596 0
 573 0030 0D4B     		ldr	r3, .L74
 574 0032 1A78     		ldrb	r2, [r3]	@ zero_extendqisi2
 575 0034 02F01F02 		and	r2, r2, #31
 576 0038 42F0C002 		orr	r2, r2, #192
 577 003c 0EE0     		b	.L73
 578              	.L71:
 597:.\Generated_Source\PSoC5/CyFlash.c ****                                     CY_FLASH_CACHE_WS_3_VALUE_MASK;
 598:.\Generated_Source\PSoC5/CyFlash.c ****     }
 599:.\Generated_Source\PSoC5/CyFlash.c **** #if (CY_PSOC5)
 600:.\Generated_Source\PSoC5/CyFlash.c ****     else if (freq < CY_FLASH_CACHE_WS_4_FREQ_MAX)
 579              		.loc 1 600 0
 580 003e 422C     		cmp	r4, #66
 581 0040 04D8     		bhi	.L72
 601:.\Generated_Source\PSoC5/CyFlash.c ****     {
 602:.\Generated_Source\PSoC5/CyFlash.c ****         CY_FLASH_CONTROL_REG = (CY_FLASH_CONTROL_REG & (uint8)(~CY_FLASH_CACHE_WS_VALUE_MASK)) |
 582              		.loc 1 602 0
 583 0042 094B     		ldr	r3, .L74
 584 0044 1A78     		ldrb	r2, [r3]	@ zero_extendqisi2
 585 0046 02F01F02 		and	r2, r2, #31
 586 004a 07E0     		b	.L73
 587              	.L72:
 603:.\Generated_Source\PSoC5/CyFlash.c ****                                     CY_FLASH_CACHE_WS_4_VALUE_MASK;
 604:.\Generated_Source\PSoC5/CyFlash.c ****     }
 605:.\Generated_Source\PSoC5/CyFlash.c ****     else if (freq <= CY_FLASH_CACHE_WS_5_FREQ_MAX)
 588              		.loc 1 605 0
 589 004c 532C     		cmp	r4, #83
 590 004e 06D8     		bhi	.L69
 606:.\Generated_Source\PSoC5/CyFlash.c ****     {
 607:.\Generated_Source\PSoC5/CyFlash.c ****         CY_FLASH_CONTROL_REG = (CY_FLASH_CONTROL_REG & (uint8)(~CY_FLASH_CACHE_WS_VALUE_MASK)) |
 591              		.loc 1 607 0
 592 0050 054B     		ldr	r3, .L74
 593 0052 1A78     		ldrb	r2, [r3]	@ zero_extendqisi2
 594 0054 02F01F02 		and	r2, r2, #31
 595 0058 42F02002 		orr	r2, r2, #32
 596              	.L73:
 597 005c 1A70     		strb	r2, [r3]
 598              	.L69:
 608:.\Generated_Source\PSoC5/CyFlash.c ****                                     CY_FLASH_CACHE_WS_5_VALUE_MASK;
 609:.\Generated_Source\PSoC5/CyFlash.c ****     }
 610:.\Generated_Source\PSoC5/CyFlash.c **** #endif  /* (CY_PSOC5) */
 611:.\Generated_Source\PSoC5/CyFlash.c ****     else
 612:.\Generated_Source\PSoC5/CyFlash.c ****     {
ARM GAS  C:\Users\Yiquing\AppData\Local\Temp\ccgwqGZH.s 			page 23


 613:.\Generated_Source\PSoC5/CyFlash.c ****         /* Halt CPU in debug mode if frequency is invalid */
 614:.\Generated_Source\PSoC5/CyFlash.c ****         CYASSERT(0u != 0u);
 615:.\Generated_Source\PSoC5/CyFlash.c ****     }
 616:.\Generated_Source\PSoC5/CyFlash.c **** 
 617:.\Generated_Source\PSoC5/CyFlash.c ****     /* Restore global interrupt enable state */
 618:.\Generated_Source\PSoC5/CyFlash.c ****     CyExitCriticalSection(interruptState);
 619:.\Generated_Source\PSoC5/CyFlash.c **** }
 599              		.loc 1 619 0
 600 005e BDE81040 		pop	{r4, lr}
 618:.\Generated_Source\PSoC5/CyFlash.c ****     CyExitCriticalSection(interruptState);
 601              		.loc 1 618 0
 602 0062 FFF7FEBF 		b	CyExitCriticalSection
 603              	.LVL58:
 604              	.L75:
 605 0066 00BF     		.align	2
 606              	.L74:
 607 0068 00480040 		.word	1073760256
 608              		.cfi_endproc
 609              	.LFE8:
 610              		.size	CyFlash_SetWaitCycles, .-CyFlash_SetWaitCycles
 611              		.section	.text.CyEEPROM_Start,"ax",%progbits
 612              		.align	1
 613              		.global	CyEEPROM_Start
 614              		.thumb
 615              		.thumb_func
 616              		.type	CyEEPROM_Start, %function
 617              	CyEEPROM_Start:
 618              	.LFB9:
 620:.\Generated_Source\PSoC5/CyFlash.c **** 
 621:.\Generated_Source\PSoC5/CyFlash.c **** 
 622:.\Generated_Source\PSoC5/CyFlash.c **** /*******************************************************************************
 623:.\Generated_Source\PSoC5/CyFlash.c **** * Function Name: CyEEPROM_Start
 624:.\Generated_Source\PSoC5/CyFlash.c **** ********************************************************************************
 625:.\Generated_Source\PSoC5/CyFlash.c **** *
 626:.\Generated_Source\PSoC5/CyFlash.c **** * Summary:
 627:.\Generated_Source\PSoC5/CyFlash.c **** *  Enable the EEPROM.
 628:.\Generated_Source\PSoC5/CyFlash.c **** *
 629:.\Generated_Source\PSoC5/CyFlash.c **** * Parameters:
 630:.\Generated_Source\PSoC5/CyFlash.c **** *  None
 631:.\Generated_Source\PSoC5/CyFlash.c **** *
 632:.\Generated_Source\PSoC5/CyFlash.c **** * Return:
 633:.\Generated_Source\PSoC5/CyFlash.c **** *  None
 634:.\Generated_Source\PSoC5/CyFlash.c **** *
 635:.\Generated_Source\PSoC5/CyFlash.c **** *******************************************************************************/
 636:.\Generated_Source\PSoC5/CyFlash.c **** void CyEEPROM_Start(void) 
 637:.\Generated_Source\PSoC5/CyFlash.c **** {
 619              		.loc 1 637 0
 620              		.cfi_startproc
 621              		@ args = 0, pretend = 0, frame = 0
 622              		@ frame_needed = 0, uses_anonymous_args = 0
 623 0000 08B5     		push	{r3, lr}
 624              		.cfi_def_cfa_offset 8
 625              		.cfi_offset 3, -8
 626              		.cfi_offset 14, -4
 638:.\Generated_Source\PSoC5/CyFlash.c ****     uint8 interruptState;
 639:.\Generated_Source\PSoC5/CyFlash.c **** 
 640:.\Generated_Source\PSoC5/CyFlash.c ****     interruptState = CyEnterCriticalSection();
ARM GAS  C:\Users\Yiquing\AppData\Local\Temp\ccgwqGZH.s 			page 24


 627              		.loc 1 640 0
 628 0002 FFF7FEFF 		bl	CyEnterCriticalSection
 629              	.LVL59:
 641:.\Generated_Source\PSoC5/CyFlash.c **** 
 642:.\Generated_Source\PSoC5/CyFlash.c **** 
 643:.\Generated_Source\PSoC5/CyFlash.c ****     /***************************************************************************
 644:.\Generated_Source\PSoC5/CyFlash.c ****     * Enable SPC clock. This also internally enables the 36MHz IMO, since this
 645:.\Generated_Source\PSoC5/CyFlash.c ****     * is required for the SPC to function.
 646:.\Generated_Source\PSoC5/CyFlash.c ****     ***************************************************************************/
 647:.\Generated_Source\PSoC5/CyFlash.c ****     CY_FLASH_PM_ACT_CFG0_REG    |= CY_FLASH_PM_ACT_CFG0_EN_CLK_SPC;
 630              		.loc 1 647 0
 631 0006 0F4B     		ldr	r3, .L79
 632 0008 1A78     		ldrb	r2, [r3]	@ zero_extendqisi2
 648:.\Generated_Source\PSoC5/CyFlash.c ****     CY_FLASH_PM_ALTACT_CFG0_REG |= CY_FLASH_PM_ALTACT_CFG0_EN_CLK_SPC;
 649:.\Generated_Source\PSoC5/CyFlash.c **** 
 650:.\Generated_Source\PSoC5/CyFlash.c **** 
 651:.\Generated_Source\PSoC5/CyFlash.c ****     /***************************************************************************
 652:.\Generated_Source\PSoC5/CyFlash.c ****     * The wake count defines the number of Bus Clock cycles it takes for the
 653:.\Generated_Source\PSoC5/CyFlash.c ****     * flash or EEPROM to wake up from a low power mode independent of the chip
 654:.\Generated_Source\PSoC5/CyFlash.c ****     * power mode. Wake up time for these blocks is 5 us.
 655:.\Generated_Source\PSoC5/CyFlash.c ****     * The granularity of this register is 2 Bus Clock cycles, so a value of 0x1E
 656:.\Generated_Source\PSoC5/CyFlash.c ****     * (30d) defines the wake up time as 60 cycles of the Bus Clock.
 657:.\Generated_Source\PSoC5/CyFlash.c ****     * This register needs to be written with a value dependent on the Bus Clock
 658:.\Generated_Source\PSoC5/CyFlash.c ****     * frequency so that the duration of the cycles is equal to or greater than
 659:.\Generated_Source\PSoC5/CyFlash.c ****     * the 5 us delay required.
 660:.\Generated_Source\PSoC5/CyFlash.c ****     ***************************************************************************/
 661:.\Generated_Source\PSoC5/CyFlash.c ****     CY_FLASH_SPC_FM_EE_WAKE_CNT_REG = CY_FLASH_SPC_FM_EE_WAKE_CNT_80MHZ;
 662:.\Generated_Source\PSoC5/CyFlash.c **** 
 663:.\Generated_Source\PSoC5/CyFlash.c **** 
 664:.\Generated_Source\PSoC5/CyFlash.c ****     /***************************************************************************
 665:.\Generated_Source\PSoC5/CyFlash.c ****     * Enable EEPROM. Re-enabling an EEPROM macro takes 5us. During this time,
 666:.\Generated_Source\PSoC5/CyFlash.c ****     * the EE will not acknowledge a PHUB request.
 667:.\Generated_Source\PSoC5/CyFlash.c ****     ***************************************************************************/
 668:.\Generated_Source\PSoC5/CyFlash.c ****     CY_FLASH_PM_ACT_CFG12_REG    |= CY_FLASH_PM_ACT_CFG12_EN_EE;
 633              		.loc 1 668 0
 634 000a 0C33     		adds	r3, r3, #12
 647:.\Generated_Source\PSoC5/CyFlash.c ****     CY_FLASH_PM_ACT_CFG0_REG    |= CY_FLASH_PM_ACT_CFG0_EN_CLK_SPC;
 635              		.loc 1 647 0
 636 000c 42F00802 		orr	r2, r2, #8
 637 0010 03F80C2C 		strb	r2, [r3, #-12]
 648:.\Generated_Source\PSoC5/CyFlash.c ****     CY_FLASH_PM_ALTACT_CFG0_REG |= CY_FLASH_PM_ALTACT_CFG0_EN_CLK_SPC;
 638              		.loc 1 648 0
 639 0014 1A79     		ldrb	r2, [r3, #4]	@ zero_extendqisi2
 640 0016 42F00802 		orr	r2, r2, #8
 641 001a 1A71     		strb	r2, [r3, #4]
 661:.\Generated_Source\PSoC5/CyFlash.c ****     CY_FLASH_SPC_FM_EE_WAKE_CNT_REG = CY_FLASH_SPC_FM_EE_WAKE_CNT_80MHZ;
 642              		.loc 1 661 0
 643 001c C822     		movs	r2, #200
 644 001e 83F85523 		strb	r2, [r3, #853]
 645              		.loc 1 668 0
 646 0022 1A78     		ldrb	r2, [r3]	@ zero_extendqisi2
 647 0024 42F01002 		orr	r2, r2, #16
 648 0028 1A70     		strb	r2, [r3]
 669:.\Generated_Source\PSoC5/CyFlash.c ****     CY_FLASH_PM_ALTACT_CFG12_REG |= CY_FLASH_PM_ALTACT_CFG12_EN_EE;
 649              		.loc 1 669 0
 650 002a 1A7C     		ldrb	r2, [r3, #16]	@ zero_extendqisi2
 651 002c 42F01002 		orr	r2, r2, #16
ARM GAS  C:\Users\Yiquing\AppData\Local\Temp\ccgwqGZH.s 			page 25


 652 0030 1A74     		strb	r2, [r3, #16]
 653              	.L78:
 670:.\Generated_Source\PSoC5/CyFlash.c **** 
 671:.\Generated_Source\PSoC5/CyFlash.c ****     while(0u == (CY_FLASH_SPC_FM_EE_CR_REG & CY_FLASH_EE_EE_AWAKE))
 654              		.loc 1 671 0 discriminator 1
 655 0032 054B     		ldr	r3, .L79+4
 656 0034 1B78     		ldrb	r3, [r3]	@ zero_extendqisi2
 657 0036 9B06     		lsls	r3, r3, #26
 658 0038 FBD5     		bpl	.L78
 672:.\Generated_Source\PSoC5/CyFlash.c ****     {
 673:.\Generated_Source\PSoC5/CyFlash.c ****         /* Non-zero status denotes that the EEPROM/Flash is awake & powered. */
 674:.\Generated_Source\PSoC5/CyFlash.c ****     }
 675:.\Generated_Source\PSoC5/CyFlash.c **** 
 676:.\Generated_Source\PSoC5/CyFlash.c ****     CyExitCriticalSection(interruptState);
 677:.\Generated_Source\PSoC5/CyFlash.c **** }
 659              		.loc 1 677 0
 660 003a BDE80840 		pop	{r3, lr}
 676:.\Generated_Source\PSoC5/CyFlash.c ****     CyExitCriticalSection(interruptState);
 661              		.loc 1 676 0
 662 003e FFF7FEBF 		b	CyExitCriticalSection
 663              	.LVL60:
 664              	.L80:
 665 0042 00BF     		.align	2
 666              	.L79:
 667 0044 A0430040 		.word	1073759136
 668 0048 00470040 		.word	1073760000
 669              		.cfi_endproc
 670              	.LFE9:
 671              		.size	CyEEPROM_Start, .-CyEEPROM_Start
 672              		.section	.text.CyEEPROM_Stop,"ax",%progbits
 673              		.align	1
 674              		.global	CyEEPROM_Stop
 675              		.thumb
 676              		.thumb_func
 677              		.type	CyEEPROM_Stop, %function
 678              	CyEEPROM_Stop:
 679              	.LFB10:
 678:.\Generated_Source\PSoC5/CyFlash.c **** 
 679:.\Generated_Source\PSoC5/CyFlash.c **** 
 680:.\Generated_Source\PSoC5/CyFlash.c **** /*******************************************************************************
 681:.\Generated_Source\PSoC5/CyFlash.c **** * Function Name: CyEEPROM_Stop
 682:.\Generated_Source\PSoC5/CyFlash.c **** ********************************************************************************
 683:.\Generated_Source\PSoC5/CyFlash.c **** *
 684:.\Generated_Source\PSoC5/CyFlash.c **** * Summary:
 685:.\Generated_Source\PSoC5/CyFlash.c **** *  Disable the EEPROM.
 686:.\Generated_Source\PSoC5/CyFlash.c **** *
 687:.\Generated_Source\PSoC5/CyFlash.c **** * Parameters:
 688:.\Generated_Source\PSoC5/CyFlash.c **** *  None
 689:.\Generated_Source\PSoC5/CyFlash.c **** *
 690:.\Generated_Source\PSoC5/CyFlash.c **** * Return:
 691:.\Generated_Source\PSoC5/CyFlash.c **** *  None
 692:.\Generated_Source\PSoC5/CyFlash.c **** *
 693:.\Generated_Source\PSoC5/CyFlash.c **** *******************************************************************************/
 694:.\Generated_Source\PSoC5/CyFlash.c **** void CyEEPROM_Stop (void) 
 695:.\Generated_Source\PSoC5/CyFlash.c **** {
 680              		.loc 1 695 0
 681              		.cfi_startproc
ARM GAS  C:\Users\Yiquing\AppData\Local\Temp\ccgwqGZH.s 			page 26


 682              		@ args = 0, pretend = 0, frame = 0
 683              		@ frame_needed = 0, uses_anonymous_args = 0
 684 0000 08B5     		push	{r3, lr}
 685              		.cfi_def_cfa_offset 8
 686              		.cfi_offset 3, -8
 687              		.cfi_offset 14, -4
 696:.\Generated_Source\PSoC5/CyFlash.c ****     uint8 interruptState;
 697:.\Generated_Source\PSoC5/CyFlash.c **** 
 698:.\Generated_Source\PSoC5/CyFlash.c ****     interruptState = CyEnterCriticalSection();
 688              		.loc 1 698 0
 689 0002 FFF7FEFF 		bl	CyEnterCriticalSection
 690              	.LVL61:
 699:.\Generated_Source\PSoC5/CyFlash.c **** 
 700:.\Generated_Source\PSoC5/CyFlash.c ****     CY_FLASH_PM_ACT_CFG12_REG    &= ((uint8)(~CY_FLASH_PM_ACT_CFG12_EN_EE));
 691              		.loc 1 700 0
 692 0006 064B     		ldr	r3, .L82
 693 0008 1A78     		ldrb	r2, [r3]	@ zero_extendqisi2
 694 000a 02F0EF02 		and	r2, r2, #239
 695 000e 1A70     		strb	r2, [r3]
 701:.\Generated_Source\PSoC5/CyFlash.c ****     CY_FLASH_PM_ALTACT_CFG12_REG &= ((uint8)(~CY_FLASH_PM_ALTACT_CFG12_EN_EE));
 696              		.loc 1 701 0
 697 0010 1A7C     		ldrb	r2, [r3, #16]	@ zero_extendqisi2
 698 0012 02F0EF02 		and	r2, r2, #239
 699 0016 1A74     		strb	r2, [r3, #16]
 702:.\Generated_Source\PSoC5/CyFlash.c **** 
 703:.\Generated_Source\PSoC5/CyFlash.c ****     CyExitCriticalSection(interruptState);
 704:.\Generated_Source\PSoC5/CyFlash.c **** }
 700              		.loc 1 704 0
 701 0018 BDE80840 		pop	{r3, lr}
 703:.\Generated_Source\PSoC5/CyFlash.c ****     CyExitCriticalSection(interruptState);
 702              		.loc 1 703 0
 703 001c FFF7FEBF 		b	CyExitCriticalSection
 704              	.LVL62:
 705              	.L83:
 706              		.align	2
 707              	.L82:
 708 0020 AC430040 		.word	1073759148
 709              		.cfi_endproc
 710              	.LFE10:
 711              		.size	CyEEPROM_Stop, .-CyEEPROM_Stop
 712              		.section	.text.CyEEPROM_ReadReserve,"ax",%progbits
 713              		.align	1
 714              		.global	CyEEPROM_ReadReserve
 715              		.thumb
 716              		.thumb_func
 717              		.type	CyEEPROM_ReadReserve, %function
 718              	CyEEPROM_ReadReserve:
 719              	.LFB11:
 705:.\Generated_Source\PSoC5/CyFlash.c **** 
 706:.\Generated_Source\PSoC5/CyFlash.c **** 
 707:.\Generated_Source\PSoC5/CyFlash.c **** /*******************************************************************************
 708:.\Generated_Source\PSoC5/CyFlash.c **** * Function Name: CyEEPROM_ReadReserve
 709:.\Generated_Source\PSoC5/CyFlash.c **** ********************************************************************************
 710:.\Generated_Source\PSoC5/CyFlash.c **** *
 711:.\Generated_Source\PSoC5/CyFlash.c **** * Summary:
 712:.\Generated_Source\PSoC5/CyFlash.c **** *  Request access to the EEPROM for reading and wait until access is available.
 713:.\Generated_Source\PSoC5/CyFlash.c **** *
ARM GAS  C:\Users\Yiquing\AppData\Local\Temp\ccgwqGZH.s 			page 27


 714:.\Generated_Source\PSoC5/CyFlash.c **** * Parameters:
 715:.\Generated_Source\PSoC5/CyFlash.c **** *  None
 716:.\Generated_Source\PSoC5/CyFlash.c **** *
 717:.\Generated_Source\PSoC5/CyFlash.c **** * Return:
 718:.\Generated_Source\PSoC5/CyFlash.c **** *  None
 719:.\Generated_Source\PSoC5/CyFlash.c **** *
 720:.\Generated_Source\PSoC5/CyFlash.c **** *******************************************************************************/
 721:.\Generated_Source\PSoC5/CyFlash.c **** void CyEEPROM_ReadReserve(void) 
 722:.\Generated_Source\PSoC5/CyFlash.c **** {
 720              		.loc 1 722 0
 721              		.cfi_startproc
 722              		@ args = 0, pretend = 0, frame = 0
 723              		@ frame_needed = 0, uses_anonymous_args = 0
 724              		@ link register save eliminated.
 723:.\Generated_Source\PSoC5/CyFlash.c ****     /* Make request for PHUB to have access */
 724:.\Generated_Source\PSoC5/CyFlash.c ****     CY_FLASH_EE_SCR_REG |= CY_FLASH_EE_SCR_AHB_EE_REQ;
 725              		.loc 1 724 0
 726 0000 044B     		ldr	r3, .L87
 727 0002 1A78     		ldrb	r2, [r3]	@ zero_extendqisi2
 728 0004 42F00102 		orr	r2, r2, #1
 729 0008 1A70     		strb	r2, [r3]
 730              	.L86:
 725:.\Generated_Source\PSoC5/CyFlash.c **** 
 726:.\Generated_Source\PSoC5/CyFlash.c ****     while (0u == (CY_FLASH_EE_SCR_REG & CY_FLASH_EE_SCR_AHB_EE_ACK))
 731              		.loc 1 726 0 discriminator 1
 732 000a 1A78     		ldrb	r2, [r3]	@ zero_extendqisi2
 733 000c 9207     		lsls	r2, r2, #30
 734 000e FCD5     		bpl	.L86
 727:.\Generated_Source\PSoC5/CyFlash.c ****     {
 728:.\Generated_Source\PSoC5/CyFlash.c ****         /* Wait for acknowledgment from PHUB */
 729:.\Generated_Source\PSoC5/CyFlash.c ****     }
 730:.\Generated_Source\PSoC5/CyFlash.c **** }
 735              		.loc 1 730 0
 736 0010 7047     		bx	lr
 737              	.L88:
 738 0012 00BF     		.align	2
 739              	.L87:
 740 0014 02470040 		.word	1073760002
 741              		.cfi_endproc
 742              	.LFE11:
 743              		.size	CyEEPROM_ReadReserve, .-CyEEPROM_ReadReserve
 744              		.section	.text.CyEEPROM_ReadRelease,"ax",%progbits
 745              		.align	1
 746              		.global	CyEEPROM_ReadRelease
 747              		.thumb
 748              		.thumb_func
 749              		.type	CyEEPROM_ReadRelease, %function
 750              	CyEEPROM_ReadRelease:
 751              	.LFB12:
 731:.\Generated_Source\PSoC5/CyFlash.c **** 
 732:.\Generated_Source\PSoC5/CyFlash.c **** 
 733:.\Generated_Source\PSoC5/CyFlash.c **** /*******************************************************************************
 734:.\Generated_Source\PSoC5/CyFlash.c **** * Function Name: CyEEPROM_ReadRelease
 735:.\Generated_Source\PSoC5/CyFlash.c **** ********************************************************************************
 736:.\Generated_Source\PSoC5/CyFlash.c **** *
 737:.\Generated_Source\PSoC5/CyFlash.c **** * Summary:
 738:.\Generated_Source\PSoC5/CyFlash.c **** *  Release the read reservation of the EEPROM.
ARM GAS  C:\Users\Yiquing\AppData\Local\Temp\ccgwqGZH.s 			page 28


 739:.\Generated_Source\PSoC5/CyFlash.c **** *
 740:.\Generated_Source\PSoC5/CyFlash.c **** * Parameters:
 741:.\Generated_Source\PSoC5/CyFlash.c **** *  None
 742:.\Generated_Source\PSoC5/CyFlash.c **** *
 743:.\Generated_Source\PSoC5/CyFlash.c **** * Return:
 744:.\Generated_Source\PSoC5/CyFlash.c **** *  None
 745:.\Generated_Source\PSoC5/CyFlash.c **** *
 746:.\Generated_Source\PSoC5/CyFlash.c **** *******************************************************************************/
 747:.\Generated_Source\PSoC5/CyFlash.c **** void CyEEPROM_ReadRelease(void) 
 748:.\Generated_Source\PSoC5/CyFlash.c **** {
 752              		.loc 1 748 0
 753              		.cfi_startproc
 754              		@ args = 0, pretend = 0, frame = 0
 755              		@ frame_needed = 0, uses_anonymous_args = 0
 756              		@ link register save eliminated.
 749:.\Generated_Source\PSoC5/CyFlash.c ****     CY_FLASH_EE_SCR_REG &= (uint8)(~CY_FLASH_EE_SCR_AHB_EE_REQ);
 757              		.loc 1 749 0
 758 0000 024B     		ldr	r3, .L90
 759 0002 1A78     		ldrb	r2, [r3]	@ zero_extendqisi2
 760 0004 02F0FE02 		and	r2, r2, #254
 761 0008 1A70     		strb	r2, [r3]
 762 000a 7047     		bx	lr
 763              	.L91:
 764              		.align	2
 765              	.L90:
 766 000c 02470040 		.word	1073760002
 767              		.cfi_endproc
 768              	.LFE12:
 769              		.size	CyEEPROM_ReadRelease, .-CyEEPROM_ReadRelease
 770              		.comm	dieTemperature,2,1
 771              		.bss
 772              		.align	2
 773              		.set	.LANCHOR0,. + 0
 774              		.type	rowBuffer, %object
 775              		.size	rowBuffer, 4
 776              	rowBuffer:
 777 0000 00000000 		.space	4
 778              		.text
 779              	.Letext0:
 780              		.file 2 ".\\Generated_Source\\PSoC5\\cytypes.h"
 781              		.file 3 ".\\Generated_Source\\PSoC5\\CyLib.h"
 782              		.file 4 ".\\Generated_Source\\PSoC5\\CySpc.h"