ARM GAS  C:\Users\Yiquing\AppData\Local\Temp\ccFtScnd.s 			page 1


   1              		.syntax unified
   2              		.cpu cortex-m3
   3              		.fpu softvfp
   4              		.eabi_attribute 20, 1
   5              		.eabi_attribute 21, 1
   6              		.eabi_attribute 23, 3
   7              		.eabi_attribute 24, 1
   8              		.eabi_attribute 25, 1
   9              		.eabi_attribute 26, 1
  10              		.eabi_attribute 30, 4
  11              		.eabi_attribute 34, 1
  12              		.eabi_attribute 18, 4
  13              		.thumb
  14              		.file	"CySpc.c"
  15              		.text
  16              	.Ltext0:
  17              		.cfi_sections	.debug_frame
  18              		.section	.text.CySpcStart,"ax",%progbits
  19              		.align	1
  20              		.global	CySpcStart
  21              		.thumb
  22              		.thumb_func
  23              		.type	CySpcStart, %function
  24              	CySpcStart:
  25              	.LFB0:
  26              		.file 1 ".\\Generated_Source\\PSoC5\\CySpc.c"
   1:.\Generated_Source\PSoC5/CySpc.c **** /*******************************************************************************
   2:.\Generated_Source\PSoC5/CySpc.c **** * File Name: CySpc.c
   3:.\Generated_Source\PSoC5/CySpc.c **** * Version 5.0
   4:.\Generated_Source\PSoC5/CySpc.c **** *
   5:.\Generated_Source\PSoC5/CySpc.c **** *  Description:
   6:.\Generated_Source\PSoC5/CySpc.c **** *   Provides an API for the System Performance Component.
   7:.\Generated_Source\PSoC5/CySpc.c **** *   The SPC functions are not meant to be called directly by the user
   8:.\Generated_Source\PSoC5/CySpc.c **** *   application.
   9:.\Generated_Source\PSoC5/CySpc.c **** *
  10:.\Generated_Source\PSoC5/CySpc.c **** ********************************************************************************
  11:.\Generated_Source\PSoC5/CySpc.c **** * Copyright 2008-2015, Cypress Semiconductor Corporation.  All rights reserved.
  12:.\Generated_Source\PSoC5/CySpc.c **** * You may use this file only in accordance with the license, terms, conditions,
  13:.\Generated_Source\PSoC5/CySpc.c **** * disclaimers, and limitations in the end user license agreement accompanying
  14:.\Generated_Source\PSoC5/CySpc.c **** * the software package with which this file was provided.
  15:.\Generated_Source\PSoC5/CySpc.c **** *******************************************************************************/
  16:.\Generated_Source\PSoC5/CySpc.c **** 
  17:.\Generated_Source\PSoC5/CySpc.c **** #include "CySpc.h"
  18:.\Generated_Source\PSoC5/CySpc.c **** 
  19:.\Generated_Source\PSoC5/CySpc.c **** #define CY_SPC_KEY_ONE                      (0xB6u)
  20:.\Generated_Source\PSoC5/CySpc.c **** #define CY_SPC_KEY_TWO(x)                   ((uint8) (((uint16) 0xD3u) + ((uint16) (x))))
  21:.\Generated_Source\PSoC5/CySpc.c **** 
  22:.\Generated_Source\PSoC5/CySpc.c **** /* Command Codes */
  23:.\Generated_Source\PSoC5/CySpc.c **** #define CY_SPC_CMD_LD_BYTE                  (0x00u)
  24:.\Generated_Source\PSoC5/CySpc.c **** #define CY_SPC_CMD_LD_MULTI_BYTE            (0x01u)
  25:.\Generated_Source\PSoC5/CySpc.c **** #define CY_SPC_CMD_LD_ROW                   (0x02u)
  26:.\Generated_Source\PSoC5/CySpc.c **** #define CY_SPC_CMD_RD_BYTE                  (0x03u)
  27:.\Generated_Source\PSoC5/CySpc.c **** #define CY_SPC_CMD_RD_MULTI_BYTE            (0x04u)
  28:.\Generated_Source\PSoC5/CySpc.c **** #define CY_SPC_CMD_WR_ROW                   (0x05u)
  29:.\Generated_Source\PSoC5/CySpc.c **** #define CY_SPC_CMD_WR_USER_NVL              (0x06u)
  30:.\Generated_Source\PSoC5/CySpc.c **** #define CY_SPC_CMD_PRG_ROW                  (0x07u)
  31:.\Generated_Source\PSoC5/CySpc.c **** #define CY_SPC_CMD_ER_SECTOR                (0x08u)
ARM GAS  C:\Users\Yiquing\AppData\Local\Temp\ccFtScnd.s 			page 2


  32:.\Generated_Source\PSoC5/CySpc.c **** #define CY_SPC_CMD_ER_ALL                   (0x09u)
  33:.\Generated_Source\PSoC5/CySpc.c **** #define CY_SPC_CMD_RD_HIDDEN                (0x0Au)
  34:.\Generated_Source\PSoC5/CySpc.c **** #define CY_SPC_CMD_PRG_PROTECT              (0x0Bu)
  35:.\Generated_Source\PSoC5/CySpc.c **** #define CY_SPC_CMD_CHECKSUM                 (0x0Cu)
  36:.\Generated_Source\PSoC5/CySpc.c **** #define CY_SPC_CMD_DWNLD_ALGORITHM          (0x0Du)
  37:.\Generated_Source\PSoC5/CySpc.c **** #define CY_SPC_CMD_GET_TEMP                 (0x0Eu)
  38:.\Generated_Source\PSoC5/CySpc.c **** #define CY_SPC_CMD_GET_ADC                  (0x0Fu)
  39:.\Generated_Source\PSoC5/CySpc.c **** #define CY_SPC_CMD_RD_NVL_VOLATILE          (0x10u)
  40:.\Generated_Source\PSoC5/CySpc.c **** #define CY_SPC_CMD_SETUP_TS                 (0x11u)
  41:.\Generated_Source\PSoC5/CySpc.c **** #define CY_SPC_CMD_DISABLE_TS               (0x12u)
  42:.\Generated_Source\PSoC5/CySpc.c **** #define CY_SPC_CMD_ER_ROW                   (0x13u)
  43:.\Generated_Source\PSoC5/CySpc.c **** 
  44:.\Generated_Source\PSoC5/CySpc.c **** /* Enable bit in Active and Alternate Active mode templates */
  45:.\Generated_Source\PSoC5/CySpc.c **** #define PM_SPC_PM_EN                        (0x08u)
  46:.\Generated_Source\PSoC5/CySpc.c **** 
  47:.\Generated_Source\PSoC5/CySpc.c **** /* Gate calls to the SPC. */
  48:.\Generated_Source\PSoC5/CySpc.c **** uint8 SpcLockState = CY_SPC_UNLOCKED;
  49:.\Generated_Source\PSoC5/CySpc.c **** 
  50:.\Generated_Source\PSoC5/CySpc.c **** 
  51:.\Generated_Source\PSoC5/CySpc.c **** #if(CY_PSOC5)
  52:.\Generated_Source\PSoC5/CySpc.c **** 
  53:.\Generated_Source\PSoC5/CySpc.c ****     /***************************************************************************
  54:.\Generated_Source\PSoC5/CySpc.c ****     * The wait-state pipeline must be enabled prior to accessing the SPC
  55:.\Generated_Source\PSoC5/CySpc.c ****     * register interface regardless of CPU frequency. The CySpcLock() saves
  56:.\Generated_Source\PSoC5/CySpc.c ****     * current wait-state pipeline state and enables it. The CySpcUnlock()
  57:.\Generated_Source\PSoC5/CySpc.c ****     * function, which must be called after SPC transaction, restores original
  58:.\Generated_Source\PSoC5/CySpc.c ****     * state.
  59:.\Generated_Source\PSoC5/CySpc.c ****     ***************************************************************************/
  60:.\Generated_Source\PSoC5/CySpc.c ****     static uint32 spcWaitPipeBypass = 0u;
  61:.\Generated_Source\PSoC5/CySpc.c **** 
  62:.\Generated_Source\PSoC5/CySpc.c **** #endif  /* (CY_PSOC5) */
  63:.\Generated_Source\PSoC5/CySpc.c **** 
  64:.\Generated_Source\PSoC5/CySpc.c **** 
  65:.\Generated_Source\PSoC5/CySpc.c **** /*******************************************************************************
  66:.\Generated_Source\PSoC5/CySpc.c **** * Function Name: CySpcStart
  67:.\Generated_Source\PSoC5/CySpc.c **** ********************************************************************************
  68:.\Generated_Source\PSoC5/CySpc.c **** * Summary:
  69:.\Generated_Source\PSoC5/CySpc.c **** *  Starts the SPC.
  70:.\Generated_Source\PSoC5/CySpc.c **** *
  71:.\Generated_Source\PSoC5/CySpc.c **** * Parameters:
  72:.\Generated_Source\PSoC5/CySpc.c **** *  None
  73:.\Generated_Source\PSoC5/CySpc.c **** *
  74:.\Generated_Source\PSoC5/CySpc.c **** * Return:
  75:.\Generated_Source\PSoC5/CySpc.c **** *  None
  76:.\Generated_Source\PSoC5/CySpc.c **** *
  77:.\Generated_Source\PSoC5/CySpc.c **** *******************************************************************************/
  78:.\Generated_Source\PSoC5/CySpc.c **** void CySpcStart(void) 
  79:.\Generated_Source\PSoC5/CySpc.c **** {
  27              		.loc 1 79 0
  28              		.cfi_startproc
  29              		@ args = 0, pretend = 0, frame = 0
  30              		@ frame_needed = 0, uses_anonymous_args = 0
  31 0000 08B5     		push	{r3, lr}
  32              		.cfi_def_cfa_offset 8
  33              		.cfi_offset 3, -8
  34              		.cfi_offset 14, -4
  80:.\Generated_Source\PSoC5/CySpc.c ****     /* Save current global interrupt enable and disable it */
ARM GAS  C:\Users\Yiquing\AppData\Local\Temp\ccFtScnd.s 			page 3


  81:.\Generated_Source\PSoC5/CySpc.c ****     uint8 interruptState = CyEnterCriticalSection();
  35              		.loc 1 81 0
  36 0002 FFF7FEFF 		bl	CyEnterCriticalSection
  37              	.LVL0:
  82:.\Generated_Source\PSoC5/CySpc.c **** 
  83:.\Generated_Source\PSoC5/CySpc.c ****     CY_SPC_PM_ACT_REG  |= PM_SPC_PM_EN;
  38              		.loc 1 83 0
  39 0006 064B     		ldr	r3, .L2
  40 0008 1A78     		ldrb	r2, [r3]	@ zero_extendqisi2
  41 000a 42F00802 		orr	r2, r2, #8
  42 000e 1A70     		strb	r2, [r3]
  84:.\Generated_Source\PSoC5/CySpc.c ****     CY_SPC_PM_STBY_REG |= PM_SPC_PM_EN;
  43              		.loc 1 84 0
  44 0010 1A7C     		ldrb	r2, [r3, #16]	@ zero_extendqisi2
  45 0012 42F00802 		orr	r2, r2, #8
  46 0016 1A74     		strb	r2, [r3, #16]
  85:.\Generated_Source\PSoC5/CySpc.c **** 
  86:.\Generated_Source\PSoC5/CySpc.c ****     /* Restore global interrupt enable state */
  87:.\Generated_Source\PSoC5/CySpc.c ****     CyExitCriticalSection(interruptState);
  88:.\Generated_Source\PSoC5/CySpc.c **** }
  47              		.loc 1 88 0
  48 0018 BDE80840 		pop	{r3, lr}
  87:.\Generated_Source\PSoC5/CySpc.c ****     CyExitCriticalSection(interruptState);
  49              		.loc 1 87 0
  50 001c FFF7FEBF 		b	CyExitCriticalSection
  51              	.LVL1:
  52              	.L3:
  53              		.align	2
  54              	.L2:
  55 0020 A0430040 		.word	1073759136
  56              		.cfi_endproc
  57              	.LFE0:
  58              		.size	CySpcStart, .-CySpcStart
  59              		.section	.text.CySpcStop,"ax",%progbits
  60              		.align	1
  61              		.global	CySpcStop
  62              		.thumb
  63              		.thumb_func
  64              		.type	CySpcStop, %function
  65              	CySpcStop:
  66              	.LFB1:
  89:.\Generated_Source\PSoC5/CySpc.c **** 
  90:.\Generated_Source\PSoC5/CySpc.c **** 
  91:.\Generated_Source\PSoC5/CySpc.c **** /*******************************************************************************
  92:.\Generated_Source\PSoC5/CySpc.c **** * Function Name: CySpcStop
  93:.\Generated_Source\PSoC5/CySpc.c **** ********************************************************************************
  94:.\Generated_Source\PSoC5/CySpc.c **** * Summary:
  95:.\Generated_Source\PSoC5/CySpc.c **** *  Stops the SPC.
  96:.\Generated_Source\PSoC5/CySpc.c **** *
  97:.\Generated_Source\PSoC5/CySpc.c **** * Parameters:
  98:.\Generated_Source\PSoC5/CySpc.c **** *  None
  99:.\Generated_Source\PSoC5/CySpc.c **** *
 100:.\Generated_Source\PSoC5/CySpc.c **** * Return:
 101:.\Generated_Source\PSoC5/CySpc.c **** *  None
 102:.\Generated_Source\PSoC5/CySpc.c **** *
 103:.\Generated_Source\PSoC5/CySpc.c **** *******************************************************************************/
 104:.\Generated_Source\PSoC5/CySpc.c **** void CySpcStop(void) 
ARM GAS  C:\Users\Yiquing\AppData\Local\Temp\ccFtScnd.s 			page 4


 105:.\Generated_Source\PSoC5/CySpc.c **** {
  67              		.loc 1 105 0
  68              		.cfi_startproc
  69              		@ args = 0, pretend = 0, frame = 0
  70              		@ frame_needed = 0, uses_anonymous_args = 0
  71 0000 08B5     		push	{r3, lr}
  72              		.cfi_def_cfa_offset 8
  73              		.cfi_offset 3, -8
  74              		.cfi_offset 14, -4
 106:.\Generated_Source\PSoC5/CySpc.c ****     /* Save current global interrupt enable and disable it */
 107:.\Generated_Source\PSoC5/CySpc.c ****     uint8 interruptState = CyEnterCriticalSection();
  75              		.loc 1 107 0
  76 0002 FFF7FEFF 		bl	CyEnterCriticalSection
  77              	.LVL2:
 108:.\Generated_Source\PSoC5/CySpc.c **** 
 109:.\Generated_Source\PSoC5/CySpc.c ****     CY_SPC_PM_ACT_REG  &= ((uint8)(~PM_SPC_PM_EN));
  78              		.loc 1 109 0
  79 0006 064B     		ldr	r3, .L5
  80 0008 1A78     		ldrb	r2, [r3]	@ zero_extendqisi2
  81 000a 02F0F702 		and	r2, r2, #247
  82 000e 1A70     		strb	r2, [r3]
 110:.\Generated_Source\PSoC5/CySpc.c ****     CY_SPC_PM_STBY_REG &= ((uint8)(~PM_SPC_PM_EN));
  83              		.loc 1 110 0
  84 0010 1A7C     		ldrb	r2, [r3, #16]	@ zero_extendqisi2
  85 0012 02F0F702 		and	r2, r2, #247
  86 0016 1A74     		strb	r2, [r3, #16]
 111:.\Generated_Source\PSoC5/CySpc.c **** 
 112:.\Generated_Source\PSoC5/CySpc.c ****     /* Restore global interrupt enable state */
 113:.\Generated_Source\PSoC5/CySpc.c ****     CyExitCriticalSection(interruptState);
 114:.\Generated_Source\PSoC5/CySpc.c **** }
  87              		.loc 1 114 0
  88 0018 BDE80840 		pop	{r3, lr}
 113:.\Generated_Source\PSoC5/CySpc.c ****     CyExitCriticalSection(interruptState);
  89              		.loc 1 113 0
  90 001c FFF7FEBF 		b	CyExitCriticalSection
  91              	.LVL3:
  92              	.L6:
  93              		.align	2
  94              	.L5:
  95 0020 A0430040 		.word	1073759136
  96              		.cfi_endproc
  97              	.LFE1:
  98              		.size	CySpcStop, .-CySpcStop
  99              		.section	.text.CySpcReadData,"ax",%progbits
 100              		.align	1
 101              		.global	CySpcReadData
 102              		.thumb
 103              		.thumb_func
 104              		.type	CySpcReadData, %function
 105              	CySpcReadData:
 106              	.LFB2:
 115:.\Generated_Source\PSoC5/CySpc.c **** 
 116:.\Generated_Source\PSoC5/CySpc.c **** 
 117:.\Generated_Source\PSoC5/CySpc.c **** /*******************************************************************************
 118:.\Generated_Source\PSoC5/CySpc.c **** * Function Name: CySpcReadData
 119:.\Generated_Source\PSoC5/CySpc.c **** ********************************************************************************
 120:.\Generated_Source\PSoC5/CySpc.c **** * Summary:
ARM GAS  C:\Users\Yiquing\AppData\Local\Temp\ccFtScnd.s 			page 5


 121:.\Generated_Source\PSoC5/CySpc.c **** *  Reads data from the SPC.
 122:.\Generated_Source\PSoC5/CySpc.c **** *
 123:.\Generated_Source\PSoC5/CySpc.c **** * Parameters:
 124:.\Generated_Source\PSoC5/CySpc.c **** *  uint8 buffer:
 125:.\Generated_Source\PSoC5/CySpc.c **** *   Address to store data read.
 126:.\Generated_Source\PSoC5/CySpc.c **** *
 127:.\Generated_Source\PSoC5/CySpc.c **** *  uint8 size:
 128:.\Generated_Source\PSoC5/CySpc.c **** *   Number of bytes to read from the SPC.
 129:.\Generated_Source\PSoC5/CySpc.c **** *
 130:.\Generated_Source\PSoC5/CySpc.c **** * Return:
 131:.\Generated_Source\PSoC5/CySpc.c **** *  uint8:
 132:.\Generated_Source\PSoC5/CySpc.c **** *   The number of bytes read from the SPC.
 133:.\Generated_Source\PSoC5/CySpc.c **** *
 134:.\Generated_Source\PSoC5/CySpc.c **** *******************************************************************************/
 135:.\Generated_Source\PSoC5/CySpc.c **** uint8 CySpcReadData(uint8 buffer[], uint8 size) 
 136:.\Generated_Source\PSoC5/CySpc.c **** {
 107              		.loc 1 136 0
 108              		.cfi_startproc
 109              		@ args = 0, pretend = 0, frame = 0
 110              		@ frame_needed = 0, uses_anonymous_args = 0
 111              	.LVL4:
 112 0000 70B5     		push	{r4, r5, r6, lr}
 113              		.cfi_def_cfa_offset 16
 114              		.cfi_offset 4, -16
 115              		.cfi_offset 5, -12
 116              		.cfi_offset 6, -8
 117              		.cfi_offset 14, -4
 118              		.loc 1 136 0
 119 0002 0646     		mov	r6, r0
 120 0004 0D46     		mov	r5, r1
 137:.\Generated_Source\PSoC5/CySpc.c ****     uint8 i;
 138:.\Generated_Source\PSoC5/CySpc.c **** 
 139:.\Generated_Source\PSoC5/CySpc.c ****     for(i = 0u; i < size; i++)
 121              		.loc 1 139 0
 122 0006 0024     		movs	r4, #0
 123              	.LVL5:
 124              	.L8:
 125              		.loc 1 139 0 is_stmt 0 discriminator 1
 126 0008 E3B2     		uxtb	r3, r4
 127 000a AB42     		cmp	r3, r5
 128 000c 0CD2     		bcs	.L13
 129              	.L11:
 140:.\Generated_Source\PSoC5/CySpc.c ****     {
 141:.\Generated_Source\PSoC5/CySpc.c ****         while(!CY_SPC_DATA_READY)
 130              		.loc 1 141 0 is_stmt 1 discriminator 1
 131 000e 074B     		ldr	r3, .L15
 132 0010 1B78     		ldrb	r3, [r3]	@ zero_extendqisi2
 133 0012 DB07     		lsls	r3, r3, #31
 134 0014 03D4     		bmi	.L14
 142:.\Generated_Source\PSoC5/CySpc.c ****         {
 143:.\Generated_Source\PSoC5/CySpc.c ****             CyDelayUs(1u);
 135              		.loc 1 143 0
 136 0016 0120     		movs	r0, #1
 137 0018 FFF7FEFF 		bl	CyDelayUs
 138              	.LVL6:
 139 001c F7E7     		b	.L11
 140              	.L14:
ARM GAS  C:\Users\Yiquing\AppData\Local\Temp\ccFtScnd.s 			page 6


 144:.\Generated_Source\PSoC5/CySpc.c ****         }
 145:.\Generated_Source\PSoC5/CySpc.c ****         buffer[i] = CY_SPC_CPU_DATA_REG;
 141              		.loc 1 145 0
 142 001e 044B     		ldr	r3, .L15+4
 143 0020 1B78     		ldrb	r3, [r3]	@ zero_extendqisi2
 144 0022 3355     		strb	r3, [r6, r4]
 145              	.LVL7:
 146 0024 0134     		adds	r4, r4, #1
 147              	.LVL8:
 148 0026 EFE7     		b	.L8
 149              	.LVL9:
 150              	.L13:
 146:.\Generated_Source\PSoC5/CySpc.c ****     }
 147:.\Generated_Source\PSoC5/CySpc.c **** 
 148:.\Generated_Source\PSoC5/CySpc.c ****     return(i);
 149:.\Generated_Source\PSoC5/CySpc.c **** }
 151              		.loc 1 149 0
 152 0028 2846     		mov	r0, r5
 153 002a 70BD     		pop	{r4, r5, r6, pc}
 154              	.LVL10:
 155              	.L16:
 156              		.align	2
 157              	.L15:
 158 002c 22470040 		.word	1073760034
 159 0030 20470040 		.word	1073760032
 160              		.cfi_endproc
 161              	.LFE2:
 162              		.size	CySpcReadData, .-CySpcReadData
 163              		.section	.text.CySpcLoadMultiByte,"ax",%progbits
 164              		.align	1
 165              		.global	CySpcLoadMultiByte
 166              		.thumb
 167              		.thumb_func
 168              		.type	CySpcLoadMultiByte, %function
 169              	CySpcLoadMultiByte:
 170              	.LFB3:
 150:.\Generated_Source\PSoC5/CySpc.c **** 
 151:.\Generated_Source\PSoC5/CySpc.c **** 
 152:.\Generated_Source\PSoC5/CySpc.c **** /*******************************************************************************
 153:.\Generated_Source\PSoC5/CySpc.c **** * Function Name: CySpcLoadMultiByte
 154:.\Generated_Source\PSoC5/CySpc.c **** ********************************************************************************
 155:.\Generated_Source\PSoC5/CySpc.c **** * Summary:
 156:.\Generated_Source\PSoC5/CySpc.c **** *  Loads 1 to 32 bytes of data into the row latch of a Flash/EEPROM array.
 157:.\Generated_Source\PSoC5/CySpc.c **** *
 158:.\Generated_Source\PSoC5/CySpc.c **** * Parameters:
 159:.\Generated_Source\PSoC5/CySpc.c **** *  uint8 array:
 160:.\Generated_Source\PSoC5/CySpc.c **** *   Id of the array.
 161:.\Generated_Source\PSoC5/CySpc.c **** *
 162:.\Generated_Source\PSoC5/CySpc.c **** *  uint16 address:
 163:.\Generated_Source\PSoC5/CySpc.c **** *   Flash/eeprom addrress
 164:.\Generated_Source\PSoC5/CySpc.c **** *
 165:.\Generated_Source\PSoC5/CySpc.c **** *  uint8* buffer:
 166:.\Generated_Source\PSoC5/CySpc.c **** *   Data to load to the row latch
 167:.\Generated_Source\PSoC5/CySpc.c **** *
 168:.\Generated_Source\PSoC5/CySpc.c **** *  uint16 number:
 169:.\Generated_Source\PSoC5/CySpc.c **** *   Number bytes to load.
 170:.\Generated_Source\PSoC5/CySpc.c **** *
ARM GAS  C:\Users\Yiquing\AppData\Local\Temp\ccFtScnd.s 			page 7


 171:.\Generated_Source\PSoC5/CySpc.c **** * Return:
 172:.\Generated_Source\PSoC5/CySpc.c **** *  CYRET_STARTED
 173:.\Generated_Source\PSoC5/CySpc.c **** *  CYRET_CANCELED
 174:.\Generated_Source\PSoC5/CySpc.c **** *  CYRET_LOCKED
 175:.\Generated_Source\PSoC5/CySpc.c **** *  CYRET_BAD_PARAM
 176:.\Generated_Source\PSoC5/CySpc.c **** *
 177:.\Generated_Source\PSoC5/CySpc.c **** *******************************************************************************/
 178:.\Generated_Source\PSoC5/CySpc.c **** cystatus CySpcLoadMultiByte(uint8 array, uint16 address, const uint8 buffer[], uint8 size)\
 179:.\Generated_Source\PSoC5/CySpc.c **** 
 180:.\Generated_Source\PSoC5/CySpc.c **** {
 171              		.loc 1 180 0
 172              		.cfi_startproc
 173              		@ args = 0, pretend = 0, frame = 0
 174              		@ frame_needed = 0, uses_anonymous_args = 0
 175              	.LVL11:
 181:.\Generated_Source\PSoC5/CySpc.c ****     cystatus status = CYRET_STARTED;
 182:.\Generated_Source\PSoC5/CySpc.c ****     uint8 i;
 183:.\Generated_Source\PSoC5/CySpc.c **** 
 184:.\Generated_Source\PSoC5/CySpc.c ****     /***************************************************************************
 185:.\Generated_Source\PSoC5/CySpc.c ****     * Check if number is correct for array. Number must be less than
 186:.\Generated_Source\PSoC5/CySpc.c ****     * 32 for Flash or less than 16 for EEPROM.
 187:.\Generated_Source\PSoC5/CySpc.c ****     ***************************************************************************/
 188:.\Generated_Source\PSoC5/CySpc.c ****     if(((array < CY_SPC_LAST_FLASH_ARRAYID) && (size < 32u)) ||
 176              		.loc 1 188 0
 177 0000 3E28     		cmp	r0, #62
 180:.\Generated_Source\PSoC5/CySpc.c **** {
 178              		.loc 1 180 0
 179 0002 70B5     		push	{r4, r5, r6, lr}
 180              		.cfi_def_cfa_offset 16
 181              		.cfi_offset 4, -16
 182              		.cfi_offset 5, -12
 183              		.cfi_offset 6, -8
 184              		.cfi_offset 14, -4
 185              		.loc 1 188 0
 186 0004 01D8     		bhi	.L18
 187              		.loc 1 188 0 is_stmt 0 discriminator 1
 188 0006 1F2B     		cmp	r3, #31
 189 0008 02E0     		b	.L28
 190              	.L18:
 191              		.loc 1 188 0 discriminator 2
 192 000a 3F28     		cmp	r0, #63
 193 000c 25D0     		beq	.L24
 189:.\Generated_Source\PSoC5/CySpc.c ****        ((array > CY_SPC_LAST_FLASH_ARRAYID) && (size < 16u)))
 194              		.loc 1 189 0 is_stmt 1
 195 000e 0F2B     		cmp	r3, #15
 196              	.L28:
 197 0010 23D8     		bhi	.L24
 190:.\Generated_Source\PSoC5/CySpc.c ****     {
 191:.\Generated_Source\PSoC5/CySpc.c ****         if(CY_SPC_IDLE)
 198              		.loc 1 191 0
 199 0012 154D     		ldr	r5, .L30
 200 0014 2C78     		ldrb	r4, [r5]	@ zero_extendqisi2
 201 0016 A407     		lsls	r4, r4, #30
 202 0018 21D5     		bpl	.L25
 192:.\Generated_Source\PSoC5/CySpc.c ****         {
 193:.\Generated_Source\PSoC5/CySpc.c ****             CY_SPC_CPU_DATA_REG = CY_SPC_KEY_ONE;
 203              		.loc 1 193 0
ARM GAS  C:\Users\Yiquing\AppData\Local\Temp\ccFtScnd.s 			page 8


 204 001a 144C     		ldr	r4, .L30+4
 205 001c B626     		movs	r6, #182
 206 001e 2670     		strb	r6, [r4]
 194:.\Generated_Source\PSoC5/CySpc.c ****             CY_SPC_CPU_DATA_REG = CY_SPC_KEY_TWO(CY_SPC_CMD_LD_MULTI_BYTE);
 207              		.loc 1 194 0
 208 0020 D426     		movs	r6, #212
 209 0022 2670     		strb	r6, [r4]
 195:.\Generated_Source\PSoC5/CySpc.c ****             CY_SPC_CPU_DATA_REG = CY_SPC_CMD_LD_MULTI_BYTE;
 210              		.loc 1 195 0
 211 0024 0126     		movs	r6, #1
 212 0026 2670     		strb	r6, [r4]
 196:.\Generated_Source\PSoC5/CySpc.c **** 
 197:.\Generated_Source\PSoC5/CySpc.c ****             if(CY_SPC_BUSY)
 213              		.loc 1 197 0
 214 0028 2D78     		ldrb	r5, [r5]	@ zero_extendqisi2
 215 002a 05F00205 		and	r5, r5, #2
 216 002e 05F0FF06 		and	r6, r5, #255
 217 0032 B5B9     		cbnz	r5, .L26
 198:.\Generated_Source\PSoC5/CySpc.c ****             {
 199:.\Generated_Source\PSoC5/CySpc.c ****                 CY_SPC_CPU_DATA_REG = array;
 218              		.loc 1 199 0
 219 0034 2070     		strb	r0, [r4]
 200:.\Generated_Source\PSoC5/CySpc.c ****                 CY_SPC_CPU_DATA_REG = 1u & HI8(address);
 220              		.loc 1 200 0
 221 0036 C1F30020 		ubfx	r0, r1, #8, #1
 222              	.LVL12:
 201:.\Generated_Source\PSoC5/CySpc.c ****                 CY_SPC_CPU_DATA_REG = LO8(address);
 223              		.loc 1 201 0
 224 003a C9B2     		uxtb	r1, r1
 225              	.LVL13:
 200:.\Generated_Source\PSoC5/CySpc.c ****                 CY_SPC_CPU_DATA_REG = 1u & HI8(address);
 226              		.loc 1 200 0
 227 003c 2070     		strb	r0, [r4]
 228              	.LVL14:
 229              		.loc 1 201 0
 230 003e 2170     		strb	r1, [r4]
 202:.\Generated_Source\PSoC5/CySpc.c ****                 CY_SPC_CPU_DATA_REG = ((uint8)(size - 1u));
 231              		.loc 1 202 0
 232 0040 591E     		subs	r1, r3, #1
 233 0042 C9B2     		uxtb	r1, r1
 234 0044 2170     		strb	r1, [r4]
 235              	.LVL15:
 203:.\Generated_Source\PSoC5/CySpc.c **** 
 204:.\Generated_Source\PSoC5/CySpc.c ****                 for(i = 0u; i < size; i++)
 236              		.loc 1 204 0
 237 0046 3146     		mov	r1, r6
 238              	.LVL16:
 239              	.L21:
 240              		.loc 1 204 0 is_stmt 0 discriminator 1
 241 0048 C8B2     		uxtb	r0, r1
 242 004a 9842     		cmp	r0, r3
 243 004c 03D2     		bcs	.L29
 205:.\Generated_Source\PSoC5/CySpc.c ****                 {
 206:.\Generated_Source\PSoC5/CySpc.c ****                     CY_SPC_CPU_DATA_REG = buffer[i];
 244              		.loc 1 206 0 is_stmt 1 discriminator 2
 245 004e 505C     		ldrb	r0, [r2, r1]	@ zero_extendqisi2
 246 0050 0131     		adds	r1, r1, #1
ARM GAS  C:\Users\Yiquing\AppData\Local\Temp\ccFtScnd.s 			page 9


 247              	.LVL17:
 248 0052 2070     		strb	r0, [r4]
 249              	.LVL18:
 250 0054 F8E7     		b	.L21
 251              	.LVL19:
 252              	.L29:
 181:.\Generated_Source\PSoC5/CySpc.c ****     cystatus status = CYRET_STARTED;
 253              		.loc 1 181 0
 254 0056 0720     		movs	r0, #7
 255 0058 70BD     		pop	{r4, r5, r6, pc}
 256              	.LVL20:
 257              	.L24:
 207:.\Generated_Source\PSoC5/CySpc.c ****                 }
 208:.\Generated_Source\PSoC5/CySpc.c ****             }
 209:.\Generated_Source\PSoC5/CySpc.c ****             else
 210:.\Generated_Source\PSoC5/CySpc.c ****             {
 211:.\Generated_Source\PSoC5/CySpc.c ****                 status = CYRET_CANCELED;
 212:.\Generated_Source\PSoC5/CySpc.c ****             }
 213:.\Generated_Source\PSoC5/CySpc.c ****         }
 214:.\Generated_Source\PSoC5/CySpc.c ****         else
 215:.\Generated_Source\PSoC5/CySpc.c ****         {
 216:.\Generated_Source\PSoC5/CySpc.c ****             status = CYRET_LOCKED;
 217:.\Generated_Source\PSoC5/CySpc.c ****         }
 218:.\Generated_Source\PSoC5/CySpc.c ****     }
 219:.\Generated_Source\PSoC5/CySpc.c ****     else
 220:.\Generated_Source\PSoC5/CySpc.c ****     {
 221:.\Generated_Source\PSoC5/CySpc.c ****         status = CYRET_BAD_PARAM;
 258              		.loc 1 221 0
 259 005a 0120     		movs	r0, #1
 260              	.LVL21:
 261 005c 70BD     		pop	{r4, r5, r6, pc}
 262              	.LVL22:
 263              	.L25:
 216:.\Generated_Source\PSoC5/CySpc.c ****             status = CYRET_LOCKED;
 264              		.loc 1 216 0
 265 005e 0420     		movs	r0, #4
 266              	.LVL23:
 267 0060 70BD     		pop	{r4, r5, r6, pc}
 268              	.LVL24:
 269              	.L26:
 211:.\Generated_Source\PSoC5/CySpc.c ****                 status = CYRET_CANCELED;
 270              		.loc 1 211 0
 271 0062 0920     		movs	r0, #9
 272              	.LVL25:
 222:.\Generated_Source\PSoC5/CySpc.c ****     }
 223:.\Generated_Source\PSoC5/CySpc.c **** 
 224:.\Generated_Source\PSoC5/CySpc.c ****     return(status);
 225:.\Generated_Source\PSoC5/CySpc.c **** }
 273              		.loc 1 225 0
 274 0064 70BD     		pop	{r4, r5, r6, pc}
 275              	.L31:
 276 0066 00BF     		.align	2
 277              	.L30:
 278 0068 22470040 		.word	1073760034
 279 006c 20470040 		.word	1073760032
 280              		.cfi_endproc
 281              	.LFE3:
ARM GAS  C:\Users\Yiquing\AppData\Local\Temp\ccFtScnd.s 			page 10


 282              		.size	CySpcLoadMultiByte, .-CySpcLoadMultiByte
 283              		.section	.text.CySpcLoadRow,"ax",%progbits
 284              		.align	1
 285              		.global	CySpcLoadRow
 286              		.thumb
 287              		.thumb_func
 288              		.type	CySpcLoadRow, %function
 289              	CySpcLoadRow:
 290              	.LFB4:
 226:.\Generated_Source\PSoC5/CySpc.c **** 
 227:.\Generated_Source\PSoC5/CySpc.c **** 
 228:.\Generated_Source\PSoC5/CySpc.c **** /*******************************************************************************
 229:.\Generated_Source\PSoC5/CySpc.c **** * Function Name: CySpcLoadRow
 230:.\Generated_Source\PSoC5/CySpc.c **** ********************************************************************************
 231:.\Generated_Source\PSoC5/CySpc.c **** * Summary:
 232:.\Generated_Source\PSoC5/CySpc.c **** *  Loads a row of data into the row latch of a Flash/EEPROM array.
 233:.\Generated_Source\PSoC5/CySpc.c **** *
 234:.\Generated_Source\PSoC5/CySpc.c **** *  The buffer pointer should point to the data that should be written to the
 235:.\Generated_Source\PSoC5/CySpc.c **** *  flash row directly (no data in ECC/flash will be preserved). It is Flash API
 236:.\Generated_Source\PSoC5/CySpc.c **** *  responsibility to prepare data: the preserved data are copied from flash into
 237:.\Generated_Source\PSoC5/CySpc.c **** *  array with the modified data.
 238:.\Generated_Source\PSoC5/CySpc.c **** *
 239:.\Generated_Source\PSoC5/CySpc.c **** * Parameters:
 240:.\Generated_Source\PSoC5/CySpc.c **** *  uint8 array:
 241:.\Generated_Source\PSoC5/CySpc.c **** *   Id of the array.
 242:.\Generated_Source\PSoC5/CySpc.c **** *
 243:.\Generated_Source\PSoC5/CySpc.c **** *  uint8* buffer:
 244:.\Generated_Source\PSoC5/CySpc.c **** *   Data to be loaded to the row latch
 245:.\Generated_Source\PSoC5/CySpc.c **** *
 246:.\Generated_Source\PSoC5/CySpc.c **** *  uint8 size:
 247:.\Generated_Source\PSoC5/CySpc.c **** *   The number of data bytes that the SPC expects to be written. Depends on the
 248:.\Generated_Source\PSoC5/CySpc.c **** *   type of the array and, if the array is Flash, whether ECC is being enabled
 249:.\Generated_Source\PSoC5/CySpc.c **** *   or not. There are following values: flash row latch size with ECC enabled,
 250:.\Generated_Source\PSoC5/CySpc.c **** *   flash row latch size with ECC disabled and EEPROM row latch size.
 251:.\Generated_Source\PSoC5/CySpc.c **** *
 252:.\Generated_Source\PSoC5/CySpc.c **** * Return:
 253:.\Generated_Source\PSoC5/CySpc.c **** *  CYRET_STARTED
 254:.\Generated_Source\PSoC5/CySpc.c **** *  CYRET_CANCELED
 255:.\Generated_Source\PSoC5/CySpc.c **** *  CYRET_LOCKED
 256:.\Generated_Source\PSoC5/CySpc.c **** *
 257:.\Generated_Source\PSoC5/CySpc.c **** *******************************************************************************/
 258:.\Generated_Source\PSoC5/CySpc.c **** cystatus CySpcLoadRow(uint8 array, const uint8 buffer[], uint16 size)
 259:.\Generated_Source\PSoC5/CySpc.c **** {
 291              		.loc 1 259 0
 292              		.cfi_startproc
 293              		@ args = 0, pretend = 0, frame = 0
 294              		@ frame_needed = 0, uses_anonymous_args = 0
 295              	.LVL26:
 296 0000 30B5     		push	{r4, r5, lr}
 297              		.cfi_def_cfa_offset 12
 298              		.cfi_offset 4, -12
 299              		.cfi_offset 5, -8
 300              		.cfi_offset 14, -4
 260:.\Generated_Source\PSoC5/CySpc.c ****     cystatus status = CYRET_STARTED;
 261:.\Generated_Source\PSoC5/CySpc.c ****     uint16 i;
 262:.\Generated_Source\PSoC5/CySpc.c **** 
 263:.\Generated_Source\PSoC5/CySpc.c ****     /* Make sure the SPC is ready to accept command */
ARM GAS  C:\Users\Yiquing\AppData\Local\Temp\ccFtScnd.s 			page 11


 264:.\Generated_Source\PSoC5/CySpc.c ****     if(CY_SPC_IDLE)
 301              		.loc 1 264 0
 302 0002 0F4B     		ldr	r3, .L39
 303 0004 1C78     		ldrb	r4, [r3]	@ zero_extendqisi2
 304 0006 A407     		lsls	r4, r4, #30
 305 0008 16D5     		bpl	.L36
 265:.\Generated_Source\PSoC5/CySpc.c ****     {
 266:.\Generated_Source\PSoC5/CySpc.c ****         CY_SPC_CPU_DATA_REG = CY_SPC_KEY_ONE;
 306              		.loc 1 266 0
 307 000a 0E4C     		ldr	r4, .L39+4
 308 000c B625     		movs	r5, #182
 309 000e 2570     		strb	r5, [r4]
 267:.\Generated_Source\PSoC5/CySpc.c ****         CY_SPC_CPU_DATA_REG = CY_SPC_KEY_TWO(CY_SPC_CMD_LD_ROW);
 310              		.loc 1 267 0
 311 0010 D525     		movs	r5, #213
 312 0012 2570     		strb	r5, [r4]
 268:.\Generated_Source\PSoC5/CySpc.c ****         CY_SPC_CPU_DATA_REG = CY_SPC_CMD_LD_ROW;
 313              		.loc 1 268 0
 314 0014 0225     		movs	r5, #2
 315 0016 2570     		strb	r5, [r4]
 269:.\Generated_Source\PSoC5/CySpc.c **** 
 270:.\Generated_Source\PSoC5/CySpc.c ****         /* Make sure the command was accepted */
 271:.\Generated_Source\PSoC5/CySpc.c ****         if(CY_SPC_BUSY)
 316              		.loc 1 271 0
 317 0018 1D78     		ldrb	r5, [r3]	@ zero_extendqisi2
 318 001a 05F00205 		and	r5, r5, #2
 319 001e 05F0FF03 		and	r3, r5, #255
 320 0022 5DB9     		cbnz	r5, .L37
 272:.\Generated_Source\PSoC5/CySpc.c ****         {
 273:.\Generated_Source\PSoC5/CySpc.c ****             CY_SPC_CPU_DATA_REG = array;
 321              		.loc 1 273 0
 322 0024 2070     		strb	r0, [r4]
 323              	.LVL27:
 324              	.L34:
 274:.\Generated_Source\PSoC5/CySpc.c **** 
 275:.\Generated_Source\PSoC5/CySpc.c ****             for(i = 0u; i < size; i++)
 325              		.loc 1 275 0 discriminator 1
 326 0026 98B2     		uxth	r0, r3
 327 0028 9042     		cmp	r0, r2
 328 002a 03D2     		bcs	.L38
 276:.\Generated_Source\PSoC5/CySpc.c ****             {
 277:.\Generated_Source\PSoC5/CySpc.c ****                 CY_SPC_CPU_DATA_REG = buffer[i];
 329              		.loc 1 277 0 discriminator 2
 330 002c C85C     		ldrb	r0, [r1, r3]	@ zero_extendqisi2
 331 002e 0133     		adds	r3, r3, #1
 332              	.LVL28:
 333 0030 2070     		strb	r0, [r4]
 334              	.LVL29:
 335 0032 F8E7     		b	.L34
 336              	.LVL30:
 337              	.L38:
 260:.\Generated_Source\PSoC5/CySpc.c ****     cystatus status = CYRET_STARTED;
 338              		.loc 1 260 0
 339 0034 0720     		movs	r0, #7
 340 0036 30BD     		pop	{r4, r5, pc}
 341              	.LVL31:
 342              	.L36:
ARM GAS  C:\Users\Yiquing\AppData\Local\Temp\ccFtScnd.s 			page 12


 278:.\Generated_Source\PSoC5/CySpc.c ****             }
 279:.\Generated_Source\PSoC5/CySpc.c ****         }
 280:.\Generated_Source\PSoC5/CySpc.c ****         else
 281:.\Generated_Source\PSoC5/CySpc.c ****         {
 282:.\Generated_Source\PSoC5/CySpc.c ****             status = CYRET_CANCELED;
 283:.\Generated_Source\PSoC5/CySpc.c ****         }
 284:.\Generated_Source\PSoC5/CySpc.c ****     }
 285:.\Generated_Source\PSoC5/CySpc.c ****     else
 286:.\Generated_Source\PSoC5/CySpc.c ****     {
 287:.\Generated_Source\PSoC5/CySpc.c ****         status = CYRET_LOCKED;
 343              		.loc 1 287 0
 344 0038 0420     		movs	r0, #4
 345              	.LVL32:
 346 003a 30BD     		pop	{r4, r5, pc}
 347              	.LVL33:
 348              	.L37:
 282:.\Generated_Source\PSoC5/CySpc.c ****             status = CYRET_CANCELED;
 349              		.loc 1 282 0
 350 003c 0920     		movs	r0, #9
 351              	.LVL34:
 288:.\Generated_Source\PSoC5/CySpc.c ****     }
 289:.\Generated_Source\PSoC5/CySpc.c **** 
 290:.\Generated_Source\PSoC5/CySpc.c ****     return(status);
 291:.\Generated_Source\PSoC5/CySpc.c **** }
 352              		.loc 1 291 0
 353 003e 30BD     		pop	{r4, r5, pc}
 354              	.L40:
 355              		.align	2
 356              	.L39:
 357 0040 22470040 		.word	1073760034
 358 0044 20470040 		.word	1073760032
 359              		.cfi_endproc
 360              	.LFE4:
 361              		.size	CySpcLoadRow, .-CySpcLoadRow
 362              		.section	.text.CySpcLoadRowFull,"ax",%progbits
 363              		.align	1
 364              		.global	CySpcLoadRowFull
 365              		.thumb
 366              		.thumb_func
 367              		.type	CySpcLoadRowFull, %function
 368              	CySpcLoadRowFull:
 369              	.LFB5:
 292:.\Generated_Source\PSoC5/CySpc.c **** 
 293:.\Generated_Source\PSoC5/CySpc.c **** 
 294:.\Generated_Source\PSoC5/CySpc.c **** /*******************************************************************************
 295:.\Generated_Source\PSoC5/CySpc.c **** * Function Name: CySpcLoadRowFull
 296:.\Generated_Source\PSoC5/CySpc.c **** ********************************************************************************
 297:.\Generated_Source\PSoC5/CySpc.c **** * Summary:
 298:.\Generated_Source\PSoC5/CySpc.c **** *  Loads a row of data into the row latch of a Flash/EEPROM array.
 299:.\Generated_Source\PSoC5/CySpc.c **** *
 300:.\Generated_Source\PSoC5/CySpc.c **** *  The only data that are going to be changed should be passed. The function
 301:.\Generated_Source\PSoC5/CySpc.c **** *  will handle unmodified data preservation based on DWR settings and input
 302:.\Generated_Source\PSoC5/CySpc.c **** *  parameters.
 303:.\Generated_Source\PSoC5/CySpc.c **** *
 304:.\Generated_Source\PSoC5/CySpc.c **** * Parameters:
 305:.\Generated_Source\PSoC5/CySpc.c **** *  uint8 array:
 306:.\Generated_Source\PSoC5/CySpc.c **** *   Id of the array.
ARM GAS  C:\Users\Yiquing\AppData\Local\Temp\ccFtScnd.s 			page 13


 307:.\Generated_Source\PSoC5/CySpc.c **** *
 308:.\Generated_Source\PSoC5/CySpc.c **** *  uint16 row:
 309:.\Generated_Source\PSoC5/CySpc.c **** *   Flash row number to be loaded.
 310:.\Generated_Source\PSoC5/CySpc.c **** *
 311:.\Generated_Source\PSoC5/CySpc.c **** *  uint8* buffer:
 312:.\Generated_Source\PSoC5/CySpc.c **** *   Data to be loaded to the row latch
 313:.\Generated_Source\PSoC5/CySpc.c **** *
 314:.\Generated_Source\PSoC5/CySpc.c **** *  uint8 size:
 315:.\Generated_Source\PSoC5/CySpc.c **** *   The number of data bytes that the SPC expects to be written. Depends on the
 316:.\Generated_Source\PSoC5/CySpc.c **** *   type of the array and, if the array is Flash, whether ECC is being enabled
 317:.\Generated_Source\PSoC5/CySpc.c **** *   or not. There are following values: flash row latch size with ECC enabled,
 318:.\Generated_Source\PSoC5/CySpc.c **** *   flash row latch size with ECC disabled and EEPROM row latch size.
 319:.\Generated_Source\PSoC5/CySpc.c **** *
 320:.\Generated_Source\PSoC5/CySpc.c **** * Return:
 321:.\Generated_Source\PSoC5/CySpc.c **** *  CYRET_STARTED
 322:.\Generated_Source\PSoC5/CySpc.c **** *  CYRET_CANCELED
 323:.\Generated_Source\PSoC5/CySpc.c **** *  CYRET_LOCKED
 324:.\Generated_Source\PSoC5/CySpc.c **** *
 325:.\Generated_Source\PSoC5/CySpc.c **** *******************************************************************************/
 326:.\Generated_Source\PSoC5/CySpc.c **** cystatus CySpcLoadRowFull(uint8 array, uint16 row, const uint8 buffer[], uint16 size)\
 327:.\Generated_Source\PSoC5/CySpc.c **** 
 328:.\Generated_Source\PSoC5/CySpc.c **** {
 370              		.loc 1 328 0
 371              		.cfi_startproc
 372              		@ args = 0, pretend = 0, frame = 0
 373              		@ frame_needed = 0, uses_anonymous_args = 0
 374              	.LVL35:
 375 0000 70B5     		push	{r4, r5, r6, lr}
 376              		.cfi_def_cfa_offset 16
 377              		.cfi_offset 4, -16
 378              		.cfi_offset 5, -12
 379              		.cfi_offset 6, -8
 380              		.cfi_offset 14, -4
 329:.\Generated_Source\PSoC5/CySpc.c ****     cystatus status = CYRET_STARTED;
 330:.\Generated_Source\PSoC5/CySpc.c ****     uint16 i;
 331:.\Generated_Source\PSoC5/CySpc.c **** 
 332:.\Generated_Source\PSoC5/CySpc.c ****     #if (CYDEV_ECC_ENABLE == 0)
 333:.\Generated_Source\PSoC5/CySpc.c ****         uint32 offset;
 334:.\Generated_Source\PSoC5/CySpc.c ****     #endif /* (CYDEV_ECC_ENABLE == 0) */
 335:.\Generated_Source\PSoC5/CySpc.c **** 
 336:.\Generated_Source\PSoC5/CySpc.c ****     /* Make sure the SPC is ready to accept command */
 337:.\Generated_Source\PSoC5/CySpc.c ****     if(CY_SPC_IDLE)
 381              		.loc 1 337 0
 382 0002 184C     		ldr	r4, .L55
 383 0004 2578     		ldrb	r5, [r4]	@ zero_extendqisi2
 384 0006 AD07     		lsls	r5, r5, #30
 385 0008 28D5     		bpl	.L48
 338:.\Generated_Source\PSoC5/CySpc.c ****     {
 339:.\Generated_Source\PSoC5/CySpc.c ****         CY_SPC_CPU_DATA_REG = CY_SPC_KEY_ONE;
 386              		.loc 1 339 0
 387 000a 174D     		ldr	r5, .L55+4
 388 000c B626     		movs	r6, #182
 389 000e 2E70     		strb	r6, [r5]
 340:.\Generated_Source\PSoC5/CySpc.c ****         CY_SPC_CPU_DATA_REG = CY_SPC_KEY_TWO(CY_SPC_CMD_LD_ROW);
 390              		.loc 1 340 0
 391 0010 D526     		movs	r6, #213
 392 0012 2E70     		strb	r6, [r5]
ARM GAS  C:\Users\Yiquing\AppData\Local\Temp\ccFtScnd.s 			page 14


 341:.\Generated_Source\PSoC5/CySpc.c ****         CY_SPC_CPU_DATA_REG = CY_SPC_CMD_LD_ROW;
 393              		.loc 1 341 0
 394 0014 0226     		movs	r6, #2
 395 0016 2E70     		strb	r6, [r5]
 342:.\Generated_Source\PSoC5/CySpc.c **** 
 343:.\Generated_Source\PSoC5/CySpc.c ****         /* Make sure the command was accepted */
 344:.\Generated_Source\PSoC5/CySpc.c ****         if(CY_SPC_BUSY)
 396              		.loc 1 344 0
 397 0018 2678     		ldrb	r6, [r4]	@ zero_extendqisi2
 398 001a 06F00206 		and	r6, r6, #2
 399 001e 06F0FF04 		and	r4, r6, #255
 400 0022 EEB9     		cbnz	r6, .L49
 345:.\Generated_Source\PSoC5/CySpc.c ****         {
 346:.\Generated_Source\PSoC5/CySpc.c ****             CY_SPC_CPU_DATA_REG = array;
 401              		.loc 1 346 0
 402 0024 2870     		strb	r0, [r5]
 403              	.LVL36:
 404              	.L43:
 347:.\Generated_Source\PSoC5/CySpc.c **** 
 348:.\Generated_Source\PSoC5/CySpc.c ****             /*******************************************************************
 349:.\Generated_Source\PSoC5/CySpc.c ****             * If "Enable Error Correcting Code (ECC)" and "Store Configuration
 350:.\Generated_Source\PSoC5/CySpc.c ****             * Data in ECC" DWR options are disabled, ECC section is available
 351:.\Generated_Source\PSoC5/CySpc.c ****             * for user data.
 352:.\Generated_Source\PSoC5/CySpc.c ****             *******************************************************************/
 353:.\Generated_Source\PSoC5/CySpc.c ****             #if ((CYDEV_ECC_ENABLE == 0u) && (CYDEV_CONFIGURATION_ECC == 0u))
 354:.\Generated_Source\PSoC5/CySpc.c **** 
 355:.\Generated_Source\PSoC5/CySpc.c ****                 /*******************************************************************
 356:.\Generated_Source\PSoC5/CySpc.c ****                 * If size parameter equals size of the ECC row and selected array
 357:.\Generated_Source\PSoC5/CySpc.c ****                 * identification corresponds to the flash array (but not to EEPROM
 358:.\Generated_Source\PSoC5/CySpc.c ****                 * array) then data are going to be written to the ECC section.
 359:.\Generated_Source\PSoC5/CySpc.c ****                 * In this case flash data must be preserved. The flash data copied
 360:.\Generated_Source\PSoC5/CySpc.c ****                 * from flash data section to the SPC data register.
 361:.\Generated_Source\PSoC5/CySpc.c ****                 *******************************************************************/
 362:.\Generated_Source\PSoC5/CySpc.c ****                 if ((size == CYDEV_ECC_ROW_SIZE) && (array <= CY_SPC_LAST_FLASH_ARRAYID))
 363:.\Generated_Source\PSoC5/CySpc.c ****                 {
 364:.\Generated_Source\PSoC5/CySpc.c ****                     offset = CYDEV_FLS_BASE +
 365:.\Generated_Source\PSoC5/CySpc.c ****                              ((uint32) array * CYDEV_FLS_SECTOR_SIZE) +
 366:.\Generated_Source\PSoC5/CySpc.c ****                              ((uint32)   row * CYDEV_FLS_ROW_SIZE   );
 367:.\Generated_Source\PSoC5/CySpc.c **** 
 368:.\Generated_Source\PSoC5/CySpc.c ****                     for (i = 0u; i < CYDEV_FLS_ROW_SIZE; i++)
 369:.\Generated_Source\PSoC5/CySpc.c ****                     {
 370:.\Generated_Source\PSoC5/CySpc.c ****                         CY_SPC_CPU_DATA_REG = CY_GET_XTND_REG8((void CYFAR *)(offset + i));
 371:.\Generated_Source\PSoC5/CySpc.c ****                     }
 372:.\Generated_Source\PSoC5/CySpc.c ****                 }
 373:.\Generated_Source\PSoC5/CySpc.c **** 
 374:.\Generated_Source\PSoC5/CySpc.c ****             #endif /* ((CYDEV_ECC_ENABLE == 0u) && (CYDEV_CONFIGURATION_ECC == 0u)) */
 375:.\Generated_Source\PSoC5/CySpc.c **** 
 376:.\Generated_Source\PSoC5/CySpc.c **** 
 377:.\Generated_Source\PSoC5/CySpc.c ****             for(i = 0u; i < size; i++)
 405              		.loc 1 377 0 discriminator 1
 406 0026 A6B2     		uxth	r6, r4
 407 0028 9E42     		cmp	r6, r3
 408 002a 03D2     		bcs	.L54
 378:.\Generated_Source\PSoC5/CySpc.c ****             {
 379:.\Generated_Source\PSoC5/CySpc.c ****                 CY_SPC_CPU_DATA_REG = buffer[i];
 409              		.loc 1 379 0 discriminator 2
 410 002c 165D     		ldrb	r6, [r2, r4]	@ zero_extendqisi2
ARM GAS  C:\Users\Yiquing\AppData\Local\Temp\ccFtScnd.s 			page 15


 411 002e 0134     		adds	r4, r4, #1
 412              	.LVL37:
 413 0030 2E70     		strb	r6, [r5]
 414              	.LVL38:
 415 0032 F8E7     		b	.L43
 416              	.LVL39:
 417              	.L54:
 380:.\Generated_Source\PSoC5/CySpc.c ****             }
 381:.\Generated_Source\PSoC5/CySpc.c **** 
 382:.\Generated_Source\PSoC5/CySpc.c **** 
 383:.\Generated_Source\PSoC5/CySpc.c ****             /*******************************************************************
 384:.\Generated_Source\PSoC5/CySpc.c ****             * If "Enable Error Correcting Code (ECC)" DWR option is disabled,
 385:.\Generated_Source\PSoC5/CySpc.c ****             * ECC section can be used for storing device configuration data
 386:.\Generated_Source\PSoC5/CySpc.c ****             * ("Store Configuration Data in ECC" DWR option is enabled) or for
 387:.\Generated_Source\PSoC5/CySpc.c ****             * storing user data in the ECC section ("Store Configuration Data in
 388:.\Generated_Source\PSoC5/CySpc.c ****             * ECC" DWR option is enabled). In both cases, the data in the ECC
 389:.\Generated_Source\PSoC5/CySpc.c ****             * section must be preserved if flash data is written.
 390:.\Generated_Source\PSoC5/CySpc.c ****             *******************************************************************/
 391:.\Generated_Source\PSoC5/CySpc.c ****             #if (CYDEV_ECC_ENABLE == 0)
 392:.\Generated_Source\PSoC5/CySpc.c **** 
 393:.\Generated_Source\PSoC5/CySpc.c **** 
 394:.\Generated_Source\PSoC5/CySpc.c ****                 /*******************************************************************
 395:.\Generated_Source\PSoC5/CySpc.c ****                 * If size parameter equals size of the flash row and selected array
 396:.\Generated_Source\PSoC5/CySpc.c ****                 * identification corresponds to the flash array (but not to EEPROM
 397:.\Generated_Source\PSoC5/CySpc.c ****                 * array) then data are going to be written to the flash data
 398:.\Generated_Source\PSoC5/CySpc.c ****                 * section. In this case, ECC section data must be preserved.
 399:.\Generated_Source\PSoC5/CySpc.c ****                 * The ECC section data copied from ECC section to the SPC data
 400:.\Generated_Source\PSoC5/CySpc.c ****                 * register.
 401:.\Generated_Source\PSoC5/CySpc.c ****                 *******************************************************************/
 402:.\Generated_Source\PSoC5/CySpc.c ****                 if ((size == CYDEV_FLS_ROW_SIZE) && (array <= CY_SPC_LAST_FLASH_ARRAYID))
 418              		.loc 1 402 0
 419 0034 B3F5807F 		cmp	r3, #256
 420 0038 01D0     		beq	.L45
 421              	.LVL40:
 422              	.L46:
 329:.\Generated_Source\PSoC5/CySpc.c ****     cystatus status = CYRET_STARTED;
 423              		.loc 1 329 0
 424 003a 0720     		movs	r0, #7
 425 003c 70BD     		pop	{r4, r5, r6, pc}
 426              	.LVL41:
 427              	.L45:
 428              		.loc 1 402 0 discriminator 1
 429 003e 3F28     		cmp	r0, #63
 430 0040 FBD8     		bhi	.L46
 403:.\Generated_Source\PSoC5/CySpc.c ****                 {
 404:.\Generated_Source\PSoC5/CySpc.c ****                     offset = CYDEV_ECC_BASE +
 405:.\Generated_Source\PSoC5/CySpc.c ****                             ((uint32) array * CYDEV_ECC_SECTOR_SIZE) +
 431              		.loc 1 405 0
 432 0042 00F51030 		add	r0, r0, #147456
 433              	.LVL42:
 434 0046 01EB0021 		add	r1, r1, r0, lsl #8
 435              	.LVL43:
 404:.\Generated_Source\PSoC5/CySpc.c ****                     offset = CYDEV_ECC_BASE +
 436              		.loc 1 404 0
 437 004a 4901     		lsls	r1, r1, #5
 438              	.LVL44:
 439 004c 0023     		movs	r3, #0
ARM GAS  C:\Users\Yiquing\AppData\Local\Temp\ccFtScnd.s 			page 16


 440              	.LVL45:
 441              	.L47:
 406:.\Generated_Source\PSoC5/CySpc.c ****                             ((uint32) row   * CYDEV_ECC_ROW_SIZE   );
 407:.\Generated_Source\PSoC5/CySpc.c **** 
 408:.\Generated_Source\PSoC5/CySpc.c ****                     for (i = 0u; i < CYDEV_ECC_ROW_SIZE; i++)
 409:.\Generated_Source\PSoC5/CySpc.c ****                     {
 410:.\Generated_Source\PSoC5/CySpc.c ****                         CY_SPC_CPU_DATA_REG = CY_GET_XTND_REG8((void CYFAR *)(offset + i));
 442              		.loc 1 410 0 discriminator 2
 443 004e 5A5C     		ldrb	r2, [r3, r1]	@ zero_extendqisi2
 444 0050 0133     		adds	r3, r3, #1
 445              	.LVL46:
 446 0052 D2B2     		uxtb	r2, r2
 408:.\Generated_Source\PSoC5/CySpc.c ****                     for (i = 0u; i < CYDEV_ECC_ROW_SIZE; i++)
 447              		.loc 1 408 0 discriminator 2
 448 0054 202B     		cmp	r3, #32
 449              		.loc 1 410 0 discriminator 2
 450 0056 2A70     		strb	r2, [r5]
 451              	.LVL47:
 408:.\Generated_Source\PSoC5/CySpc.c ****                     for (i = 0u; i < CYDEV_ECC_ROW_SIZE; i++)
 452              		.loc 1 408 0 discriminator 2
 453 0058 F9D1     		bne	.L47
 454 005a EEE7     		b	.L46
 455              	.LVL48:
 456              	.L48:
 411:.\Generated_Source\PSoC5/CySpc.c ****                     }
 412:.\Generated_Source\PSoC5/CySpc.c ****                 }
 413:.\Generated_Source\PSoC5/CySpc.c **** 
 414:.\Generated_Source\PSoC5/CySpc.c ****             #else
 415:.\Generated_Source\PSoC5/CySpc.c **** 
 416:.\Generated_Source\PSoC5/CySpc.c ****                 if(0u != row)
 417:.\Generated_Source\PSoC5/CySpc.c ****                 {
 418:.\Generated_Source\PSoC5/CySpc.c ****                     /* To remove unreferenced local variable warning */
 419:.\Generated_Source\PSoC5/CySpc.c ****                 }
 420:.\Generated_Source\PSoC5/CySpc.c **** 
 421:.\Generated_Source\PSoC5/CySpc.c ****             #endif /* (CYDEV_ECC_ENABLE == 0) */
 422:.\Generated_Source\PSoC5/CySpc.c ****         }
 423:.\Generated_Source\PSoC5/CySpc.c ****         else
 424:.\Generated_Source\PSoC5/CySpc.c ****         {
 425:.\Generated_Source\PSoC5/CySpc.c ****             status = CYRET_CANCELED;
 426:.\Generated_Source\PSoC5/CySpc.c ****         }
 427:.\Generated_Source\PSoC5/CySpc.c ****     }
 428:.\Generated_Source\PSoC5/CySpc.c ****     else
 429:.\Generated_Source\PSoC5/CySpc.c ****     {
 430:.\Generated_Source\PSoC5/CySpc.c ****         status = CYRET_LOCKED;
 457              		.loc 1 430 0
 458 005c 0420     		movs	r0, #4
 459              	.LVL49:
 460 005e 70BD     		pop	{r4, r5, r6, pc}
 461              	.LVL50:
 462              	.L49:
 425:.\Generated_Source\PSoC5/CySpc.c ****             status = CYRET_CANCELED;
 463              		.loc 1 425 0
 464 0060 0920     		movs	r0, #9
 465              	.LVL51:
 431:.\Generated_Source\PSoC5/CySpc.c ****     }
 432:.\Generated_Source\PSoC5/CySpc.c **** 
 433:.\Generated_Source\PSoC5/CySpc.c ****     return(status);
ARM GAS  C:\Users\Yiquing\AppData\Local\Temp\ccFtScnd.s 			page 17


 434:.\Generated_Source\PSoC5/CySpc.c **** }
 466              		.loc 1 434 0
 467 0062 70BD     		pop	{r4, r5, r6, pc}
 468              	.L56:
 469              		.align	2
 470              	.L55:
 471 0064 22470040 		.word	1073760034
 472 0068 20470040 		.word	1073760032
 473              		.cfi_endproc
 474              	.LFE5:
 475              		.size	CySpcLoadRowFull, .-CySpcLoadRowFull
 476              		.section	.text.CySpcWriteRow,"ax",%progbits
 477              		.align	1
 478              		.global	CySpcWriteRow
 479              		.thumb
 480              		.thumb_func
 481              		.type	CySpcWriteRow, %function
 482              	CySpcWriteRow:
 483              	.LFB6:
 435:.\Generated_Source\PSoC5/CySpc.c **** 
 436:.\Generated_Source\PSoC5/CySpc.c **** 
 437:.\Generated_Source\PSoC5/CySpc.c **** /*******************************************************************************
 438:.\Generated_Source\PSoC5/CySpc.c **** * Function Name: CySpcWriteRow
 439:.\Generated_Source\PSoC5/CySpc.c **** ********************************************************************************
 440:.\Generated_Source\PSoC5/CySpc.c **** * Summary:
 441:.\Generated_Source\PSoC5/CySpc.c **** *  Erases then programs a row in Flash/EEPROM with data in row latch.
 442:.\Generated_Source\PSoC5/CySpc.c **** *
 443:.\Generated_Source\PSoC5/CySpc.c **** * Parameters:
 444:.\Generated_Source\PSoC5/CySpc.c **** *  uint8 array:
 445:.\Generated_Source\PSoC5/CySpc.c **** *   Id of the array.
 446:.\Generated_Source\PSoC5/CySpc.c **** *
 447:.\Generated_Source\PSoC5/CySpc.c **** *  uint16 address:
 448:.\Generated_Source\PSoC5/CySpc.c **** *   flash/eeprom addrress
 449:.\Generated_Source\PSoC5/CySpc.c **** *
 450:.\Generated_Source\PSoC5/CySpc.c **** *  uint8 tempPolarity:
 451:.\Generated_Source\PSoC5/CySpc.c **** *   temperature polarity.
 452:.\Generated_Source\PSoC5/CySpc.c **** *   1: the Temp Magnitude is interpreted as a positive value
 453:.\Generated_Source\PSoC5/CySpc.c **** *   0: the Temp Magnitude is interpreted as a negative value
 454:.\Generated_Source\PSoC5/CySpc.c **** *
 455:.\Generated_Source\PSoC5/CySpc.c **** *  uint8 tempMagnitude:
 456:.\Generated_Source\PSoC5/CySpc.c **** *   temperature magnitude.
 457:.\Generated_Source\PSoC5/CySpc.c **** *
 458:.\Generated_Source\PSoC5/CySpc.c **** * Return:
 459:.\Generated_Source\PSoC5/CySpc.c **** *  CYRET_STARTED
 460:.\Generated_Source\PSoC5/CySpc.c **** *  CYRET_CANCELED
 461:.\Generated_Source\PSoC5/CySpc.c **** *  CYRET_LOCKED
 462:.\Generated_Source\PSoC5/CySpc.c **** *
 463:.\Generated_Source\PSoC5/CySpc.c **** *******************************************************************************/
 464:.\Generated_Source\PSoC5/CySpc.c **** cystatus CySpcWriteRow(uint8 array, uint16 address, uint8 tempPolarity, uint8 tempMagnitude)\
 465:.\Generated_Source\PSoC5/CySpc.c **** 
 466:.\Generated_Source\PSoC5/CySpc.c **** {
 484              		.loc 1 466 0
 485              		.cfi_startproc
 486              		@ args = 0, pretend = 0, frame = 0
 487              		@ frame_needed = 0, uses_anonymous_args = 0
 488              	.LVL52:
 489 0000 70B5     		push	{r4, r5, r6, lr}
ARM GAS  C:\Users\Yiquing\AppData\Local\Temp\ccFtScnd.s 			page 18


 490              		.cfi_def_cfa_offset 16
 491              		.cfi_offset 4, -16
 492              		.cfi_offset 5, -12
 493              		.cfi_offset 6, -8
 494              		.cfi_offset 14, -4
 467:.\Generated_Source\PSoC5/CySpc.c ****     cystatus status = CYRET_STARTED;
 468:.\Generated_Source\PSoC5/CySpc.c **** 
 469:.\Generated_Source\PSoC5/CySpc.c ****     /* Make sure the SPC is ready to accept command */
 470:.\Generated_Source\PSoC5/CySpc.c ****     if(CY_SPC_IDLE)
 495              		.loc 1 470 0
 496 0002 0D4D     		ldr	r5, .L61
 497 0004 2C78     		ldrb	r4, [r5]	@ zero_extendqisi2
 498 0006 A607     		lsls	r6, r4, #30
 499 0008 12D5     		bpl	.L59
 471:.\Generated_Source\PSoC5/CySpc.c ****     {
 472:.\Generated_Source\PSoC5/CySpc.c ****         CY_SPC_CPU_DATA_REG = CY_SPC_KEY_ONE;
 500              		.loc 1 472 0
 501 000a 0C4C     		ldr	r4, .L61+4
 502 000c B626     		movs	r6, #182
 503 000e 2670     		strb	r6, [r4]
 473:.\Generated_Source\PSoC5/CySpc.c ****         CY_SPC_CPU_DATA_REG = CY_SPC_KEY_TWO(CY_SPC_CMD_WR_ROW);
 504              		.loc 1 473 0
 505 0010 D826     		movs	r6, #216
 506 0012 2670     		strb	r6, [r4]
 474:.\Generated_Source\PSoC5/CySpc.c ****         CY_SPC_CPU_DATA_REG = CY_SPC_CMD_WR_ROW;
 507              		.loc 1 474 0
 508 0014 0526     		movs	r6, #5
 509 0016 2670     		strb	r6, [r4]
 475:.\Generated_Source\PSoC5/CySpc.c **** 
 476:.\Generated_Source\PSoC5/CySpc.c ****         /* Make sure the command was accepted */
 477:.\Generated_Source\PSoC5/CySpc.c ****         if(CY_SPC_BUSY)
 510              		.loc 1 477 0
 511 0018 2D78     		ldrb	r5, [r5]	@ zero_extendqisi2
 512 001a AD07     		lsls	r5, r5, #30
 513 001c 0AD4     		bmi	.L60
 478:.\Generated_Source\PSoC5/CySpc.c ****         {
 479:.\Generated_Source\PSoC5/CySpc.c ****             CY_SPC_CPU_DATA_REG = array;
 514              		.loc 1 479 0
 515 001e 2070     		strb	r0, [r4]
 480:.\Generated_Source\PSoC5/CySpc.c ****             CY_SPC_CPU_DATA_REG = HI8(address);
 516              		.loc 1 480 0
 517 0020 080A     		lsrs	r0, r1, #8
 518              	.LVL53:
 481:.\Generated_Source\PSoC5/CySpc.c ****             CY_SPC_CPU_DATA_REG = LO8(address);
 519              		.loc 1 481 0
 520 0022 C9B2     		uxtb	r1, r1
 521              	.LVL54:
 480:.\Generated_Source\PSoC5/CySpc.c ****             CY_SPC_CPU_DATA_REG = HI8(address);
 522              		.loc 1 480 0
 523 0024 2070     		strb	r0, [r4]
 524              	.LVL55:
 525              		.loc 1 481 0
 526 0026 2170     		strb	r1, [r4]
 482:.\Generated_Source\PSoC5/CySpc.c ****             CY_SPC_CPU_DATA_REG = tempPolarity;
 527              		.loc 1 482 0
 528 0028 2270     		strb	r2, [r4]
 483:.\Generated_Source\PSoC5/CySpc.c ****             CY_SPC_CPU_DATA_REG = tempMagnitude;
ARM GAS  C:\Users\Yiquing\AppData\Local\Temp\ccFtScnd.s 			page 19


 529              		.loc 1 483 0
 530 002a 2370     		strb	r3, [r4]
 467:.\Generated_Source\PSoC5/CySpc.c ****     cystatus status = CYRET_STARTED;
 531              		.loc 1 467 0
 532 002c 0720     		movs	r0, #7
 533 002e 70BD     		pop	{r4, r5, r6, pc}
 534              	.LVL56:
 535              	.L59:
 484:.\Generated_Source\PSoC5/CySpc.c ****         }
 485:.\Generated_Source\PSoC5/CySpc.c ****         else
 486:.\Generated_Source\PSoC5/CySpc.c ****         {
 487:.\Generated_Source\PSoC5/CySpc.c ****             status = CYRET_CANCELED;
 488:.\Generated_Source\PSoC5/CySpc.c ****         }
 489:.\Generated_Source\PSoC5/CySpc.c ****     }
 490:.\Generated_Source\PSoC5/CySpc.c ****     else
 491:.\Generated_Source\PSoC5/CySpc.c ****     {
 492:.\Generated_Source\PSoC5/CySpc.c ****         status = CYRET_LOCKED;
 536              		.loc 1 492 0
 537 0030 0420     		movs	r0, #4
 538              	.LVL57:
 539 0032 70BD     		pop	{r4, r5, r6, pc}
 540              	.LVL58:
 541              	.L60:
 487:.\Generated_Source\PSoC5/CySpc.c ****             status = CYRET_CANCELED;
 542              		.loc 1 487 0
 543 0034 0920     		movs	r0, #9
 544              	.LVL59:
 493:.\Generated_Source\PSoC5/CySpc.c ****     }
 494:.\Generated_Source\PSoC5/CySpc.c **** 
 495:.\Generated_Source\PSoC5/CySpc.c ****     return(status);
 496:.\Generated_Source\PSoC5/CySpc.c **** }
 545              		.loc 1 496 0
 546 0036 70BD     		pop	{r4, r5, r6, pc}
 547              	.L62:
 548              		.align	2
 549              	.L61:
 550 0038 22470040 		.word	1073760034
 551 003c 20470040 		.word	1073760032
 552              		.cfi_endproc
 553              	.LFE6:
 554              		.size	CySpcWriteRow, .-CySpcWriteRow
 555              		.section	.text.CySpcEraseSector,"ax",%progbits
 556              		.align	1
 557              		.global	CySpcEraseSector
 558              		.thumb
 559              		.thumb_func
 560              		.type	CySpcEraseSector, %function
 561              	CySpcEraseSector:
 562              	.LFB7:
 497:.\Generated_Source\PSoC5/CySpc.c **** 
 498:.\Generated_Source\PSoC5/CySpc.c **** 
 499:.\Generated_Source\PSoC5/CySpc.c **** /*******************************************************************************
 500:.\Generated_Source\PSoC5/CySpc.c **** * Function Name: CySpcEraseSector
 501:.\Generated_Source\PSoC5/CySpc.c **** ********************************************************************************
 502:.\Generated_Source\PSoC5/CySpc.c **** * Summary:
 503:.\Generated_Source\PSoC5/CySpc.c **** *  Erases all data in the addressed sector (block of 64 rows).
 504:.\Generated_Source\PSoC5/CySpc.c **** *
ARM GAS  C:\Users\Yiquing\AppData\Local\Temp\ccFtScnd.s 			page 20


 505:.\Generated_Source\PSoC5/CySpc.c **** * Parameters:
 506:.\Generated_Source\PSoC5/CySpc.c **** *  uint8 array:
 507:.\Generated_Source\PSoC5/CySpc.c **** *   Id of the array.
 508:.\Generated_Source\PSoC5/CySpc.c **** *
 509:.\Generated_Source\PSoC5/CySpc.c **** *  uint8 sectorNumber:
 510:.\Generated_Source\PSoC5/CySpc.c **** *   Zero based sector number within Flash/EEPROM array
 511:.\Generated_Source\PSoC5/CySpc.c **** *
 512:.\Generated_Source\PSoC5/CySpc.c **** * Return:
 513:.\Generated_Source\PSoC5/CySpc.c **** *  CYRET_STARTED
 514:.\Generated_Source\PSoC5/CySpc.c **** *  CYRET_CANCELED
 515:.\Generated_Source\PSoC5/CySpc.c **** *  CYRET_LOCKED
 516:.\Generated_Source\PSoC5/CySpc.c **** *
 517:.\Generated_Source\PSoC5/CySpc.c **** *******************************************************************************/
 518:.\Generated_Source\PSoC5/CySpc.c **** cystatus CySpcEraseSector(uint8 array, uint8 sectorNumber)
 519:.\Generated_Source\PSoC5/CySpc.c **** {
 563              		.loc 1 519 0
 564              		.cfi_startproc
 565              		@ args = 0, pretend = 0, frame = 0
 566              		@ frame_needed = 0, uses_anonymous_args = 0
 567              	.LVL60:
 568 0000 10B5     		push	{r4, lr}
 569              		.cfi_def_cfa_offset 8
 570              		.cfi_offset 4, -8
 571              		.cfi_offset 14, -4
 520:.\Generated_Source\PSoC5/CySpc.c ****     cystatus status = CYRET_STARTED;
 521:.\Generated_Source\PSoC5/CySpc.c **** 
 522:.\Generated_Source\PSoC5/CySpc.c ****     /* Make sure the SPC is ready to accept command */
 523:.\Generated_Source\PSoC5/CySpc.c ****     if(CY_SPC_IDLE)
 572              		.loc 1 523 0
 573 0002 0B4A     		ldr	r2, .L67
 574 0004 1378     		ldrb	r3, [r2]	@ zero_extendqisi2
 575 0006 9C07     		lsls	r4, r3, #30
 576 0008 0DD5     		bpl	.L65
 524:.\Generated_Source\PSoC5/CySpc.c ****     {
 525:.\Generated_Source\PSoC5/CySpc.c ****         CY_SPC_CPU_DATA_REG = CY_SPC_KEY_ONE;
 577              		.loc 1 525 0
 578 000a 0A4B     		ldr	r3, .L67+4
 579 000c B624     		movs	r4, #182
 580 000e 1C70     		strb	r4, [r3]
 526:.\Generated_Source\PSoC5/CySpc.c ****         CY_SPC_CPU_DATA_REG = CY_SPC_KEY_TWO(CY_SPC_CMD_ER_SECTOR);
 581              		.loc 1 526 0
 582 0010 DB24     		movs	r4, #219
 583 0012 1C70     		strb	r4, [r3]
 527:.\Generated_Source\PSoC5/CySpc.c ****         CY_SPC_CPU_DATA_REG = CY_SPC_CMD_ER_SECTOR;
 584              		.loc 1 527 0
 585 0014 0824     		movs	r4, #8
 586 0016 1C70     		strb	r4, [r3]
 528:.\Generated_Source\PSoC5/CySpc.c **** 
 529:.\Generated_Source\PSoC5/CySpc.c ****         /* Make sure the command was accepted */
 530:.\Generated_Source\PSoC5/CySpc.c ****         if(CY_SPC_BUSY)
 587              		.loc 1 530 0
 588 0018 1278     		ldrb	r2, [r2]	@ zero_extendqisi2
 589 001a 9207     		lsls	r2, r2, #30
 590 001c 05D4     		bmi	.L66
 531:.\Generated_Source\PSoC5/CySpc.c ****         {
 532:.\Generated_Source\PSoC5/CySpc.c ****             CY_SPC_CPU_DATA_REG = array;
 591              		.loc 1 532 0
ARM GAS  C:\Users\Yiquing\AppData\Local\Temp\ccFtScnd.s 			page 21


 592 001e 1870     		strb	r0, [r3]
 533:.\Generated_Source\PSoC5/CySpc.c ****             CY_SPC_CPU_DATA_REG = sectorNumber;
 593              		.loc 1 533 0
 594 0020 1970     		strb	r1, [r3]
 520:.\Generated_Source\PSoC5/CySpc.c ****     cystatus status = CYRET_STARTED;
 595              		.loc 1 520 0
 596 0022 0720     		movs	r0, #7
 597              	.LVL61:
 598 0024 10BD     		pop	{r4, pc}
 599              	.LVL62:
 600              	.L65:
 534:.\Generated_Source\PSoC5/CySpc.c ****         }
 535:.\Generated_Source\PSoC5/CySpc.c ****         else
 536:.\Generated_Source\PSoC5/CySpc.c ****         {
 537:.\Generated_Source\PSoC5/CySpc.c ****             status = CYRET_CANCELED;
 538:.\Generated_Source\PSoC5/CySpc.c ****         }
 539:.\Generated_Source\PSoC5/CySpc.c ****     }
 540:.\Generated_Source\PSoC5/CySpc.c ****     else
 541:.\Generated_Source\PSoC5/CySpc.c ****     {
 542:.\Generated_Source\PSoC5/CySpc.c ****         status = CYRET_LOCKED;
 601              		.loc 1 542 0
 602 0026 0420     		movs	r0, #4
 603              	.LVL63:
 604 0028 10BD     		pop	{r4, pc}
 605              	.LVL64:
 606              	.L66:
 537:.\Generated_Source\PSoC5/CySpc.c ****             status = CYRET_CANCELED;
 607              		.loc 1 537 0
 608 002a 0920     		movs	r0, #9
 609              	.LVL65:
 543:.\Generated_Source\PSoC5/CySpc.c ****     }
 544:.\Generated_Source\PSoC5/CySpc.c **** 
 545:.\Generated_Source\PSoC5/CySpc.c ****     return(status);
 546:.\Generated_Source\PSoC5/CySpc.c **** }
 610              		.loc 1 546 0
 611 002c 10BD     		pop	{r4, pc}
 612              	.L68:
 613 002e 00BF     		.align	2
 614              	.L67:
 615 0030 22470040 		.word	1073760034
 616 0034 20470040 		.word	1073760032
 617              		.cfi_endproc
 618              	.LFE7:
 619              		.size	CySpcEraseSector, .-CySpcEraseSector
 620              		.section	.text.CySpcGetTemp,"ax",%progbits
 621              		.align	1
 622              		.global	CySpcGetTemp
 623              		.thumb
 624              		.thumb_func
 625              		.type	CySpcGetTemp, %function
 626              	CySpcGetTemp:
 627              	.LFB8:
 547:.\Generated_Source\PSoC5/CySpc.c **** 
 548:.\Generated_Source\PSoC5/CySpc.c **** 
 549:.\Generated_Source\PSoC5/CySpc.c **** /*******************************************************************************
 550:.\Generated_Source\PSoC5/CySpc.c **** * Function Name: CySpcGetTemp
 551:.\Generated_Source\PSoC5/CySpc.c **** ********************************************************************************
ARM GAS  C:\Users\Yiquing\AppData\Local\Temp\ccFtScnd.s 			page 22


 552:.\Generated_Source\PSoC5/CySpc.c **** * Summary:
 553:.\Generated_Source\PSoC5/CySpc.c **** *  Returns the internal die temperature
 554:.\Generated_Source\PSoC5/CySpc.c **** *
 555:.\Generated_Source\PSoC5/CySpc.c **** * Parameters:
 556:.\Generated_Source\PSoC5/CySpc.c **** *  uint8 numSamples:
 557:.\Generated_Source\PSoC5/CySpc.c **** *   Number of samples. Valid values are 1-5, resulting in 2 - 32 samples
 558:.\Generated_Source\PSoC5/CySpc.c **** *   respectively.
 559:.\Generated_Source\PSoC5/CySpc.c **** *
 560:.\Generated_Source\PSoC5/CySpc.c **** * uint16 timerPeriod:
 561:.\Generated_Source\PSoC5/CySpc.c **** *   Number of ADC ACLK cycles. A valid 14 bit value is accepted, higher 2 bits
 562:.\Generated_Source\PSoC5/CySpc.c **** *   of 16 bit values are ignored.
 563:.\Generated_Source\PSoC5/CySpc.c **** *
 564:.\Generated_Source\PSoC5/CySpc.c **** * uint8 clkDivSelect:
 565:.\Generated_Source\PSoC5/CySpc.c **** *   ADC ACLK clock divide value. Valid values are 2 - 225.
 566:.\Generated_Source\PSoC5/CySpc.c **** *
 567:.\Generated_Source\PSoC5/CySpc.c **** * Return:
 568:.\Generated_Source\PSoC5/CySpc.c **** *  CYRET_STARTED
 569:.\Generated_Source\PSoC5/CySpc.c **** *  CYRET_CANCELED
 570:.\Generated_Source\PSoC5/CySpc.c **** *  CYRET_LOCKED
 571:.\Generated_Source\PSoC5/CySpc.c **** *
 572:.\Generated_Source\PSoC5/CySpc.c **** *******************************************************************************/
 573:.\Generated_Source\PSoC5/CySpc.c **** cystatus CySpcGetTemp(uint8 numSamples)
 574:.\Generated_Source\PSoC5/CySpc.c **** {
 628              		.loc 1 574 0
 629              		.cfi_startproc
 630              		@ args = 0, pretend = 0, frame = 0
 631              		@ frame_needed = 0, uses_anonymous_args = 0
 632              		@ link register save eliminated.
 633              	.LVL66:
 575:.\Generated_Source\PSoC5/CySpc.c ****     cystatus status = CYRET_STARTED;
 576:.\Generated_Source\PSoC5/CySpc.c **** 
 577:.\Generated_Source\PSoC5/CySpc.c ****     /* Make sure the SPC is ready to accept command */
 578:.\Generated_Source\PSoC5/CySpc.c ****     if(CY_SPC_IDLE)
 634              		.loc 1 578 0
 635 0000 0A4A     		ldr	r2, .L73
 636 0002 1378     		ldrb	r3, [r2]	@ zero_extendqisi2
 637 0004 9907     		lsls	r1, r3, #30
 638 0006 0CD5     		bpl	.L71
 579:.\Generated_Source\PSoC5/CySpc.c ****     {
 580:.\Generated_Source\PSoC5/CySpc.c ****         CY_SPC_CPU_DATA_REG = CY_SPC_KEY_ONE;
 639              		.loc 1 580 0
 640 0008 094B     		ldr	r3, .L73+4
 641 000a B621     		movs	r1, #182
 642 000c 1970     		strb	r1, [r3]
 581:.\Generated_Source\PSoC5/CySpc.c ****         CY_SPC_CPU_DATA_REG = CY_SPC_KEY_TWO(CY_SPC_CMD_GET_TEMP);
 643              		.loc 1 581 0
 644 000e E121     		movs	r1, #225
 645 0010 1970     		strb	r1, [r3]
 582:.\Generated_Source\PSoC5/CySpc.c ****         CY_SPC_CPU_DATA_REG = CY_SPC_CMD_GET_TEMP;
 646              		.loc 1 582 0
 647 0012 0E21     		movs	r1, #14
 648 0014 1970     		strb	r1, [r3]
 583:.\Generated_Source\PSoC5/CySpc.c **** 
 584:.\Generated_Source\PSoC5/CySpc.c ****         /* Make sure the command was accepted */
 585:.\Generated_Source\PSoC5/CySpc.c ****         if(CY_SPC_BUSY)
 649              		.loc 1 585 0
 650 0016 1278     		ldrb	r2, [r2]	@ zero_extendqisi2
ARM GAS  C:\Users\Yiquing\AppData\Local\Temp\ccFtScnd.s 			page 23


 651 0018 9207     		lsls	r2, r2, #30
 652 001a 04D4     		bmi	.L72
 586:.\Generated_Source\PSoC5/CySpc.c ****         {
 587:.\Generated_Source\PSoC5/CySpc.c ****             CY_SPC_CPU_DATA_REG = numSamples;
 653              		.loc 1 587 0
 654 001c 1870     		strb	r0, [r3]
 575:.\Generated_Source\PSoC5/CySpc.c ****     cystatus status = CYRET_STARTED;
 655              		.loc 1 575 0
 656 001e 0720     		movs	r0, #7
 657              	.LVL67:
 658 0020 7047     		bx	lr
 659              	.LVL68:
 660              	.L71:
 588:.\Generated_Source\PSoC5/CySpc.c ****         }
 589:.\Generated_Source\PSoC5/CySpc.c ****         else
 590:.\Generated_Source\PSoC5/CySpc.c ****         {
 591:.\Generated_Source\PSoC5/CySpc.c ****             status = CYRET_CANCELED;
 592:.\Generated_Source\PSoC5/CySpc.c ****         }
 593:.\Generated_Source\PSoC5/CySpc.c ****     }
 594:.\Generated_Source\PSoC5/CySpc.c ****     else
 595:.\Generated_Source\PSoC5/CySpc.c ****     {
 596:.\Generated_Source\PSoC5/CySpc.c ****         status = CYRET_LOCKED;
 661              		.loc 1 596 0
 662 0022 0420     		movs	r0, #4
 663              	.LVL69:
 664 0024 7047     		bx	lr
 665              	.LVL70:
 666              	.L72:
 591:.\Generated_Source\PSoC5/CySpc.c ****             status = CYRET_CANCELED;
 667              		.loc 1 591 0
 668 0026 0920     		movs	r0, #9
 669              	.LVL71:
 597:.\Generated_Source\PSoC5/CySpc.c ****     }
 598:.\Generated_Source\PSoC5/CySpc.c **** 
 599:.\Generated_Source\PSoC5/CySpc.c ****     return(status);
 600:.\Generated_Source\PSoC5/CySpc.c **** }
 670              		.loc 1 600 0
 671 0028 7047     		bx	lr
 672              	.L74:
 673 002a 00BF     		.align	2
 674              	.L73:
 675 002c 22470040 		.word	1073760034
 676 0030 20470040 		.word	1073760032
 677              		.cfi_endproc
 678              	.LFE8:
 679              		.size	CySpcGetTemp, .-CySpcGetTemp
 680              		.section	.text.CySpcLock,"ax",%progbits
 681              		.align	1
 682              		.global	CySpcLock
 683              		.thumb
 684              		.thumb_func
 685              		.type	CySpcLock, %function
 686              	CySpcLock:
 687              	.LFB9:
 601:.\Generated_Source\PSoC5/CySpc.c **** 
 602:.\Generated_Source\PSoC5/CySpc.c **** 
 603:.\Generated_Source\PSoC5/CySpc.c **** /*******************************************************************************
ARM GAS  C:\Users\Yiquing\AppData\Local\Temp\ccFtScnd.s 			page 24


 604:.\Generated_Source\PSoC5/CySpc.c **** * Function Name: CySpcLock
 605:.\Generated_Source\PSoC5/CySpc.c **** ********************************************************************************
 606:.\Generated_Source\PSoC5/CySpc.c **** * Summary:
 607:.\Generated_Source\PSoC5/CySpc.c **** *  Locks the SPC so it can not be used by someone else:
 608:.\Generated_Source\PSoC5/CySpc.c **** *   - Saves wait-pipeline enable state and enable pipeline (PSoC5)
 609:.\Generated_Source\PSoC5/CySpc.c **** *
 610:.\Generated_Source\PSoC5/CySpc.c **** * Parameters:
 611:.\Generated_Source\PSoC5/CySpc.c **** *  Note
 612:.\Generated_Source\PSoC5/CySpc.c **** *
 613:.\Generated_Source\PSoC5/CySpc.c **** * Return:
 614:.\Generated_Source\PSoC5/CySpc.c **** *  CYRET_SUCCESS - if the resource was free.
 615:.\Generated_Source\PSoC5/CySpc.c **** *  CYRET_LOCKED  - if the SPC is in use.
 616:.\Generated_Source\PSoC5/CySpc.c **** *
 617:.\Generated_Source\PSoC5/CySpc.c **** *******************************************************************************/
 618:.\Generated_Source\PSoC5/CySpc.c **** cystatus CySpcLock(void)
 619:.\Generated_Source\PSoC5/CySpc.c **** {
 688              		.loc 1 619 0
 689              		.cfi_startproc
 690              		@ args = 0, pretend = 0, frame = 0
 691              		@ frame_needed = 0, uses_anonymous_args = 0
 692              	.LVL72:
 693 0000 38B5     		push	{r3, r4, r5, lr}
 694              		.cfi_def_cfa_offset 16
 695              		.cfi_offset 3, -16
 696              		.cfi_offset 4, -12
 697              		.cfi_offset 5, -8
 698              		.cfi_offset 14, -4
 620:.\Generated_Source\PSoC5/CySpc.c ****     cystatus status = CYRET_LOCKED;
 621:.\Generated_Source\PSoC5/CySpc.c ****     uint8 interruptState;
 622:.\Generated_Source\PSoC5/CySpc.c **** 
 623:.\Generated_Source\PSoC5/CySpc.c ****     /* Enter critical section */
 624:.\Generated_Source\PSoC5/CySpc.c ****     interruptState = CyEnterCriticalSection();
 699              		.loc 1 624 0
 700 0002 FFF7FEFF 		bl	CyEnterCriticalSection
 701              	.LVL73:
 625:.\Generated_Source\PSoC5/CySpc.c **** 
 626:.\Generated_Source\PSoC5/CySpc.c ****     if(CY_SPC_UNLOCKED == SpcLockState)
 702              		.loc 1 626 0
 703 0006 0C4B     		ldr	r3, .L79
 704 0008 1978     		ldrb	r1, [r3]	@ zero_extendqisi2
 705 000a 79B9     		cbnz	r1, .L77
 627:.\Generated_Source\PSoC5/CySpc.c ****     {
 628:.\Generated_Source\PSoC5/CySpc.c ****         SpcLockState = CY_SPC_LOCKED;
 706              		.loc 1 628 0
 707 000c 0125     		movs	r5, #1
 629:.\Generated_Source\PSoC5/CySpc.c ****         status = CYRET_SUCCESS;
 630:.\Generated_Source\PSoC5/CySpc.c **** 
 631:.\Generated_Source\PSoC5/CySpc.c ****         #if(CY_PSOC5)
 632:.\Generated_Source\PSoC5/CySpc.c **** 
 633:.\Generated_Source\PSoC5/CySpc.c ****             if(0u != (CY_SPC_CPU_WAITPIPE_REG & CY_SPC_CPU_WAITPIPE_BYPASS))
 708              		.loc 1 633 0
 709 000e 0B4A     		ldr	r2, .L79+4
 628:.\Generated_Source\PSoC5/CySpc.c ****         SpcLockState = CY_SPC_LOCKED;
 710              		.loc 1 628 0
 711 0010 1D70     		strb	r5, [r3]
 712              	.LVL74:
 713              		.loc 1 633 0
ARM GAS  C:\Users\Yiquing\AppData\Local\Temp\ccFtScnd.s 			page 25


 714 0012 1468     		ldr	r4, [r2]
 715 0014 2C40     		ands	r4, r4, r5
 716 0016 0AD0     		beq	.L76
 634:.\Generated_Source\PSoC5/CySpc.c ****             {
 635:.\Generated_Source\PSoC5/CySpc.c ****                 /* Enable pipeline registers */
 636:.\Generated_Source\PSoC5/CySpc.c ****                 CY_SPC_CPU_WAITPIPE_REG &= ((uint32)(~CY_SPC_CPU_WAITPIPE_BYPASS));
 717              		.loc 1 636 0
 718 0018 1468     		ldr	r4, [r2]
 719 001a 24F00104 		bic	r4, r4, #1
 720 001e 1460     		str	r4, [r2]
 637:.\Generated_Source\PSoC5/CySpc.c **** 
 638:.\Generated_Source\PSoC5/CySpc.c ****                 /* At least 2 NOP instructions are recommended */
 639:.\Generated_Source\PSoC5/CySpc.c ****                 CY_NOP;
 721              		.loc 1 639 0
 722              	@ 639 ".\Generated_Source\PSoC5\CySpc.c" 1
 723 0020 00BF     		NOP
 724              	
 725              	@ 0 "" 2
 640:.\Generated_Source\PSoC5/CySpc.c ****                 CY_NOP;
 726              		.loc 1 640 0
 727              	@ 640 ".\Generated_Source\PSoC5\CySpc.c" 1
 728 0022 00BF     		NOP
 729              	
 730              	@ 0 "" 2
 641:.\Generated_Source\PSoC5/CySpc.c ****                 CY_NOP;
 731              		.loc 1 641 0
 732              	@ 641 ".\Generated_Source\PSoC5\CySpc.c" 1
 733 0024 00BF     		NOP
 734              	
 735              	@ 0 "" 2
 642:.\Generated_Source\PSoC5/CySpc.c **** 
 643:.\Generated_Source\PSoC5/CySpc.c ****                 spcWaitPipeBypass = CY_SPC_CPU_WAITPIPE_BYPASS;
 736              		.loc 1 643 0
 737              		.thumb
 738 0026 5D60     		str	r5, [r3, #4]
 629:.\Generated_Source\PSoC5/CySpc.c ****         status = CYRET_SUCCESS;
 739              		.loc 1 629 0
 740 0028 0C46     		mov	r4, r1
 741 002a 00E0     		b	.L76
 742              	.LVL75:
 743              	.L77:
 620:.\Generated_Source\PSoC5/CySpc.c ****     cystatus status = CYRET_LOCKED;
 744              		.loc 1 620 0
 745 002c 0424     		movs	r4, #4
 746              	.LVL76:
 747              	.L76:
 644:.\Generated_Source\PSoC5/CySpc.c ****             }
 645:.\Generated_Source\PSoC5/CySpc.c **** 
 646:.\Generated_Source\PSoC5/CySpc.c ****         #endif  /* (CY_PSOC5) */
 647:.\Generated_Source\PSoC5/CySpc.c ****     }
 648:.\Generated_Source\PSoC5/CySpc.c **** 
 649:.\Generated_Source\PSoC5/CySpc.c ****     /* Exit critical section */
 650:.\Generated_Source\PSoC5/CySpc.c ****     CyExitCriticalSection(interruptState);
 748              		.loc 1 650 0
 749 002e FFF7FEFF 		bl	CyExitCriticalSection
 750              	.LVL77:
 651:.\Generated_Source\PSoC5/CySpc.c **** 
ARM GAS  C:\Users\Yiquing\AppData\Local\Temp\ccFtScnd.s 			page 26


 652:.\Generated_Source\PSoC5/CySpc.c ****     return(status);
 653:.\Generated_Source\PSoC5/CySpc.c **** }
 751              		.loc 1 653 0
 752 0032 2046     		mov	r0, r4
 753 0034 38BD     		pop	{r3, r4, r5, pc}
 754              	.LVL78:
 755              	.L80:
 756 0036 00BF     		.align	2
 757              	.L79:
 758 0038 00000000 		.word	.LANCHOR0
 759 003c 04000840 		.word	1074266116
 760              		.cfi_endproc
 761              	.LFE9:
 762              		.size	CySpcLock, .-CySpcLock
 763              		.section	.text.CySpcUnlock,"ax",%progbits
 764              		.align	1
 765              		.global	CySpcUnlock
 766              		.thumb
 767              		.thumb_func
 768              		.type	CySpcUnlock, %function
 769              	CySpcUnlock:
 770              	.LFB10:
 654:.\Generated_Source\PSoC5/CySpc.c **** 
 655:.\Generated_Source\PSoC5/CySpc.c **** 
 656:.\Generated_Source\PSoC5/CySpc.c **** /*******************************************************************************
 657:.\Generated_Source\PSoC5/CySpc.c **** * Function Name: CySpcUnlock
 658:.\Generated_Source\PSoC5/CySpc.c **** ********************************************************************************
 659:.\Generated_Source\PSoC5/CySpc.c **** * Summary:
 660:.\Generated_Source\PSoC5/CySpc.c **** *  Unlocks the SPC so it can be used by someone else:
 661:.\Generated_Source\PSoC5/CySpc.c **** *   - Restores wait-pipeline enable state (PSoC5)
 662:.\Generated_Source\PSoC5/CySpc.c **** *
 663:.\Generated_Source\PSoC5/CySpc.c **** * Parameters:
 664:.\Generated_Source\PSoC5/CySpc.c **** *  None
 665:.\Generated_Source\PSoC5/CySpc.c **** *
 666:.\Generated_Source\PSoC5/CySpc.c **** * Return:
 667:.\Generated_Source\PSoC5/CySpc.c **** *  None
 668:.\Generated_Source\PSoC5/CySpc.c **** *
 669:.\Generated_Source\PSoC5/CySpc.c **** *******************************************************************************/
 670:.\Generated_Source\PSoC5/CySpc.c **** void CySpcUnlock(void)
 671:.\Generated_Source\PSoC5/CySpc.c **** {
 771              		.loc 1 671 0
 772              		.cfi_startproc
 773              		@ args = 0, pretend = 0, frame = 0
 774              		@ frame_needed = 0, uses_anonymous_args = 0
 775 0000 10B5     		push	{r4, lr}
 776              		.cfi_def_cfa_offset 8
 777              		.cfi_offset 4, -8
 778              		.cfi_offset 14, -4
 672:.\Generated_Source\PSoC5/CySpc.c ****     uint8 interruptState;
 673:.\Generated_Source\PSoC5/CySpc.c **** 
 674:.\Generated_Source\PSoC5/CySpc.c ****     /* Enter critical section */
 675:.\Generated_Source\PSoC5/CySpc.c ****     interruptState = CyEnterCriticalSection();
 779              		.loc 1 675 0
 780 0002 FFF7FEFF 		bl	CyEnterCriticalSection
 781              	.LVL79:
 676:.\Generated_Source\PSoC5/CySpc.c **** 
 677:.\Generated_Source\PSoC5/CySpc.c ****     /* Release the SPC object */
ARM GAS  C:\Users\Yiquing\AppData\Local\Temp\ccFtScnd.s 			page 27


 678:.\Generated_Source\PSoC5/CySpc.c ****     SpcLockState = CY_SPC_UNLOCKED;
 782              		.loc 1 678 0
 783 0006 094B     		ldr	r3, .L83
 784 0008 0022     		movs	r2, #0
 679:.\Generated_Source\PSoC5/CySpc.c **** 
 680:.\Generated_Source\PSoC5/CySpc.c ****     #if(CY_PSOC5)
 681:.\Generated_Source\PSoC5/CySpc.c **** 
 682:.\Generated_Source\PSoC5/CySpc.c ****         if(CY_SPC_CPU_WAITPIPE_BYPASS == spcWaitPipeBypass)
 785              		.loc 1 682 0
 786 000a 5968     		ldr	r1, [r3, #4]
 678:.\Generated_Source\PSoC5/CySpc.c ****     SpcLockState = CY_SPC_UNLOCKED;
 787              		.loc 1 678 0
 788 000c 1A70     		strb	r2, [r3]
 789              		.loc 1 682 0
 790 000e 0129     		cmp	r1, #1
 791 0010 08D1     		bne	.L82
 683:.\Generated_Source\PSoC5/CySpc.c ****         {
 684:.\Generated_Source\PSoC5/CySpc.c ****             /* Force to bypass pipeline registers */
 685:.\Generated_Source\PSoC5/CySpc.c ****             CY_SPC_CPU_WAITPIPE_REG |= CY_SPC_CPU_WAITPIPE_BYPASS;
 792              		.loc 1 685 0
 793 0012 0749     		ldr	r1, .L83+4
 794 0014 0C68     		ldr	r4, [r1]
 795 0016 44F00104 		orr	r4, r4, #1
 796 001a 0C60     		str	r4, [r1]
 686:.\Generated_Source\PSoC5/CySpc.c **** 
 687:.\Generated_Source\PSoC5/CySpc.c ****             /* At least 2 NOP instructions are recommended */
 688:.\Generated_Source\PSoC5/CySpc.c ****             CY_NOP;
 797              		.loc 1 688 0
 798              	@ 688 ".\Generated_Source\PSoC5\CySpc.c" 1
 799 001c 00BF     		NOP
 800              	
 801              	@ 0 "" 2
 689:.\Generated_Source\PSoC5/CySpc.c ****             CY_NOP;
 802              		.loc 1 689 0
 803              	@ 689 ".\Generated_Source\PSoC5\CySpc.c" 1
 804 001e 00BF     		NOP
 805              	
 806              	@ 0 "" 2
 690:.\Generated_Source\PSoC5/CySpc.c ****             CY_NOP;
 807              		.loc 1 690 0
 808              	@ 690 ".\Generated_Source\PSoC5\CySpc.c" 1
 809 0020 00BF     		NOP
 810              	
 811              	@ 0 "" 2
 691:.\Generated_Source\PSoC5/CySpc.c **** 
 692:.\Generated_Source\PSoC5/CySpc.c ****             spcWaitPipeBypass = 0u;
 812              		.loc 1 692 0
 813              		.thumb
 814 0022 5A60     		str	r2, [r3, #4]
 815              	.L82:
 693:.\Generated_Source\PSoC5/CySpc.c ****         }
 694:.\Generated_Source\PSoC5/CySpc.c **** 
 695:.\Generated_Source\PSoC5/CySpc.c ****     #endif  /* (CY_PSOC5) */
 696:.\Generated_Source\PSoC5/CySpc.c **** 
 697:.\Generated_Source\PSoC5/CySpc.c ****     /* Exit critical section */
 698:.\Generated_Source\PSoC5/CySpc.c ****     CyExitCriticalSection(interruptState);
 699:.\Generated_Source\PSoC5/CySpc.c **** }
ARM GAS  C:\Users\Yiquing\AppData\Local\Temp\ccFtScnd.s 			page 28


 816              		.loc 1 699 0
 817 0024 BDE81040 		pop	{r4, lr}
 698:.\Generated_Source\PSoC5/CySpc.c ****     CyExitCriticalSection(interruptState);
 818              		.loc 1 698 0
 819 0028 FFF7FEBF 		b	CyExitCriticalSection
 820              	.LVL80:
 821              	.L84:
 822              		.align	2
 823              	.L83:
 824 002c 00000000 		.word	.LANCHOR0
 825 0030 04000840 		.word	1074266116
 826              		.cfi_endproc
 827              	.LFE10:
 828              		.size	CySpcUnlock, .-CySpcUnlock
 829              		.section	.text.CySpcGetAlgorithm,"ax",%progbits
 830              		.align	1
 831              		.global	CySpcGetAlgorithm
 832              		.thumb
 833              		.thumb_func
 834              		.type	CySpcGetAlgorithm, %function
 835              	CySpcGetAlgorithm:
 836              	.LFB11:
 700:.\Generated_Source\PSoC5/CySpc.c **** 
 701:.\Generated_Source\PSoC5/CySpc.c **** 
 702:.\Generated_Source\PSoC5/CySpc.c **** /*******************************************************************************
 703:.\Generated_Source\PSoC5/CySpc.c **** * Function Name: CySpcGetAlgorithm
 704:.\Generated_Source\PSoC5/CySpc.c **** ********************************************************************************
 705:.\Generated_Source\PSoC5/CySpc.c **** * Summary:
 706:.\Generated_Source\PSoC5/CySpc.c **** *  Downloads SPC algorithm from SPC SROM into SRAM.
 707:.\Generated_Source\PSoC5/CySpc.c **** *
 708:.\Generated_Source\PSoC5/CySpc.c **** * Parameters:
 709:.\Generated_Source\PSoC5/CySpc.c **** *  None
 710:.\Generated_Source\PSoC5/CySpc.c **** *
 711:.\Generated_Source\PSoC5/CySpc.c **** * Return:
 712:.\Generated_Source\PSoC5/CySpc.c **** *  CYRET_STARTED
 713:.\Generated_Source\PSoC5/CySpc.c **** *  CYRET_LOCKED
 714:.\Generated_Source\PSoC5/CySpc.c **** *
 715:.\Generated_Source\PSoC5/CySpc.c **** *******************************************************************************/
 716:.\Generated_Source\PSoC5/CySpc.c **** cystatus CySpcGetAlgorithm(void)
 717:.\Generated_Source\PSoC5/CySpc.c **** {
 837              		.loc 1 717 0
 838              		.cfi_startproc
 839              		@ args = 0, pretend = 0, frame = 0
 840              		@ frame_needed = 0, uses_anonymous_args = 0
 841              		@ link register save eliminated.
 842              	.LVL81:
 718:.\Generated_Source\PSoC5/CySpc.c ****     cystatus status = CYRET_STARTED;
 719:.\Generated_Source\PSoC5/CySpc.c **** 
 720:.\Generated_Source\PSoC5/CySpc.c ****     /* Make sure the SPC is ready to accept command */
 721:.\Generated_Source\PSoC5/CySpc.c ****     if(CY_SPC_IDLE)
 843              		.loc 1 721 0
 844 0000 074B     		ldr	r3, .L88
 845 0002 1B78     		ldrb	r3, [r3]	@ zero_extendqisi2
 846 0004 9B07     		lsls	r3, r3, #30
 847 0006 08D5     		bpl	.L87
 722:.\Generated_Source\PSoC5/CySpc.c ****     {
 723:.\Generated_Source\PSoC5/CySpc.c ****         CY_SPC_CPU_DATA_REG = CY_SPC_KEY_ONE;
ARM GAS  C:\Users\Yiquing\AppData\Local\Temp\ccFtScnd.s 			page 29


 848              		.loc 1 723 0
 849 0008 064B     		ldr	r3, .L88+4
 850 000a B622     		movs	r2, #182
 851 000c 1A70     		strb	r2, [r3]
 724:.\Generated_Source\PSoC5/CySpc.c ****         CY_SPC_CPU_DATA_REG = CY_SPC_KEY_TWO(CY_SPC_CMD_DWNLD_ALGORITHM);
 852              		.loc 1 724 0
 853 000e E022     		movs	r2, #224
 854 0010 1A70     		strb	r2, [r3]
 725:.\Generated_Source\PSoC5/CySpc.c ****         CY_SPC_CPU_DATA_REG = CY_SPC_CMD_DWNLD_ALGORITHM;
 855              		.loc 1 725 0
 856 0012 0D22     		movs	r2, #13
 857 0014 1A70     		strb	r2, [r3]
 718:.\Generated_Source\PSoC5/CySpc.c ****     cystatus status = CYRET_STARTED;
 858              		.loc 1 718 0
 859 0016 0720     		movs	r0, #7
 860 0018 7047     		bx	lr
 861              	.L87:
 726:.\Generated_Source\PSoC5/CySpc.c ****     }
 727:.\Generated_Source\PSoC5/CySpc.c ****     else
 728:.\Generated_Source\PSoC5/CySpc.c ****     {
 729:.\Generated_Source\PSoC5/CySpc.c ****         status = CYRET_LOCKED;
 862              		.loc 1 729 0
 863 001a 0420     		movs	r0, #4
 864              	.LVL82:
 730:.\Generated_Source\PSoC5/CySpc.c ****     }
 731:.\Generated_Source\PSoC5/CySpc.c **** 
 732:.\Generated_Source\PSoC5/CySpc.c ****     return(status);
 733:.\Generated_Source\PSoC5/CySpc.c **** }
 865              		.loc 1 733 0
 866 001c 7047     		bx	lr
 867              	.L89:
 868 001e 00BF     		.align	2
 869              	.L88:
 870 0020 22470040 		.word	1073760034
 871 0024 20470040 		.word	1073760032
 872              		.cfi_endproc
 873              	.LFE11:
 874              		.size	CySpcGetAlgorithm, .-CySpcGetAlgorithm
 875              		.global	SpcLockState
 876              		.bss
 877              		.align	2
 878              		.set	.LANCHOR0,. + 0
 879              		.type	SpcLockState, %object
 880              		.size	SpcLockState, 1
 881              	SpcLockState:
 882 0000 00       		.space	1
 883 0001 000000   		.space	3
 884              		.type	spcWaitPipeBypass, %object
 885              		.size	spcWaitPipeBypass, 4
 886              	spcWaitPipeBypass:
 887 0004 00000000 		.space	4
 888              		.text
 889              	.Letext0:
 890              		.file 2 ".\\Generated_Source\\PSoC5\\cytypes.h"
 891              		.file 3 ".\\Generated_Source\\PSoC5\\CyLib.h"