ARM GAS  C:\Users\Yiquing\AppData\Local\Temp\ccHC4jaK.s 			page 1


   1              		.syntax unified
   2              		.cpu cortex-m3
   3              		.fpu softvfp
   4              		.eabi_attribute 20, 1
   5              		.eabi_attribute 21, 1
   6              		.eabi_attribute 23, 3
   7              		.eabi_attribute 24, 1
   8              		.eabi_attribute 25, 1
   9              		.eabi_attribute 26, 1
  10              		.eabi_attribute 30, 4
  11              		.eabi_attribute 34, 1
  12              		.eabi_attribute 18, 4
  13              		.thumb
  14              		.file	"isr_F2F_edge.c"
  15              		.text
  16              	.Ltext0:
  17              		.cfi_sections	.debug_frame
  18              		.section	.text.isr_F2F_edge_Interrupt,"ax",%progbits
  19              		.align	1
  20              		.global	isr_F2F_edge_Interrupt
  21              		.thumb
  22              		.thumb_func
  23              		.type	isr_F2F_edge_Interrupt, %function
  24              	isr_F2F_edge_Interrupt:
  25              	.LFB3:
  26              		.file 1 ".\\Generated_Source\\PSoC5\\isr_F2F_edge.c"
   1:.\Generated_Source\PSoC5/isr_F2F_edge.c **** /*******************************************************************************
   2:.\Generated_Source\PSoC5/isr_F2F_edge.c **** * File Name: isr_F2F_edge.c  
   3:.\Generated_Source\PSoC5/isr_F2F_edge.c **** * Version 1.70
   4:.\Generated_Source\PSoC5/isr_F2F_edge.c **** *
   5:.\Generated_Source\PSoC5/isr_F2F_edge.c **** *  Description:
   6:.\Generated_Source\PSoC5/isr_F2F_edge.c **** *   API for controlling the state of an interrupt.
   7:.\Generated_Source\PSoC5/isr_F2F_edge.c **** *
   8:.\Generated_Source\PSoC5/isr_F2F_edge.c **** *
   9:.\Generated_Source\PSoC5/isr_F2F_edge.c **** *  Note:
  10:.\Generated_Source\PSoC5/isr_F2F_edge.c **** *
  11:.\Generated_Source\PSoC5/isr_F2F_edge.c **** ********************************************************************************
  12:.\Generated_Source\PSoC5/isr_F2F_edge.c **** * Copyright 2008-2015, Cypress Semiconductor Corporation.  All rights reserved.
  13:.\Generated_Source\PSoC5/isr_F2F_edge.c **** * You may use this file only in accordance with the license, terms, conditions, 
  14:.\Generated_Source\PSoC5/isr_F2F_edge.c **** * disclaimers, and limitations in the end user license agreement accompanying 
  15:.\Generated_Source\PSoC5/isr_F2F_edge.c **** * the software package with which this file was provided.
  16:.\Generated_Source\PSoC5/isr_F2F_edge.c **** *******************************************************************************/
  17:.\Generated_Source\PSoC5/isr_F2F_edge.c **** 
  18:.\Generated_Source\PSoC5/isr_F2F_edge.c **** 
  19:.\Generated_Source\PSoC5/isr_F2F_edge.c **** #include <cydevice_trm.h>
  20:.\Generated_Source\PSoC5/isr_F2F_edge.c **** #include <CyLib.h>
  21:.\Generated_Source\PSoC5/isr_F2F_edge.c **** #include <isr_F2F_edge.h>
  22:.\Generated_Source\PSoC5/isr_F2F_edge.c **** 
  23:.\Generated_Source\PSoC5/isr_F2F_edge.c **** #if !defined(isr_F2F_edge__REMOVED) /* Check for removal by optimization */
  24:.\Generated_Source\PSoC5/isr_F2F_edge.c **** 
  25:.\Generated_Source\PSoC5/isr_F2F_edge.c **** /*******************************************************************************
  26:.\Generated_Source\PSoC5/isr_F2F_edge.c **** *  Place your includes, defines and code here 
  27:.\Generated_Source\PSoC5/isr_F2F_edge.c **** ********************************************************************************/
  28:.\Generated_Source\PSoC5/isr_F2F_edge.c **** /* `#START isr_F2F_edge_intc` */
  29:.\Generated_Source\PSoC5/isr_F2F_edge.c **** #include "FilterReg.h"
  30:.\Generated_Source\PSoC5/isr_F2F_edge.c **** #include "Timeout_Timer.h"
  31:.\Generated_Source\PSoC5/isr_F2F_edge.c **** #include "system.h"
ARM GAS  C:\Users\Yiquing\AppData\Local\Temp\ccHC4jaK.s 			page 2


  32:.\Generated_Source\PSoC5/isr_F2F_edge.c **** #include "LED_GRN.h"
  33:.\Generated_Source\PSoC5/isr_F2F_edge.c ****     
  34:.\Generated_Source\PSoC5/isr_F2F_edge.c **** int f2f_pulsewidth;
  35:.\Generated_Source\PSoC5/isr_F2F_edge.c **** int timeout_cnt;
  36:.\Generated_Source\PSoC5/isr_F2F_edge.c **** char activate_f2ftimer;
  37:.\Generated_Source\PSoC5/isr_F2F_edge.c ****     
  38:.\Generated_Source\PSoC5/isr_F2F_edge.c **** /* `#END` */
  39:.\Generated_Source\PSoC5/isr_F2F_edge.c **** 
  40:.\Generated_Source\PSoC5/isr_F2F_edge.c **** #ifndef CYINT_IRQ_BASE
  41:.\Generated_Source\PSoC5/isr_F2F_edge.c **** #define CYINT_IRQ_BASE      16
  42:.\Generated_Source\PSoC5/isr_F2F_edge.c **** #endif /* CYINT_IRQ_BASE */
  43:.\Generated_Source\PSoC5/isr_F2F_edge.c **** #ifndef CYINT_VECT_TABLE
  44:.\Generated_Source\PSoC5/isr_F2F_edge.c **** #define CYINT_VECT_TABLE    ((cyisraddress **) CYREG_NVIC_VECT_OFFSET)
  45:.\Generated_Source\PSoC5/isr_F2F_edge.c **** #endif /* CYINT_VECT_TABLE */
  46:.\Generated_Source\PSoC5/isr_F2F_edge.c **** 
  47:.\Generated_Source\PSoC5/isr_F2F_edge.c **** /* Declared in startup, used to set unused interrupts to. */
  48:.\Generated_Source\PSoC5/isr_F2F_edge.c **** CY_ISR_PROTO(IntDefaultHandler);
  49:.\Generated_Source\PSoC5/isr_F2F_edge.c **** 
  50:.\Generated_Source\PSoC5/isr_F2F_edge.c **** 
  51:.\Generated_Source\PSoC5/isr_F2F_edge.c **** /*******************************************************************************
  52:.\Generated_Source\PSoC5/isr_F2F_edge.c **** * Function Name: isr_F2F_edge_Start
  53:.\Generated_Source\PSoC5/isr_F2F_edge.c **** ********************************************************************************
  54:.\Generated_Source\PSoC5/isr_F2F_edge.c **** *
  55:.\Generated_Source\PSoC5/isr_F2F_edge.c **** * Summary:
  56:.\Generated_Source\PSoC5/isr_F2F_edge.c **** *  Set up the interrupt and enable it. This function disables the interrupt, 
  57:.\Generated_Source\PSoC5/isr_F2F_edge.c **** *  sets the default interrupt vector, sets the priority from the value in the
  58:.\Generated_Source\PSoC5/isr_F2F_edge.c **** *  Design Wide Resources Interrupt Editor, then enables the interrupt to the 
  59:.\Generated_Source\PSoC5/isr_F2F_edge.c **** *  interrupt controller.
  60:.\Generated_Source\PSoC5/isr_F2F_edge.c **** *
  61:.\Generated_Source\PSoC5/isr_F2F_edge.c **** * Parameters:  
  62:.\Generated_Source\PSoC5/isr_F2F_edge.c **** *   None
  63:.\Generated_Source\PSoC5/isr_F2F_edge.c **** *
  64:.\Generated_Source\PSoC5/isr_F2F_edge.c **** * Return:
  65:.\Generated_Source\PSoC5/isr_F2F_edge.c **** *   None
  66:.\Generated_Source\PSoC5/isr_F2F_edge.c **** *
  67:.\Generated_Source\PSoC5/isr_F2F_edge.c **** *******************************************************************************/
  68:.\Generated_Source\PSoC5/isr_F2F_edge.c **** void isr_F2F_edge_Start(void)
  69:.\Generated_Source\PSoC5/isr_F2F_edge.c **** {
  70:.\Generated_Source\PSoC5/isr_F2F_edge.c ****     /* For all we know the interrupt is active. */
  71:.\Generated_Source\PSoC5/isr_F2F_edge.c ****     isr_F2F_edge_Disable();
  72:.\Generated_Source\PSoC5/isr_F2F_edge.c **** 
  73:.\Generated_Source\PSoC5/isr_F2F_edge.c ****     /* Set the ISR to point to the isr_F2F_edge Interrupt. */
  74:.\Generated_Source\PSoC5/isr_F2F_edge.c ****     isr_F2F_edge_SetVector(&isr_F2F_edge_Interrupt);
  75:.\Generated_Source\PSoC5/isr_F2F_edge.c **** 
  76:.\Generated_Source\PSoC5/isr_F2F_edge.c ****     /* Set the priority. */
  77:.\Generated_Source\PSoC5/isr_F2F_edge.c ****     isr_F2F_edge_SetPriority((uint8)isr_F2F_edge_INTC_PRIOR_NUMBER);
  78:.\Generated_Source\PSoC5/isr_F2F_edge.c **** 
  79:.\Generated_Source\PSoC5/isr_F2F_edge.c ****     /* Enable it. */
  80:.\Generated_Source\PSoC5/isr_F2F_edge.c ****     isr_F2F_edge_Enable();
  81:.\Generated_Source\PSoC5/isr_F2F_edge.c **** }
  82:.\Generated_Source\PSoC5/isr_F2F_edge.c **** 
  83:.\Generated_Source\PSoC5/isr_F2F_edge.c **** 
  84:.\Generated_Source\PSoC5/isr_F2F_edge.c **** /*******************************************************************************
  85:.\Generated_Source\PSoC5/isr_F2F_edge.c **** * Function Name: isr_F2F_edge_StartEx
  86:.\Generated_Source\PSoC5/isr_F2F_edge.c **** ********************************************************************************
  87:.\Generated_Source\PSoC5/isr_F2F_edge.c **** *
  88:.\Generated_Source\PSoC5/isr_F2F_edge.c **** * Summary:
ARM GAS  C:\Users\Yiquing\AppData\Local\Temp\ccHC4jaK.s 			page 3


  89:.\Generated_Source\PSoC5/isr_F2F_edge.c **** *  Sets up the interrupt and enables it. This function disables the interrupt,
  90:.\Generated_Source\PSoC5/isr_F2F_edge.c **** *  sets the interrupt vector based on the address passed in, sets the priority 
  91:.\Generated_Source\PSoC5/isr_F2F_edge.c **** *  from the value in the Design Wide Resources Interrupt Editor, then enables 
  92:.\Generated_Source\PSoC5/isr_F2F_edge.c **** *  the interrupt to the interrupt controller.
  93:.\Generated_Source\PSoC5/isr_F2F_edge.c **** *  
  94:.\Generated_Source\PSoC5/isr_F2F_edge.c **** *  When defining ISR functions, the CY_ISR and CY_ISR_PROTO macros should be 
  95:.\Generated_Source\PSoC5/isr_F2F_edge.c **** *  used to provide consistent definition across compilers:
  96:.\Generated_Source\PSoC5/isr_F2F_edge.c **** *  
  97:.\Generated_Source\PSoC5/isr_F2F_edge.c **** *  Function definition example:
  98:.\Generated_Source\PSoC5/isr_F2F_edge.c **** *   CY_ISR(MyISR)
  99:.\Generated_Source\PSoC5/isr_F2F_edge.c **** *   {
 100:.\Generated_Source\PSoC5/isr_F2F_edge.c **** *   }
 101:.\Generated_Source\PSoC5/isr_F2F_edge.c **** *   Function prototype example:
 102:.\Generated_Source\PSoC5/isr_F2F_edge.c **** *   CY_ISR_PROTO(MyISR);
 103:.\Generated_Source\PSoC5/isr_F2F_edge.c **** *
 104:.\Generated_Source\PSoC5/isr_F2F_edge.c **** * Parameters:  
 105:.\Generated_Source\PSoC5/isr_F2F_edge.c **** *   address: Address of the ISR to set in the interrupt vector table.
 106:.\Generated_Source\PSoC5/isr_F2F_edge.c **** *
 107:.\Generated_Source\PSoC5/isr_F2F_edge.c **** * Return:
 108:.\Generated_Source\PSoC5/isr_F2F_edge.c **** *   None
 109:.\Generated_Source\PSoC5/isr_F2F_edge.c **** *
 110:.\Generated_Source\PSoC5/isr_F2F_edge.c **** *******************************************************************************/
 111:.\Generated_Source\PSoC5/isr_F2F_edge.c **** void isr_F2F_edge_StartEx(cyisraddress address)
 112:.\Generated_Source\PSoC5/isr_F2F_edge.c **** {
 113:.\Generated_Source\PSoC5/isr_F2F_edge.c ****     /* For all we know the interrupt is active. */
 114:.\Generated_Source\PSoC5/isr_F2F_edge.c ****     isr_F2F_edge_Disable();
 115:.\Generated_Source\PSoC5/isr_F2F_edge.c **** 
 116:.\Generated_Source\PSoC5/isr_F2F_edge.c ****     /* Set the ISR to point to the isr_F2F_edge Interrupt. */
 117:.\Generated_Source\PSoC5/isr_F2F_edge.c ****     isr_F2F_edge_SetVector(address);
 118:.\Generated_Source\PSoC5/isr_F2F_edge.c **** 
 119:.\Generated_Source\PSoC5/isr_F2F_edge.c ****     /* Set the priority. */
 120:.\Generated_Source\PSoC5/isr_F2F_edge.c ****     isr_F2F_edge_SetPriority((uint8)isr_F2F_edge_INTC_PRIOR_NUMBER);
 121:.\Generated_Source\PSoC5/isr_F2F_edge.c **** 
 122:.\Generated_Source\PSoC5/isr_F2F_edge.c ****     /* Enable it. */
 123:.\Generated_Source\PSoC5/isr_F2F_edge.c ****     isr_F2F_edge_Enable();
 124:.\Generated_Source\PSoC5/isr_F2F_edge.c **** }
 125:.\Generated_Source\PSoC5/isr_F2F_edge.c **** 
 126:.\Generated_Source\PSoC5/isr_F2F_edge.c **** 
 127:.\Generated_Source\PSoC5/isr_F2F_edge.c **** /*******************************************************************************
 128:.\Generated_Source\PSoC5/isr_F2F_edge.c **** * Function Name: isr_F2F_edge_Stop
 129:.\Generated_Source\PSoC5/isr_F2F_edge.c **** ********************************************************************************
 130:.\Generated_Source\PSoC5/isr_F2F_edge.c **** *
 131:.\Generated_Source\PSoC5/isr_F2F_edge.c **** * Summary:
 132:.\Generated_Source\PSoC5/isr_F2F_edge.c **** *   Disables and removes the interrupt.
 133:.\Generated_Source\PSoC5/isr_F2F_edge.c **** *
 134:.\Generated_Source\PSoC5/isr_F2F_edge.c **** * Parameters:  
 135:.\Generated_Source\PSoC5/isr_F2F_edge.c **** *   None
 136:.\Generated_Source\PSoC5/isr_F2F_edge.c **** *
 137:.\Generated_Source\PSoC5/isr_F2F_edge.c **** * Return:
 138:.\Generated_Source\PSoC5/isr_F2F_edge.c **** *   None
 139:.\Generated_Source\PSoC5/isr_F2F_edge.c **** *
 140:.\Generated_Source\PSoC5/isr_F2F_edge.c **** *******************************************************************************/
 141:.\Generated_Source\PSoC5/isr_F2F_edge.c **** void isr_F2F_edge_Stop(void)
 142:.\Generated_Source\PSoC5/isr_F2F_edge.c **** {
 143:.\Generated_Source\PSoC5/isr_F2F_edge.c ****     /* Disable this interrupt. */
 144:.\Generated_Source\PSoC5/isr_F2F_edge.c ****     isr_F2F_edge_Disable();
 145:.\Generated_Source\PSoC5/isr_F2F_edge.c **** 
ARM GAS  C:\Users\Yiquing\AppData\Local\Temp\ccHC4jaK.s 			page 4


 146:.\Generated_Source\PSoC5/isr_F2F_edge.c ****     /* Set the ISR to point to the passive one. */
 147:.\Generated_Source\PSoC5/isr_F2F_edge.c ****     isr_F2F_edge_SetVector(&IntDefaultHandler);
 148:.\Generated_Source\PSoC5/isr_F2F_edge.c **** }
 149:.\Generated_Source\PSoC5/isr_F2F_edge.c **** 
 150:.\Generated_Source\PSoC5/isr_F2F_edge.c **** 
 151:.\Generated_Source\PSoC5/isr_F2F_edge.c **** /*******************************************************************************
 152:.\Generated_Source\PSoC5/isr_F2F_edge.c **** * Function Name: isr_F2F_edge_Interrupt
 153:.\Generated_Source\PSoC5/isr_F2F_edge.c **** ********************************************************************************
 154:.\Generated_Source\PSoC5/isr_F2F_edge.c **** *
 155:.\Generated_Source\PSoC5/isr_F2F_edge.c **** * Summary:
 156:.\Generated_Source\PSoC5/isr_F2F_edge.c **** *   The default Interrupt Service Routine for isr_F2F_edge.
 157:.\Generated_Source\PSoC5/isr_F2F_edge.c **** *
 158:.\Generated_Source\PSoC5/isr_F2F_edge.c **** *   Add custom code between the coments to keep the next version of this file
 159:.\Generated_Source\PSoC5/isr_F2F_edge.c **** *   from over writting your code.
 160:.\Generated_Source\PSoC5/isr_F2F_edge.c **** *
 161:.\Generated_Source\PSoC5/isr_F2F_edge.c **** * Parameters:  
 162:.\Generated_Source\PSoC5/isr_F2F_edge.c **** *
 163:.\Generated_Source\PSoC5/isr_F2F_edge.c **** * Return:
 164:.\Generated_Source\PSoC5/isr_F2F_edge.c **** *   None
 165:.\Generated_Source\PSoC5/isr_F2F_edge.c **** *
 166:.\Generated_Source\PSoC5/isr_F2F_edge.c **** *******************************************************************************/
 167:.\Generated_Source\PSoC5/isr_F2F_edge.c **** CY_ISR(isr_F2F_edge_Interrupt)
 168:.\Generated_Source\PSoC5/isr_F2F_edge.c **** {
  27              		.loc 1 168 0
  28              		.cfi_startproc
  29              		@ args = 0, pretend = 0, frame = 0
  30              		@ frame_needed = 0, uses_anonymous_args = 0
  31 0000 10B5     		push	{r4, lr}
  32              		.cfi_def_cfa_offset 8
  33              		.cfi_offset 4, -8
  34              		.cfi_offset 14, -4
 169:.\Generated_Source\PSoC5/isr_F2F_edge.c ****     /*  Place your Interrupt code here. */
 170:.\Generated_Source\PSoC5/isr_F2F_edge.c ****     /* `#START isr_F2F_edge_Interrupt` */
 171:.\Generated_Source\PSoC5/isr_F2F_edge.c **** 
 172:.\Generated_Source\PSoC5/isr_F2F_edge.c ****     FilterReg_Read();  //reset debouncer
  35              		.loc 1 172 0
  36 0002 FFF7FEFF 		bl	FilterReg_Read
  37              	.LVL0:
 173:.\Generated_Source\PSoC5/isr_F2F_edge.c **** //    activate_f2ftimer = 1;  //debug
 174:.\Generated_Source\PSoC5/isr_F2F_edge.c ****     if(activate_f2ftimer == 1)
  38              		.loc 1 174 0
  39 0006 0C4B     		ldr	r3, .L5
  40 0008 1B78     		ldrb	r3, [r3]	@ zero_extendqisi2
  41 000a 012B     		cmp	r3, #1
  42 000c 13D1     		bne	.L1
  43              	.LBB24:
  44              	.LBB25:
 175:.\Generated_Source\PSoC5/isr_F2F_edge.c ****     {
 176:.\Generated_Source\PSoC5/isr_F2F_edge.c ****         //Store the pulse width
 177:.\Generated_Source\PSoC5/isr_F2F_edge.c ****         f2f_pulsewidth = timeout_cnt;
  45              		.loc 1 177 0
  46 000e 0B4A     		ldr	r2, .L5+4
  47 0010 0B48     		ldr	r0, .L5+8
  48 0012 1168     		ldr	r1, [r2]
  49 0014 1446     		mov	r4, r2
 178:.\Generated_Source\PSoC5/isr_F2F_edge.c ****         if (timeout_cnt == 0){
 179:.\Generated_Source\PSoC5/isr_F2F_edge.c **** //            LED_GRN_Write(0);
ARM GAS  C:\Users\Yiquing\AppData\Local\Temp\ccHC4jaK.s 			page 5


 180:.\Generated_Source\PSoC5/isr_F2F_edge.c ****         }
 181:.\Generated_Source\PSoC5/isr_F2F_edge.c ****         
 182:.\Generated_Source\PSoC5/isr_F2F_edge.c ****         if (timeout_cnt < 0x40){
  50              		.loc 1 182 0
  51 0016 3F29     		cmp	r1, #63
 177:.\Generated_Source\PSoC5/isr_F2F_edge.c ****         f2f_pulsewidth = timeout_cnt;
  52              		.loc 1 177 0
  53 0018 0160     		str	r1, [r0]
  54              		.loc 1 182 0
  55 001a 04DC     		bgt	.L3
 183:.\Generated_Source\PSoC5/isr_F2F_edge.c ****             //start an acknowledgement to the F2F reader for the Supervision mode
 184:.\Generated_Source\PSoC5/isr_F2F_edge.c ****             f2f_ack_delay_cnt = 0;
  56              		.loc 1 184 0
  57 001c 094A     		ldr	r2, .L5+12
  58 001e 0021     		movs	r1, #0
  59 0020 1170     		strb	r1, [r2]
 185:.\Generated_Source\PSoC5/isr_F2F_edge.c ****             f2f_acknowledge_active = 1;
  60              		.loc 1 185 0
  61 0022 094A     		ldr	r2, .L5+16
  62 0024 1370     		strb	r3, [r2]
  63              	.L3:
 186:.\Generated_Source\PSoC5/isr_F2F_edge.c ****         }
 187:.\Generated_Source\PSoC5/isr_F2F_edge.c ****         
 188:.\Generated_Source\PSoC5/isr_F2F_edge.c ****         Timeout_Timer_Stop();
  64              		.loc 1 188 0
  65 0026 FFF7FEFF 		bl	Timeout_Timer_Stop
  66              	.LVL1:
 189:.\Generated_Source\PSoC5/isr_F2F_edge.c ****         timeout_cnt = 0;
  67              		.loc 1 189 0
  68 002a 0023     		movs	r3, #0
  69 002c 2360     		str	r3, [r4]
  70              	.LBE25:
  71              	.LBE24:
 190:.\Generated_Source\PSoC5/isr_F2F_edge.c ****         Timeout_Timer_Start();
 191:.\Generated_Source\PSoC5/isr_F2F_edge.c ****     }
 192:.\Generated_Source\PSoC5/isr_F2F_edge.c **** 
 193:.\Generated_Source\PSoC5/isr_F2F_edge.c ****     /* `#END` */
 194:.\Generated_Source\PSoC5/isr_F2F_edge.c **** }
  72              		.loc 1 194 0
  73 002e BDE81040 		pop	{r4, lr}
  74              	.LBB27:
  75              	.LBB26:
 190:.\Generated_Source\PSoC5/isr_F2F_edge.c ****         Timeout_Timer_Start();
  76              		.loc 1 190 0
  77 0032 FFF7FEBF 		b	Timeout_Timer_Start
  78              	.LVL2:
  79              	.L1:
  80 0036 10BD     		pop	{r4, pc}
  81              	.L6:
  82              		.align	2
  83              	.L5:
  84 0038 00000000 		.word	activate_f2ftimer
  85 003c 00000000 		.word	timeout_cnt
  86 0040 00000000 		.word	f2f_pulsewidth
  87 0044 00000000 		.word	f2f_ack_delay_cnt
  88 0048 00000000 		.word	f2f_acknowledge_active
  89              	.LBE26:
ARM GAS  C:\Users\Yiquing\AppData\Local\Temp\ccHC4jaK.s 			page 6


  90              	.LBE27:
  91              		.cfi_endproc
  92              	.LFE3:
  93              		.size	isr_F2F_edge_Interrupt, .-isr_F2F_edge_Interrupt
  94              		.section	.text.isr_F2F_edge_Start,"ax",%progbits
  95              		.align	1
  96              		.global	isr_F2F_edge_Start
  97              		.thumb
  98              		.thumb_func
  99              		.type	isr_F2F_edge_Start, %function
 100              	isr_F2F_edge_Start:
 101              	.LFB0:
  69:.\Generated_Source\PSoC5/isr_F2F_edge.c **** {
 102              		.loc 1 69 0
 103              		.cfi_startproc
 104              		@ args = 0, pretend = 0, frame = 0
 105              		@ frame_needed = 0, uses_anonymous_args = 0
 106              		@ link register save eliminated.
 107              	.LBB28:
 108              	.LBB29:
 195:.\Generated_Source\PSoC5/isr_F2F_edge.c **** 
 196:.\Generated_Source\PSoC5/isr_F2F_edge.c **** 
 197:.\Generated_Source\PSoC5/isr_F2F_edge.c **** /*******************************************************************************
 198:.\Generated_Source\PSoC5/isr_F2F_edge.c **** * Function Name: isr_F2F_edge_SetVector
 199:.\Generated_Source\PSoC5/isr_F2F_edge.c **** ********************************************************************************
 200:.\Generated_Source\PSoC5/isr_F2F_edge.c **** *
 201:.\Generated_Source\PSoC5/isr_F2F_edge.c **** * Summary:
 202:.\Generated_Source\PSoC5/isr_F2F_edge.c **** *   Change the ISR vector for the Interrupt. Note calling isr_F2F_edge_Start
 203:.\Generated_Source\PSoC5/isr_F2F_edge.c **** *   will override any effect this method would have had. To set the vector 
 204:.\Generated_Source\PSoC5/isr_F2F_edge.c **** *   before the component has been started use isr_F2F_edge_StartEx instead.
 205:.\Generated_Source\PSoC5/isr_F2F_edge.c **** * 
 206:.\Generated_Source\PSoC5/isr_F2F_edge.c **** *   When defining ISR functions, the CY_ISR and CY_ISR_PROTO macros should be 
 207:.\Generated_Source\PSoC5/isr_F2F_edge.c **** *   used to provide consistent definition across compilers:
 208:.\Generated_Source\PSoC5/isr_F2F_edge.c **** *
 209:.\Generated_Source\PSoC5/isr_F2F_edge.c **** *   Function definition example:
 210:.\Generated_Source\PSoC5/isr_F2F_edge.c **** *   CY_ISR(MyISR)
 211:.\Generated_Source\PSoC5/isr_F2F_edge.c **** *   {
 212:.\Generated_Source\PSoC5/isr_F2F_edge.c **** *   }
 213:.\Generated_Source\PSoC5/isr_F2F_edge.c **** *
 214:.\Generated_Source\PSoC5/isr_F2F_edge.c **** *   Function prototype example:
 215:.\Generated_Source\PSoC5/isr_F2F_edge.c **** *     CY_ISR_PROTO(MyISR);
 216:.\Generated_Source\PSoC5/isr_F2F_edge.c **** *
 217:.\Generated_Source\PSoC5/isr_F2F_edge.c **** * Parameters:
 218:.\Generated_Source\PSoC5/isr_F2F_edge.c **** *   address: Address of the ISR to set in the interrupt vector table.
 219:.\Generated_Source\PSoC5/isr_F2F_edge.c **** *
 220:.\Generated_Source\PSoC5/isr_F2F_edge.c **** * Return:
 221:.\Generated_Source\PSoC5/isr_F2F_edge.c **** *   None
 222:.\Generated_Source\PSoC5/isr_F2F_edge.c **** *
 223:.\Generated_Source\PSoC5/isr_F2F_edge.c **** *******************************************************************************/
 224:.\Generated_Source\PSoC5/isr_F2F_edge.c **** void isr_F2F_edge_SetVector(cyisraddress address)
 225:.\Generated_Source\PSoC5/isr_F2F_edge.c **** {
 226:.\Generated_Source\PSoC5/isr_F2F_edge.c ****     cyisraddress * ramVectorTable;
 227:.\Generated_Source\PSoC5/isr_F2F_edge.c **** 
 228:.\Generated_Source\PSoC5/isr_F2F_edge.c ****     ramVectorTable = (cyisraddress *) *CYINT_VECT_TABLE;
 229:.\Generated_Source\PSoC5/isr_F2F_edge.c **** 
 230:.\Generated_Source\PSoC5/isr_F2F_edge.c ****     ramVectorTable[CYINT_IRQ_BASE + (uint32)isr_F2F_edge__INTC_NUMBER] = address;
 231:.\Generated_Source\PSoC5/isr_F2F_edge.c **** }
ARM GAS  C:\Users\Yiquing\AppData\Local\Temp\ccHC4jaK.s 			page 7


 232:.\Generated_Source\PSoC5/isr_F2F_edge.c **** 
 233:.\Generated_Source\PSoC5/isr_F2F_edge.c **** 
 234:.\Generated_Source\PSoC5/isr_F2F_edge.c **** /*******************************************************************************
 235:.\Generated_Source\PSoC5/isr_F2F_edge.c **** * Function Name: isr_F2F_edge_GetVector
 236:.\Generated_Source\PSoC5/isr_F2F_edge.c **** ********************************************************************************
 237:.\Generated_Source\PSoC5/isr_F2F_edge.c **** *
 238:.\Generated_Source\PSoC5/isr_F2F_edge.c **** * Summary:
 239:.\Generated_Source\PSoC5/isr_F2F_edge.c **** *   Gets the "address" of the current ISR vector for the Interrupt.
 240:.\Generated_Source\PSoC5/isr_F2F_edge.c **** *
 241:.\Generated_Source\PSoC5/isr_F2F_edge.c **** * Parameters:
 242:.\Generated_Source\PSoC5/isr_F2F_edge.c **** *   None
 243:.\Generated_Source\PSoC5/isr_F2F_edge.c **** *
 244:.\Generated_Source\PSoC5/isr_F2F_edge.c **** * Return:
 245:.\Generated_Source\PSoC5/isr_F2F_edge.c **** *   Address of the ISR in the interrupt vector table.
 246:.\Generated_Source\PSoC5/isr_F2F_edge.c **** *
 247:.\Generated_Source\PSoC5/isr_F2F_edge.c **** *******************************************************************************/
 248:.\Generated_Source\PSoC5/isr_F2F_edge.c **** cyisraddress isr_F2F_edge_GetVector(void)
 249:.\Generated_Source\PSoC5/isr_F2F_edge.c **** {
 250:.\Generated_Source\PSoC5/isr_F2F_edge.c ****     cyisraddress * ramVectorTable;
 251:.\Generated_Source\PSoC5/isr_F2F_edge.c **** 
 252:.\Generated_Source\PSoC5/isr_F2F_edge.c ****     ramVectorTable = (cyisraddress *) *CYINT_VECT_TABLE;
 253:.\Generated_Source\PSoC5/isr_F2F_edge.c **** 
 254:.\Generated_Source\PSoC5/isr_F2F_edge.c ****     return ramVectorTable[CYINT_IRQ_BASE + (uint32)isr_F2F_edge__INTC_NUMBER];
 255:.\Generated_Source\PSoC5/isr_F2F_edge.c **** }
 256:.\Generated_Source\PSoC5/isr_F2F_edge.c **** 
 257:.\Generated_Source\PSoC5/isr_F2F_edge.c **** 
 258:.\Generated_Source\PSoC5/isr_F2F_edge.c **** /*******************************************************************************
 259:.\Generated_Source\PSoC5/isr_F2F_edge.c **** * Function Name: isr_F2F_edge_SetPriority
 260:.\Generated_Source\PSoC5/isr_F2F_edge.c **** ********************************************************************************
 261:.\Generated_Source\PSoC5/isr_F2F_edge.c **** *
 262:.\Generated_Source\PSoC5/isr_F2F_edge.c **** * Summary:
 263:.\Generated_Source\PSoC5/isr_F2F_edge.c **** *   Sets the Priority of the Interrupt. 
 264:.\Generated_Source\PSoC5/isr_F2F_edge.c **** *
 265:.\Generated_Source\PSoC5/isr_F2F_edge.c **** *   Note calling isr_F2F_edge_Start or isr_F2F_edge_StartEx will 
 266:.\Generated_Source\PSoC5/isr_F2F_edge.c **** *   override any effect this API would have had. This API should only be called
 267:.\Generated_Source\PSoC5/isr_F2F_edge.c **** *   after isr_F2F_edge_Start or isr_F2F_edge_StartEx has been called. 
 268:.\Generated_Source\PSoC5/isr_F2F_edge.c **** *   To set the initial priority for the component, use the Design-Wide Resources
 269:.\Generated_Source\PSoC5/isr_F2F_edge.c **** *   Interrupt Editor.
 270:.\Generated_Source\PSoC5/isr_F2F_edge.c **** *
 271:.\Generated_Source\PSoC5/isr_F2F_edge.c **** *   Note This API has no effect on Non-maskable interrupt NMI).
 272:.\Generated_Source\PSoC5/isr_F2F_edge.c **** *
 273:.\Generated_Source\PSoC5/isr_F2F_edge.c **** * Parameters:
 274:.\Generated_Source\PSoC5/isr_F2F_edge.c **** *   priority: Priority of the interrupt, 0 being the highest priority
 275:.\Generated_Source\PSoC5/isr_F2F_edge.c **** *             PSoC 3 and PSoC 5LP: Priority is from 0 to 7.
 276:.\Generated_Source\PSoC5/isr_F2F_edge.c **** *             PSoC 4: Priority is from 0 to 3.
 277:.\Generated_Source\PSoC5/isr_F2F_edge.c **** *
 278:.\Generated_Source\PSoC5/isr_F2F_edge.c **** * Return:
 279:.\Generated_Source\PSoC5/isr_F2F_edge.c **** *   None
 280:.\Generated_Source\PSoC5/isr_F2F_edge.c **** *
 281:.\Generated_Source\PSoC5/isr_F2F_edge.c **** *******************************************************************************/
 282:.\Generated_Source\PSoC5/isr_F2F_edge.c **** void isr_F2F_edge_SetPriority(uint8 priority)
 283:.\Generated_Source\PSoC5/isr_F2F_edge.c **** {
 284:.\Generated_Source\PSoC5/isr_F2F_edge.c ****     *isr_F2F_edge_INTC_PRIOR = priority << 5;
 285:.\Generated_Source\PSoC5/isr_F2F_edge.c **** }
 286:.\Generated_Source\PSoC5/isr_F2F_edge.c **** 
 287:.\Generated_Source\PSoC5/isr_F2F_edge.c **** 
 288:.\Generated_Source\PSoC5/isr_F2F_edge.c **** /*******************************************************************************
ARM GAS  C:\Users\Yiquing\AppData\Local\Temp\ccHC4jaK.s 			page 8


 289:.\Generated_Source\PSoC5/isr_F2F_edge.c **** * Function Name: isr_F2F_edge_GetPriority
 290:.\Generated_Source\PSoC5/isr_F2F_edge.c **** ********************************************************************************
 291:.\Generated_Source\PSoC5/isr_F2F_edge.c **** *
 292:.\Generated_Source\PSoC5/isr_F2F_edge.c **** * Summary:
 293:.\Generated_Source\PSoC5/isr_F2F_edge.c **** *   Gets the Priority of the Interrupt.
 294:.\Generated_Source\PSoC5/isr_F2F_edge.c **** *
 295:.\Generated_Source\PSoC5/isr_F2F_edge.c **** * Parameters:
 296:.\Generated_Source\PSoC5/isr_F2F_edge.c **** *   None
 297:.\Generated_Source\PSoC5/isr_F2F_edge.c **** *
 298:.\Generated_Source\PSoC5/isr_F2F_edge.c **** * Return:
 299:.\Generated_Source\PSoC5/isr_F2F_edge.c **** *   Priority of the interrupt, 0 being the highest priority
 300:.\Generated_Source\PSoC5/isr_F2F_edge.c **** *    PSoC 3 and PSoC 5LP: Priority is from 0 to 7.
 301:.\Generated_Source\PSoC5/isr_F2F_edge.c **** *    PSoC 4: Priority is from 0 to 3.
 302:.\Generated_Source\PSoC5/isr_F2F_edge.c **** *
 303:.\Generated_Source\PSoC5/isr_F2F_edge.c **** *******************************************************************************/
 304:.\Generated_Source\PSoC5/isr_F2F_edge.c **** uint8 isr_F2F_edge_GetPriority(void)
 305:.\Generated_Source\PSoC5/isr_F2F_edge.c **** {
 306:.\Generated_Source\PSoC5/isr_F2F_edge.c ****     uint8 priority;
 307:.\Generated_Source\PSoC5/isr_F2F_edge.c **** 
 308:.\Generated_Source\PSoC5/isr_F2F_edge.c **** 
 309:.\Generated_Source\PSoC5/isr_F2F_edge.c ****     priority = *isr_F2F_edge_INTC_PRIOR >> 5;
 310:.\Generated_Source\PSoC5/isr_F2F_edge.c **** 
 311:.\Generated_Source\PSoC5/isr_F2F_edge.c ****     return priority;
 312:.\Generated_Source\PSoC5/isr_F2F_edge.c **** }
 313:.\Generated_Source\PSoC5/isr_F2F_edge.c **** 
 314:.\Generated_Source\PSoC5/isr_F2F_edge.c **** 
 315:.\Generated_Source\PSoC5/isr_F2F_edge.c **** /*******************************************************************************
 316:.\Generated_Source\PSoC5/isr_F2F_edge.c **** * Function Name: isr_F2F_edge_Enable
 317:.\Generated_Source\PSoC5/isr_F2F_edge.c **** ********************************************************************************
 318:.\Generated_Source\PSoC5/isr_F2F_edge.c **** *
 319:.\Generated_Source\PSoC5/isr_F2F_edge.c **** * Summary:
 320:.\Generated_Source\PSoC5/isr_F2F_edge.c **** *   Enables the interrupt to the interrupt controller. Do not call this function
 321:.\Generated_Source\PSoC5/isr_F2F_edge.c **** *   unless ISR_Start() has been called or the functionality of the ISR_Start() 
 322:.\Generated_Source\PSoC5/isr_F2F_edge.c **** *   function, which sets the vector and the priority, has been called.
 323:.\Generated_Source\PSoC5/isr_F2F_edge.c **** *
 324:.\Generated_Source\PSoC5/isr_F2F_edge.c **** * Parameters:
 325:.\Generated_Source\PSoC5/isr_F2F_edge.c **** *   None
 326:.\Generated_Source\PSoC5/isr_F2F_edge.c **** *
 327:.\Generated_Source\PSoC5/isr_F2F_edge.c **** * Return:
 328:.\Generated_Source\PSoC5/isr_F2F_edge.c **** *   None
 329:.\Generated_Source\PSoC5/isr_F2F_edge.c **** *
 330:.\Generated_Source\PSoC5/isr_F2F_edge.c **** *******************************************************************************/
 331:.\Generated_Source\PSoC5/isr_F2F_edge.c **** void isr_F2F_edge_Enable(void)
 332:.\Generated_Source\PSoC5/isr_F2F_edge.c **** {
 333:.\Generated_Source\PSoC5/isr_F2F_edge.c ****     /* Enable the general interrupt. */
 334:.\Generated_Source\PSoC5/isr_F2F_edge.c ****     *isr_F2F_edge_INTC_SET_EN = isr_F2F_edge__INTC_MASK;
 335:.\Generated_Source\PSoC5/isr_F2F_edge.c **** }
 336:.\Generated_Source\PSoC5/isr_F2F_edge.c **** 
 337:.\Generated_Source\PSoC5/isr_F2F_edge.c **** 
 338:.\Generated_Source\PSoC5/isr_F2F_edge.c **** /*******************************************************************************
 339:.\Generated_Source\PSoC5/isr_F2F_edge.c **** * Function Name: isr_F2F_edge_GetState
 340:.\Generated_Source\PSoC5/isr_F2F_edge.c **** ********************************************************************************
 341:.\Generated_Source\PSoC5/isr_F2F_edge.c **** *
 342:.\Generated_Source\PSoC5/isr_F2F_edge.c **** * Summary:
 343:.\Generated_Source\PSoC5/isr_F2F_edge.c **** *   Gets the state (enabled, disabled) of the Interrupt.
 344:.\Generated_Source\PSoC5/isr_F2F_edge.c **** *
 345:.\Generated_Source\PSoC5/isr_F2F_edge.c **** * Parameters:
ARM GAS  C:\Users\Yiquing\AppData\Local\Temp\ccHC4jaK.s 			page 9


 346:.\Generated_Source\PSoC5/isr_F2F_edge.c **** *   None
 347:.\Generated_Source\PSoC5/isr_F2F_edge.c **** *
 348:.\Generated_Source\PSoC5/isr_F2F_edge.c **** * Return:
 349:.\Generated_Source\PSoC5/isr_F2F_edge.c **** *   1 if enabled, 0 if disabled.
 350:.\Generated_Source\PSoC5/isr_F2F_edge.c **** *
 351:.\Generated_Source\PSoC5/isr_F2F_edge.c **** *******************************************************************************/
 352:.\Generated_Source\PSoC5/isr_F2F_edge.c **** uint8 isr_F2F_edge_GetState(void)
 353:.\Generated_Source\PSoC5/isr_F2F_edge.c **** {
 354:.\Generated_Source\PSoC5/isr_F2F_edge.c ****     /* Get the state of the general interrupt. */
 355:.\Generated_Source\PSoC5/isr_F2F_edge.c ****     return ((*isr_F2F_edge_INTC_SET_EN & (uint32)isr_F2F_edge__INTC_MASK) != 0u) ? 1u:0u;
 356:.\Generated_Source\PSoC5/isr_F2F_edge.c **** }
 357:.\Generated_Source\PSoC5/isr_F2F_edge.c **** 
 358:.\Generated_Source\PSoC5/isr_F2F_edge.c **** 
 359:.\Generated_Source\PSoC5/isr_F2F_edge.c **** /*******************************************************************************
 360:.\Generated_Source\PSoC5/isr_F2F_edge.c **** * Function Name: isr_F2F_edge_Disable
 361:.\Generated_Source\PSoC5/isr_F2F_edge.c **** ********************************************************************************
 362:.\Generated_Source\PSoC5/isr_F2F_edge.c **** *
 363:.\Generated_Source\PSoC5/isr_F2F_edge.c **** * Summary:
 364:.\Generated_Source\PSoC5/isr_F2F_edge.c **** *   Disables the Interrupt in the interrupt controller.
 365:.\Generated_Source\PSoC5/isr_F2F_edge.c **** *
 366:.\Generated_Source\PSoC5/isr_F2F_edge.c **** * Parameters:
 367:.\Generated_Source\PSoC5/isr_F2F_edge.c **** *   None
 368:.\Generated_Source\PSoC5/isr_F2F_edge.c **** *
 369:.\Generated_Source\PSoC5/isr_F2F_edge.c **** * Return:
 370:.\Generated_Source\PSoC5/isr_F2F_edge.c **** *   None
 371:.\Generated_Source\PSoC5/isr_F2F_edge.c **** *
 372:.\Generated_Source\PSoC5/isr_F2F_edge.c **** *******************************************************************************/
 373:.\Generated_Source\PSoC5/isr_F2F_edge.c **** void isr_F2F_edge_Disable(void)
 374:.\Generated_Source\PSoC5/isr_F2F_edge.c **** {
 375:.\Generated_Source\PSoC5/isr_F2F_edge.c ****     /* Disable the general interrupt. */
 376:.\Generated_Source\PSoC5/isr_F2F_edge.c ****     *isr_F2F_edge_INTC_CLR_EN = isr_F2F_edge__INTC_MASK;
 109              		.loc 1 376 0
 110 0000 074A     		ldr	r2, .L8
 111 0002 0823     		movs	r3, #8
 112 0004 1360     		str	r3, [r2]
 113              	.LVL3:
 114              	.LBE29:
 115              	.LBE28:
 116              	.LBB30:
 117              	.LBB31:
 228:.\Generated_Source\PSoC5/isr_F2F_edge.c ****     ramVectorTable = (cyisraddress *) *CYINT_VECT_TABLE;
 118              		.loc 1 228 0
 119 0006 02F68832 		addw	r2, r2, #2952
 120 000a 1268     		ldr	r2, [r2]
 121              	.LVL4:
 230:.\Generated_Source\PSoC5/isr_F2F_edge.c ****     ramVectorTable[CYINT_IRQ_BASE + (uint32)isr_F2F_edge__INTC_NUMBER] = address;
 122              		.loc 1 230 0
 123 000c 0549     		ldr	r1, .L8+4
 124 000e D164     		str	r1, [r2, #76]
 125              	.LVL5:
 126              	.LBE31:
 127              	.LBE30:
 128              	.LBB32:
 129              	.LBB33:
 284:.\Generated_Source\PSoC5/isr_F2F_edge.c ****     *isr_F2F_edge_INTC_PRIOR = priority << 5;
 130              		.loc 1 284 0
 131 0010 054A     		ldr	r2, .L8+8
ARM GAS  C:\Users\Yiquing\AppData\Local\Temp\ccHC4jaK.s 			page 10


 132              	.LVL6:
 133 0012 E021     		movs	r1, #224
 134 0014 1170     		strb	r1, [r2]
 135              	.LBE33:
 136              	.LBE32:
 137              	.LBB34:
 138              	.LBB35:
 334:.\Generated_Source\PSoC5/isr_F2F_edge.c ****     *isr_F2F_edge_INTC_SET_EN = isr_F2F_edge__INTC_MASK;
 139              		.loc 1 334 0
 140 0016 A2F20332 		subw	r2, r2, #771
 141 001a 1360     		str	r3, [r2]
 142 001c 7047     		bx	lr
 143              	.L9:
 144 001e 00BF     		.align	2
 145              	.L8:
 146 0020 80E100E0 		.word	-536813184
 147 0024 00000000 		.word	isr_F2F_edge_Interrupt
 148 0028 03E400E0 		.word	-536812541
 149              	.LBE35:
 150              	.LBE34:
 151              		.cfi_endproc
 152              	.LFE0:
 153              		.size	isr_F2F_edge_Start, .-isr_F2F_edge_Start
 154              		.section	.text.isr_F2F_edge_StartEx,"ax",%progbits
 155              		.align	1
 156              		.global	isr_F2F_edge_StartEx
 157              		.thumb
 158              		.thumb_func
 159              		.type	isr_F2F_edge_StartEx, %function
 160              	isr_F2F_edge_StartEx:
 161              	.LFB1:
 112:.\Generated_Source\PSoC5/isr_F2F_edge.c **** {
 162              		.loc 1 112 0
 163              		.cfi_startproc
 164              		@ args = 0, pretend = 0, frame = 0
 165              		@ frame_needed = 0, uses_anonymous_args = 0
 166              		@ link register save eliminated.
 167              	.LVL7:
 168              	.LBB36:
 169              	.LBB37:
 170              		.loc 1 376 0
 171 0000 064A     		ldr	r2, .L11
 172 0002 0823     		movs	r3, #8
 173 0004 1360     		str	r3, [r2]
 174              	.LVL8:
 175              	.LBE37:
 176              	.LBE36:
 177              	.LBB38:
 178              	.LBB39:
 228:.\Generated_Source\PSoC5/isr_F2F_edge.c ****     ramVectorTable = (cyisraddress *) *CYINT_VECT_TABLE;
 179              		.loc 1 228 0
 180 0006 02F68832 		addw	r2, r2, #2952
 181 000a 1268     		ldr	r2, [r2]
 182              	.LVL9:
 183              	.LBE39:
 184              	.LBE38:
 185              	.LBB41:
ARM GAS  C:\Users\Yiquing\AppData\Local\Temp\ccHC4jaK.s 			page 11


 186              	.LBB42:
 284:.\Generated_Source\PSoC5/isr_F2F_edge.c ****     *isr_F2F_edge_INTC_PRIOR = priority << 5;
 187              		.loc 1 284 0
 188 000c E021     		movs	r1, #224
 189              	.LBE42:
 190              	.LBE41:
 191              	.LBB44:
 192              	.LBB40:
 230:.\Generated_Source\PSoC5/isr_F2F_edge.c ****     ramVectorTable[CYINT_IRQ_BASE + (uint32)isr_F2F_edge__INTC_NUMBER] = address;
 193              		.loc 1 230 0
 194 000e D064     		str	r0, [r2, #76]
 195              	.LVL10:
 196              	.LBE40:
 197              	.LBE44:
 198              	.LBB45:
 199              	.LBB43:
 284:.\Generated_Source\PSoC5/isr_F2F_edge.c ****     *isr_F2F_edge_INTC_PRIOR = priority << 5;
 200              		.loc 1 284 0
 201 0010 034A     		ldr	r2, .L11+4
 202              	.LVL11:
 203 0012 1170     		strb	r1, [r2]
 204              	.LBE43:
 205              	.LBE45:
 206              	.LBB46:
 207              	.LBB47:
 334:.\Generated_Source\PSoC5/isr_F2F_edge.c ****     *isr_F2F_edge_INTC_SET_EN = isr_F2F_edge__INTC_MASK;
 208              		.loc 1 334 0
 209 0014 A2F20332 		subw	r2, r2, #771
 210 0018 1360     		str	r3, [r2]
 211 001a 7047     		bx	lr
 212              	.L12:
 213              		.align	2
 214              	.L11:
 215 001c 80E100E0 		.word	-536813184
 216 0020 03E400E0 		.word	-536812541
 217              	.LBE47:
 218              	.LBE46:
 219              		.cfi_endproc
 220              	.LFE1:
 221              		.size	isr_F2F_edge_StartEx, .-isr_F2F_edge_StartEx
 222              		.section	.text.isr_F2F_edge_Stop,"ax",%progbits
 223              		.align	1
 224              		.global	isr_F2F_edge_Stop
 225              		.thumb
 226              		.thumb_func
 227              		.type	isr_F2F_edge_Stop, %function
 228              	isr_F2F_edge_Stop:
 229              	.LFB2:
 142:.\Generated_Source\PSoC5/isr_F2F_edge.c **** {
 230              		.loc 1 142 0
 231              		.cfi_startproc
 232              		@ args = 0, pretend = 0, frame = 0
 233              		@ frame_needed = 0, uses_anonymous_args = 0
 234              		@ link register save eliminated.
 235              	.LBB48:
 236              	.LBB49:
 237              		.loc 1 376 0
ARM GAS  C:\Users\Yiquing\AppData\Local\Temp\ccHC4jaK.s 			page 12


 238 0000 044B     		ldr	r3, .L14
 239 0002 0822     		movs	r2, #8
 240 0004 1A60     		str	r2, [r3]
 241              	.LVL12:
 242              	.LBE49:
 243              	.LBE48:
 244              	.LBB50:
 245              	.LBB51:
 228:.\Generated_Source\PSoC5/isr_F2F_edge.c ****     ramVectorTable = (cyisraddress *) *CYINT_VECT_TABLE;
 246              		.loc 1 228 0
 247 0006 03F68833 		addw	r3, r3, #2952
 248 000a 1B68     		ldr	r3, [r3]
 249              	.LVL13:
 230:.\Generated_Source\PSoC5/isr_F2F_edge.c ****     ramVectorTable[CYINT_IRQ_BASE + (uint32)isr_F2F_edge__INTC_NUMBER] = address;
 250              		.loc 1 230 0
 251 000c 024A     		ldr	r2, .L14+4
 252 000e DA64     		str	r2, [r3, #76]
 253 0010 7047     		bx	lr
 254              	.L15:
 255 0012 00BF     		.align	2
 256              	.L14:
 257 0014 80E100E0 		.word	-536813184
 258 0018 00000000 		.word	IntDefaultHandler
 259              	.LBE51:
 260              	.LBE50:
 261              		.cfi_endproc
 262              	.LFE2:
 263              		.size	isr_F2F_edge_Stop, .-isr_F2F_edge_Stop
 264              		.section	.text.isr_F2F_edge_SetVector,"ax",%progbits
 265              		.align	1
 266              		.global	isr_F2F_edge_SetVector
 267              		.thumb
 268              		.thumb_func
 269              		.type	isr_F2F_edge_SetVector, %function
 270              	isr_F2F_edge_SetVector:
 271              	.LFB4:
 225:.\Generated_Source\PSoC5/isr_F2F_edge.c **** {
 272              		.loc 1 225 0
 273              		.cfi_startproc
 274              		@ args = 0, pretend = 0, frame = 0
 275              		@ frame_needed = 0, uses_anonymous_args = 0
 276              		@ link register save eliminated.
 277              	.LVL14:
 228:.\Generated_Source\PSoC5/isr_F2F_edge.c ****     ramVectorTable = (cyisraddress *) *CYINT_VECT_TABLE;
 278              		.loc 1 228 0
 279 0000 014B     		ldr	r3, .L17
 280 0002 1B68     		ldr	r3, [r3]
 281              	.LVL15:
 230:.\Generated_Source\PSoC5/isr_F2F_edge.c ****     ramVectorTable[CYINT_IRQ_BASE + (uint32)isr_F2F_edge__INTC_NUMBER] = address;
 282              		.loc 1 230 0
 283 0004 D864     		str	r0, [r3, #76]
 284 0006 7047     		bx	lr
 285              	.L18:
 286              		.align	2
 287              	.L17:
 288 0008 08ED00E0 		.word	-536810232
 289              		.cfi_endproc
ARM GAS  C:\Users\Yiquing\AppData\Local\Temp\ccHC4jaK.s 			page 13


 290              	.LFE4:
 291              		.size	isr_F2F_edge_SetVector, .-isr_F2F_edge_SetVector
 292              		.section	.text.isr_F2F_edge_GetVector,"ax",%progbits
 293              		.align	1
 294              		.global	isr_F2F_edge_GetVector
 295              		.thumb
 296              		.thumb_func
 297              		.type	isr_F2F_edge_GetVector, %function
 298              	isr_F2F_edge_GetVector:
 299              	.LFB5:
 249:.\Generated_Source\PSoC5/isr_F2F_edge.c **** {
 300              		.loc 1 249 0
 301              		.cfi_startproc
 302              		@ args = 0, pretend = 0, frame = 0
 303              		@ frame_needed = 0, uses_anonymous_args = 0
 304              		@ link register save eliminated.
 305              	.LVL16:
 252:.\Generated_Source\PSoC5/isr_F2F_edge.c ****     ramVectorTable = (cyisraddress *) *CYINT_VECT_TABLE;
 306              		.loc 1 252 0
 307 0000 014B     		ldr	r3, .L20
 308              	.LVL17:
 254:.\Generated_Source\PSoC5/isr_F2F_edge.c ****     return ramVectorTable[CYINT_IRQ_BASE + (uint32)isr_F2F_edge__INTC_NUMBER];
 309              		.loc 1 254 0
 310 0002 1B68     		ldr	r3, [r3]
 311              	.LVL18:
 255:.\Generated_Source\PSoC5/isr_F2F_edge.c **** }
 312              		.loc 1 255 0
 313 0004 D86C     		ldr	r0, [r3, #76]
 314 0006 7047     		bx	lr
 315              	.L21:
 316              		.align	2
 317              	.L20:
 318 0008 08ED00E0 		.word	-536810232
 319              		.cfi_endproc
 320              	.LFE5:
 321              		.size	isr_F2F_edge_GetVector, .-isr_F2F_edge_GetVector
 322              		.section	.text.isr_F2F_edge_SetPriority,"ax",%progbits
 323              		.align	1
 324              		.global	isr_F2F_edge_SetPriority
 325              		.thumb
 326              		.thumb_func
 327              		.type	isr_F2F_edge_SetPriority, %function
 328              	isr_F2F_edge_SetPriority:
 329              	.LFB6:
 283:.\Generated_Source\PSoC5/isr_F2F_edge.c **** {
 330              		.loc 1 283 0
 331              		.cfi_startproc
 332              		@ args = 0, pretend = 0, frame = 0
 333              		@ frame_needed = 0, uses_anonymous_args = 0
 334              		@ link register save eliminated.
 335              	.LVL19:
 284:.\Generated_Source\PSoC5/isr_F2F_edge.c ****     *isr_F2F_edge_INTC_PRIOR = priority << 5;
 336              		.loc 1 284 0
 337 0000 4001     		lsls	r0, r0, #5
 338              	.LVL20:
 339 0002 024B     		ldr	r3, .L23
 340 0004 C0B2     		uxtb	r0, r0
ARM GAS  C:\Users\Yiquing\AppData\Local\Temp\ccHC4jaK.s 			page 14


 341 0006 1870     		strb	r0, [r3]
 342 0008 7047     		bx	lr
 343              	.L24:
 344 000a 00BF     		.align	2
 345              	.L23:
 346 000c 03E400E0 		.word	-536812541
 347              		.cfi_endproc
 348              	.LFE6:
 349              		.size	isr_F2F_edge_SetPriority, .-isr_F2F_edge_SetPriority
 350              		.section	.text.isr_F2F_edge_GetPriority,"ax",%progbits
 351              		.align	1
 352              		.global	isr_F2F_edge_GetPriority
 353              		.thumb
 354              		.thumb_func
 355              		.type	isr_F2F_edge_GetPriority, %function
 356              	isr_F2F_edge_GetPriority:
 357              	.LFB7:
 305:.\Generated_Source\PSoC5/isr_F2F_edge.c **** {
 358              		.loc 1 305 0
 359              		.cfi_startproc
 360              		@ args = 0, pretend = 0, frame = 0
 361              		@ frame_needed = 0, uses_anonymous_args = 0
 362              		@ link register save eliminated.
 309:.\Generated_Source\PSoC5/isr_F2F_edge.c ****     priority = *isr_F2F_edge_INTC_PRIOR >> 5;
 363              		.loc 1 309 0
 364 0000 014B     		ldr	r3, .L26
 365 0002 1878     		ldrb	r0, [r3]	@ zero_extendqisi2
 366              	.LVL21:
 312:.\Generated_Source\PSoC5/isr_F2F_edge.c **** }
 367              		.loc 1 312 0
 368 0004 4009     		lsrs	r0, r0, #5
 369              	.LVL22:
 370 0006 7047     		bx	lr
 371              	.L27:
 372              		.align	2
 373              	.L26:
 374 0008 03E400E0 		.word	-536812541
 375              		.cfi_endproc
 376              	.LFE7:
 377              		.size	isr_F2F_edge_GetPriority, .-isr_F2F_edge_GetPriority
 378              		.section	.text.isr_F2F_edge_Enable,"ax",%progbits
 379              		.align	1
 380              		.global	isr_F2F_edge_Enable
 381              		.thumb
 382              		.thumb_func
 383              		.type	isr_F2F_edge_Enable, %function
 384              	isr_F2F_edge_Enable:
 385              	.LFB8:
 332:.\Generated_Source\PSoC5/isr_F2F_edge.c **** {
 386              		.loc 1 332 0
 387              		.cfi_startproc
 388              		@ args = 0, pretend = 0, frame = 0
 389              		@ frame_needed = 0, uses_anonymous_args = 0
 390              		@ link register save eliminated.
 334:.\Generated_Source\PSoC5/isr_F2F_edge.c ****     *isr_F2F_edge_INTC_SET_EN = isr_F2F_edge__INTC_MASK;
 391              		.loc 1 334 0
 392 0000 014B     		ldr	r3, .L29
ARM GAS  C:\Users\Yiquing\AppData\Local\Temp\ccHC4jaK.s 			page 15


 393 0002 0822     		movs	r2, #8
 394 0004 1A60     		str	r2, [r3]
 395 0006 7047     		bx	lr
 396              	.L30:
 397              		.align	2
 398              	.L29:
 399 0008 00E100E0 		.word	-536813312
 400              		.cfi_endproc
 401              	.LFE8:
 402              		.size	isr_F2F_edge_Enable, .-isr_F2F_edge_Enable
 403              		.section	.text.isr_F2F_edge_GetState,"ax",%progbits
 404              		.align	1
 405              		.global	isr_F2F_edge_GetState
 406              		.thumb
 407              		.thumb_func
 408              		.type	isr_F2F_edge_GetState, %function
 409              	isr_F2F_edge_GetState:
 410              	.LFB9:
 353:.\Generated_Source\PSoC5/isr_F2F_edge.c **** {
 411              		.loc 1 353 0
 412              		.cfi_startproc
 413              		@ args = 0, pretend = 0, frame = 0
 414              		@ frame_needed = 0, uses_anonymous_args = 0
 415              		@ link register save eliminated.
 355:.\Generated_Source\PSoC5/isr_F2F_edge.c ****     return ((*isr_F2F_edge_INTC_SET_EN & (uint32)isr_F2F_edge__INTC_MASK) != 0u) ? 1u:0u;
 416              		.loc 1 355 0
 417 0000 024B     		ldr	r3, .L32
 418 0002 1868     		ldr	r0, [r3]
 356:.\Generated_Source\PSoC5/isr_F2F_edge.c **** }
 419              		.loc 1 356 0
 420 0004 C0F3C000 		ubfx	r0, r0, #3, #1
 421 0008 7047     		bx	lr
 422              	.L33:
 423 000a 00BF     		.align	2
 424              	.L32:
 425 000c 00E100E0 		.word	-536813312
 426              		.cfi_endproc
 427              	.LFE9:
 428              		.size	isr_F2F_edge_GetState, .-isr_F2F_edge_GetState
 429              		.section	.text.isr_F2F_edge_Disable,"ax",%progbits
 430              		.align	1
 431              		.global	isr_F2F_edge_Disable
 432              		.thumb
 433              		.thumb_func
 434              		.type	isr_F2F_edge_Disable, %function
 435              	isr_F2F_edge_Disable:
 436              	.LFB10:
 374:.\Generated_Source\PSoC5/isr_F2F_edge.c **** {
 437              		.loc 1 374 0
 438              		.cfi_startproc
 439              		@ args = 0, pretend = 0, frame = 0
 440              		@ frame_needed = 0, uses_anonymous_args = 0
 441              		@ link register save eliminated.
 442              		.loc 1 376 0
 443 0000 014B     		ldr	r3, .L35
 444 0002 0822     		movs	r2, #8
 445 0004 1A60     		str	r2, [r3]
ARM GAS  C:\Users\Yiquing\AppData\Local\Temp\ccHC4jaK.s 			page 16


 446 0006 7047     		bx	lr
 447              	.L36:
 448              		.align	2
 449              	.L35:
 450 0008 80E100E0 		.word	-536813184
 451              		.cfi_endproc
 452              	.LFE10:
 453              		.size	isr_F2F_edge_Disable, .-isr_F2F_edge_Disable
 454              		.section	.text.isr_F2F_edge_SetPending,"ax",%progbits
 455              		.align	1
 456              		.global	isr_F2F_edge_SetPending
 457              		.thumb
 458              		.thumb_func
 459              		.type	isr_F2F_edge_SetPending, %function
 460              	isr_F2F_edge_SetPending:
 461              	.LFB11:
 377:.\Generated_Source\PSoC5/isr_F2F_edge.c **** }
 378:.\Generated_Source\PSoC5/isr_F2F_edge.c **** 
 379:.\Generated_Source\PSoC5/isr_F2F_edge.c **** 
 380:.\Generated_Source\PSoC5/isr_F2F_edge.c **** /*******************************************************************************
 381:.\Generated_Source\PSoC5/isr_F2F_edge.c **** * Function Name: isr_F2F_edge_SetPending
 382:.\Generated_Source\PSoC5/isr_F2F_edge.c **** ********************************************************************************
 383:.\Generated_Source\PSoC5/isr_F2F_edge.c **** *
 384:.\Generated_Source\PSoC5/isr_F2F_edge.c **** * Summary:
 385:.\Generated_Source\PSoC5/isr_F2F_edge.c **** *   Causes the Interrupt to enter the pending state, a software method of
 386:.\Generated_Source\PSoC5/isr_F2F_edge.c **** *   generating the interrupt.
 387:.\Generated_Source\PSoC5/isr_F2F_edge.c **** *
 388:.\Generated_Source\PSoC5/isr_F2F_edge.c **** * Parameters:
 389:.\Generated_Source\PSoC5/isr_F2F_edge.c **** *   None
 390:.\Generated_Source\PSoC5/isr_F2F_edge.c **** *
 391:.\Generated_Source\PSoC5/isr_F2F_edge.c **** * Return:
 392:.\Generated_Source\PSoC5/isr_F2F_edge.c **** *   None
 393:.\Generated_Source\PSoC5/isr_F2F_edge.c **** *
 394:.\Generated_Source\PSoC5/isr_F2F_edge.c **** * Side Effects:
 395:.\Generated_Source\PSoC5/isr_F2F_edge.c **** *   If interrupts are enabled and the interrupt is set up properly, the ISR is
 396:.\Generated_Source\PSoC5/isr_F2F_edge.c **** *   entered (depending on the priority of this interrupt and other pending 
 397:.\Generated_Source\PSoC5/isr_F2F_edge.c **** *   interrupts).
 398:.\Generated_Source\PSoC5/isr_F2F_edge.c **** *
 399:.\Generated_Source\PSoC5/isr_F2F_edge.c **** *******************************************************************************/
 400:.\Generated_Source\PSoC5/isr_F2F_edge.c **** void isr_F2F_edge_SetPending(void)
 401:.\Generated_Source\PSoC5/isr_F2F_edge.c **** {
 462              		.loc 1 401 0
 463              		.cfi_startproc
 464              		@ args = 0, pretend = 0, frame = 0
 465              		@ frame_needed = 0, uses_anonymous_args = 0
 466              		@ link register save eliminated.
 402:.\Generated_Source\PSoC5/isr_F2F_edge.c ****     *isr_F2F_edge_INTC_SET_PD = isr_F2F_edge__INTC_MASK;
 467              		.loc 1 402 0
 468 0000 014B     		ldr	r3, .L38
 469 0002 0822     		movs	r2, #8
 470 0004 1A60     		str	r2, [r3]
 471 0006 7047     		bx	lr
 472              	.L39:
 473              		.align	2
 474              	.L38:
 475 0008 00E200E0 		.word	-536813056
 476              		.cfi_endproc
ARM GAS  C:\Users\Yiquing\AppData\Local\Temp\ccHC4jaK.s 			page 17


 477              	.LFE11:
 478              		.size	isr_F2F_edge_SetPending, .-isr_F2F_edge_SetPending
 479              		.section	.text.isr_F2F_edge_ClearPending,"ax",%progbits
 480              		.align	1
 481              		.global	isr_F2F_edge_ClearPending
 482              		.thumb
 483              		.thumb_func
 484              		.type	isr_F2F_edge_ClearPending, %function
 485              	isr_F2F_edge_ClearPending:
 486              	.LFB12:
 403:.\Generated_Source\PSoC5/isr_F2F_edge.c **** }
 404:.\Generated_Source\PSoC5/isr_F2F_edge.c **** 
 405:.\Generated_Source\PSoC5/isr_F2F_edge.c **** 
 406:.\Generated_Source\PSoC5/isr_F2F_edge.c **** /*******************************************************************************
 407:.\Generated_Source\PSoC5/isr_F2F_edge.c **** * Function Name: isr_F2F_edge_ClearPending
 408:.\Generated_Source\PSoC5/isr_F2F_edge.c **** ********************************************************************************
 409:.\Generated_Source\PSoC5/isr_F2F_edge.c **** *
 410:.\Generated_Source\PSoC5/isr_F2F_edge.c **** * Summary:
 411:.\Generated_Source\PSoC5/isr_F2F_edge.c **** *   Clears a pending interrupt in the interrupt controller.
 412:.\Generated_Source\PSoC5/isr_F2F_edge.c **** *
 413:.\Generated_Source\PSoC5/isr_F2F_edge.c **** *   Note Some interrupt sources are clear-on-read and require the block 
 414:.\Generated_Source\PSoC5/isr_F2F_edge.c **** *   interrupt/status register to be read/cleared with the appropriate block API 
 415:.\Generated_Source\PSoC5/isr_F2F_edge.c **** *   (GPIO, UART, and so on). Otherwise the ISR will continue to remain in 
 416:.\Generated_Source\PSoC5/isr_F2F_edge.c **** *   pending state even though the interrupt itself is cleared using this API.
 417:.\Generated_Source\PSoC5/isr_F2F_edge.c **** *
 418:.\Generated_Source\PSoC5/isr_F2F_edge.c **** * Parameters:
 419:.\Generated_Source\PSoC5/isr_F2F_edge.c **** *   None
 420:.\Generated_Source\PSoC5/isr_F2F_edge.c **** *
 421:.\Generated_Source\PSoC5/isr_F2F_edge.c **** * Return:
 422:.\Generated_Source\PSoC5/isr_F2F_edge.c **** *   None
 423:.\Generated_Source\PSoC5/isr_F2F_edge.c **** *
 424:.\Generated_Source\PSoC5/isr_F2F_edge.c **** *******************************************************************************/
 425:.\Generated_Source\PSoC5/isr_F2F_edge.c **** void isr_F2F_edge_ClearPending(void)
 426:.\Generated_Source\PSoC5/isr_F2F_edge.c **** {
 487              		.loc 1 426 0
 488              		.cfi_startproc
 489              		@ args = 0, pretend = 0, frame = 0
 490              		@ frame_needed = 0, uses_anonymous_args = 0
 491              		@ link register save eliminated.
 427:.\Generated_Source\PSoC5/isr_F2F_edge.c ****     *isr_F2F_edge_INTC_CLR_PD = isr_F2F_edge__INTC_MASK;
 492              		.loc 1 427 0
 493 0000 014B     		ldr	r3, .L41
 494 0002 0822     		movs	r2, #8
 495 0004 1A60     		str	r2, [r3]
 496 0006 7047     		bx	lr
 497              	.L42:
 498              		.align	2
 499              	.L41:
 500 0008 80E200E0 		.word	-536812928
 501              		.cfi_endproc
 502              	.LFE12:
 503              		.size	isr_F2F_edge_ClearPending, .-isr_F2F_edge_ClearPending
 504              		.comm	activate_f2ftimer,1,1
 505              		.comm	timeout_cnt,4,4
 506              		.comm	f2f_pulsewidth,4,4
 507              		.comm	card_in_buf,4,4
 508              		.comm	card_ack,4,4
ARM GAS  C:\Users\Yiquing\AppData\Local\Temp\ccHC4jaK.s 			page 18


 509              		.comm	TAMPERCR_POLARITY,4,4
 510              		.comm	old,1,1
 511              		.comm	currentAccessType,1,1
 512              		.comm	s,40,4
 513              		.text
 514              	.Letext0:
 515              		.file 2 "Generated_Source\\PSoC5/cytypes.h"
 516              		.file 3 "./softuart.h"
 517              		.file 4 "./system.h"
 518              		.file 5 ".\\Generated_Source\\PSoC5\\Timeout_Timer.h"
 519              		.file 6 ".\\Generated_Source\\PSoC5\\FilterReg.h"