ARM GAS  C:\Users\Yiquing\AppData\Local\Temp\ccKBlbpG.s 			page 1


   1              		.syntax unified
   2              		.cpu cortex-m3
   3              		.fpu softvfp
   4              		.eabi_attribute 20, 1
   5              		.eabi_attribute 21, 1
   6              		.eabi_attribute 23, 3
   7              		.eabi_attribute 24, 1
   8              		.eabi_attribute 25, 1
   9              		.eabi_attribute 26, 1
  10              		.eabi_attribute 30, 4
  11              		.eabi_attribute 34, 1
  12              		.eabi_attribute 18, 4
  13              		.thumb
  14              		.file	"main.c"
  15              		.text
  16              	.Ltext0:
  17              		.cfi_sections	.debug_frame
  18              		.section	.text.SetVersion,"ax",%progbits
  19              		.align	1
  20              		.global	SetVersion
  21              		.thumb
  22              		.thumb_func
  23              		.type	SetVersion, %function
  24              	SetVersion:
  25              	.LFB63:
  26              		.file 1 ".\\main.c"
   1:.\main.c      **** /* ========================================
   2:.\main.c      ****  *
   3:.\main.c      ****  * NanoNXT Breakout Board
   4:.\main.c      ****  * Copyright Eyelock.Inc, 2014, 2015
   5:.\main.c      ****  * All Rights Reserved
   6:.\main.c      ****  * UNPUBLISHED, LICENSED SOFTWARE.
   7:.\main.c      ****  * CONFIDENTIAL AND PROPRIETARY INFORMATION
   8:.\main.c      ****  * 
   9:.\main.c      ****  * Version History:
  10:.\main.c      ****  * ================
  11:.\main.c      ****  * 3.0.0 : Ported Nano Breakout board functionality without HID/F2F.
  12:.\main.c      ****  * 3.0.1 : Relay output moved from regular output mode to auxillary output mode
  13:.\main.c      ****  * 3.0.2 : F2F functionality Added.
  14:.\main.c      ****  * 3.0.3 : HID functionality added using SW UART for 26 bit weigand & SW UART tested on PAC comapti
  15:.\main.c      ****  * 3.0.4 : Tamper In is directly routed to Tamper out
  16:.\main.c      ****  * 3.0.5 : Software Reset button functionality added
  17:.\main.c      ****  * 3.0.6 : HID functionality modified to support all types of weigand bit formats. 
  18:.\main.c      ****  * 3.0.7 : Bootloader functionality added.
  19:.\main.c      ****  * 3.0.8 : Reed Tamper Inverted for Beta.
  20:.\main.c      ****  * 3.0.9 : Ported code for ICM 3(PSOC 5).
  21:.\main.c      ****  * 3.1.0 : Bootloader functionality added to ICM3.
  22:.\main.c      ****  * 3.1.1 : GRI 1-13-15: Tamper signals repaired. Tamper moved to main code block.  Tamper polarity 
  23:.\main.c      ****  * 3.1.2 : GRI 1-28-15: Tamper moved to HandleInputs.  I2C bus clock was corrected to be 100kHz to 
  24:.\main.c      ****  * 3.1.3 : GRI 1-30-15: Removed all "ClearBuffer()" instances.
  25:.\main.c      ****  * 3.1.4 : GRI 2-02-15: Added ACK bit for card reads to prevent hanging after card read. PSoC will 
  26:.\main.c      ****  * 3.1.5 : GRI 2-04-15: Extensive revision to input signal handler to add noise immunity/debounce (
  27:.\main.c      ****  * 3.1.6 : Added F2F card reader functionality
  28:.\main.c      ****  * 3.1.7 : Debouncer added to WD0 && Functionality added to detect pulsewidth in F2F
  29:.\main.c      ****  * 3.1.8 : Added F2F conditionality to turn on timers
  30:.\main.c      ****  * 3.1.9 : Fixed the bootloader bug for PSOC creator 3.1  Use the debug NxtICM3_bootloader for refe
  31:.\main.c      ****  * 3.1.10 : Make F2F pulse timing adaptive to the input signal
ARM GAS  C:\Users\Yiquing\AppData\Local\Temp\ccKBlbpG.s 			page 2


  32:.\main.c      ****  * 3.1.15 : OSDP Dual Authentication
  33:.\main.c      ****  * 3.1.16 : support F2F variable length messages
  34:.\main.c      **** 
  35:.\main.c      **** 
  36:.\main.c      ****  * ========================================
  37:.\main.c      **** */
  38:.\main.c      **** #include <project.h>
  39:.\main.c      **** #include "system.h"
  40:.\main.c      **** #include "wiegand.h"
  41:.\main.c      **** #include "power.h"
  42:.\main.c      **** #include "inout.h"
  43:.\main.c      **** #include "i2cuart.h"
  44:.\main.c      **** 
  45:.\main.c      **** 
  46:.\main.c      **** I2C_Regs MyI2C_Regs;
  47:.\main.c      **** 
  48:.\main.c      **** void SU_Isr(SOFT_UART_STRUCT *s);
  49:.\main.c      ****  
  50:.\main.c      **** 
  51:.\main.c      **** /***********************************
  52:.\main.c      ****     Sets the breakout board version.
  53:.\main.c      **** *************************************/
  54:.\main.c      **** void SetVersion()
  55:.\main.c      **** {
  27              		.loc 1 55 0
  28              		.cfi_startproc
  29              		@ args = 0, pretend = 0, frame = 0
  30              		@ frame_needed = 0, uses_anonymous_args = 0
  31              		@ link register save eliminated.
  56:.\main.c      ****     MyI2C_Regs.hw_version[0] = 0x71;
  32              		.loc 1 56 0
  33 0000 094B     		ldr	r3, .L2
  34 0002 7122     		movs	r2, #113
  35 0004 83F84620 		strb	r2, [r3, #70]
  57:.\main.c      ****     MyI2C_Regs.hw_version[1] = 0x42;
  36              		.loc 1 57 0
  37 0008 4222     		movs	r2, #66
  38 000a 83F84720 		strb	r2, [r3, #71]
  58:.\main.c      ****     MyI2C_Regs.hw_version[2] = 0x0A;
  39              		.loc 1 58 0
  40 000e 0A22     		movs	r2, #10
  41 0010 83F84820 		strb	r2, [r3, #72]
  59:.\main.c      ****     
  60:.\main.c      ****     MyI2C_Regs.sw_version[0] = 3;
  42              		.loc 1 60 0
  43 0014 0322     		movs	r2, #3
  44 0016 83F84320 		strb	r2, [r3, #67]
  61:.\main.c      ****     MyI2C_Regs.sw_version[1] = 2;
  45              		.loc 1 61 0
  46 001a 0222     		movs	r2, #2
  47 001c 83F84420 		strb	r2, [r3, #68]
  62:.\main.c      ****     MyI2C_Regs.sw_version[2] = 0;
  48              		.loc 1 62 0
  49 0020 0022     		movs	r2, #0
  50 0022 83F84520 		strb	r2, [r3, #69]
  51 0026 7047     		bx	lr
  52              	.L3:
ARM GAS  C:\Users\Yiquing\AppData\Local\Temp\ccKBlbpG.s 			page 3


  53              		.align	2
  54              	.L2:
  55 0028 00000000 		.word	MyI2C_Regs
  56              		.cfi_endproc
  57              	.LFE63:
  58              		.size	SetVersion, .-SetVersion
  59              		.section	.text.TriggerRelay1,"ax",%progbits
  60              		.align	1
  61              		.global	TriggerRelay1
  62              		.thumb
  63              		.thumb_func
  64              		.type	TriggerRelay1, %function
  65              	TriggerRelay1:
  66              	.LFB64:
  63:.\main.c      **** }
  64:.\main.c      **** 
  65:.\main.c      **** 
  66:.\main.c      **** /*************************************
  67:.\main.c      ****     Triggers Relay 1 as main output
  68:.\main.c      ****     in msecs. (Functionality not used now)     
  69:.\main.c      **** **************************************/
  70:.\main.c      **** void TriggerRelay1(int waitMSecs)
  71:.\main.c      **** {
  67              		.loc 1 71 0
  68              		.cfi_startproc
  69              		@ args = 0, pretend = 0, frame = 0
  70              		@ frame_needed = 0, uses_anonymous_args = 0
  71              	.LVL0:
  72 0000 10B5     		push	{r4, lr}
  73              		.cfi_def_cfa_offset 8
  74              		.cfi_offset 4, -8
  75              		.cfi_offset 14, -4
  76              		.loc 1 71 0
  77 0002 0446     		mov	r4, r0
  72:.\main.c      ****     
  73:.\main.c      ****     LED_GRN_Write(0) ;
  78              		.loc 1 73 0
  79 0004 0020     		movs	r0, #0
  80              	.LVL1:
  81 0006 FFF7FEFF 		bl	LED_GRN_Write
  82              	.LVL2:
  74:.\main.c      ****     LED_YEL_Write(0);
  83              		.loc 1 74 0
  84 000a 0020     		movs	r0, #0
  85 000c FFF7FEFF 		bl	LED_YEL_Write
  86              	.LVL3:
  75:.\main.c      **** 	RELAY_A_Write(1);
  87              		.loc 1 75 0
  88 0010 0120     		movs	r0, #1
  89 0012 FFF7FEFF 		bl	RELAY_A_Write
  90              	.LVL4:
  76:.\main.c      **** 	CyDelay(waitMSecs);
  91              		.loc 1 76 0
  92 0016 2046     		mov	r0, r4
  93 0018 FFF7FEFF 		bl	CyDelay
  94              	.LVL5:
  77:.\main.c      **** 	LED_GRN_Write(1) ;
ARM GAS  C:\Users\Yiquing\AppData\Local\Temp\ccKBlbpG.s 			page 4


  95              		.loc 1 77 0
  96 001c 0120     		movs	r0, #1
  97 001e FFF7FEFF 		bl	LED_GRN_Write
  98              	.LVL6:
  78:.\main.c      ****     LED_YEL_Write(1) ;
  99              		.loc 1 78 0
 100 0022 0120     		movs	r0, #1
 101 0024 FFF7FEFF 		bl	LED_YEL_Write
 102              	.LVL7:
  79:.\main.c      **** 	RELAY_A_Write(0);
  80:.\main.c      **** 	
  81:.\main.c      **** }
 103              		.loc 1 81 0
 104 0028 BDE81040 		pop	{r4, lr}
 105              	.LVL8:
  79:.\main.c      **** 	RELAY_A_Write(0);
 106              		.loc 1 79 0
 107 002c 0020     		movs	r0, #0
 108 002e FFF7FEBF 		b	RELAY_A_Write
 109              	.LVL9:
 110              		.cfi_endproc
 111              	.LFE64:
 112              		.size	TriggerRelay1, .-TriggerRelay1
 113              		.section	.text.TriggerRelay2,"ax",%progbits
 114              		.align	1
 115              		.global	TriggerRelay2
 116              		.thumb
 117              		.thumb_func
 118              		.type	TriggerRelay2, %function
 119              	TriggerRelay2:
 120              	.LFB65:
  82:.\main.c      **** 
  83:.\main.c      **** /*************************************
  84:.\main.c      ****     Triggers Relay 2 as main output
  85:.\main.c      ****     in msecs. (Functionality not used now)     
  86:.\main.c      **** **************************************/
  87:.\main.c      **** 
  88:.\main.c      **** void TriggerRelay2(int waitMSecs)
  89:.\main.c      **** {
 121              		.loc 1 89 0
 122              		.cfi_startproc
 123              		@ args = 0, pretend = 0, frame = 0
 124              		@ frame_needed = 0, uses_anonymous_args = 0
 125              	.LVL10:
 126 0000 10B5     		push	{r4, lr}
 127              		.cfi_def_cfa_offset 8
 128              		.cfi_offset 4, -8
 129              		.cfi_offset 14, -4
 130              		.loc 1 89 0
 131 0002 0446     		mov	r4, r0
  90:.\main.c      ****     RELAY_B_Write(0);
 132              		.loc 1 90 0
 133 0004 0020     		movs	r0, #0
 134              	.LVL11:
 135 0006 FFF7FEFF 		bl	RELAY_B_Write
 136              	.LVL12:
  91:.\main.c      ****     LED_GRN_Write(0) ;
ARM GAS  C:\Users\Yiquing\AppData\Local\Temp\ccKBlbpG.s 			page 5


 137              		.loc 1 91 0
 138 000a 0020     		movs	r0, #0
 139 000c FFF7FEFF 		bl	LED_GRN_Write
 140              	.LVL13:
  92:.\main.c      ****     LED_YEL_Write(0);
 141              		.loc 1 92 0
 142 0010 0020     		movs	r0, #0
 143 0012 FFF7FEFF 		bl	LED_YEL_Write
 144              	.LVL14:
  93:.\main.c      **** 	RELAY_B_Write(1);
 145              		.loc 1 93 0
 146 0016 0120     		movs	r0, #1
 147 0018 FFF7FEFF 		bl	RELAY_B_Write
 148              	.LVL15:
  94:.\main.c      **** 	CyDelay(waitMSecs);
 149              		.loc 1 94 0
 150 001c 2046     		mov	r0, r4
 151 001e FFF7FEFF 		bl	CyDelay
 152              	.LVL16:
  95:.\main.c      **** 	LED_GRN_Write(1) ;
 153              		.loc 1 95 0
 154 0022 0120     		movs	r0, #1
 155 0024 FFF7FEFF 		bl	LED_GRN_Write
 156              	.LVL17:
  96:.\main.c      ****     LED_YEL_Write(1) ;
 157              		.loc 1 96 0
 158 0028 0120     		movs	r0, #1
 159 002a FFF7FEFF 		bl	LED_YEL_Write
 160              	.LVL18:
  97:.\main.c      **** 	RELAY_B_Write(0);
  98:.\main.c      **** 	
  99:.\main.c      **** }
 161              		.loc 1 99 0
 162 002e BDE81040 		pop	{r4, lr}
 163              	.LVL19:
  97:.\main.c      **** 	RELAY_B_Write(0);
 164              		.loc 1 97 0
 165 0032 0020     		movs	r0, #0
 166 0034 FFF7FEBF 		b	RELAY_B_Write
 167              	.LVL20:
 168              		.cfi_endproc
 169              	.LFE65:
 170              		.size	TriggerRelay2, .-TriggerRelay2
 171              		.section	.text.SetBuffer,"ax",%progbits
 172              		.align	1
 173              		.global	SetBuffer
 174              		.thumb
 175              		.thumb_func
 176              		.type	SetBuffer, %function
 177              	SetBuffer:
 178              	.LFB66:
 100:.\main.c      **** 
 101:.\main.c      **** 
 102:.\main.c      **** /**************************************
 103:.\main.c      ****   Debug Method: To Set I2C data buffer
 104:.\main.c      **** ***************************************/
 105:.\main.c      **** void SetBuffer()
ARM GAS  C:\Users\Yiquing\AppData\Local\Temp\ccKBlbpG.s 			page 6


 106:.\main.c      **** {
 179              		.loc 1 106 0
 180              		.cfi_startproc
 181              		@ args = 0, pretend = 0, frame = 0
 182              		@ frame_needed = 0, uses_anonymous_args = 0
 183              		@ link register save eliminated.
 107:.\main.c      ****     MyI2C_Regs.buffer[0] = 0x02;
 184              		.loc 1 107 0
 185 0000 0A4B     		ldr	r3, .L7
 186 0002 0222     		movs	r2, #2
 187 0004 9A71     		strb	r2, [r3, #6]
 108:.\main.c      ****     MyI2C_Regs.buffer[1] = 0x32;
 109:.\main.c      ****     MyI2C_Regs.buffer[2] = 0x30;
 188              		.loc 1 109 0
 189 0006 3022     		movs	r2, #48
 190 0008 1A72     		strb	r2, [r3, #8]
 110:.\main.c      ****     MyI2C_Regs.buffer[3] = 0x42;
 191              		.loc 1 110 0
 192 000a 4222     		movs	r2, #66
 108:.\main.c      ****     MyI2C_Regs.buffer[1] = 0x32;
 193              		.loc 1 108 0
 194 000c 3220     		movs	r0, #50
 195              		.loc 1 110 0
 196 000e 5A72     		strb	r2, [r3, #9]
 111:.\main.c      ****     MyI2C_Regs.buffer[4] = 0x35;
 112:.\main.c      ****     MyI2C_Regs.buffer[5] = 0x32;
 113:.\main.c      ****     MyI2C_Regs.buffer[6] = 0x36;
 114:.\main.c      ****     MyI2C_Regs.buffer[7] = 0x42;
 197              		.loc 1 114 0
 198 0010 5A73     		strb	r2, [r3, #13]
 115:.\main.c      ****     MyI2C_Regs.buffer[8] = 0x35;
 116:.\main.c      ****     MyI2C_Regs.buffer[9] = 0x42;
 199              		.loc 1 116 0
 200 0012 DA73     		strb	r2, [r3, #15]
 117:.\main.c      ****     MyI2C_Regs.buffer[10] = 0x31;
 201              		.loc 1 117 0
 202 0014 3122     		movs	r2, #49
 111:.\main.c      ****     MyI2C_Regs.buffer[4] = 0x35;
 203              		.loc 1 111 0
 204 0016 3521     		movs	r1, #53
 108:.\main.c      ****     MyI2C_Regs.buffer[1] = 0x32;
 205              		.loc 1 108 0
 206 0018 D871     		strb	r0, [r3, #7]
 112:.\main.c      ****     MyI2C_Regs.buffer[5] = 0x32;
 207              		.loc 1 112 0
 208 001a D872     		strb	r0, [r3, #11]
 209              		.loc 1 117 0
 210 001c 1A74     		strb	r2, [r3, #16]
 113:.\main.c      ****     MyI2C_Regs.buffer[6] = 0x36;
 211              		.loc 1 113 0
 212 001e 3620     		movs	r0, #54
 118:.\main.c      ****     MyI2C_Regs.buffer[11] = 0x77;
 213              		.loc 1 118 0
 214 0020 7722     		movs	r2, #119
 111:.\main.c      ****     MyI2C_Regs.buffer[4] = 0x35;
 215              		.loc 1 111 0
 216 0022 9972     		strb	r1, [r3, #10]
ARM GAS  C:\Users\Yiquing\AppData\Local\Temp\ccKBlbpG.s 			page 7


 113:.\main.c      ****     MyI2C_Regs.buffer[6] = 0x36;
 217              		.loc 1 113 0
 218 0024 1873     		strb	r0, [r3, #12]
 115:.\main.c      ****     MyI2C_Regs.buffer[8] = 0x35;
 219              		.loc 1 115 0
 220 0026 9973     		strb	r1, [r3, #14]
 221              		.loc 1 118 0
 222 0028 5A74     		strb	r2, [r3, #17]
 223 002a 7047     		bx	lr
 224              	.L8:
 225              		.align	2
 226              	.L7:
 227 002c 00000000 		.word	MyI2C_Regs
 228              		.cfi_endproc
 229              	.LFE66:
 230              		.size	SetBuffer, .-SetBuffer
 231              		.section	.text.ClearBuffer,"ax",%progbits
 232              		.align	1
 233              		.global	ClearBuffer
 234              		.thumb
 235              		.thumb_func
 236              		.type	ClearBuffer, %function
 237              	ClearBuffer:
 238              	.LFB67:
 119:.\main.c      **** 
 120:.\main.c      **** }
 121:.\main.c      **** 
 122:.\main.c      **** void ClearBuffer()
 123:.\main.c      **** {
 239              		.loc 1 123 0
 240              		.cfi_startproc
 241              		@ args = 0, pretend = 0, frame = 0
 242              		@ frame_needed = 0, uses_anonymous_args = 0
 243              		@ link register save eliminated.
 244              	.LVL21:
 124:.\main.c      ****     int i;
 125:.\main.c      ****     for(i=0; i < 20; i++)
 245              		.loc 1 125 0
 246 0000 0023     		movs	r3, #0
 247              	.LVL22:
 248              	.L11:
 249 0002 044A     		ldr	r2, .L14
 126:.\main.c      ****       MyI2C_Regs.buffer[i] = 0;
 250              		.loc 1 126 0 discriminator 2
 251 0004 0021     		movs	r1, #0
 252 0006 1A44     		add	r2, r2, r3
 125:.\main.c      ****     for(i=0; i < 20; i++)
 253              		.loc 1 125 0 discriminator 2
 254 0008 0133     		adds	r3, r3, #1
 255              	.LVL23:
 256 000a 142B     		cmp	r3, #20
 257              		.loc 1 126 0 discriminator 2
 258 000c 9171     		strb	r1, [r2, #6]
 125:.\main.c      ****     for(i=0; i < 20; i++)
 259              		.loc 1 125 0 discriminator 2
 260 000e F8D1     		bne	.L11
 127:.\main.c      **** }
ARM GAS  C:\Users\Yiquing\AppData\Local\Temp\ccKBlbpG.s 			page 8


 261              		.loc 1 127 0
 262 0010 7047     		bx	lr
 263              	.L15:
 264 0012 00BF     		.align	2
 265              	.L14:
 266 0014 00000000 		.word	MyI2C_Regs
 267              		.cfi_endproc
 268              	.LFE67:
 269              		.size	ClearBuffer, .-ClearBuffer
 270              		.section	.text.SendHID_SP533,"ax",%progbits
 271              		.align	1
 272              		.global	SendHID_SP533
 273              		.thumb
 274              		.thumb_func
 275              		.type	SendHID_SP533, %function
 276              	SendHID_SP533:
 277              	.LFB68:
 128:.\main.c      **** 
 129:.\main.c      **** /***********************************************
 130:.\main.c      ****             Weigand -HID Protocol
 131:.\main.c      ****   Procedure to send weigand data in serial format
 132:.\main.c      ****   Baud Rate: 57600 Databits: 8 
 133:.\main.c      ****   Stop Bits: 2 Parity: Even 
 134:.\main.c      ****   Bits to transmit : 18 bytes
 135:.\main.c      ****   Zero paddings to the left before the weigand data 
 136:.\main.c      **** 
 137:.\main.c      **** ************************************************/
 138:.\main.c      **** 
 139:.\main.c      **** void SendHID_SP533()
 140:.\main.c      **** {
 278              		.loc 1 140 0
 279              		.cfi_startproc
 280              		@ args = 0, pretend = 0, frame = 0
 281              		@ frame_needed = 0, uses_anonymous_args = 0
 282 0000 08B5     		push	{r3, lr}
 283              		.cfi_def_cfa_offset 8
 284              		.cfi_offset 3, -8
 285              		.cfi_offset 14, -4
 141:.\main.c      ****     
 142:.\main.c      ****     Clock_5_SetDividerValue(625); //set the baud rate to default 9600
 286              		.loc 1 142 0
 287 0002 0121     		movs	r1, #1
 288 0004 4FF41C70 		mov	r0, #624
 289 0008 FFF7FEFF 		bl	Clock_5_SetDividerRegister
 290              	.LVL24:
 143:.\main.c      ****     UART_ACS_Init();
 291              		.loc 1 143 0
 292 000c FFF7FEFF 		bl	UART_ACS_Init
 293              	.LVL25:
 144:.\main.c      ****     CyDelay(20);
 294              		.loc 1 144 0
 295 0010 1420     		movs	r0, #20
 296 0012 FFF7FEFF 		bl	CyDelay
 297              	.LVL26:
 145:.\main.c      ****     Mode_Sel_ACS_Write(0); //set io chip to RS232
 298              		.loc 1 145 0
 299 0016 0020     		movs	r0, #0
ARM GAS  C:\Users\Yiquing\AppData\Local\Temp\ccKBlbpG.s 			page 9


 300 0018 FFF7FEFF 		bl	Mode_Sel_ACS_Write
 301              	.LVL27:
 146:.\main.c      ****     TX_EN_Write(1);
 302              		.loc 1 146 0
 303 001c 0120     		movs	r0, #1
 304 001e FFF7FEFF 		bl	TX_EN_Write
 305              	.LVL28:
 147:.\main.c      ****     UART_ACS_LoadTxConfig();
 306              		.loc 1 147 0
 307 0022 FFF7FEFF 		bl	UART_ACS_LoadTxConfig
 308              	.LVL29:
 148:.\main.c      ****     CyDelay(1); //Driver Output Enable Time, do not reduce. 
 309              		.loc 1 148 0
 310 0026 0120     		movs	r0, #1
 311 0028 FFF7FEFF 		bl	CyDelay
 312              	.LVL30:
 149:.\main.c      ****     UART_ACS_PutArray(MyI2C_Regs.buffer,MyI2C_Regs.data_length/8); 
 313              		.loc 1 149 0
 314 002c 0748     		ldr	r0, .L17
 315 002e 10F8031C 		ldrb	r1, [r0, #-3]	@ zero_extendqisi2
 316 0032 C908     		lsrs	r1, r1, #3
 317 0034 FFF7FEFF 		bl	UART_ACS_PutArray
 318              	.LVL31:
 150:.\main.c      ****     CyDelay(5); //minmum 4m
 319              		.loc 1 150 0
 320 0038 0520     		movs	r0, #5
 321 003a FFF7FEFF 		bl	CyDelay
 322              	.LVL32:
 151:.\main.c      ****     UART_ACS_LoadRxConfig();
 323              		.loc 1 151 0
 324 003e FFF7FEFF 		bl	UART_ACS_LoadRxConfig
 325              	.LVL33:
 152:.\main.c      ****     TX_EN_Write(0);
 153:.\main.c      **** 
 154:.\main.c      **** }
 326              		.loc 1 154 0
 327 0042 BDE80840 		pop	{r3, lr}
 152:.\main.c      ****     TX_EN_Write(0);
 328              		.loc 1 152 0
 329 0046 0020     		movs	r0, #0
 330 0048 FFF7FEBF 		b	TX_EN_Write
 331              	.LVL34:
 332              	.L18:
 333              		.align	2
 334              	.L17:
 335 004c 06000000 		.word	MyI2C_Regs+6
 336              		.cfi_endproc
 337              	.LFE68:
 338              		.size	SendHID_SP533, .-SendHID_SP533
 339              		.section	.text.SendHID,"ax",%progbits
 340              		.align	1
 341              		.global	SendHID
 342              		.thumb
 343              		.thumb_func
 344              		.type	SendHID, %function
 345              	SendHID:
 346              	.LFB69:
ARM GAS  C:\Users\Yiquing\AppData\Local\Temp\ccKBlbpG.s 			page 10


 155:.\main.c      **** 
 156:.\main.c      **** 
 157:.\main.c      **** void SendHID()
 158:.\main.c      **** {
 347              		.loc 1 158 0
 348              		.cfi_startproc
 349              		@ args = 0, pretend = 0, frame = 0
 350              		@ frame_needed = 0, uses_anonymous_args = 0
 351 0000 38B5     		push	{r3, r4, r5, lr}
 352              		.cfi_def_cfa_offset 16
 353              		.cfi_offset 3, -16
 354              		.cfi_offset 4, -12
 355              		.cfi_offset 5, -8
 356              		.cfi_offset 14, -4
 159:.\main.c      ****     Tamper_Timer_Stop();
 357              		.loc 1 159 0
 358 0002 FFF7FEFF 		bl	Tamper_Timer_Stop
 359              	.LVL35:
 160:.\main.c      ****     
 161:.\main.c      ****     char serialOut[20];
 162:.\main.c      **** 	char tmp;
 163:.\main.c      **** 	int i,j;
 164:.\main.c      **** 	int padBytes;
 165:.\main.c      ****     int xbytes;
 166:.\main.c      ****     int ybits;
 167:.\main.c      ****     MyI2C_Regs.data_length = 26;
 360              		.loc 1 167 0
 361 0006 124B     		ldr	r3, .L24
 362 0008 1A22     		movs	r2, #26
 363 000a DA70     		strb	r2, [r3, #3]
 364              	.LVL36:
 365 000c 0E24     		movs	r4, #14
 366 000e 1D46     		mov	r5, r3
 367              	.LVL37:
 368              	.L21:
 168:.\main.c      ****     xbytes =  MyI2C_Regs.data_length / 8;
 169:.\main.c      ****     ybits =   MyI2C_Regs.data_length - (xbytes*8);
 170:.\main.c      ****     padBytes = 18  -  xbytes;
 171:.\main.c      ****     
 172:.\main.c      ****     if(ybits  >  0)
 173:.\main.c      **** 	   padBytes = padBytes - 1;
 174:.\main.c      ****     
 175:.\main.c      ****     for (i = 0;i < padBytes;i++)
 176:.\main.c      ****     {
 177:.\main.c      ****        serialOut[i] = 0x00;
 178:.\main.c      ****        SU_PutChar(&s,serialOut[i]);
 369              		.loc 1 178 0 discriminator 2
 370 0010 1048     		ldr	r0, .L24+4
 371 0012 0021     		movs	r1, #0
 372 0014 FFF7FEFF 		bl	SU_PutChar
 373              	.LVL38:
 175:.\main.c      ****     for (i = 0;i < padBytes;i++)
 374              		.loc 1 175 0 discriminator 2
 375 0018 013C     		subs	r4, r4, #1
 376              	.LVL39:
 377 001a F9D1     		bne	.L21
 378              	.LVL40:
ARM GAS  C:\Users\Yiquing\AppData\Local\Temp\ccKBlbpG.s 			page 11


 179:.\main.c      ****       
 180:.\main.c      ****     }
 181:.\main.c      **** 	
 182:.\main.c      ****     serialOut[14] = 0x01 << ybits;
 183:.\main.c      **** 	tmp = MyI2C_Regs.buffer[0] & (0xFF << (8-ybits));		
 379              		.loc 1 183 0
 380 001c A979     		ldrb	r1, [r5, #6]	@ zero_extendqisi2
 184:.\main.c      ****     tmp = tmp >> (8-ybits);
 185:.\main.c      **** 	serialOut[i] |= tmp; 
 186:.\main.c      **** 	SU_PutChar(&s,serialOut[i]);
 381              		.loc 1 186 0
 382 001e 0D48     		ldr	r0, .L24+4
 184:.\main.c      ****     tmp = tmp >> (8-ybits);
 383              		.loc 1 184 0
 384 0020 8909     		lsrs	r1, r1, #6
 385              	.LVL41:
 386              		.loc 1 186 0
 387 0022 41F00401 		orr	r1, r1, #4
 388              	.LVL42:
 389 0026 FFF7FEFF 		bl	SU_PutChar
 390              	.LVL43:
 391 002a 0B4C     		ldr	r4, .L24+8
 392 002c E51C     		adds	r5, r4, #3
 393              	.LVL44:
 394              	.L23:
 395 002e 0134     		adds	r4, r4, #1
 396              	.LVL45:
 187:.\main.c      **** 	i++;
 188:.\main.c      **** 		
 189:.\main.c      **** 	for (j = 1; j< (18- padBytes); j++)
 190:.\main.c      **** 	{
 191:.\main.c      **** 		serialOut[i] = (MyI2C_Regs.buffer[j-1] << ybits );// & (0xFF << ybits);
 397              		.loc 1 191 0 discriminator 2
 398 0030 A179     		ldrb	r1, [r4, #6]	@ zero_extendqisi2
 192:.\main.c      **** 		tmp = (MyI2C_Regs.buffer[j] >> (8-ybits));// & (0xFF >> (8-ybits));
 399              		.loc 1 192 0 discriminator 2
 400 0032 E379     		ldrb	r3, [r4, #7]	@ zero_extendqisi2
 191:.\main.c      **** 		serialOut[i] = (MyI2C_Regs.buffer[j-1] << ybits );// & (0xFF << ybits);
 401              		.loc 1 191 0 discriminator 2
 402 0034 8900     		lsls	r1, r1, #2
 193:.\main.c      **** 		serialOut[i] |= tmp;
 403              		.loc 1 193 0 discriminator 2
 404 0036 41EA9311 		orr	r1, r1, r3, lsr #6
 194:.\main.c      **** 		SU_PutChar(&s,serialOut[i]);
 405              		.loc 1 194 0 discriminator 2
 406 003a 0648     		ldr	r0, .L24+4
 407 003c C9B2     		uxtb	r1, r1
 408 003e FFF7FEFF 		bl	SU_PutChar
 409              	.LVL46:
 189:.\main.c      **** 	for (j = 1; j< (18- padBytes); j++)
 410              		.loc 1 189 0 discriminator 2
 411 0042 AC42     		cmp	r4, r5
 412 0044 F3D1     		bne	.L23
 195:.\main.c      **** 		i++;
 196:.\main.c      **** 	}
 197:.\main.c      ****     
 198:.\main.c      ****     Tamper_Timer_Start();    
ARM GAS  C:\Users\Yiquing\AppData\Local\Temp\ccKBlbpG.s 			page 12


 199:.\main.c      ****     serialOut[i] = 0x00;
 200:.\main.c      **** }
 413              		.loc 1 200 0
 414 0046 BDE83840 		pop	{r3, r4, r5, lr}
 415              	.LVL47:
 198:.\main.c      ****     Tamper_Timer_Start();    
 416              		.loc 1 198 0
 417 004a FFF7FEBF 		b	Tamper_Timer_Start
 418              	.LVL48:
 419              	.L25:
 420 004e 00BF     		.align	2
 421              	.L24:
 422 0050 00000000 		.word	MyI2C_Regs
 423 0054 00000000 		.word	s
 424 0058 FFFFFFFF 		.word	MyI2C_Regs-1
 425              		.cfi_endproc
 426              	.LFE69:
 427              		.size	SendHID, .-SendHID
 428              		.section	.text.InitOSDP,"ax",%progbits
 429              		.align	1
 430              		.global	InitOSDP
 431              		.thumb
 432              		.thumb_func
 433              		.type	InitOSDP, %function
 434              	InitOSDP:
 435              	.LFB70:
 201:.\main.c      **** 
 202:.\main.c      **** 
 203:.\main.c      **** void InitOSDP(){
 436              		.loc 1 203 0
 437              		.cfi_startproc
 438              		@ args = 0, pretend = 0, frame = 0
 439              		@ frame_needed = 0, uses_anonymous_args = 0
 440 0000 08B5     		push	{r3, lr}
 441              		.cfi_def_cfa_offset 8
 442              		.cfi_offset 3, -8
 443              		.cfi_offset 14, -4
 204:.\main.c      ****     
 205:.\main.c      ****     //initialize the OSDP
 206:.\main.c      ****     Clock_5_Enable();
 444              		.loc 1 206 0
 445 0002 FFF7FEFF 		bl	Clock_5_Start
 446              	.LVL49:
 207:.\main.c      ****     Clock_5_SetDividerValue(625); //set the baud rate to default 9600
 447              		.loc 1 207 0
 448 0006 4FF41C70 		mov	r0, #624
 449 000a 0121     		movs	r1, #1
 450 000c FFF7FEFF 		bl	Clock_5_SetDividerRegister
 451              	.LVL50:
 208:.\main.c      ****     UART_ACS_Start();
 452              		.loc 1 208 0
 453 0010 FFF7FEFF 		bl	UART_ACS_Start
 454              	.LVL51:
 209:.\main.c      ****     ClearOsdpBuffer();
 455              		.loc 1 209 0
 456 0014 FFF7FEFF 		bl	ClearOsdpBuffer
 457              	.LVL52:
ARM GAS  C:\Users\Yiquing\AppData\Local\Temp\ccKBlbpG.s 			page 13


 210:.\main.c      **** //    Clock_5_SetDividerValue(625); //  48000000/625=9600
 211:.\main.c      ****     
 212:.\main.c      ****     Clock_6_Enable();
 458              		.loc 1 212 0
 459 0018 FFF7FEFF 		bl	Clock_6_Start
 460              	.LVL53:
 213:.\main.c      ****     Clock_6_SetDividerValue(625); //set the baud rate to default 9600
 461              		.loc 1 213 0
 462 001c 4FF41C70 		mov	r0, #624
 463 0020 0121     		movs	r1, #1
 464 0022 FFF7FEFF 		bl	Clock_6_SetDividerRegister
 465              	.LVL54:
 214:.\main.c      ****     UART_READER_Start();
 466              		.loc 1 214 0
 467 0026 FFF7FEFF 		bl	UART_READER_Start
 468              	.LVL55:
 215:.\main.c      ****     ClearOsdpReaderBuffer();
 469              		.loc 1 215 0
 470 002a FFF7FEFF 		bl	ClearOsdpReaderBuffer
 471              	.LVL56:
 216:.\main.c      ****     
 217:.\main.c      ****     isr_keepalive_StartEx(KeepAliveInterruptHandler);
 472              		.loc 1 217 0
 473 002e 0348     		ldr	r0, .L27
 474 0030 FFF7FEFF 		bl	isr_keepalive_StartEx
 475              	.LVL57:
 218:.\main.c      ****     OSDPReaderTimer_Start();
 219:.\main.c      ****     
 220:.\main.c      **** }
 476              		.loc 1 220 0
 477 0034 BDE80840 		pop	{r3, lr}
 218:.\main.c      ****     OSDPReaderTimer_Start();
 478              		.loc 1 218 0
 479 0038 FFF7FEBF 		b	OSDPReaderTimer_Start
 480              	.LVL58:
 481              	.L28:
 482              		.align	2
 483              	.L27:
 484 003c 00000000 		.word	KeepAliveInterruptHandler
 485              		.cfi_endproc
 486              	.LFE70:
 487              		.size	InitOSDP, .-InitOSDP
 488              		.section	.text.displayError,"ax",%progbits
 489              		.align	1
 490              		.global	displayError
 491              		.thumb
 492              		.thumb_func
 493              		.type	displayError, %function
 494              	displayError:
 495              	.LFB71:
 221:.\main.c      **** 
 222:.\main.c      ****  /***********************************************
 223:.\main.c      ****      Debug Code : Software UART for PAC Protocol
 224:.\main.c      ****   ************************************************
 225:.\main.c      ****  void SendPACTest()
 226:.\main.c      **** {
 227:.\main.c      ****       int i,j;
ARM GAS  C:\Users\Yiquing\AppData\Local\Temp\ccKBlbpG.s 			page 14


 228:.\main.c      ****     LED_GRN_Write(0);
 229:.\main.c      ****     LED_YEL_Write(1);
 230:.\main.c      ****   
 231:.\main.c      ****     for( i = 0; i < 20; i++)
 232:.\main.c      ****     {
 233:.\main.c      ****         for( j= 0; j < 12 ; j++)
 234:.\main.c      ****         {
 235:.\main.c      ****             char c = MyI2C_Regs.buffer[j];
 236:.\main.c      ****          SU_PutChar(&s,c);
 237:.\main.c      ****         }
 238:.\main.c      ****       
 239:.\main.c      ****     }
 240:.\main.c      **** 
 241:.\main.c      ****     LED_GRN_Write(1);
 242:.\main.c      ****     LED_YEL_Write(1);
 243:.\main.c      **** }
 244:.\main.c      **** 
 245:.\main.c      **** ****************************************************/
 246:.\main.c      **** 
 247:.\main.c      **** void displayError(int n){
 496              		.loc 1 247 0
 497              		.cfi_startproc
 498              		@ args = 0, pretend = 0, frame = 0
 499              		@ frame_needed = 0, uses_anonymous_args = 0
 500              	.LVL59:
 501 0000 38B5     		push	{r3, r4, r5, lr}
 502              		.cfi_def_cfa_offset 16
 503              		.cfi_offset 3, -16
 504              		.cfi_offset 4, -12
 505              		.cfi_offset 5, -8
 506              		.cfi_offset 14, -4
 507              		.loc 1 247 0
 508 0002 0546     		mov	r5, r0
 248:.\main.c      **** int i;
 249:.\main.c      ****     for (i = 0; i< n; i++) 
 509              		.loc 1 249 0
 510 0004 0024     		movs	r4, #0
 511              	.LVL60:
 512              	.L30:
 513              		.loc 1 249 0 is_stmt 0 discriminator 1
 514 0006 AC42     		cmp	r4, r5
 515 0008 0FDA     		bge	.L32
 250:.\main.c      ****     {
 251:.\main.c      ****         LED_RED_Write(1); //display error
 516              		.loc 1 251 0 is_stmt 1 discriminator 2
 517 000a 0120     		movs	r0, #1
 518 000c FFF7FEFF 		bl	LED_RED_Write
 519              	.LVL61:
 252:.\main.c      ****         CyDelay(300);
 520              		.loc 1 252 0 discriminator 2
 521 0010 4FF49670 		mov	r0, #300
 522 0014 FFF7FEFF 		bl	CyDelay
 523              	.LVL62:
 253:.\main.c      ****         LED_RED_Write(0);
 524              		.loc 1 253 0 discriminator 2
 525 0018 0020     		movs	r0, #0
 526 001a FFF7FEFF 		bl	LED_RED_Write
ARM GAS  C:\Users\Yiquing\AppData\Local\Temp\ccKBlbpG.s 			page 15


 527              	.LVL63:
 254:.\main.c      ****         CyDelay(300);
 528              		.loc 1 254 0 discriminator 2
 529 001e 4FF49670 		mov	r0, #300
 530 0022 FFF7FEFF 		bl	CyDelay
 531              	.LVL64:
 249:.\main.c      ****     for (i = 0; i< n; i++) 
 532              		.loc 1 249 0 discriminator 2
 533 0026 0134     		adds	r4, r4, #1
 534              	.LVL65:
 535 0028 EDE7     		b	.L30
 536              	.L32:
 255:.\main.c      ****     } 
 256:.\main.c      **** }
 537              		.loc 1 256 0
 538 002a 38BD     		pop	{r3, r4, r5, pc}
 539              		.cfi_endproc
 540              	.LFE71:
 541              		.size	displayError, .-displayError
 542              		.section	.text.HandleCommand,"ax",%progbits
 543              		.align	1
 544              		.global	HandleCommand
 545              		.thumb
 546              		.thumb_func
 547              		.type	HandleCommand, %function
 548              	HandleCommand:
 549              	.LFB72:
 257:.\main.c      **** 
 258:.\main.c      **** 
 259:.\main.c      **** char osdp_mode;
 260:.\main.c      **** 
 261:.\main.c      **** /****************************************
 262:.\main.c      ****    Method to handle commands
 263:.\main.c      ****    coming from device
 264:.\main.c      **** 
 265:.\main.c      **** *****************************************/
 266:.\main.c      **** void HandleCommand()
 267:.\main.c      **** {
 550              		.loc 1 267 0
 551              		.cfi_startproc
 552              		@ args = 0, pretend = 0, frame = 0
 553              		@ frame_needed = 0, uses_anonymous_args = 0
 554              	.LVL66:
 555 0000 38B5     		push	{r3, r4, r5, lr}
 556              		.cfi_def_cfa_offset 16
 557              		.cfi_offset 3, -16
 558              		.cfi_offset 4, -12
 559              		.cfi_offset 5, -8
 560              		.cfi_offset 14, -4
 268:.\main.c      ****     char cmd;
 269:.\main.c      ****     cmd = MyI2C_Regs.cmd;
 561              		.loc 1 269 0
 562 0002 5B4C     		ldr	r4, .L64
 270:.\main.c      ****     
 271:.\main.c      **** 	switch (cmd)
 563              		.loc 1 271 0
 564 0004 A378     		ldrb	r3, [r4, #2]	@ zero_extendqisi2
ARM GAS  C:\Users\Yiquing\AppData\Local\Temp\ccKBlbpG.s 			page 16


 565 0006 1A2B     		cmp	r3, #26
 566 0008 00F2AD80 		bhi	.L34
 567 000c DFE803F0 		tbb	[pc, r3]
 568              	.L36:
 569 0010 0E       		.byte	(.L35-.L36)/2
 570 0011 18       		.byte	(.L37-.L36)/2
 571 0012 2C       		.byte	(.L38-.L36)/2
 572 0013 1C       		.byte	(.L39-.L36)/2
 573 0014 23       		.byte	(.L40-.L36)/2
 574 0015 84       		.byte	(.L41-.L36)/2
 575 0016 95       		.byte	(.L42-.L36)/2
 576 0017 AB       		.byte	(.L34-.L36)/2
 577 0018 AB       		.byte	(.L34-.L36)/2
 578 0019 AB       		.byte	(.L34-.L36)/2
 579 001a AB       		.byte	(.L34-.L36)/2
 580 001b AB       		.byte	(.L34-.L36)/2
 581 001c 7B       		.byte	(.L43-.L36)/2
 582 001d AB       		.byte	(.L34-.L36)/2
 583 001e AB       		.byte	(.L34-.L36)/2
 584 001f AB       		.byte	(.L34-.L36)/2
 585 0020 AB       		.byte	(.L34-.L36)/2
 586 0021 AB       		.byte	(.L34-.L36)/2
 587 0022 AB       		.byte	(.L34-.L36)/2
 588 0023 AB       		.byte	(.L34-.L36)/2
 589 0024 AB       		.byte	(.L34-.L36)/2
 590 0025 AB       		.byte	(.L34-.L36)/2
 591 0026 AB       		.byte	(.L34-.L36)/2
 592 0027 AB       		.byte	(.L34-.L36)/2
 593 0028 AB       		.byte	(.L34-.L36)/2
 594 0029 AB       		.byte	(.L34-.L36)/2
 595 002a 9E       		.byte	(.L44-.L36)/2
 596 002b 00       		.p2align 1
 597              	.L35:
 272:.\main.c      ****     {
 273:.\main.c      ****         case CMD_NONE:
 274:.\main.c      ****                 if (MyI2C_Regs.osdp_cmd != OSDP_NONE)
 598              		.loc 1 274 0
 599 002c 94F84930 		ldrb	r3, [r4, #73]	@ zero_extendqisi2
 600 0030 1BB1     		cbz	r3, .L45
 601              	.L47:
 275:.\main.c      ****                 {
 276:.\main.c      ****                     osdp_mode = 1;  //osdp single auth
 602              		.loc 1 276 0
 603 0032 504B     		ldr	r3, .L64+4
 604 0034 0122     		movs	r2, #1
 605 0036 1A70     		strb	r2, [r3]
 277:.\main.c      ****                     break;
 606              		.loc 1 277 0
 607 0038 38BD     		pop	{r3, r4, r5, pc}
 608              	.L45:
 278:.\main.c      ****                 }
 279:.\main.c      ****                 osdp_mode = 0;
 609              		.loc 1 279 0
 610 003a 4E4A     		ldr	r2, .L64+4
 611 003c 1370     		strb	r3, [r2]
 280:.\main.c      ****                 break;
 612              		.loc 1 280 0
ARM GAS  C:\Users\Yiquing\AppData\Local\Temp\ccKBlbpG.s 			page 17


 613 003e 38BD     		pop	{r3, r4, r5, pc}
 614              	.L37:
 281:.\main.c      ****         case CMD_BOOTLOAD:
 282:.\main.c      ****                 BootloadableI2C_Load();  //yqh
 283:.\main.c      ****                 break;
 284:.\main.c      ****         
 285:.\main.c      ****         case CMD_TRIGGER_RELAY1:
 286:.\main.c      **** 		        TriggerRelay1(MyI2C_Regs.data_length*1000); //Trigger relay and wait for x secs
 287:.\main.c      ****                 MyI2C_Regs.cmd = 0;  
 288:.\main.c      **** 				break;
 289:.\main.c      ****                 
 290:.\main.c      ****         case CMD_TRIGGER_RELAY2:
 291:.\main.c      **** 		        TriggerRelay2(MyI2C_Regs.data_length*1000); //Trigger relay and wait for x secs
 292:.\main.c      ****                 MyI2C_Regs.cmd = 0;  
 293:.\main.c      **** 				break;
 294:.\main.c      ****                 
 295:.\main.c      ****         case CMD_READ_CARD:
 296:.\main.c      ****                 
 297:.\main.c      ****                 if (MyI2C_Regs.osdp_cmd != OSDP_NONE || MyI2C_Regs.osdp_reader_cmd != OSDP_NONE )
 298:.\main.c      ****                 {
 299:.\main.c      ****                     osdp_mode = 1;
 300:.\main.c      ****                     break; //goto process osdp dual auth message
 301:.\main.c      ****                 }
 302:.\main.c      ****                 osdp_mode = 0;
 303:.\main.c      ****                 
 304:.\main.c      ****                 if(MyI2C_Regs.data_length >= 26)//Read Weigand
 305:.\main.c      ****                 {
 306:.\main.c      ****                     activate_f2ftimer = 0;  //not f2f
 307:.\main.c      ****                     LED_GRN_Write(1);
 308:.\main.c      ****                     OptSelect_Write(1);
 309:.\main.c      ****                     ClearBuffer(); // added here - GRI 2/2/15
 310:.\main.c      ****                     while(ReadWeigand(MyI2C_Regs.data_length) == 0)
 311:.\main.c      ****                     {
 312:.\main.c      ****                         if(MyI2C_Regs.cmd !=CMD_READ_CARD ) 
 313:.\main.c      ****                             break;
 314:.\main.c      ****                     };
 315:.\main.c      ****                     
 316:.\main.c      ****                     LED_GRN_Write(0);
 317:.\main.c      ****                     
 318:.\main.c      ****                 }
 319:.\main.c      ****                 else if(MyI2C_Regs.data_length == 12)//Read PAC
 320:.\main.c      ****                 {
 321:.\main.c      ****                     LED_GRN_Write(1);
 322:.\main.c      ****                     ClearBuffer(); // added here - GRI 2/2/15
 323:.\main.c      ****                     SetupUART(PAC);
 324:.\main.c      ****                     while(ReadPAC()== 0)
 325:.\main.c      ****                     {
 326:.\main.c      ****                         if(MyI2C_Regs.cmd !=CMD_READ_CARD )
 327:.\main.c      ****                         break;
 328:.\main.c      ****                     }
 329:.\main.c      ****                     LED_GRN_Write(0);
 330:.\main.c      ****                     OptSelect_Write(1);
 331:.\main.c      **** 
 332:.\main.c      ****                 }
 333:.\main.c      ****                 else if(MyI2C_Regs.data_length == 5)//Read F2F
 334:.\main.c      ****                 {
 335:.\main.c      ****                     activate_f2ftimer = 1;
ARM GAS  C:\Users\Yiquing\AppData\Local\Temp\ccKBlbpG.s 			page 18


 336:.\main.c      ****                     LED_GRN_Write(1);
 337:.\main.c      ****                     OptSelect_Write(3);  //2=cut off UART1
 338:.\main.c      ****                     //ClearBuffer(); // added here - GRI 2/2/15
 339:.\main.c      ****                      while(ReadF2F() == 0)
 340:.\main.c      ****                     {
 341:.\main.c      ****                         if( MyI2C_Regs.cmd != CMD_READ_CARD ) 
 342:.\main.c      ****                             break;
 343:.\main.c      ****                     };
 344:.\main.c      ****                     LED_GRN_Write(0);
 345:.\main.c      ****                 }
 346:.\main.c      ****                 else //Error
 347:.\main.c      ****                 {
 348:.\main.c      ****                     displayError(100);
 349:.\main.c      ****                 }
 350:.\main.c      ****                 break;
 351:.\main.c      **** 	    
 352:.\main.c      ****         case CMD_SEND_PAC:
 353:.\main.c      ****                 LED_YEL_Write(1);
 354:.\main.c      ****                 SetupUART(PAC);
 355:.\main.c      ****                 SendPAC();
 356:.\main.c      ****                 MyI2C_Regs.cmd = 0;
 357:.\main.c      ****                 LED_YEL_Write(0);
 358:.\main.c      **** 				break;
 359:.\main.c      ****                 
 360:.\main.c      ****         case CMD_SEND_F2F:
 361:.\main.c      ****                 activate_f2ftimer = 1;  
 362:.\main.c      ****                 LED_YEL_Write(1);
 363:.\main.c      ****                 OptSelect_Write(1);
 364:.\main.c      **** 				SendF2F();
 365:.\main.c      ****                 MyI2C_Regs.cmd = 0;
 366:.\main.c      ****                 LED_YEL_Write(0);
 367:.\main.c      **** 			    break;        
 368:.\main.c      ****                 
 369:.\main.c      ****         case CMD_SEND_HID:
 370:.\main.c      ****                LED_YEL_Write(1);
 371:.\main.c      ****                OptSelect_Write(1);
 372:.\main.c      **** //               SendHID_SP533();
 373:.\main.c      ****                SendHID();
 374:.\main.c      ****                MyI2C_Regs.cmd = 0;
 375:.\main.c      ****                LED_YEL_Write(0);
 376:.\main.c      **** 			   break;
 377:.\main.c      ****             
 378:.\main.c      ****         case CMD_SEND_WEIGAND:
 379:.\main.c      ****                 LED_YEL_Write(0);
 380:.\main.c      ****                 OptSelect_Write(1);
 381:.\main.c      ****     			SendWeigand(MyI2C_Regs.data_length);
 382:.\main.c      ****                 MyI2C_Regs.cmd = 0;
 383:.\main.c      ****                 LED_YEL_Write(1);
 384:.\main.c      **** 				break;  
 385:.\main.c      ****         default:
 386:.\main.c      ****                 displayError(100);
 387:.\main.c      ****                 break;
 388:.\main.c      **** 	}     
 389:.\main.c      **** 	
 390:.\main.c      **** }
 615              		.loc 1 390 0
 616 0040 BDE83840 		pop	{r3, r4, r5, lr}
ARM GAS  C:\Users\Yiquing\AppData\Local\Temp\ccKBlbpG.s 			page 19


 282:.\main.c      ****                 BootloadableI2C_Load();  //yqh
 617              		.loc 1 282 0
 618 0044 FFF7FEBF 		b	BootloadableI2C_Load
 619              	.LVL67:
 620              	.L39:
 286:.\main.c      **** 		        TriggerRelay1(MyI2C_Regs.data_length*1000); //Trigger relay and wait for x secs
 621              		.loc 1 286 0
 622 0048 E378     		ldrb	r3, [r4, #3]	@ zero_extendqisi2
 623 004a 4FF47A70 		mov	r0, #1000
 624 004e 5843     		muls	r0, r3, r0
 625 0050 FFF7FEFF 		bl	TriggerRelay1
 626              	.LVL68:
 627 0054 05E0     		b	.L62
 628              	.LVL69:
 629              	.L40:
 291:.\main.c      **** 		        TriggerRelay2(MyI2C_Regs.data_length*1000); //Trigger relay and wait for x secs
 630              		.loc 1 291 0
 631 0056 E378     		ldrb	r3, [r4, #3]	@ zero_extendqisi2
 632 0058 4FF47A70 		mov	r0, #1000
 633 005c 5843     		muls	r0, r3, r0
 634 005e FFF7FEFF 		bl	TriggerRelay2
 635              	.LVL70:
 636              	.L62:
 292:.\main.c      ****                 MyI2C_Regs.cmd = 0;  
 637              		.loc 1 292 0
 638 0062 0023     		movs	r3, #0
 639 0064 A370     		strb	r3, [r4, #2]
 293:.\main.c      **** 				break;
 640              		.loc 1 293 0
 641 0066 38BD     		pop	{r3, r4, r5, pc}
 642              	.LVL71:
 643              	.L38:
 297:.\main.c      ****                 if (MyI2C_Regs.osdp_cmd != OSDP_NONE || MyI2C_Regs.osdp_reader_cmd != OSDP_NONE )
 644              		.loc 1 297 0
 645 0068 94F84930 		ldrb	r3, [r4, #73]	@ zero_extendqisi2
 646 006c 404A     		ldr	r2, .L64
 647 006e 002B     		cmp	r3, #0
 648 0070 DFD1     		bne	.L47
 297:.\main.c      ****                 if (MyI2C_Regs.osdp_cmd != OSDP_NONE || MyI2C_Regs.osdp_reader_cmd != OSDP_NONE )
 649              		.loc 1 297 0 is_stmt 0 discriminator 1
 650 0072 92F8CD30 		ldrb	r3, [r2, #205]	@ zero_extendqisi2
 651 0076 002B     		cmp	r3, #0
 652 0078 DBD1     		bne	.L47
 304:.\main.c      ****                 if(MyI2C_Regs.data_length >= 26)//Read Weigand
 653              		.loc 1 304 0 is_stmt 1
 654 007a D578     		ldrb	r5, [r2, #3]	@ zero_extendqisi2
 302:.\main.c      ****                 osdp_mode = 0;
 655              		.loc 1 302 0
 656 007c 3D49     		ldr	r1, .L64+4
 304:.\main.c      ****                 if(MyI2C_Regs.data_length >= 26)//Read Weigand
 657              		.loc 1 304 0
 658 007e 192D     		cmp	r5, #25
 302:.\main.c      ****                 osdp_mode = 0;
 659              		.loc 1 302 0
 660 0080 0B70     		strb	r3, [r1]
 304:.\main.c      ****                 if(MyI2C_Regs.data_length >= 26)//Read Weigand
 661              		.loc 1 304 0
ARM GAS  C:\Users\Yiquing\AppData\Local\Temp\ccKBlbpG.s 			page 20


 662 0082 16D9     		bls	.L48
 306:.\main.c      ****                     activate_f2ftimer = 0;  //not f2f
 663              		.loc 1 306 0
 664 0084 3C4A     		ldr	r2, .L64+8
 307:.\main.c      ****                     LED_GRN_Write(1);
 665              		.loc 1 307 0
 666 0086 0120     		movs	r0, #1
 306:.\main.c      ****                     activate_f2ftimer = 0;  //not f2f
 667              		.loc 1 306 0
 668 0088 1370     		strb	r3, [r2]
 307:.\main.c      ****                     LED_GRN_Write(1);
 669              		.loc 1 307 0
 670 008a FFF7FEFF 		bl	LED_GRN_Write
 671              	.LVL72:
 308:.\main.c      ****                     OptSelect_Write(1);
 672              		.loc 1 308 0
 673 008e 0120     		movs	r0, #1
 674 0090 FFF7FEFF 		bl	OptSelect_Write
 675              	.LVL73:
 309:.\main.c      ****                     ClearBuffer(); // added here - GRI 2/2/15
 676              		.loc 1 309 0
 677 0094 FFF7FEFF 		bl	ClearBuffer
 678              	.LVL74:
 679              	.L49:
 310:.\main.c      ****                     while(ReadWeigand(MyI2C_Regs.data_length) == 0)
 680              		.loc 1 310 0 discriminator 1
 681 0098 E078     		ldrb	r0, [r4, #3]	@ zero_extendqisi2
 682 009a FFF7FEFF 		bl	ReadWeigand
 683              	.LVL75:
 684 009e 18B9     		cbnz	r0, .L52
 312:.\main.c      ****                         if(MyI2C_Regs.cmd !=CMD_READ_CARD ) 
 685              		.loc 1 312 0
 686 00a0 334B     		ldr	r3, .L64
 687 00a2 9B78     		ldrb	r3, [r3, #2]	@ zero_extendqisi2
 688 00a4 022B     		cmp	r3, #2
 689 00a6 F7D0     		beq	.L49
 690              	.L52:
 316:.\main.c      ****                     LED_GRN_Write(0);
 691              		.loc 1 316 0
 692 00a8 0020     		movs	r0, #0
 693              		.loc 1 390 0
 694 00aa BDE83840 		pop	{r3, r4, r5, lr}
 316:.\main.c      ****                     LED_GRN_Write(0);
 695              		.loc 1 316 0
 696 00ae FFF7FEBF 		b	LED_GRN_Write
 697              	.LVL76:
 698              	.L48:
 319:.\main.c      ****                 else if(MyI2C_Regs.data_length == 12)//Read PAC
 699              		.loc 1 319 0
 700 00b2 0C2D     		cmp	r5, #12
 701 00b4 15D1     		bne	.L53
 321:.\main.c      ****                     LED_GRN_Write(1);
 702              		.loc 1 321 0
 703 00b6 0120     		movs	r0, #1
 704 00b8 FFF7FEFF 		bl	LED_GRN_Write
 705              	.LVL77:
 322:.\main.c      ****                     ClearBuffer(); // added here - GRI 2/2/15
ARM GAS  C:\Users\Yiquing\AppData\Local\Temp\ccKBlbpG.s 			page 21


 706              		.loc 1 322 0
 707 00bc FFF7FEFF 		bl	ClearBuffer
 708              	.LVL78:
 323:.\main.c      ****                     SetupUART(PAC);
 709              		.loc 1 323 0
 710 00c0 2846     		mov	r0, r5
 711 00c2 FFF7FEFF 		bl	SetupUART
 712              	.LVL79:
 713              	.L54:
 324:.\main.c      ****                     while(ReadPAC()== 0)
 714              		.loc 1 324 0 discriminator 1
 715 00c6 FFF7FEFF 		bl	ReadPAC
 716              	.LVL80:
 717 00ca 10B9     		cbnz	r0, .L55
 326:.\main.c      ****                         if(MyI2C_Regs.cmd !=CMD_READ_CARD )
 718              		.loc 1 326 0
 719 00cc A378     		ldrb	r3, [r4, #2]	@ zero_extendqisi2
 720 00ce 022B     		cmp	r3, #2
 721 00d0 F9D0     		beq	.L54
 722              	.L55:
 329:.\main.c      ****                     LED_GRN_Write(0);
 723              		.loc 1 329 0
 724 00d2 0020     		movs	r0, #0
 725 00d4 FFF7FEFF 		bl	LED_GRN_Write
 726              	.LVL81:
 727              		.loc 1 390 0
 728 00d8 BDE83840 		pop	{r3, r4, r5, lr}
 330:.\main.c      ****                     OptSelect_Write(1);
 729              		.loc 1 330 0
 730 00dc 0120     		movs	r0, #1
 731 00de FFF7FEBF 		b	OptSelect_Write
 732              	.LVL82:
 733              	.L53:
 333:.\main.c      ****                 else if(MyI2C_Regs.data_length == 5)//Read F2F
 734              		.loc 1 333 0
 735 00e2 052D     		cmp	r5, #5
 736 00e4 3FD1     		bne	.L34
 335:.\main.c      ****                     activate_f2ftimer = 1;
 737              		.loc 1 335 0
 738 00e6 244B     		ldr	r3, .L64+8
 739 00e8 0120     		movs	r0, #1
 740 00ea 1870     		strb	r0, [r3]
 336:.\main.c      ****                     LED_GRN_Write(1);
 741              		.loc 1 336 0
 742 00ec FFF7FEFF 		bl	LED_GRN_Write
 743              	.LVL83:
 337:.\main.c      ****                     OptSelect_Write(3);  //2=cut off UART1
 744              		.loc 1 337 0
 745 00f0 0320     		movs	r0, #3
 746 00f2 FFF7FEFF 		bl	OptSelect_Write
 747              	.LVL84:
 748              	.L58:
 339:.\main.c      ****                      while(ReadF2F() == 0)
 749              		.loc 1 339 0 discriminator 1
 750 00f6 FFF7FEFF 		bl	ReadF2F
 751              	.LVL85:
 752 00fa 0028     		cmp	r0, #0
ARM GAS  C:\Users\Yiquing\AppData\Local\Temp\ccKBlbpG.s 			page 22


 753 00fc D4D1     		bne	.L52
 341:.\main.c      ****                         if( MyI2C_Regs.cmd != CMD_READ_CARD ) 
 754              		.loc 1 341 0
 755 00fe A378     		ldrb	r3, [r4, #2]	@ zero_extendqisi2
 756 0100 022B     		cmp	r3, #2
 757 0102 F8D0     		beq	.L58
 758 0104 D0E7     		b	.L52
 759              	.LVL86:
 760              	.L43:
 353:.\main.c      ****                 LED_YEL_Write(1);
 761              		.loc 1 353 0
 762 0106 0120     		movs	r0, #1
 763 0108 FFF7FEFF 		bl	LED_YEL_Write
 764              	.LVL87:
 354:.\main.c      ****                 SetupUART(PAC);
 765              		.loc 1 354 0
 766 010c 0C20     		movs	r0, #12
 767 010e FFF7FEFF 		bl	SetupUART
 768              	.LVL88:
 355:.\main.c      ****                 SendPAC();
 769              		.loc 1 355 0
 770 0112 FFF7FEFF 		bl	SendPAC
 771              	.LVL89:
 772 0116 0AE0     		b	.L61
 773              	.LVL90:
 774              	.L41:
 361:.\main.c      ****                 activate_f2ftimer = 1;  
 775              		.loc 1 361 0
 776 0118 0125     		movs	r5, #1
 777 011a 174B     		ldr	r3, .L64+8
 362:.\main.c      ****                 LED_YEL_Write(1);
 778              		.loc 1 362 0
 779 011c 2846     		mov	r0, r5
 361:.\main.c      ****                 activate_f2ftimer = 1;  
 780              		.loc 1 361 0
 781 011e 1D70     		strb	r5, [r3]
 362:.\main.c      ****                 LED_YEL_Write(1);
 782              		.loc 1 362 0
 783 0120 FFF7FEFF 		bl	LED_YEL_Write
 784              	.LVL91:
 363:.\main.c      ****                 OptSelect_Write(1);
 785              		.loc 1 363 0
 786 0124 2846     		mov	r0, r5
 787 0126 FFF7FEFF 		bl	OptSelect_Write
 788              	.LVL92:
 364:.\main.c      **** 				SendF2F();
 789              		.loc 1 364 0
 790 012a FFF7FEFF 		bl	SendF2F
 791              	.LVL93:
 792              	.L61:
 365:.\main.c      ****                 MyI2C_Regs.cmd = 0;
 793              		.loc 1 365 0
 794 012e 0020     		movs	r0, #0
 795 0130 A070     		strb	r0, [r4, #2]
 796              	.L63:
 797              		.loc 1 390 0
 798 0132 BDE83840 		pop	{r3, r4, r5, lr}
ARM GAS  C:\Users\Yiquing\AppData\Local\Temp\ccKBlbpG.s 			page 23


 366:.\main.c      ****                 LED_YEL_Write(0);
 799              		.loc 1 366 0
 800 0136 FFF7FEBF 		b	LED_YEL_Write
 801              	.LVL94:
 802              	.L42:
 370:.\main.c      ****                LED_YEL_Write(1);
 803              		.loc 1 370 0
 804 013a 0120     		movs	r0, #1
 805 013c FFF7FEFF 		bl	LED_YEL_Write
 806              	.LVL95:
 371:.\main.c      ****                OptSelect_Write(1);
 807              		.loc 1 371 0
 808 0140 0120     		movs	r0, #1
 809 0142 FFF7FEFF 		bl	OptSelect_Write
 810              	.LVL96:
 373:.\main.c      ****                SendHID();
 811              		.loc 1 373 0
 812 0146 FFF7FEFF 		bl	SendHID
 813              	.LVL97:
 814 014a F0E7     		b	.L61
 815              	.LVL98:
 816              	.L44:
 379:.\main.c      ****                 LED_YEL_Write(0);
 817              		.loc 1 379 0
 818 014c 0020     		movs	r0, #0
 819 014e FFF7FEFF 		bl	LED_YEL_Write
 820              	.LVL99:
 380:.\main.c      ****                 OptSelect_Write(1);
 821              		.loc 1 380 0
 822 0152 0120     		movs	r0, #1
 823 0154 FFF7FEFF 		bl	OptSelect_Write
 824              	.LVL100:
 381:.\main.c      ****     			SendWeigand(MyI2C_Regs.data_length);
 825              		.loc 1 381 0
 826 0158 E078     		ldrb	r0, [r4, #3]	@ zero_extendqisi2
 827 015a FFF7FEFF 		bl	SendWeigand
 828              	.LVL101:
 382:.\main.c      ****                 MyI2C_Regs.cmd = 0;
 829              		.loc 1 382 0
 830 015e 0023     		movs	r3, #0
 831 0160 A370     		strb	r3, [r4, #2]
 383:.\main.c      ****                 LED_YEL_Write(1);
 832              		.loc 1 383 0
 833 0162 0120     		movs	r0, #1
 834 0164 E5E7     		b	.L63
 835              	.LVL102:
 836              	.L34:
 386:.\main.c      ****                 displayError(100);
 837              		.loc 1 386 0
 838 0166 6420     		movs	r0, #100
 839              		.loc 1 390 0
 840 0168 BDE83840 		pop	{r3, r4, r5, lr}
 386:.\main.c      ****                 displayError(100);
 841              		.loc 1 386 0
 842 016c FFF7FEBF 		b	displayError
 843              	.LVL103:
 844              	.L65:
ARM GAS  C:\Users\Yiquing\AppData\Local\Temp\ccKBlbpG.s 			page 24


 845              		.align	2
 846              	.L64:
 847 0170 00000000 		.word	MyI2C_Regs
 848 0174 00000000 		.word	osdp_mode
 849 0178 00000000 		.word	activate_f2ftimer
 850              		.cfi_endproc
 851              	.LFE72:
 852              		.size	HandleCommand, .-HandleCommand
 853              		.section	.text.HandleOSDP,"ax",%progbits
 854              		.align	1
 855              		.global	HandleOSDP
 856              		.thumb
 857              		.thumb_func
 858              		.type	HandleOSDP, %function
 859              	HandleOSDP:
 860              	.LFB73:
 391:.\main.c      **** 
 392:.\main.c      **** extern ReaderBuf readerSendBuffer;
 393:.\main.c      **** extern PanelBuf panelSendBuf;
 394:.\main.c      **** 
 395:.\main.c      **** /****************************************
 396:.\main.c      ****    Method to handle OSDP commands
 397:.\main.c      ****    coming from device
 398:.\main.c      **** 
 399:.\main.c      **** *****************************************/
 400:.\main.c      **** void HandleOSDP()
 401:.\main.c      **** {
 861              		.loc 1 401 0
 862              		.cfi_startproc
 863              		@ args = 0, pretend = 0, frame = 0
 864              		@ frame_needed = 0, uses_anonymous_args = 0
 865 0000 10B5     		push	{r4, lr}
 866              		.cfi_def_cfa_offset 8
 867              		.cfi_offset 4, -8
 868              		.cfi_offset 14, -4
 402:.\main.c      **** //    int i; 
 403:.\main.c      ****  
 404:.\main.c      ****     //Now, Handle the Reader Messages
 405:.\main.c      ****     if (MyI2C_Regs.osdp_reader_cmd != 0){
 869              		.loc 1 405 0
 870 0002 244C     		ldr	r4, .L94
 871 0004 94F8CD30 		ldrb	r3, [r4, #205]	@ zero_extendqisi2
 872 0008 63B1     		cbz	r3, .L67
 406:.\main.c      ****     	switch (MyI2C_Regs.osdp_reader_cmd)
 873              		.loc 1 406 0
 874 000a 022B     		cmp	r3, #2
 875 000c 05D0     		beq	.L68
 876 000e 042B     		cmp	r3, #4
 877 0010 08D1     		bne	.L67
 407:.\main.c      ****         {
 408:.\main.c      ****             case OSDP_NONE:
 409:.\main.c      ****             case OSDP_BUSY:
 410:.\main.c      ****                 break;
 411:.\main.c      ****             case OSDP_SEND:
 412:.\main.c      ****                 SetOSDPKeepALive();
 413:.\main.c      **** //                ClearOsdpReaderBuffer();
 414:.\main.c      ****                 MyI2C_Regs.osdp_reader_cmd = OSDP_READ;
ARM GAS  C:\Users\Yiquing\AppData\Local\Temp\ccKBlbpG.s 			page 25


 415:.\main.c      ****               break;
 416:.\main.c      ****             case OSDP_READ:
 417:.\main.c      ****                 break;
 418:.\main.c      ****             case OSDP_RATE:
 419:.\main.c      ****                 SetOSDPReaderSpeed();
 878              		.loc 1 419 0
 879 0012 FFF7FEFF 		bl	SetOSDPReaderSpeed
 880              	.LVL104:
 420:.\main.c      **** //                SetOSDPKeepALive();  
 421:.\main.c      ****                 //Fang said that the message is already in the i2c register.
 422:.\main.c      ****                 MyI2C_Regs.osdp_reader_cmd = OSDP_SEND;
 881              		.loc 1 422 0
 882 0016 0223     		movs	r3, #2
 883 0018 02E0     		b	.L93
 884              	.L68:
 412:.\main.c      ****                 SetOSDPKeepALive();
 885              		.loc 1 412 0
 886 001a FFF7FEFF 		bl	SetOSDPKeepALive
 887              	.LVL105:
 414:.\main.c      ****                 MyI2C_Regs.osdp_reader_cmd = OSDP_READ;
 888              		.loc 1 414 0
 889 001e 0323     		movs	r3, #3
 890              	.L93:
 891              		.loc 1 422 0
 892 0020 84F8CD30 		strb	r3, [r4, #205]
 893              	.L67:
 423:.\main.c      ****                 break;
 424:.\main.c      ****             default:;
 425:.\main.c      ****         }
 426:.\main.c      ****     }
 427:.\main.c      ****     
 428:.\main.c      ****     // check to see if it need send the reader again
 429:.\main.c      ****     if((OSDPReaderTask >> OSDP_SEND_READER) & 0x01){
 894              		.loc 1 429 0
 895 0024 1C4B     		ldr	r3, .L94+4
 896 0026 1A78     		ldrb	r2, [r3]	@ zero_extendqisi2
 897 0028 5107     		lsls	r1, r2, #29
 898 002a 0ED5     		bpl	.L71
 430:.\main.c      ****         OSDPReaderTask &= ~(0x01 << OSDP_SEND_READER); //clear flag
 899              		.loc 1 430 0
 900 002c 22F00402 		bic	r2, r2, #4
 901 0030 1A70     		strb	r2, [r3]
 431:.\main.c      ****         if ( readerSendBuffer.len > 0){
 902              		.loc 1 431 0
 903 0032 1A4B     		ldr	r3, .L94+8
 904 0034 93F83030 		ldrb	r3, [r3, #48]	@ zero_extendqisi2
 905 0038 3BB1     		cbz	r3, .L71
 432:.\main.c      ****             LED_GRN_Write(0);
 906              		.loc 1 432 0
 907 003a 0020     		movs	r0, #0
 908 003c FFF7FEFF 		bl	LED_GRN_Write
 909              	.LVL106:
 433:.\main.c      ****             SendOSDPReader();
 910              		.loc 1 433 0
 911 0040 FFF7FEFF 		bl	SendOSDPReader
 912              	.LVL107:
 434:.\main.c      ****             LED_GRN_Write(1);
ARM GAS  C:\Users\Yiquing\AppData\Local\Temp\ccKBlbpG.s 			page 26


 913              		.loc 1 434 0
 914 0044 0120     		movs	r0, #1
 915 0046 FFF7FEFF 		bl	LED_GRN_Write
 916              	.LVL108:
 917              	.L71:
 435:.\main.c      ****         }
 436:.\main.c      ****     }
 437:.\main.c      ****     
 438:.\main.c      ****    
 439:.\main.c      ****     //Panel Messages
 440:.\main.c      ****     if (MyI2C_Regs.osdp_cmd){
 918              		.loc 1 440 0
 919 004a 94F84930 		ldrb	r3, [r4, #73]	@ zero_extendqisi2
 920 004e 43B1     		cbz	r3, .L73
 441:.\main.c      ****     	switch (MyI2C_Regs.osdp_cmd)
 921              		.loc 1 441 0
 922 0050 022B     		cmp	r3, #2
 923 0052 04D0     		beq	.L74
 924 0054 042B     		cmp	r3, #4
 925 0056 04D1     		bne	.L73
 442:.\main.c      ****         {
 443:.\main.c      ****             case OSDP_NONE:
 444:.\main.c      ****             case OSDP_BUSY:
 445:.\main.c      ****                  break;
 446:.\main.c      ****             case OSDP_SEND:
 447:.\main.c      ****                 copyI2CPanelBuf();  //fill up buffer for sending
 448:.\main.c      ****                  break;
 449:.\main.c      ****             case OSDP_READ:
 450:.\main.c      ****                  break;
 451:.\main.c      ****             case OSDP_RATE:
 452:.\main.c      ****                 SetOSDPRate();
 926              		.loc 1 452 0
 927 0058 FFF7FEFF 		bl	SetOSDPRate
 928              	.LVL109:
 453:.\main.c      ****                  break;
 929              		.loc 1 453 0
 930 005c 01E0     		b	.L73
 931              	.L74:
 447:.\main.c      ****                 copyI2CPanelBuf();  //fill up buffer for sending
 932              		.loc 1 447 0
 933 005e FFF7FEFF 		bl	copyI2CPanelBuf
 934              	.LVL110:
 935              	.L73:
 454:.\main.c      ****             default:;
 455:.\main.c      ****         }
 456:.\main.c      ****     }
 457:.\main.c      ****     
 458:.\main.c      ****     
 459:.\main.c      ****     // check if anything comes in
 460:.\main.c      ****     if ((MyI2C_Regs.osdp_status & OSDP_READER_DATA_IN_READY) == 0 
 936              		.loc 1 460 0
 937 0062 94F84A30 		ldrb	r3, [r4, #74]	@ zero_extendqisi2
 938 0066 9A06     		lsls	r2, r3, #26
 939 0068 06D4     		bmi	.L76
 461:.\main.c      ****         && MyI2C_Regs.osdp_reader_cmd != OSDP_SEND){
 940              		.loc 1 461 0
 941 006a 0A4B     		ldr	r3, .L94
ARM GAS  C:\Users\Yiquing\AppData\Local\Temp\ccKBlbpG.s 			page 27


 942 006c 93F8CD30 		ldrb	r3, [r3, #205]	@ zero_extendqisi2
 943 0070 022B     		cmp	r3, #2
 944 0072 01D0     		beq	.L76
 462:.\main.c      ****         ReadOSDPReader();
 945              		.loc 1 462 0
 946 0074 FFF7FEFF 		bl	ReadOSDPReader
 947              	.LVL111:
 948              	.L76:
 463:.\main.c      ****     }
 464:.\main.c      ****     if ((MyI2C_Regs.osdp_status & OSDP_DATA_IN_READY) == 0 
 949              		.loc 1 464 0
 950 0078 94F84A30 		ldrb	r3, [r4, #74]	@ zero_extendqisi2
 951 007c 9B07     		lsls	r3, r3, #30
 952 007e 08D4     		bmi	.L66
 465:.\main.c      ****         && MyI2C_Regs.osdp_cmd != OSDP_SEND){
 953              		.loc 1 465 0
 954 0080 044B     		ldr	r3, .L94
 955 0082 93F84930 		ldrb	r3, [r3, #73]	@ zero_extendqisi2
 956 0086 022B     		cmp	r3, #2
 957 0088 03D0     		beq	.L66
 466:.\main.c      ****         ReadOSDP();
 467:.\main.c      ****     }
 468:.\main.c      **** }
 958              		.loc 1 468 0
 959 008a BDE81040 		pop	{r4, lr}
 466:.\main.c      ****         ReadOSDP();
 960              		.loc 1 466 0
 961 008e FFF7FEBF 		b	ReadOSDP
 962              	.LVL112:
 963              	.L66:
 964 0092 10BD     		pop	{r4, pc}
 965              	.L95:
 966              		.align	2
 967              	.L94:
 968 0094 00000000 		.word	MyI2C_Regs
 969 0098 00000000 		.word	OSDPReaderTask
 970 009c 00000000 		.word	readerSendBuffer
 971              		.cfi_endproc
 972              	.LFE73:
 973              		.size	HandleOSDP, .-HandleOSDP
 974              		.section	.text.startup.main,"ax",%progbits
 975              		.align	1
 976              		.global	main
 977              		.thumb
 978              		.thumb_func
 979              		.type	main, %function
 980              	main:
 981              	.LFB74:
 469:.\main.c      **** 
 470:.\main.c      **** 
 471:.\main.c      **** int main()
 472:.\main.c      **** {
 982              		.loc 1 472 0
 983              		.cfi_startproc
 984              		@ args = 0, pretend = 0, frame = 0
 985              		@ frame_needed = 0, uses_anonymous_args = 0
 986 0000 F8B5     		push	{r3, r4, r5, r6, r7, lr}
ARM GAS  C:\Users\Yiquing\AppData\Local\Temp\ccKBlbpG.s 			page 28


 987              		.cfi_def_cfa_offset 24
 988              		.cfi_offset 3, -24
 989              		.cfi_offset 4, -20
 990              		.cfi_offset 5, -16
 991              		.cfi_offset 6, -12
 992              		.cfi_offset 7, -8
 993              		.cfi_offset 14, -4
 473:.\main.c      ****     /* Intializing the variables */
 474:.\main.c      ****     char cmd;
 475:.\main.c      ****     int wait_for_ack; // card read acknowledge
 476:.\main.c      ****     int ack_time_cnt; // counter for acknowledge timeout
 477:.\main.c      ****     
 478:.\main.c      ****     CyGlobalIntEnable;  /* Uncomment this line to enable global interrupts. */
 994              		.loc 1 478 0
 995              	@ 478 ".\main.c" 1
 996 0002 62B6     		CPSIE   i
 997              	@ 0 "" 2
 479:.\main.c      **** 
 480:.\main.c      **** //    /* Intializing the Timers and interrupts */
 481:.\main.c      ****     UART_TIMER_Start();
 998              		.loc 1 481 0
 999              		.thumb
 1000 0004 FFF7FEFF 		bl	UART_TIMER_Start
 1001              	.LVL113:
 482:.\main.c      **** 	UART_TIMER_ISR_StartEx(UART_TIMER_ISR_Interrupt);
 1002              		.loc 1 482 0
 1003 0008 3748     		ldr	r0, .L113
 1004 000a FFF7FEFF 		bl	UART_TIMER_ISR_StartEx
 1005              	.LVL114:
 483:.\main.c      ****     Tamper_Timer_Start();
 1006              		.loc 1 483 0
 1007 000e FFF7FEFF 		bl	Tamper_Timer_Start
 1008              	.LVL115:
 484:.\main.c      ****     Tamper_Timer_ISR_StartEx(Tamper_Timer_ISR_Interrupt);
 1009              		.loc 1 484 0
 1010 0012 3648     		ldr	r0, .L113+4
 1011 0014 FFF7FEFF 		bl	Tamper_Timer_ISR_StartEx
 1012              	.LVL116:
 485:.\main.c      ****     Timeout_Timer_Start();
 1013              		.loc 1 485 0
 1014 0018 FFF7FEFF 		bl	Timeout_Timer_Start
 1015              	.LVL117:
 486:.\main.c      ****     Timeout_Timer_Isr_StartEx(Timeout_Timer_Isr_Interrupt);
 1016              		.loc 1 486 0
 1017 001c 3448     		ldr	r0, .L113+8
 1018 001e FFF7FEFF 		bl	Timeout_Timer_Isr_StartEx
 1019              	.LVL118:
 487:.\main.c      **** 
 488:.\main.c      ****     /*F2F*/
 489:.\main.c      ****     f2f_pulsewidth = 0;
 1020              		.loc 1 489 0
 1021 0022 344B     		ldr	r3, .L113+12
 1022 0024 0024     		movs	r4, #0
 490:.\main.c      ****     isr_F2F_edge_StartEx(isr_F2F_edge_Interrupt);
 491:.\main.c      ****     MyI2C_Regs.cmd = CMD_READ_CARD; //debug
 1023              		.loc 1 491 0
 1024 0026 344D     		ldr	r5, .L113+16
ARM GAS  C:\Users\Yiquing\AppData\Local\Temp\ccKBlbpG.s 			page 29


 490:.\main.c      ****     isr_F2F_edge_StartEx(isr_F2F_edge_Interrupt);
 1025              		.loc 1 490 0
 1026 0028 3448     		ldr	r0, .L113+20
 1027              		.loc 1 491 0
 1028 002a 0226     		movs	r6, #2
 489:.\main.c      ****     f2f_pulsewidth = 0;
 1029              		.loc 1 489 0
 1030 002c 1C60     		str	r4, [r3]
 490:.\main.c      ****     isr_F2F_edge_StartEx(isr_F2F_edge_Interrupt);
 1031              		.loc 1 490 0
 1032 002e FFF7FEFF 		bl	isr_F2F_edge_StartEx
 1033              	.LVL119:
 492:.\main.c      ****     MyI2C_Regs.osdp_cmd = OSDP_NONE; //debug
 493:.\main.c      ****     MyI2C_Regs.data_length =5; //debug
 1034              		.loc 1 493 0
 1035 0032 0523     		movs	r3, #5
 1036 0034 EB70     		strb	r3, [r5, #3]
 491:.\main.c      ****     MyI2C_Regs.cmd = CMD_READ_CARD; //debug
 1037              		.loc 1 491 0
 1038 0036 AE70     		strb	r6, [r5, #2]
 492:.\main.c      ****     MyI2C_Regs.osdp_cmd = OSDP_NONE; //debug
 1039              		.loc 1 492 0
 1040 0038 85F84940 		strb	r4, [r5, #73]
 494:.\main.c      ****     
 495:.\main.c      **** 	/* Starting EZI2C */
 496:.\main.c      **** 	EZI2Cs_Start();
 1041              		.loc 1 496 0
 1042 003c FFF7FEFF 		bl	EZI2Cs_Start
 1043              	.LVL120:
 497:.\main.c      ****     EZI2Cs_SetBuffer1(sizeof(MyI2C_Regs), sizeof(MyI2C_Regs), (volatile uint8 *) &MyI2C_Regs );
 1044              		.loc 1 497 0
 1045 0040 4FF48070 		mov	r0, #256
 1046 0044 0146     		mov	r1, r0
 1047 0046 2A46     		mov	r2, r5
 1048 0048 FFF7FEFF 		bl	EZI2Cs_SetBuffer1
 1049              	.LVL121:
 498:.\main.c      ****     
 499:.\main.c      ****     /* Starting UART for PAC & HID */
 500:.\main.c      ****     UART_1_Start();
 1050              		.loc 1 500 0
 1051 004c FFF7FEFF 		bl	UART_1_Start
 1052              	.LVL122:
 501:.\main.c      ****     SU_Start(&s,1,PARITY_EVEN,1);
 1053              		.loc 1 501 0
 1054 0050 0121     		movs	r1, #1
 1055 0052 3246     		mov	r2, r6
 1056 0054 0B46     		mov	r3, r1
 1057 0056 2A48     		ldr	r0, .L113+24
 1058 0058 FFF7FEFF 		bl	SU_Start
 1059              	.LVL123:
 502:.\main.c      ****     
 503:.\main.c      ****     /* Turning off both LEDS */
 504:.\main.c      ****     LED_GRN_Write(1); // LED for signaling Output
 1060              		.loc 1 504 0
 1061 005c 0120     		movs	r0, #1
 1062 005e FFF7FEFF 		bl	LED_GRN_Write
 1063              	.LVL124:
ARM GAS  C:\Users\Yiquing\AppData\Local\Temp\ccKBlbpG.s 			page 30


 505:.\main.c      ****     LED_YEL_Write(1); // LED for signaling Input
 1064              		.loc 1 505 0
 1065 0062 0120     		movs	r0, #1
 1066 0064 FFF7FEFF 		bl	LED_YEL_Write
 1067              	.LVL125:
 506:.\main.c      **** //    LED_RED_Write(1); // turn off tamper LED
 507:.\main.c      ****     
 508:.\main.c      ****     /* Intializing the I2C Reg value */
 509:.\main.c      ****     MyI2C_Regs.factory_reset = 0;
 510:.\main.c      ****     SetHardwareVals(8);  // TAMPER_POL defaulted to 1 (normal config with active tamper = 0)
 1068              		.loc 1 510 0
 1069 0068 0820     		movs	r0, #8
 511:.\main.c      ****     
 512:.\main.c      ****     SetVersion();
 513:.\main.c      ****     
 514:.\main.c      ****     // initialize card reader tamper polarity bit:  1=normal
 515:.\main.c      ****     // This is only for TEST and must be set by webconfig/motherboard.
 516:.\main.c      ****     // TAMPERCR_POLARITY = 1;
 517:.\main.c      ****     activate_f2ftimer = 0;
 518:.\main.c      ****     card_ack = 0;
 1070              		.loc 1 518 0
 1071 006a 264E     		ldr	r6, .L113+28
 509:.\main.c      ****     MyI2C_Regs.factory_reset = 0;
 1072              		.loc 1 509 0
 1073 006c 85F84240 		strb	r4, [r5, #66]
 510:.\main.c      ****     SetHardwareVals(8);  // TAMPER_POL defaulted to 1 (normal config with active tamper = 0)
 1074              		.loc 1 510 0
 1075 0070 FFF7FEFF 		bl	SetHardwareVals
 1076              	.LVL126:
 512:.\main.c      ****     SetVersion();
 1077              		.loc 1 512 0
 1078 0074 FFF7FEFF 		bl	SetVersion
 1079              	.LVL127:
 517:.\main.c      ****     activate_f2ftimer = 0;
 1080              		.loc 1 517 0
 1081 0078 234B     		ldr	r3, .L113+32
 1082              		.loc 1 518 0
 1083 007a 3460     		str	r4, [r6]
 517:.\main.c      ****     activate_f2ftimer = 0;
 1084              		.loc 1 517 0
 1085 007c 1C70     		strb	r4, [r3]
 519:.\main.c      ****     
 520:.\main.c      ****     InitOSDP();
 1086              		.loc 1 520 0
 1087 007e FFF7FEFF 		bl	InitOSDP
 1088              	.LVL128:
 521:.\main.c      ****     
 522:.\main.c      ****     /* push button */
 523:.\main.c      ****     buttonPressed=0;
 1089              		.loc 1 523 0
 1090 0082 224B     		ldr	r3, .L113+36
 1091 0084 3746     		mov	r7, r6
 1092 0086 1C70     		strb	r4, [r3]
 524:.\main.c      ****     buttonReleased=0;
 1093              		.loc 1 524 0
 1094 0088 214B     		ldr	r3, .L113+40
 1095 008a 1C70     		strb	r4, [r3]
ARM GAS  C:\Users\Yiquing\AppData\Local\Temp\ccKBlbpG.s 			page 31


 525:.\main.c      ****     buttonDuration=0;
 1096              		.loc 1 525 0
 1097 008c 214B     		ldr	r3, .L113+44
 1098 008e 1C60     		str	r4, [r3]
 526:.\main.c      ****     isr_SW_Rst_Start(); 
 1099              		.loc 1 526 0
 1100 0090 FFF7FEFF 		bl	isr_SW_Rst_Start
 1101              	.LVL129:
 1102              	.L97:
 527:.\main.c      ****     
 528:.\main.c      **** 
 529:.\main.c      ****     while(1)
 530:.\main.c      ****     {
 531:.\main.c      ****     //Infinite While Loop for handling device req
 532:.\main.c      ****         wait_for_ack = 0;
 533:.\main.c      ****         ack_time_cnt = 0;
 534:.\main.c      ****         
 535:.\main.c      ****         
 536:.\main.c      ****         cmd = MyI2C_Regs.cmd;   // load command
 1103              		.loc 1 536 0
 1104 0094 AB78     		ldrb	r3, [r5, #2]	@ zero_extendqisi2
 1105              	.LVL130:
 537:.\main.c      ****         
 538:.\main.c      ****         if (cmd !=0)  // command exists if register not 0
 1106              		.loc 1 538 0
 1107 0096 2BB1     		cbz	r3, .L108
 539:.\main.c      ****         {
 540:.\main.c      ****   		    if (cmd == CMD_READ_CARD) {wait_for_ack = 1;}   // flag to trigger wait for ack from mother
 1108              		.loc 1 540 0
 1109 0098 9A1E     		subs	r2, r3, #2
 1110 009a 5442     		rsbs	r4, r2, #0
 1111 009c 5441     		adcs	r4, r4, r2
 1112              	.LVL131:
 541:.\main.c      ****             HandleCommand();
 1113              		.loc 1 541 0
 1114 009e FFF7FEFF 		bl	HandleCommand
 1115              	.LVL132:
 1116 00a2 00E0     		b	.L98
 1117              	.LVL133:
 1118              	.L108:
 532:.\main.c      ****         wait_for_ack = 0;
 1119              		.loc 1 532 0
 1120 00a4 1C46     		mov	r4, r3
 1121              	.LVL134:
 1122              	.L98:
 542:.\main.c      ****         }
 543:.\main.c      ****         
 544:.\main.c      ****         HandleOSDP();
 1123              		.loc 1 544 0
 1124 00a6 FFF7FEFF 		bl	HandleOSDP
 1125              	.LVL135:
 545:.\main.c      ****         
 546:.\main.c      ****         if ((wait_for_ack == 1) & (card_in_buf == 1))  // card read requires ack from motherboard
 1126              		.loc 1 546 0
 1127 00aa E307     		lsls	r3, r4, #31
 1128 00ac 12D5     		bpl	.L101
 1129 00ae 1A4E     		ldr	r6, .L113+48
ARM GAS  C:\Users\Yiquing\AppData\Local\Temp\ccKBlbpG.s 			page 32


 1130 00b0 3368     		ldr	r3, [r6]
 1131 00b2 012B     		cmp	r3, #1
 1132 00b4 0ED1     		bne	.L101
 1133 00b6 4FF4FA74 		mov	r4, #500
 1134              	.LVL136:
 1135              	.L103:
 547:.\main.c      ****         {
 548:.\main.c      ****             
 549:.\main.c      ****             while (card_ack == 0)   // waiting for card read acknowledge here
 1136              		.loc 1 549 0 discriminator 1
 1137 00ba 3B68     		ldr	r3, [r7]
 1138 00bc 43B9     		cbnz	r3, .L104
 550:.\main.c      ****             {
 551:.\main.c      ****                 CyDelay(10);    //10ms
 1139              		.loc 1 551 0
 1140 00be 0A20     		movs	r0, #10
 1141 00c0 FFF7FEFF 		bl	CyDelay
 1142              	.LVL137:
 552:.\main.c      ****                 ack_time_cnt++;  // increment time counter every 10ms while waiting for ack
 553:.\main.c      ****                 if (ack_time_cnt >= 500)    // if 5000 ms, re-notify and break.
 1143              		.loc 1 553 0
 1144 00c4 013C     		subs	r4, r4, #1
 1145              	.LVL138:
 1146 00c6 F8D1     		bne	.L103
 554:.\main.c      ****                 {
 555:.\main.c      ****                     
 556:.\main.c      ****                     MyI2C_Regs.status |= STAT_CHANGE | STAT_CARD_IN ;   // if timeout, set status b
 1147              		.loc 1 556 0
 1148 00c8 2B78     		ldrb	r3, [r5]	@ zero_extendqisi2
 1149 00ca 43F00303 		orr	r3, r3, #3
 1150 00ce 2B70     		strb	r3, [r5]
 1151              	.LVL139:
 1152              	.L104:
 557:.\main.c      ****                     wait_for_ack = 0;
 558:.\main.c      ****                     ack_time_cnt = 0;
 559:.\main.c      ****                     break;
 560:.\main.c      ****                 }
 561:.\main.c      ****             }
 562:.\main.c      ****             card_in_buf = 0;
 1153              		.loc 1 562 0
 1154 00d0 0023     		movs	r3, #0
 1155 00d2 3360     		str	r3, [r6]
 1156              	.LVL140:
 1157              	.L101:
 563:.\main.c      ****             wait_for_ack = 0;
 564:.\main.c      ****         } 
 565:.\main.c      **** 
 566:.\main.c      ****         if (osdp_mode) CyDelay(0);
 1158              		.loc 1 566 0
 1159 00d4 114B     		ldr	r3, .L113+52
 1160 00d6 1B78     		ldrb	r3, [r3]	@ zero_extendqisi2
 1161 00d8 0BB1     		cbz	r3, .L106
 1162              		.loc 1 566 0 is_stmt 0 discriminator 1
 1163 00da 0020     		movs	r0, #0
 1164 00dc 00E0     		b	.L112
 1165              	.L106:
 567:.\main.c      ****         else CyDelay(50);    //up to 50ms Sec delay for sending out signals. 
ARM GAS  C:\Users\Yiquing\AppData\Local\Temp\ccKBlbpG.s 			page 33


 1166              		.loc 1 567 0 is_stmt 1
 1167 00de 3220     		movs	r0, #50
 1168              	.L112:
 1169 00e0 FFF7FEFF 		bl	CyDelay
 1170              	.LVL141:
 1171 00e4 D6E7     		b	.L97
 1172              	.L114:
 1173 00e6 00BF     		.align	2
 1174              	.L113:
 1175 00e8 00000000 		.word	UART_TIMER_ISR_Interrupt
 1176 00ec 00000000 		.word	Tamper_Timer_ISR_Interrupt
 1177 00f0 00000000 		.word	Timeout_Timer_Isr_Interrupt
 1178 00f4 00000000 		.word	f2f_pulsewidth
 1179 00f8 00000000 		.word	MyI2C_Regs
 1180 00fc 00000000 		.word	isr_F2F_edge_Interrupt
 1181 0100 00000000 		.word	s
 1182 0104 00000000 		.word	card_ack
 1183 0108 00000000 		.word	activate_f2ftimer
 1184 010c 00000000 		.word	buttonPressed
 1185 0110 00000000 		.word	buttonReleased
 1186 0114 00000000 		.word	buttonDuration
 1187 0118 00000000 		.word	card_in_buf
 1188 011c 00000000 		.word	osdp_mode
 1189              		.cfi_endproc
 1190              	.LFE74:
 1191              		.size	main, .-main
 1192              		.comm	osdp_mode,1,1
 1193              		.comm	MyI2C_Regs,256,1
 1194              		.comm	card_in_buf,4,4
 1195              		.comm	card_ack,4,4
 1196              		.comm	TAMPERCR_POLARITY,4,4
 1197              		.comm	old,1,1
 1198              		.comm	currentAccessType,1,1
 1199              		.comm	s,40,4
 1200              		.text
 1201              	.Letext0:
 1202              		.file 2 "c:\\program files (x86)\\cypress\\psoc creator\\3.2\\psoc creator\\import\\gnu\\arm\\4.8.
 1203              		.file 3 "c:\\program files (x86)\\cypress\\psoc creator\\3.2\\psoc creator\\import\\gnu\\arm\\4.8.
 1204              		.file 4 "Generated_Source\\PSoC5/cytypes.h"
 1205              		.file 5 ".\\softuart.h"
 1206              		.file 6 ".\\system.h"
 1207              		.file 7 ".\\i2cuart.h"
 1208              		.file 8 "Generated_Source\\PSoC5/core_cm3.h"
 1209              		.file 9 "Generated_Source\\PSoC5/LED_GRN.h"
 1210              		.file 10 "Generated_Source\\PSoC5/LED_YEL.h"
 1211              		.file 11 "Generated_Source\\PSoC5/RELAY_A.h"
 1212              		.file 12 "Generated_Source\\PSoC5/CyLib.h"
 1213              		.file 13 "Generated_Source\\PSoC5/RELAY_B.h"
 1214              		.file 14 "Generated_Source\\PSoC5/Clock_5.h"
 1215              		.file 15 "Generated_Source\\PSoC5/Mode_Sel_ACS.h"
 1216              		.file 16 "Generated_Source\\PSoC5/TX_EN.h"
 1217              		.file 17 "Generated_Source\\PSoC5/UART_ACS.h"
 1218              		.file 18 "Generated_Source\\PSoC5/Tamper_Timer.h"
 1219              		.file 19 "Generated_Source\\PSoC5/Clock_6.h"
 1220              		.file 20 "Generated_Source\\PSoC5/UART_READER.h"
 1221              		.file 21 "Generated_Source\\PSoC5/isr_keepalive.h"
 1222              		.file 22 "Generated_Source\\PSoC5/OSDPReaderTimer.h"
ARM GAS  C:\Users\Yiquing\AppData\Local\Temp\ccKBlbpG.s 			page 34


 1223              		.file 23 "Generated_Source\\PSoC5/LED_RED.h"
 1224              		.file 24 "Generated_Source\\PSoC5/BootloadableI2C.h"
 1225              		.file 25 "Generated_Source\\PSoC5/OptSelect.h"
 1226              		.file 26 ".\\wiegand.h"
 1227              		.file 27 "Generated_Source\\PSoC5/UART_TIMER.h"
 1228              		.file 28 "Generated_Source\\PSoC5/UART_TIMER_ISR.h"
 1229              		.file 29 "Generated_Source\\PSoC5/Tamper_Timer_ISR.h"
 1230              		.file 30 "Generated_Source\\PSoC5/Timeout_Timer.h"
 1231              		.file 31 "Generated_Source\\PSoC5/Timeout_Timer_Isr.h"
 1232              		.file 32 "Generated_Source\\PSoC5/isr_F2F_edge.h"
 1233              		.file 33 "Generated_Source\\PSoC5/EZI2Cs.h"
 1234              		.file 34 "Generated_Source\\PSoC5/UART_1.h"
 1235              		.file 35 ".\\inout.h"
 1236              		.file 36 "Generated_Source\\PSoC5/isr_SW_Rst.h"