ARM GAS  C:\Users\Yiquing\AppData\Local\Temp\cc7oDTRr.s 			page 1


   1              		.syntax unified
   2              		.cpu cortex-m3
   3              		.fpu softvfp
   4              		.eabi_attribute 20, 1
   5              		.eabi_attribute 21, 1
   6              		.eabi_attribute 23, 3
   7              		.eabi_attribute 24, 1
   8              		.eabi_attribute 25, 1
   9              		.eabi_attribute 26, 1
  10              		.eabi_attribute 30, 4
  11              		.eabi_attribute 34, 1
  12              		.eabi_attribute 18, 4
  13              		.thumb
  14              		.file	"Timeout_Timer_Isr.c"
  15              		.text
  16              	.Ltext0:
  17              		.cfi_sections	.debug_frame
  18              		.section	.text.Timeout_Timer_Isr_Interrupt,"ax",%progbits
  19              		.align	1
  20              		.global	Timeout_Timer_Isr_Interrupt
  21              		.thumb
  22              		.thumb_func
  23              		.type	Timeout_Timer_Isr_Interrupt, %function
  24              	Timeout_Timer_Isr_Interrupt:
  25              	.LFB3:
  26              		.file 1 ".\\Generated_Source\\PSoC5\\Timeout_Timer_Isr.c"
   1:.\Generated_Source\PSoC5/Timeout_Timer_Isr.c **** /*******************************************************************************
   2:.\Generated_Source\PSoC5/Timeout_Timer_Isr.c **** * File Name: Timeout_Timer_Isr.c  
   3:.\Generated_Source\PSoC5/Timeout_Timer_Isr.c **** * Version 1.70
   4:.\Generated_Source\PSoC5/Timeout_Timer_Isr.c **** *
   5:.\Generated_Source\PSoC5/Timeout_Timer_Isr.c **** *  Description:
   6:.\Generated_Source\PSoC5/Timeout_Timer_Isr.c **** *   API for controlling the state of an interrupt.
   7:.\Generated_Source\PSoC5/Timeout_Timer_Isr.c **** *
   8:.\Generated_Source\PSoC5/Timeout_Timer_Isr.c **** *
   9:.\Generated_Source\PSoC5/Timeout_Timer_Isr.c **** *  Note:
  10:.\Generated_Source\PSoC5/Timeout_Timer_Isr.c **** *
  11:.\Generated_Source\PSoC5/Timeout_Timer_Isr.c **** ********************************************************************************
  12:.\Generated_Source\PSoC5/Timeout_Timer_Isr.c **** * Copyright 2008-2015, Cypress Semiconductor Corporation.  All rights reserved.
  13:.\Generated_Source\PSoC5/Timeout_Timer_Isr.c **** * You may use this file only in accordance with the license, terms, conditions, 
  14:.\Generated_Source\PSoC5/Timeout_Timer_Isr.c **** * disclaimers, and limitations in the end user license agreement accompanying 
  15:.\Generated_Source\PSoC5/Timeout_Timer_Isr.c **** * the software package with which this file was provided.
  16:.\Generated_Source\PSoC5/Timeout_Timer_Isr.c **** *******************************************************************************/
  17:.\Generated_Source\PSoC5/Timeout_Timer_Isr.c **** 
  18:.\Generated_Source\PSoC5/Timeout_Timer_Isr.c **** 
  19:.\Generated_Source\PSoC5/Timeout_Timer_Isr.c **** #include <cydevice_trm.h>
  20:.\Generated_Source\PSoC5/Timeout_Timer_Isr.c **** #include <CyLib.h>
  21:.\Generated_Source\PSoC5/Timeout_Timer_Isr.c **** #include <Timeout_Timer_Isr.h>
  22:.\Generated_Source\PSoC5/Timeout_Timer_Isr.c **** 
  23:.\Generated_Source\PSoC5/Timeout_Timer_Isr.c **** #if !defined(Timeout_Timer_Isr__REMOVED) /* Check for removal by optimization */
  24:.\Generated_Source\PSoC5/Timeout_Timer_Isr.c **** 
  25:.\Generated_Source\PSoC5/Timeout_Timer_Isr.c **** /*******************************************************************************
  26:.\Generated_Source\PSoC5/Timeout_Timer_Isr.c **** *  Place your includes, defines and code here 
  27:.\Generated_Source\PSoC5/Timeout_Timer_Isr.c **** ********************************************************************************/
  28:.\Generated_Source\PSoC5/Timeout_Timer_Isr.c **** /* `#START Timeout_Timer_Isr_intc` */
  29:.\Generated_Source\PSoC5/Timeout_Timer_Isr.c **** 
  30:.\Generated_Source\PSoC5/Timeout_Timer_Isr.c **** #include "Timeout_Timer.h"
  31:.\Generated_Source\PSoC5/Timeout_Timer_Isr.c **** #include "system.h"      
ARM GAS  C:\Users\Yiquing\AppData\Local\Temp\cc7oDTRr.s 			page 2


  32:.\Generated_Source\PSoC5/Timeout_Timer_Isr.c **** #include "LEDR_OUT.h" //debug
  33:.\Generated_Source\PSoC5/Timeout_Timer_Isr.c **** uint8 ledr_on = 0;    
  34:.\Generated_Source\PSoC5/Timeout_Timer_Isr.c **** /* `#END` */
  35:.\Generated_Source\PSoC5/Timeout_Timer_Isr.c **** 
  36:.\Generated_Source\PSoC5/Timeout_Timer_Isr.c **** #ifndef CYINT_IRQ_BASE
  37:.\Generated_Source\PSoC5/Timeout_Timer_Isr.c **** #define CYINT_IRQ_BASE      16
  38:.\Generated_Source\PSoC5/Timeout_Timer_Isr.c **** #endif /* CYINT_IRQ_BASE */
  39:.\Generated_Source\PSoC5/Timeout_Timer_Isr.c **** #ifndef CYINT_VECT_TABLE
  40:.\Generated_Source\PSoC5/Timeout_Timer_Isr.c **** #define CYINT_VECT_TABLE    ((cyisraddress **) CYREG_NVIC_VECT_OFFSET)
  41:.\Generated_Source\PSoC5/Timeout_Timer_Isr.c **** #endif /* CYINT_VECT_TABLE */
  42:.\Generated_Source\PSoC5/Timeout_Timer_Isr.c **** 
  43:.\Generated_Source\PSoC5/Timeout_Timer_Isr.c **** /* Declared in startup, used to set unused interrupts to. */
  44:.\Generated_Source\PSoC5/Timeout_Timer_Isr.c **** CY_ISR_PROTO(IntDefaultHandler);
  45:.\Generated_Source\PSoC5/Timeout_Timer_Isr.c **** 
  46:.\Generated_Source\PSoC5/Timeout_Timer_Isr.c **** 
  47:.\Generated_Source\PSoC5/Timeout_Timer_Isr.c **** /*******************************************************************************
  48:.\Generated_Source\PSoC5/Timeout_Timer_Isr.c **** * Function Name: Timeout_Timer_Isr_Start
  49:.\Generated_Source\PSoC5/Timeout_Timer_Isr.c **** ********************************************************************************
  50:.\Generated_Source\PSoC5/Timeout_Timer_Isr.c **** *
  51:.\Generated_Source\PSoC5/Timeout_Timer_Isr.c **** * Summary:
  52:.\Generated_Source\PSoC5/Timeout_Timer_Isr.c **** *  Set up the interrupt and enable it. This function disables the interrupt, 
  53:.\Generated_Source\PSoC5/Timeout_Timer_Isr.c **** *  sets the default interrupt vector, sets the priority from the value in the
  54:.\Generated_Source\PSoC5/Timeout_Timer_Isr.c **** *  Design Wide Resources Interrupt Editor, then enables the interrupt to the 
  55:.\Generated_Source\PSoC5/Timeout_Timer_Isr.c **** *  interrupt controller.
  56:.\Generated_Source\PSoC5/Timeout_Timer_Isr.c **** *
  57:.\Generated_Source\PSoC5/Timeout_Timer_Isr.c **** * Parameters:  
  58:.\Generated_Source\PSoC5/Timeout_Timer_Isr.c **** *   None
  59:.\Generated_Source\PSoC5/Timeout_Timer_Isr.c **** *
  60:.\Generated_Source\PSoC5/Timeout_Timer_Isr.c **** * Return:
  61:.\Generated_Source\PSoC5/Timeout_Timer_Isr.c **** *   None
  62:.\Generated_Source\PSoC5/Timeout_Timer_Isr.c **** *
  63:.\Generated_Source\PSoC5/Timeout_Timer_Isr.c **** *******************************************************************************/
  64:.\Generated_Source\PSoC5/Timeout_Timer_Isr.c **** void Timeout_Timer_Isr_Start(void)
  65:.\Generated_Source\PSoC5/Timeout_Timer_Isr.c **** {
  66:.\Generated_Source\PSoC5/Timeout_Timer_Isr.c ****     /* For all we know the interrupt is active. */
  67:.\Generated_Source\PSoC5/Timeout_Timer_Isr.c ****     Timeout_Timer_Isr_Disable();
  68:.\Generated_Source\PSoC5/Timeout_Timer_Isr.c **** 
  69:.\Generated_Source\PSoC5/Timeout_Timer_Isr.c ****     /* Set the ISR to point to the Timeout_Timer_Isr Interrupt. */
  70:.\Generated_Source\PSoC5/Timeout_Timer_Isr.c ****     Timeout_Timer_Isr_SetVector(&Timeout_Timer_Isr_Interrupt);
  71:.\Generated_Source\PSoC5/Timeout_Timer_Isr.c **** 
  72:.\Generated_Source\PSoC5/Timeout_Timer_Isr.c ****     /* Set the priority. */
  73:.\Generated_Source\PSoC5/Timeout_Timer_Isr.c ****     Timeout_Timer_Isr_SetPriority((uint8)Timeout_Timer_Isr_INTC_PRIOR_NUMBER);
  74:.\Generated_Source\PSoC5/Timeout_Timer_Isr.c **** 
  75:.\Generated_Source\PSoC5/Timeout_Timer_Isr.c ****     /* Enable it. */
  76:.\Generated_Source\PSoC5/Timeout_Timer_Isr.c ****     Timeout_Timer_Isr_Enable();
  77:.\Generated_Source\PSoC5/Timeout_Timer_Isr.c **** }
  78:.\Generated_Source\PSoC5/Timeout_Timer_Isr.c **** 
  79:.\Generated_Source\PSoC5/Timeout_Timer_Isr.c **** 
  80:.\Generated_Source\PSoC5/Timeout_Timer_Isr.c **** /*******************************************************************************
  81:.\Generated_Source\PSoC5/Timeout_Timer_Isr.c **** * Function Name: Timeout_Timer_Isr_StartEx
  82:.\Generated_Source\PSoC5/Timeout_Timer_Isr.c **** ********************************************************************************
  83:.\Generated_Source\PSoC5/Timeout_Timer_Isr.c **** *
  84:.\Generated_Source\PSoC5/Timeout_Timer_Isr.c **** * Summary:
  85:.\Generated_Source\PSoC5/Timeout_Timer_Isr.c **** *  Sets up the interrupt and enables it. This function disables the interrupt,
  86:.\Generated_Source\PSoC5/Timeout_Timer_Isr.c **** *  sets the interrupt vector based on the address passed in, sets the priority 
  87:.\Generated_Source\PSoC5/Timeout_Timer_Isr.c **** *  from the value in the Design Wide Resources Interrupt Editor, then enables 
  88:.\Generated_Source\PSoC5/Timeout_Timer_Isr.c **** *  the interrupt to the interrupt controller.
ARM GAS  C:\Users\Yiquing\AppData\Local\Temp\cc7oDTRr.s 			page 3


  89:.\Generated_Source\PSoC5/Timeout_Timer_Isr.c **** *  
  90:.\Generated_Source\PSoC5/Timeout_Timer_Isr.c **** *  When defining ISR functions, the CY_ISR and CY_ISR_PROTO macros should be 
  91:.\Generated_Source\PSoC5/Timeout_Timer_Isr.c **** *  used to provide consistent definition across compilers:
  92:.\Generated_Source\PSoC5/Timeout_Timer_Isr.c **** *  
  93:.\Generated_Source\PSoC5/Timeout_Timer_Isr.c **** *  Function definition example:
  94:.\Generated_Source\PSoC5/Timeout_Timer_Isr.c **** *   CY_ISR(MyISR)
  95:.\Generated_Source\PSoC5/Timeout_Timer_Isr.c **** *   {
  96:.\Generated_Source\PSoC5/Timeout_Timer_Isr.c **** *   }
  97:.\Generated_Source\PSoC5/Timeout_Timer_Isr.c **** *   Function prototype example:
  98:.\Generated_Source\PSoC5/Timeout_Timer_Isr.c **** *   CY_ISR_PROTO(MyISR);
  99:.\Generated_Source\PSoC5/Timeout_Timer_Isr.c **** *
 100:.\Generated_Source\PSoC5/Timeout_Timer_Isr.c **** * Parameters:  
 101:.\Generated_Source\PSoC5/Timeout_Timer_Isr.c **** *   address: Address of the ISR to set in the interrupt vector table.
 102:.\Generated_Source\PSoC5/Timeout_Timer_Isr.c **** *
 103:.\Generated_Source\PSoC5/Timeout_Timer_Isr.c **** * Return:
 104:.\Generated_Source\PSoC5/Timeout_Timer_Isr.c **** *   None
 105:.\Generated_Source\PSoC5/Timeout_Timer_Isr.c **** *
 106:.\Generated_Source\PSoC5/Timeout_Timer_Isr.c **** *******************************************************************************/
 107:.\Generated_Source\PSoC5/Timeout_Timer_Isr.c **** void Timeout_Timer_Isr_StartEx(cyisraddress address)
 108:.\Generated_Source\PSoC5/Timeout_Timer_Isr.c **** {
 109:.\Generated_Source\PSoC5/Timeout_Timer_Isr.c ****     /* For all we know the interrupt is active. */
 110:.\Generated_Source\PSoC5/Timeout_Timer_Isr.c ****     Timeout_Timer_Isr_Disable();
 111:.\Generated_Source\PSoC5/Timeout_Timer_Isr.c **** 
 112:.\Generated_Source\PSoC5/Timeout_Timer_Isr.c ****     /* Set the ISR to point to the Timeout_Timer_Isr Interrupt. */
 113:.\Generated_Source\PSoC5/Timeout_Timer_Isr.c ****     Timeout_Timer_Isr_SetVector(address);
 114:.\Generated_Source\PSoC5/Timeout_Timer_Isr.c **** 
 115:.\Generated_Source\PSoC5/Timeout_Timer_Isr.c ****     /* Set the priority. */
 116:.\Generated_Source\PSoC5/Timeout_Timer_Isr.c ****     Timeout_Timer_Isr_SetPriority((uint8)Timeout_Timer_Isr_INTC_PRIOR_NUMBER);
 117:.\Generated_Source\PSoC5/Timeout_Timer_Isr.c **** 
 118:.\Generated_Source\PSoC5/Timeout_Timer_Isr.c ****     /* Enable it. */
 119:.\Generated_Source\PSoC5/Timeout_Timer_Isr.c ****     Timeout_Timer_Isr_Enable();
 120:.\Generated_Source\PSoC5/Timeout_Timer_Isr.c **** }
 121:.\Generated_Source\PSoC5/Timeout_Timer_Isr.c **** 
 122:.\Generated_Source\PSoC5/Timeout_Timer_Isr.c **** 
 123:.\Generated_Source\PSoC5/Timeout_Timer_Isr.c **** /*******************************************************************************
 124:.\Generated_Source\PSoC5/Timeout_Timer_Isr.c **** * Function Name: Timeout_Timer_Isr_Stop
 125:.\Generated_Source\PSoC5/Timeout_Timer_Isr.c **** ********************************************************************************
 126:.\Generated_Source\PSoC5/Timeout_Timer_Isr.c **** *
 127:.\Generated_Source\PSoC5/Timeout_Timer_Isr.c **** * Summary:
 128:.\Generated_Source\PSoC5/Timeout_Timer_Isr.c **** *   Disables and removes the interrupt.
 129:.\Generated_Source\PSoC5/Timeout_Timer_Isr.c **** *
 130:.\Generated_Source\PSoC5/Timeout_Timer_Isr.c **** * Parameters:  
 131:.\Generated_Source\PSoC5/Timeout_Timer_Isr.c **** *   None
 132:.\Generated_Source\PSoC5/Timeout_Timer_Isr.c **** *
 133:.\Generated_Source\PSoC5/Timeout_Timer_Isr.c **** * Return:
 134:.\Generated_Source\PSoC5/Timeout_Timer_Isr.c **** *   None
 135:.\Generated_Source\PSoC5/Timeout_Timer_Isr.c **** *
 136:.\Generated_Source\PSoC5/Timeout_Timer_Isr.c **** *******************************************************************************/
 137:.\Generated_Source\PSoC5/Timeout_Timer_Isr.c **** void Timeout_Timer_Isr_Stop(void)
 138:.\Generated_Source\PSoC5/Timeout_Timer_Isr.c **** {
 139:.\Generated_Source\PSoC5/Timeout_Timer_Isr.c ****     /* Disable this interrupt. */
 140:.\Generated_Source\PSoC5/Timeout_Timer_Isr.c ****     Timeout_Timer_Isr_Disable();
 141:.\Generated_Source\PSoC5/Timeout_Timer_Isr.c **** 
 142:.\Generated_Source\PSoC5/Timeout_Timer_Isr.c ****     /* Set the ISR to point to the passive one. */
 143:.\Generated_Source\PSoC5/Timeout_Timer_Isr.c ****     Timeout_Timer_Isr_SetVector(&IntDefaultHandler);
 144:.\Generated_Source\PSoC5/Timeout_Timer_Isr.c **** }
 145:.\Generated_Source\PSoC5/Timeout_Timer_Isr.c **** 
ARM GAS  C:\Users\Yiquing\AppData\Local\Temp\cc7oDTRr.s 			page 4


 146:.\Generated_Source\PSoC5/Timeout_Timer_Isr.c **** 
 147:.\Generated_Source\PSoC5/Timeout_Timer_Isr.c **** /*******************************************************************************
 148:.\Generated_Source\PSoC5/Timeout_Timer_Isr.c **** * Function Name: Timeout_Timer_Isr_Interrupt
 149:.\Generated_Source\PSoC5/Timeout_Timer_Isr.c **** ********************************************************************************
 150:.\Generated_Source\PSoC5/Timeout_Timer_Isr.c **** *
 151:.\Generated_Source\PSoC5/Timeout_Timer_Isr.c **** * Summary:
 152:.\Generated_Source\PSoC5/Timeout_Timer_Isr.c **** *   The default Interrupt Service Routine for Timeout_Timer_Isr.
 153:.\Generated_Source\PSoC5/Timeout_Timer_Isr.c **** *
 154:.\Generated_Source\PSoC5/Timeout_Timer_Isr.c **** *   Add custom code between the coments to keep the next version of this file
 155:.\Generated_Source\PSoC5/Timeout_Timer_Isr.c **** *   from over writting your code.
 156:.\Generated_Source\PSoC5/Timeout_Timer_Isr.c **** *
 157:.\Generated_Source\PSoC5/Timeout_Timer_Isr.c **** * Parameters:  
 158:.\Generated_Source\PSoC5/Timeout_Timer_Isr.c **** *
 159:.\Generated_Source\PSoC5/Timeout_Timer_Isr.c **** * Return:
 160:.\Generated_Source\PSoC5/Timeout_Timer_Isr.c **** *   None
 161:.\Generated_Source\PSoC5/Timeout_Timer_Isr.c **** *
 162:.\Generated_Source\PSoC5/Timeout_Timer_Isr.c **** *******************************************************************************/
 163:.\Generated_Source\PSoC5/Timeout_Timer_Isr.c **** CY_ISR(Timeout_Timer_Isr_Interrupt)
 164:.\Generated_Source\PSoC5/Timeout_Timer_Isr.c **** {
  27              		.loc 1 164 0
  28              		.cfi_startproc
  29              		@ args = 0, pretend = 0, frame = 0
  30              		@ frame_needed = 0, uses_anonymous_args = 0
  31 0000 08B5     		push	{r3, lr}
  32              		.cfi_def_cfa_offset 8
  33              		.cfi_offset 3, -8
  34              		.cfi_offset 14, -4
 165:.\Generated_Source\PSoC5/Timeout_Timer_Isr.c ****     /*  Place your Interrupt code here. */
 166:.\Generated_Source\PSoC5/Timeout_Timer_Isr.c ****     /* `#START Timeout_Timer_Isr_Interrupt` */
 167:.\Generated_Source\PSoC5/Timeout_Timer_Isr.c ****     Timeout_Timer_ReadStatusRegister(); 
  35              		.loc 1 167 0
  36 0002 FFF7FEFF 		bl	Timeout_Timer_ReadStatusRegister
  37              	.LVL0:
 168:.\Generated_Source\PSoC5/Timeout_Timer_Isr.c ****     timeout_cnt++;
  38              		.loc 1 168 0
  39 0006 064B     		ldr	r3, .L2
  40 0008 1A68     		ldr	r2, [r3]
  41 000a 0132     		adds	r2, r2, #1
  42 000c 1A60     		str	r2, [r3]
 169:.\Generated_Source\PSoC5/Timeout_Timer_Isr.c ****     ledr_on ^= 1;
  43              		.loc 1 169 0
  44 000e 054B     		ldr	r3, .L2+4
  45 0010 1878     		ldrb	r0, [r3]	@ zero_extendqisi2
  46 0012 80F00100 		eor	r0, r0, #1
  47 0016 1870     		strb	r0, [r3]
 170:.\Generated_Source\PSoC5/Timeout_Timer_Isr.c ****     LEDR_OUT_Write(ledr_on);
 171:.\Generated_Source\PSoC5/Timeout_Timer_Isr.c ****     
 172:.\Generated_Source\PSoC5/Timeout_Timer_Isr.c ****     /* `#END` */
 173:.\Generated_Source\PSoC5/Timeout_Timer_Isr.c **** }
  48              		.loc 1 173 0
  49 0018 BDE80840 		pop	{r3, lr}
 170:.\Generated_Source\PSoC5/Timeout_Timer_Isr.c ****     LEDR_OUT_Write(ledr_on);
  50              		.loc 1 170 0
  51 001c FFF7FEBF 		b	LEDR_OUT_Write
  52              	.LVL1:
  53              	.L3:
  54              		.align	2
ARM GAS  C:\Users\Yiquing\AppData\Local\Temp\cc7oDTRr.s 			page 5


  55              	.L2:
  56 0020 00000000 		.word	timeout_cnt
  57 0024 00000000 		.word	.LANCHOR0
  58              		.cfi_endproc
  59              	.LFE3:
  60              		.size	Timeout_Timer_Isr_Interrupt, .-Timeout_Timer_Isr_Interrupt
  61              		.section	.text.Timeout_Timer_Isr_Start,"ax",%progbits
  62              		.align	1
  63              		.global	Timeout_Timer_Isr_Start
  64              		.thumb
  65              		.thumb_func
  66              		.type	Timeout_Timer_Isr_Start, %function
  67              	Timeout_Timer_Isr_Start:
  68              	.LFB0:
  65:.\Generated_Source\PSoC5/Timeout_Timer_Isr.c **** {
  69              		.loc 1 65 0
  70              		.cfi_startproc
  71              		@ args = 0, pretend = 0, frame = 0
  72              		@ frame_needed = 0, uses_anonymous_args = 0
  73              		@ link register save eliminated.
  74              	.LBB22:
  75              	.LBB23:
 174:.\Generated_Source\PSoC5/Timeout_Timer_Isr.c **** 
 175:.\Generated_Source\PSoC5/Timeout_Timer_Isr.c **** 
 176:.\Generated_Source\PSoC5/Timeout_Timer_Isr.c **** /*******************************************************************************
 177:.\Generated_Source\PSoC5/Timeout_Timer_Isr.c **** * Function Name: Timeout_Timer_Isr_SetVector
 178:.\Generated_Source\PSoC5/Timeout_Timer_Isr.c **** ********************************************************************************
 179:.\Generated_Source\PSoC5/Timeout_Timer_Isr.c **** *
 180:.\Generated_Source\PSoC5/Timeout_Timer_Isr.c **** * Summary:
 181:.\Generated_Source\PSoC5/Timeout_Timer_Isr.c **** *   Change the ISR vector for the Interrupt. Note calling Timeout_Timer_Isr_Start
 182:.\Generated_Source\PSoC5/Timeout_Timer_Isr.c **** *   will override any effect this method would have had. To set the vector 
 183:.\Generated_Source\PSoC5/Timeout_Timer_Isr.c **** *   before the component has been started use Timeout_Timer_Isr_StartEx instead.
 184:.\Generated_Source\PSoC5/Timeout_Timer_Isr.c **** * 
 185:.\Generated_Source\PSoC5/Timeout_Timer_Isr.c **** *   When defining ISR functions, the CY_ISR and CY_ISR_PROTO macros should be 
 186:.\Generated_Source\PSoC5/Timeout_Timer_Isr.c **** *   used to provide consistent definition across compilers:
 187:.\Generated_Source\PSoC5/Timeout_Timer_Isr.c **** *
 188:.\Generated_Source\PSoC5/Timeout_Timer_Isr.c **** *   Function definition example:
 189:.\Generated_Source\PSoC5/Timeout_Timer_Isr.c **** *   CY_ISR(MyISR)
 190:.\Generated_Source\PSoC5/Timeout_Timer_Isr.c **** *   {
 191:.\Generated_Source\PSoC5/Timeout_Timer_Isr.c **** *   }
 192:.\Generated_Source\PSoC5/Timeout_Timer_Isr.c **** *
 193:.\Generated_Source\PSoC5/Timeout_Timer_Isr.c **** *   Function prototype example:
 194:.\Generated_Source\PSoC5/Timeout_Timer_Isr.c **** *     CY_ISR_PROTO(MyISR);
 195:.\Generated_Source\PSoC5/Timeout_Timer_Isr.c **** *
 196:.\Generated_Source\PSoC5/Timeout_Timer_Isr.c **** * Parameters:
 197:.\Generated_Source\PSoC5/Timeout_Timer_Isr.c **** *   address: Address of the ISR to set in the interrupt vector table.
 198:.\Generated_Source\PSoC5/Timeout_Timer_Isr.c **** *
 199:.\Generated_Source\PSoC5/Timeout_Timer_Isr.c **** * Return:
 200:.\Generated_Source\PSoC5/Timeout_Timer_Isr.c **** *   None
 201:.\Generated_Source\PSoC5/Timeout_Timer_Isr.c **** *
 202:.\Generated_Source\PSoC5/Timeout_Timer_Isr.c **** *******************************************************************************/
 203:.\Generated_Source\PSoC5/Timeout_Timer_Isr.c **** void Timeout_Timer_Isr_SetVector(cyisraddress address)
 204:.\Generated_Source\PSoC5/Timeout_Timer_Isr.c **** {
 205:.\Generated_Source\PSoC5/Timeout_Timer_Isr.c ****     cyisraddress * ramVectorTable;
 206:.\Generated_Source\PSoC5/Timeout_Timer_Isr.c **** 
 207:.\Generated_Source\PSoC5/Timeout_Timer_Isr.c ****     ramVectorTable = (cyisraddress *) *CYINT_VECT_TABLE;
 208:.\Generated_Source\PSoC5/Timeout_Timer_Isr.c **** 
ARM GAS  C:\Users\Yiquing\AppData\Local\Temp\cc7oDTRr.s 			page 6


 209:.\Generated_Source\PSoC5/Timeout_Timer_Isr.c ****     ramVectorTable[CYINT_IRQ_BASE + (uint32)Timeout_Timer_Isr__INTC_NUMBER] = address;
 210:.\Generated_Source\PSoC5/Timeout_Timer_Isr.c **** }
 211:.\Generated_Source\PSoC5/Timeout_Timer_Isr.c **** 
 212:.\Generated_Source\PSoC5/Timeout_Timer_Isr.c **** 
 213:.\Generated_Source\PSoC5/Timeout_Timer_Isr.c **** /*******************************************************************************
 214:.\Generated_Source\PSoC5/Timeout_Timer_Isr.c **** * Function Name: Timeout_Timer_Isr_GetVector
 215:.\Generated_Source\PSoC5/Timeout_Timer_Isr.c **** ********************************************************************************
 216:.\Generated_Source\PSoC5/Timeout_Timer_Isr.c **** *
 217:.\Generated_Source\PSoC5/Timeout_Timer_Isr.c **** * Summary:
 218:.\Generated_Source\PSoC5/Timeout_Timer_Isr.c **** *   Gets the "address" of the current ISR vector for the Interrupt.
 219:.\Generated_Source\PSoC5/Timeout_Timer_Isr.c **** *
 220:.\Generated_Source\PSoC5/Timeout_Timer_Isr.c **** * Parameters:
 221:.\Generated_Source\PSoC5/Timeout_Timer_Isr.c **** *   None
 222:.\Generated_Source\PSoC5/Timeout_Timer_Isr.c **** *
 223:.\Generated_Source\PSoC5/Timeout_Timer_Isr.c **** * Return:
 224:.\Generated_Source\PSoC5/Timeout_Timer_Isr.c **** *   Address of the ISR in the interrupt vector table.
 225:.\Generated_Source\PSoC5/Timeout_Timer_Isr.c **** *
 226:.\Generated_Source\PSoC5/Timeout_Timer_Isr.c **** *******************************************************************************/
 227:.\Generated_Source\PSoC5/Timeout_Timer_Isr.c **** cyisraddress Timeout_Timer_Isr_GetVector(void)
 228:.\Generated_Source\PSoC5/Timeout_Timer_Isr.c **** {
 229:.\Generated_Source\PSoC5/Timeout_Timer_Isr.c ****     cyisraddress * ramVectorTable;
 230:.\Generated_Source\PSoC5/Timeout_Timer_Isr.c **** 
 231:.\Generated_Source\PSoC5/Timeout_Timer_Isr.c ****     ramVectorTable = (cyisraddress *) *CYINT_VECT_TABLE;
 232:.\Generated_Source\PSoC5/Timeout_Timer_Isr.c **** 
 233:.\Generated_Source\PSoC5/Timeout_Timer_Isr.c ****     return ramVectorTable[CYINT_IRQ_BASE + (uint32)Timeout_Timer_Isr__INTC_NUMBER];
 234:.\Generated_Source\PSoC5/Timeout_Timer_Isr.c **** }
 235:.\Generated_Source\PSoC5/Timeout_Timer_Isr.c **** 
 236:.\Generated_Source\PSoC5/Timeout_Timer_Isr.c **** 
 237:.\Generated_Source\PSoC5/Timeout_Timer_Isr.c **** /*******************************************************************************
 238:.\Generated_Source\PSoC5/Timeout_Timer_Isr.c **** * Function Name: Timeout_Timer_Isr_SetPriority
 239:.\Generated_Source\PSoC5/Timeout_Timer_Isr.c **** ********************************************************************************
 240:.\Generated_Source\PSoC5/Timeout_Timer_Isr.c **** *
 241:.\Generated_Source\PSoC5/Timeout_Timer_Isr.c **** * Summary:
 242:.\Generated_Source\PSoC5/Timeout_Timer_Isr.c **** *   Sets the Priority of the Interrupt. 
 243:.\Generated_Source\PSoC5/Timeout_Timer_Isr.c **** *
 244:.\Generated_Source\PSoC5/Timeout_Timer_Isr.c **** *   Note calling Timeout_Timer_Isr_Start or Timeout_Timer_Isr_StartEx will 
 245:.\Generated_Source\PSoC5/Timeout_Timer_Isr.c **** *   override any effect this API would have had. This API should only be called
 246:.\Generated_Source\PSoC5/Timeout_Timer_Isr.c **** *   after Timeout_Timer_Isr_Start or Timeout_Timer_Isr_StartEx has been called. 
 247:.\Generated_Source\PSoC5/Timeout_Timer_Isr.c **** *   To set the initial priority for the component, use the Design-Wide Resources
 248:.\Generated_Source\PSoC5/Timeout_Timer_Isr.c **** *   Interrupt Editor.
 249:.\Generated_Source\PSoC5/Timeout_Timer_Isr.c **** *
 250:.\Generated_Source\PSoC5/Timeout_Timer_Isr.c **** *   Note This API has no effect on Non-maskable interrupt NMI).
 251:.\Generated_Source\PSoC5/Timeout_Timer_Isr.c **** *
 252:.\Generated_Source\PSoC5/Timeout_Timer_Isr.c **** * Parameters:
 253:.\Generated_Source\PSoC5/Timeout_Timer_Isr.c **** *   priority: Priority of the interrupt, 0 being the highest priority
 254:.\Generated_Source\PSoC5/Timeout_Timer_Isr.c **** *             PSoC 3 and PSoC 5LP: Priority is from 0 to 7.
 255:.\Generated_Source\PSoC5/Timeout_Timer_Isr.c **** *             PSoC 4: Priority is from 0 to 3.
 256:.\Generated_Source\PSoC5/Timeout_Timer_Isr.c **** *
 257:.\Generated_Source\PSoC5/Timeout_Timer_Isr.c **** * Return:
 258:.\Generated_Source\PSoC5/Timeout_Timer_Isr.c **** *   None
 259:.\Generated_Source\PSoC5/Timeout_Timer_Isr.c **** *
 260:.\Generated_Source\PSoC5/Timeout_Timer_Isr.c **** *******************************************************************************/
 261:.\Generated_Source\PSoC5/Timeout_Timer_Isr.c **** void Timeout_Timer_Isr_SetPriority(uint8 priority)
 262:.\Generated_Source\PSoC5/Timeout_Timer_Isr.c **** {
 263:.\Generated_Source\PSoC5/Timeout_Timer_Isr.c ****     *Timeout_Timer_Isr_INTC_PRIOR = priority << 5;
 264:.\Generated_Source\PSoC5/Timeout_Timer_Isr.c **** }
 265:.\Generated_Source\PSoC5/Timeout_Timer_Isr.c **** 
ARM GAS  C:\Users\Yiquing\AppData\Local\Temp\cc7oDTRr.s 			page 7


 266:.\Generated_Source\PSoC5/Timeout_Timer_Isr.c **** 
 267:.\Generated_Source\PSoC5/Timeout_Timer_Isr.c **** /*******************************************************************************
 268:.\Generated_Source\PSoC5/Timeout_Timer_Isr.c **** * Function Name: Timeout_Timer_Isr_GetPriority
 269:.\Generated_Source\PSoC5/Timeout_Timer_Isr.c **** ********************************************************************************
 270:.\Generated_Source\PSoC5/Timeout_Timer_Isr.c **** *
 271:.\Generated_Source\PSoC5/Timeout_Timer_Isr.c **** * Summary:
 272:.\Generated_Source\PSoC5/Timeout_Timer_Isr.c **** *   Gets the Priority of the Interrupt.
 273:.\Generated_Source\PSoC5/Timeout_Timer_Isr.c **** *
 274:.\Generated_Source\PSoC5/Timeout_Timer_Isr.c **** * Parameters:
 275:.\Generated_Source\PSoC5/Timeout_Timer_Isr.c **** *   None
 276:.\Generated_Source\PSoC5/Timeout_Timer_Isr.c **** *
 277:.\Generated_Source\PSoC5/Timeout_Timer_Isr.c **** * Return:
 278:.\Generated_Source\PSoC5/Timeout_Timer_Isr.c **** *   Priority of the interrupt, 0 being the highest priority
 279:.\Generated_Source\PSoC5/Timeout_Timer_Isr.c **** *    PSoC 3 and PSoC 5LP: Priority is from 0 to 7.
 280:.\Generated_Source\PSoC5/Timeout_Timer_Isr.c **** *    PSoC 4: Priority is from 0 to 3.
 281:.\Generated_Source\PSoC5/Timeout_Timer_Isr.c **** *
 282:.\Generated_Source\PSoC5/Timeout_Timer_Isr.c **** *******************************************************************************/
 283:.\Generated_Source\PSoC5/Timeout_Timer_Isr.c **** uint8 Timeout_Timer_Isr_GetPriority(void)
 284:.\Generated_Source\PSoC5/Timeout_Timer_Isr.c **** {
 285:.\Generated_Source\PSoC5/Timeout_Timer_Isr.c ****     uint8 priority;
 286:.\Generated_Source\PSoC5/Timeout_Timer_Isr.c **** 
 287:.\Generated_Source\PSoC5/Timeout_Timer_Isr.c **** 
 288:.\Generated_Source\PSoC5/Timeout_Timer_Isr.c ****     priority = *Timeout_Timer_Isr_INTC_PRIOR >> 5;
 289:.\Generated_Source\PSoC5/Timeout_Timer_Isr.c **** 
 290:.\Generated_Source\PSoC5/Timeout_Timer_Isr.c ****     return priority;
 291:.\Generated_Source\PSoC5/Timeout_Timer_Isr.c **** }
 292:.\Generated_Source\PSoC5/Timeout_Timer_Isr.c **** 
 293:.\Generated_Source\PSoC5/Timeout_Timer_Isr.c **** 
 294:.\Generated_Source\PSoC5/Timeout_Timer_Isr.c **** /*******************************************************************************
 295:.\Generated_Source\PSoC5/Timeout_Timer_Isr.c **** * Function Name: Timeout_Timer_Isr_Enable
 296:.\Generated_Source\PSoC5/Timeout_Timer_Isr.c **** ********************************************************************************
 297:.\Generated_Source\PSoC5/Timeout_Timer_Isr.c **** *
 298:.\Generated_Source\PSoC5/Timeout_Timer_Isr.c **** * Summary:
 299:.\Generated_Source\PSoC5/Timeout_Timer_Isr.c **** *   Enables the interrupt to the interrupt controller. Do not call this function
 300:.\Generated_Source\PSoC5/Timeout_Timer_Isr.c **** *   unless ISR_Start() has been called or the functionality of the ISR_Start() 
 301:.\Generated_Source\PSoC5/Timeout_Timer_Isr.c **** *   function, which sets the vector and the priority, has been called.
 302:.\Generated_Source\PSoC5/Timeout_Timer_Isr.c **** *
 303:.\Generated_Source\PSoC5/Timeout_Timer_Isr.c **** * Parameters:
 304:.\Generated_Source\PSoC5/Timeout_Timer_Isr.c **** *   None
 305:.\Generated_Source\PSoC5/Timeout_Timer_Isr.c **** *
 306:.\Generated_Source\PSoC5/Timeout_Timer_Isr.c **** * Return:
 307:.\Generated_Source\PSoC5/Timeout_Timer_Isr.c **** *   None
 308:.\Generated_Source\PSoC5/Timeout_Timer_Isr.c **** *
 309:.\Generated_Source\PSoC5/Timeout_Timer_Isr.c **** *******************************************************************************/
 310:.\Generated_Source\PSoC5/Timeout_Timer_Isr.c **** void Timeout_Timer_Isr_Enable(void)
 311:.\Generated_Source\PSoC5/Timeout_Timer_Isr.c **** {
 312:.\Generated_Source\PSoC5/Timeout_Timer_Isr.c ****     /* Enable the general interrupt. */
 313:.\Generated_Source\PSoC5/Timeout_Timer_Isr.c ****     *Timeout_Timer_Isr_INTC_SET_EN = Timeout_Timer_Isr__INTC_MASK;
 314:.\Generated_Source\PSoC5/Timeout_Timer_Isr.c **** }
 315:.\Generated_Source\PSoC5/Timeout_Timer_Isr.c **** 
 316:.\Generated_Source\PSoC5/Timeout_Timer_Isr.c **** 
 317:.\Generated_Source\PSoC5/Timeout_Timer_Isr.c **** /*******************************************************************************
 318:.\Generated_Source\PSoC5/Timeout_Timer_Isr.c **** * Function Name: Timeout_Timer_Isr_GetState
 319:.\Generated_Source\PSoC5/Timeout_Timer_Isr.c **** ********************************************************************************
 320:.\Generated_Source\PSoC5/Timeout_Timer_Isr.c **** *
 321:.\Generated_Source\PSoC5/Timeout_Timer_Isr.c **** * Summary:
 322:.\Generated_Source\PSoC5/Timeout_Timer_Isr.c **** *   Gets the state (enabled, disabled) of the Interrupt.
ARM GAS  C:\Users\Yiquing\AppData\Local\Temp\cc7oDTRr.s 			page 8


 323:.\Generated_Source\PSoC5/Timeout_Timer_Isr.c **** *
 324:.\Generated_Source\PSoC5/Timeout_Timer_Isr.c **** * Parameters:
 325:.\Generated_Source\PSoC5/Timeout_Timer_Isr.c **** *   None
 326:.\Generated_Source\PSoC5/Timeout_Timer_Isr.c **** *
 327:.\Generated_Source\PSoC5/Timeout_Timer_Isr.c **** * Return:
 328:.\Generated_Source\PSoC5/Timeout_Timer_Isr.c **** *   1 if enabled, 0 if disabled.
 329:.\Generated_Source\PSoC5/Timeout_Timer_Isr.c **** *
 330:.\Generated_Source\PSoC5/Timeout_Timer_Isr.c **** *******************************************************************************/
 331:.\Generated_Source\PSoC5/Timeout_Timer_Isr.c **** uint8 Timeout_Timer_Isr_GetState(void)
 332:.\Generated_Source\PSoC5/Timeout_Timer_Isr.c **** {
 333:.\Generated_Source\PSoC5/Timeout_Timer_Isr.c ****     /* Get the state of the general interrupt. */
 334:.\Generated_Source\PSoC5/Timeout_Timer_Isr.c ****     return ((*Timeout_Timer_Isr_INTC_SET_EN & (uint32)Timeout_Timer_Isr__INTC_MASK) != 0u) ? 1u:0u;
 335:.\Generated_Source\PSoC5/Timeout_Timer_Isr.c **** }
 336:.\Generated_Source\PSoC5/Timeout_Timer_Isr.c **** 
 337:.\Generated_Source\PSoC5/Timeout_Timer_Isr.c **** 
 338:.\Generated_Source\PSoC5/Timeout_Timer_Isr.c **** /*******************************************************************************
 339:.\Generated_Source\PSoC5/Timeout_Timer_Isr.c **** * Function Name: Timeout_Timer_Isr_Disable
 340:.\Generated_Source\PSoC5/Timeout_Timer_Isr.c **** ********************************************************************************
 341:.\Generated_Source\PSoC5/Timeout_Timer_Isr.c **** *
 342:.\Generated_Source\PSoC5/Timeout_Timer_Isr.c **** * Summary:
 343:.\Generated_Source\PSoC5/Timeout_Timer_Isr.c **** *   Disables the Interrupt in the interrupt controller.
 344:.\Generated_Source\PSoC5/Timeout_Timer_Isr.c **** *
 345:.\Generated_Source\PSoC5/Timeout_Timer_Isr.c **** * Parameters:
 346:.\Generated_Source\PSoC5/Timeout_Timer_Isr.c **** *   None
 347:.\Generated_Source\PSoC5/Timeout_Timer_Isr.c **** *
 348:.\Generated_Source\PSoC5/Timeout_Timer_Isr.c **** * Return:
 349:.\Generated_Source\PSoC5/Timeout_Timer_Isr.c **** *   None
 350:.\Generated_Source\PSoC5/Timeout_Timer_Isr.c **** *
 351:.\Generated_Source\PSoC5/Timeout_Timer_Isr.c **** *******************************************************************************/
 352:.\Generated_Source\PSoC5/Timeout_Timer_Isr.c **** void Timeout_Timer_Isr_Disable(void)
 353:.\Generated_Source\PSoC5/Timeout_Timer_Isr.c **** {
 354:.\Generated_Source\PSoC5/Timeout_Timer_Isr.c ****     /* Disable the general interrupt. */
 355:.\Generated_Source\PSoC5/Timeout_Timer_Isr.c ****     *Timeout_Timer_Isr_INTC_CLR_EN = Timeout_Timer_Isr__INTC_MASK;
  76              		.loc 1 355 0
  77 0000 074A     		ldr	r2, .L5
  78 0002 0123     		movs	r3, #1
  79 0004 1360     		str	r3, [r2]
  80              	.LVL2:
  81              	.LBE23:
  82              	.LBE22:
  83              	.LBB24:
  84              	.LBB25:
 207:.\Generated_Source\PSoC5/Timeout_Timer_Isr.c ****     ramVectorTable = (cyisraddress *) *CYINT_VECT_TABLE;
  85              		.loc 1 207 0
  86 0006 02F68832 		addw	r2, r2, #2952
  87 000a 1268     		ldr	r2, [r2]
  88              	.LVL3:
 209:.\Generated_Source\PSoC5/Timeout_Timer_Isr.c ****     ramVectorTable[CYINT_IRQ_BASE + (uint32)Timeout_Timer_Isr__INTC_NUMBER] = address;
  89              		.loc 1 209 0
  90 000c 0549     		ldr	r1, .L5+4
  91 000e 1164     		str	r1, [r2, #64]
  92              	.LVL4:
  93              	.LBE25:
  94              	.LBE24:
  95              	.LBB26:
  96              	.LBB27:
 263:.\Generated_Source\PSoC5/Timeout_Timer_Isr.c ****     *Timeout_Timer_Isr_INTC_PRIOR = priority << 5;
ARM GAS  C:\Users\Yiquing\AppData\Local\Temp\cc7oDTRr.s 			page 9


  97              		.loc 1 263 0
  98 0010 054A     		ldr	r2, .L5+8
  99              	.LVL5:
 100 0012 E021     		movs	r1, #224
 101 0014 1170     		strb	r1, [r2]
 102              	.LBE27:
 103              	.LBE26:
 104              	.LBB28:
 105              	.LBB29:
 313:.\Generated_Source\PSoC5/Timeout_Timer_Isr.c ****     *Timeout_Timer_Isr_INTC_SET_EN = Timeout_Timer_Isr__INTC_MASK;
 106              		.loc 1 313 0
 107 0016 A2F54072 		sub	r2, r2, #768
 108 001a 1360     		str	r3, [r2]
 109 001c 7047     		bx	lr
 110              	.L6:
 111 001e 00BF     		.align	2
 112              	.L5:
 113 0020 80E100E0 		.word	-536813184
 114 0024 00000000 		.word	Timeout_Timer_Isr_Interrupt
 115 0028 00E400E0 		.word	-536812544
 116              	.LBE29:
 117              	.LBE28:
 118              		.cfi_endproc
 119              	.LFE0:
 120              		.size	Timeout_Timer_Isr_Start, .-Timeout_Timer_Isr_Start
 121              		.section	.text.Timeout_Timer_Isr_StartEx,"ax",%progbits
 122              		.align	1
 123              		.global	Timeout_Timer_Isr_StartEx
 124              		.thumb
 125              		.thumb_func
 126              		.type	Timeout_Timer_Isr_StartEx, %function
 127              	Timeout_Timer_Isr_StartEx:
 128              	.LFB1:
 108:.\Generated_Source\PSoC5/Timeout_Timer_Isr.c **** {
 129              		.loc 1 108 0
 130              		.cfi_startproc
 131              		@ args = 0, pretend = 0, frame = 0
 132              		@ frame_needed = 0, uses_anonymous_args = 0
 133              		@ link register save eliminated.
 134              	.LVL6:
 135              	.LBB30:
 136              	.LBB31:
 137              		.loc 1 355 0
 138 0000 064A     		ldr	r2, .L8
 139 0002 0123     		movs	r3, #1
 140 0004 1360     		str	r3, [r2]
 141              	.LVL7:
 142              	.LBE31:
 143              	.LBE30:
 144              	.LBB32:
 145              	.LBB33:
 207:.\Generated_Source\PSoC5/Timeout_Timer_Isr.c ****     ramVectorTable = (cyisraddress *) *CYINT_VECT_TABLE;
 146              		.loc 1 207 0
 147 0006 02F68832 		addw	r2, r2, #2952
 148 000a 1268     		ldr	r2, [r2]
 149              	.LVL8:
 150              	.LBE33:
ARM GAS  C:\Users\Yiquing\AppData\Local\Temp\cc7oDTRr.s 			page 10


 151              	.LBE32:
 152              	.LBB35:
 153              	.LBB36:
 263:.\Generated_Source\PSoC5/Timeout_Timer_Isr.c ****     *Timeout_Timer_Isr_INTC_PRIOR = priority << 5;
 154              		.loc 1 263 0
 155 000c E021     		movs	r1, #224
 156              	.LBE36:
 157              	.LBE35:
 158              	.LBB38:
 159              	.LBB34:
 209:.\Generated_Source\PSoC5/Timeout_Timer_Isr.c ****     ramVectorTable[CYINT_IRQ_BASE + (uint32)Timeout_Timer_Isr__INTC_NUMBER] = address;
 160              		.loc 1 209 0
 161 000e 1064     		str	r0, [r2, #64]
 162              	.LVL9:
 163              	.LBE34:
 164              	.LBE38:
 165              	.LBB39:
 166              	.LBB37:
 263:.\Generated_Source\PSoC5/Timeout_Timer_Isr.c ****     *Timeout_Timer_Isr_INTC_PRIOR = priority << 5;
 167              		.loc 1 263 0
 168 0010 034A     		ldr	r2, .L8+4
 169              	.LVL10:
 170 0012 1170     		strb	r1, [r2]
 171              	.LBE37:
 172              	.LBE39:
 173              	.LBB40:
 174              	.LBB41:
 313:.\Generated_Source\PSoC5/Timeout_Timer_Isr.c ****     *Timeout_Timer_Isr_INTC_SET_EN = Timeout_Timer_Isr__INTC_MASK;
 175              		.loc 1 313 0
 176 0014 A2F54072 		sub	r2, r2, #768
 177 0018 1360     		str	r3, [r2]
 178 001a 7047     		bx	lr
 179              	.L9:
 180              		.align	2
 181              	.L8:
 182 001c 80E100E0 		.word	-536813184
 183 0020 00E400E0 		.word	-536812544
 184              	.LBE41:
 185              	.LBE40:
 186              		.cfi_endproc
 187              	.LFE1:
 188              		.size	Timeout_Timer_Isr_StartEx, .-Timeout_Timer_Isr_StartEx
 189              		.section	.text.Timeout_Timer_Isr_Stop,"ax",%progbits
 190              		.align	1
 191              		.global	Timeout_Timer_Isr_Stop
 192              		.thumb
 193              		.thumb_func
 194              		.type	Timeout_Timer_Isr_Stop, %function
 195              	Timeout_Timer_Isr_Stop:
 196              	.LFB2:
 138:.\Generated_Source\PSoC5/Timeout_Timer_Isr.c **** {
 197              		.loc 1 138 0
 198              		.cfi_startproc
 199              		@ args = 0, pretend = 0, frame = 0
 200              		@ frame_needed = 0, uses_anonymous_args = 0
 201              		@ link register save eliminated.
 202              	.LBB42:
ARM GAS  C:\Users\Yiquing\AppData\Local\Temp\cc7oDTRr.s 			page 11


 203              	.LBB43:
 204              		.loc 1 355 0
 205 0000 044B     		ldr	r3, .L11
 206 0002 0122     		movs	r2, #1
 207 0004 1A60     		str	r2, [r3]
 208              	.LVL11:
 209              	.LBE43:
 210              	.LBE42:
 211              	.LBB44:
 212              	.LBB45:
 207:.\Generated_Source\PSoC5/Timeout_Timer_Isr.c ****     ramVectorTable = (cyisraddress *) *CYINT_VECT_TABLE;
 213              		.loc 1 207 0
 214 0006 03F68833 		addw	r3, r3, #2952
 215 000a 1B68     		ldr	r3, [r3]
 216              	.LVL12:
 209:.\Generated_Source\PSoC5/Timeout_Timer_Isr.c ****     ramVectorTable[CYINT_IRQ_BASE + (uint32)Timeout_Timer_Isr__INTC_NUMBER] = address;
 217              		.loc 1 209 0
 218 000c 024A     		ldr	r2, .L11+4
 219 000e 1A64     		str	r2, [r3, #64]
 220 0010 7047     		bx	lr
 221              	.L12:
 222 0012 00BF     		.align	2
 223              	.L11:
 224 0014 80E100E0 		.word	-536813184
 225 0018 00000000 		.word	IntDefaultHandler
 226              	.LBE45:
 227              	.LBE44:
 228              		.cfi_endproc
 229              	.LFE2:
 230              		.size	Timeout_Timer_Isr_Stop, .-Timeout_Timer_Isr_Stop
 231              		.section	.text.Timeout_Timer_Isr_SetVector,"ax",%progbits
 232              		.align	1
 233              		.global	Timeout_Timer_Isr_SetVector
 234              		.thumb
 235              		.thumb_func
 236              		.type	Timeout_Timer_Isr_SetVector, %function
 237              	Timeout_Timer_Isr_SetVector:
 238              	.LFB4:
 204:.\Generated_Source\PSoC5/Timeout_Timer_Isr.c **** {
 239              		.loc 1 204 0
 240              		.cfi_startproc
 241              		@ args = 0, pretend = 0, frame = 0
 242              		@ frame_needed = 0, uses_anonymous_args = 0
 243              		@ link register save eliminated.
 244              	.LVL13:
 207:.\Generated_Source\PSoC5/Timeout_Timer_Isr.c ****     ramVectorTable = (cyisraddress *) *CYINT_VECT_TABLE;
 245              		.loc 1 207 0
 246 0000 014B     		ldr	r3, .L14
 247 0002 1B68     		ldr	r3, [r3]
 248              	.LVL14:
 209:.\Generated_Source\PSoC5/Timeout_Timer_Isr.c ****     ramVectorTable[CYINT_IRQ_BASE + (uint32)Timeout_Timer_Isr__INTC_NUMBER] = address;
 249              		.loc 1 209 0
 250 0004 1864     		str	r0, [r3, #64]
 251 0006 7047     		bx	lr
 252              	.L15:
 253              		.align	2
 254              	.L14:
ARM GAS  C:\Users\Yiquing\AppData\Local\Temp\cc7oDTRr.s 			page 12


 255 0008 08ED00E0 		.word	-536810232
 256              		.cfi_endproc
 257              	.LFE4:
 258              		.size	Timeout_Timer_Isr_SetVector, .-Timeout_Timer_Isr_SetVector
 259              		.section	.text.Timeout_Timer_Isr_GetVector,"ax",%progbits
 260              		.align	1
 261              		.global	Timeout_Timer_Isr_GetVector
 262              		.thumb
 263              		.thumb_func
 264              		.type	Timeout_Timer_Isr_GetVector, %function
 265              	Timeout_Timer_Isr_GetVector:
 266              	.LFB5:
 228:.\Generated_Source\PSoC5/Timeout_Timer_Isr.c **** {
 267              		.loc 1 228 0
 268              		.cfi_startproc
 269              		@ args = 0, pretend = 0, frame = 0
 270              		@ frame_needed = 0, uses_anonymous_args = 0
 271              		@ link register save eliminated.
 272              	.LVL15:
 231:.\Generated_Source\PSoC5/Timeout_Timer_Isr.c ****     ramVectorTable = (cyisraddress *) *CYINT_VECT_TABLE;
 273              		.loc 1 231 0
 274 0000 014B     		ldr	r3, .L17
 275              	.LVL16:
 233:.\Generated_Source\PSoC5/Timeout_Timer_Isr.c ****     return ramVectorTable[CYINT_IRQ_BASE + (uint32)Timeout_Timer_Isr__INTC_NUMBER];
 276              		.loc 1 233 0
 277 0002 1B68     		ldr	r3, [r3]
 278              	.LVL17:
 234:.\Generated_Source\PSoC5/Timeout_Timer_Isr.c **** }
 279              		.loc 1 234 0
 280 0004 186C     		ldr	r0, [r3, #64]
 281 0006 7047     		bx	lr
 282              	.L18:
 283              		.align	2
 284              	.L17:
 285 0008 08ED00E0 		.word	-536810232
 286              		.cfi_endproc
 287              	.LFE5:
 288              		.size	Timeout_Timer_Isr_GetVector, .-Timeout_Timer_Isr_GetVector
 289              		.section	.text.Timeout_Timer_Isr_SetPriority,"ax",%progbits
 290              		.align	1
 291              		.global	Timeout_Timer_Isr_SetPriority
 292              		.thumb
 293              		.thumb_func
 294              		.type	Timeout_Timer_Isr_SetPriority, %function
 295              	Timeout_Timer_Isr_SetPriority:
 296              	.LFB6:
 262:.\Generated_Source\PSoC5/Timeout_Timer_Isr.c **** {
 297              		.loc 1 262 0
 298              		.cfi_startproc
 299              		@ args = 0, pretend = 0, frame = 0
 300              		@ frame_needed = 0, uses_anonymous_args = 0
 301              		@ link register save eliminated.
 302              	.LVL18:
 263:.\Generated_Source\PSoC5/Timeout_Timer_Isr.c ****     *Timeout_Timer_Isr_INTC_PRIOR = priority << 5;
 303              		.loc 1 263 0
 304 0000 4001     		lsls	r0, r0, #5
 305              	.LVL19:
ARM GAS  C:\Users\Yiquing\AppData\Local\Temp\cc7oDTRr.s 			page 13


 306 0002 024B     		ldr	r3, .L20
 307 0004 C0B2     		uxtb	r0, r0
 308 0006 1870     		strb	r0, [r3]
 309 0008 7047     		bx	lr
 310              	.L21:
 311 000a 00BF     		.align	2
 312              	.L20:
 313 000c 00E400E0 		.word	-536812544
 314              		.cfi_endproc
 315              	.LFE6:
 316              		.size	Timeout_Timer_Isr_SetPriority, .-Timeout_Timer_Isr_SetPriority
 317              		.section	.text.Timeout_Timer_Isr_GetPriority,"ax",%progbits
 318              		.align	1
 319              		.global	Timeout_Timer_Isr_GetPriority
 320              		.thumb
 321              		.thumb_func
 322              		.type	Timeout_Timer_Isr_GetPriority, %function
 323              	Timeout_Timer_Isr_GetPriority:
 324              	.LFB7:
 284:.\Generated_Source\PSoC5/Timeout_Timer_Isr.c **** {
 325              		.loc 1 284 0
 326              		.cfi_startproc
 327              		@ args = 0, pretend = 0, frame = 0
 328              		@ frame_needed = 0, uses_anonymous_args = 0
 329              		@ link register save eliminated.
 288:.\Generated_Source\PSoC5/Timeout_Timer_Isr.c ****     priority = *Timeout_Timer_Isr_INTC_PRIOR >> 5;
 330              		.loc 1 288 0
 331 0000 014B     		ldr	r3, .L23
 332 0002 1878     		ldrb	r0, [r3]	@ zero_extendqisi2
 333              	.LVL20:
 291:.\Generated_Source\PSoC5/Timeout_Timer_Isr.c **** }
 334              		.loc 1 291 0
 335 0004 4009     		lsrs	r0, r0, #5
 336              	.LVL21:
 337 0006 7047     		bx	lr
 338              	.L24:
 339              		.align	2
 340              	.L23:
 341 0008 00E400E0 		.word	-536812544
 342              		.cfi_endproc
 343              	.LFE7:
 344              		.size	Timeout_Timer_Isr_GetPriority, .-Timeout_Timer_Isr_GetPriority
 345              		.section	.text.Timeout_Timer_Isr_Enable,"ax",%progbits
 346              		.align	1
 347              		.global	Timeout_Timer_Isr_Enable
 348              		.thumb
 349              		.thumb_func
 350              		.type	Timeout_Timer_Isr_Enable, %function
 351              	Timeout_Timer_Isr_Enable:
 352              	.LFB8:
 311:.\Generated_Source\PSoC5/Timeout_Timer_Isr.c **** {
 353              		.loc 1 311 0
 354              		.cfi_startproc
 355              		@ args = 0, pretend = 0, frame = 0
 356              		@ frame_needed = 0, uses_anonymous_args = 0
 357              		@ link register save eliminated.
 313:.\Generated_Source\PSoC5/Timeout_Timer_Isr.c ****     *Timeout_Timer_Isr_INTC_SET_EN = Timeout_Timer_Isr__INTC_MASK;
ARM GAS  C:\Users\Yiquing\AppData\Local\Temp\cc7oDTRr.s 			page 14


 358              		.loc 1 313 0
 359 0000 014B     		ldr	r3, .L26
 360 0002 0122     		movs	r2, #1
 361 0004 1A60     		str	r2, [r3]
 362 0006 7047     		bx	lr
 363              	.L27:
 364              		.align	2
 365              	.L26:
 366 0008 00E100E0 		.word	-536813312
 367              		.cfi_endproc
 368              	.LFE8:
 369              		.size	Timeout_Timer_Isr_Enable, .-Timeout_Timer_Isr_Enable
 370              		.section	.text.Timeout_Timer_Isr_GetState,"ax",%progbits
 371              		.align	1
 372              		.global	Timeout_Timer_Isr_GetState
 373              		.thumb
 374              		.thumb_func
 375              		.type	Timeout_Timer_Isr_GetState, %function
 376              	Timeout_Timer_Isr_GetState:
 377              	.LFB9:
 332:.\Generated_Source\PSoC5/Timeout_Timer_Isr.c **** {
 378              		.loc 1 332 0
 379              		.cfi_startproc
 380              		@ args = 0, pretend = 0, frame = 0
 381              		@ frame_needed = 0, uses_anonymous_args = 0
 382              		@ link register save eliminated.
 334:.\Generated_Source\PSoC5/Timeout_Timer_Isr.c ****     return ((*Timeout_Timer_Isr_INTC_SET_EN & (uint32)Timeout_Timer_Isr__INTC_MASK) != 0u) ? 1u:0u;
 383              		.loc 1 334 0
 384 0000 024B     		ldr	r3, .L29
 385 0002 1868     		ldr	r0, [r3]
 335:.\Generated_Source\PSoC5/Timeout_Timer_Isr.c **** }
 386              		.loc 1 335 0
 387 0004 00F00100 		and	r0, r0, #1
 388 0008 7047     		bx	lr
 389              	.L30:
 390 000a 00BF     		.align	2
 391              	.L29:
 392 000c 00E100E0 		.word	-536813312
 393              		.cfi_endproc
 394              	.LFE9:
 395              		.size	Timeout_Timer_Isr_GetState, .-Timeout_Timer_Isr_GetState
 396              		.section	.text.Timeout_Timer_Isr_Disable,"ax",%progbits
 397              		.align	1
 398              		.global	Timeout_Timer_Isr_Disable
 399              		.thumb
 400              		.thumb_func
 401              		.type	Timeout_Timer_Isr_Disable, %function
 402              	Timeout_Timer_Isr_Disable:
 403              	.LFB10:
 353:.\Generated_Source\PSoC5/Timeout_Timer_Isr.c **** {
 404              		.loc 1 353 0
 405              		.cfi_startproc
 406              		@ args = 0, pretend = 0, frame = 0
 407              		@ frame_needed = 0, uses_anonymous_args = 0
 408              		@ link register save eliminated.
 409              		.loc 1 355 0
 410 0000 014B     		ldr	r3, .L32
ARM GAS  C:\Users\Yiquing\AppData\Local\Temp\cc7oDTRr.s 			page 15


 411 0002 0122     		movs	r2, #1
 412 0004 1A60     		str	r2, [r3]
 413 0006 7047     		bx	lr
 414              	.L33:
 415              		.align	2
 416              	.L32:
 417 0008 80E100E0 		.word	-536813184
 418              		.cfi_endproc
 419              	.LFE10:
 420              		.size	Timeout_Timer_Isr_Disable, .-Timeout_Timer_Isr_Disable
 421              		.section	.text.Timeout_Timer_Isr_SetPending,"ax",%progbits
 422              		.align	1
 423              		.global	Timeout_Timer_Isr_SetPending
 424              		.thumb
 425              		.thumb_func
 426              		.type	Timeout_Timer_Isr_SetPending, %function
 427              	Timeout_Timer_Isr_SetPending:
 428              	.LFB11:
 356:.\Generated_Source\PSoC5/Timeout_Timer_Isr.c **** }
 357:.\Generated_Source\PSoC5/Timeout_Timer_Isr.c **** 
 358:.\Generated_Source\PSoC5/Timeout_Timer_Isr.c **** 
 359:.\Generated_Source\PSoC5/Timeout_Timer_Isr.c **** /*******************************************************************************
 360:.\Generated_Source\PSoC5/Timeout_Timer_Isr.c **** * Function Name: Timeout_Timer_Isr_SetPending
 361:.\Generated_Source\PSoC5/Timeout_Timer_Isr.c **** ********************************************************************************
 362:.\Generated_Source\PSoC5/Timeout_Timer_Isr.c **** *
 363:.\Generated_Source\PSoC5/Timeout_Timer_Isr.c **** * Summary:
 364:.\Generated_Source\PSoC5/Timeout_Timer_Isr.c **** *   Causes the Interrupt to enter the pending state, a software method of
 365:.\Generated_Source\PSoC5/Timeout_Timer_Isr.c **** *   generating the interrupt.
 366:.\Generated_Source\PSoC5/Timeout_Timer_Isr.c **** *
 367:.\Generated_Source\PSoC5/Timeout_Timer_Isr.c **** * Parameters:
 368:.\Generated_Source\PSoC5/Timeout_Timer_Isr.c **** *   None
 369:.\Generated_Source\PSoC5/Timeout_Timer_Isr.c **** *
 370:.\Generated_Source\PSoC5/Timeout_Timer_Isr.c **** * Return:
 371:.\Generated_Source\PSoC5/Timeout_Timer_Isr.c **** *   None
 372:.\Generated_Source\PSoC5/Timeout_Timer_Isr.c **** *
 373:.\Generated_Source\PSoC5/Timeout_Timer_Isr.c **** * Side Effects:
 374:.\Generated_Source\PSoC5/Timeout_Timer_Isr.c **** *   If interrupts are enabled and the interrupt is set up properly, the ISR is
 375:.\Generated_Source\PSoC5/Timeout_Timer_Isr.c **** *   entered (depending on the priority of this interrupt and other pending 
 376:.\Generated_Source\PSoC5/Timeout_Timer_Isr.c **** *   interrupts).
 377:.\Generated_Source\PSoC5/Timeout_Timer_Isr.c **** *
 378:.\Generated_Source\PSoC5/Timeout_Timer_Isr.c **** *******************************************************************************/
 379:.\Generated_Source\PSoC5/Timeout_Timer_Isr.c **** void Timeout_Timer_Isr_SetPending(void)
 380:.\Generated_Source\PSoC5/Timeout_Timer_Isr.c **** {
 429              		.loc 1 380 0
 430              		.cfi_startproc
 431              		@ args = 0, pretend = 0, frame = 0
 432              		@ frame_needed = 0, uses_anonymous_args = 0
 433              		@ link register save eliminated.
 381:.\Generated_Source\PSoC5/Timeout_Timer_Isr.c ****     *Timeout_Timer_Isr_INTC_SET_PD = Timeout_Timer_Isr__INTC_MASK;
 434              		.loc 1 381 0
 435 0000 014B     		ldr	r3, .L35
 436 0002 0122     		movs	r2, #1
 437 0004 1A60     		str	r2, [r3]
 438 0006 7047     		bx	lr
 439              	.L36:
 440              		.align	2
 441              	.L35:
ARM GAS  C:\Users\Yiquing\AppData\Local\Temp\cc7oDTRr.s 			page 16


 442 0008 00E200E0 		.word	-536813056
 443              		.cfi_endproc
 444              	.LFE11:
 445              		.size	Timeout_Timer_Isr_SetPending, .-Timeout_Timer_Isr_SetPending
 446              		.section	.text.Timeout_Timer_Isr_ClearPending,"ax",%progbits
 447              		.align	1
 448              		.global	Timeout_Timer_Isr_ClearPending
 449              		.thumb
 450              		.thumb_func
 451              		.type	Timeout_Timer_Isr_ClearPending, %function
 452              	Timeout_Timer_Isr_ClearPending:
 453              	.LFB12:
 382:.\Generated_Source\PSoC5/Timeout_Timer_Isr.c **** }
 383:.\Generated_Source\PSoC5/Timeout_Timer_Isr.c **** 
 384:.\Generated_Source\PSoC5/Timeout_Timer_Isr.c **** 
 385:.\Generated_Source\PSoC5/Timeout_Timer_Isr.c **** /*******************************************************************************
 386:.\Generated_Source\PSoC5/Timeout_Timer_Isr.c **** * Function Name: Timeout_Timer_Isr_ClearPending
 387:.\Generated_Source\PSoC5/Timeout_Timer_Isr.c **** ********************************************************************************
 388:.\Generated_Source\PSoC5/Timeout_Timer_Isr.c **** *
 389:.\Generated_Source\PSoC5/Timeout_Timer_Isr.c **** * Summary:
 390:.\Generated_Source\PSoC5/Timeout_Timer_Isr.c **** *   Clears a pending interrupt in the interrupt controller.
 391:.\Generated_Source\PSoC5/Timeout_Timer_Isr.c **** *
 392:.\Generated_Source\PSoC5/Timeout_Timer_Isr.c **** *   Note Some interrupt sources are clear-on-read and require the block 
 393:.\Generated_Source\PSoC5/Timeout_Timer_Isr.c **** *   interrupt/status register to be read/cleared with the appropriate block API 
 394:.\Generated_Source\PSoC5/Timeout_Timer_Isr.c **** *   (GPIO, UART, and so on). Otherwise the ISR will continue to remain in 
 395:.\Generated_Source\PSoC5/Timeout_Timer_Isr.c **** *   pending state even though the interrupt itself is cleared using this API.
 396:.\Generated_Source\PSoC5/Timeout_Timer_Isr.c **** *
 397:.\Generated_Source\PSoC5/Timeout_Timer_Isr.c **** * Parameters:
 398:.\Generated_Source\PSoC5/Timeout_Timer_Isr.c **** *   None
 399:.\Generated_Source\PSoC5/Timeout_Timer_Isr.c **** *
 400:.\Generated_Source\PSoC5/Timeout_Timer_Isr.c **** * Return:
 401:.\Generated_Source\PSoC5/Timeout_Timer_Isr.c **** *   None
 402:.\Generated_Source\PSoC5/Timeout_Timer_Isr.c **** *
 403:.\Generated_Source\PSoC5/Timeout_Timer_Isr.c **** *******************************************************************************/
 404:.\Generated_Source\PSoC5/Timeout_Timer_Isr.c **** void Timeout_Timer_Isr_ClearPending(void)
 405:.\Generated_Source\PSoC5/Timeout_Timer_Isr.c **** {
 454              		.loc 1 405 0
 455              		.cfi_startproc
 456              		@ args = 0, pretend = 0, frame = 0
 457              		@ frame_needed = 0, uses_anonymous_args = 0
 458              		@ link register save eliminated.
 406:.\Generated_Source\PSoC5/Timeout_Timer_Isr.c ****     *Timeout_Timer_Isr_INTC_CLR_PD = Timeout_Timer_Isr__INTC_MASK;
 459              		.loc 1 406 0
 460 0000 014B     		ldr	r3, .L38
 461 0002 0122     		movs	r2, #1
 462 0004 1A60     		str	r2, [r3]
 463 0006 7047     		bx	lr
 464              	.L39:
 465              		.align	2
 466              	.L38:
 467 0008 80E200E0 		.word	-536812928
 468              		.cfi_endproc
 469              	.LFE12:
 470              		.size	Timeout_Timer_Isr_ClearPending, .-Timeout_Timer_Isr_ClearPending
 471              		.global	ledr_on
 472              		.comm	card_in_buf,4,4
 473              		.comm	card_ack,4,4
ARM GAS  C:\Users\Yiquing\AppData\Local\Temp\cc7oDTRr.s 			page 17


 474              		.comm	TAMPERCR_POLARITY,4,4
 475              		.comm	old,1,1
 476              		.comm	currentAccessType,1,1
 477              		.comm	s,40,4
 478              		.bss
 479              		.set	.LANCHOR0,. + 0
 480              		.type	ledr_on, %object
 481              		.size	ledr_on, 1
 482              	ledr_on:
 483 0000 00       		.space	1
 484              		.text
 485              	.Letext0:
 486              		.file 2 "Generated_Source\\PSoC5/cytypes.h"
 487              		.file 3 "./softuart.h"
 488              		.file 4 "./system.h"
 489              		.file 5 ".\\Generated_Source\\PSoC5\\Timeout_Timer.h"
 490              		.file 6 ".\\Generated_Source\\PSoC5\\LEDR_OUT.h"