ARM GAS  C:\Users\yqh\AppData\Local\Temp\ccwEHK2g.s 			page 1


   1              		.syntax unified
   2              		.cpu cortex-m3
   3              		.fpu softvfp
   4              		.eabi_attribute 20, 1
   5              		.eabi_attribute 21, 1
   6              		.eabi_attribute 23, 3
   7              		.eabi_attribute 24, 1
   8              		.eabi_attribute 25, 1
   9              		.eabi_attribute 26, 1
  10              		.eabi_attribute 30, 6
  11              		.eabi_attribute 34, 1
  12              		.eabi_attribute 18, 4
  13              		.thumb
  14              		.file	"BootloadableI2C.c"
  15              		.text
  16              	.Ltext0:
  17              		.cfi_sections	.debug_frame
  18              		.section	.text.BootloadableI2C_Load,"ax",%progbits
  19              		.align	2
  20              		.global	BootloadableI2C_Load
  21              		.thumb
  22              		.thumb_func
  23              		.type	BootloadableI2C_Load, %function
  24              	BootloadableI2C_Load:
  25              	.LFB0:
  26              		.file 1 ".\\Generated_Source\\PSoC5\\BootloadableI2C.c"
   1:.\Generated_Source\PSoC5/BootloadableI2C.c **** /*******************************************************************************
   2:.\Generated_Source\PSoC5/BootloadableI2C.c **** * File Name: BootloadableI2C.c
   3:.\Generated_Source\PSoC5/BootloadableI2C.c **** * Version 1.30
   4:.\Generated_Source\PSoC5/BootloadableI2C.c **** *
   5:.\Generated_Source\PSoC5/BootloadableI2C.c **** *  Description:
   6:.\Generated_Source\PSoC5/BootloadableI2C.c **** *   Provides an API for the Bootloadable application. The API includes a
   7:.\Generated_Source\PSoC5/BootloadableI2C.c **** *   single function for starting the bootloader.
   8:.\Generated_Source\PSoC5/BootloadableI2C.c **** *
   9:.\Generated_Source\PSoC5/BootloadableI2C.c **** ********************************************************************************
  10:.\Generated_Source\PSoC5/BootloadableI2C.c **** * Copyright 2008-2014, Cypress Semiconductor Corporation.  All rights reserved.
  11:.\Generated_Source\PSoC5/BootloadableI2C.c **** * You may use this file only in accordance with the license, terms, conditions,
  12:.\Generated_Source\PSoC5/BootloadableI2C.c **** * disclaimers, and limitations in the end user license agreement accompanying
  13:.\Generated_Source\PSoC5/BootloadableI2C.c **** * the software package with which this file was provided.
  14:.\Generated_Source\PSoC5/BootloadableI2C.c **** *******************************************************************************/
  15:.\Generated_Source\PSoC5/BootloadableI2C.c **** 
  16:.\Generated_Source\PSoC5/BootloadableI2C.c **** #include "BootloadableI2C.h"
  17:.\Generated_Source\PSoC5/BootloadableI2C.c **** 
  18:.\Generated_Source\PSoC5/BootloadableI2C.c **** 
  19:.\Generated_Source\PSoC5/BootloadableI2C.c **** /*******************************************************************************
  20:.\Generated_Source\PSoC5/BootloadableI2C.c **** * Function Name: BootloadableI2C_Load
  21:.\Generated_Source\PSoC5/BootloadableI2C.c **** ********************************************************************************
  22:.\Generated_Source\PSoC5/BootloadableI2C.c **** * Summary:
  23:.\Generated_Source\PSoC5/BootloadableI2C.c **** *  Begins the bootloading algorithm downloading a new ACD image from the host.
  24:.\Generated_Source\PSoC5/BootloadableI2C.c **** *
  25:.\Generated_Source\PSoC5/BootloadableI2C.c **** * Parameters:
  26:.\Generated_Source\PSoC5/BootloadableI2C.c **** *  None
  27:.\Generated_Source\PSoC5/BootloadableI2C.c **** *
  28:.\Generated_Source\PSoC5/BootloadableI2C.c **** * Returns:
  29:.\Generated_Source\PSoC5/BootloadableI2C.c **** *  This method will never return. It will load a new application and reset
  30:.\Generated_Source\PSoC5/BootloadableI2C.c **** *  the device.
  31:.\Generated_Source\PSoC5/BootloadableI2C.c **** *
ARM GAS  C:\Users\yqh\AppData\Local\Temp\ccwEHK2g.s 			page 2


  32:.\Generated_Source\PSoC5/BootloadableI2C.c **** *******************************************************************************/
  33:.\Generated_Source\PSoC5/BootloadableI2C.c **** void BootloadableI2C_Load(void) 
  34:.\Generated_Source\PSoC5/BootloadableI2C.c **** {
  27              		.loc 1 34 0
  28              		.cfi_startproc
  29              		@ args = 0, pretend = 0, frame = 0
  30              		@ frame_needed = 1, uses_anonymous_args = 0
  31 0000 80B5     		push	{r7, lr}
  32              		.cfi_def_cfa_offset 8
  33              		.cfi_offset 7, -8
  34              		.cfi_offset 14, -4
  35 0002 00AF     		add	r7, sp, #0
  36              		.cfi_def_cfa_register 7
  35:.\Generated_Source\PSoC5/BootloadableI2C.c ****     /* Schedule Bootloader to start after reset */
  36:.\Generated_Source\PSoC5/BootloadableI2C.c ****     BootloadableI2C_SET_RUN_TYPE(BootloadableI2C_START_BTLDR);
  37              		.loc 1 36 0
  38 0004 024B     		ldr	r3, .L2
  39 0006 4022     		movs	r2, #64
  40 0008 1A70     		strb	r2, [r3]
  37:.\Generated_Source\PSoC5/BootloadableI2C.c **** 
  38:.\Generated_Source\PSoC5/BootloadableI2C.c ****     CySoftwareReset();
  41              		.loc 1 38 0
  42 000a FFF7FEFF 		bl	CySoftwareReset
  39:.\Generated_Source\PSoC5/BootloadableI2C.c **** }
  43              		.loc 1 39 0
  44 000e 80BD     		pop	{r7, pc}
  45              	.L3:
  46              		.align	2
  47              	.L2:
  48 0010 FA460040 		.word	1073759994
  49              		.cfi_endproc
  50              	.LFE0:
  51              		.size	BootloadableI2C_Load, .-BootloadableI2C_Load
  52              		.section	.text.BootloadableI2C_SetFlashByte,"ax",%progbits
  53              		.align	2
  54              		.global	BootloadableI2C_SetFlashByte
  55              		.thumb
  56              		.thumb_func
  57              		.type	BootloadableI2C_SetFlashByte, %function
  58              	BootloadableI2C_SetFlashByte:
  59              	.LFB1:
  40:.\Generated_Source\PSoC5/BootloadableI2C.c **** 
  41:.\Generated_Source\PSoC5/BootloadableI2C.c **** 
  42:.\Generated_Source\PSoC5/BootloadableI2C.c **** /*******************************************************************************
  43:.\Generated_Source\PSoC5/BootloadableI2C.c **** * The following code is OBSOLETE and must not be used.
  44:.\Generated_Source\PSoC5/BootloadableI2C.c **** *******************************************************************************/
  45:.\Generated_Source\PSoC5/BootloadableI2C.c **** void BootloadableI2C_SetFlashByte(uint32 address, uint8 runType) 
  46:.\Generated_Source\PSoC5/BootloadableI2C.c **** {
  60              		.loc 1 46 0
  61              		.cfi_startproc
  62              		@ args = 0, pretend = 0, frame = 280
  63              		@ frame_needed = 1, uses_anonymous_args = 0
  64 0000 80B5     		push	{r7, lr}
  65              		.cfi_def_cfa_offset 8
  66              		.cfi_offset 7, -8
  67              		.cfi_offset 14, -4
  68 0002 C6B0     		sub	sp, sp, #280
ARM GAS  C:\Users\yqh\AppData\Local\Temp\ccwEHK2g.s 			page 3


  69              		.cfi_def_cfa_offset 288
  70 0004 00AF     		add	r7, sp, #0
  71              		.cfi_def_cfa_register 7
  72 0006 3B1D     		adds	r3, r7, #4
  73 0008 1860     		str	r0, [r3]
  74 000a 0A46     		mov	r2, r1
  75 000c FB1C     		adds	r3, r7, #3
  76 000e 1A70     		strb	r2, [r3]
  47:.\Generated_Source\PSoC5/BootloadableI2C.c ****     uint32 flsAddr = address - CYDEV_FLASH_BASE;
  77              		.loc 1 47 0
  78 0010 3B1D     		adds	r3, r7, #4
  79 0012 1B68     		ldr	r3, [r3]
  80 0014 C7F81031 		str	r3, [r7, #272]
  48:.\Generated_Source\PSoC5/BootloadableI2C.c ****     uint8  rowData[CYDEV_FLS_ROW_SIZE];
  49:.\Generated_Source\PSoC5/BootloadableI2C.c **** 
  50:.\Generated_Source\PSoC5/BootloadableI2C.c ****     #if !(CY_PSOC4)
  51:.\Generated_Source\PSoC5/BootloadableI2C.c ****         uint8 arrayId = ( uint8 )(flsAddr / CYDEV_FLS_SECTOR_SIZE);
  81              		.loc 1 51 0
  82 0018 D7F81031 		ldr	r3, [r7, #272]
  83 001c 1B0C     		lsrs	r3, r3, #16
  84 001e 87F80F31 		strb	r3, [r7, #271]
  52:.\Generated_Source\PSoC5/BootloadableI2C.c ****     #endif  /* !(CY_PSOC4) */
  53:.\Generated_Source\PSoC5/BootloadableI2C.c **** 
  54:.\Generated_Source\PSoC5/BootloadableI2C.c ****     #if (CY_PSOC4)
  55:.\Generated_Source\PSoC5/BootloadableI2C.c ****         uint16 rowNum = ( uint16 )(flsAddr / CYDEV_FLS_ROW_SIZE);
  56:.\Generated_Source\PSoC5/BootloadableI2C.c ****     #else
  57:.\Generated_Source\PSoC5/BootloadableI2C.c ****         uint16 rowNum = ( uint16 )((flsAddr % CYDEV_FLS_SECTOR_SIZE) / CYDEV_FLS_ROW_SIZE);
  85              		.loc 1 57 0
  86 0022 D7F81031 		ldr	r3, [r7, #272]
  87 0026 9BB2     		uxth	r3, r3
  88 0028 1B0A     		lsrs	r3, r3, #8
  89 002a A7F80C31 		strh	r3, [r7, #268]	@ movhi
  58:.\Generated_Source\PSoC5/BootloadableI2C.c ****     #endif  /* (CY_PSOC4) */
  59:.\Generated_Source\PSoC5/BootloadableI2C.c **** 
  60:.\Generated_Source\PSoC5/BootloadableI2C.c ****     uint32 baseAddr = address - (address % CYDEV_FLS_ROW_SIZE);
  90              		.loc 1 60 0
  91 002e 3B1D     		adds	r3, r7, #4
  92 0030 1B68     		ldr	r3, [r3]
  93 0032 23F0FF03 		bic	r3, r3, #255
  94 0036 C7F80831 		str	r3, [r7, #264]
  61:.\Generated_Source\PSoC5/BootloadableI2C.c ****     uint16 idx;
  62:.\Generated_Source\PSoC5/BootloadableI2C.c **** 
  63:.\Generated_Source\PSoC5/BootloadableI2C.c **** 
  64:.\Generated_Source\PSoC5/BootloadableI2C.c ****     for (idx = 0u; idx < CYDEV_FLS_ROW_SIZE; idx++)
  95              		.loc 1 64 0
  96 003a 0023     		movs	r3, #0
  97 003c A7F81631 		strh	r3, [r7, #278]	@ movhi
  98 0040 0FE0     		b	.L5
  99              	.L6:
  65:.\Generated_Source\PSoC5/BootloadableI2C.c ****     {
  66:.\Generated_Source\PSoC5/BootloadableI2C.c ****         rowData[idx] = BootloadableI2C_GET_CODE_DATA(baseAddr + idx);
 100              		.loc 1 66 0 discriminator 3
 101 0042 B7F81631 		ldrh	r3, [r7, #278]
 102 0046 B7F81611 		ldrh	r1, [r7, #278]
 103 004a D7F80821 		ldr	r2, [r7, #264]
 104 004e 0A44     		add	r2, r2, r1
 105 0050 1178     		ldrb	r1, [r2]	@ zero_extendqisi2
ARM GAS  C:\Users\yqh\AppData\Local\Temp\ccwEHK2g.s 			page 4


 106 0052 07F10802 		add	r2, r7, #8
 107 0056 D154     		strb	r1, [r2, r3]
  64:.\Generated_Source\PSoC5/BootloadableI2C.c ****     {
 108              		.loc 1 64 0 discriminator 3
 109 0058 B7F81631 		ldrh	r3, [r7, #278]
 110 005c 0133     		adds	r3, r3, #1
 111 005e A7F81631 		strh	r3, [r7, #278]	@ movhi
 112              	.L5:
  64:.\Generated_Source\PSoC5/BootloadableI2C.c ****     {
 113              		.loc 1 64 0 is_stmt 0 discriminator 1
 114 0062 B7F81631 		ldrh	r3, [r7, #278]
 115 0066 FF2B     		cmp	r3, #255
 116 0068 EBD9     		bls	.L6
  67:.\Generated_Source\PSoC5/BootloadableI2C.c ****     }
  68:.\Generated_Source\PSoC5/BootloadableI2C.c ****     rowData[address % CYDEV_FLS_ROW_SIZE] = runType;
 117              		.loc 1 68 0 is_stmt 1
 118 006a 3B1D     		adds	r3, r7, #4
 119 006c 1B68     		ldr	r3, [r3]
 120 006e DBB2     		uxtb	r3, r3
 121 0070 07F10802 		add	r2, r7, #8
 122 0074 F91C     		adds	r1, r7, #3
 123 0076 0978     		ldrb	r1, [r1]
 124 0078 D154     		strb	r1, [r2, r3]
  69:.\Generated_Source\PSoC5/BootloadableI2C.c **** 
  70:.\Generated_Source\PSoC5/BootloadableI2C.c ****     #if(CY_PSOC4)
  71:.\Generated_Source\PSoC5/BootloadableI2C.c ****         (void) CySysFlashWriteRow((uint32) rowNum, rowData);
  72:.\Generated_Source\PSoC5/BootloadableI2C.c ****     #else
  73:.\Generated_Source\PSoC5/BootloadableI2C.c ****         (void) CyWriteRowData(arrayId, rowNum, rowData);
 125              		.loc 1 73 0
 126 007a 97F80F11 		ldrb	r1, [r7, #271]	@ zero_extendqisi2
 127 007e B7F80C21 		ldrh	r2, [r7, #268]
 128 0082 07F10803 		add	r3, r7, #8
 129 0086 0846     		mov	r0, r1
 130 0088 1146     		mov	r1, r2
 131 008a 1A46     		mov	r2, r3
 132 008c FFF7FEFF 		bl	CyWriteRowData
  74:.\Generated_Source\PSoC5/BootloadableI2C.c ****     #endif  /* (CY_PSOC4) */
  75:.\Generated_Source\PSoC5/BootloadableI2C.c **** 
  76:.\Generated_Source\PSoC5/BootloadableI2C.c ****     #if(CY_PSOC5)
  77:.\Generated_Source\PSoC5/BootloadableI2C.c ****         /***************************************************************************
  78:.\Generated_Source\PSoC5/BootloadableI2C.c ****         * When writing Flash, data in the instruction cache can become stale.
  79:.\Generated_Source\PSoC5/BootloadableI2C.c ****         * Therefore, the cache data does not correlate to the data just written to
  80:.\Generated_Source\PSoC5/BootloadableI2C.c ****         * Flash. A call to CyFlushCache() is required to invalidate the data in the
  81:.\Generated_Source\PSoC5/BootloadableI2C.c ****         * cache and force fresh information to be loaded from Flash.
  82:.\Generated_Source\PSoC5/BootloadableI2C.c ****         ***************************************************************************/
  83:.\Generated_Source\PSoC5/BootloadableI2C.c ****         CyFlushCache();
 133              		.loc 1 83 0
 134 0090 FFF7FEFF 		bl	CyFlushCache
  84:.\Generated_Source\PSoC5/BootloadableI2C.c ****     #endif /* (CY_PSOC5) */
  85:.\Generated_Source\PSoC5/BootloadableI2C.c **** }
 135              		.loc 1 85 0
 136 0094 07F58C77 		add	r7, r7, #280
 137              		.cfi_def_cfa_offset 8
 138 0098 BD46     		mov	sp, r7
 139              		.cfi_def_cfa_register 13
 140              		@ sp needed
 141 009a 80BD     		pop	{r7, pc}
ARM GAS  C:\Users\yqh\AppData\Local\Temp\ccwEHK2g.s 			page 5


 142              		.cfi_endproc
 143              	.LFE1:
 144              		.size	BootloadableI2C_SetFlashByte, .-BootloadableI2C_SetFlashByte
 145              		.text
 146              	.Letext0:
 147              		.file 2 ".\\Generated_Source\\PSoC5\\cytypes.h"