ARM GAS  C:\Users\yqh\AppData\Local\Temp\ccnhH1Yy.s 			page 1


   1              		.syntax unified
   2              		.cpu cortex-m3
   3              		.fpu softvfp
   4              		.eabi_attribute 20, 1
   5              		.eabi_attribute 21, 1
   6              		.eabi_attribute 23, 3
   7              		.eabi_attribute 24, 1
   8              		.eabi_attribute 25, 1
   9              		.eabi_attribute 26, 1
  10              		.eabi_attribute 30, 6
  11              		.eabi_attribute 34, 1
  12              		.eabi_attribute 18, 4
  13              		.thumb
  14              		.file	"i2cuart.c"
  15              		.text
  16              	.Ltext0:
  17              		.cfi_sections	.debug_frame
  18              		.comm	s,40,4
  19              		.comm	currentAccessType,1,1
  20              		.comm	hw_old,1,1
  21              		.comm	tp_old,1,1
  22              		.comm	tamperCR_polarity,4,4
  23              		.comm	tamper_out_polarity,4,4
  24              		.comm	card_ack,4,4
  25              		.comm	card_in_buf,4,4
  26              		.section	.text.SendPAC,"ax",%progbits
  27              		.align	2
  28              		.global	SendPAC
  29              		.thumb
  30              		.thumb_func
  31              		.type	SendPAC, %function
  32              	SendPAC:
  33              	.LFB63:
  34              		.file 1 ".\\i2cuart.c"
   1:.\i2cuart.c   **** /* =======================================
   2:.\i2cuart.c   ****  *
   3:.\i2cuart.c   ****  * Copyright YOUR COMPANY, THE YEAR
   4:.\i2cuart.c   ****  * All Rights Reserved
   5:.\i2cuart.c   ****  * UNPUBLISHED, LICENSED SOFTWARE.
   6:.\i2cuart.c   ****  *
   7:.\i2cuart.c   ****  * CONFIDENTIAL AND PROPRIETARY INFORMATION
   8:.\i2cuart.c   ****  * WHICH IS THE PROPERTY OF your company.
   9:.\i2cuart.c   ****  *
  10:.\i2cuart.c   ****  * ========================================
  11:.\i2cuart.c   **** */
  12:.\i2cuart.c   **** 
  13:.\i2cuart.c   **** 
  14:.\i2cuart.c   **** #include <project.h>
  15:.\i2cuart.c   **** #include "system.h"
  16:.\i2cuart.c   **** #include "LED_0.h"
  17:.\i2cuart.c   **** #include "LED_1.h"
  18:.\i2cuart.c   **** #include "LED_2.h"
  19:.\i2cuart.c   **** #include "i2cuart.h"
  20:.\i2cuart.c   **** #include "osdp.h"
  21:.\i2cuart.c   **** 
  22:.\i2cuart.c   **** void SendPAC(unsigned char *bufp)
  23:.\i2cuart.c   **** {
ARM GAS  C:\Users\yqh\AppData\Local\Temp\ccnhH1Yy.s 			page 2


  35              		.loc 1 23 0
  36              		.cfi_startproc
  37              		@ args = 0, pretend = 0, frame = 16
  38              		@ frame_needed = 1, uses_anonymous_args = 0
  39 0000 80B5     		push	{r7, lr}
  40              		.cfi_def_cfa_offset 8
  41              		.cfi_offset 7, -8
  42              		.cfi_offset 14, -4
  43 0002 84B0     		sub	sp, sp, #16
  44              		.cfi_def_cfa_offset 24
  45 0004 00AF     		add	r7, sp, #0
  46              		.cfi_def_cfa_register 7
  47 0006 7860     		str	r0, [r7, #4]
  24:.\i2cuart.c   ****     int i,j;
  25:.\i2cuart.c   ****     LED_GRN_Write(ON);
  48              		.loc 1 25 0
  49 0008 0020     		movs	r0, #0
  50 000a FFF7FEFF 		bl	LED_GRN_Write
  26:.\i2cuart.c   ****     LED_YEL_Write(ON);
  51              		.loc 1 26 0
  52 000e 0020     		movs	r0, #0
  53 0010 FFF7FEFF 		bl	LED_YEL_Write
  27:.\i2cuart.c   ****   
  28:.\i2cuart.c   ****     for( i = 0; i < 20; i++)
  54              		.loc 1 28 0
  55 0014 0023     		movs	r3, #0
  56 0016 FB60     		str	r3, [r7, #12]
  57 0018 12E0     		b	.L2
  58              	.L5:
  29:.\i2cuart.c   ****     {
  30:.\i2cuart.c   ****         for( j= 0; j < PAC_LENGTH ; j++)
  59              		.loc 1 30 0
  60 001a 0023     		movs	r3, #0
  61 001c BB60     		str	r3, [r7, #8]
  62 001e 09E0     		b	.L3
  63              	.L4:
  31:.\i2cuart.c   ****          UART_1_PutChar(bufp[j]);
  64              		.loc 1 31 0 discriminator 3
  65 0020 BB68     		ldr	r3, [r7, #8]
  66 0022 7A68     		ldr	r2, [r7, #4]
  67 0024 1344     		add	r3, r3, r2
  68 0026 1B78     		ldrb	r3, [r3]	@ zero_extendqisi2
  69 0028 1846     		mov	r0, r3
  70 002a FFF7FEFF 		bl	UART_1_PutChar
  30:.\i2cuart.c   ****          UART_1_PutChar(bufp[j]);
  71              		.loc 1 30 0 discriminator 3
  72 002e BB68     		ldr	r3, [r7, #8]
  73 0030 0133     		adds	r3, r3, #1
  74 0032 BB60     		str	r3, [r7, #8]
  75              	.L3:
  30:.\i2cuart.c   ****          UART_1_PutChar(bufp[j]);
  76              		.loc 1 30 0 is_stmt 0 discriminator 1
  77 0034 BB68     		ldr	r3, [r7, #8]
  78 0036 0B2B     		cmp	r3, #11
  79 0038 F2DD     		ble	.L4
  28:.\i2cuart.c   ****     {
  80              		.loc 1 28 0 is_stmt 1 discriminator 2
ARM GAS  C:\Users\yqh\AppData\Local\Temp\ccnhH1Yy.s 			page 3


  81 003a FB68     		ldr	r3, [r7, #12]
  82 003c 0133     		adds	r3, r3, #1
  83 003e FB60     		str	r3, [r7, #12]
  84              	.L2:
  28:.\i2cuart.c   ****     {
  85              		.loc 1 28 0 is_stmt 0 discriminator 1
  86 0040 FB68     		ldr	r3, [r7, #12]
  87 0042 132B     		cmp	r3, #19
  88 0044 E9DD     		ble	.L5
  32:.\i2cuart.c   ****     }
  33:.\i2cuart.c   **** 
  34:.\i2cuart.c   ****     LED_GRN_Write(OFF);
  89              		.loc 1 34 0 is_stmt 1
  90 0046 0120     		movs	r0, #1
  91 0048 FFF7FEFF 		bl	LED_GRN_Write
  35:.\i2cuart.c   ****     LED_YEL_Write(OFF);
  92              		.loc 1 35 0
  93 004c 0120     		movs	r0, #1
  94 004e FFF7FEFF 		bl	LED_YEL_Write
  36:.\i2cuart.c   **** }
  95              		.loc 1 36 0
  96 0052 1037     		adds	r7, r7, #16
  97              		.cfi_def_cfa_offset 8
  98 0054 BD46     		mov	sp, r7
  99              		.cfi_def_cfa_register 13
 100              		@ sp needed
 101 0056 80BD     		pop	{r7, pc}
 102              		.cfi_endproc
 103              	.LFE63:
 104              		.size	SendPAC, .-SendPAC
 105              		.section	.text.ReadPAC,"ax",%progbits
 106              		.align	2
 107              		.global	ReadPAC
 108              		.thumb
 109              		.thumb_func
 110              		.type	ReadPAC, %function
 111              	ReadPAC:
 112              	.LFB64:
  37:.\i2cuart.c   **** 
  38:.\i2cuart.c   **** int ReadPAC(int passmode)
  39:.\i2cuart.c   **** {
 113              		.loc 1 39 0
 114              		.cfi_startproc
 115              		@ args = 0, pretend = 0, frame = 48
 116              		@ frame_needed = 1, uses_anonymous_args = 0
 117 0000 80B5     		push	{r7, lr}
 118              		.cfi_def_cfa_offset 8
 119              		.cfi_offset 7, -8
 120              		.cfi_offset 14, -4
 121 0002 8CB0     		sub	sp, sp, #48
 122              		.cfi_def_cfa_offset 56
 123 0004 00AF     		add	r7, sp, #0
 124              		.cfi_def_cfa_register 7
 125 0006 7860     		str	r0, [r7, #4]
  40:.\i2cuart.c   ****     int byteCount =0;
 126              		.loc 1 40 0
 127 0008 0023     		movs	r3, #0
ARM GAS  C:\Users\yqh\AppData\Local\Temp\ccnhH1Yy.s 			page 4


 128 000a FB62     		str	r3, [r7, #44]
  41:.\i2cuart.c   ****     char tmp;
  42:.\i2cuart.c   ****     char ret = 0;
 129              		.loc 1 42 0
 130 000c 0023     		movs	r3, #0
 131 000e 87F82B30 		strb	r3, [r7, #43]
  43:.\i2cuart.c   ****     unsigned char buffer[BUFFER_LENGTH];  
  44:.\i2cuart.c   ****     int i;
  45:.\i2cuart.c   **** 
  46:.\i2cuart.c   ****     if(UART_1_ReadRxStatus() ==   UART_1_RX_STS_FIFO_NOTEMPTY)
 132              		.loc 1 46 0
 133 0012 FFF7FEFF 		bl	UART_1_ReadRxStatus
 134 0016 0346     		mov	r3, r0
 135 0018 202B     		cmp	r3, #32
 136 001a 6CD1     		bne	.L7
  47:.\i2cuart.c   ****     {
  48:.\i2cuart.c   ****         Timeout_Timer_Isr_Disable();
 137              		.loc 1 48 0
 138 001c FFF7FEFF 		bl	Timeout_Timer_Isr_Disable
  49:.\i2cuart.c   ****         passmode_timeout = 0;
 139              		.loc 1 49 0
 140 0020 384B     		ldr	r3, .L17
 141 0022 0022     		movs	r2, #0
 142 0024 1A60     		str	r2, [r3]
  50:.\i2cuart.c   ****         Timeout_Timer_Isr_Enable();
 143              		.loc 1 50 0
 144 0026 FFF7FEFF 		bl	Timeout_Timer_Isr_Enable
  51:.\i2cuart.c   ****         while(byteCount < PAC_LENGTH)
 145              		.loc 1 51 0
 146 002a 2CE0     		b	.L8
 147              	.L12:
  52:.\i2cuart.c   ****         {
  53:.\i2cuart.c   ****             if(UART_1_ReadRxStatus() ==   UART_1_RX_STS_FIFO_NOTEMPTY)
 148              		.loc 1 53 0
 149 002c FFF7FEFF 		bl	UART_1_ReadRxStatus
 150 0030 0346     		mov	r3, r0
 151 0032 202B     		cmp	r3, #32
 152 0034 20D1     		bne	.L9
  54:.\i2cuart.c   ****             {
  55:.\i2cuart.c   ****                 tmp = UART_1_GetChar();
 153              		.loc 1 55 0
 154 0036 FFF7FEFF 		bl	UART_1_GetChar
 155 003a 0346     		mov	r3, r0
 156 003c 87F82330 		strb	r3, [r7, #35]
  56:.\i2cuart.c   ****                 if(tmp == 0x02)
 157              		.loc 1 56 0
 158 0040 97F82330 		ldrb	r3, [r7, #35]	@ zero_extendqisi2
 159 0044 022B     		cmp	r3, #2
 160 0046 0AD1     		bne	.L10
  57:.\i2cuart.c   ****                 {
  58:.\i2cuart.c   ****                     buffer[byteCount] = tmp;
 161              		.loc 1 58 0
 162 0048 07F10C02 		add	r2, r7, #12
 163 004c FB6A     		ldr	r3, [r7, #44]
 164 004e 1344     		add	r3, r3, r2
 165 0050 97F82320 		ldrb	r2, [r7, #35]
 166 0054 1A70     		strb	r2, [r3]
ARM GAS  C:\Users\yqh\AppData\Local\Temp\ccnhH1Yy.s 			page 5


  59:.\i2cuart.c   ****                     byteCount++;
 167              		.loc 1 59 0
 168 0056 FB6A     		ldr	r3, [r7, #44]
 169 0058 0133     		adds	r3, r3, #1
 170 005a FB62     		str	r3, [r7, #44]
 171 005c 0CE0     		b	.L9
 172              	.L10:
  60:.\i2cuart.c   ****                 }
  61:.\i2cuart.c   ****                 else if(byteCount > 0)
 173              		.loc 1 61 0
 174 005e FB6A     		ldr	r3, [r7, #44]
 175 0060 002B     		cmp	r3, #0
 176 0062 09DD     		ble	.L9
  62:.\i2cuart.c   ****                 {
  63:.\i2cuart.c   ****                     buffer[byteCount] = tmp;
 177              		.loc 1 63 0
 178 0064 07F10C02 		add	r2, r7, #12
 179 0068 FB6A     		ldr	r3, [r7, #44]
 180 006a 1344     		add	r3, r3, r2
 181 006c 97F82320 		ldrb	r2, [r7, #35]
 182 0070 1A70     		strb	r2, [r3]
  64:.\i2cuart.c   ****                     byteCount++;
 183              		.loc 1 64 0
 184 0072 FB6A     		ldr	r3, [r7, #44]
 185 0074 0133     		adds	r3, r3, #1
 186 0076 FB62     		str	r3, [r7, #44]
 187              	.L9:
  65:.\i2cuart.c   ****                 }
  66:.\i2cuart.c   ****             }
  67:.\i2cuart.c   ****             if (passmode_timeout > 2000) return(0);
 188              		.loc 1 67 0
 189 0078 224B     		ldr	r3, .L17
 190 007a 1B68     		ldr	r3, [r3]
 191 007c B3F5FA6F 		cmp	r3, #2000
 192 0080 01DD     		ble	.L8
 193              		.loc 1 67 0 is_stmt 0 discriminator 1
 194 0082 0023     		movs	r3, #0
 195 0084 39E0     		b	.L16
 196              	.L8:
  51:.\i2cuart.c   ****         {
 197              		.loc 1 51 0 is_stmt 1
 198 0086 FB6A     		ldr	r3, [r7, #44]
 199 0088 0B2B     		cmp	r3, #11
 200 008a CFDD     		ble	.L12
  68:.\i2cuart.c   ****         }
  69:.\i2cuart.c   ****         
  70:.\i2cuart.c   ****         if ( passmode)
 201              		.loc 1 70 0
 202 008c 7B68     		ldr	r3, [r7, #4]
 203 008e 002B     		cmp	r3, #0
 204 0090 05D0     		beq	.L13
  71:.\i2cuart.c   ****         {
  72:.\i2cuart.c   ****             SendPAC(buffer);
 205              		.loc 1 72 0
 206 0092 07F10C03 		add	r3, r7, #12
 207 0096 1846     		mov	r0, r3
 208 0098 FFF7FEFF 		bl	SendPAC
ARM GAS  C:\Users\yqh\AppData\Local\Temp\ccnhH1Yy.s 			page 6


 209 009c 2BE0     		b	.L7
 210              	.L13:
  73:.\i2cuart.c   ****         }
  74:.\i2cuart.c   ****         else
  75:.\i2cuart.c   ****         {
  76:.\i2cuart.c   ****             for (i=0; i<PAC_LENGTH; i++)
 211              		.loc 1 76 0
 212 009e 0023     		movs	r3, #0
 213 00a0 7B62     		str	r3, [r7, #36]
 214 00a2 10E0     		b	.L14
 215              	.L15:
  77:.\i2cuart.c   ****             {
  78:.\i2cuart.c   ****                 MyI2C_Regs.buffer[i] = buffer[i];
 216              		.loc 1 78 0 discriminator 3
 217 00a4 07F10C02 		add	r2, r7, #12
 218 00a8 7B6A     		ldr	r3, [r7, #36]
 219 00aa 1344     		add	r3, r3, r2
 220 00ac 1978     		ldrb	r1, [r3]	@ zero_extendqisi2
 221 00ae 164A     		ldr	r2, .L17+4
 222 00b0 7B6A     		ldr	r3, [r7, #36]
 223 00b2 1344     		add	r3, r3, r2
 224 00b4 4833     		adds	r3, r3, #72
 225 00b6 0A46     		mov	r2, r1
 226 00b8 5A70     		strb	r2, [r3, #1]
  79:.\i2cuart.c   ****                 CyDelayUs(1u);  //add some delay for I2C
 227              		.loc 1 79 0 discriminator 3
 228 00ba 0120     		movs	r0, #1
 229 00bc FFF7FEFF 		bl	CyDelayUs
  76:.\i2cuart.c   ****             {
 230              		.loc 1 76 0 discriminator 3
 231 00c0 7B6A     		ldr	r3, [r7, #36]
 232 00c2 0133     		adds	r3, r3, #1
 233 00c4 7B62     		str	r3, [r7, #36]
 234              	.L14:
  76:.\i2cuart.c   ****             {
 235              		.loc 1 76 0 is_stmt 0 discriminator 1
 236 00c6 7B6A     		ldr	r3, [r7, #36]
 237 00c8 0B2B     		cmp	r3, #11
 238 00ca EBDD     		ble	.L15
  80:.\i2cuart.c   ****             }
  81:.\i2cuart.c   ****             UART_1_ClearRxBuffer();
 239              		.loc 1 81 0 is_stmt 1
 240 00cc FFF7FEFF 		bl	UART_1_ClearRxBuffer
  82:.\i2cuart.c   ****             card_in_buf = 1;
 241              		.loc 1 82 0
 242 00d0 0E4B     		ldr	r3, .L17+8
 243 00d2 0122     		movs	r2, #1
 244 00d4 1A60     		str	r2, [r3]
  83:.\i2cuart.c   ****             card_ack = 0;
 245              		.loc 1 83 0
 246 00d6 0E4B     		ldr	r3, .L17+12
 247 00d8 0022     		movs	r2, #0
 248 00da 1A60     		str	r2, [r3]
  84:.\i2cuart.c   ****             MyI2C_Regs.status |= STAT_CHANGE | STAT_CARD_IN;
 249              		.loc 1 84 0
 250 00dc 0A4B     		ldr	r3, .L17+4
 251 00de 1B78     		ldrb	r3, [r3]	@ zero_extendqisi2
ARM GAS  C:\Users\yqh\AppData\Local\Temp\ccnhH1Yy.s 			page 7


 252 00e0 43F00303 		orr	r3, r3, #3
 253 00e4 DAB2     		uxtb	r2, r3
 254 00e6 084B     		ldr	r3, .L17+4
 255 00e8 1A70     		strb	r2, [r3]
  85:.\i2cuart.c   ****             MyI2C_Regs.cmd = CMD_NONE;
 256              		.loc 1 85 0
 257 00ea 074B     		ldr	r3, .L17+4
 258 00ec 0022     		movs	r2, #0
 259 00ee 9A70     		strb	r2, [r3, #2]
  86:.\i2cuart.c   ****             ret = 1;
 260              		.loc 1 86 0
 261 00f0 0123     		movs	r3, #1
 262 00f2 87F82B30 		strb	r3, [r7, #43]
 263              	.L7:
  87:.\i2cuart.c   ****         }
  88:.\i2cuart.c   ****     }
  89:.\i2cuart.c   ****     return ret;
 264              		.loc 1 89 0
 265 00f6 97F82B30 		ldrb	r3, [r7, #43]	@ zero_extendqisi2
 266              	.L16:
  90:.\i2cuart.c   **** }
 267              		.loc 1 90 0 discriminator 1
 268 00fa 1846     		mov	r0, r3
 269 00fc 3037     		adds	r7, r7, #48
 270              		.cfi_def_cfa_offset 8
 271 00fe BD46     		mov	sp, r7
 272              		.cfi_def_cfa_register 13
 273              		@ sp needed
 274 0100 80BD     		pop	{r7, pc}
 275              	.L18:
 276 0102 00BF     		.align	2
 277              	.L17:
 278 0104 00000000 		.word	passmode_timeout
 279 0108 00000000 		.word	MyI2C_Regs
 280 010c 00000000 		.word	card_in_buf
 281 0110 00000000 		.word	card_ack
 282              		.cfi_endproc
 283              	.LFE64:
 284              		.size	ReadPAC, .-ReadPAC
 285              		.section	.text.SetupUART,"ax",%progbits
 286              		.align	2
 287              		.global	SetupUART
 288              		.thumb
 289              		.thumb_func
 290              		.type	SetupUART, %function
 291              	SetupUART:
 292              	.LFB65:
  91:.\i2cuart.c   **** 
  92:.\i2cuart.c   **** void SetupUART(char accessType)
  93:.\i2cuart.c   **** {
 293              		.loc 1 93 0
 294              		.cfi_startproc
 295              		@ args = 0, pretend = 0, frame = 8
 296              		@ frame_needed = 1, uses_anonymous_args = 0
 297 0000 80B5     		push	{r7, lr}
 298              		.cfi_def_cfa_offset 8
 299              		.cfi_offset 7, -8
ARM GAS  C:\Users\yqh\AppData\Local\Temp\ccnhH1Yy.s 			page 8


 300              		.cfi_offset 14, -4
 301 0002 82B0     		sub	sp, sp, #8
 302              		.cfi_def_cfa_offset 16
 303 0004 00AF     		add	r7, sp, #0
 304              		.cfi_def_cfa_register 7
 305 0006 0346     		mov	r3, r0
 306 0008 FB71     		strb	r3, [r7, #7]
  94:.\i2cuart.c   ****     if(currentAccessType != accessType)
 307              		.loc 1 94 0
 308 000a 0C4B     		ldr	r3, .L24
 309 000c 1B78     		ldrb	r3, [r3]	@ zero_extendqisi2
 310 000e FA79     		ldrb	r2, [r7, #7]	@ zero_extendqisi2
 311 0010 9A42     		cmp	r2, r3
 312 0012 10D0     		beq	.L19
  95:.\i2cuart.c   ****     {
  96:.\i2cuart.c   ****         switch(accessType)
 313              		.loc 1 96 0
 314 0014 FB79     		ldrb	r3, [r7, #7]	@ zero_extendqisi2
 315 0016 0C2B     		cmp	r3, #12
 316 0018 02D0     		beq	.L22
 317 001a 1A2B     		cmp	r3, #26
 318 001c 04D0     		beq	.L23
 319 001e 07E0     		b	.L21
 320              	.L22:
  97:.\i2cuart.c   ****         {
  98:.\i2cuart.c   ****             case PAC:
  99:.\i2cuart.c   ****                OptSelect_Write(0);
 321              		.loc 1 99 0
 322 0020 0020     		movs	r0, #0
 323 0022 FFF7FEFF 		bl	OptSelect_Write
 100:.\i2cuart.c   ****                 break;
 324              		.loc 1 100 0
 325 0026 03E0     		b	.L21
 326              	.L23:
 101:.\i2cuart.c   ****             case HID:
 102:.\i2cuart.c   ****                OptSelect_Write(1);
 327              		.loc 1 102 0
 328 0028 0120     		movs	r0, #1
 329 002a FFF7FEFF 		bl	OptSelect_Write
 103:.\i2cuart.c   ****                 break;
 330              		.loc 1 103 0
 331 002e 00BF     		nop
 332              	.L21:
 104:.\i2cuart.c   ****                 
 105:.\i2cuart.c   ****         }
 106:.\i2cuart.c   ****         currentAccessType = accessType;
 333              		.loc 1 106 0
 334 0030 024A     		ldr	r2, .L24
 335 0032 FB79     		ldrb	r3, [r7, #7]
 336 0034 1370     		strb	r3, [r2]
 337              	.L19:
 107:.\i2cuart.c   ****     }
 108:.\i2cuart.c   **** }
 338              		.loc 1 108 0
 339 0036 0837     		adds	r7, r7, #8
 340              		.cfi_def_cfa_offset 8
 341 0038 BD46     		mov	sp, r7
ARM GAS  C:\Users\yqh\AppData\Local\Temp\ccnhH1Yy.s 			page 9


 342              		.cfi_def_cfa_register 13
 343              		@ sp needed
 344 003a 80BD     		pop	{r7, pc}
 345              	.L25:
 346              		.align	2
 347              	.L24:
 348 003c 00000000 		.word	currentAccessType
 349              		.cfi_endproc
 350              	.LFE65:
 351              		.size	SetupUART, .-SetupUART
 352              		.text
 353              	.Letext0:
 354              		.file 2 "c:\\program files (x86)\\cypress\\psoc creator\\3.3\\psoc creator\\import\\gnu\\arm\\4.9.
 355              		.file 3 "c:\\program files (x86)\\cypress\\psoc creator\\3.3\\psoc creator\\import\\gnu\\arm\\4.9.
 356              		.file 4 "Generated_Source\\PSoC5/cytypes.h"
 357              		.file 5 ".\\softuart.h"
 358              		.file 6 ".\\system.h"
 359              		.file 7 "Generated_Source\\PSoC5/core_cm3.h"