ARM GAS  C:\Users\Rajesh\AppData\Local\Temp\ccMXbg4e.s 			page 1


   1              		.syntax unified
   2              		.cpu cortex-m3
   3              		.fpu softvfp
   4              		.eabi_attribute 20, 1
   5              		.eabi_attribute 21, 1
   6              		.eabi_attribute 23, 3
   7              		.eabi_attribute 24, 1
   8              		.eabi_attribute 25, 1
   9              		.eabi_attribute 26, 1
  10              		.eabi_attribute 30, 6
  11              		.eabi_attribute 34, 1
  12              		.eabi_attribute 18, 4
  13              		.thumb
  14              		.syntax unified
  15              		.file	"commandhandler.c"
  16              		.text
  17              	.Ltext0:
  18              		.cfi_sections	.debug_frame
  19              		.comm	s,40,4
  20              		.comm	currentAccessType,1,1
  21              		.comm	hw_old,1,1
  22              		.comm	tp_old,1,1
  23              		.comm	tamperCR_polarity,4,4
  24              		.comm	tamper_out_polarity,4,4
  25              		.comm	card_ack,4,4
  26              		.comm	card_in_buf,4,4
  27              		.comm	osdp_timeout,4,4
  28              		.comm	MyI2C_Regs,476,4
  29              		.comm	run_mode,1,1
  30              		.comm	passmode_timeout,4,4
  31              		.comm	debug_msg_delay,4,4
  32              		.global	poe_en_stat
  33              		.data
  34              		.type	poe_en_stat, %object
  35              		.size	poe_en_stat, 1
  36              	poe_en_stat:
  37 0000 FF       		.byte	-1
  38              		.section	.text.USBUART_PutDataBig,"ax",%progbits
  39              		.align	2
  40              		.global	USBUART_PutDataBig
  41              		.thumb
  42              		.thumb_func
  43              		.type	USBUART_PutDataBig, %function
  44              	USBUART_PutDataBig:
  45              	.LFB63:
  46              		.file 1 "commandhandler.c"
   1:commandhandler.c **** /* ========================================
   2:commandhandler.c ****  *
   3:commandhandler.c ****  * Copyright YOUR COMPANY, THE YEAR
   4:commandhandler.c ****  * All Rights Reserved
   5:commandhandler.c ****  * UNPUBLISHED, LICENSED SOFTWARE.
   6:commandhandler.c ****  *
   7:commandhandler.c ****  * CONFIDENTIAL AND PROPRIETARY INFORMATION
   8:commandhandler.c ****  * WHICH IS THE PROPERTY OF your company.
   9:commandhandler.c ****  *
  10:commandhandler.c ****  * ========================================
  11:commandhandler.c **** */
ARM GAS  C:\Users\Rajesh\AppData\Local\Temp\ccMXbg4e.s 			page 2


  12:commandhandler.c **** #include "system.h"
  13:commandhandler.c **** #include "commandhandler.h"
  14:commandhandler.c **** #include "osdp.h"
  15:commandhandler.c **** #include "f2f.h"
  16:commandhandler.c **** #include "wiegand.h"
  17:commandhandler.c **** #include "i2cuart.h"
  18:commandhandler.c **** #include "toc.h"
  19:commandhandler.c **** #include "hid.h"
  20:commandhandler.c **** I2C_Regs MyI2C_Regs;
  21:commandhandler.c **** unsigned char run_mode;
  22:commandhandler.c **** int passmode_timeout;
  23:commandhandler.c **** int debug_msg_delay;
  24:commandhandler.c **** 
  25:commandhandler.c **** uint8 poe_en_stat=-1;
  26:commandhandler.c **** 
  27:commandhandler.c **** void USBUART_PutDataBig(unsigned char *p,int len)
  28:commandhandler.c **** #define min(a,b) ((a>b)?b:a)
  29:commandhandler.c **** {
  47              		.loc 1 29 0
  48              		.cfi_startproc
  49              		@ args = 0, pretend = 0, frame = 16
  50              		@ frame_needed = 1, uses_anonymous_args = 0
  51 0000 80B5     		push	{r7, lr}
  52              		.cfi_def_cfa_offset 8
  53              		.cfi_offset 7, -8
  54              		.cfi_offset 14, -4
  55 0002 84B0     		sub	sp, sp, #16
  56              		.cfi_def_cfa_offset 24
  57 0004 00AF     		add	r7, sp, #0
  58              		.cfi_def_cfa_register 7
  59 0006 7860     		str	r0, [r7, #4]
  60 0008 3960     		str	r1, [r7]
  30:commandhandler.c ****     int to_send;
  31:commandhandler.c ****     while (len)
  61              		.loc 1 31 0
  62 000a 18E0     		b	.L2
  63              	.L4:
  32:commandhandler.c ****     {
  33:commandhandler.c ****         to_send=min(len,64);
  64              		.loc 1 33 0
  65 000c 3B68     		ldr	r3, [r7]
  66 000e 402B     		cmp	r3, #64
  67 0010 A8BF     		it	ge
  68 0012 4023     		movge	r3, #64
  69 0014 FB60     		str	r3, [r7, #12]
  34:commandhandler.c ****         while(USBUART_CDCIsReady() == 0u);    /* Wait till component is ready to send more data to 
  70              		.loc 1 34 0
  71 0016 00BF     		nop
  72              	.L3:
  73              		.loc 1 34 0 is_stmt 0 discriminator 1
  74 0018 FFF7FEFF 		bl	USBUART_CDCIsReady
  75 001c 0346     		mov	r3, r0
  76 001e 002B     		cmp	r3, #0
  77 0020 FAD0     		beq	.L3
  35:commandhandler.c **** 
  36:commandhandler.c ****         USBUART_PutData(p,to_send);
  78              		.loc 1 36 0 is_stmt 1
ARM GAS  C:\Users\Rajesh\AppData\Local\Temp\ccMXbg4e.s 			page 3


  79 0022 FB68     		ldr	r3, [r7, #12]
  80 0024 9BB2     		uxth	r3, r3
  81 0026 1946     		mov	r1, r3
  82 0028 7868     		ldr	r0, [r7, #4]
  83 002a FFF7FEFF 		bl	USBUART_PutData
  37:commandhandler.c ****         p+=to_send;
  84              		.loc 1 37 0
  85 002e FB68     		ldr	r3, [r7, #12]
  86 0030 7A68     		ldr	r2, [r7, #4]
  87 0032 1344     		add	r3, r3, r2
  88 0034 7B60     		str	r3, [r7, #4]
  38:commandhandler.c ****         len-=to_send;
  89              		.loc 1 38 0
  90 0036 3A68     		ldr	r2, [r7]
  91 0038 FB68     		ldr	r3, [r7, #12]
  92 003a D31A     		subs	r3, r2, r3
  93 003c 3B60     		str	r3, [r7]
  94              	.L2:
  31:commandhandler.c ****     {
  95              		.loc 1 31 0
  96 003e 3B68     		ldr	r3, [r7]
  97 0040 002B     		cmp	r3, #0
  98 0042 E3D1     		bne	.L4
  39:commandhandler.c ****     }
  40:commandhandler.c **** }
  99              		.loc 1 40 0
 100 0044 00BF     		nop
 101 0046 1037     		adds	r7, r7, #16
 102              		.cfi_def_cfa_offset 8
 103 0048 BD46     		mov	sp, r7
 104              		.cfi_def_cfa_register 13
 105              		@ sp needed
 106 004a 80BD     		pop	{r7, pc}
 107              		.cfi_endproc
 108              	.LFE63:
 109              		.size	USBUART_PutDataBig, .-USBUART_PutDataBig
 110              		.section	.text.SendHID,"ax",%progbits
 111              		.align	2
 112              		.global	SendHID
 113              		.thumb
 114              		.thumb_func
 115              		.type	SendHID, %function
 116              	SendHID:
 117              	.LFB64:
  41:commandhandler.c **** 
  42:commandhandler.c **** void SendHID()
  43:commandhandler.c **** {
 118              		.loc 1 43 0
 119              		.cfi_startproc
 120              		@ args = 0, pretend = 0, frame = 48
 121              		@ frame_needed = 1, uses_anonymous_args = 0
 122 0000 80B5     		push	{r7, lr}
 123              		.cfi_def_cfa_offset 8
 124              		.cfi_offset 7, -8
 125              		.cfi_offset 14, -4
 126 0002 8CB0     		sub	sp, sp, #48
 127              		.cfi_def_cfa_offset 56
ARM GAS  C:\Users\Rajesh\AppData\Local\Temp\ccMXbg4e.s 			page 4


 128 0004 00AF     		add	r7, sp, #0
 129              		.cfi_def_cfa_register 7
  44:commandhandler.c ****     Tamper_Timer_Stop();
 130              		.loc 1 44 0
 131 0006 FFF7FEFF 		bl	Tamper_Timer_Stop
  45:commandhandler.c ****     
  46:commandhandler.c ****     char serialOut[20];
  47:commandhandler.c **** 	char tmp;
  48:commandhandler.c **** 	int i,j;
  49:commandhandler.c **** 	int padBytes;
  50:commandhandler.c ****     int xbytes;
  51:commandhandler.c ****     int ybits;
  52:commandhandler.c ****     MyI2C_Regs.data_length[0] = 0;
 132              		.loc 1 52 0
 133 000a 584B     		ldr	r3, .L11
 134 000c 0022     		movs	r2, #0
 135 000e DA71     		strb	r2, [r3, #7]
  53:commandhandler.c ****     MyI2C_Regs.data_length[1] = 26;
 136              		.loc 1 53 0
 137 0010 564B     		ldr	r3, .L11
 138 0012 1A22     		movs	r2, #26
 139 0014 1A72     		strb	r2, [r3, #8]
  54:commandhandler.c ****     xbytes =  MyI2C_Regs.data_length[1]/8;
 140              		.loc 1 54 0
 141 0016 554B     		ldr	r3, .L11
 142 0018 1B7A     		ldrb	r3, [r3, #8]	@ zero_extendqisi2
 143 001a DB08     		lsrs	r3, r3, #3
 144 001c DBB2     		uxtb	r3, r3
 145 001e 3B62     		str	r3, [r7, #32]
  55:commandhandler.c ****     ybits =   MyI2C_Regs.data_length[1] - (xbytes*8);
 146              		.loc 1 55 0
 147 0020 524B     		ldr	r3, .L11
 148 0022 1B7A     		ldrb	r3, [r3, #8]	@ zero_extendqisi2
 149 0024 1A46     		mov	r2, r3
 150 0026 3B6A     		ldr	r3, [r7, #32]
 151 0028 DB00     		lsls	r3, r3, #3
 152 002a D31A     		subs	r3, r2, r3
 153 002c FB61     		str	r3, [r7, #28]
  56:commandhandler.c ****     padBytes = 18  -  xbytes;
 154              		.loc 1 56 0
 155 002e 3B6A     		ldr	r3, [r7, #32]
 156 0030 C3F11203 		rsb	r3, r3, #18
 157 0034 7B62     		str	r3, [r7, #36]
  57:commandhandler.c ****     
  58:commandhandler.c ****     if(ybits  >  0)
 158              		.loc 1 58 0
 159 0036 FB69     		ldr	r3, [r7, #28]
 160 0038 002B     		cmp	r3, #0
 161 003a 02DD     		ble	.L6
  59:commandhandler.c **** 	   padBytes = padBytes - 1;
 162              		.loc 1 59 0
 163 003c 7B6A     		ldr	r3, [r7, #36]
 164 003e 013B     		subs	r3, r3, #1
 165 0040 7B62     		str	r3, [r7, #36]
 166              	.L6:
  60:commandhandler.c ****     
  61:commandhandler.c ****     for (i = 0;i < padBytes;i++)
ARM GAS  C:\Users\Rajesh\AppData\Local\Temp\ccMXbg4e.s 			page 5


 167              		.loc 1 61 0
 168 0042 0023     		movs	r3, #0
 169 0044 FB62     		str	r3, [r7, #44]
 170 0046 0FE0     		b	.L7
 171              	.L8:
  62:commandhandler.c ****     {
  63:commandhandler.c ****        serialOut[i] = 0x00;
 172              		.loc 1 63 0 discriminator 3
 173 0048 3A1D     		adds	r2, r7, #4
 174 004a FB6A     		ldr	r3, [r7, #44]
 175 004c 1344     		add	r3, r3, r2
 176 004e 0022     		movs	r2, #0
 177 0050 1A70     		strb	r2, [r3]
  64:commandhandler.c ****        SU_PutChar(&s,serialOut[i]);
 178              		.loc 1 64 0 discriminator 3
 179 0052 3A1D     		adds	r2, r7, #4
 180 0054 FB6A     		ldr	r3, [r7, #44]
 181 0056 1344     		add	r3, r3, r2
 182 0058 1B78     		ldrb	r3, [r3]	@ zero_extendqisi2
 183 005a 1946     		mov	r1, r3
 184 005c 4448     		ldr	r0, .L11+4
 185 005e FFF7FEFF 		bl	SU_PutChar
  61:commandhandler.c ****     {
 186              		.loc 1 61 0 discriminator 3
 187 0062 FB6A     		ldr	r3, [r7, #44]
 188 0064 0133     		adds	r3, r3, #1
 189 0066 FB62     		str	r3, [r7, #44]
 190              	.L7:
  61:commandhandler.c ****     {
 191              		.loc 1 61 0 is_stmt 0 discriminator 1
 192 0068 FA6A     		ldr	r2, [r7, #44]
 193 006a 7B6A     		ldr	r3, [r7, #36]
 194 006c 9A42     		cmp	r2, r3
 195 006e EBDB     		blt	.L8
  65:commandhandler.c ****     }
  66:commandhandler.c **** 	
  67:commandhandler.c ****     serialOut[14] = 0x01 << ybits;
 196              		.loc 1 67 0 is_stmt 1
 197 0070 0122     		movs	r2, #1
 198 0072 FB69     		ldr	r3, [r7, #28]
 199 0074 02FA03F3 		lsl	r3, r2, r3
 200 0078 DBB2     		uxtb	r3, r3
 201 007a BB74     		strb	r3, [r7, #18]
  68:commandhandler.c **** 	tmp = MyI2C_Regs.buffer[0] & (0xFF << (8-ybits));		
 202              		.loc 1 68 0
 203 007c 3B4B     		ldr	r3, .L11
 204 007e 93F86431 		ldrb	r3, [r3, #356]	@ zero_extendqisi2
 205 0082 5AB2     		sxtb	r2, r3
 206 0084 FB69     		ldr	r3, [r7, #28]
 207 0086 C3F10803 		rsb	r3, r3, #8
 208 008a FF21     		movs	r1, #255
 209 008c 01FA03F3 		lsl	r3, r1, r3
 210 0090 5BB2     		sxtb	r3, r3
 211 0092 1340     		ands	r3, r3, r2
 212 0094 5BB2     		sxtb	r3, r3
 213 0096 FB76     		strb	r3, [r7, #27]
  69:commandhandler.c ****     tmp = tmp >> (8-ybits);
ARM GAS  C:\Users\Rajesh\AppData\Local\Temp\ccMXbg4e.s 			page 6


 214              		.loc 1 69 0
 215 0098 FA7E     		ldrb	r2, [r7, #27]	@ zero_extendqisi2
 216 009a FB69     		ldr	r3, [r7, #28]
 217 009c C3F10803 		rsb	r3, r3, #8
 218 00a0 42FA03F3 		asr	r3, r2, r3
 219 00a4 FB76     		strb	r3, [r7, #27]
  70:commandhandler.c **** 	serialOut[i] |= tmp; 
 220              		.loc 1 70 0
 221 00a6 3A1D     		adds	r2, r7, #4
 222 00a8 FB6A     		ldr	r3, [r7, #44]
 223 00aa 1344     		add	r3, r3, r2
 224 00ac 1A78     		ldrb	r2, [r3]	@ zero_extendqisi2
 225 00ae FB7E     		ldrb	r3, [r7, #27]
 226 00b0 1343     		orrs	r3, r3, r2
 227 00b2 D9B2     		uxtb	r1, r3
 228 00b4 3A1D     		adds	r2, r7, #4
 229 00b6 FB6A     		ldr	r3, [r7, #44]
 230 00b8 1344     		add	r3, r3, r2
 231 00ba 0A46     		mov	r2, r1
 232 00bc 1A70     		strb	r2, [r3]
  71:commandhandler.c **** 	SU_PutChar(&s,serialOut[i]);
 233              		.loc 1 71 0
 234 00be 3A1D     		adds	r2, r7, #4
 235 00c0 FB6A     		ldr	r3, [r7, #44]
 236 00c2 1344     		add	r3, r3, r2
 237 00c4 1B78     		ldrb	r3, [r3]	@ zero_extendqisi2
 238 00c6 1946     		mov	r1, r3
 239 00c8 2948     		ldr	r0, .L11+4
 240 00ca FFF7FEFF 		bl	SU_PutChar
  72:commandhandler.c **** 	i++;
 241              		.loc 1 72 0
 242 00ce FB6A     		ldr	r3, [r7, #44]
 243 00d0 0133     		adds	r3, r3, #1
 244 00d2 FB62     		str	r3, [r7, #44]
  73:commandhandler.c **** 		
  74:commandhandler.c **** 	for (j = 1; j< (18- padBytes); j++)
 245              		.loc 1 74 0
 246 00d4 0123     		movs	r3, #1
 247 00d6 BB62     		str	r3, [r7, #40]
 248 00d8 36E0     		b	.L9
 249              	.L10:
  75:commandhandler.c **** 	{
  76:commandhandler.c **** 		serialOut[i] = (MyI2C_Regs.buffer[j-1] << ybits );// & (0xFF << ybits);
 250              		.loc 1 76 0 discriminator 3
 251 00da BB6A     		ldr	r3, [r7, #40]
 252 00dc 013B     		subs	r3, r3, #1
 253 00de 234A     		ldr	r2, .L11
 254 00e0 1344     		add	r3, r3, r2
 255 00e2 93F86431 		ldrb	r3, [r3, #356]	@ zero_extendqisi2
 256 00e6 1A46     		mov	r2, r3
 257 00e8 FB69     		ldr	r3, [r7, #28]
 258 00ea 02FA03F3 		lsl	r3, r2, r3
 259 00ee D9B2     		uxtb	r1, r3
 260 00f0 3A1D     		adds	r2, r7, #4
 261 00f2 FB6A     		ldr	r3, [r7, #44]
 262 00f4 1344     		add	r3, r3, r2
 263 00f6 0A46     		mov	r2, r1
ARM GAS  C:\Users\Rajesh\AppData\Local\Temp\ccMXbg4e.s 			page 7


 264 00f8 1A70     		strb	r2, [r3]
  77:commandhandler.c **** 		tmp = (MyI2C_Regs.buffer[j] >> (8-ybits));// & (0xFF >> (8-ybits));
 265              		.loc 1 77 0 discriminator 3
 266 00fa 1C4A     		ldr	r2, .L11
 267 00fc BB6A     		ldr	r3, [r7, #40]
 268 00fe 1344     		add	r3, r3, r2
 269 0100 03F5B273 		add	r3, r3, #356
 270 0104 1B78     		ldrb	r3, [r3]	@ zero_extendqisi2
 271 0106 1A46     		mov	r2, r3
 272 0108 FB69     		ldr	r3, [r7, #28]
 273 010a C3F10803 		rsb	r3, r3, #8
 274 010e 42FA03F3 		asr	r3, r2, r3
 275 0112 FB76     		strb	r3, [r7, #27]
  78:commandhandler.c **** 		serialOut[i] |= tmp;
 276              		.loc 1 78 0 discriminator 3
 277 0114 3A1D     		adds	r2, r7, #4
 278 0116 FB6A     		ldr	r3, [r7, #44]
 279 0118 1344     		add	r3, r3, r2
 280 011a 1A78     		ldrb	r2, [r3]	@ zero_extendqisi2
 281 011c FB7E     		ldrb	r3, [r7, #27]
 282 011e 1343     		orrs	r3, r3, r2
 283 0120 D9B2     		uxtb	r1, r3
 284 0122 3A1D     		adds	r2, r7, #4
 285 0124 FB6A     		ldr	r3, [r7, #44]
 286 0126 1344     		add	r3, r3, r2
 287 0128 0A46     		mov	r2, r1
 288 012a 1A70     		strb	r2, [r3]
  79:commandhandler.c **** 		SU_PutChar(&s,serialOut[i]);
 289              		.loc 1 79 0 discriminator 3
 290 012c 3A1D     		adds	r2, r7, #4
 291 012e FB6A     		ldr	r3, [r7, #44]
 292 0130 1344     		add	r3, r3, r2
 293 0132 1B78     		ldrb	r3, [r3]	@ zero_extendqisi2
 294 0134 1946     		mov	r1, r3
 295 0136 0E48     		ldr	r0, .L11+4
 296 0138 FFF7FEFF 		bl	SU_PutChar
  80:commandhandler.c **** 		i++;
 297              		.loc 1 80 0 discriminator 3
 298 013c FB6A     		ldr	r3, [r7, #44]
 299 013e 0133     		adds	r3, r3, #1
 300 0140 FB62     		str	r3, [r7, #44]
  74:commandhandler.c **** 	{
 301              		.loc 1 74 0 discriminator 3
 302 0142 BB6A     		ldr	r3, [r7, #40]
 303 0144 0133     		adds	r3, r3, #1
 304 0146 BB62     		str	r3, [r7, #40]
 305              	.L9:
  74:commandhandler.c **** 	{
 306              		.loc 1 74 0 is_stmt 0 discriminator 1
 307 0148 7B6A     		ldr	r3, [r7, #36]
 308 014a C3F11202 		rsb	r2, r3, #18
 309 014e BB6A     		ldr	r3, [r7, #40]
 310 0150 9A42     		cmp	r2, r3
 311 0152 C2DC     		bgt	.L10
  81:commandhandler.c **** 	}
  82:commandhandler.c ****     
  83:commandhandler.c ****     Tamper_Timer_Start();    
ARM GAS  C:\Users\Rajesh\AppData\Local\Temp\ccMXbg4e.s 			page 8


 312              		.loc 1 83 0 is_stmt 1
 313 0154 FFF7FEFF 		bl	Tamper_Timer_Start
  84:commandhandler.c ****     serialOut[i] = 0x00;
 314              		.loc 1 84 0
 315 0158 3A1D     		adds	r2, r7, #4
 316 015a FB6A     		ldr	r3, [r7, #44]
 317 015c 1344     		add	r3, r3, r2
 318 015e 0022     		movs	r2, #0
 319 0160 1A70     		strb	r2, [r3]
  85:commandhandler.c **** }
 320              		.loc 1 85 0
 321 0162 00BF     		nop
 322 0164 3037     		adds	r7, r7, #48
 323              		.cfi_def_cfa_offset 8
 324 0166 BD46     		mov	sp, r7
 325              		.cfi_def_cfa_register 13
 326              		@ sp needed
 327 0168 80BD     		pop	{r7, pc}
 328              	.L12:
 329 016a 00BF     		.align	2
 330              	.L11:
 331 016c 00000000 		.word	MyI2C_Regs
 332 0170 00000000 		.word	s
 333              		.cfi_endproc
 334              	.LFE64:
 335              		.size	SendHID, .-SendHID
 336              		.section	.text.POE_OIM_En,"ax",%progbits
 337              		.align	2
 338              		.global	POE_OIM_En
 339              		.thumb
 340              		.thumb_func
 341              		.type	POE_OIM_En, %function
 342              	POE_OIM_En:
 343              	.LFB65:
  86:commandhandler.c **** 
  87:commandhandler.c **** 
  88:commandhandler.c **** 
  89:commandhandler.c **** void   POE_OIM_En(uint8 en)
  90:commandhandler.c **** {
 344              		.loc 1 90 0
 345              		.cfi_startproc
 346              		@ args = 0, pretend = 0, frame = 8
 347              		@ frame_needed = 1, uses_anonymous_args = 0
 348 0000 80B5     		push	{r7, lr}
 349              		.cfi_def_cfa_offset 8
 350              		.cfi_offset 7, -8
 351              		.cfi_offset 14, -4
 352 0002 82B0     		sub	sp, sp, #8
 353              		.cfi_def_cfa_offset 16
 354 0004 00AF     		add	r7, sp, #0
 355              		.cfi_def_cfa_register 7
 356 0006 0346     		mov	r3, r0
 357 0008 FB71     		strb	r3, [r7, #7]
  91:commandhandler.c **** if (poe_en_stat ==en)
 358              		.loc 1 91 0
 359 000a 0F4B     		ldr	r3, .L17
 360 000c 1B78     		ldrb	r3, [r3]	@ zero_extendqisi2
ARM GAS  C:\Users\Rajesh\AppData\Local\Temp\ccMXbg4e.s 			page 9


 361 000e FA79     		ldrb	r2, [r7, #7]	@ zero_extendqisi2
 362 0010 9A42     		cmp	r2, r3
 363 0012 15D0     		beq	.L16
  92:commandhandler.c ****    return;
  93:commandhandler.c **** POE_OIM_SDn_Write(0);
 364              		.loc 1 93 0
 365 0014 0020     		movs	r0, #0
 366 0016 FFF7FEFF 		bl	POE_OIM_SDn_Write
  94:commandhandler.c **** POE_RST_Write(0);
 367              		.loc 1 94 0
 368 001a 0020     		movs	r0, #0
 369 001c FFF7FEFF 		bl	POE_RST_Write
  95:commandhandler.c **** CyDelay(1000);
 370              		.loc 1 95 0
 371 0020 4FF47A70 		mov	r0, #1000
 372 0024 FFF7FEFF 		bl	CyDelay
  96:commandhandler.c **** POE_RST_Write(en);
 373              		.loc 1 96 0
 374 0028 FB79     		ldrb	r3, [r7, #7]	@ zero_extendqisi2
 375 002a 1846     		mov	r0, r3
 376 002c FFF7FEFF 		bl	POE_RST_Write
  97:commandhandler.c **** POE_OIM_SDn_Write(en);
 377              		.loc 1 97 0
 378 0030 FB79     		ldrb	r3, [r7, #7]	@ zero_extendqisi2
 379 0032 1846     		mov	r0, r3
 380 0034 FFF7FEFF 		bl	POE_OIM_SDn_Write
  98:commandhandler.c **** poe_en_stat=en;
 381              		.loc 1 98 0
 382 0038 034A     		ldr	r2, .L17
 383 003a FB79     		ldrb	r3, [r7, #7]
 384 003c 1370     		strb	r3, [r2]
 385 003e 00E0     		b	.L13
 386              	.L16:
  92:commandhandler.c **** POE_OIM_SDn_Write(0);
 387              		.loc 1 92 0
 388 0040 00BF     		nop
 389              	.L13:
  99:commandhandler.c **** }
 390              		.loc 1 99 0
 391 0042 0837     		adds	r7, r7, #8
 392              		.cfi_def_cfa_offset 8
 393 0044 BD46     		mov	sp, r7
 394              		.cfi_def_cfa_register 13
 395              		@ sp needed
 396 0046 80BD     		pop	{r7, pc}
 397              	.L18:
 398              		.align	2
 399              	.L17:
 400 0048 00000000 		.word	poe_en_stat
 401              		.cfi_endproc
 402              	.LFE65:
 403              		.size	POE_OIM_En, .-POE_OIM_En
 404              		.section	.text.rtc_write_reg,"ax",%progbits
 405              		.align	2
 406              		.global	rtc_write_reg
 407              		.thumb
 408              		.thumb_func
ARM GAS  C:\Users\Rajesh\AppData\Local\Temp\ccMXbg4e.s 			page 10


 409              		.type	rtc_write_reg, %function
 410              	rtc_write_reg:
 411              	.LFB66:
 100:commandhandler.c **** #define RTC_ADDRESS (0XA2>>1)
 101:commandhandler.c **** void rtc_write_reg(uint8 reg, uint8 val)
 102:commandhandler.c **** {
 412              		.loc 1 102 0
 413              		.cfi_startproc
 414              		@ args = 0, pretend = 0, frame = 8
 415              		@ frame_needed = 1, uses_anonymous_args = 0
 416 0000 80B5     		push	{r7, lr}
 417              		.cfi_def_cfa_offset 8
 418              		.cfi_offset 7, -8
 419              		.cfi_offset 14, -4
 420 0002 82B0     		sub	sp, sp, #8
 421              		.cfi_def_cfa_offset 16
 422 0004 00AF     		add	r7, sp, #0
 423              		.cfi_def_cfa_register 7
 424 0006 0346     		mov	r3, r0
 425 0008 0A46     		mov	r2, r1
 426 000a FB71     		strb	r3, [r7, #7]
 427 000c 1346     		mov	r3, r2
 428 000e BB71     		strb	r3, [r7, #6]
 103:commandhandler.c ****    
 104:commandhandler.c ****      I2C_Master_MasterSendStart(RTC_ADDRESS,0);
 429              		.loc 1 104 0
 430 0010 0021     		movs	r1, #0
 431 0012 5120     		movs	r0, #81
 432 0014 FFF7FEFF 		bl	I2C_Master_MasterSendStart
 105:commandhandler.c ****      I2C_Master_MasterWriteByte(reg);
 433              		.loc 1 105 0
 434 0018 FB79     		ldrb	r3, [r7, #7]	@ zero_extendqisi2
 435 001a 1846     		mov	r0, r3
 436 001c FFF7FEFF 		bl	I2C_Master_MasterWriteByte
 106:commandhandler.c ****      I2C_Master_MasterWriteByte(val);
 437              		.loc 1 106 0
 438 0020 BB79     		ldrb	r3, [r7, #6]	@ zero_extendqisi2
 439 0022 1846     		mov	r0, r3
 440 0024 FFF7FEFF 		bl	I2C_Master_MasterWriteByte
 107:commandhandler.c ****      I2C_Master_MasterSendStop();
 441              		.loc 1 107 0
 442 0028 FFF7FEFF 		bl	I2C_Master_MasterSendStop
 108:commandhandler.c **** }
 443              		.loc 1 108 0
 444 002c 00BF     		nop
 445 002e 0837     		adds	r7, r7, #8
 446              		.cfi_def_cfa_offset 8
 447 0030 BD46     		mov	sp, r7
 448              		.cfi_def_cfa_register 13
 449              		@ sp needed
 450 0032 80BD     		pop	{r7, pc}
 451              		.cfi_endproc
 452              	.LFE66:
 453              		.size	rtc_write_reg, .-rtc_write_reg
 454              		.section	.text.rtc_write,"ax",%progbits
 455              		.align	2
 456              		.global	rtc_write
ARM GAS  C:\Users\Rajesh\AppData\Local\Temp\ccMXbg4e.s 			page 11


 457              		.thumb
 458              		.thumb_func
 459              		.type	rtc_write, %function
 460              	rtc_write:
 461              	.LFB67:
 109:commandhandler.c **** void rtc_write(uint8 addr,unsigned char *buff, uint8 len)
 110:commandhandler.c **** {
 462              		.loc 1 110 0
 463              		.cfi_startproc
 464              		@ args = 0, pretend = 0, frame = 8
 465              		@ frame_needed = 1, uses_anonymous_args = 0
 466 0000 80B5     		push	{r7, lr}
 467              		.cfi_def_cfa_offset 8
 468              		.cfi_offset 7, -8
 469              		.cfi_offset 14, -4
 470 0002 82B0     		sub	sp, sp, #8
 471              		.cfi_def_cfa_offset 16
 472 0004 00AF     		add	r7, sp, #0
 473              		.cfi_def_cfa_register 7
 474 0006 0346     		mov	r3, r0
 475 0008 3960     		str	r1, [r7]
 476 000a FB71     		strb	r3, [r7, #7]
 477 000c 1346     		mov	r3, r2
 478 000e BB71     		strb	r3, [r7, #6]
 111:commandhandler.c ****     
 112:commandhandler.c ****     I2C_Master_MasterSendStart(RTC_ADDRESS,0);
 479              		.loc 1 112 0
 480 0010 0021     		movs	r1, #0
 481 0012 5120     		movs	r0, #81
 482 0014 FFF7FEFF 		bl	I2C_Master_MasterSendStart
 113:commandhandler.c ****     I2C_Master_MasterWriteByte(addr);
 483              		.loc 1 113 0
 484 0018 FB79     		ldrb	r3, [r7, #7]	@ zero_extendqisi2
 485 001a 1846     		mov	r0, r3
 486 001c FFF7FEFF 		bl	I2C_Master_MasterWriteByte
 114:commandhandler.c ****     while(len--)
 487              		.loc 1 114 0
 488 0020 06E0     		b	.L21
 489              	.L22:
 115:commandhandler.c ****      I2C_Master_MasterWriteByte(*buff++);
 490              		.loc 1 115 0
 491 0022 3B68     		ldr	r3, [r7]
 492 0024 5A1C     		adds	r2, r3, #1
 493 0026 3A60     		str	r2, [r7]
 494 0028 1B78     		ldrb	r3, [r3]	@ zero_extendqisi2
 495 002a 1846     		mov	r0, r3
 496 002c FFF7FEFF 		bl	I2C_Master_MasterWriteByte
 497              	.L21:
 114:commandhandler.c ****     while(len--)
 498              		.loc 1 114 0
 499 0030 BB79     		ldrb	r3, [r7, #6]	@ zero_extendqisi2
 500 0032 5A1E     		subs	r2, r3, #1
 501 0034 BA71     		strb	r2, [r7, #6]
 502 0036 002B     		cmp	r3, #0
 503 0038 F3D1     		bne	.L22
 116:commandhandler.c ****      I2C_Master_MasterSendStop();
 504              		.loc 1 116 0
ARM GAS  C:\Users\Rajesh\AppData\Local\Temp\ccMXbg4e.s 			page 12


 505 003a FFF7FEFF 		bl	I2C_Master_MasterSendStop
 117:commandhandler.c **** }
 506              		.loc 1 117 0
 507 003e 00BF     		nop
 508 0040 0837     		adds	r7, r7, #8
 509              		.cfi_def_cfa_offset 8
 510 0042 BD46     		mov	sp, r7
 511              		.cfi_def_cfa_register 13
 512              		@ sp needed
 513 0044 80BD     		pop	{r7, pc}
 514              		.cfi_endproc
 515              	.LFE67:
 516              		.size	rtc_write, .-rtc_write
 517 0046 00BF     		.section	.text.rtc_read,"ax",%progbits
 518              		.align	2
 519              		.global	rtc_read
 520              		.thumb
 521              		.thumb_func
 522              		.type	rtc_read, %function
 523              	rtc_read:
 524              	.LFB68:
 118:commandhandler.c **** void rtc_read(int addr, unsigned char *buff, int len)
 119:commandhandler.c **** {
 525              		.loc 1 119 0
 526              		.cfi_startproc
 527              		@ args = 0, pretend = 0, frame = 24
 528              		@ frame_needed = 1, uses_anonymous_args = 0
 529 0000 90B5     		push	{r4, r7, lr}
 530              		.cfi_def_cfa_offset 12
 531              		.cfi_offset 4, -12
 532              		.cfi_offset 7, -8
 533              		.cfi_offset 14, -4
 534 0002 87B0     		sub	sp, sp, #28
 535              		.cfi_def_cfa_offset 40
 536 0004 00AF     		add	r7, sp, #0
 537              		.cfi_def_cfa_register 7
 538 0006 F860     		str	r0, [r7, #12]
 539 0008 B960     		str	r1, [r7, #8]
 540 000a 7A60     		str	r2, [r7, #4]
 120:commandhandler.c ****     int x;
 121:commandhandler.c ****     
 122:commandhandler.c ****     I2C_Master_MasterSendStart(RTC_ADDRESS,0);
 541              		.loc 1 122 0
 542 000c 0021     		movs	r1, #0
 543 000e 5120     		movs	r0, #81
 544 0010 FFF7FEFF 		bl	I2C_Master_MasterSendStart
 123:commandhandler.c ****     I2C_Master_MasterWriteByte(addr);
 545              		.loc 1 123 0
 546 0014 FB68     		ldr	r3, [r7, #12]
 547 0016 DBB2     		uxtb	r3, r3
 548 0018 1846     		mov	r0, r3
 549 001a FFF7FEFF 		bl	I2C_Master_MasterWriteByte
 124:commandhandler.c ****     I2C_Master_MasterSendRestart(RTC_ADDRESS,1);
 550              		.loc 1 124 0
 551 001e 0121     		movs	r1, #1
 552 0020 5120     		movs	r0, #81
 553 0022 FFF7FEFF 		bl	I2C_Master_MasterSendRestart
ARM GAS  C:\Users\Rajesh\AppData\Local\Temp\ccMXbg4e.s 			page 13


 125:commandhandler.c ****     
 126:commandhandler.c ****   //  I2C_Master_MasterSendStart(RTC_ADDRESS,1);
 127:commandhandler.c ****     for (x=0; x< len-1;x++)
 554              		.loc 1 127 0
 555 0026 0023     		movs	r3, #0
 556 0028 7B61     		str	r3, [r7, #20]
 557 002a 0AE0     		b	.L24
 558              	.L25:
 128:commandhandler.c ****        *buff++=I2C_Master_MasterReadByte(1);
 559              		.loc 1 128 0 discriminator 3
 560 002c BC68     		ldr	r4, [r7, #8]
 561 002e 631C     		adds	r3, r4, #1
 562 0030 BB60     		str	r3, [r7, #8]
 563 0032 0120     		movs	r0, #1
 564 0034 FFF7FEFF 		bl	I2C_Master_MasterReadByte
 565 0038 0346     		mov	r3, r0
 566 003a 2370     		strb	r3, [r4]
 127:commandhandler.c ****        *buff++=I2C_Master_MasterReadByte(1);
 567              		.loc 1 127 0 discriminator 3
 568 003c 7B69     		ldr	r3, [r7, #20]
 569 003e 0133     		adds	r3, r3, #1
 570 0040 7B61     		str	r3, [r7, #20]
 571              	.L24:
 127:commandhandler.c ****        *buff++=I2C_Master_MasterReadByte(1);
 572              		.loc 1 127 0 is_stmt 0 discriminator 1
 573 0042 7B68     		ldr	r3, [r7, #4]
 574 0044 5A1E     		subs	r2, r3, #1
 575 0046 7B69     		ldr	r3, [r7, #20]
 576 0048 9A42     		cmp	r2, r3
 577 004a EFDC     		bgt	.L25
 129:commandhandler.c ****     *buff++=I2C_Master_MasterReadByte(0);
 578              		.loc 1 129 0 is_stmt 1
 579 004c BC68     		ldr	r4, [r7, #8]
 580 004e 631C     		adds	r3, r4, #1
 581 0050 BB60     		str	r3, [r7, #8]
 582 0052 0020     		movs	r0, #0
 583 0054 FFF7FEFF 		bl	I2C_Master_MasterReadByte
 584 0058 0346     		mov	r3, r0
 585 005a 2370     		strb	r3, [r4]
 130:commandhandler.c ****     I2C_Master_MasterSendStop();
 586              		.loc 1 130 0
 587 005c FFF7FEFF 		bl	I2C_Master_MasterSendStop
 131:commandhandler.c **** }
 588              		.loc 1 131 0
 589 0060 00BF     		nop
 590 0062 1C37     		adds	r7, r7, #28
 591              		.cfi_def_cfa_offset 12
 592 0064 BD46     		mov	sp, r7
 593              		.cfi_def_cfa_register 13
 594              		@ sp needed
 595 0066 90BD     		pop	{r4, r7, pc}
 596              		.cfi_endproc
 597              	.LFE68:
 598              		.size	rtc_read, .-rtc_read
 599              		.comm	usb_command_buffer,259,4
 600              		.global	usb_buf_len
 601              		.bss
ARM GAS  C:\Users\Rajesh\AppData\Local\Temp\ccMXbg4e.s 			page 14


 602              		.align	2
 603              		.type	usb_buf_len, %object
 604              		.size	usb_buf_len, 4
 605              	usb_buf_len:
 606 0000 00000000 		.space	4
 607              		.comm	tick_count,4,4
 608              		.comm	last_rx,4,4
 609              		.section	.text.HandleUSB,"ax",%progbits
 610              		.align	2
 611              		.global	HandleUSB
 612              		.thumb
 613              		.thumb_func
 614              		.type	HandleUSB, %function
 615              	HandleUSB:
 616              	.LFB69:
 132:commandhandler.c **** 
 133:commandhandler.c **** #define MAX_USB_COMMAND 255 +4
 134:commandhandler.c **** unsigned char usb_command_buffer[MAX_USB_COMMAND];
 135:commandhandler.c **** int usb_buf_len=0;
 136:commandhandler.c **** int tick_count;
 137:commandhandler.c **** int last_rx;
 138:commandhandler.c **** #define CMD_USB_WRITE 57
 139:commandhandler.c **** #define CMD_USB_READ  56
 140:commandhandler.c **** #define CMD_USB_BOOT_LOAD 58
 141:commandhandler.c **** 
 142:commandhandler.c **** 
 143:commandhandler.c **** void HandleUSB()
 144:commandhandler.c **** 
 145:commandhandler.c **** {
 617              		.loc 1 145 0
 618              		.cfi_startproc
 619              		@ args = 0, pretend = 0, frame = 24
 620              		@ frame_needed = 1, uses_anonymous_args = 0
 621 0000 80B5     		push	{r7, lr}
 622              		.cfi_def_cfa_offset 8
 623              		.cfi_offset 7, -8
 624              		.cfi_offset 14, -4
 625 0002 86B0     		sub	sp, sp, #24
 626              		.cfi_def_cfa_offset 32
 627 0004 00AF     		add	r7, sp, #0
 628              		.cfi_def_cfa_register 7
 146:commandhandler.c ****     int bcount;
 147:commandhandler.c ****         if (0u != USBUART_IsConfigurationChanged())
 629              		.loc 1 147 0
 630 0006 FFF7FEFF 		bl	USBUART_IsConfigurationChanged
 631 000a 0346     		mov	r3, r0
 632 000c 002B     		cmp	r3, #0
 633 000e 06D0     		beq	.L27
 148:commandhandler.c ****         {
 149:commandhandler.c ****             /* Initialize IN endpoints when device is configured. */
 150:commandhandler.c ****             if (0u != USBUART_GetConfiguration())
 634              		.loc 1 150 0
 635 0010 FFF7FEFF 		bl	USBUART_GetConfiguration
 636 0014 0346     		mov	r3, r0
 637 0016 002B     		cmp	r3, #0
 638 0018 01D0     		beq	.L27
 151:commandhandler.c ****             {
ARM GAS  C:\Users\Rajesh\AppData\Local\Temp\ccMXbg4e.s 			page 15


 152:commandhandler.c ****                 /* Enumeration is done, enable OUT endpoint to receive data 
 153:commandhandler.c ****                  * from host. */
 154:commandhandler.c ****                 USBUART_CDC_Init();
 639              		.loc 1 154 0
 640 001a FFF7FEFF 		bl	USBUART_CDC_Init
 641              	.L27:
 155:commandhandler.c ****             }
 156:commandhandler.c ****         }
 157:commandhandler.c ****     bcount=USBUART_GetCount();
 642              		.loc 1 157 0
 643 001e FFF7FEFF 		bl	USBUART_GetCount
 644 0022 0346     		mov	r3, r0
 645 0024 7B61     		str	r3, [r7, #20]
 158:commandhandler.c ****     if (bcount)
 646              		.loc 1 158 0
 647 0026 7B69     		ldr	r3, [r7, #20]
 648 0028 002B     		cmp	r3, #0
 649 002a 77D0     		beq	.L34
 650              	.LBB2:
 159:commandhandler.c ****         {
 160:commandhandler.c ****             int len;
 161:commandhandler.c ****             int data_len;
 162:commandhandler.c ****             
 163:commandhandler.c ****             if ((tick_count-last_rx)>100)
 651              		.loc 1 163 0
 652 002c 3D4B     		ldr	r3, .L35
 653 002e 1A68     		ldr	r2, [r3]
 654 0030 3D4B     		ldr	r3, .L35+4
 655 0032 1B68     		ldr	r3, [r3]
 656 0034 D31A     		subs	r3, r2, r3
 657 0036 642B     		cmp	r3, #100
 658 0038 02DD     		ble	.L29
 164:commandhandler.c ****                usb_buf_len=0;
 659              		.loc 1 164 0
 660 003a 3C4B     		ldr	r3, .L35+8
 661 003c 0022     		movs	r2, #0
 662 003e 1A60     		str	r2, [r3]
 663              	.L29:
 165:commandhandler.c ****             last_rx = tick_count;
 664              		.loc 1 165 0
 665 0040 384B     		ldr	r3, .L35
 666 0042 1B68     		ldr	r3, [r3]
 667 0044 384A     		ldr	r2, .L35+4
 668 0046 1360     		str	r3, [r2]
 166:commandhandler.c ****             USBUART_GetAll(&usb_command_buffer[usb_buf_len]);
 669              		.loc 1 166 0
 670 0048 384B     		ldr	r3, .L35+8
 671 004a 1B68     		ldr	r3, [r3]
 672 004c 384A     		ldr	r2, .L35+12
 673 004e 1344     		add	r3, r3, r2
 674 0050 1846     		mov	r0, r3
 675 0052 FFF7FEFF 		bl	USBUART_GetAll
 167:commandhandler.c ****             usb_buf_len+=bcount;
 676              		.loc 1 167 0
 677 0056 354B     		ldr	r3, .L35+8
 678 0058 1A68     		ldr	r2, [r3]
 679 005a 7B69     		ldr	r3, [r7, #20]
ARM GAS  C:\Users\Rajesh\AppData\Local\Temp\ccMXbg4e.s 			page 16


 680 005c 1344     		add	r3, r3, r2
 681 005e 334A     		ldr	r2, .L35+8
 682 0060 1360     		str	r3, [r2]
 168:commandhandler.c ****             data_len = (usb_command_buffer[3]);// | (usb_command_buffer[4]&0xff);
 683              		.loc 1 168 0
 684 0062 334B     		ldr	r3, .L35+12
 685 0064 DB78     		ldrb	r3, [r3, #3]	@ zero_extendqisi2
 686 0066 3B61     		str	r3, [r7, #16]
 169:commandhandler.c ****             if (usb_buf_len>3)
 687              		.loc 1 169 0
 688 0068 304B     		ldr	r3, .L35+8
 689 006a 1B68     		ldr	r3, [r3]
 690 006c 032B     		cmp	r3, #3
 691 006e 55DD     		ble	.L34
 692              	.LBB3:
 170:commandhandler.c ****                 {
 171:commandhandler.c ****                     int reg =  (usb_command_buffer[1]<<8) | (usb_command_buffer[2]&0xff);
 693              		.loc 1 171 0
 694 0070 2F4B     		ldr	r3, .L35+12
 695 0072 5B78     		ldrb	r3, [r3, #1]	@ zero_extendqisi2
 696 0074 1B02     		lsls	r3, r3, #8
 697 0076 2E4A     		ldr	r2, .L35+12
 698 0078 9278     		ldrb	r2, [r2, #2]	@ zero_extendqisi2
 699 007a 1343     		orrs	r3, r3, r2
 700 007c FB60     		str	r3, [r7, #12]
 172:commandhandler.c ****                     if (usb_command_buffer[0]==CMD_USB_BOOT_LOAD)
 701              		.loc 1 172 0
 702 007e 2C4B     		ldr	r3, .L35+12
 703 0080 1B78     		ldrb	r3, [r3]	@ zero_extendqisi2
 704 0082 3A2B     		cmp	r3, #58
 705 0084 12D1     		bne	.L30
 173:commandhandler.c ****                        {
 174:commandhandler.c ****                         if ((usb_command_buffer[1]==0x55) && (usb_command_buffer[2]=0xaa))
 706              		.loc 1 174 0
 707 0086 2A4B     		ldr	r3, .L35+12
 708 0088 5B78     		ldrb	r3, [r3, #1]	@ zero_extendqisi2
 709 008a 552B     		cmp	r3, #85
 710 008c 0BD1     		bne	.L31
 711              		.loc 1 174 0 is_stmt 0 discriminator 1
 712 008e 284B     		ldr	r3, .L35+12
 713 0090 AA22     		movs	r2, #170
 714 0092 9A70     		strb	r2, [r3, #2]
 175:commandhandler.c ****                             {
 176:commandhandler.c ****                              EEPROM_EraseSector(0);
 715              		.loc 1 176 0 is_stmt 1 discriminator 1
 716 0094 0020     		movs	r0, #0
 717 0096 FFF7FEFF 		bl	EEPROM_EraseSector
 177:commandhandler.c ****                              EEPROM_WriteByte(0x55,0);
 718              		.loc 1 177 0 discriminator 1
 719 009a 0021     		movs	r1, #0
 720 009c 5520     		movs	r0, #85
 721 009e FFF7FEFF 		bl	EEPROM_WriteByte
 178:commandhandler.c ****                              CySoftwareReset();
 722              		.loc 1 178 0 discriminator 1
 723 00a2 FFF7FEFF 		bl	CySoftwareReset
 724              	.L31:
 179:commandhandler.c **** 
ARM GAS  C:\Users\Rajesh\AppData\Local\Temp\ccMXbg4e.s 			page 17


 180:commandhandler.c ****                             }
 181:commandhandler.c ****                             usb_buf_len=0;
 725              		.loc 1 181 0
 726 00a6 214B     		ldr	r3, .L35+8
 727 00a8 0022     		movs	r2, #0
 728 00aa 1A60     		str	r2, [r3]
 729              	.L30:
 182:commandhandler.c ****                         }
 183:commandhandler.c ****                     if (usb_command_buffer[0]==CMD_USB_READ)
 730              		.loc 1 183 0
 731 00ac 204B     		ldr	r3, .L35+12
 732 00ae 1B78     		ldrb	r3, [r3]	@ zero_extendqisi2
 733 00b0 382B     		cmp	r3, #56
 734 00b2 12D1     		bne	.L32
 735              	.LBB4:
 184:commandhandler.c ****                         {
 185:commandhandler.c ****                         unsigned char *p = (unsigned char *)&MyI2C_Regs ;
 736              		.loc 1 185 0
 737 00b4 1F4B     		ldr	r3, .L35+16
 738 00b6 BB60     		str	r3, [r7, #8]
 186:commandhandler.c ****                         memcpy(&usb_command_buffer[4],p+reg,data_len);
 739              		.loc 1 186 0
 740 00b8 FB68     		ldr	r3, [r7, #12]
 741 00ba BA68     		ldr	r2, [r7, #8]
 742 00bc 1344     		add	r3, r3, r2
 743 00be 3A69     		ldr	r2, [r7, #16]
 744 00c0 1946     		mov	r1, r3
 745 00c2 1D48     		ldr	r0, .L35+20
 746 00c4 FFF7FEFF 		bl	memcpy
 187:commandhandler.c ****                         USBUART_PutDataBig(usb_command_buffer,4+data_len );       /* Send data back
 747              		.loc 1 187 0
 748 00c8 3B69     		ldr	r3, [r7, #16]
 749 00ca 0433     		adds	r3, r3, #4
 750 00cc 1946     		mov	r1, r3
 751 00ce 1848     		ldr	r0, .L35+12
 752 00d0 FFF7FEFF 		bl	USBUART_PutDataBig
 188:commandhandler.c ****                         usb_buf_len=0;
 753              		.loc 1 188 0
 754 00d4 154B     		ldr	r3, .L35+8
 755 00d6 0022     		movs	r2, #0
 756 00d8 1A60     		str	r2, [r3]
 757              	.L32:
 758              	.LBE4:
 189:commandhandler.c ****                         }
 190:commandhandler.c ****                     if ((usb_command_buffer[0]==CMD_USB_WRITE)  && ((usb_buf_len+4)>=data_len))
 759              		.loc 1 190 0
 760 00da 154B     		ldr	r3, .L35+12
 761 00dc 1B78     		ldrb	r3, [r3]	@ zero_extendqisi2
 762 00de 392B     		cmp	r3, #57
 763 00e0 1CD1     		bne	.L34
 764              		.loc 1 190 0 is_stmt 0 discriminator 1
 765 00e2 124B     		ldr	r3, .L35+8
 766 00e4 1B68     		ldr	r3, [r3]
 767 00e6 1A1D     		adds	r2, r3, #4
 768 00e8 3B69     		ldr	r3, [r7, #16]
 769 00ea 9A42     		cmp	r2, r3
 770 00ec 16DB     		blt	.L34
ARM GAS  C:\Users\Rajesh\AppData\Local\Temp\ccMXbg4e.s 			page 18


 771              	.LBB5:
 191:commandhandler.c ****                         {
 192:commandhandler.c ****                             unsigned char *p = (unsigned char *)&MyI2C_Regs ;
 772              		.loc 1 192 0 is_stmt 1
 773 00ee 114B     		ldr	r3, .L35+16
 774 00f0 7B60     		str	r3, [r7, #4]
 193:commandhandler.c ****                             memcpy(p+reg,&usb_command_buffer[4],data_len);
 775              		.loc 1 193 0
 776 00f2 FB68     		ldr	r3, [r7, #12]
 777 00f4 7A68     		ldr	r2, [r7, #4]
 778 00f6 1344     		add	r3, r3, r2
 779 00f8 3A69     		ldr	r2, [r7, #16]
 780 00fa 0F49     		ldr	r1, .L35+20
 781 00fc 1846     		mov	r0, r3
 782 00fe FFF7FEFF 		bl	memcpy
 194:commandhandler.c ****                             while(USBUART_CDCIsReady() == 0u);    /* Wait till component is ready t
 783              		.loc 1 194 0
 784 0102 00BF     		nop
 785              	.L33:
 786              		.loc 1 194 0 is_stmt 0 discriminator 1
 787 0104 FFF7FEFF 		bl	USBUART_CDCIsReady
 788 0108 0346     		mov	r3, r0
 789 010a 002B     		cmp	r3, #0
 790 010c FAD0     		beq	.L33
 195:commandhandler.c ****                             USBUART_PutData(usb_command_buffer, 4);       /* Send data back to PC *
 791              		.loc 1 195 0 is_stmt 1
 792 010e 0421     		movs	r1, #4
 793 0110 0748     		ldr	r0, .L35+12
 794 0112 FFF7FEFF 		bl	USBUART_PutData
 196:commandhandler.c ****                             usb_buf_len=0;
 795              		.loc 1 196 0
 796 0116 054B     		ldr	r3, .L35+8
 797 0118 0022     		movs	r2, #0
 798 011a 1A60     		str	r2, [r3]
 799              	.L34:
 800              	.LBE5:
 801              	.LBE3:
 802              	.LBE2:
 197:commandhandler.c ****                         }
 198:commandhandler.c ****                         
 199:commandhandler.c ****                 }
 200:commandhandler.c ****         }
 201:commandhandler.c ****     
 202:commandhandler.c **** }
 803              		.loc 1 202 0
 804 011c 00BF     		nop
 805 011e 1837     		adds	r7, r7, #24
 806              		.cfi_def_cfa_offset 8
 807 0120 BD46     		mov	sp, r7
 808              		.cfi_def_cfa_register 13
 809              		@ sp needed
 810 0122 80BD     		pop	{r7, pc}
 811              	.L36:
 812              		.align	2
 813              	.L35:
 814 0124 00000000 		.word	tick_count
 815 0128 00000000 		.word	last_rx
ARM GAS  C:\Users\Rajesh\AppData\Local\Temp\ccMXbg4e.s 			page 19


 816 012c 00000000 		.word	usb_buf_len
 817 0130 00000000 		.word	usb_command_buffer
 818 0134 00000000 		.word	MyI2C_Regs
 819 0138 04000000 		.word	usb_command_buffer+4
 820              		.cfi_endproc
 821              	.LFE69:
 822              		.size	HandleUSB, .-HandleUSB
 823              		.global	f2f_alive_message
 824              		.data
 825 0001 000000   		.align	2
 826              		.type	f2f_alive_message, %object
 827              		.size	f2f_alive_message, 9
 828              	f2f_alive_message:
 829 0004 00       		.byte	0
 830 0005 34       		.byte	52
 831 0006 E3       		.byte	-29
 832 0007 FD       		.byte	-3
 833 0008 A0       		.byte	-96
 834 0009 00       		.byte	0
 835 000a 00       		.byte	0
 836 000b 00       		.byte	0
 837 000c 00       		.byte	0
 838              		.section	.text.commandSendF2F,"ax",%progbits
 839              		.align	2
 840              		.global	commandSendF2F
 841              		.thumb
 842              		.thumb_func
 843              		.type	commandSendF2F, %function
 844              	commandSendF2F:
 845              	.LFB70:
 203:commandhandler.c **** 
 204:commandhandler.c **** 
 205:commandhandler.c **** unsigned char f2f_alive_message[] = {0x0,0x34,0xE3,0xFD,0xA0,0x0,0x0,0x0,0x0};
 206:commandhandler.c **** extern char TOC_port_init;
 207:commandhandler.c **** void commandSendF2F(int len){
 846              		.loc 1 207 0
 847              		.cfi_startproc
 848              		@ args = 0, pretend = 0, frame = 8
 849              		@ frame_needed = 1, uses_anonymous_args = 0
 850 0000 80B5     		push	{r7, lr}
 851              		.cfi_def_cfa_offset 8
 852              		.cfi_offset 7, -8
 853              		.cfi_offset 14, -4
 854 0002 82B0     		sub	sp, sp, #8
 855              		.cfi_def_cfa_offset 16
 856 0004 00AF     		add	r7, sp, #0
 857              		.cfi_def_cfa_register 7
 858 0006 7860     		str	r0, [r7, #4]
 208:commandhandler.c ****     LED_YEL_Write(OFF);
 859              		.loc 1 208 0
 860 0008 0120     		movs	r0, #1
 861 000a FFF7FEFF 		bl	LED_YEL_Write
 209:commandhandler.c **** 	SendF2F(MyI2C_Regs.buffer, len);  //len is bytes
 862              		.loc 1 209 0
 863 000e 7968     		ldr	r1, [r7, #4]
 864 0010 0648     		ldr	r0, .L38
 865 0012 FFF7FEFF 		bl	SendF2F
ARM GAS  C:\Users\Rajesh\AppData\Local\Temp\ccMXbg4e.s 			page 20


 210:commandhandler.c ****     MyI2C_Regs.cmd = CMD_NONE;
 866              		.loc 1 210 0
 867 0016 064B     		ldr	r3, .L38+4
 868 0018 0022     		movs	r2, #0
 869 001a 9A70     		strb	r2, [r3, #2]
 211:commandhandler.c ****     LED_YEL_Write(ON);
 870              		.loc 1 211 0
 871 001c 0020     		movs	r0, #0
 872 001e FFF7FEFF 		bl	LED_YEL_Write
 212:commandhandler.c **** }
 873              		.loc 1 212 0
 874 0022 00BF     		nop
 875 0024 0837     		adds	r7, r7, #8
 876              		.cfi_def_cfa_offset 8
 877 0026 BD46     		mov	sp, r7
 878              		.cfi_def_cfa_register 13
 879              		@ sp needed
 880 0028 80BD     		pop	{r7, pc}
 881              	.L39:
 882 002a 00BF     		.align	2
 883              	.L38:
 884 002c 64010000 		.word	MyI2C_Regs+356
 885 0030 00000000 		.word	MyI2C_Regs
 886              		.cfi_endproc
 887              	.LFE70:
 888              		.size	commandSendF2F, .-commandSendF2F
 889              		.section	.text.commandSendWiegand,"ax",%progbits
 890              		.align	2
 891              		.global	commandSendWiegand
 892              		.thumb
 893              		.thumb_func
 894              		.type	commandSendWiegand, %function
 895              	commandSendWiegand:
 896              	.LFB71:
 213:commandhandler.c **** void commandSendWiegand(){
 897              		.loc 1 213 0
 898              		.cfi_startproc
 899              		@ args = 0, pretend = 0, frame = 0
 900              		@ frame_needed = 1, uses_anonymous_args = 0
 901 0000 80B5     		push	{r7, lr}
 902              		.cfi_def_cfa_offset 8
 903              		.cfi_offset 7, -8
 904              		.cfi_offset 14, -4
 905 0002 00AF     		add	r7, sp, #0
 906              		.cfi_def_cfa_register 7
 214:commandhandler.c ****     LED_YEL_Write(ON);
 907              		.loc 1 214 0
 908 0004 0020     		movs	r0, #0
 909 0006 FFF7FEFF 		bl	LED_YEL_Write
 215:commandhandler.c **** 	SendWeigand(MyI2C_Regs.buffer, MyI2C_Regs.bits);
 910              		.loc 1 215 0
 911 000a 074B     		ldr	r3, .L41
 912 000c 5B7A     		ldrb	r3, [r3, #9]	@ zero_extendqisi2
 913 000e 1946     		mov	r1, r3
 914 0010 0648     		ldr	r0, .L41+4
 915 0012 FFF7FEFF 		bl	SendWeigand
 216:commandhandler.c ****     MyI2C_Regs.cmd = CMD_NONE;
ARM GAS  C:\Users\Rajesh\AppData\Local\Temp\ccMXbg4e.s 			page 21


 916              		.loc 1 216 0
 917 0016 044B     		ldr	r3, .L41
 918 0018 0022     		movs	r2, #0
 919 001a 9A70     		strb	r2, [r3, #2]
 217:commandhandler.c ****     LED_YEL_Write(OFF);
 920              		.loc 1 217 0
 921 001c 0120     		movs	r0, #1
 922 001e FFF7FEFF 		bl	LED_YEL_Write
 218:commandhandler.c **** }
 923              		.loc 1 218 0
 924 0022 00BF     		nop
 925 0024 80BD     		pop	{r7, pc}
 926              	.L42:
 927 0026 00BF     		.align	2
 928              	.L41:
 929 0028 00000000 		.word	MyI2C_Regs
 930 002c 64010000 		.word	MyI2C_Regs+356
 931              		.cfi_endproc
 932              	.LFE71:
 933              		.size	commandSendWiegand, .-commandSendWiegand
 934              		.section	.text.commandSendTOC,"ax",%progbits
 935              		.align	2
 936              		.global	commandSendTOC
 937              		.thumb
 938              		.thumb_func
 939              		.type	commandSendTOC, %function
 940              	commandSendTOC:
 941              	.LFB72:
 219:commandhandler.c **** 
 220:commandhandler.c **** void commandSendTOC(int len){
 942              		.loc 1 220 0
 943              		.cfi_startproc
 944              		@ args = 0, pretend = 0, frame = 8
 945              		@ frame_needed = 1, uses_anonymous_args = 0
 946 0000 80B5     		push	{r7, lr}
 947              		.cfi_def_cfa_offset 8
 948              		.cfi_offset 7, -8
 949              		.cfi_offset 14, -4
 950 0002 82B0     		sub	sp, sp, #8
 951              		.cfi_def_cfa_offset 16
 952 0004 00AF     		add	r7, sp, #0
 953              		.cfi_def_cfa_register 7
 954 0006 7860     		str	r0, [r7, #4]
 221:commandhandler.c ****     card_ack = 1; //stop resending function
 955              		.loc 1 221 0
 956 0008 0F4B     		ldr	r3, .L45
 957 000a 0122     		movs	r2, #1
 958 000c 1A60     		str	r2, [r3]
 222:commandhandler.c ****     MyI2C_Regs.status_out = 0; //clear old status.
 959              		.loc 1 222 0
 960 000e 0F4B     		ldr	r3, .L45+4
 961 0010 0022     		movs	r2, #0
 962 0012 1A70     		strb	r2, [r3]
 223:commandhandler.c ****     if (TOC_port_init == 0){
 963              		.loc 1 223 0
 964 0014 0E4B     		ldr	r3, .L45+8
 965 0016 1B78     		ldrb	r3, [r3]	@ zero_extendqisi2
ARM GAS  C:\Users\Rajesh\AppData\Local\Temp\ccMXbg4e.s 			page 22


 966 0018 002B     		cmp	r3, #0
 967 001a 04D1     		bne	.L44
 224:commandhandler.c ****         initTocReaderUART();
 968              		.loc 1 224 0
 969 001c FFF7FEFF 		bl	initTocReaderUART
 225:commandhandler.c ****         TOC_port_init = 1;
 970              		.loc 1 225 0
 971 0020 0B4B     		ldr	r3, .L45+8
 972 0022 0122     		movs	r2, #1
 973 0024 1A70     		strb	r2, [r3]
 974              	.L44:
 226:commandhandler.c ****     }
 227:commandhandler.c ****                         //initTocReaderUART();
 228:commandhandler.c ****     SendWaveLynxReader(MyI2C_Regs.buffer,len);
 975              		.loc 1 228 0
 976 0026 7968     		ldr	r1, [r7, #4]
 977 0028 0A48     		ldr	r0, .L45+12
 978 002a FFF7FEFF 		bl	SendWaveLynxReader
 229:commandhandler.c ****     rxi = 0;
 979              		.loc 1 229 0
 980 002e 0A4B     		ldr	r3, .L45+16
 981 0030 0022     		movs	r2, #0
 982 0032 1A60     		str	r2, [r3]
 230:commandhandler.c ****     tlv_ready=0;
 983              		.loc 1 230 0
 984 0034 094B     		ldr	r3, .L45+20
 985 0036 0022     		movs	r2, #0
 986 0038 1A70     		strb	r2, [r3]
 231:commandhandler.c ****     MyI2C_Regs.cmd = CMD_READ;                
 987              		.loc 1 231 0
 988 003a 044B     		ldr	r3, .L45+4
 989 003c 0222     		movs	r2, #2
 990 003e 9A70     		strb	r2, [r3, #2]
 232:commandhandler.c **** }
 991              		.loc 1 232 0
 992 0040 00BF     		nop
 993 0042 0837     		adds	r7, r7, #8
 994              		.cfi_def_cfa_offset 8
 995 0044 BD46     		mov	sp, r7
 996              		.cfi_def_cfa_register 13
 997              		@ sp needed
 998 0046 80BD     		pop	{r7, pc}
 999              	.L46:
 1000              		.align	2
 1001              	.L45:
 1002 0048 00000000 		.word	card_ack
 1003 004c 00000000 		.word	MyI2C_Regs
 1004 0050 00000000 		.word	TOC_port_init
 1005 0054 64010000 		.word	MyI2C_Regs+356
 1006 0058 00000000 		.word	rxi
 1007 005c 00000000 		.word	tlv_ready
 1008              		.cfi_endproc
 1009              	.LFE72:
 1010              		.size	commandSendTOC, .-commandSendTOC
 1011              		.section	.text.commandSendPAC,"ax",%progbits
 1012              		.align	2
 1013              		.global	commandSendPAC
ARM GAS  C:\Users\Rajesh\AppData\Local\Temp\ccMXbg4e.s 			page 23


 1014              		.thumb
 1015              		.thumb_func
 1016              		.type	commandSendPAC, %function
 1017              	commandSendPAC:
 1018              	.LFB73:
 233:commandhandler.c **** 
 234:commandhandler.c **** void commandSendPAC(){
 1019              		.loc 1 234 0
 1020              		.cfi_startproc
 1021              		@ args = 0, pretend = 0, frame = 0
 1022              		@ frame_needed = 1, uses_anonymous_args = 0
 1023 0000 80B5     		push	{r7, lr}
 1024              		.cfi_def_cfa_offset 8
 1025              		.cfi_offset 7, -8
 1026              		.cfi_offset 14, -4
 1027 0002 00AF     		add	r7, sp, #0
 1028              		.cfi_def_cfa_register 7
 235:commandhandler.c **** 
 236:commandhandler.c ****     LED_YEL_Write(OFF);
 1029              		.loc 1 236 0
 1030 0004 0120     		movs	r0, #1
 1031 0006 FFF7FEFF 		bl	LED_YEL_Write
 237:commandhandler.c ****     SetupUART(PAC);
 1032              		.loc 1 237 0
 1033 000a 0C20     		movs	r0, #12
 1034 000c FFF7FEFF 		bl	SetupUART
 238:commandhandler.c ****     SendPAC(MyI2C_Regs.buffer);
 1035              		.loc 1 238 0
 1036 0010 0548     		ldr	r0, .L48
 1037 0012 FFF7FEFF 		bl	SendPAC
 239:commandhandler.c ****     MyI2C_Regs.cmd = CMD_NONE;
 1038              		.loc 1 239 0
 1039 0016 054B     		ldr	r3, .L48+4
 1040 0018 0022     		movs	r2, #0
 1041 001a 9A70     		strb	r2, [r3, #2]
 240:commandhandler.c ****     LED_YEL_Write(ON);
 1042              		.loc 1 240 0
 1043 001c 0020     		movs	r0, #0
 1044 001e FFF7FEFF 		bl	LED_YEL_Write
 241:commandhandler.c **** }
 1045              		.loc 1 241 0
 1046 0022 00BF     		nop
 1047 0024 80BD     		pop	{r7, pc}
 1048              	.L49:
 1049 0026 00BF     		.align	2
 1050              	.L48:
 1051 0028 64010000 		.word	MyI2C_Regs+356
 1052 002c 00000000 		.word	MyI2C_Regs
 1053              		.cfi_endproc
 1054              	.LFE73:
 1055              		.size	commandSendPAC, .-commandSendPAC
 1056              		.section	.text.commandReadTOC,"ax",%progbits
 1057              		.align	2
 1058              		.global	commandReadTOC
 1059              		.thumb
 1060              		.thumb_func
 1061              		.type	commandReadTOC, %function
ARM GAS  C:\Users\Rajesh\AppData\Local\Temp\ccMXbg4e.s 			page 24


 1062              	commandReadTOC:
 1063              	.LFB74:
 242:commandhandler.c **** void commandReadTOC(){
 1064              		.loc 1 242 0
 1065              		.cfi_startproc
 1066              		@ args = 0, pretend = 0, frame = 0
 1067              		@ frame_needed = 1, uses_anonymous_args = 0
 1068 0000 80B5     		push	{r7, lr}
 1069              		.cfi_def_cfa_offset 8
 1070              		.cfi_offset 7, -8
 1071              		.cfi_offset 14, -4
 1072 0002 00AF     		add	r7, sp, #0
 1073              		.cfi_def_cfa_register 7
 243:commandhandler.c ****     if (card_in_buf == 0 && card_ack == 1){
 1074              		.loc 1 243 0
 1075 0004 0C4B     		ldr	r3, .L53
 1076 0006 1B68     		ldr	r3, [r3]
 1077 0008 002B     		cmp	r3, #0
 1078 000a 08D1     		bne	.L51
 1079              		.loc 1 243 0 is_stmt 0 discriminator 1
 1080 000c 0B4B     		ldr	r3, .L53+4
 1081 000e 1B68     		ldr	r3, [r3]
 1082 0010 012B     		cmp	r3, #1
 1083 0012 04D1     		bne	.L51
 244:commandhandler.c ****         card_ack = 0;
 1084              		.loc 1 244 0 is_stmt 1
 1085 0014 094B     		ldr	r3, .L53+4
 1086 0016 0022     		movs	r2, #0
 1087 0018 1A60     		str	r2, [r3]
 245:commandhandler.c ****         resetImgBuf();
 1088              		.loc 1 245 0
 1089 001a FFF7FEFF 		bl	resetImgBuf
 1090              	.L51:
 246:commandhandler.c ****     }
 247:commandhandler.c ****     if (TOC_port_init == 0){
 1091              		.loc 1 247 0
 1092 001e 084B     		ldr	r3, .L53+8
 1093 0020 1B78     		ldrb	r3, [r3]	@ zero_extendqisi2
 1094 0022 002B     		cmp	r3, #0
 1095 0024 04D1     		bne	.L52
 248:commandhandler.c ****         initTocReaderUART();
 1096              		.loc 1 248 0
 1097 0026 FFF7FEFF 		bl	initTocReaderUART
 249:commandhandler.c ****         TOC_port_init = 1;
 1098              		.loc 1 249 0
 1099 002a 054B     		ldr	r3, .L53+8
 1100 002c 0122     		movs	r2, #1
 1101 002e 1A70     		strb	r2, [r3]
 1102              	.L52:
 250:commandhandler.c ****     }
 251:commandhandler.c ****         //initTocReaderUART();
 252:commandhandler.c ****     ReadImageCard();
 1103              		.loc 1 252 0
 1104 0030 FFF7FEFF 		bl	ReadImageCard
 253:commandhandler.c ****   
 254:commandhandler.c **** }
 1105              		.loc 1 254 0
ARM GAS  C:\Users\Rajesh\AppData\Local\Temp\ccMXbg4e.s 			page 25


 1106 0034 00BF     		nop
 1107 0036 80BD     		pop	{r7, pc}
 1108              	.L54:
 1109              		.align	2
 1110              	.L53:
 1111 0038 00000000 		.word	card_in_buf
 1112 003c 00000000 		.word	card_ack
 1113 0040 00000000 		.word	TOC_port_init
 1114              		.cfi_endproc
 1115              	.LFE74:
 1116              		.size	commandReadTOC, .-commandReadTOC
 1117              		.section	.text.HandleCommand,"ax",%progbits
 1118              		.align	2
 1119              		.global	HandleCommand
 1120              		.thumb
 1121              		.thumb_func
 1122              		.type	HandleCommand, %function
 1123              	HandleCommand:
 1124              	.LFB75:
 255:commandhandler.c **** 
 256:commandhandler.c **** 
 257:commandhandler.c **** void HandleCommand()
 258:commandhandler.c **** {
 1125              		.loc 1 258 0
 1126              		.cfi_startproc
 1127              		@ args = 0, pretend = 0, frame = 16
 1128              		@ frame_needed = 1, uses_anonymous_args = 0
 1129 0000 80B5     		push	{r7, lr}
 1130              		.cfi_def_cfa_offset 8
 1131              		.cfi_offset 7, -8
 1132              		.cfi_offset 14, -4
 1133 0002 84B0     		sub	sp, sp, #16
 1134              		.cfi_def_cfa_offset 24
 1135 0004 00AF     		add	r7, sp, #0
 1136              		.cfi_def_cfa_register 7
 259:commandhandler.c ****     char cmd;
 260:commandhandler.c ****     int len;
 261:commandhandler.c ****     int i;
 262:commandhandler.c ****     cmd = MyI2C_Regs.cmd;
 1137              		.loc 1 262 0
 1138 0006 DE4B     		ldr	r3, .L149
 1139 0008 9B78     		ldrb	r3, [r3, #2]
 1140 000a FB72     		strb	r3, [r7, #11]
 263:commandhandler.c ****     run_mode = MyI2C_Regs.mode;
 1141              		.loc 1 263 0
 1142 000c DC4B     		ldr	r3, .L149
 1143 000e DA78     		ldrb	r2, [r3, #3]	@ zero_extendqisi2
 1144 0010 DC4B     		ldr	r3, .L149+4
 1145 0012 1A70     		strb	r2, [r3]
 264:commandhandler.c ****     len = (MyI2C_Regs.data_length[0] << 8) + MyI2C_Regs.data_length[1];
 1146              		.loc 1 264 0
 1147 0014 DA4B     		ldr	r3, .L149
 1148 0016 DB79     		ldrb	r3, [r3, #7]	@ zero_extendqisi2
 1149 0018 1B02     		lsls	r3, r3, #8
 1150 001a D94A     		ldr	r2, .L149
 1151 001c 127A     		ldrb	r2, [r2, #8]	@ zero_extendqisi2
 1152 001e 1344     		add	r3, r3, r2
ARM GAS  C:\Users\Rajesh\AppData\Local\Temp\ccMXbg4e.s 			page 26


 1153 0020 7B60     		str	r3, [r7, #4]
 265:commandhandler.c ****     
 266:commandhandler.c ****     
 267:commandhandler.c ****     if(cmd == CMD_SEND){
 1154              		.loc 1 267 0
 1155 0022 FB7A     		ldrb	r3, [r7, #11]	@ zero_extendqisi2
 1156 0024 032B     		cmp	r3, #3
 1157 0026 0DD1     		bne	.L56
 268:commandhandler.c ****         if (run_mode == 0) run_mode = MODE_WIEGAND; //garbage in
 1158              		.loc 1 268 0
 1159 0028 D64B     		ldr	r3, .L149+4
 1160 002a 1B78     		ldrb	r3, [r3]	@ zero_extendqisi2
 1161 002c 002B     		cmp	r3, #0
 1162 002e 02D1     		bne	.L57
 1163              		.loc 1 268 0 is_stmt 0 discriminator 1
 1164 0030 D44B     		ldr	r3, .L149+4
 1165 0032 0622     		movs	r2, #6
 1166 0034 1A70     		strb	r2, [r3]
 1167              	.L57:
 269:commandhandler.c ****         if (MyI2C_Regs.bits == 0) MyI2C_Regs.bits = 0x1A; //garbage in, right out
 1168              		.loc 1 269 0 is_stmt 1
 1169 0036 D24B     		ldr	r3, .L149
 1170 0038 5B7A     		ldrb	r3, [r3, #9]	@ zero_extendqisi2
 1171 003a 002B     		cmp	r3, #0
 1172 003c 02D1     		bne	.L56
 1173              		.loc 1 269 0 is_stmt 0 discriminator 1
 1174 003e D04B     		ldr	r3, .L149
 1175 0040 1A22     		movs	r2, #26
 1176 0042 5A72     		strb	r2, [r3, #9]
 1177              	.L56:
 270:commandhandler.c ****     }
 271:commandhandler.c ****     if((run_mode == MODE_WIEGAND) || (run_mode == MODE_WIEGAND + BASE_PASS) || (run_mode == MODE_WI
 1178              		.loc 1 271 0 is_stmt 1
 1179 0044 CF4B     		ldr	r3, .L149+4
 1180 0046 1B78     		ldrb	r3, [r3]	@ zero_extendqisi2
 1181 0048 062B     		cmp	r3, #6
 1182 004a 07D0     		beq	.L58
 1183              		.loc 1 271 0 is_stmt 0 discriminator 1
 1184 004c CD4B     		ldr	r3, .L149+4
 1185 004e 1B78     		ldrb	r3, [r3]	@ zero_extendqisi2
 1186 0050 6A2B     		cmp	r3, #106
 1187 0052 03D0     		beq	.L58
 1188              		.loc 1 271 0 discriminator 2
 1189 0054 CB4B     		ldr	r3, .L149+4
 1190 0056 1B78     		ldrb	r3, [r3]	@ zero_extendqisi2
 1191 0058 9C2B     		cmp	r3, #156
 1192 005a 02D1     		bne	.L59
 1193              	.L58:
 272:commandhandler.c ****         isr_WD_SYNC_Enable();
 1194              		.loc 1 272 0 is_stmt 1
 1195 005c FFF7FEFF 		bl	isr_WD_SYNC_Enable
 1196 0060 01E0     		b	.L60
 1197              	.L59:
 273:commandhandler.c ****     } else {
 274:commandhandler.c ****         isr_WD_SYNC_Disable();
 1198              		.loc 1 274 0
 1199 0062 FFF7FEFF 		bl	isr_WD_SYNC_Disable
ARM GAS  C:\Users\Rajesh\AppData\Local\Temp\ccMXbg4e.s 			page 27


 1200              	.L60:
 275:commandhandler.c ****     }
 276:commandhandler.c ****         if((run_mode == MODE_F2F) || (run_mode == MODE_F2F + BASE_PASS)){
 1201              		.loc 1 276 0
 1202 0066 C74B     		ldr	r3, .L149+4
 1203 0068 1B78     		ldrb	r3, [r3]	@ zero_extendqisi2
 1204 006a 052B     		cmp	r3, #5
 1205 006c 03D0     		beq	.L61
 1206              		.loc 1 276 0 is_stmt 0 discriminator 1
 1207 006e C54B     		ldr	r3, .L149+4
 1208 0070 1B78     		ldrb	r3, [r3]	@ zero_extendqisi2
 1209 0072 692B     		cmp	r3, #105
 1210 0074 02D1     		bne	.L62
 1211              	.L61:
 277:commandhandler.c ****         isr_F2F_edge_Enable();
 1212              		.loc 1 277 0 is_stmt 1
 1213 0076 FFF7FEFF 		bl	isr_F2F_edge_Enable
 1214 007a 01E0     		b	.L63
 1215              	.L62:
 278:commandhandler.c ****     } else {
 279:commandhandler.c ****         isr_F2F_edge_Disable();
 1216              		.loc 1 279 0
 1217 007c FFF7FEFF 		bl	isr_F2F_edge_Disable
 1218              	.L63:
 280:commandhandler.c ****     }
 281:commandhandler.c **** 
 282:commandhandler.c ****     
 283:commandhandler.c ****     switch (run_mode)
 1219              		.loc 1 283 0
 1220 0080 C04B     		ldr	r3, .L149+4
 1221 0082 1B78     		ldrb	r3, [r3]	@ zero_extendqisi2
 1222 0084 023B     		subs	r3, r3, #2
 1223 0086 9A2B     		cmp	r3, #154
 1224 0088 00F2BE82 		bhi	.L134
 1225 008c 01A2     		adr	r2, .L66
 1226 008e 52F823F0 		ldr	pc, [r2, r3, lsl #2]
 1227 0092 00BF     		.p2align 2
 1228              	.L66:
 1229 0094 01030000 		.word	.L65+1
 1230 0098 CF050000 		.word	.L67+1
 1231 009c 33050000 		.word	.L68+1
 1232 00a0 4F030000 		.word	.L69+1
 1233 00a4 57040000 		.word	.L70+1
 1234 00a8 09060000 		.word	.L134+1
 1235 00ac 09060000 		.word	.L134+1
 1236 00b0 09060000 		.word	.L134+1
 1237 00b4 09060000 		.word	.L134+1
 1238 00b8 09060000 		.word	.L134+1
 1239 00bc 09060000 		.word	.L134+1
 1240 00c0 09060000 		.word	.L134+1
 1241 00c4 09060000 		.word	.L134+1
 1242 00c8 09060000 		.word	.L134+1
 1243 00cc 09060000 		.word	.L134+1
 1244 00d0 09060000 		.word	.L134+1
 1245 00d4 09060000 		.word	.L134+1
 1246 00d8 09060000 		.word	.L134+1
 1247 00dc 09060000 		.word	.L134+1
ARM GAS  C:\Users\Rajesh\AppData\Local\Temp\ccMXbg4e.s 			page 28


 1248 00e0 09060000 		.word	.L134+1
 1249 00e4 09060000 		.word	.L134+1
 1250 00e8 09060000 		.word	.L134+1
 1251 00ec 09060000 		.word	.L134+1
 1252 00f0 09060000 		.word	.L134+1
 1253 00f4 09060000 		.word	.L134+1
 1254 00f8 09060000 		.word	.L134+1
 1255 00fc 09060000 		.word	.L134+1
 1256 0100 09060000 		.word	.L134+1
 1257 0104 09060000 		.word	.L134+1
 1258 0108 09060000 		.word	.L134+1
 1259 010c 09060000 		.word	.L134+1
 1260 0110 09060000 		.word	.L134+1
 1261 0114 09060000 		.word	.L134+1
 1262 0118 09060000 		.word	.L134+1
 1263 011c 09060000 		.word	.L134+1
 1264 0120 09060000 		.word	.L134+1
 1265 0124 09060000 		.word	.L134+1
 1266 0128 09060000 		.word	.L134+1
 1267 012c 09060000 		.word	.L134+1
 1268 0130 09060000 		.word	.L134+1
 1269 0134 09060000 		.word	.L134+1
 1270 0138 09060000 		.word	.L134+1
 1271 013c 09060000 		.word	.L134+1
 1272 0140 09060000 		.word	.L134+1
 1273 0144 09060000 		.word	.L134+1
 1274 0148 09060000 		.word	.L134+1
 1275 014c 09060000 		.word	.L134+1
 1276 0150 09060000 		.word	.L134+1
 1277 0154 09060000 		.word	.L134+1
 1278 0158 09060000 		.word	.L134+1
 1279 015c 25030000 		.word	.L71+1
 1280 0160 CF050000 		.word	.L67+1
 1281 0164 7D050000 		.word	.L72+1
 1282 0168 31040000 		.word	.L73+1
 1283 016c 9B040000 		.word	.L74+1
 1284 0170 09060000 		.word	.L134+1
 1285 0174 09060000 		.word	.L134+1
 1286 0178 09060000 		.word	.L134+1
 1287 017c 09060000 		.word	.L134+1
 1288 0180 09060000 		.word	.L134+1
 1289 0184 09060000 		.word	.L134+1
 1290 0188 09060000 		.word	.L134+1
 1291 018c 09060000 		.word	.L134+1
 1292 0190 09060000 		.word	.L134+1
 1293 0194 09060000 		.word	.L134+1
 1294 0198 09060000 		.word	.L134+1
 1295 019c 09060000 		.word	.L134+1
 1296 01a0 09060000 		.word	.L134+1
 1297 01a4 09060000 		.word	.L134+1
 1298 01a8 09060000 		.word	.L134+1
 1299 01ac 09060000 		.word	.L134+1
 1300 01b0 09060000 		.word	.L134+1
 1301 01b4 09060000 		.word	.L134+1
 1302 01b8 09060000 		.word	.L134+1
 1303 01bc 09060000 		.word	.L134+1
 1304 01c0 09060000 		.word	.L134+1
ARM GAS  C:\Users\Rajesh\AppData\Local\Temp\ccMXbg4e.s 			page 29


 1305 01c4 09060000 		.word	.L134+1
 1306 01c8 09060000 		.word	.L134+1
 1307 01cc 09060000 		.word	.L134+1
 1308 01d0 09060000 		.word	.L134+1
 1309 01d4 09060000 		.word	.L134+1
 1310 01d8 09060000 		.word	.L134+1
 1311 01dc 09060000 		.word	.L134+1
 1312 01e0 09060000 		.word	.L134+1
 1313 01e4 09060000 		.word	.L134+1
 1314 01e8 09060000 		.word	.L134+1
 1315 01ec 09060000 		.word	.L134+1
 1316 01f0 09060000 		.word	.L134+1
 1317 01f4 09060000 		.word	.L134+1
 1318 01f8 09060000 		.word	.L134+1
 1319 01fc 09060000 		.word	.L134+1
 1320 0200 09060000 		.word	.L134+1
 1321 0204 09060000 		.word	.L134+1
 1322 0208 09060000 		.word	.L134+1
 1323 020c 09060000 		.word	.L134+1
 1324 0210 09060000 		.word	.L134+1
 1325 0214 09060000 		.word	.L134+1
 1326 0218 09060000 		.word	.L134+1
 1327 021c 09060000 		.word	.L134+1
 1328 0220 09060000 		.word	.L134+1
 1329 0224 01030000 		.word	.L65+1
 1330 0228 E5050000 		.word	.L75+1
 1331 022c 9F050000 		.word	.L76+1
 1332 0230 CD030000 		.word	.L77+1
 1333 0234 BF040000 		.word	.L78+1
 1334 0238 09060000 		.word	.L134+1
 1335 023c 09060000 		.word	.L134+1
 1336 0240 09060000 		.word	.L134+1
 1337 0244 09060000 		.word	.L134+1
 1338 0248 09060000 		.word	.L134+1
 1339 024c 09060000 		.word	.L134+1
 1340 0250 09060000 		.word	.L134+1
 1341 0254 09060000 		.word	.L134+1
 1342 0258 09060000 		.word	.L134+1
 1343 025c 09060000 		.word	.L134+1
 1344 0260 09060000 		.word	.L134+1
 1345 0264 09060000 		.word	.L134+1
 1346 0268 09060000 		.word	.L134+1
 1347 026c 09060000 		.word	.L134+1
 1348 0270 09060000 		.word	.L134+1
 1349 0274 09060000 		.word	.L134+1
 1350 0278 09060000 		.word	.L134+1
 1351 027c 09060000 		.word	.L134+1
 1352 0280 09060000 		.word	.L134+1
 1353 0284 09060000 		.word	.L134+1
 1354 0288 09060000 		.word	.L134+1
 1355 028c 09060000 		.word	.L134+1
 1356 0290 09060000 		.word	.L134+1
 1357 0294 09060000 		.word	.L134+1
 1358 0298 09060000 		.word	.L134+1
 1359 029c 09060000 		.word	.L134+1
 1360 02a0 09060000 		.word	.L134+1
 1361 02a4 09060000 		.word	.L134+1
ARM GAS  C:\Users\Rajesh\AppData\Local\Temp\ccMXbg4e.s 			page 30


 1362 02a8 09060000 		.word	.L134+1
 1363 02ac 09060000 		.word	.L134+1
 1364 02b0 09060000 		.word	.L134+1
 1365 02b4 09060000 		.word	.L134+1
 1366 02b8 09060000 		.word	.L134+1
 1367 02bc 09060000 		.word	.L134+1
 1368 02c0 09060000 		.word	.L134+1
 1369 02c4 09060000 		.word	.L134+1
 1370 02c8 09060000 		.word	.L134+1
 1371 02cc 09060000 		.word	.L134+1
 1372 02d0 09060000 		.word	.L134+1
 1373 02d4 09060000 		.word	.L134+1
 1374 02d8 09060000 		.word	.L134+1
 1375 02dc 09060000 		.word	.L134+1
 1376 02e0 09060000 		.word	.L134+1
 1377 02e4 09060000 		.word	.L134+1
 1378 02e8 09060000 		.word	.L134+1
 1379 02ec 09060000 		.word	.L134+1
 1380 02f0 09060000 		.word	.L134+1
 1381 02f4 09060000 		.word	.L134+1
 1382 02f8 09060000 		.word	.L134+1
 1383 02fc F1040000 		.word	.L79+1
 1384              		.p2align 1
 1385              	.L65:
 284:commandhandler.c ****     {
 285:commandhandler.c ****         case MODE_OSDP:
 286:commandhandler.c ****         case MODE_OSDP + BASE_PASS:
 287:commandhandler.c ****             if(0==isr_keepalive_GetState())
 1386              		.loc 1 287 0
 1387 0300 FFF7FEFF 		bl	isr_keepalive_GetState
 1388 0304 0346     		mov	r3, r0
 1389 0306 002B     		cmp	r3, #0
 1390 0308 01D1     		bne	.L80
 288:commandhandler.c ****             {
 289:commandhandler.c **** 
 290:commandhandler.c ****                 initOSDP();
 1391              		.loc 1 290 0
 1392 030a FFF7FEFF 		bl	initOSDP
 1393              	.L80:
 291:commandhandler.c ****             }
 292:commandhandler.c ****                 MyI2C_Regs.buffer1[12] ++;
 1394              		.loc 1 292 0
 1395 030e 1C4B     		ldr	r3, .L149
 1396 0310 93F85530 		ldrb	r3, [r3, #85]	@ zero_extendqisi2
 1397 0314 0133     		adds	r3, r3, #1
 1398 0316 DAB2     		uxtb	r2, r3
 1399 0318 194B     		ldr	r3, .L149
 1400 031a 83F85520 		strb	r2, [r3, #85]
 293:commandhandler.c ****                 HandleOSDP();
 1401              		.loc 1 293 0
 1402 031e FFF7FEFF 		bl	HandleOSDP
 294:commandhandler.c ****             return;
 1403              		.loc 1 294 0
 1404 0322 FBE1     		b	.L55
 1405              	.L71:
 295:commandhandler.c ****         case MODE_OSDP + BASE_TOC:
 296:commandhandler.c ****             if(cmd == CMD_SEND_TOC_READER){
ARM GAS  C:\Users\Rajesh\AppData\Local\Temp\ccMXbg4e.s 			page 31


 1406              		.loc 1 296 0
 1407 0324 FB7A     		ldrb	r3, [r7, #11]	@ zero_extendqisi2
 1408 0326 042B     		cmp	r3, #4
 1409 0328 02D1     		bne	.L82
 297:commandhandler.c ****                 commandSendTOC(len);
 1410              		.loc 1 297 0
 1411 032a 7868     		ldr	r0, [r7, #4]
 1412 032c FFF7FEFF 		bl	commandSendTOC
 1413              	.L82:
 298:commandhandler.c ****             }
 299:commandhandler.c ****             if(cmd == CMD_READ){
 1414              		.loc 1 299 0
 1415 0330 FB7A     		ldrb	r3, [r7, #11]	@ zero_extendqisi2
 1416 0332 022B     		cmp	r3, #2
 1417 0334 01D1     		bne	.L83
 300:commandhandler.c ****                 commandReadTOC();
 1418              		.loc 1 300 0
 1419 0336 FFF7FEFF 		bl	commandReadTOC
 1420              	.L83:
 301:commandhandler.c ****             }
 302:commandhandler.c ****             if(0==isr_keepalive_GetState())
 1421              		.loc 1 302 0
 1422 033a FFF7FEFF 		bl	isr_keepalive_GetState
 1423 033e 0346     		mov	r3, r0
 1424 0340 002B     		cmp	r3, #0
 1425 0342 01D1     		bne	.L84
 303:commandhandler.c ****             {
 304:commandhandler.c ****                 initOSDP();
 1426              		.loc 1 304 0
 1427 0344 FFF7FEFF 		bl	initOSDP
 1428              	.L84:
 305:commandhandler.c ****             }
 306:commandhandler.c ****             HandleOSDP();
 1429              		.loc 1 306 0
 1430 0348 FFF7FEFF 		bl	HandleOSDP
 307:commandhandler.c ****             return;
 1431              		.loc 1 307 0
 1432 034c E6E1     		b	.L55
 1433              	.L69:
 308:commandhandler.c ****         case MODE_F2F:
 309:commandhandler.c ****             if (f2f_send_alive)
 1434              		.loc 1 309 0
 1435 034e 0E4B     		ldr	r3, .L149+8
 1436 0350 1B78     		ldrb	r3, [r3]	@ zero_extendqisi2
 1437 0352 002B     		cmp	r3, #0
 1438 0354 0DD0     		beq	.L85
 310:commandhandler.c ****             {
 311:commandhandler.c ****                 SendF2F(f2f_alive_message,5);
 1439              		.loc 1 311 0
 1440 0356 0521     		movs	r1, #5
 1441 0358 0C48     		ldr	r0, .L149+12
 1442 035a FFF7FEFF 		bl	SendF2F
 312:commandhandler.c ****                 Tamper_Timer_ISR_Disable();
 1443              		.loc 1 312 0
 1444 035e FFF7FEFF 		bl	Tamper_Timer_ISR_Disable
 313:commandhandler.c ****                 f2f_send_alive = 0;
 1445              		.loc 1 313 0
ARM GAS  C:\Users\Rajesh\AppData\Local\Temp\ccMXbg4e.s 			page 32


 1446 0362 094B     		ldr	r3, .L149+8
 1447 0364 0022     		movs	r2, #0
 1448 0366 1A70     		strb	r2, [r3]
 314:commandhandler.c ****                 f2f_alive_delay_cnt = 0;
 1449              		.loc 1 314 0
 1450 0368 094B     		ldr	r3, .L149+16
 1451 036a 0022     		movs	r2, #0
 1452 036c 1A60     		str	r2, [r3]
 315:commandhandler.c ****                 Tamper_Timer_ISR_Enable();
 1453              		.loc 1 315 0
 1454 036e FFF7FEFF 		bl	Tamper_Timer_ISR_Enable
 1455              	.L85:
 316:commandhandler.c ****             }
 317:commandhandler.c **** 		    if(cmd == CMD_READ){
 1456              		.loc 1 317 0
 1457 0372 FB7A     		ldrb	r3, [r7, #11]	@ zero_extendqisi2
 1458 0374 022B     		cmp	r3, #2
 1459 0376 21D1     		bne	.L86
 318:commandhandler.c ****                 LED_GRN_Write(OFF);
 1460              		.loc 1 318 0
 1461 0378 0120     		movs	r0, #1
 1462 037a FFF7FEFF 		bl	LED_GRN_Write
 319:commandhandler.c ****                 while(ReadF2F(MyI2C_Regs.bits,0) == 0)
 1463              		.loc 1 319 0
 1464 037e 0FE0     		b	.L87
 1465              	.L150:
 1466              		.align	2
 1467              	.L149:
 1468 0380 00000000 		.word	MyI2C_Regs
 1469 0384 00000000 		.word	run_mode
 1470 0388 00000000 		.word	f2f_send_alive
 1471 038c 00000000 		.word	f2f_alive_message
 1472 0390 00000000 		.word	f2f_alive_delay_cnt
 1473              	.L90:
 320:commandhandler.c ****                 {
 321:commandhandler.c ****                     if( MyI2C_Regs.cmd != CMD_READ ) 
 1474              		.loc 1 321 0
 1475 0394 B64B     		ldr	r3, .L151
 1476 0396 9B78     		ldrb	r3, [r3, #2]	@ zero_extendqisi2
 1477 0398 022B     		cmp	r3, #2
 1478 039a 0BD1     		bne	.L135
 322:commandhandler.c ****                          break;
 323:commandhandler.c ****                     HandleUSB();
 1479              		.loc 1 323 0
 1480 039c FFF7FEFF 		bl	HandleUSB
 1481              	.L87:
 319:commandhandler.c ****                 {
 1482              		.loc 1 319 0
 1483 03a0 B34B     		ldr	r3, .L151
 1484 03a2 5B7A     		ldrb	r3, [r3, #9]	@ zero_extendqisi2
 1485 03a4 0021     		movs	r1, #0
 1486 03a6 1846     		mov	r0, r3
 1487 03a8 FFF7FEFF 		bl	ReadF2F
 1488 03ac 0346     		mov	r3, r0
 1489 03ae 002B     		cmp	r3, #0
 1490 03b0 F0D0     		beq	.L90
 1491 03b2 00E0     		b	.L89
ARM GAS  C:\Users\Rajesh\AppData\Local\Temp\ccMXbg4e.s 			page 33


 1492              	.L135:
 322:commandhandler.c ****                          break;
 1493              		.loc 1 322 0
 1494 03b4 00BF     		nop
 1495              	.L89:
 324:commandhandler.c ****                 }
 325:commandhandler.c ****                 LED_GRN_Write(ON);
 1496              		.loc 1 325 0
 1497 03b6 0020     		movs	r0, #0
 1498 03b8 FFF7FEFF 		bl	LED_GRN_Write
 1499              	.L86:
 326:commandhandler.c **** 		    }	
 327:commandhandler.c **** 		    if(cmd == CMD_SEND){
 1500              		.loc 1 327 0
 1501 03bc FB7A     		ldrb	r3, [r7, #11]	@ zero_extendqisi2
 1502 03be 032B     		cmp	r3, #3
 1503 03c0 40F02481 		bne	.L136
 328:commandhandler.c ****                 commandSendF2F(len);
 1504              		.loc 1 328 0
 1505 03c4 7868     		ldr	r0, [r7, #4]
 1506 03c6 FFF7FEFF 		bl	commandSendF2F
 329:commandhandler.c **** 		    }
 330:commandhandler.c ****             break;
 1507              		.loc 1 330 0
 1508 03ca 1FE1     		b	.L136
 1509              	.L77:
 331:commandhandler.c ****         case MODE_F2F + BASE_PASS:
 332:commandhandler.c ****             if (f2f_send_alive)
 1510              		.loc 1 332 0
 1511 03cc A94B     		ldr	r3, .L151+4
 1512 03ce 1B78     		ldrb	r3, [r3]	@ zero_extendqisi2
 1513 03d0 002B     		cmp	r3, #0
 1514 03d2 0DD0     		beq	.L93
 333:commandhandler.c ****             {
 334:commandhandler.c ****                 SendF2F(f2f_alive_message,5);
 1515              		.loc 1 334 0
 1516 03d4 0521     		movs	r1, #5
 1517 03d6 A848     		ldr	r0, .L151+8
 1518 03d8 FFF7FEFF 		bl	SendF2F
 335:commandhandler.c ****                 Tamper_Timer_ISR_Disable();
 1519              		.loc 1 335 0
 1520 03dc FFF7FEFF 		bl	Tamper_Timer_ISR_Disable
 336:commandhandler.c ****                 f2f_send_alive = 0;
 1521              		.loc 1 336 0
 1522 03e0 A44B     		ldr	r3, .L151+4
 1523 03e2 0022     		movs	r2, #0
 1524 03e4 1A70     		strb	r2, [r3]
 337:commandhandler.c ****                 f2f_alive_delay_cnt = 0;
 1525              		.loc 1 337 0
 1526 03e6 A54B     		ldr	r3, .L151+12
 1527 03e8 0022     		movs	r2, #0
 1528 03ea 1A60     		str	r2, [r3]
 338:commandhandler.c ****                 Tamper_Timer_ISR_Enable();
 1529              		.loc 1 338 0
 1530 03ec FFF7FEFF 		bl	Tamper_Timer_ISR_Enable
 1531              	.L93:
 339:commandhandler.c ****             }
ARM GAS  C:\Users\Rajesh\AppData\Local\Temp\ccMXbg4e.s 			page 34


 340:commandhandler.c **** 		    if(cmd == CMD_NONE){
 1532              		.loc 1 340 0
 1533 03f0 FB7A     		ldrb	r3, [r7, #11]	@ zero_extendqisi2
 1534 03f2 002B     		cmp	r3, #0
 1535 03f4 14D1     		bne	.L94
 341:commandhandler.c ****                 LED_GRN_Write(OFF);
 1536              		.loc 1 341 0
 1537 03f6 0120     		movs	r0, #1
 1538 03f8 FFF7FEFF 		bl	LED_GRN_Write
 342:commandhandler.c ****                 for (i=0; i<10; i++){ //wait a while
 1539              		.loc 1 342 0
 1540 03fc 0023     		movs	r3, #0
 1541 03fe FB60     		str	r3, [r7, #12]
 1542 0400 08E0     		b	.L95
 1543              	.L96:
 343:commandhandler.c ****                     ReadF2F(MyI2C_Regs.bits,1);
 1544              		.loc 1 343 0 discriminator 3
 1545 0402 9B4B     		ldr	r3, .L151
 1546 0404 5B7A     		ldrb	r3, [r3, #9]	@ zero_extendqisi2
 1547 0406 0121     		movs	r1, #1
 1548 0408 1846     		mov	r0, r3
 1549 040a FFF7FEFF 		bl	ReadF2F
 342:commandhandler.c ****                 for (i=0; i<10; i++){ //wait a while
 1550              		.loc 1 342 0 discriminator 3
 1551 040e FB68     		ldr	r3, [r7, #12]
 1552 0410 0133     		adds	r3, r3, #1
 1553 0412 FB60     		str	r3, [r7, #12]
 1554              	.L95:
 342:commandhandler.c ****                 for (i=0; i<10; i++){ //wait a while
 1555              		.loc 1 342 0 is_stmt 0 discriminator 1
 1556 0414 FB68     		ldr	r3, [r7, #12]
 1557 0416 092B     		cmp	r3, #9
 1558 0418 F3DD     		ble	.L96
 344:commandhandler.c ****                 }
 345:commandhandler.c ****                 LED_GRN_Write(ON);
 1559              		.loc 1 345 0 is_stmt 1
 1560 041a 0020     		movs	r0, #0
 1561 041c FFF7FEFF 		bl	LED_GRN_Write
 1562              	.L94:
 346:commandhandler.c **** 		    }
 347:commandhandler.c **** 		    if(cmd == CMD_SEND){
 1563              		.loc 1 347 0
 1564 0420 FB7A     		ldrb	r3, [r7, #11]	@ zero_extendqisi2
 1565 0422 032B     		cmp	r3, #3
 1566 0424 40F0F480 		bne	.L137
 348:commandhandler.c ****                 commandSendF2F(len);
 1567              		.loc 1 348 0
 1568 0428 7868     		ldr	r0, [r7, #4]
 1569 042a FFF7FEFF 		bl	commandSendF2F
 349:commandhandler.c ****     		}
 350:commandhandler.c ****             break;
 1570              		.loc 1 350 0
 1571 042e EFE0     		b	.L137
 1572              	.L73:
 351:commandhandler.c **** 	    case MODE_F2F + BASE_TOC:
 352:commandhandler.c **** 		    if(cmd == CMD_SEND){
 1573              		.loc 1 352 0
ARM GAS  C:\Users\Rajesh\AppData\Local\Temp\ccMXbg4e.s 			page 35


 1574 0430 FB7A     		ldrb	r3, [r7, #11]	@ zero_extendqisi2
 1575 0432 032B     		cmp	r3, #3
 1576 0434 02D1     		bne	.L98
 353:commandhandler.c ****                 commandSendF2F(len);
 1577              		.loc 1 353 0
 1578 0436 7868     		ldr	r0, [r7, #4]
 1579 0438 FFF7FEFF 		bl	commandSendF2F
 1580              	.L98:
 354:commandhandler.c ****     		}
 355:commandhandler.c ****             if(cmd == CMD_READ){
 1581              		.loc 1 355 0
 1582 043c FB7A     		ldrb	r3, [r7, #11]	@ zero_extendqisi2
 1583 043e 022B     		cmp	r3, #2
 1584 0440 01D1     		bne	.L99
 356:commandhandler.c ****                 commandReadTOC();
 1585              		.loc 1 356 0
 1586 0442 FFF7FEFF 		bl	commandReadTOC
 1587              	.L99:
 357:commandhandler.c ****             }
 358:commandhandler.c ****             if(cmd == CMD_SEND_TOC_READER){
 1588              		.loc 1 358 0
 1589 0446 FB7A     		ldrb	r3, [r7, #11]	@ zero_extendqisi2
 1590 0448 042B     		cmp	r3, #4
 1591 044a 40F0E380 		bne	.L138
 359:commandhandler.c ****                 commandSendTOC(len);
 1592              		.loc 1 359 0
 1593 044e 7868     		ldr	r0, [r7, #4]
 1594 0450 FFF7FEFF 		bl	commandSendTOC
 360:commandhandler.c ****             }
 361:commandhandler.c ****   
 362:commandhandler.c **** 		    break;
 1595              		.loc 1 362 0
 1596 0454 DEE0     		b	.L138
 1597              	.L70:
 363:commandhandler.c ****         case MODE_WIEGAND:
 364:commandhandler.c ****             if(cmd == CMD_READ){
 1598              		.loc 1 364 0
 1599 0456 FB7A     		ldrb	r3, [r7, #11]	@ zero_extendqisi2
 1600 0458 022B     		cmp	r3, #2
 1601 045a 17D1     		bne	.L101
 365:commandhandler.c ****                 LED_GRN_Write(OFF);
 1602              		.loc 1 365 0
 1603 045c 0120     		movs	r0, #1
 1604 045e FFF7FEFF 		bl	LED_GRN_Write
 366:commandhandler.c ****                 while(ReadWeigand(MyI2C_Regs.bits,0) == 0)
 1605              		.loc 1 366 0
 1606 0462 05E0     		b	.L102
 1607              	.L105:
 367:commandhandler.c ****                 {
 368:commandhandler.c ****                     if(MyI2C_Regs.cmd !=CMD_READ ) 
 1608              		.loc 1 368 0
 1609 0464 824B     		ldr	r3, .L151
 1610 0466 9B78     		ldrb	r3, [r3, #2]	@ zero_extendqisi2
 1611 0468 022B     		cmp	r3, #2
 1612 046a 0BD1     		bne	.L139
 369:commandhandler.c ****                       break;
 370:commandhandler.c ****                     HandleUSB();
ARM GAS  C:\Users\Rajesh\AppData\Local\Temp\ccMXbg4e.s 			page 36


 1613              		.loc 1 370 0
 1614 046c FFF7FEFF 		bl	HandleUSB
 1615              	.L102:
 366:commandhandler.c ****                 {
 1616              		.loc 1 366 0
 1617 0470 7F4B     		ldr	r3, .L151
 1618 0472 5B7A     		ldrb	r3, [r3, #9]	@ zero_extendqisi2
 1619 0474 0021     		movs	r1, #0
 1620 0476 1846     		mov	r0, r3
 1621 0478 FFF7FEFF 		bl	ReadWeigand
 1622 047c 0346     		mov	r3, r0
 1623 047e 002B     		cmp	r3, #0
 1624 0480 F0D0     		beq	.L105
 1625 0482 00E0     		b	.L104
 1626              	.L139:
 369:commandhandler.c ****                       break;
 1627              		.loc 1 369 0
 1628 0484 00BF     		nop
 1629              	.L104:
 371:commandhandler.c ****                 };
 372:commandhandler.c ****                 LED_GRN_Write(ON);
 1630              		.loc 1 372 0
 1631 0486 0020     		movs	r0, #0
 1632 0488 FFF7FEFF 		bl	LED_GRN_Write
 1633              	.L101:
 373:commandhandler.c ****             }
 374:commandhandler.c ****             if(cmd == CMD_SEND){
 1634              		.loc 1 374 0
 1635 048c FB7A     		ldrb	r3, [r7, #11]	@ zero_extendqisi2
 1636 048e 032B     		cmp	r3, #3
 1637 0490 40F0C280 		bne	.L140
 375:commandhandler.c ****                 commandSendWiegand();
 1638              		.loc 1 375 0
 1639 0494 FFF7FEFF 		bl	commandSendWiegand
 376:commandhandler.c ****             }
 377:commandhandler.c ****             break;
 1640              		.loc 1 377 0
 1641 0498 BEE0     		b	.L140
 1642              	.L74:
 378:commandhandler.c ****         case MODE_WIEGAND + BASE_TOC:
 379:commandhandler.c ****             if(cmd == CMD_SEND_TOC_READER){
 1643              		.loc 1 379 0
 1644 049a FB7A     		ldrb	r3, [r7, #11]	@ zero_extendqisi2
 1645 049c 042B     		cmp	r3, #4
 1646 049e 02D1     		bne	.L107
 380:commandhandler.c ****                 commandSendTOC(len);
 1647              		.loc 1 380 0
 1648 04a0 7868     		ldr	r0, [r7, #4]
 1649 04a2 FFF7FEFF 		bl	commandSendTOC
 1650              	.L107:
 381:commandhandler.c ****             }
 382:commandhandler.c ****             if(cmd == CMD_READ){
 1651              		.loc 1 382 0
 1652 04a6 FB7A     		ldrb	r3, [r7, #11]	@ zero_extendqisi2
 1653 04a8 022B     		cmp	r3, #2
 1654 04aa 01D1     		bne	.L108
 383:commandhandler.c ****                 commandReadTOC();
ARM GAS  C:\Users\Rajesh\AppData\Local\Temp\ccMXbg4e.s 			page 37


 1655              		.loc 1 383 0
 1656 04ac FFF7FEFF 		bl	commandReadTOC
 1657              	.L108:
 384:commandhandler.c ****             }
 385:commandhandler.c ****             if(cmd == CMD_SEND){
 1658              		.loc 1 385 0
 1659 04b0 FB7A     		ldrb	r3, [r7, #11]	@ zero_extendqisi2
 1660 04b2 032B     		cmp	r3, #3
 1661 04b4 40F0B280 		bne	.L141
 386:commandhandler.c ****                 commandSendWiegand();
 1662              		.loc 1 386 0
 1663 04b8 FFF7FEFF 		bl	commandSendWiegand
 387:commandhandler.c ****             }
 388:commandhandler.c ****             
 389:commandhandler.c ****             break;
 1664              		.loc 1 389 0
 1665 04bc AEE0     		b	.L141
 1666              	.L78:
 390:commandhandler.c ****         case MODE_WIEGAND + BASE_PASS:
 391:commandhandler.c ****             if(cmd == CMD_NONE){// || (cmd == CMD_READ)){
 1667              		.loc 1 391 0
 1668 04be FB7A     		ldrb	r3, [r7, #11]	@ zero_extendqisi2
 1669 04c0 002B     		cmp	r3, #0
 1670 04c2 0ED1     		bne	.L110
 392:commandhandler.c ****                 LED_GRN_Write(OFF);
 1671              		.loc 1 392 0
 1672 04c4 0120     		movs	r0, #1
 1673 04c6 FFF7FEFF 		bl	LED_GRN_Write
 393:commandhandler.c ****               
 394:commandhandler.c ****                 if (ReadWeigand(MyI2C_Regs.bits,1) == 1) {
 1674              		.loc 1 394 0
 1675 04ca 694B     		ldr	r3, .L151
 1676 04cc 5B7A     		ldrb	r3, [r3, #9]	@ zero_extendqisi2
 1677 04ce 0121     		movs	r1, #1
 1678 04d0 1846     		mov	r0, r3
 1679 04d2 FFF7FEFF 		bl	ReadWeigand
 1680 04d6 0346     		mov	r3, r0
 1681 04d8 012B     		cmp	r3, #1
 1682 04da 02D1     		bne	.L110
 395:commandhandler.c ****                     LED_GRN_Write(ON);
 1683              		.loc 1 395 0
 1684 04dc 0020     		movs	r0, #0
 1685 04de FFF7FEFF 		bl	LED_GRN_Write
 1686              	.L110:
 396:commandhandler.c ****                 }
 397:commandhandler.c ****             }
 398:commandhandler.c ****             if(cmd == CMD_SEND){
 1687              		.loc 1 398 0
 1688 04e2 FB7A     		ldrb	r3, [r7, #11]	@ zero_extendqisi2
 1689 04e4 032B     		cmp	r3, #3
 1690 04e6 40F09B80 		bne	.L142
 399:commandhandler.c ****                 commandSendWiegand();
 1691              		.loc 1 399 0
 1692 04ea FFF7FEFF 		bl	commandSendWiegand
 400:commandhandler.c ****             }
 401:commandhandler.c ****             break;
 1693              		.loc 1 401 0
ARM GAS  C:\Users\Rajesh\AppData\Local\Temp\ccMXbg4e.s 			page 38


 1694 04ee 97E0     		b	.L142
 1695              	.L79:
 402:commandhandler.c ****         case MODE_WIEGAND + PIN_PASS:
 403:commandhandler.c ****             if(cmd == CMD_READ){
 1696              		.loc 1 403 0
 1697 04f0 FB7A     		ldrb	r3, [r7, #11]	@ zero_extendqisi2
 1698 04f2 022B     		cmp	r3, #2
 1699 04f4 0ED1     		bne	.L112
 404:commandhandler.c ****                 LED_GRN_Write(OFF);
 1700              		.loc 1 404 0
 1701 04f6 0120     		movs	r0, #1
 1702 04f8 FFF7FEFF 		bl	LED_GRN_Write
 405:commandhandler.c ****                         //ClearBuffer(); //seems better than without
 406:commandhandler.c ****                 if (ReadWeigand(MyI2C_Regs.bits,0) == 1) {
 1703              		.loc 1 406 0
 1704 04fc 5C4B     		ldr	r3, .L151
 1705 04fe 5B7A     		ldrb	r3, [r3, #9]	@ zero_extendqisi2
 1706 0500 0021     		movs	r1, #0
 1707 0502 1846     		mov	r0, r3
 1708 0504 FFF7FEFF 		bl	ReadWeigand
 1709 0508 0346     		mov	r3, r0
 1710 050a 012B     		cmp	r3, #1
 1711 050c 02D1     		bne	.L112
 407:commandhandler.c ****                     LED_GRN_Write(ON);
 1712              		.loc 1 407 0
 1713 050e 0020     		movs	r0, #0
 1714 0510 FFF7FEFF 		bl	LED_GRN_Write
 1715              	.L112:
 408:commandhandler.c ****                 }
 409:commandhandler.c ****             }
 410:commandhandler.c ****             if(cmd == CMD_NONE){
 1716              		.loc 1 410 0
 1717 0514 FB7A     		ldrb	r3, [r7, #11]	@ zero_extendqisi2
 1718 0516 002B     		cmp	r3, #0
 1719 0518 05D1     		bne	.L113
 411:commandhandler.c ****                 if (ReadWeigand(MyI2C_Regs.bits,1) == 1) {
 1720              		.loc 1 411 0
 1721 051a 554B     		ldr	r3, .L151
 1722 051c 5B7A     		ldrb	r3, [r3, #9]	@ zero_extendqisi2
 1723 051e 0121     		movs	r1, #1
 1724 0520 1846     		mov	r0, r3
 1725 0522 FFF7FEFF 		bl	ReadWeigand
 1726              	.L113:
 412:commandhandler.c **** //                   LED_GRN_Write(ON);
 413:commandhandler.c ****                 }
 414:commandhandler.c ****             }
 415:commandhandler.c ****             if(cmd == CMD_SEND){
 1727              		.loc 1 415 0
 1728 0526 FB7A     		ldrb	r3, [r7, #11]	@ zero_extendqisi2
 1729 0528 032B     		cmp	r3, #3
 1730 052a 7BD1     		bne	.L143
 416:commandhandler.c ****                 commandSendWiegand();
 1731              		.loc 1 416 0
 1732 052c FFF7FEFF 		bl	commandSendWiegand
 417:commandhandler.c ****             }
 418:commandhandler.c ****             break;
 1733              		.loc 1 418 0
ARM GAS  C:\Users\Rajesh\AppData\Local\Temp\ccMXbg4e.s 			page 39


 1734 0530 78E0     		b	.L143
 1735              	.L68:
 419:commandhandler.c ****             
 420:commandhandler.c ****         case MODE_PAC:
 421:commandhandler.c ****             if(cmd == CMD_READ){
 1736              		.loc 1 421 0
 1737 0532 FB7A     		ldrb	r3, [r7, #11]	@ zero_extendqisi2
 1738 0534 022B     		cmp	r3, #2
 1739 0536 1BD1     		bne	.L115
 422:commandhandler.c ****                 LED_GRN_Write(OFF);
 1740              		.loc 1 422 0
 1741 0538 0120     		movs	r0, #1
 1742 053a FFF7FEFF 		bl	LED_GRN_Write
 423:commandhandler.c ****                 ClearBuffer(); // added here - GRI 2/2/15
 1743              		.loc 1 423 0
 1744 053e FFF7FEFF 		bl	ClearBuffer
 424:commandhandler.c ****                 SetupUART(PAC);
 1745              		.loc 1 424 0
 1746 0542 0C20     		movs	r0, #12
 1747 0544 FFF7FEFF 		bl	SetupUART
 425:commandhandler.c ****                 while(ReadPAC(0)== 0)
 1748              		.loc 1 425 0
 1749 0548 04E0     		b	.L116
 1750              	.L119:
 426:commandhandler.c ****                 {
 427:commandhandler.c ****                     if(cmd != CMD_READ )
 1751              		.loc 1 427 0
 1752 054a FB7A     		ldrb	r3, [r7, #11]	@ zero_extendqisi2
 1753 054c 022B     		cmp	r3, #2
 1754 054e 08D1     		bne	.L144
 428:commandhandler.c ****                             break;
 429:commandhandler.c ****                 HandleUSB();
 1755              		.loc 1 429 0
 1756 0550 FFF7FEFF 		bl	HandleUSB
 1757              	.L116:
 425:commandhandler.c ****                 {
 1758              		.loc 1 425 0
 1759 0554 0020     		movs	r0, #0
 1760 0556 FFF7FEFF 		bl	ReadPAC
 1761 055a 0346     		mov	r3, r0
 1762 055c 002B     		cmp	r3, #0
 1763 055e F4D0     		beq	.L119
 1764 0560 00E0     		b	.L118
 1765              	.L144:
 428:commandhandler.c ****                             break;
 1766              		.loc 1 428 0
 1767 0562 00BF     		nop
 1768              	.L118:
 430:commandhandler.c ****                 }
 431:commandhandler.c ****                 LED_GRN_Write(ON);
 1769              		.loc 1 431 0
 1770 0564 0020     		movs	r0, #0
 1771 0566 FFF7FEFF 		bl	LED_GRN_Write
 432:commandhandler.c ****                 OptSelect_Write(1);
 1772              		.loc 1 432 0
 1773 056a 0120     		movs	r0, #1
 1774 056c FFF7FEFF 		bl	OptSelect_Write
ARM GAS  C:\Users\Rajesh\AppData\Local\Temp\ccMXbg4e.s 			page 40


 1775              	.L115:
 433:commandhandler.c ****             }
 434:commandhandler.c ****             if(cmd == CMD_SEND){
 1776              		.loc 1 434 0
 1777 0570 FB7A     		ldrb	r3, [r7, #11]	@ zero_extendqisi2
 1778 0572 032B     		cmp	r3, #3
 1779 0574 58D1     		bne	.L145
 435:commandhandler.c ****                 commandSendPAC();
 1780              		.loc 1 435 0
 1781 0576 FFF7FEFF 		bl	commandSendPAC
 436:commandhandler.c ****             }
 437:commandhandler.c ****             break;
 1782              		.loc 1 437 0
 1783 057a 55E0     		b	.L145
 1784              	.L72:
 438:commandhandler.c ****         case MODE_PAC + BASE_TOC:
 439:commandhandler.c ****             if(cmd == CMD_SEND){
 1785              		.loc 1 439 0
 1786 057c FB7A     		ldrb	r3, [r7, #11]	@ zero_extendqisi2
 1787 057e 032B     		cmp	r3, #3
 1788 0580 01D1     		bne	.L121
 440:commandhandler.c ****                 commandSendPAC();
 1789              		.loc 1 440 0
 1790 0582 FFF7FEFF 		bl	commandSendPAC
 1791              	.L121:
 441:commandhandler.c ****             }
 442:commandhandler.c ****             if(cmd == CMD_READ){
 1792              		.loc 1 442 0
 1793 0586 FB7A     		ldrb	r3, [r7, #11]	@ zero_extendqisi2
 1794 0588 022B     		cmp	r3, #2
 1795 058a 01D1     		bne	.L122
 443:commandhandler.c ****                 commandReadTOC();
 1796              		.loc 1 443 0
 1797 058c FFF7FEFF 		bl	commandReadTOC
 1798              	.L122:
 444:commandhandler.c ****             }
 445:commandhandler.c ****             if(cmd == CMD_SEND_TOC_READER){
 1799              		.loc 1 445 0
 1800 0590 FB7A     		ldrb	r3, [r7, #11]	@ zero_extendqisi2
 1801 0592 042B     		cmp	r3, #4
 1802 0594 4AD1     		bne	.L146
 446:commandhandler.c ****                 commandSendTOC(len);
 1803              		.loc 1 446 0
 1804 0596 7868     		ldr	r0, [r7, #4]
 1805 0598 FFF7FEFF 		bl	commandSendTOC
 447:commandhandler.c ****             }
 448:commandhandler.c ****             break;
 1806              		.loc 1 448 0
 1807 059c 46E0     		b	.L146
 1808              	.L76:
 449:commandhandler.c ****         case MODE_PAC + BASE_PASS:
 450:commandhandler.c ****             if(cmd == CMD_NONE){
 1809              		.loc 1 450 0
 1810 059e FB7A     		ldrb	r3, [r7, #11]	@ zero_extendqisi2
 1811 05a0 002B     		cmp	r3, #0
 1812 05a2 0ED1     		bne	.L124
 451:commandhandler.c ****                 LED_GRN_Write(OFF);
ARM GAS  C:\Users\Rajesh\AppData\Local\Temp\ccMXbg4e.s 			page 41


 1813              		.loc 1 451 0
 1814 05a4 0120     		movs	r0, #1
 1815 05a6 FFF7FEFF 		bl	LED_GRN_Write
 452:commandhandler.c ****                 SetupUART(PAC);
 1816              		.loc 1 452 0
 1817 05aa 0C20     		movs	r0, #12
 1818 05ac FFF7FEFF 		bl	SetupUART
 453:commandhandler.c ****                 ReadPAC(1);
 1819              		.loc 1 453 0
 1820 05b0 0120     		movs	r0, #1
 1821 05b2 FFF7FEFF 		bl	ReadPAC
 454:commandhandler.c ****                 LED_GRN_Write(ON);
 1822              		.loc 1 454 0
 1823 05b6 0020     		movs	r0, #0
 1824 05b8 FFF7FEFF 		bl	LED_GRN_Write
 455:commandhandler.c ****                 OptSelect_Write(1);
 1825              		.loc 1 455 0
 1826 05bc 0120     		movs	r0, #1
 1827 05be FFF7FEFF 		bl	OptSelect_Write
 1828              	.L124:
 456:commandhandler.c ****             }
 457:commandhandler.c ****             if(cmd == CMD_SEND){
 1829              		.loc 1 457 0
 1830 05c2 FB7A     		ldrb	r3, [r7, #11]	@ zero_extendqisi2
 1831 05c4 032B     		cmp	r3, #3
 1832 05c6 33D1     		bne	.L147
 458:commandhandler.c ****                 commandSendPAC();
 1833              		.loc 1 458 0
 1834 05c8 FFF7FEFF 		bl	commandSendPAC
 459:commandhandler.c ****             }
 460:commandhandler.c ****             break;
 1835              		.loc 1 460 0
 1836 05cc 30E0     		b	.L147
 1837              	.L67:
 461:commandhandler.c ****         case MODE_HID:
 462:commandhandler.c ****         case MODE_HID + BASE_TOC:
 463:commandhandler.c ****             if(cmd == CMD_READ){
 1838              		.loc 1 463 0
 1839 05ce FB7A     		ldrb	r3, [r7, #11]	@ zero_extendqisi2
 1840 05d0 022B     		cmp	r3, #2
 1841 05d2 01D1     		bne	.L126
 464:commandhandler.c ****                 commandReadTOC();
 1842              		.loc 1 464 0
 1843 05d4 FFF7FEFF 		bl	commandReadTOC
 1844              	.L126:
 465:commandhandler.c ****             }
 466:commandhandler.c ****             if(cmd == CMD_SEND_TOC_READER){
 1845              		.loc 1 466 0
 1846 05d8 FB7A     		ldrb	r3, [r7, #11]	@ zero_extendqisi2
 1847 05da 042B     		cmp	r3, #4
 1848 05dc 02D1     		bne	.L75
 467:commandhandler.c ****                 commandSendTOC(len);
 1849              		.loc 1 467 0
 1850 05de 7868     		ldr	r0, [r7, #4]
 1851 05e0 FFF7FEFF 		bl	commandSendTOC
 1852              	.L75:
 468:commandhandler.c ****             }
ARM GAS  C:\Users\Rajesh\AppData\Local\Temp\ccMXbg4e.s 			page 42


 469:commandhandler.c ****         case MODE_HID + BASE_PASS:
 470:commandhandler.c ****             if(cmd == CMD_SEND){
 1853              		.loc 1 470 0
 1854 05e4 FB7A     		ldrb	r3, [r7, #11]	@ zero_extendqisi2
 1855 05e6 032B     		cmp	r3, #3
 1856 05e8 24D1     		bne	.L148
 471:commandhandler.c ****                 LED_YEL_Write(OFF);
 1857              		.loc 1 471 0
 1858 05ea 0120     		movs	r0, #1
 1859 05ec FFF7FEFF 		bl	LED_YEL_Write
 472:commandhandler.c ****                 OptSelect_Write(1);
 1860              		.loc 1 472 0
 1861 05f0 0120     		movs	r0, #1
 1862 05f2 FFF7FEFF 		bl	OptSelect_Write
 473:commandhandler.c ****         //               SendHID_SP533();
 474:commandhandler.c ****                 SendHID();
 1863              		.loc 1 474 0
 1864 05f6 FFF7FEFF 		bl	SendHID
 475:commandhandler.c ****                 MyI2C_Regs.cmd = CMD_NONE;
 1865              		.loc 1 475 0
 1866 05fa 1D4B     		ldr	r3, .L151
 1867 05fc 0022     		movs	r2, #0
 1868 05fe 9A70     		strb	r2, [r3, #2]
 476:commandhandler.c ****                 LED_YEL_Write(ON);
 1869              		.loc 1 476 0
 1870 0600 0020     		movs	r0, #0
 1871 0602 FFF7FEFF 		bl	LED_YEL_Write
 477:commandhandler.c ****             }
 478:commandhandler.c ****             break;
 1872              		.loc 1 478 0
 1873 0606 15E0     		b	.L148
 1874              	.L134:
 479:commandhandler.c ****         default:
 480:commandhandler.c ****             break;
 1875              		.loc 1 480 0
 1876 0608 00BF     		nop
 1877 060a 14E0     		b	.L92
 1878              	.L136:
 330:commandhandler.c ****         case MODE_F2F + BASE_PASS:
 1879              		.loc 1 330 0
 1880 060c 00BF     		nop
 1881 060e 12E0     		b	.L92
 1882              	.L137:
 350:commandhandler.c **** 	    case MODE_F2F + BASE_TOC:
 1883              		.loc 1 350 0
 1884 0610 00BF     		nop
 1885 0612 10E0     		b	.L92
 1886              	.L138:
 362:commandhandler.c ****         case MODE_WIEGAND:
 1887              		.loc 1 362 0
 1888 0614 00BF     		nop
 1889 0616 0EE0     		b	.L92
 1890              	.L140:
 377:commandhandler.c ****         case MODE_WIEGAND + BASE_TOC:
 1891              		.loc 1 377 0
 1892 0618 00BF     		nop
 1893 061a 0CE0     		b	.L92
ARM GAS  C:\Users\Rajesh\AppData\Local\Temp\ccMXbg4e.s 			page 43


 1894              	.L141:
 389:commandhandler.c ****         case MODE_WIEGAND + BASE_PASS:
 1895              		.loc 1 389 0
 1896 061c 00BF     		nop
 1897 061e 0AE0     		b	.L92
 1898              	.L142:
 401:commandhandler.c ****         case MODE_WIEGAND + PIN_PASS:
 1899              		.loc 1 401 0
 1900 0620 00BF     		nop
 1901 0622 08E0     		b	.L92
 1902              	.L143:
 418:commandhandler.c ****             
 1903              		.loc 1 418 0
 1904 0624 00BF     		nop
 1905 0626 06E0     		b	.L92
 1906              	.L145:
 437:commandhandler.c ****         case MODE_PAC + BASE_TOC:
 1907              		.loc 1 437 0
 1908 0628 00BF     		nop
 1909 062a 04E0     		b	.L92
 1910              	.L146:
 448:commandhandler.c ****         case MODE_PAC + BASE_PASS:
 1911              		.loc 1 448 0
 1912 062c 00BF     		nop
 1913 062e 02E0     		b	.L92
 1914              	.L147:
 460:commandhandler.c ****         case MODE_HID:
 1915              		.loc 1 460 0
 1916 0630 00BF     		nop
 1917 0632 00E0     		b	.L92
 1918              	.L148:
 478:commandhandler.c ****         default:
 1919              		.loc 1 478 0
 1920 0634 00BF     		nop
 1921              	.L92:
 481:commandhandler.c ****     }             
 482:commandhandler.c ****     
 483:commandhandler.c ****     
 484:commandhandler.c ****    switch (cmd)
 1922              		.loc 1 484 0
 1923 0636 FB7A     		ldrb	r3, [r7, #11]	@ zero_extendqisi2
 1924 0638 053B     		subs	r3, r3, #5
 1925 063a 032B     		cmp	r3, #3
 1926 063c 61D8     		bhi	.L128
 1927 063e 01A2     		adr	r2, .L130
 1928 0640 52F823F0 		ldr	pc, [r2, r3, lsl #2]
 1929              		.p2align 2
 1930              	.L130:
 1931 0644 D9060000 		.word	.L129+1
 1932 0648 F1060000 		.word	.L131+1
 1933 064c 81060000 		.word	.L132+1
 1934 0650 55060000 		.word	.L133+1
 1935              		.p2align 1
 1936              	.L133:
 485:commandhandler.c ****     {
 486:commandhandler.c ****         case CMD_POE_ENABLE:
 487:commandhandler.c ****         {
ARM GAS  C:\Users\Rajesh\AppData\Local\Temp\ccMXbg4e.s 			page 44


 488:commandhandler.c ****             POE_OIM_En(MyI2C_Regs.buffer[0]);
 1937              		.loc 1 488 0
 1938 0654 064B     		ldr	r3, .L151
 1939 0656 93F86431 		ldrb	r3, [r3, #356]	@ zero_extendqisi2
 1940 065a 1846     		mov	r0, r3
 1941 065c FFF7FEFF 		bl	POE_OIM_En
 489:commandhandler.c ****                 MyI2C_Regs.status_out=1;
 1942              		.loc 1 489 0
 1943 0660 034B     		ldr	r3, .L151
 1944 0662 0122     		movs	r2, #1
 1945 0664 1A70     		strb	r2, [r3]
 490:commandhandler.c ****                 MyI2C_Regs.cmd=0;
 1946              		.loc 1 490 0
 1947 0666 024B     		ldr	r3, .L151
 1948 0668 0022     		movs	r2, #0
 1949 066a 9A70     		strb	r2, [r3, #2]
 491:commandhandler.c ****         }
 492:commandhandler.c ****         break;
 1950              		.loc 1 492 0
 1951 066c 49E0     		b	.L128
 1952              	.L152:
 1953 066e 00BF     		.align	2
 1954              	.L151:
 1955 0670 00000000 		.word	MyI2C_Regs
 1956 0674 00000000 		.word	f2f_send_alive
 1957 0678 00000000 		.word	f2f_alive_message
 1958 067c 00000000 		.word	f2f_alive_delay_cnt
 1959              	.L132:
 1960              	.LBB6:
 493:commandhandler.c ****         case CMD_RGB:
 494:commandhandler.c ****             {
 495:commandhandler.c ****                 uint8_t v;
 496:commandhandler.c ****                 uint8_t *p;
 497:commandhandler.c ****                 v= MyI2C_Regs.buffer[0];
 1961              		.loc 1 497 0
 1962 0680 284B     		ldr	r3, .L153
 1963 0682 93F86431 		ldrb	r3, [r3, #356]
 1964 0686 FB70     		strb	r3, [r7, #3]
 498:commandhandler.c ****                 
 499:commandhandler.c ****                 ST_LED_0_Write(v&0x1?0:1);
 1965              		.loc 1 499 0
 1966 0688 FB78     		ldrb	r3, [r7, #3]	@ zero_extendqisi2
 1967 068a 03F00103 		and	r3, r3, #1
 1968 068e 002B     		cmp	r3, #0
 1969 0690 0CBF     		ite	eq
 1970 0692 0123     		moveq	r3, #1
 1971 0694 0023     		movne	r3, #0
 1972 0696 DBB2     		uxtb	r3, r3
 1973 0698 1846     		mov	r0, r3
 1974 069a FFF7FEFF 		bl	ST_LED_0_Write
 500:commandhandler.c ****                 ST_LED_1_Write(v&0x2?0:1);
 1975              		.loc 1 500 0
 1976 069e FB78     		ldrb	r3, [r7, #3]	@ zero_extendqisi2
 1977 06a0 03F00203 		and	r3, r3, #2
 1978 06a4 002B     		cmp	r3, #0
 1979 06a6 0CBF     		ite	eq
 1980 06a8 0123     		moveq	r3, #1
ARM GAS  C:\Users\Rajesh\AppData\Local\Temp\ccMXbg4e.s 			page 45


 1981 06aa 0023     		movne	r3, #0
 1982 06ac DBB2     		uxtb	r3, r3
 1983 06ae 1846     		mov	r0, r3
 1984 06b0 FFF7FEFF 		bl	ST_LED_1_Write
 501:commandhandler.c ****                 ST_LED_2_Write(v&0x4?0:1);
 1985              		.loc 1 501 0
 1986 06b4 FB78     		ldrb	r3, [r7, #3]	@ zero_extendqisi2
 1987 06b6 03F00403 		and	r3, r3, #4
 1988 06ba 002B     		cmp	r3, #0
 1989 06bc 0CBF     		ite	eq
 1990 06be 0123     		moveq	r3, #1
 1991 06c0 0023     		movne	r3, #0
 1992 06c2 DBB2     		uxtb	r3, r3
 1993 06c4 1846     		mov	r0, r3
 1994 06c6 FFF7FEFF 		bl	ST_LED_2_Write
 502:commandhandler.c ****                 MyI2C_Regs.status_out=1;
 1995              		.loc 1 502 0
 1996 06ca 164B     		ldr	r3, .L153
 1997 06cc 0122     		movs	r2, #1
 1998 06ce 1A70     		strb	r2, [r3]
 503:commandhandler.c ****                 MyI2C_Regs.cmd=0;
 1999              		.loc 1 503 0
 2000 06d0 144B     		ldr	r3, .L153
 2001 06d2 0022     		movs	r2, #0
 2002 06d4 9A70     		strb	r2, [r3, #2]
 2003              	.LBE6:
 504:commandhandler.c ****             }
 505:commandhandler.c ****             break;
 2004              		.loc 1 505 0
 2005 06d6 14E0     		b	.L128
 2006              	.L129:
 506:commandhandler.c **** //#define CMD_POE_ENABLE      8
 507:commandhandler.c ****         case CMD_RTC_READ:
 508:commandhandler.c ****             {
 509:commandhandler.c ****                //ST_LED_1_Write(0);
 510:commandhandler.c ****  
 511:commandhandler.c ****                 rtc_read(0, MyI2C_Regs.buffer, 8);
 2007              		.loc 1 511 0
 2008 06d8 0822     		movs	r2, #8
 2009 06da 1349     		ldr	r1, .L153+4
 2010 06dc 0020     		movs	r0, #0
 2011 06de FFF7FEFF 		bl	rtc_read
 512:commandhandler.c ****                 MyI2C_Regs.status_out=1;
 2012              		.loc 1 512 0
 2013 06e2 104B     		ldr	r3, .L153
 2014 06e4 0122     		movs	r2, #1
 2015 06e6 1A70     		strb	r2, [r3]
 513:commandhandler.c ****                 MyI2C_Regs.cmd=0;
 2016              		.loc 1 513 0
 2017 06e8 0E4B     		ldr	r3, .L153
 2018 06ea 0022     		movs	r2, #0
 2019 06ec 9A70     		strb	r2, [r3, #2]
 514:commandhandler.c ****                //ST_LED_1_Write(1);
 515:commandhandler.c ****                  break;
 2020              		.loc 1 515 0
 2021 06ee 08E0     		b	.L128
 2022              	.L131:
ARM GAS  C:\Users\Rajesh\AppData\Local\Temp\ccMXbg4e.s 			page 46


 516:commandhandler.c ****             }
 517:commandhandler.c ****         case CMD_RTC_WRITE:
 518:commandhandler.c ****             {
 519:commandhandler.c ****                 rtc_write(0, MyI2C_Regs.buffer, 8);
 2023              		.loc 1 519 0
 2024 06f0 0822     		movs	r2, #8
 2025 06f2 0D49     		ldr	r1, .L153+4
 2026 06f4 0020     		movs	r0, #0
 2027 06f6 FFF7FEFF 		bl	rtc_write
 520:commandhandler.c ****                 //MyI2C_Regs.status_out=1;
 521:commandhandler.c ****                 MyI2C_Regs.cmd=0;
 2028              		.loc 1 521 0
 2029 06fa 0A4B     		ldr	r3, .L153
 2030 06fc 0022     		movs	r2, #0
 2031 06fe 9A70     		strb	r2, [r3, #2]
 522:commandhandler.c ****                 break;
 2032              		.loc 1 522 0
 2033 0700 00BF     		nop
 2034              	.L128:
 523:commandhandler.c ****             }
 524:commandhandler.c ****     }
 525:commandhandler.c ****     if(cmd == CMD_BOOTLOAD){
 2035              		.loc 1 525 0
 2036 0702 FB7A     		ldrb	r3, [r7, #11]	@ zero_extendqisi2
 2037 0704 012B     		cmp	r3, #1
 2038 0706 09D1     		bne	.L55
 526:commandhandler.c ****         MyI2C_Regs.buffer[0] ++; 
 2039              		.loc 1 526 0
 2040 0708 064B     		ldr	r3, .L153
 2041 070a 93F86431 		ldrb	r3, [r3, #356]	@ zero_extendqisi2
 2042 070e 0133     		adds	r3, r3, #1
 2043 0710 DAB2     		uxtb	r2, r3
 2044 0712 044B     		ldr	r3, .L153
 2045 0714 83F86421 		strb	r2, [r3, #356]
 527:commandhandler.c ****         EZI2Cs_Stop();
 2046              		.loc 1 527 0
 2047 0718 FFF7FEFF 		bl	EZI2Cs_Stop
 2048              	.L55:
 528:commandhandler.c **** //        BootloadableI2C_Load();
 529:commandhandler.c ****     }
 530:commandhandler.c ****     
 531:commandhandler.c **** }
 2049              		.loc 1 531 0
 2050 071c 1037     		adds	r7, r7, #16
 2051              		.cfi_def_cfa_offset 8
 2052 071e BD46     		mov	sp, r7
 2053              		.cfi_def_cfa_register 13
 2054              		@ sp needed
 2055 0720 80BD     		pop	{r7, pc}
 2056              	.L154:
 2057 0722 00BF     		.align	2
 2058              	.L153:
 2059 0724 00000000 		.word	MyI2C_Regs
 2060 0728 64010000 		.word	MyI2C_Regs+356
 2061              		.cfi_endproc
 2062              	.LFE75:
 2063              		.size	HandleCommand, .-HandleCommand
ARM GAS  C:\Users\Rajesh\AppData\Local\Temp\ccMXbg4e.s 			page 47


 2064              		.text
 2065              	.Letext0:
 2066              		.file 2 "softuart.h"
 2067              		.file 3 "c:\\program files (x86)\\cypress\\psoc creator\\4.2\\psoc creator\\import\\gnu\\arm\\5.4.
 2068              		.file 4 "c:\\program files (x86)\\cypress\\psoc creator\\4.2\\psoc creator\\import\\gnu\\arm\\5.4.
 2069              		.file 5 "Generated_Source\\PSoC5/cytypes.h"
 2070              		.file 6 "system.h"
 2071              		.file 7 "Generated_Source\\PSoC5/core_cm3.h"
 2072              		.file 8 "osdp.h"
 2073              		.file 9 "toc.h"