ARM GAS  C:\Users\Rajesh\AppData\Local\Temp\cco8H23Z.s 			page 1


   1              		.syntax unified
   2              		.cpu cortex-m3
   3              		.fpu softvfp
   4              		.eabi_attribute 20, 1
   5              		.eabi_attribute 21, 1
   6              		.eabi_attribute 23, 3
   7              		.eabi_attribute 24, 1
   8              		.eabi_attribute 25, 1
   9              		.eabi_attribute 26, 1
  10              		.eabi_attribute 30, 6
  11              		.eabi_attribute 34, 1
  12              		.eabi_attribute 18, 4
  13              		.thumb
  14              		.syntax unified
  15              		.file	"f2f.c"
  16              		.text
  17              	.Ltext0:
  18              		.cfi_sections	.debug_frame
  19              		.comm	s,40,4
  20              		.comm	currentAccessType,1,1
  21              		.comm	hw_old,1,1
  22              		.comm	tp_old,1,1
  23              		.comm	tamperCR_polarity,4,4
  24              		.comm	tamper_out_polarity,4,4
  25              		.comm	card_ack,4,4
  26              		.comm	card_in_buf,4,4
  27              		.comm	f2f_send_alive,1,1
  28              		.comm	f2f_alive_delay_cnt,4,4
  29              		.section	.text.initF2F,"ax",%progbits
  30              		.align	2
  31              		.global	initF2F
  32              		.thumb
  33              		.thumb_func
  34              		.type	initF2F, %function
  35              	initF2F:
  36              	.LFB63:
  37              		.file 1 "f2f.c"
   1:f2f.c         **** /* ========================================
   2:f2f.c         ****  *
   3:f2f.c         ****  * Copyright YOUR COMPANY, THE YEAR
   4:f2f.c         ****  * All Rights Reserved
   5:f2f.c         ****  * UNPUBLISHED, LICENSED SOFTWARE.
   6:f2f.c         ****  *
   7:f2f.c         ****  * CONFIDENTIAL AND PROPRIETARY INFORMATION
   8:f2f.c         ****  * WHICH IS THE PROPERTY OF your company.
   9:f2f.c         ****  *
  10:f2f.c         ****  * ========================================
  11:f2f.c         **** */
  12:f2f.c         **** 
  13:f2f.c         **** #include <project.h>
  14:f2f.c         **** #include "system.h"
  15:f2f.c         **** #include "f2f.h"
  16:f2f.c         **** 
  17:f2f.c         **** /* F2F panel keep alive */
  18:f2f.c         **** char f2f_send_alive;
  19:f2f.c         **** int f2f_alive_delay_cnt;
  20:f2f.c         **** void initF2F(){
ARM GAS  C:\Users\Rajesh\AppData\Local\Temp\cco8H23Z.s 			page 2


  38              		.loc 1 20 0
  39              		.cfi_startproc
  40              		@ args = 0, pretend = 0, frame = 0
  41              		@ frame_needed = 1, uses_anonymous_args = 0
  42 0000 80B5     		push	{r7, lr}
  43              		.cfi_def_cfa_offset 8
  44              		.cfi_offset 7, -8
  45              		.cfi_offset 14, -4
  46 0002 00AF     		add	r7, sp, #0
  47              		.cfi_def_cfa_register 7
  21:f2f.c         ****     
  22:f2f.c         ****     /*F2F*/
  23:f2f.c         ****     isr_F2F_edge_StartEx(isr_F2F_edge_Interrupt);
  48              		.loc 1 23 0
  49 0004 0248     		ldr	r0, .L2
  50 0006 FFF7FEFF 		bl	isr_F2F_edge_StartEx
  24:f2f.c         ****     
  25:f2f.c         **** }
  51              		.loc 1 25 0
  52 000a 00BF     		nop
  53 000c 80BD     		pop	{r7, pc}
  54              	.L3:
  55 000e 00BF     		.align	2
  56              	.L2:
  57 0010 00000000 		.word	isr_F2F_edge_Interrupt
  58              		.cfi_endproc
  59              	.LFE63:
  60              		.size	initF2F, .-initF2F
  61              		.section	.text.MakeLineTransition,"ax",%progbits
  62              		.align	2
  63              		.global	MakeLineTransition
  64              		.thumb
  65              		.thumb_func
  66              		.type	MakeLineTransition, %function
  67              	MakeLineTransition:
  68              	.LFB64:
  26:f2f.c         **** void MakeLineTransition(){
  69              		.loc 1 26 0
  70              		.cfi_startproc
  71              		@ args = 0, pretend = 0, frame = 8
  72              		@ frame_needed = 1, uses_anonymous_args = 0
  73 0000 80B5     		push	{r7, lr}
  74              		.cfi_def_cfa_offset 8
  75              		.cfi_offset 7, -8
  76              		.cfi_offset 14, -4
  77 0002 82B0     		sub	sp, sp, #8
  78              		.cfi_def_cfa_offset 16
  79 0004 00AF     		add	r7, sp, #0
  80              		.cfi_def_cfa_register 7
  27:f2f.c         ****     uint8 flag = PS_D0_Read();
  81              		.loc 1 27 0
  82 0006 FFF7FEFF 		bl	PS_D0_Read
  83 000a 0346     		mov	r3, r0
  84 000c FB71     		strb	r3, [r7, #7]
  28:f2f.c         **** 	if (flag){
  85              		.loc 1 28 0
  86 000e FB79     		ldrb	r3, [r7, #7]	@ zero_extendqisi2
ARM GAS  C:\Users\Rajesh\AppData\Local\Temp\cco8H23Z.s 			page 3


  87 0010 002B     		cmp	r3, #0
  88 0012 03D0     		beq	.L5
  29:f2f.c         ****         OptSelect_Write(2); //0
  89              		.loc 1 29 0
  90 0014 0220     		movs	r0, #2
  91 0016 FFF7FEFF 		bl	OptSelect_Write
  92 001a 02E0     		b	.L6
  93              	.L5:
  30:f2f.c         ****     } else {
  31:f2f.c         ****         OptSelect_Write(3); //1
  94              		.loc 1 31 0
  95 001c 0320     		movs	r0, #3
  96 001e FFF7FEFF 		bl	OptSelect_Write
  97              	.L6:
  32:f2f.c         ****     }
  33:f2f.c         ****     CyDelayUs(400);
  98              		.loc 1 33 0
  99 0022 4FF4C870 		mov	r0, #400
 100 0026 FFF7FEFF 		bl	CyDelayUs
  34:f2f.c         **** }
 101              		.loc 1 34 0
 102 002a 00BF     		nop
 103 002c 0837     		adds	r7, r7, #8
 104              		.cfi_def_cfa_offset 8
 105 002e BD46     		mov	sp, r7
 106              		.cfi_def_cfa_register 13
 107              		@ sp needed
 108 0030 80BD     		pop	{r7, pc}
 109              		.cfi_endproc
 110              	.LFE64:
 111              		.size	MakeLineTransition, .-MakeLineTransition
 112 0032 00BF     		.section	.text.SendF2F,"ax",%progbits
 113              		.align	2
 114              		.global	SendF2F
 115              		.thumb
 116              		.thumb_func
 117              		.type	SendF2F, %function
 118              	SendF2F:
 119              	.LFB65:
  35:f2f.c         **** 
  36:f2f.c         **** 
  37:f2f.c         **** void SendF2F(const unsigned char *buf, const int length){
 120              		.loc 1 37 0
 121              		.cfi_startproc
 122              		@ args = 0, pretend = 0, frame = 24
 123              		@ frame_needed = 1, uses_anonymous_args = 0
 124 0000 80B5     		push	{r7, lr}
 125              		.cfi_def_cfa_offset 8
 126              		.cfi_offset 7, -8
 127              		.cfi_offset 14, -4
 128 0002 86B0     		sub	sp, sp, #24
 129              		.cfi_def_cfa_offset 32
 130 0004 00AF     		add	r7, sp, #0
 131              		.cfi_def_cfa_register 7
 132 0006 7860     		str	r0, [r7, #4]
 133 0008 3960     		str	r1, [r7]
  38:f2f.c         ****    int x,b,len;
ARM GAS  C:\Users\Rajesh\AppData\Local\Temp\cco8H23Z.s 			page 4


  39:f2f.c         **** 	char  d0;
  40:f2f.c         ****     
  41:f2f.c         ****     len = 3 + length; //length is in bytes
 134              		.loc 1 41 0
 135 000a 3B68     		ldr	r3, [r7]
 136 000c 0333     		adds	r3, r3, #3
 137 000e FB60     		str	r3, [r7, #12]
  42:f2f.c         ****     if(len > BUFFER_LENGTH) len = BUFFER_LENGTH; //if garbage in
 138              		.loc 1 42 0
 139 0010 FB68     		ldr	r3, [r7, #12]
 140 0012 142B     		cmp	r3, #20
 141 0014 01DD     		ble	.L8
 142              		.loc 1 42 0 is_stmt 0 discriminator 1
 143 0016 1423     		movs	r3, #20
 144 0018 FB60     		str	r3, [r7, #12]
 145              	.L8:
  43:f2f.c         ****     
  44:f2f.c         ****     Tamper_Timer_ISR_Disable();
 146              		.loc 1 44 0 is_stmt 1
 147 001a FFF7FEFF 		bl	Tamper_Timer_ISR_Disable
  45:f2f.c         ****     f2f_send_alive = 0;
 148              		.loc 1 45 0
 149 001e 204B     		ldr	r3, .L15
 150 0020 0022     		movs	r2, #0
 151 0022 1A70     		strb	r2, [r3]
  46:f2f.c         ****     f2f_alive_delay_cnt = 0;
 152              		.loc 1 46 0
 153 0024 1F4B     		ldr	r3, .L15+4
 154 0026 0022     		movs	r2, #0
 155 0028 1A60     		str	r2, [r3]
  47:f2f.c         ****     Tamper_Timer_ISR_Enable();
 156              		.loc 1 47 0
 157 002a FFF7FEFF 		bl	Tamper_Timer_ISR_Enable
  48:f2f.c         ****     OptSelect_Write(1); 
 158              		.loc 1 48 0
 159 002e 0120     		movs	r0, #1
 160 0030 FFF7FEFF 		bl	OptSelect_Write
  49:f2f.c         ****     OptSelect_Write(2); 
 161              		.loc 1 49 0
 162 0034 0220     		movs	r0, #2
 163 0036 FFF7FEFF 		bl	OptSelect_Write
  50:f2f.c         ****     for (x=0; x< len; x++)
 164              		.loc 1 50 0
 165 003a 0023     		movs	r3, #0
 166 003c 7B61     		str	r3, [r7, #20]
 167 003e 20E0     		b	.L9
 168              	.L14:
  51:f2f.c         **** 	{   	
  52:f2f.c         **** 		d0 = buf[x];	
 169              		.loc 1 52 0
 170 0040 7B69     		ldr	r3, [r7, #20]
 171 0042 7A68     		ldr	r2, [r7, #4]
 172 0044 1344     		add	r3, r3, r2
 173 0046 1B78     		ldrb	r3, [r3]
 174 0048 FB72     		strb	r3, [r7, #11]
  53:f2f.c         ****         for (b=0; b <8; b++)
 175              		.loc 1 53 0
ARM GAS  C:\Users\Rajesh\AppData\Local\Temp\cco8H23Z.s 			page 5


 176 004a 0023     		movs	r3, #0
 177 004c 3B61     		str	r3, [r7, #16]
 178 004e 12E0     		b	.L10
 179              	.L13:
  54:f2f.c         **** 		{
  55:f2f.c         ****             MakeLineTransition();
 180              		.loc 1 55 0
 181 0050 FFF7FEFF 		bl	MakeLineTransition
  56:f2f.c         ****             if(d0&0x80){
 182              		.loc 1 56 0
 183 0054 97F90B30 		ldrsb	r3, [r7, #11]
 184 0058 002B     		cmp	r3, #0
 185 005a 02DA     		bge	.L11
  57:f2f.c         ****                 MakeLineTransition();
 186              		.loc 1 57 0
 187 005c FFF7FEFF 		bl	MakeLineTransition
 188 0060 03E0     		b	.L12
 189              	.L11:
  58:f2f.c         ****             } else {
  59:f2f.c         ****                 CyDelayUs(400);
 190              		.loc 1 59 0
 191 0062 4FF4C870 		mov	r0, #400
 192 0066 FFF7FEFF 		bl	CyDelayUs
 193              	.L12:
  60:f2f.c         ****             }
  61:f2f.c         ****             d0<<=1;
 194              		.loc 1 61 0 discriminator 2
 195 006a FB7A     		ldrb	r3, [r7, #11]
 196 006c 5B00     		lsls	r3, r3, #1
 197 006e FB72     		strb	r3, [r7, #11]
  53:f2f.c         **** 		{
 198              		.loc 1 53 0 discriminator 2
 199 0070 3B69     		ldr	r3, [r7, #16]
 200 0072 0133     		adds	r3, r3, #1
 201 0074 3B61     		str	r3, [r7, #16]
 202              	.L10:
  53:f2f.c         **** 		{
 203              		.loc 1 53 0 is_stmt 0 discriminator 1
 204 0076 3B69     		ldr	r3, [r7, #16]
 205 0078 072B     		cmp	r3, #7
 206 007a E9DD     		ble	.L13
  50:f2f.c         **** 	{   	
 207              		.loc 1 50 0 is_stmt 1 discriminator 2
 208 007c 7B69     		ldr	r3, [r7, #20]
 209 007e 0133     		adds	r3, r3, #1
 210 0080 7B61     		str	r3, [r7, #20]
 211              	.L9:
  50:f2f.c         **** 	{   	
 212              		.loc 1 50 0 is_stmt 0 discriminator 1
 213 0082 7A69     		ldr	r2, [r7, #20]
 214 0084 FB68     		ldr	r3, [r7, #12]
 215 0086 9A42     		cmp	r2, r3
 216 0088 DADB     		blt	.L14
  62:f2f.c         ****         }
  63:f2f.c         ****     }
  64:f2f.c         ****     OptSelect_Write(2); //0
 217              		.loc 1 64 0 is_stmt 1
ARM GAS  C:\Users\Rajesh\AppData\Local\Temp\cco8H23Z.s 			page 6


 218 008a 0220     		movs	r0, #2
 219 008c FFF7FEFF 		bl	OptSelect_Write
  65:f2f.c         ****     CyDelay(165); //165, the time for ACS message processing and ACS ACK is 83ms
 220              		.loc 1 65 0
 221 0090 A520     		movs	r0, #165
 222 0092 FFF7FEFF 		bl	CyDelay
  66:f2f.c         **** }
 223              		.loc 1 66 0
 224 0096 00BF     		nop
 225 0098 1837     		adds	r7, r7, #24
 226              		.cfi_def_cfa_offset 8
 227 009a BD46     		mov	sp, r7
 228              		.cfi_def_cfa_register 13
 229              		@ sp needed
 230 009c 80BD     		pop	{r7, pc}
 231              	.L16:
 232 009e 00BF     		.align	2
 233              	.L15:
 234 00a0 00000000 		.word	f2f_send_alive
 235 00a4 00000000 		.word	f2f_alive_delay_cnt
 236              		.cfi_endproc
 237              	.LFE65:
 238              		.size	SendF2F, .-SendF2F
 239              		.global	__aeabi_i2d
 240              		.global	__aeabi_dmul
 241              		.global	__aeabi_d2iz
 242              		.section	.text.ReadF2F,"ax",%progbits
 243              		.align	2
 244              		.global	ReadF2F
 245              		.thumb
 246              		.thumb_func
 247              		.type	ReadF2F, %function
 248              	ReadF2F:
 249              	.LFB66:
  67:f2f.c         **** 
  68:f2f.c         **** 
  69:f2f.c         **** 
  70:f2f.c         **** 
  71:f2f.c         **** int ReadF2F(int nBits, int passmode)
  72:f2f.c         **** {
 250              		.loc 1 72 0
 251              		.cfi_startproc
 252              		@ args = 0, pretend = 0, frame = 80
 253              		@ frame_needed = 1, uses_anonymous_args = 0
 254 0000 90B5     		push	{r4, r7, lr}
 255              		.cfi_def_cfa_offset 12
 256              		.cfi_offset 4, -12
 257              		.cfi_offset 7, -8
 258              		.cfi_offset 14, -4
 259 0002 95B0     		sub	sp, sp, #84
 260              		.cfi_def_cfa_offset 96
 261 0004 00AF     		add	r7, sp, #0
 262              		.cfi_def_cfa_register 7
 263 0006 7860     		str	r0, [r7, #4]
 264 0008 3960     		str	r1, [r7]
  73:f2f.c         ****     int bitCount;
  74:f2f.c         ****     int byteCount;
ARM GAS  C:\Users\Rajesh\AppData\Local\Temp\cco8H23Z.s 			page 7


  75:f2f.c         ****     int hp;
  76:f2f.c         ****     char nbit;
  77:f2f.c         ****     int i;
  78:f2f.c         ****     unsigned char started;
  79:f2f.c         ****     int width;
  80:f2f.c         ****     unsigned char buffer[BUFFER_LENGTH],pass_buf[BUFFER_LENGTH+1];
  81:f2f.c         ****     
  82:f2f.c         ****     // enable ack line
  83:f2f.c         ****     PS_D1_Write(0);
 265              		.loc 1 83 0
 266 000a 0020     		movs	r0, #0
 267 000c FFF7FEFF 		bl	PS_D1_Write
  84:f2f.c         ****     hp = 21;  //21 17
 268              		.loc 1 84 0
 269 0010 1523     		movs	r3, #21
 270 0012 BB63     		str	r3, [r7, #56]
  85:f2f.c         ****     byteCount = 0;  
 271              		.loc 1 85 0
 272 0014 0023     		movs	r3, #0
 273 0016 BB64     		str	r3, [r7, #72]
  86:f2f.c         ****     nbit = 0;
 274              		.loc 1 86 0
 275 0018 0023     		movs	r3, #0
 276 001a 87F84730 		strb	r3, [r7, #71]
  87:f2f.c         ****     bitCount = 1;
 277              		.loc 1 87 0
 278 001e 0123     		movs	r3, #1
 279 0020 FB64     		str	r3, [r7, #76]
  88:f2f.c         ****     started = 0;
 280              		.loc 1 88 0
 281 0022 0023     		movs	r3, #0
 282 0024 87F83F30 		strb	r3, [r7, #63]
  89:f2f.c         ****     card_in_buf = 0;
 283              		.loc 1 89 0
 284 0028 8F4B     		ldr	r3, .L40
 285 002a 0022     		movs	r2, #0
 286 002c 1A60     		str	r2, [r3]
  90:f2f.c         ****     
  91:f2f.c         ****     for (i=0; i<BUFFER_LENGTH; i++)
 287              		.loc 1 91 0
 288 002e 0023     		movs	r3, #0
 289 0030 3B64     		str	r3, [r7, #64]
 290 0032 08E0     		b	.L18
 291              	.L19:
  92:f2f.c         ****     {
  93:f2f.c         ****         buffer[i]=0;
 292              		.loc 1 93 0 discriminator 3
 293 0034 07F12002 		add	r2, r7, #32
 294 0038 3B6C     		ldr	r3, [r7, #64]
 295 003a 1344     		add	r3, r3, r2
 296 003c 0022     		movs	r2, #0
 297 003e 1A70     		strb	r2, [r3]
  91:f2f.c         ****     {
 298              		.loc 1 91 0 discriminator 3
 299 0040 3B6C     		ldr	r3, [r7, #64]
 300 0042 0133     		adds	r3, r3, #1
 301 0044 3B64     		str	r3, [r7, #64]
ARM GAS  C:\Users\Rajesh\AppData\Local\Temp\cco8H23Z.s 			page 8


 302              	.L18:
  91:f2f.c         ****     {
 303              		.loc 1 91 0 is_stmt 0 discriminator 1
 304 0046 3B6C     		ldr	r3, [r7, #64]
 305 0048 132B     		cmp	r3, #19
 306 004a F3DD     		ble	.L19
  94:f2f.c         ****     }
  95:f2f.c         ****     
  96:f2f.c         ****     if (passmode)
 307              		.loc 1 96 0 is_stmt 1
 308 004c 3B68     		ldr	r3, [r7]
 309 004e 002B     		cmp	r3, #0
 310 0050 00F09C80 		beq	.L21
  97:f2f.c         ****     {
  98:f2f.c         ****         Timeout_Timer_Isr_Disable();
 311              		.loc 1 98 0
 312 0054 FFF7FEFF 		bl	Timeout_Timer_Isr_Disable
  99:f2f.c         ****         passmode_timeout = 0;
 313              		.loc 1 99 0
 314 0058 844B     		ldr	r3, .L40+4
 315 005a 0022     		movs	r2, #0
 316 005c 1A60     		str	r2, [r3]
 100:f2f.c         ****         Timeout_Timer_Isr_Enable();
 317              		.loc 1 100 0
 318 005e FFF7FEFF 		bl	Timeout_Timer_Isr_Enable
 101:f2f.c         ****     }
 102:f2f.c         **** 
 103:f2f.c         ****     while( (byteCount*8+bitCount) <= nBits  )
 319              		.loc 1 103 0
 320 0062 93E0     		b	.L21
 321              	.L30:
 322              	.LBB2:
 104:f2f.c         ****     {
 105:f2f.c         ****         
 106:f2f.c         ****         //if((bitCount == 0) && (byteCount == 0))
 107:f2f.c         ****         {
 108:f2f.c         ****            void HandleUSB();
 109:f2f.c         ****            HandleUSB();
 323              		.loc 1 109 0
 324 0064 FFF7FEFF 		bl	HandleUSB
 325              	.LBE2:
 110:f2f.c         ****         }
 111:f2f.c         ****         if (passmode == 1)
 326              		.loc 1 111 0
 327 0068 3B68     		ldr	r3, [r7]
 328 006a 012B     		cmp	r3, #1
 329 006c 09D1     		bne	.L22
 112:f2f.c         ****         {
 113:f2f.c         ****             if(passmode_timeout > 2000)
 330              		.loc 1 113 0
 331 006e 7F4B     		ldr	r3, .L40+4
 332 0070 1B68     		ldr	r3, [r3]
 333 0072 B3F5FA6F 		cmp	r3, #2000
 334 0076 04DD     		ble	.L22
 114:f2f.c         ****             {
 115:f2f.c         ****                 passmode_timeout = 0;  //may be removed
 335              		.loc 1 115 0
ARM GAS  C:\Users\Rajesh\AppData\Local\Temp\cco8H23Z.s 			page 9


 336 0078 7C4B     		ldr	r3, .L40+4
 337 007a 0022     		movs	r2, #0
 338 007c 1A60     		str	r2, [r3]
 116:f2f.c         ****                 return(0);
 339              		.loc 1 116 0
 340 007e 0023     		movs	r3, #0
 341 0080 EEE0     		b	.L38
 342              	.L22:
 117:f2f.c         ****             }
 118:f2f.c         ****         }
 119:f2f.c         ****         isr_F2F_edge_Disable();
 343              		.loc 1 119 0
 344 0082 FFF7FEFF 		bl	isr_F2F_edge_Disable
 120:f2f.c         ****         width = f2f_pulsewidth;             
 345              		.loc 1 120 0
 346 0086 7A4B     		ldr	r3, .L40+8
 347 0088 1B68     		ldr	r3, [r3]
 348 008a 7B63     		str	r3, [r7, #52]
 121:f2f.c         ****         isr_F2F_edge_Enable();
 349              		.loc 1 121 0
 350 008c FFF7FEFF 		bl	isr_F2F_edge_Enable
 122:f2f.c         ****         
 123:f2f.c         ****         if(width > 0)
 351              		.loc 1 123 0
 352 0090 7B6B     		ldr	r3, [r7, #52]
 353 0092 002B     		cmp	r3, #0
 354 0094 7ADD     		ble	.L21
 124:f2f.c         ****         {
 125:f2f.c         ****             if (passmode)
 355              		.loc 1 125 0
 356 0096 3B68     		ldr	r3, [r7]
 357 0098 002B     		cmp	r3, #0
 358 009a 06D0     		beq	.L24
 126:f2f.c         ****             {
 127:f2f.c         ****                 Timeout_Timer_Isr_Disable();
 359              		.loc 1 127 0
 360 009c FFF7FEFF 		bl	Timeout_Timer_Isr_Disable
 128:f2f.c         ****                 passmode_timeout = 0;
 361              		.loc 1 128 0
 362 00a0 724B     		ldr	r3, .L40+4
 363 00a2 0022     		movs	r2, #0
 364 00a4 1A60     		str	r2, [r3]
 129:f2f.c         ****                 Timeout_Timer_Isr_Enable();
 365              		.loc 1 129 0
 366 00a6 FFF7FEFF 		bl	Timeout_Timer_Isr_Enable
 367              	.L24:
 130:f2f.c         ****             }
 131:f2f.c         **** 
 132:f2f.c         ****             isr_F2F_edge_Disable();
 368              		.loc 1 132 0
 369 00aa FFF7FEFF 		bl	isr_F2F_edge_Disable
 133:f2f.c         ****             f2f_pulsewidth = 0;
 370              		.loc 1 133 0
 371 00ae 704B     		ldr	r3, .L40+8
 372 00b0 0022     		movs	r2, #0
 373 00b2 1A60     		str	r2, [r3]
 134:f2f.c         ****             isr_F2F_edge_Enable();
ARM GAS  C:\Users\Rajesh\AppData\Local\Temp\cco8H23Z.s 			page 10


 374              		.loc 1 134 0
 375 00b4 FFF7FEFF 		bl	isr_F2F_edge_Enable
 135:f2f.c         ****             
 136:f2f.c         ****             if (bitCount > 7)
 376              		.loc 1 136 0
 377 00b8 FB6C     		ldr	r3, [r7, #76]
 378 00ba 072B     		cmp	r3, #7
 379 00bc 04DD     		ble	.L25
 137:f2f.c         ****             {
 138:f2f.c         ****                 bitCount = 0;
 380              		.loc 1 138 0
 381 00be 0023     		movs	r3, #0
 382 00c0 FB64     		str	r3, [r7, #76]
 139:f2f.c         ****                 byteCount++;
 383              		.loc 1 139 0
 384 00c2 BB6C     		ldr	r3, [r7, #72]
 385 00c4 0133     		adds	r3, r3, #1
 386 00c6 BB64     		str	r3, [r7, #72]
 387              	.L25:
 140:f2f.c         ****             }
 141:f2f.c         **** 
 142:f2f.c         ****             if(started == 1 && width >= ((int)(0.75*hp)) && width < 0x40 ) {
 388              		.loc 1 142 0
 389 00c8 97F83F30 		ldrb	r3, [r7, #63]	@ zero_extendqisi2
 390 00cc 012B     		cmp	r3, #1
 391 00ce 1BD1     		bne	.L26
 392              		.loc 1 142 0 is_stmt 0 discriminator 1
 393 00d0 B86B     		ldr	r0, [r7, #56]
 394 00d2 FFF7FEFF 		bl	__aeabi_i2d
 395 00d6 4FF00002 		mov	r2, #0
 396 00da 664B     		ldr	r3, .L40+12
 397 00dc FFF7FEFF 		bl	__aeabi_dmul
 398 00e0 0346     		mov	r3, r0
 399 00e2 0C46     		mov	r4, r1
 400 00e4 1846     		mov	r0, r3
 401 00e6 2146     		mov	r1, r4
 402 00e8 FFF7FEFF 		bl	__aeabi_d2iz
 403 00ec 0246     		mov	r2, r0
 404 00ee 7B6B     		ldr	r3, [r7, #52]
 405 00f0 9A42     		cmp	r2, r3
 406 00f2 09DC     		bgt	.L26
 407              		.loc 1 142 0 discriminator 2
 408 00f4 7B6B     		ldr	r3, [r7, #52]
 409 00f6 3F2B     		cmp	r3, #63
 410 00f8 06DC     		bgt	.L26
 143:f2f.c         ****                 nbit = 0;
 411              		.loc 1 143 0 is_stmt 1
 412 00fa 0023     		movs	r3, #0
 413 00fc 87F84730 		strb	r3, [r7, #71]
 144:f2f.c         ****                 bitCount++;
 414              		.loc 1 144 0
 415 0100 FB6C     		ldr	r3, [r7, #76]
 416 0102 0133     		adds	r3, r3, #1
 417 0104 FB64     		str	r3, [r7, #76]
 418 0106 41E0     		b	.L21
 419              	.L26:
 145:f2f.c         ****             }
ARM GAS  C:\Users\Rajesh\AppData\Local\Temp\cco8H23Z.s 			page 11


 146:f2f.c         ****             /* A pulse width of 1msec is considered a 0 && two pulse widths of 0.5 msec is consdier
 147:f2f.c         ****                Timeout timer is configured to update timeoutcnt every 50 usecs      */
 148:f2f.c         ****             else if( width < ((int)(0.75*hp)))
 420              		.loc 1 148 0
 421 0108 B86B     		ldr	r0, [r7, #56]
 422 010a FFF7FEFF 		bl	__aeabi_i2d
 423 010e 4FF00002 		mov	r2, #0
 424 0112 584B     		ldr	r3, .L40+12
 425 0114 FFF7FEFF 		bl	__aeabi_dmul
 426 0118 0346     		mov	r3, r0
 427 011a 0C46     		mov	r4, r1
 428 011c 1846     		mov	r0, r3
 429 011e 2146     		mov	r1, r4
 430 0120 FFF7FEFF 		bl	__aeabi_d2iz
 431 0124 0246     		mov	r2, r0
 432 0126 7B6B     		ldr	r3, [r7, #52]
 433 0128 9A42     		cmp	r2, r3
 434 012a 28DD     		ble	.L27
 149:f2f.c         ****             {
 150:f2f.c         ****                 nbit++;
 435              		.loc 1 150 0
 436 012c 97F84730 		ldrb	r3, [r7, #71]	@ zero_extendqisi2
 437 0130 0133     		adds	r3, r3, #1
 438 0132 87F84730 		strb	r3, [r7, #71]
 151:f2f.c         ****                 if(nbit > 1)
 439              		.loc 1 151 0
 440 0136 97F84730 		ldrb	r3, [r7, #71]	@ zero_extendqisi2
 441 013a 012B     		cmp	r3, #1
 442 013c 26D9     		bls	.L21
 152:f2f.c         ****                 {
 153:f2f.c         ****                   buffer[byteCount] |= (0x01 << (7-bitCount));   
 443              		.loc 1 153 0
 444 013e 07F12002 		add	r2, r7, #32
 445 0142 BB6C     		ldr	r3, [r7, #72]
 446 0144 1344     		add	r3, r3, r2
 447 0146 1B78     		ldrb	r3, [r3]	@ zero_extendqisi2
 448 0148 5AB2     		sxtb	r2, r3
 449 014a FB6C     		ldr	r3, [r7, #76]
 450 014c C3F10703 		rsb	r3, r3, #7
 451 0150 0121     		movs	r1, #1
 452 0152 01FA03F3 		lsl	r3, r1, r3
 453 0156 5BB2     		sxtb	r3, r3
 454 0158 1343     		orrs	r3, r3, r2
 455 015a 5BB2     		sxtb	r3, r3
 456 015c D9B2     		uxtb	r1, r3
 457 015e 07F12002 		add	r2, r7, #32
 458 0162 BB6C     		ldr	r3, [r7, #72]
 459 0164 1344     		add	r3, r3, r2
 460 0166 0A46     		mov	r2, r1
 461 0168 1A70     		strb	r2, [r3]
 154:f2f.c         ****                   bitCount++;
 462              		.loc 1 154 0
 463 016a FB6C     		ldr	r3, [r7, #76]
 464 016c 0133     		adds	r3, r3, #1
 465 016e FB64     		str	r3, [r7, #76]
 155:f2f.c         ****                   nbit = 0; 
 466              		.loc 1 155 0
ARM GAS  C:\Users\Rajesh\AppData\Local\Temp\cco8H23Z.s 			page 12


 467 0170 0023     		movs	r3, #0
 468 0172 87F84730 		strb	r3, [r7, #71]
 156:f2f.c         ****                   started = 1;
 469              		.loc 1 156 0
 470 0176 0123     		movs	r3, #1
 471 0178 87F83F30 		strb	r3, [r7, #63]
 472 017c 06E0     		b	.L21
 473              	.L27:
 157:f2f.c         ****                 }
 158:f2f.c         ****             } 
 159:f2f.c         ****             else if (width >= 0x40 && started == 1 )
 474              		.loc 1 159 0
 475 017e 7B6B     		ldr	r3, [r7, #52]
 476 0180 3F2B     		cmp	r3, #63
 477 0182 03DD     		ble	.L21
 478              		.loc 1 159 0 is_stmt 0 discriminator 1
 479 0184 97F83F30 		ldrb	r3, [r7, #63]	@ zero_extendqisi2
 480 0188 012B     		cmp	r3, #1
 481 018a 08D0     		beq	.L39
 482              	.L21:
 103:f2f.c         ****     {
 483              		.loc 1 103 0 is_stmt 1
 484 018c BB6C     		ldr	r3, [r7, #72]
 485 018e DA00     		lsls	r2, r3, #3
 486 0190 FB6C     		ldr	r3, [r7, #76]
 487 0192 1A44     		add	r2, r2, r3
 488 0194 7B68     		ldr	r3, [r7, #4]
 489 0196 9A42     		cmp	r2, r3
 490 0198 7FF764AF 		ble	.L30
 491 019c 00E0     		b	.L29
 492              	.L39:
 160:f2f.c         ****             {
 161:f2f.c         ****                 break;
 493              		.loc 1 161 0
 494 019e 00BF     		nop
 495              	.L29:
 162:f2f.c         ****             }
 163:f2f.c         ****         } //got pulse
 164:f2f.c         ****        
 165:f2f.c         ****     }  //while
 166:f2f.c         ****     
 167:f2f.c         ****     MyI2C_Regs.data_length[0] = nBits>>8;
 496              		.loc 1 167 0
 497 01a0 7B68     		ldr	r3, [r7, #4]
 498 01a2 1B12     		asrs	r3, r3, #8
 499 01a4 DAB2     		uxtb	r2, r3
 500 01a6 344B     		ldr	r3, .L40+16
 501 01a8 DA71     		strb	r2, [r3, #7]
 168:f2f.c         ****     MyI2C_Regs.data_length[1] = nBits;
 502              		.loc 1 168 0
 503 01aa 7B68     		ldr	r3, [r7, #4]
 504 01ac DAB2     		uxtb	r2, r3
 505 01ae 324B     		ldr	r3, .L40+16
 506 01b0 1A72     		strb	r2, [r3, #8]
 169:f2f.c         **** 
 170:f2f.c         ****     
 171:f2f.c         ****     if (passmode)
ARM GAS  C:\Users\Rajesh\AppData\Local\Temp\cco8H23Z.s 			page 13


 507              		.loc 1 171 0
 508 01b2 3B68     		ldr	r3, [r7]
 509 01b4 002B     		cmp	r3, #0
 510 01b6 20D0     		beq	.L31
 172:f2f.c         ****     {
 173:f2f.c         ****         if (byteCount > 4){
 511              		.loc 1 173 0
 512 01b8 BB6C     		ldr	r3, [r7, #72]
 513 01ba 042B     		cmp	r3, #4
 514 01bc 4FDD     		ble	.L35
 174:f2f.c         ****             pass_buf[0]=0;  //add a 0 in front for the clock regenerate
 515              		.loc 1 174 0
 516 01be 0023     		movs	r3, #0
 517 01c0 3B72     		strb	r3, [r7, #8]
 175:f2f.c         ****             for (i=0; i<BUFFER_LENGTH; i++)
 518              		.loc 1 175 0
 519 01c2 0023     		movs	r3, #0
 520 01c4 3B64     		str	r3, [r7, #64]
 521 01c6 0EE0     		b	.L33
 522              	.L34:
 176:f2f.c         ****             {
 177:f2f.c         ****                 pass_buf[i+1] = buffer[i];
 523              		.loc 1 177 0 discriminator 3
 524 01c8 3B6C     		ldr	r3, [r7, #64]
 525 01ca 0133     		adds	r3, r3, #1
 526 01cc 07F12001 		add	r1, r7, #32
 527 01d0 3A6C     		ldr	r2, [r7, #64]
 528 01d2 0A44     		add	r2, r2, r1
 529 01d4 1278     		ldrb	r2, [r2]	@ zero_extendqisi2
 530 01d6 07F15001 		add	r1, r7, #80
 531 01da 0B44     		add	r3, r3, r1
 532 01dc 03F8482C 		strb	r2, [r3, #-72]
 175:f2f.c         ****             for (i=0; i<BUFFER_LENGTH; i++)
 533              		.loc 1 175 0 discriminator 3
 534 01e0 3B6C     		ldr	r3, [r7, #64]
 535 01e2 0133     		adds	r3, r3, #1
 536 01e4 3B64     		str	r3, [r7, #64]
 537              	.L33:
 175:f2f.c         ****             for (i=0; i<BUFFER_LENGTH; i++)
 538              		.loc 1 175 0 is_stmt 0 discriminator 1
 539 01e6 3B6C     		ldr	r3, [r7, #64]
 540 01e8 132B     		cmp	r3, #19
 541 01ea EDDD     		ble	.L34
 178:f2f.c         ****             }
 179:f2f.c         ****             SendF2F(pass_buf, byteCount);  //length is bytes
 542              		.loc 1 179 0 is_stmt 1
 543 01ec 07F10803 		add	r3, r7, #8
 544 01f0 B96C     		ldr	r1, [r7, #72]
 545 01f2 1846     		mov	r0, r3
 546 01f4 FFF7FEFF 		bl	SendF2F
 547 01f8 31E0     		b	.L35
 548              	.L31:
 180:f2f.c         ****         }
 181:f2f.c         ****     }
 182:f2f.c         ****     else  //send to firmware
 183:f2f.c         ****     {
 184:f2f.c         ****         for (i=0; i<BUFFER_LENGTH; i++)
ARM GAS  C:\Users\Rajesh\AppData\Local\Temp\cco8H23Z.s 			page 14


 549              		.loc 1 184 0
 550 01fa 0023     		movs	r3, #0
 551 01fc 3B64     		str	r3, [r7, #64]
 552 01fe 11E0     		b	.L36
 553              	.L37:
 185:f2f.c         ****         {
 186:f2f.c         ****             MyI2C_Regs.buffer[i] = buffer[i];
 554              		.loc 1 186 0 discriminator 3
 555 0200 07F12002 		add	r2, r7, #32
 556 0204 3B6C     		ldr	r3, [r7, #64]
 557 0206 1344     		add	r3, r3, r2
 558 0208 1978     		ldrb	r1, [r3]	@ zero_extendqisi2
 559 020a 1B4A     		ldr	r2, .L40+16
 560 020c 3B6C     		ldr	r3, [r7, #64]
 561 020e 1344     		add	r3, r3, r2
 562 0210 03F5B273 		add	r3, r3, #356
 563 0214 0A46     		mov	r2, r1
 564 0216 1A70     		strb	r2, [r3]
 187:f2f.c         ****             CyDelayUs(1u);  //add some delay for I2C bus
 565              		.loc 1 187 0 discriminator 3
 566 0218 0120     		movs	r0, #1
 567 021a FFF7FEFF 		bl	CyDelayUs
 184:f2f.c         ****         {
 568              		.loc 1 184 0 discriminator 3
 569 021e 3B6C     		ldr	r3, [r7, #64]
 570 0220 0133     		adds	r3, r3, #1
 571 0222 3B64     		str	r3, [r7, #64]
 572              	.L36:
 184:f2f.c         ****         {
 573              		.loc 1 184 0 is_stmt 0 discriminator 1
 574 0224 3B6C     		ldr	r3, [r7, #64]
 575 0226 132B     		cmp	r3, #19
 576 0228 EADD     		ble	.L37
 188:f2f.c         ****         }
 189:f2f.c         **** 
 190:f2f.c         ****         MyI2C_Regs.status_out |= STAT_CHANGE | STAT_CARD_IN ;
 577              		.loc 1 190 0 is_stmt 1
 578 022a 134B     		ldr	r3, .L40+16
 579 022c 1B78     		ldrb	r3, [r3]	@ zero_extendqisi2
 580 022e 43F00303 		orr	r3, r3, #3
 581 0232 DAB2     		uxtb	r2, r3
 582 0234 104B     		ldr	r3, .L40+16
 583 0236 1A70     		strb	r2, [r3]
 191:f2f.c         ****         card_in_buf = 1;
 584              		.loc 1 191 0
 585 0238 0B4B     		ldr	r3, .L40
 586 023a 0122     		movs	r2, #1
 587 023c 1A60     		str	r2, [r3]
 192:f2f.c         ****         card_ack = 0;
 588              		.loc 1 192 0
 589 023e 0F4B     		ldr	r3, .L40+20
 590 0240 0022     		movs	r2, #0
 591 0242 1A60     		str	r2, [r3]
 193:f2f.c         ****         MyI2C_Regs.cmd = CMD_NONE;  //to prevent send again
 592              		.loc 1 193 0
 593 0244 0C4B     		ldr	r3, .L40+16
 594 0246 0022     		movs	r2, #0
ARM GAS  C:\Users\Rajesh\AppData\Local\Temp\cco8H23Z.s 			page 15


 595 0248 9A70     		strb	r2, [r3, #2]
 194:f2f.c         ****         MyI2C_Regs.buffer1[14]++;
 596              		.loc 1 194 0
 597 024a 0B4B     		ldr	r3, .L40+16
 598 024c 93F85730 		ldrb	r3, [r3, #87]	@ zero_extendqisi2
 599 0250 0133     		adds	r3, r3, #1
 600 0252 DAB2     		uxtb	r2, r3
 601 0254 084B     		ldr	r3, .L40+16
 602 0256 83F85720 		strb	r2, [r3, #87]
 195:f2f.c         ****         return 1;
 603              		.loc 1 195 0
 604 025a 0123     		movs	r3, #1
 605 025c 00E0     		b	.L38
 606              	.L35:
 196:f2f.c         ****     }
 197:f2f.c         ****     return 0;
 607              		.loc 1 197 0
 608 025e 0023     		movs	r3, #0
 609              	.L38:
 198:f2f.c         **** }
 610              		.loc 1 198 0 discriminator 1
 611 0260 1846     		mov	r0, r3
 612 0262 5437     		adds	r7, r7, #84
 613              		.cfi_def_cfa_offset 12
 614 0264 BD46     		mov	sp, r7
 615              		.cfi_def_cfa_register 13
 616              		@ sp needed
 617 0266 90BD     		pop	{r4, r7, pc}
 618              	.L41:
 619              		.align	2
 620              	.L40:
 621 0268 00000000 		.word	card_in_buf
 622 026c 00000000 		.word	passmode_timeout
 623 0270 00000000 		.word	f2f_pulsewidth
 624 0274 0000E83F 		.word	1072168960
 625 0278 00000000 		.word	MyI2C_Regs
 626 027c 00000000 		.word	card_ack
 627              		.cfi_endproc
 628              	.LFE66:
 629              		.size	ReadF2F, .-ReadF2F
 630              		.text
 631              	.Letext0:
 632              		.file 2 "c:\\program files (x86)\\cypress\\psoc creator\\4.2\\psoc creator\\import\\gnu\\arm\\5.4.
 633              		.file 3 "c:\\program files (x86)\\cypress\\psoc creator\\4.2\\psoc creator\\import\\gnu\\arm\\5.4.
 634              		.file 4 "Generated_Source\\PSoC5/cytypes.h"
 635              		.file 5 "softuart.h"
 636              		.file 6 "system.h"
 637              		.file 7 "Generated_Source\\PSoC5/core_cm3.h"