ARM GAS  C:\Users\Rajesh\AppData\Local\Temp\cc0PQonT.s 			page 1


   1              		.syntax unified
   2              		.cpu cortex-m3
   3              		.fpu softvfp
   4              		.eabi_attribute 20, 1
   5              		.eabi_attribute 21, 1
   6              		.eabi_attribute 23, 3
   7              		.eabi_attribute 24, 1
   8              		.eabi_attribute 25, 1
   9              		.eabi_attribute 26, 1
  10              		.eabi_attribute 30, 6
  11              		.eabi_attribute 34, 1
  12              		.eabi_attribute 18, 4
  13              		.thumb
  14              		.syntax unified
  15              		.file	"isr_F2F_edge.c"
  16              		.text
  17              	.Ltext0:
  18              		.cfi_sections	.debug_frame
  19              		.comm	s,40,4
  20              		.comm	currentAccessType,1,1
  21              		.comm	hw_old,1,1
  22              		.comm	tp_old,1,1
  23              		.comm	tamperCR_polarity,4,4
  24              		.comm	tamper_out_polarity,4,4
  25              		.comm	card_ack,4,4
  26              		.comm	card_in_buf,4,4
  27              		.comm	f2f_pulsewidth,4,4
  28              		.comm	f2f_timeout,4,4
  29              		.comm	f2f_acknowledge_active,1,1
  30              		.comm	f2f_ack_delay_cnt,1,1
  31              		.section	.text.isr_F2F_edge_Start,"ax",%progbits
  32              		.align	2
  33              		.global	isr_F2F_edge_Start
  34              		.thumb
  35              		.thumb_func
  36              		.type	isr_F2F_edge_Start, %function
  37              	isr_F2F_edge_Start:
  38              	.LFB63:
  39              		.file 1 "Generated_Source\\PSoC5\\isr_F2F_edge.c"
   1:Generated_Source\PSoC5/isr_F2F_edge.c **** /*******************************************************************************
   2:Generated_Source\PSoC5/isr_F2F_edge.c **** * File Name: isr_F2F_edge.c  
   3:Generated_Source\PSoC5/isr_F2F_edge.c **** * Version 1.70
   4:Generated_Source\PSoC5/isr_F2F_edge.c **** *
   5:Generated_Source\PSoC5/isr_F2F_edge.c **** *  Description:
   6:Generated_Source\PSoC5/isr_F2F_edge.c **** *   API for controlling the state of an interrupt.
   7:Generated_Source\PSoC5/isr_F2F_edge.c **** *
   8:Generated_Source\PSoC5/isr_F2F_edge.c **** *
   9:Generated_Source\PSoC5/isr_F2F_edge.c **** *  Note:
  10:Generated_Source\PSoC5/isr_F2F_edge.c **** *
  11:Generated_Source\PSoC5/isr_F2F_edge.c **** ********************************************************************************
  12:Generated_Source\PSoC5/isr_F2F_edge.c **** * Copyright 2008-2015, Cypress Semiconductor Corporation.  All rights reserved.
  13:Generated_Source\PSoC5/isr_F2F_edge.c **** * You may use this file only in accordance with the license, terms, conditions, 
  14:Generated_Source\PSoC5/isr_F2F_edge.c **** * disclaimers, and limitations in the end user license agreement accompanying 
  15:Generated_Source\PSoC5/isr_F2F_edge.c **** * the software package with which this file was provided.
  16:Generated_Source\PSoC5/isr_F2F_edge.c **** *******************************************************************************/
  17:Generated_Source\PSoC5/isr_F2F_edge.c **** 
  18:Generated_Source\PSoC5/isr_F2F_edge.c **** 
ARM GAS  C:\Users\Rajesh\AppData\Local\Temp\cc0PQonT.s 			page 2


  19:Generated_Source\PSoC5/isr_F2F_edge.c **** #include <cydevice_trm.h>
  20:Generated_Source\PSoC5/isr_F2F_edge.c **** #include <CyLib.h>
  21:Generated_Source\PSoC5/isr_F2F_edge.c **** #include <isr_F2F_edge.h>
  22:Generated_Source\PSoC5/isr_F2F_edge.c **** 
  23:Generated_Source\PSoC5/isr_F2F_edge.c **** 
  24:Generated_Source\PSoC5/isr_F2F_edge.c **** #if !defined(isr_F2F_edge__REMOVED) /* Check for removal by optimization */
  25:Generated_Source\PSoC5/isr_F2F_edge.c **** 
  26:Generated_Source\PSoC5/isr_F2F_edge.c **** /*******************************************************************************
  27:Generated_Source\PSoC5/isr_F2F_edge.c **** *  Place your includes, defines and code here 
  28:Generated_Source\PSoC5/isr_F2F_edge.c **** ********************************************************************************/
  29:Generated_Source\PSoC5/isr_F2F_edge.c **** /* `#START isr_F2F_edge_intc` */
  30:Generated_Source\PSoC5/isr_F2F_edge.c **** #include "FilterReg.h"
  31:Generated_Source\PSoC5/isr_F2F_edge.c **** #include "Timeout_Timer_ISR.h"
  32:Generated_Source\PSoC5/isr_F2F_edge.c **** #include "system.h"
  33:Generated_Source\PSoC5/isr_F2F_edge.c **** //#include "LED_YEL.h" //debug
  34:Generated_Source\PSoC5/isr_F2F_edge.c **** //uint8 ledyelon; //debug   
  35:Generated_Source\PSoC5/isr_F2F_edge.c ****     
  36:Generated_Source\PSoC5/isr_F2F_edge.c **** int f2f_pulsewidth;
  37:Generated_Source\PSoC5/isr_F2F_edge.c **** int f2f_timeout;
  38:Generated_Source\PSoC5/isr_F2F_edge.c ****     
  39:Generated_Source\PSoC5/isr_F2F_edge.c **** /* F2F reader acknowledgement */
  40:Generated_Source\PSoC5/isr_F2F_edge.c **** char f2f_acknowledge_active;
  41:Generated_Source\PSoC5/isr_F2F_edge.c **** char f2f_ack_delay_cnt;
  42:Generated_Source\PSoC5/isr_F2F_edge.c **** 
  43:Generated_Source\PSoC5/isr_F2F_edge.c ****    
  44:Generated_Source\PSoC5/isr_F2F_edge.c **** /* `#END` */
  45:Generated_Source\PSoC5/isr_F2F_edge.c **** 
  46:Generated_Source\PSoC5/isr_F2F_edge.c **** #ifndef CYINT_IRQ_BASE
  47:Generated_Source\PSoC5/isr_F2F_edge.c **** #define CYINT_IRQ_BASE      16
  48:Generated_Source\PSoC5/isr_F2F_edge.c **** #endif /* CYINT_IRQ_BASE */
  49:Generated_Source\PSoC5/isr_F2F_edge.c **** #ifndef CYINT_VECT_TABLE
  50:Generated_Source\PSoC5/isr_F2F_edge.c **** #define CYINT_VECT_TABLE    ((cyisraddress **) CYREG_NVIC_VECT_OFFSET)
  51:Generated_Source\PSoC5/isr_F2F_edge.c **** #endif /* CYINT_VECT_TABLE */
  52:Generated_Source\PSoC5/isr_F2F_edge.c **** 
  53:Generated_Source\PSoC5/isr_F2F_edge.c **** /* Declared in startup, used to set unused interrupts to. */
  54:Generated_Source\PSoC5/isr_F2F_edge.c **** CY_ISR_PROTO(IntDefaultHandler);
  55:Generated_Source\PSoC5/isr_F2F_edge.c **** 
  56:Generated_Source\PSoC5/isr_F2F_edge.c **** 
  57:Generated_Source\PSoC5/isr_F2F_edge.c **** /*******************************************************************************
  58:Generated_Source\PSoC5/isr_F2F_edge.c **** * Function Name: isr_F2F_edge_Start
  59:Generated_Source\PSoC5/isr_F2F_edge.c **** ********************************************************************************
  60:Generated_Source\PSoC5/isr_F2F_edge.c **** *
  61:Generated_Source\PSoC5/isr_F2F_edge.c **** * Summary:
  62:Generated_Source\PSoC5/isr_F2F_edge.c **** *  Set up the interrupt and enable it. This function disables the interrupt, 
  63:Generated_Source\PSoC5/isr_F2F_edge.c **** *  sets the default interrupt vector, sets the priority from the value in the
  64:Generated_Source\PSoC5/isr_F2F_edge.c **** *  Design Wide Resources Interrupt Editor, then enables the interrupt to the 
  65:Generated_Source\PSoC5/isr_F2F_edge.c **** *  interrupt controller.
  66:Generated_Source\PSoC5/isr_F2F_edge.c **** *
  67:Generated_Source\PSoC5/isr_F2F_edge.c **** * Parameters:  
  68:Generated_Source\PSoC5/isr_F2F_edge.c **** *   None
  69:Generated_Source\PSoC5/isr_F2F_edge.c **** *
  70:Generated_Source\PSoC5/isr_F2F_edge.c **** * Return:
  71:Generated_Source\PSoC5/isr_F2F_edge.c **** *   None
  72:Generated_Source\PSoC5/isr_F2F_edge.c **** *
  73:Generated_Source\PSoC5/isr_F2F_edge.c **** *******************************************************************************/
  74:Generated_Source\PSoC5/isr_F2F_edge.c **** void isr_F2F_edge_Start(void)
  75:Generated_Source\PSoC5/isr_F2F_edge.c **** {
ARM GAS  C:\Users\Rajesh\AppData\Local\Temp\cc0PQonT.s 			page 3


  40              		.loc 1 75 0
  41              		.cfi_startproc
  42              		@ args = 0, pretend = 0, frame = 0
  43              		@ frame_needed = 1, uses_anonymous_args = 0
  44 0000 80B5     		push	{r7, lr}
  45              		.cfi_def_cfa_offset 8
  46              		.cfi_offset 7, -8
  47              		.cfi_offset 14, -4
  48 0002 00AF     		add	r7, sp, #0
  49              		.cfi_def_cfa_register 7
  76:Generated_Source\PSoC5/isr_F2F_edge.c ****     /* For all we know the interrupt is active. */
  77:Generated_Source\PSoC5/isr_F2F_edge.c ****     isr_F2F_edge_Disable();
  50              		.loc 1 77 0
  51 0004 FFF7FEFF 		bl	isr_F2F_edge_Disable
  78:Generated_Source\PSoC5/isr_F2F_edge.c **** 
  79:Generated_Source\PSoC5/isr_F2F_edge.c ****     /* Set the ISR to point to the isr_F2F_edge Interrupt. */
  80:Generated_Source\PSoC5/isr_F2F_edge.c ****     isr_F2F_edge_SetVector(&isr_F2F_edge_Interrupt);
  52              		.loc 1 80 0
  53 0008 0448     		ldr	r0, .L2
  54 000a FFF7FEFF 		bl	isr_F2F_edge_SetVector
  81:Generated_Source\PSoC5/isr_F2F_edge.c **** 
  82:Generated_Source\PSoC5/isr_F2F_edge.c ****     /* Set the priority. */
  83:Generated_Source\PSoC5/isr_F2F_edge.c ****     isr_F2F_edge_SetPriority((uint8)isr_F2F_edge_INTC_PRIOR_NUMBER);
  55              		.loc 1 83 0
  56 000e 0720     		movs	r0, #7
  57 0010 FFF7FEFF 		bl	isr_F2F_edge_SetPriority
  84:Generated_Source\PSoC5/isr_F2F_edge.c **** 
  85:Generated_Source\PSoC5/isr_F2F_edge.c ****     /* Enable it. */
  86:Generated_Source\PSoC5/isr_F2F_edge.c ****     isr_F2F_edge_Enable();
  58              		.loc 1 86 0
  59 0014 FFF7FEFF 		bl	isr_F2F_edge_Enable
  87:Generated_Source\PSoC5/isr_F2F_edge.c **** }
  60              		.loc 1 87 0
  61 0018 00BF     		nop
  62 001a 80BD     		pop	{r7, pc}
  63              	.L3:
  64              		.align	2
  65              	.L2:
  66 001c 00000000 		.word	isr_F2F_edge_Interrupt
  67              		.cfi_endproc
  68              	.LFE63:
  69              		.size	isr_F2F_edge_Start, .-isr_F2F_edge_Start
  70              		.section	.text.isr_F2F_edge_StartEx,"ax",%progbits
  71              		.align	2
  72              		.global	isr_F2F_edge_StartEx
  73              		.thumb
  74              		.thumb_func
  75              		.type	isr_F2F_edge_StartEx, %function
  76              	isr_F2F_edge_StartEx:
  77              	.LFB64:
  88:Generated_Source\PSoC5/isr_F2F_edge.c **** 
  89:Generated_Source\PSoC5/isr_F2F_edge.c **** 
  90:Generated_Source\PSoC5/isr_F2F_edge.c **** /*******************************************************************************
  91:Generated_Source\PSoC5/isr_F2F_edge.c **** * Function Name: isr_F2F_edge_StartEx
  92:Generated_Source\PSoC5/isr_F2F_edge.c **** ********************************************************************************
  93:Generated_Source\PSoC5/isr_F2F_edge.c **** *
  94:Generated_Source\PSoC5/isr_F2F_edge.c **** * Summary:
ARM GAS  C:\Users\Rajesh\AppData\Local\Temp\cc0PQonT.s 			page 4


  95:Generated_Source\PSoC5/isr_F2F_edge.c **** *  Sets up the interrupt and enables it. This function disables the interrupt,
  96:Generated_Source\PSoC5/isr_F2F_edge.c **** *  sets the interrupt vector based on the address passed in, sets the priority 
  97:Generated_Source\PSoC5/isr_F2F_edge.c **** *  from the value in the Design Wide Resources Interrupt Editor, then enables 
  98:Generated_Source\PSoC5/isr_F2F_edge.c **** *  the interrupt to the interrupt controller.
  99:Generated_Source\PSoC5/isr_F2F_edge.c **** *  
 100:Generated_Source\PSoC5/isr_F2F_edge.c **** *  When defining ISR functions, the CY_ISR and CY_ISR_PROTO macros should be 
 101:Generated_Source\PSoC5/isr_F2F_edge.c **** *  used to provide consistent definition across compilers:
 102:Generated_Source\PSoC5/isr_F2F_edge.c **** *  
 103:Generated_Source\PSoC5/isr_F2F_edge.c **** *  Function definition example:
 104:Generated_Source\PSoC5/isr_F2F_edge.c **** *   CY_ISR(MyISR)
 105:Generated_Source\PSoC5/isr_F2F_edge.c **** *   {
 106:Generated_Source\PSoC5/isr_F2F_edge.c **** *   }
 107:Generated_Source\PSoC5/isr_F2F_edge.c **** *   Function prototype example:
 108:Generated_Source\PSoC5/isr_F2F_edge.c **** *   CY_ISR_PROTO(MyISR);
 109:Generated_Source\PSoC5/isr_F2F_edge.c **** *
 110:Generated_Source\PSoC5/isr_F2F_edge.c **** * Parameters:  
 111:Generated_Source\PSoC5/isr_F2F_edge.c **** *   address: Address of the ISR to set in the interrupt vector table.
 112:Generated_Source\PSoC5/isr_F2F_edge.c **** *
 113:Generated_Source\PSoC5/isr_F2F_edge.c **** * Return:
 114:Generated_Source\PSoC5/isr_F2F_edge.c **** *   None
 115:Generated_Source\PSoC5/isr_F2F_edge.c **** *
 116:Generated_Source\PSoC5/isr_F2F_edge.c **** *******************************************************************************/
 117:Generated_Source\PSoC5/isr_F2F_edge.c **** void isr_F2F_edge_StartEx(cyisraddress address)
 118:Generated_Source\PSoC5/isr_F2F_edge.c **** {
  78              		.loc 1 118 0
  79              		.cfi_startproc
  80              		@ args = 0, pretend = 0, frame = 8
  81              		@ frame_needed = 1, uses_anonymous_args = 0
  82 0000 80B5     		push	{r7, lr}
  83              		.cfi_def_cfa_offset 8
  84              		.cfi_offset 7, -8
  85              		.cfi_offset 14, -4
  86 0002 82B0     		sub	sp, sp, #8
  87              		.cfi_def_cfa_offset 16
  88 0004 00AF     		add	r7, sp, #0
  89              		.cfi_def_cfa_register 7
  90 0006 7860     		str	r0, [r7, #4]
 119:Generated_Source\PSoC5/isr_F2F_edge.c ****     /* For all we know the interrupt is active. */
 120:Generated_Source\PSoC5/isr_F2F_edge.c ****     isr_F2F_edge_Disable();
  91              		.loc 1 120 0
  92 0008 FFF7FEFF 		bl	isr_F2F_edge_Disable
 121:Generated_Source\PSoC5/isr_F2F_edge.c **** 
 122:Generated_Source\PSoC5/isr_F2F_edge.c ****     /* Set the ISR to point to the isr_F2F_edge Interrupt. */
 123:Generated_Source\PSoC5/isr_F2F_edge.c ****     isr_F2F_edge_SetVector(address);
  93              		.loc 1 123 0
  94 000c 7868     		ldr	r0, [r7, #4]
  95 000e FFF7FEFF 		bl	isr_F2F_edge_SetVector
 124:Generated_Source\PSoC5/isr_F2F_edge.c **** 
 125:Generated_Source\PSoC5/isr_F2F_edge.c ****     /* Set the priority. */
 126:Generated_Source\PSoC5/isr_F2F_edge.c ****     isr_F2F_edge_SetPriority((uint8)isr_F2F_edge_INTC_PRIOR_NUMBER);
  96              		.loc 1 126 0
  97 0012 0720     		movs	r0, #7
  98 0014 FFF7FEFF 		bl	isr_F2F_edge_SetPriority
 127:Generated_Source\PSoC5/isr_F2F_edge.c **** 
 128:Generated_Source\PSoC5/isr_F2F_edge.c ****     /* Enable it. */
 129:Generated_Source\PSoC5/isr_F2F_edge.c ****     isr_F2F_edge_Enable();
  99              		.loc 1 129 0
ARM GAS  C:\Users\Rajesh\AppData\Local\Temp\cc0PQonT.s 			page 5


 100 0018 FFF7FEFF 		bl	isr_F2F_edge_Enable
 130:Generated_Source\PSoC5/isr_F2F_edge.c **** }
 101              		.loc 1 130 0
 102 001c 00BF     		nop
 103 001e 0837     		adds	r7, r7, #8
 104              		.cfi_def_cfa_offset 8
 105 0020 BD46     		mov	sp, r7
 106              		.cfi_def_cfa_register 13
 107              		@ sp needed
 108 0022 80BD     		pop	{r7, pc}
 109              		.cfi_endproc
 110              	.LFE64:
 111              		.size	isr_F2F_edge_StartEx, .-isr_F2F_edge_StartEx
 112              		.section	.text.isr_F2F_edge_Stop,"ax",%progbits
 113              		.align	2
 114              		.global	isr_F2F_edge_Stop
 115              		.thumb
 116              		.thumb_func
 117              		.type	isr_F2F_edge_Stop, %function
 118              	isr_F2F_edge_Stop:
 119              	.LFB65:
 131:Generated_Source\PSoC5/isr_F2F_edge.c **** 
 132:Generated_Source\PSoC5/isr_F2F_edge.c **** 
 133:Generated_Source\PSoC5/isr_F2F_edge.c **** /*******************************************************************************
 134:Generated_Source\PSoC5/isr_F2F_edge.c **** * Function Name: isr_F2F_edge_Stop
 135:Generated_Source\PSoC5/isr_F2F_edge.c **** ********************************************************************************
 136:Generated_Source\PSoC5/isr_F2F_edge.c **** *
 137:Generated_Source\PSoC5/isr_F2F_edge.c **** * Summary:
 138:Generated_Source\PSoC5/isr_F2F_edge.c **** *   Disables and removes the interrupt.
 139:Generated_Source\PSoC5/isr_F2F_edge.c **** *
 140:Generated_Source\PSoC5/isr_F2F_edge.c **** * Parameters:  
 141:Generated_Source\PSoC5/isr_F2F_edge.c **** *   None
 142:Generated_Source\PSoC5/isr_F2F_edge.c **** *
 143:Generated_Source\PSoC5/isr_F2F_edge.c **** * Return:
 144:Generated_Source\PSoC5/isr_F2F_edge.c **** *   None
 145:Generated_Source\PSoC5/isr_F2F_edge.c **** *
 146:Generated_Source\PSoC5/isr_F2F_edge.c **** *******************************************************************************/
 147:Generated_Source\PSoC5/isr_F2F_edge.c **** void isr_F2F_edge_Stop(void)
 148:Generated_Source\PSoC5/isr_F2F_edge.c **** {
 120              		.loc 1 148 0
 121              		.cfi_startproc
 122              		@ args = 0, pretend = 0, frame = 0
 123              		@ frame_needed = 1, uses_anonymous_args = 0
 124 0000 80B5     		push	{r7, lr}
 125              		.cfi_def_cfa_offset 8
 126              		.cfi_offset 7, -8
 127              		.cfi_offset 14, -4
 128 0002 00AF     		add	r7, sp, #0
 129              		.cfi_def_cfa_register 7
 149:Generated_Source\PSoC5/isr_F2F_edge.c ****     /* Disable this interrupt. */
 150:Generated_Source\PSoC5/isr_F2F_edge.c ****     isr_F2F_edge_Disable();
 130              		.loc 1 150 0
 131 0004 FFF7FEFF 		bl	isr_F2F_edge_Disable
 151:Generated_Source\PSoC5/isr_F2F_edge.c **** 
 152:Generated_Source\PSoC5/isr_F2F_edge.c ****     /* Set the ISR to point to the passive one. */
 153:Generated_Source\PSoC5/isr_F2F_edge.c ****     isr_F2F_edge_SetVector(&IntDefaultHandler);
 132              		.loc 1 153 0
ARM GAS  C:\Users\Rajesh\AppData\Local\Temp\cc0PQonT.s 			page 6


 133 0008 0248     		ldr	r0, .L6
 134 000a FFF7FEFF 		bl	isr_F2F_edge_SetVector
 154:Generated_Source\PSoC5/isr_F2F_edge.c **** }
 135              		.loc 1 154 0
 136 000e 00BF     		nop
 137 0010 80BD     		pop	{r7, pc}
 138              	.L7:
 139 0012 00BF     		.align	2
 140              	.L6:
 141 0014 00000000 		.word	IntDefaultHandler
 142              		.cfi_endproc
 143              	.LFE65:
 144              		.size	isr_F2F_edge_Stop, .-isr_F2F_edge_Stop
 145              		.section	.text.isr_F2F_edge_Interrupt,"ax",%progbits
 146              		.align	2
 147              		.global	isr_F2F_edge_Interrupt
 148              		.thumb
 149              		.thumb_func
 150              		.type	isr_F2F_edge_Interrupt, %function
 151              	isr_F2F_edge_Interrupt:
 152              	.LFB66:
 155:Generated_Source\PSoC5/isr_F2F_edge.c **** 
 156:Generated_Source\PSoC5/isr_F2F_edge.c **** 
 157:Generated_Source\PSoC5/isr_F2F_edge.c **** /*******************************************************************************
 158:Generated_Source\PSoC5/isr_F2F_edge.c **** * Function Name: isr_F2F_edge_Interrupt
 159:Generated_Source\PSoC5/isr_F2F_edge.c **** ********************************************************************************
 160:Generated_Source\PSoC5/isr_F2F_edge.c **** *
 161:Generated_Source\PSoC5/isr_F2F_edge.c **** * Summary:
 162:Generated_Source\PSoC5/isr_F2F_edge.c **** *   The default Interrupt Service Routine for isr_F2F_edge.
 163:Generated_Source\PSoC5/isr_F2F_edge.c **** *
 164:Generated_Source\PSoC5/isr_F2F_edge.c **** *   Add custom code between the coments to keep the next version of this file
 165:Generated_Source\PSoC5/isr_F2F_edge.c **** *   from over writting your code.
 166:Generated_Source\PSoC5/isr_F2F_edge.c **** *
 167:Generated_Source\PSoC5/isr_F2F_edge.c **** * Parameters:  
 168:Generated_Source\PSoC5/isr_F2F_edge.c **** *
 169:Generated_Source\PSoC5/isr_F2F_edge.c **** * Return:
 170:Generated_Source\PSoC5/isr_F2F_edge.c **** *   None
 171:Generated_Source\PSoC5/isr_F2F_edge.c **** *
 172:Generated_Source\PSoC5/isr_F2F_edge.c **** *******************************************************************************/
 173:Generated_Source\PSoC5/isr_F2F_edge.c **** CY_ISR(isr_F2F_edge_Interrupt)
 174:Generated_Source\PSoC5/isr_F2F_edge.c **** {
 153              		.loc 1 174 0
 154              		.cfi_startproc
 155              		@ args = 0, pretend = 0, frame = 0
 156              		@ frame_needed = 1, uses_anonymous_args = 0
 157 0000 80B5     		push	{r7, lr}
 158              		.cfi_def_cfa_offset 8
 159              		.cfi_offset 7, -8
 160              		.cfi_offset 14, -4
 161 0002 00AF     		add	r7, sp, #0
 162              		.cfi_def_cfa_register 7
 175:Generated_Source\PSoC5/isr_F2F_edge.c ****     #ifdef isr_F2F_edge_INTERRUPT_INTERRUPT_CALLBACK
 176:Generated_Source\PSoC5/isr_F2F_edge.c ****         isr_F2F_edge_Interrupt_InterruptCallback();
 177:Generated_Source\PSoC5/isr_F2F_edge.c ****     #endif /* isr_F2F_edge_INTERRUPT_INTERRUPT_CALLBACK */ 
 178:Generated_Source\PSoC5/isr_F2F_edge.c **** 
 179:Generated_Source\PSoC5/isr_F2F_edge.c ****     /*  Place your Interrupt code here. */
 180:Generated_Source\PSoC5/isr_F2F_edge.c ****     /* `#START isr_F2F_edge_Interrupt` */
ARM GAS  C:\Users\Rajesh\AppData\Local\Temp\cc0PQonT.s 			page 7


 181:Generated_Source\PSoC5/isr_F2F_edge.c **** 
 182:Generated_Source\PSoC5/isr_F2F_edge.c ****     FilterReg_Read();  //reset debouncer
 163              		.loc 1 182 0
 164 0004 FFF7FEFF 		bl	FilterReg_Read
 183:Generated_Source\PSoC5/isr_F2F_edge.c ****     if(run_mode == MODE_F2F || run_mode == MODE_F2F + BASE_PASS || run_mode == MODE_F2F + BASE_TOC)
 165              		.loc 1 183 0
 166 0008 134B     		ldr	r3, .L13
 167 000a 1B78     		ldrb	r3, [r3]	@ zero_extendqisi2
 168 000c 052B     		cmp	r3, #5
 169 000e 07D0     		beq	.L9
 170              		.loc 1 183 0 is_stmt 0 discriminator 1
 171 0010 114B     		ldr	r3, .L13
 172 0012 1B78     		ldrb	r3, [r3]	@ zero_extendqisi2
 173 0014 692B     		cmp	r3, #105
 174 0016 03D0     		beq	.L9
 175              		.loc 1 183 0 discriminator 2
 176 0018 0F4B     		ldr	r3, .L13
 177 001a 1B78     		ldrb	r3, [r3]	@ zero_extendqisi2
 178 001c 372B     		cmp	r3, #55
 179 001e 18D1     		bne	.L12
 180              	.L9:
 184:Generated_Source\PSoC5/isr_F2F_edge.c ****     {
 185:Generated_Source\PSoC5/isr_F2F_edge.c ****         Timeout_Timer_Isr_Disable();
 181              		.loc 1 185 0 is_stmt 1
 182 0020 FFF7FEFF 		bl	Timeout_Timer_Isr_Disable
 186:Generated_Source\PSoC5/isr_F2F_edge.c ****         f2f_pulsewidth = f2f_timeout;
 183              		.loc 1 186 0
 184 0024 0D4B     		ldr	r3, .L13+4
 185 0026 1B68     		ldr	r3, [r3]
 186 0028 0D4A     		ldr	r2, .L13+8
 187 002a 1360     		str	r3, [r2]
 187:Generated_Source\PSoC5/isr_F2F_edge.c ****         Timeout_Timer_Isr_Enable();
 188              		.loc 1 187 0
 189 002c FFF7FEFF 		bl	Timeout_Timer_Isr_Enable
 188:Generated_Source\PSoC5/isr_F2F_edge.c ****         
 189:Generated_Source\PSoC5/isr_F2F_edge.c ****         if (f2f_pulsewidth < 0x40){
 190              		.loc 1 189 0
 191 0030 0B4B     		ldr	r3, .L13+8
 192 0032 1B68     		ldr	r3, [r3]
 193 0034 3F2B     		cmp	r3, #63
 194 0036 05DC     		bgt	.L11
 190:Generated_Source\PSoC5/isr_F2F_edge.c ****             //start an acknowledgement to the F2F reader for the Supervision mode
 191:Generated_Source\PSoC5/isr_F2F_edge.c ****             f2f_ack_delay_cnt = 0;
 195              		.loc 1 191 0
 196 0038 0A4B     		ldr	r3, .L13+12
 197 003a 0022     		movs	r2, #0
 198 003c 1A70     		strb	r2, [r3]
 192:Generated_Source\PSoC5/isr_F2F_edge.c ****             f2f_acknowledge_active = 1;
 199              		.loc 1 192 0
 200 003e 0A4B     		ldr	r3, .L13+16
 201 0040 0122     		movs	r2, #1
 202 0042 1A70     		strb	r2, [r3]
 203              	.L11:
 193:Generated_Source\PSoC5/isr_F2F_edge.c ****         }
 194:Generated_Source\PSoC5/isr_F2F_edge.c ****         
 195:Generated_Source\PSoC5/isr_F2F_edge.c ****         Timeout_Timer_Isr_Disable();
 204              		.loc 1 195 0
ARM GAS  C:\Users\Rajesh\AppData\Local\Temp\cc0PQonT.s 			page 8


 205 0044 FFF7FEFF 		bl	Timeout_Timer_Isr_Disable
 196:Generated_Source\PSoC5/isr_F2F_edge.c ****         f2f_timeout = 0;
 206              		.loc 1 196 0
 207 0048 044B     		ldr	r3, .L13+4
 208 004a 0022     		movs	r2, #0
 209 004c 1A60     		str	r2, [r3]
 197:Generated_Source\PSoC5/isr_F2F_edge.c ****         Timeout_Timer_Isr_Enable();
 210              		.loc 1 197 0
 211 004e FFF7FEFF 		bl	Timeout_Timer_Isr_Enable
 212              	.L12:
 198:Generated_Source\PSoC5/isr_F2F_edge.c ****     }
 199:Generated_Source\PSoC5/isr_F2F_edge.c **** 
 200:Generated_Source\PSoC5/isr_F2F_edge.c ****     /* `#END` */
 201:Generated_Source\PSoC5/isr_F2F_edge.c **** }
 213              		.loc 1 201 0
 214 0052 00BF     		nop
 215 0054 80BD     		pop	{r7, pc}
 216              	.L14:
 217 0056 00BF     		.align	2
 218              	.L13:
 219 0058 00000000 		.word	run_mode
 220 005c 00000000 		.word	f2f_timeout
 221 0060 00000000 		.word	f2f_pulsewidth
 222 0064 00000000 		.word	f2f_ack_delay_cnt
 223 0068 00000000 		.word	f2f_acknowledge_active
 224              		.cfi_endproc
 225              	.LFE66:
 226              		.size	isr_F2F_edge_Interrupt, .-isr_F2F_edge_Interrupt
 227              		.section	.text.isr_F2F_edge_SetVector,"ax",%progbits
 228              		.align	2
 229              		.global	isr_F2F_edge_SetVector
 230              		.thumb
 231              		.thumb_func
 232              		.type	isr_F2F_edge_SetVector, %function
 233              	isr_F2F_edge_SetVector:
 234              	.LFB67:
 202:Generated_Source\PSoC5/isr_F2F_edge.c **** 
 203:Generated_Source\PSoC5/isr_F2F_edge.c **** 
 204:Generated_Source\PSoC5/isr_F2F_edge.c **** /*******************************************************************************
 205:Generated_Source\PSoC5/isr_F2F_edge.c **** * Function Name: isr_F2F_edge_SetVector
 206:Generated_Source\PSoC5/isr_F2F_edge.c **** ********************************************************************************
 207:Generated_Source\PSoC5/isr_F2F_edge.c **** *
 208:Generated_Source\PSoC5/isr_F2F_edge.c **** * Summary:
 209:Generated_Source\PSoC5/isr_F2F_edge.c **** *   Change the ISR vector for the Interrupt. Note calling isr_F2F_edge_Start
 210:Generated_Source\PSoC5/isr_F2F_edge.c **** *   will override any effect this method would have had. To set the vector 
 211:Generated_Source\PSoC5/isr_F2F_edge.c **** *   before the component has been started use isr_F2F_edge_StartEx instead.
 212:Generated_Source\PSoC5/isr_F2F_edge.c **** * 
 213:Generated_Source\PSoC5/isr_F2F_edge.c **** *   When defining ISR functions, the CY_ISR and CY_ISR_PROTO macros should be 
 214:Generated_Source\PSoC5/isr_F2F_edge.c **** *   used to provide consistent definition across compilers:
 215:Generated_Source\PSoC5/isr_F2F_edge.c **** *
 216:Generated_Source\PSoC5/isr_F2F_edge.c **** *   Function definition example:
 217:Generated_Source\PSoC5/isr_F2F_edge.c **** *   CY_ISR(MyISR)
 218:Generated_Source\PSoC5/isr_F2F_edge.c **** *   {
 219:Generated_Source\PSoC5/isr_F2F_edge.c **** *   }
 220:Generated_Source\PSoC5/isr_F2F_edge.c **** *
 221:Generated_Source\PSoC5/isr_F2F_edge.c **** *   Function prototype example:
 222:Generated_Source\PSoC5/isr_F2F_edge.c **** *     CY_ISR_PROTO(MyISR);
ARM GAS  C:\Users\Rajesh\AppData\Local\Temp\cc0PQonT.s 			page 9


 223:Generated_Source\PSoC5/isr_F2F_edge.c **** *
 224:Generated_Source\PSoC5/isr_F2F_edge.c **** * Parameters:
 225:Generated_Source\PSoC5/isr_F2F_edge.c **** *   address: Address of the ISR to set in the interrupt vector table.
 226:Generated_Source\PSoC5/isr_F2F_edge.c **** *
 227:Generated_Source\PSoC5/isr_F2F_edge.c **** * Return:
 228:Generated_Source\PSoC5/isr_F2F_edge.c **** *   None
 229:Generated_Source\PSoC5/isr_F2F_edge.c **** *
 230:Generated_Source\PSoC5/isr_F2F_edge.c **** *******************************************************************************/
 231:Generated_Source\PSoC5/isr_F2F_edge.c **** void isr_F2F_edge_SetVector(cyisraddress address)
 232:Generated_Source\PSoC5/isr_F2F_edge.c **** {
 235              		.loc 1 232 0
 236              		.cfi_startproc
 237              		@ args = 0, pretend = 0, frame = 16
 238              		@ frame_needed = 1, uses_anonymous_args = 0
 239              		@ link register save eliminated.
 240 0000 80B4     		push	{r7}
 241              		.cfi_def_cfa_offset 4
 242              		.cfi_offset 7, -4
 243 0002 85B0     		sub	sp, sp, #20
 244              		.cfi_def_cfa_offset 24
 245 0004 00AF     		add	r7, sp, #0
 246              		.cfi_def_cfa_register 7
 247 0006 7860     		str	r0, [r7, #4]
 233:Generated_Source\PSoC5/isr_F2F_edge.c ****     cyisraddress * ramVectorTable;
 234:Generated_Source\PSoC5/isr_F2F_edge.c **** 
 235:Generated_Source\PSoC5/isr_F2F_edge.c ****     ramVectorTable = (cyisraddress *) *CYINT_VECT_TABLE;
 248              		.loc 1 235 0
 249 0008 054B     		ldr	r3, .L16
 250 000a 1B68     		ldr	r3, [r3]
 251 000c FB60     		str	r3, [r7, #12]
 236:Generated_Source\PSoC5/isr_F2F_edge.c **** 
 237:Generated_Source\PSoC5/isr_F2F_edge.c ****     ramVectorTable[CYINT_IRQ_BASE + (uint32)isr_F2F_edge__INTC_NUMBER] = address;
 252              		.loc 1 237 0
 253 000e FB68     		ldr	r3, [r7, #12]
 254 0010 5C33     		adds	r3, r3, #92
 255 0012 7A68     		ldr	r2, [r7, #4]
 256 0014 1A60     		str	r2, [r3]
 238:Generated_Source\PSoC5/isr_F2F_edge.c **** }
 257              		.loc 1 238 0
 258 0016 00BF     		nop
 259 0018 1437     		adds	r7, r7, #20
 260              		.cfi_def_cfa_offset 4
 261 001a BD46     		mov	sp, r7
 262              		.cfi_def_cfa_register 13
 263              		@ sp needed
 264 001c 80BC     		pop	{r7}
 265              		.cfi_restore 7
 266              		.cfi_def_cfa_offset 0
 267 001e 7047     		bx	lr
 268              	.L17:
 269              		.align	2
 270              	.L16:
 271 0020 08ED00E0 		.word	-536810232
 272              		.cfi_endproc
 273              	.LFE67:
 274              		.size	isr_F2F_edge_SetVector, .-isr_F2F_edge_SetVector
 275              		.section	.text.isr_F2F_edge_GetVector,"ax",%progbits
ARM GAS  C:\Users\Rajesh\AppData\Local\Temp\cc0PQonT.s 			page 10


 276              		.align	2
 277              		.global	isr_F2F_edge_GetVector
 278              		.thumb
 279              		.thumb_func
 280              		.type	isr_F2F_edge_GetVector, %function
 281              	isr_F2F_edge_GetVector:
 282              	.LFB68:
 239:Generated_Source\PSoC5/isr_F2F_edge.c **** 
 240:Generated_Source\PSoC5/isr_F2F_edge.c **** 
 241:Generated_Source\PSoC5/isr_F2F_edge.c **** /*******************************************************************************
 242:Generated_Source\PSoC5/isr_F2F_edge.c **** * Function Name: isr_F2F_edge_GetVector
 243:Generated_Source\PSoC5/isr_F2F_edge.c **** ********************************************************************************
 244:Generated_Source\PSoC5/isr_F2F_edge.c **** *
 245:Generated_Source\PSoC5/isr_F2F_edge.c **** * Summary:
 246:Generated_Source\PSoC5/isr_F2F_edge.c **** *   Gets the "address" of the current ISR vector for the Interrupt.
 247:Generated_Source\PSoC5/isr_F2F_edge.c **** *
 248:Generated_Source\PSoC5/isr_F2F_edge.c **** * Parameters:
 249:Generated_Source\PSoC5/isr_F2F_edge.c **** *   None
 250:Generated_Source\PSoC5/isr_F2F_edge.c **** *
 251:Generated_Source\PSoC5/isr_F2F_edge.c **** * Return:
 252:Generated_Source\PSoC5/isr_F2F_edge.c **** *   Address of the ISR in the interrupt vector table.
 253:Generated_Source\PSoC5/isr_F2F_edge.c **** *
 254:Generated_Source\PSoC5/isr_F2F_edge.c **** *******************************************************************************/
 255:Generated_Source\PSoC5/isr_F2F_edge.c **** cyisraddress isr_F2F_edge_GetVector(void)
 256:Generated_Source\PSoC5/isr_F2F_edge.c **** {
 283              		.loc 1 256 0
 284              		.cfi_startproc
 285              		@ args = 0, pretend = 0, frame = 8
 286              		@ frame_needed = 1, uses_anonymous_args = 0
 287              		@ link register save eliminated.
 288 0000 80B4     		push	{r7}
 289              		.cfi_def_cfa_offset 4
 290              		.cfi_offset 7, -4
 291 0002 83B0     		sub	sp, sp, #12
 292              		.cfi_def_cfa_offset 16
 293 0004 00AF     		add	r7, sp, #0
 294              		.cfi_def_cfa_register 7
 257:Generated_Source\PSoC5/isr_F2F_edge.c ****     cyisraddress * ramVectorTable;
 258:Generated_Source\PSoC5/isr_F2F_edge.c **** 
 259:Generated_Source\PSoC5/isr_F2F_edge.c ****     ramVectorTable = (cyisraddress *) *CYINT_VECT_TABLE;
 295              		.loc 1 259 0
 296 0006 054B     		ldr	r3, .L20
 297 0008 1B68     		ldr	r3, [r3]
 298 000a 7B60     		str	r3, [r7, #4]
 260:Generated_Source\PSoC5/isr_F2F_edge.c **** 
 261:Generated_Source\PSoC5/isr_F2F_edge.c ****     return ramVectorTable[CYINT_IRQ_BASE + (uint32)isr_F2F_edge__INTC_NUMBER];
 299              		.loc 1 261 0
 300 000c 7B68     		ldr	r3, [r7, #4]
 301 000e DB6D     		ldr	r3, [r3, #92]
 262:Generated_Source\PSoC5/isr_F2F_edge.c **** }
 302              		.loc 1 262 0
 303 0010 1846     		mov	r0, r3
 304 0012 0C37     		adds	r7, r7, #12
 305              		.cfi_def_cfa_offset 4
 306 0014 BD46     		mov	sp, r7
 307              		.cfi_def_cfa_register 13
 308              		@ sp needed
ARM GAS  C:\Users\Rajesh\AppData\Local\Temp\cc0PQonT.s 			page 11


 309 0016 80BC     		pop	{r7}
 310              		.cfi_restore 7
 311              		.cfi_def_cfa_offset 0
 312 0018 7047     		bx	lr
 313              	.L21:
 314 001a 00BF     		.align	2
 315              	.L20:
 316 001c 08ED00E0 		.word	-536810232
 317              		.cfi_endproc
 318              	.LFE68:
 319              		.size	isr_F2F_edge_GetVector, .-isr_F2F_edge_GetVector
 320              		.section	.text.isr_F2F_edge_SetPriority,"ax",%progbits
 321              		.align	2
 322              		.global	isr_F2F_edge_SetPriority
 323              		.thumb
 324              		.thumb_func
 325              		.type	isr_F2F_edge_SetPriority, %function
 326              	isr_F2F_edge_SetPriority:
 327              	.LFB69:
 263:Generated_Source\PSoC5/isr_F2F_edge.c **** 
 264:Generated_Source\PSoC5/isr_F2F_edge.c **** 
 265:Generated_Source\PSoC5/isr_F2F_edge.c **** /*******************************************************************************
 266:Generated_Source\PSoC5/isr_F2F_edge.c **** * Function Name: isr_F2F_edge_SetPriority
 267:Generated_Source\PSoC5/isr_F2F_edge.c **** ********************************************************************************
 268:Generated_Source\PSoC5/isr_F2F_edge.c **** *
 269:Generated_Source\PSoC5/isr_F2F_edge.c **** * Summary:
 270:Generated_Source\PSoC5/isr_F2F_edge.c **** *   Sets the Priority of the Interrupt. 
 271:Generated_Source\PSoC5/isr_F2F_edge.c **** *
 272:Generated_Source\PSoC5/isr_F2F_edge.c **** *   Note calling isr_F2F_edge_Start or isr_F2F_edge_StartEx will 
 273:Generated_Source\PSoC5/isr_F2F_edge.c **** *   override any effect this API would have had. This API should only be called
 274:Generated_Source\PSoC5/isr_F2F_edge.c **** *   after isr_F2F_edge_Start or isr_F2F_edge_StartEx has been called. 
 275:Generated_Source\PSoC5/isr_F2F_edge.c **** *   To set the initial priority for the component, use the Design-Wide Resources
 276:Generated_Source\PSoC5/isr_F2F_edge.c **** *   Interrupt Editor.
 277:Generated_Source\PSoC5/isr_F2F_edge.c **** *
 278:Generated_Source\PSoC5/isr_F2F_edge.c **** *   Note This API has no effect on Non-maskable interrupt NMI).
 279:Generated_Source\PSoC5/isr_F2F_edge.c **** *
 280:Generated_Source\PSoC5/isr_F2F_edge.c **** * Parameters:
 281:Generated_Source\PSoC5/isr_F2F_edge.c **** *   priority: Priority of the interrupt, 0 being the highest priority
 282:Generated_Source\PSoC5/isr_F2F_edge.c **** *             PSoC 3 and PSoC 5LP: Priority is from 0 to 7.
 283:Generated_Source\PSoC5/isr_F2F_edge.c **** *             PSoC 4: Priority is from 0 to 3.
 284:Generated_Source\PSoC5/isr_F2F_edge.c **** *
 285:Generated_Source\PSoC5/isr_F2F_edge.c **** * Return:
 286:Generated_Source\PSoC5/isr_F2F_edge.c **** *   None
 287:Generated_Source\PSoC5/isr_F2F_edge.c **** *
 288:Generated_Source\PSoC5/isr_F2F_edge.c **** *******************************************************************************/
 289:Generated_Source\PSoC5/isr_F2F_edge.c **** void isr_F2F_edge_SetPriority(uint8 priority)
 290:Generated_Source\PSoC5/isr_F2F_edge.c **** {
 328              		.loc 1 290 0
 329              		.cfi_startproc
 330              		@ args = 0, pretend = 0, frame = 8
 331              		@ frame_needed = 1, uses_anonymous_args = 0
 332              		@ link register save eliminated.
 333 0000 80B4     		push	{r7}
 334              		.cfi_def_cfa_offset 4
 335              		.cfi_offset 7, -4
 336 0002 83B0     		sub	sp, sp, #12
 337              		.cfi_def_cfa_offset 16
ARM GAS  C:\Users\Rajesh\AppData\Local\Temp\cc0PQonT.s 			page 12


 338 0004 00AF     		add	r7, sp, #0
 339              		.cfi_def_cfa_register 7
 340 0006 0346     		mov	r3, r0
 341 0008 FB71     		strb	r3, [r7, #7]
 291:Generated_Source\PSoC5/isr_F2F_edge.c ****     *isr_F2F_edge_INTC_PRIOR = priority << 5;
 342              		.loc 1 291 0
 343 000a 054A     		ldr	r2, .L23
 344 000c FB79     		ldrb	r3, [r7, #7]
 345 000e 5B01     		lsls	r3, r3, #5
 346 0010 DBB2     		uxtb	r3, r3
 347 0012 1370     		strb	r3, [r2]
 292:Generated_Source\PSoC5/isr_F2F_edge.c **** }
 348              		.loc 1 292 0
 349 0014 00BF     		nop
 350 0016 0C37     		adds	r7, r7, #12
 351              		.cfi_def_cfa_offset 4
 352 0018 BD46     		mov	sp, r7
 353              		.cfi_def_cfa_register 13
 354              		@ sp needed
 355 001a 80BC     		pop	{r7}
 356              		.cfi_restore 7
 357              		.cfi_def_cfa_offset 0
 358 001c 7047     		bx	lr
 359              	.L24:
 360 001e 00BF     		.align	2
 361              	.L23:
 362 0020 07E400E0 		.word	-536812537
 363              		.cfi_endproc
 364              	.LFE69:
 365              		.size	isr_F2F_edge_SetPriority, .-isr_F2F_edge_SetPriority
 366              		.section	.text.isr_F2F_edge_GetPriority,"ax",%progbits
 367              		.align	2
 368              		.global	isr_F2F_edge_GetPriority
 369              		.thumb
 370              		.thumb_func
 371              		.type	isr_F2F_edge_GetPriority, %function
 372              	isr_F2F_edge_GetPriority:
 373              	.LFB70:
 293:Generated_Source\PSoC5/isr_F2F_edge.c **** 
 294:Generated_Source\PSoC5/isr_F2F_edge.c **** 
 295:Generated_Source\PSoC5/isr_F2F_edge.c **** /*******************************************************************************
 296:Generated_Source\PSoC5/isr_F2F_edge.c **** * Function Name: isr_F2F_edge_GetPriority
 297:Generated_Source\PSoC5/isr_F2F_edge.c **** ********************************************************************************
 298:Generated_Source\PSoC5/isr_F2F_edge.c **** *
 299:Generated_Source\PSoC5/isr_F2F_edge.c **** * Summary:
 300:Generated_Source\PSoC5/isr_F2F_edge.c **** *   Gets the Priority of the Interrupt.
 301:Generated_Source\PSoC5/isr_F2F_edge.c **** *
 302:Generated_Source\PSoC5/isr_F2F_edge.c **** * Parameters:
 303:Generated_Source\PSoC5/isr_F2F_edge.c **** *   None
 304:Generated_Source\PSoC5/isr_F2F_edge.c **** *
 305:Generated_Source\PSoC5/isr_F2F_edge.c **** * Return:
 306:Generated_Source\PSoC5/isr_F2F_edge.c **** *   Priority of the interrupt, 0 being the highest priority
 307:Generated_Source\PSoC5/isr_F2F_edge.c **** *    PSoC 3 and PSoC 5LP: Priority is from 0 to 7.
 308:Generated_Source\PSoC5/isr_F2F_edge.c **** *    PSoC 4: Priority is from 0 to 3.
 309:Generated_Source\PSoC5/isr_F2F_edge.c **** *
 310:Generated_Source\PSoC5/isr_F2F_edge.c **** *******************************************************************************/
 311:Generated_Source\PSoC5/isr_F2F_edge.c **** uint8 isr_F2F_edge_GetPriority(void)
ARM GAS  C:\Users\Rajesh\AppData\Local\Temp\cc0PQonT.s 			page 13


 312:Generated_Source\PSoC5/isr_F2F_edge.c **** {
 374              		.loc 1 312 0
 375              		.cfi_startproc
 376              		@ args = 0, pretend = 0, frame = 8
 377              		@ frame_needed = 1, uses_anonymous_args = 0
 378              		@ link register save eliminated.
 379 0000 80B4     		push	{r7}
 380              		.cfi_def_cfa_offset 4
 381              		.cfi_offset 7, -4
 382 0002 83B0     		sub	sp, sp, #12
 383              		.cfi_def_cfa_offset 16
 384 0004 00AF     		add	r7, sp, #0
 385              		.cfi_def_cfa_register 7
 313:Generated_Source\PSoC5/isr_F2F_edge.c ****     uint8 priority;
 314:Generated_Source\PSoC5/isr_F2F_edge.c **** 
 315:Generated_Source\PSoC5/isr_F2F_edge.c **** 
 316:Generated_Source\PSoC5/isr_F2F_edge.c ****     priority = *isr_F2F_edge_INTC_PRIOR >> 5;
 386              		.loc 1 316 0
 387 0006 054B     		ldr	r3, .L27
 388 0008 1B78     		ldrb	r3, [r3]
 389 000a DBB2     		uxtb	r3, r3
 390 000c 5B09     		lsrs	r3, r3, #5
 391 000e FB71     		strb	r3, [r7, #7]
 317:Generated_Source\PSoC5/isr_F2F_edge.c **** 
 318:Generated_Source\PSoC5/isr_F2F_edge.c ****     return priority;
 392              		.loc 1 318 0
 393 0010 FB79     		ldrb	r3, [r7, #7]	@ zero_extendqisi2
 319:Generated_Source\PSoC5/isr_F2F_edge.c **** }
 394              		.loc 1 319 0
 395 0012 1846     		mov	r0, r3
 396 0014 0C37     		adds	r7, r7, #12
 397              		.cfi_def_cfa_offset 4
 398 0016 BD46     		mov	sp, r7
 399              		.cfi_def_cfa_register 13
 400              		@ sp needed
 401 0018 80BC     		pop	{r7}
 402              		.cfi_restore 7
 403              		.cfi_def_cfa_offset 0
 404 001a 7047     		bx	lr
 405              	.L28:
 406              		.align	2
 407              	.L27:
 408 001c 07E400E0 		.word	-536812537
 409              		.cfi_endproc
 410              	.LFE70:
 411              		.size	isr_F2F_edge_GetPriority, .-isr_F2F_edge_GetPriority
 412              		.section	.text.isr_F2F_edge_Enable,"ax",%progbits
 413              		.align	2
 414              		.global	isr_F2F_edge_Enable
 415              		.thumb
 416              		.thumb_func
 417              		.type	isr_F2F_edge_Enable, %function
 418              	isr_F2F_edge_Enable:
 419              	.LFB71:
 320:Generated_Source\PSoC5/isr_F2F_edge.c **** 
 321:Generated_Source\PSoC5/isr_F2F_edge.c **** 
 322:Generated_Source\PSoC5/isr_F2F_edge.c **** /*******************************************************************************
ARM GAS  C:\Users\Rajesh\AppData\Local\Temp\cc0PQonT.s 			page 14


 323:Generated_Source\PSoC5/isr_F2F_edge.c **** * Function Name: isr_F2F_edge_Enable
 324:Generated_Source\PSoC5/isr_F2F_edge.c **** ********************************************************************************
 325:Generated_Source\PSoC5/isr_F2F_edge.c **** *
 326:Generated_Source\PSoC5/isr_F2F_edge.c **** * Summary:
 327:Generated_Source\PSoC5/isr_F2F_edge.c **** *   Enables the interrupt to the interrupt controller. Do not call this function
 328:Generated_Source\PSoC5/isr_F2F_edge.c **** *   unless ISR_Start() has been called or the functionality of the ISR_Start() 
 329:Generated_Source\PSoC5/isr_F2F_edge.c **** *   function, which sets the vector and the priority, has been called.
 330:Generated_Source\PSoC5/isr_F2F_edge.c **** *
 331:Generated_Source\PSoC5/isr_F2F_edge.c **** * Parameters:
 332:Generated_Source\PSoC5/isr_F2F_edge.c **** *   None
 333:Generated_Source\PSoC5/isr_F2F_edge.c **** *
 334:Generated_Source\PSoC5/isr_F2F_edge.c **** * Return:
 335:Generated_Source\PSoC5/isr_F2F_edge.c **** *   None
 336:Generated_Source\PSoC5/isr_F2F_edge.c **** *
 337:Generated_Source\PSoC5/isr_F2F_edge.c **** *******************************************************************************/
 338:Generated_Source\PSoC5/isr_F2F_edge.c **** void isr_F2F_edge_Enable(void)
 339:Generated_Source\PSoC5/isr_F2F_edge.c **** {
 420              		.loc 1 339 0
 421              		.cfi_startproc
 422              		@ args = 0, pretend = 0, frame = 0
 423              		@ frame_needed = 1, uses_anonymous_args = 0
 424              		@ link register save eliminated.
 425 0000 80B4     		push	{r7}
 426              		.cfi_def_cfa_offset 4
 427              		.cfi_offset 7, -4
 428 0002 00AF     		add	r7, sp, #0
 429              		.cfi_def_cfa_register 7
 340:Generated_Source\PSoC5/isr_F2F_edge.c ****     /* Enable the general interrupt. */
 341:Generated_Source\PSoC5/isr_F2F_edge.c ****     *isr_F2F_edge_INTC_SET_EN = isr_F2F_edge__INTC_MASK;
 430              		.loc 1 341 0
 431 0004 034B     		ldr	r3, .L30
 432 0006 8022     		movs	r2, #128
 433 0008 1A60     		str	r2, [r3]
 342:Generated_Source\PSoC5/isr_F2F_edge.c **** }
 434              		.loc 1 342 0
 435 000a 00BF     		nop
 436 000c BD46     		mov	sp, r7
 437              		.cfi_def_cfa_register 13
 438              		@ sp needed
 439 000e 80BC     		pop	{r7}
 440              		.cfi_restore 7
 441              		.cfi_def_cfa_offset 0
 442 0010 7047     		bx	lr
 443              	.L31:
 444 0012 00BF     		.align	2
 445              	.L30:
 446 0014 00E100E0 		.word	-536813312
 447              		.cfi_endproc
 448              	.LFE71:
 449              		.size	isr_F2F_edge_Enable, .-isr_F2F_edge_Enable
 450              		.section	.text.isr_F2F_edge_GetState,"ax",%progbits
 451              		.align	2
 452              		.global	isr_F2F_edge_GetState
 453              		.thumb
 454              		.thumb_func
 455              		.type	isr_F2F_edge_GetState, %function
 456              	isr_F2F_edge_GetState:
ARM GAS  C:\Users\Rajesh\AppData\Local\Temp\cc0PQonT.s 			page 15


 457              	.LFB72:
 343:Generated_Source\PSoC5/isr_F2F_edge.c **** 
 344:Generated_Source\PSoC5/isr_F2F_edge.c **** 
 345:Generated_Source\PSoC5/isr_F2F_edge.c **** /*******************************************************************************
 346:Generated_Source\PSoC5/isr_F2F_edge.c **** * Function Name: isr_F2F_edge_GetState
 347:Generated_Source\PSoC5/isr_F2F_edge.c **** ********************************************************************************
 348:Generated_Source\PSoC5/isr_F2F_edge.c **** *
 349:Generated_Source\PSoC5/isr_F2F_edge.c **** * Summary:
 350:Generated_Source\PSoC5/isr_F2F_edge.c **** *   Gets the state (enabled, disabled) of the Interrupt.
 351:Generated_Source\PSoC5/isr_F2F_edge.c **** *
 352:Generated_Source\PSoC5/isr_F2F_edge.c **** * Parameters:
 353:Generated_Source\PSoC5/isr_F2F_edge.c **** *   None
 354:Generated_Source\PSoC5/isr_F2F_edge.c **** *
 355:Generated_Source\PSoC5/isr_F2F_edge.c **** * Return:
 356:Generated_Source\PSoC5/isr_F2F_edge.c **** *   1 if enabled, 0 if disabled.
 357:Generated_Source\PSoC5/isr_F2F_edge.c **** *
 358:Generated_Source\PSoC5/isr_F2F_edge.c **** *******************************************************************************/
 359:Generated_Source\PSoC5/isr_F2F_edge.c **** uint8 isr_F2F_edge_GetState(void)
 360:Generated_Source\PSoC5/isr_F2F_edge.c **** {
 458              		.loc 1 360 0
 459              		.cfi_startproc
 460              		@ args = 0, pretend = 0, frame = 0
 461              		@ frame_needed = 1, uses_anonymous_args = 0
 462              		@ link register save eliminated.
 463 0000 80B4     		push	{r7}
 464              		.cfi_def_cfa_offset 4
 465              		.cfi_offset 7, -4
 466 0002 00AF     		add	r7, sp, #0
 467              		.cfi_def_cfa_register 7
 361:Generated_Source\PSoC5/isr_F2F_edge.c ****     /* Get the state of the general interrupt. */
 362:Generated_Source\PSoC5/isr_F2F_edge.c ****     return ((*isr_F2F_edge_INTC_SET_EN & (uint32)isr_F2F_edge__INTC_MASK) != 0u) ? 1u:0u;
 468              		.loc 1 362 0
 469 0004 064B     		ldr	r3, .L36
 470 0006 1B68     		ldr	r3, [r3]
 471 0008 03F08003 		and	r3, r3, #128
 472 000c 002B     		cmp	r3, #0
 473 000e 01D0     		beq	.L33
 474              		.loc 1 362 0 is_stmt 0 discriminator 1
 475 0010 0123     		movs	r3, #1
 476 0012 00E0     		b	.L34
 477              	.L33:
 478              		.loc 1 362 0 discriminator 2
 479 0014 0023     		movs	r3, #0
 480              	.L34:
 363:Generated_Source\PSoC5/isr_F2F_edge.c **** }
 481              		.loc 1 363 0 is_stmt 1 discriminator 4
 482 0016 1846     		mov	r0, r3
 483 0018 BD46     		mov	sp, r7
 484              		.cfi_def_cfa_register 13
 485              		@ sp needed
 486 001a 80BC     		pop	{r7}
 487              		.cfi_restore 7
 488              		.cfi_def_cfa_offset 0
 489 001c 7047     		bx	lr
 490              	.L37:
 491 001e 00BF     		.align	2
 492              	.L36:
ARM GAS  C:\Users\Rajesh\AppData\Local\Temp\cc0PQonT.s 			page 16


 493 0020 00E100E0 		.word	-536813312
 494              		.cfi_endproc
 495              	.LFE72:
 496              		.size	isr_F2F_edge_GetState, .-isr_F2F_edge_GetState
 497              		.section	.text.isr_F2F_edge_Disable,"ax",%progbits
 498              		.align	2
 499              		.global	isr_F2F_edge_Disable
 500              		.thumb
 501              		.thumb_func
 502              		.type	isr_F2F_edge_Disable, %function
 503              	isr_F2F_edge_Disable:
 504              	.LFB73:
 364:Generated_Source\PSoC5/isr_F2F_edge.c **** 
 365:Generated_Source\PSoC5/isr_F2F_edge.c **** 
 366:Generated_Source\PSoC5/isr_F2F_edge.c **** /*******************************************************************************
 367:Generated_Source\PSoC5/isr_F2F_edge.c **** * Function Name: isr_F2F_edge_Disable
 368:Generated_Source\PSoC5/isr_F2F_edge.c **** ********************************************************************************
 369:Generated_Source\PSoC5/isr_F2F_edge.c **** *
 370:Generated_Source\PSoC5/isr_F2F_edge.c **** * Summary:
 371:Generated_Source\PSoC5/isr_F2F_edge.c **** *   Disables the Interrupt in the interrupt controller.
 372:Generated_Source\PSoC5/isr_F2F_edge.c **** *
 373:Generated_Source\PSoC5/isr_F2F_edge.c **** * Parameters:
 374:Generated_Source\PSoC5/isr_F2F_edge.c **** *   None
 375:Generated_Source\PSoC5/isr_F2F_edge.c **** *
 376:Generated_Source\PSoC5/isr_F2F_edge.c **** * Return:
 377:Generated_Source\PSoC5/isr_F2F_edge.c **** *   None
 378:Generated_Source\PSoC5/isr_F2F_edge.c **** *
 379:Generated_Source\PSoC5/isr_F2F_edge.c **** *******************************************************************************/
 380:Generated_Source\PSoC5/isr_F2F_edge.c **** void isr_F2F_edge_Disable(void)
 381:Generated_Source\PSoC5/isr_F2F_edge.c **** {
 505              		.loc 1 381 0
 506              		.cfi_startproc
 507              		@ args = 0, pretend = 0, frame = 0
 508              		@ frame_needed = 1, uses_anonymous_args = 0
 509              		@ link register save eliminated.
 510 0000 80B4     		push	{r7}
 511              		.cfi_def_cfa_offset 4
 512              		.cfi_offset 7, -4
 513 0002 00AF     		add	r7, sp, #0
 514              		.cfi_def_cfa_register 7
 382:Generated_Source\PSoC5/isr_F2F_edge.c ****     /* Disable the general interrupt. */
 383:Generated_Source\PSoC5/isr_F2F_edge.c ****     *isr_F2F_edge_INTC_CLR_EN = isr_F2F_edge__INTC_MASK;
 515              		.loc 1 383 0
 516 0004 034B     		ldr	r3, .L39
 517 0006 8022     		movs	r2, #128
 518 0008 1A60     		str	r2, [r3]
 384:Generated_Source\PSoC5/isr_F2F_edge.c **** }
 519              		.loc 1 384 0
 520 000a 00BF     		nop
 521 000c BD46     		mov	sp, r7
 522              		.cfi_def_cfa_register 13
 523              		@ sp needed
 524 000e 80BC     		pop	{r7}
 525              		.cfi_restore 7
 526              		.cfi_def_cfa_offset 0
 527 0010 7047     		bx	lr
 528              	.L40:
ARM GAS  C:\Users\Rajesh\AppData\Local\Temp\cc0PQonT.s 			page 17


 529 0012 00BF     		.align	2
 530              	.L39:
 531 0014 80E100E0 		.word	-536813184
 532              		.cfi_endproc
 533              	.LFE73:
 534              		.size	isr_F2F_edge_Disable, .-isr_F2F_edge_Disable
 535              		.section	.text.isr_F2F_edge_SetPending,"ax",%progbits
 536              		.align	2
 537              		.global	isr_F2F_edge_SetPending
 538              		.thumb
 539              		.thumb_func
 540              		.type	isr_F2F_edge_SetPending, %function
 541              	isr_F2F_edge_SetPending:
 542              	.LFB74:
 385:Generated_Source\PSoC5/isr_F2F_edge.c **** 
 386:Generated_Source\PSoC5/isr_F2F_edge.c **** 
 387:Generated_Source\PSoC5/isr_F2F_edge.c **** /*******************************************************************************
 388:Generated_Source\PSoC5/isr_F2F_edge.c **** * Function Name: isr_F2F_edge_SetPending
 389:Generated_Source\PSoC5/isr_F2F_edge.c **** ********************************************************************************
 390:Generated_Source\PSoC5/isr_F2F_edge.c **** *
 391:Generated_Source\PSoC5/isr_F2F_edge.c **** * Summary:
 392:Generated_Source\PSoC5/isr_F2F_edge.c **** *   Causes the Interrupt to enter the pending state, a software method of
 393:Generated_Source\PSoC5/isr_F2F_edge.c **** *   generating the interrupt.
 394:Generated_Source\PSoC5/isr_F2F_edge.c **** *
 395:Generated_Source\PSoC5/isr_F2F_edge.c **** * Parameters:
 396:Generated_Source\PSoC5/isr_F2F_edge.c **** *   None
 397:Generated_Source\PSoC5/isr_F2F_edge.c **** *
 398:Generated_Source\PSoC5/isr_F2F_edge.c **** * Return:
 399:Generated_Source\PSoC5/isr_F2F_edge.c **** *   None
 400:Generated_Source\PSoC5/isr_F2F_edge.c **** *
 401:Generated_Source\PSoC5/isr_F2F_edge.c **** * Side Effects:
 402:Generated_Source\PSoC5/isr_F2F_edge.c **** *   If interrupts are enabled and the interrupt is set up properly, the ISR is
 403:Generated_Source\PSoC5/isr_F2F_edge.c **** *   entered (depending on the priority of this interrupt and other pending 
 404:Generated_Source\PSoC5/isr_F2F_edge.c **** *   interrupts).
 405:Generated_Source\PSoC5/isr_F2F_edge.c **** *
 406:Generated_Source\PSoC5/isr_F2F_edge.c **** *******************************************************************************/
 407:Generated_Source\PSoC5/isr_F2F_edge.c **** void isr_F2F_edge_SetPending(void)
 408:Generated_Source\PSoC5/isr_F2F_edge.c **** {
 543              		.loc 1 408 0
 544              		.cfi_startproc
 545              		@ args = 0, pretend = 0, frame = 0
 546              		@ frame_needed = 1, uses_anonymous_args = 0
 547              		@ link register save eliminated.
 548 0000 80B4     		push	{r7}
 549              		.cfi_def_cfa_offset 4
 550              		.cfi_offset 7, -4
 551 0002 00AF     		add	r7, sp, #0
 552              		.cfi_def_cfa_register 7
 409:Generated_Source\PSoC5/isr_F2F_edge.c ****     *isr_F2F_edge_INTC_SET_PD = isr_F2F_edge__INTC_MASK;
 553              		.loc 1 409 0
 554 0004 034B     		ldr	r3, .L42
 555 0006 8022     		movs	r2, #128
 556 0008 1A60     		str	r2, [r3]
 410:Generated_Source\PSoC5/isr_F2F_edge.c **** }
 557              		.loc 1 410 0
 558 000a 00BF     		nop
 559 000c BD46     		mov	sp, r7
ARM GAS  C:\Users\Rajesh\AppData\Local\Temp\cc0PQonT.s 			page 18


 560              		.cfi_def_cfa_register 13
 561              		@ sp needed
 562 000e 80BC     		pop	{r7}
 563              		.cfi_restore 7
 564              		.cfi_def_cfa_offset 0
 565 0010 7047     		bx	lr
 566              	.L43:
 567 0012 00BF     		.align	2
 568              	.L42:
 569 0014 00E200E0 		.word	-536813056
 570              		.cfi_endproc
 571              	.LFE74:
 572              		.size	isr_F2F_edge_SetPending, .-isr_F2F_edge_SetPending
 573              		.section	.text.isr_F2F_edge_ClearPending,"ax",%progbits
 574              		.align	2
 575              		.global	isr_F2F_edge_ClearPending
 576              		.thumb
 577              		.thumb_func
 578              		.type	isr_F2F_edge_ClearPending, %function
 579              	isr_F2F_edge_ClearPending:
 580              	.LFB75:
 411:Generated_Source\PSoC5/isr_F2F_edge.c **** 
 412:Generated_Source\PSoC5/isr_F2F_edge.c **** 
 413:Generated_Source\PSoC5/isr_F2F_edge.c **** /*******************************************************************************
 414:Generated_Source\PSoC5/isr_F2F_edge.c **** * Function Name: isr_F2F_edge_ClearPending
 415:Generated_Source\PSoC5/isr_F2F_edge.c **** ********************************************************************************
 416:Generated_Source\PSoC5/isr_F2F_edge.c **** *
 417:Generated_Source\PSoC5/isr_F2F_edge.c **** * Summary:
 418:Generated_Source\PSoC5/isr_F2F_edge.c **** *   Clears a pending interrupt in the interrupt controller.
 419:Generated_Source\PSoC5/isr_F2F_edge.c **** *
 420:Generated_Source\PSoC5/isr_F2F_edge.c **** *   Note Some interrupt sources are clear-on-read and require the block 
 421:Generated_Source\PSoC5/isr_F2F_edge.c **** *   interrupt/status register to be read/cleared with the appropriate block API 
 422:Generated_Source\PSoC5/isr_F2F_edge.c **** *   (GPIO, UART, and so on). Otherwise the ISR will continue to remain in 
 423:Generated_Source\PSoC5/isr_F2F_edge.c **** *   pending state even though the interrupt itself is cleared using this API.
 424:Generated_Source\PSoC5/isr_F2F_edge.c **** *
 425:Generated_Source\PSoC5/isr_F2F_edge.c **** * Parameters:
 426:Generated_Source\PSoC5/isr_F2F_edge.c **** *   None
 427:Generated_Source\PSoC5/isr_F2F_edge.c **** *
 428:Generated_Source\PSoC5/isr_F2F_edge.c **** * Return:
 429:Generated_Source\PSoC5/isr_F2F_edge.c **** *   None
 430:Generated_Source\PSoC5/isr_F2F_edge.c **** *
 431:Generated_Source\PSoC5/isr_F2F_edge.c **** *******************************************************************************/
 432:Generated_Source\PSoC5/isr_F2F_edge.c **** void isr_F2F_edge_ClearPending(void)
 433:Generated_Source\PSoC5/isr_F2F_edge.c **** {
 581              		.loc 1 433 0
 582              		.cfi_startproc
 583              		@ args = 0, pretend = 0, frame = 0
 584              		@ frame_needed = 1, uses_anonymous_args = 0
 585              		@ link register save eliminated.
 586 0000 80B4     		push	{r7}
 587              		.cfi_def_cfa_offset 4
 588              		.cfi_offset 7, -4
 589 0002 00AF     		add	r7, sp, #0
 590              		.cfi_def_cfa_register 7
 434:Generated_Source\PSoC5/isr_F2F_edge.c ****     *isr_F2F_edge_INTC_CLR_PD = isr_F2F_edge__INTC_MASK;
 591              		.loc 1 434 0
 592 0004 034B     		ldr	r3, .L45
ARM GAS  C:\Users\Rajesh\AppData\Local\Temp\cc0PQonT.s 			page 19


 593 0006 8022     		movs	r2, #128
 594 0008 1A60     		str	r2, [r3]
 435:Generated_Source\PSoC5/isr_F2F_edge.c **** }
 595              		.loc 1 435 0
 596 000a 00BF     		nop
 597 000c BD46     		mov	sp, r7
 598              		.cfi_def_cfa_register 13
 599              		@ sp needed
 600 000e 80BC     		pop	{r7}
 601              		.cfi_restore 7
 602              		.cfi_def_cfa_offset 0
 603 0010 7047     		bx	lr
 604              	.L46:
 605 0012 00BF     		.align	2
 606              	.L45:
 607 0014 80E200E0 		.word	-536812928
 608              		.cfi_endproc
 609              	.LFE75:
 610              		.size	isr_F2F_edge_ClearPending, .-isr_F2F_edge_ClearPending
 611              		.text
 612              	.Letext0:
 613              		.file 2 "c:\\program files (x86)\\cypress\\psoc creator\\4.2\\psoc creator\\import\\gnu\\arm\\5.4.
 614              		.file 3 "c:\\program files (x86)\\cypress\\psoc creator\\4.2\\psoc creator\\import\\gnu\\arm\\5.4.
 615              		.file 4 "Generated_Source\\PSoC5/cytypes.h"
 616              		.file 5 "./softuart.h"
 617              		.file 6 "Generated_Source\\PSoC5/core_cm3.h"
 618              		.file 7 "./system.h"