ARM GAS  C:\Users\ilya\AppData\Local\Temp\ccFODQoR.s 			page 1


   1              		.syntax unified
   2              		.cpu cortex-m3
   3              		.fpu softvfp
   4              		.eabi_attribute 20, 1
   5              		.eabi_attribute 21, 1
   6              		.eabi_attribute 23, 3
   7              		.eabi_attribute 24, 1
   8              		.eabi_attribute 25, 1
   9              		.eabi_attribute 26, 1
  10              		.eabi_attribute 30, 6
  11              		.eabi_attribute 34, 1
  12              		.eabi_attribute 18, 4
  13              		.thumb
  14              		.syntax unified
  15              		.file	"isr_WD_SYNC.c"
  16              		.text
  17              	.Ltext0:
  18              		.cfi_sections	.debug_frame
  19              		.comm	s,40,4
  20              		.comm	currentAccessType,1,1
  21              		.comm	hw_old,1,1
  22              		.comm	tp_old,1,1
  23              		.comm	tamperCR_polarity,4,4
  24              		.comm	tamper_out_polarity,4,4
  25              		.comm	card_ack,4,4
  26              		.comm	card_in_buf,4,4
  27              		.comm	isWiegandDataReady,1,1
  28              		.comm	isWiegandDataStart,1,1
  29              		.comm	wiegandByteCount,4,4
  30              		.comm	wiegandBuffer,30,4
  31              		.comm	wiegandBitCount,4,4
  32              		.comm	testBitCount,4,4
  33              		.section	.text.isr_WD_SYNC_Start,"ax",%progbits
  34              		.align	2
  35              		.global	isr_WD_SYNC_Start
  36              		.thumb
  37              		.thumb_func
  38              		.type	isr_WD_SYNC_Start, %function
  39              	isr_WD_SYNC_Start:
  40              	.LFB63:
  41              		.file 1 "Generated_Source\\PSoC5\\isr_WD_SYNC.c"
   1:Generated_Source\PSoC5/isr_WD_SYNC.c **** /*******************************************************************************
   2:Generated_Source\PSoC5/isr_WD_SYNC.c **** * File Name: isr_WD_SYNC.c  
   3:Generated_Source\PSoC5/isr_WD_SYNC.c **** * Version 1.70
   4:Generated_Source\PSoC5/isr_WD_SYNC.c **** *
   5:Generated_Source\PSoC5/isr_WD_SYNC.c **** *  Description:
   6:Generated_Source\PSoC5/isr_WD_SYNC.c **** *   API for controlling the state of an interrupt.
   7:Generated_Source\PSoC5/isr_WD_SYNC.c **** *
   8:Generated_Source\PSoC5/isr_WD_SYNC.c **** *
   9:Generated_Source\PSoC5/isr_WD_SYNC.c **** *  Note:
  10:Generated_Source\PSoC5/isr_WD_SYNC.c **** *
  11:Generated_Source\PSoC5/isr_WD_SYNC.c **** ********************************************************************************
  12:Generated_Source\PSoC5/isr_WD_SYNC.c **** * Copyright 2008-2015, Cypress Semiconductor Corporation.  All rights reserved.
  13:Generated_Source\PSoC5/isr_WD_SYNC.c **** * You may use this file only in accordance with the license, terms, conditions, 
  14:Generated_Source\PSoC5/isr_WD_SYNC.c **** * disclaimers, and limitations in the end user license agreement accompanying 
  15:Generated_Source\PSoC5/isr_WD_SYNC.c **** * the software package with which this file was provided.
  16:Generated_Source\PSoC5/isr_WD_SYNC.c **** *******************************************************************************/
ARM GAS  C:\Users\ilya\AppData\Local\Temp\ccFODQoR.s 			page 2


  17:Generated_Source\PSoC5/isr_WD_SYNC.c **** 
  18:Generated_Source\PSoC5/isr_WD_SYNC.c **** 
  19:Generated_Source\PSoC5/isr_WD_SYNC.c **** #include <cydevice_trm.h>
  20:Generated_Source\PSoC5/isr_WD_SYNC.c **** #include <CyLib.h>
  21:Generated_Source\PSoC5/isr_WD_SYNC.c **** #include <isr_WD_SYNC.h>
  22:Generated_Source\PSoC5/isr_WD_SYNC.c **** 
  23:Generated_Source\PSoC5/isr_WD_SYNC.c **** 
  24:Generated_Source\PSoC5/isr_WD_SYNC.c **** #if !defined(isr_WD_SYNC__REMOVED) /* Check for removal by optimization */
  25:Generated_Source\PSoC5/isr_WD_SYNC.c **** 
  26:Generated_Source\PSoC5/isr_WD_SYNC.c **** /*******************************************************************************
  27:Generated_Source\PSoC5/isr_WD_SYNC.c **** *  Place your includes, defines and code here 
  28:Generated_Source\PSoC5/isr_WD_SYNC.c **** ********************************************************************************/
  29:Generated_Source\PSoC5/isr_WD_SYNC.c **** /* `#START isr_WD_SYNC_intc` */
  30:Generated_Source\PSoC5/isr_WD_SYNC.c **** #include "system.h"
  31:Generated_Source\PSoC5/isr_WD_SYNC.c **** char isWiegandDataReady;
  32:Generated_Source\PSoC5/isr_WD_SYNC.c **** char isWiegandDataStart;
  33:Generated_Source\PSoC5/isr_WD_SYNC.c **** int wiegandByteCount;
  34:Generated_Source\PSoC5/isr_WD_SYNC.c **** unsigned char wiegandBuffer[WIEGAND_BUFFER_LENGTH];
  35:Generated_Source\PSoC5/isr_WD_SYNC.c **** int wiegandBitCount;
  36:Generated_Source\PSoC5/isr_WD_SYNC.c **** char isWiegandDataReady;
  37:Generated_Source\PSoC5/isr_WD_SYNC.c **** int testBitCount;
  38:Generated_Source\PSoC5/isr_WD_SYNC.c **** 
  39:Generated_Source\PSoC5/isr_WD_SYNC.c **** 
  40:Generated_Source\PSoC5/isr_WD_SYNC.c **** /* `#END` */
  41:Generated_Source\PSoC5/isr_WD_SYNC.c **** 
  42:Generated_Source\PSoC5/isr_WD_SYNC.c **** #ifndef CYINT_IRQ_BASE
  43:Generated_Source\PSoC5/isr_WD_SYNC.c **** #define CYINT_IRQ_BASE      16
  44:Generated_Source\PSoC5/isr_WD_SYNC.c **** #endif /* CYINT_IRQ_BASE */
  45:Generated_Source\PSoC5/isr_WD_SYNC.c **** #ifndef CYINT_VECT_TABLE
  46:Generated_Source\PSoC5/isr_WD_SYNC.c **** #define CYINT_VECT_TABLE    ((cyisraddress **) CYREG_NVIC_VECT_OFFSET)
  47:Generated_Source\PSoC5/isr_WD_SYNC.c **** #endif /* CYINT_VECT_TABLE */
  48:Generated_Source\PSoC5/isr_WD_SYNC.c **** 
  49:Generated_Source\PSoC5/isr_WD_SYNC.c **** /* Declared in startup, used to set unused interrupts to. */
  50:Generated_Source\PSoC5/isr_WD_SYNC.c **** CY_ISR_PROTO(IntDefaultHandler);
  51:Generated_Source\PSoC5/isr_WD_SYNC.c **** 
  52:Generated_Source\PSoC5/isr_WD_SYNC.c **** 
  53:Generated_Source\PSoC5/isr_WD_SYNC.c **** /*******************************************************************************
  54:Generated_Source\PSoC5/isr_WD_SYNC.c **** * Function Name: isr_WD_SYNC_Start
  55:Generated_Source\PSoC5/isr_WD_SYNC.c **** ********************************************************************************
  56:Generated_Source\PSoC5/isr_WD_SYNC.c **** *
  57:Generated_Source\PSoC5/isr_WD_SYNC.c **** * Summary:
  58:Generated_Source\PSoC5/isr_WD_SYNC.c **** *  Set up the interrupt and enable it. This function disables the interrupt, 
  59:Generated_Source\PSoC5/isr_WD_SYNC.c **** *  sets the default interrupt vector, sets the priority from the value in the
  60:Generated_Source\PSoC5/isr_WD_SYNC.c **** *  Design Wide Resources Interrupt Editor, then enables the interrupt to the 
  61:Generated_Source\PSoC5/isr_WD_SYNC.c **** *  interrupt controller.
  62:Generated_Source\PSoC5/isr_WD_SYNC.c **** *
  63:Generated_Source\PSoC5/isr_WD_SYNC.c **** * Parameters:  
  64:Generated_Source\PSoC5/isr_WD_SYNC.c **** *   None
  65:Generated_Source\PSoC5/isr_WD_SYNC.c **** *
  66:Generated_Source\PSoC5/isr_WD_SYNC.c **** * Return:
  67:Generated_Source\PSoC5/isr_WD_SYNC.c **** *   None
  68:Generated_Source\PSoC5/isr_WD_SYNC.c **** *
  69:Generated_Source\PSoC5/isr_WD_SYNC.c **** *******************************************************************************/
  70:Generated_Source\PSoC5/isr_WD_SYNC.c **** void isr_WD_SYNC_Start(void)
  71:Generated_Source\PSoC5/isr_WD_SYNC.c **** {
  42              		.loc 1 71 0
  43              		.cfi_startproc
ARM GAS  C:\Users\ilya\AppData\Local\Temp\ccFODQoR.s 			page 3


  44              		@ args = 0, pretend = 0, frame = 0
  45              		@ frame_needed = 1, uses_anonymous_args = 0
  46 0000 80B5     		push	{r7, lr}
  47              		.cfi_def_cfa_offset 8
  48              		.cfi_offset 7, -8
  49              		.cfi_offset 14, -4
  50 0002 00AF     		add	r7, sp, #0
  51              		.cfi_def_cfa_register 7
  72:Generated_Source\PSoC5/isr_WD_SYNC.c ****     /* For all we know the interrupt is active. */
  73:Generated_Source\PSoC5/isr_WD_SYNC.c ****     isr_WD_SYNC_Disable();
  52              		.loc 1 73 0
  53 0004 FFF7FEFF 		bl	isr_WD_SYNC_Disable
  74:Generated_Source\PSoC5/isr_WD_SYNC.c **** 
  75:Generated_Source\PSoC5/isr_WD_SYNC.c ****     /* Set the ISR to point to the isr_WD_SYNC Interrupt. */
  76:Generated_Source\PSoC5/isr_WD_SYNC.c ****     isr_WD_SYNC_SetVector(&isr_WD_SYNC_Interrupt);
  54              		.loc 1 76 0
  55 0008 0448     		ldr	r0, .L2
  56 000a FFF7FEFF 		bl	isr_WD_SYNC_SetVector
  77:Generated_Source\PSoC5/isr_WD_SYNC.c **** 
  78:Generated_Source\PSoC5/isr_WD_SYNC.c ****     /* Set the priority. */
  79:Generated_Source\PSoC5/isr_WD_SYNC.c ****     isr_WD_SYNC_SetPriority((uint8)isr_WD_SYNC_INTC_PRIOR_NUMBER);
  57              		.loc 1 79 0
  58 000e 0720     		movs	r0, #7
  59 0010 FFF7FEFF 		bl	isr_WD_SYNC_SetPriority
  80:Generated_Source\PSoC5/isr_WD_SYNC.c **** 
  81:Generated_Source\PSoC5/isr_WD_SYNC.c ****     /* Enable it. */
  82:Generated_Source\PSoC5/isr_WD_SYNC.c ****     isr_WD_SYNC_Enable();
  60              		.loc 1 82 0
  61 0014 FFF7FEFF 		bl	isr_WD_SYNC_Enable
  83:Generated_Source\PSoC5/isr_WD_SYNC.c **** }
  62              		.loc 1 83 0
  63 0018 00BF     		nop
  64 001a 80BD     		pop	{r7, pc}
  65              	.L3:
  66              		.align	2
  67              	.L2:
  68 001c 00000000 		.word	isr_WD_SYNC_Interrupt
  69              		.cfi_endproc
  70              	.LFE63:
  71              		.size	isr_WD_SYNC_Start, .-isr_WD_SYNC_Start
  72              		.section	.text.isr_WD_SYNC_StartEx,"ax",%progbits
  73              		.align	2
  74              		.global	isr_WD_SYNC_StartEx
  75              		.thumb
  76              		.thumb_func
  77              		.type	isr_WD_SYNC_StartEx, %function
  78              	isr_WD_SYNC_StartEx:
  79              	.LFB64:
  84:Generated_Source\PSoC5/isr_WD_SYNC.c **** 
  85:Generated_Source\PSoC5/isr_WD_SYNC.c **** 
  86:Generated_Source\PSoC5/isr_WD_SYNC.c **** /*******************************************************************************
  87:Generated_Source\PSoC5/isr_WD_SYNC.c **** * Function Name: isr_WD_SYNC_StartEx
  88:Generated_Source\PSoC5/isr_WD_SYNC.c **** ********************************************************************************
  89:Generated_Source\PSoC5/isr_WD_SYNC.c **** *
  90:Generated_Source\PSoC5/isr_WD_SYNC.c **** * Summary:
  91:Generated_Source\PSoC5/isr_WD_SYNC.c **** *  Sets up the interrupt and enables it. This function disables the interrupt,
  92:Generated_Source\PSoC5/isr_WD_SYNC.c **** *  sets the interrupt vector based on the address passed in, sets the priority 
ARM GAS  C:\Users\ilya\AppData\Local\Temp\ccFODQoR.s 			page 4


  93:Generated_Source\PSoC5/isr_WD_SYNC.c **** *  from the value in the Design Wide Resources Interrupt Editor, then enables 
  94:Generated_Source\PSoC5/isr_WD_SYNC.c **** *  the interrupt to the interrupt controller.
  95:Generated_Source\PSoC5/isr_WD_SYNC.c **** *  
  96:Generated_Source\PSoC5/isr_WD_SYNC.c **** *  When defining ISR functions, the CY_ISR and CY_ISR_PROTO macros should be 
  97:Generated_Source\PSoC5/isr_WD_SYNC.c **** *  used to provide consistent definition across compilers:
  98:Generated_Source\PSoC5/isr_WD_SYNC.c **** *  
  99:Generated_Source\PSoC5/isr_WD_SYNC.c **** *  Function definition example:
 100:Generated_Source\PSoC5/isr_WD_SYNC.c **** *   CY_ISR(MyISR)
 101:Generated_Source\PSoC5/isr_WD_SYNC.c **** *   {
 102:Generated_Source\PSoC5/isr_WD_SYNC.c **** *   }
 103:Generated_Source\PSoC5/isr_WD_SYNC.c **** *   Function prototype example:
 104:Generated_Source\PSoC5/isr_WD_SYNC.c **** *   CY_ISR_PROTO(MyISR);
 105:Generated_Source\PSoC5/isr_WD_SYNC.c **** *
 106:Generated_Source\PSoC5/isr_WD_SYNC.c **** * Parameters:  
 107:Generated_Source\PSoC5/isr_WD_SYNC.c **** *   address: Address of the ISR to set in the interrupt vector table.
 108:Generated_Source\PSoC5/isr_WD_SYNC.c **** *
 109:Generated_Source\PSoC5/isr_WD_SYNC.c **** * Return:
 110:Generated_Source\PSoC5/isr_WD_SYNC.c **** *   None
 111:Generated_Source\PSoC5/isr_WD_SYNC.c **** *
 112:Generated_Source\PSoC5/isr_WD_SYNC.c **** *******************************************************************************/
 113:Generated_Source\PSoC5/isr_WD_SYNC.c **** void isr_WD_SYNC_StartEx(cyisraddress address)
 114:Generated_Source\PSoC5/isr_WD_SYNC.c **** {
  80              		.loc 1 114 0
  81              		.cfi_startproc
  82              		@ args = 0, pretend = 0, frame = 8
  83              		@ frame_needed = 1, uses_anonymous_args = 0
  84 0000 80B5     		push	{r7, lr}
  85              		.cfi_def_cfa_offset 8
  86              		.cfi_offset 7, -8
  87              		.cfi_offset 14, -4
  88 0002 82B0     		sub	sp, sp, #8
  89              		.cfi_def_cfa_offset 16
  90 0004 00AF     		add	r7, sp, #0
  91              		.cfi_def_cfa_register 7
  92 0006 7860     		str	r0, [r7, #4]
 115:Generated_Source\PSoC5/isr_WD_SYNC.c ****     /* For all we know the interrupt is active. */
 116:Generated_Source\PSoC5/isr_WD_SYNC.c ****     isr_WD_SYNC_Disable();
  93              		.loc 1 116 0
  94 0008 FFF7FEFF 		bl	isr_WD_SYNC_Disable
 117:Generated_Source\PSoC5/isr_WD_SYNC.c **** 
 118:Generated_Source\PSoC5/isr_WD_SYNC.c ****     /* Set the ISR to point to the isr_WD_SYNC Interrupt. */
 119:Generated_Source\PSoC5/isr_WD_SYNC.c ****     isr_WD_SYNC_SetVector(address);
  95              		.loc 1 119 0
  96 000c 7868     		ldr	r0, [r7, #4]
  97 000e FFF7FEFF 		bl	isr_WD_SYNC_SetVector
 120:Generated_Source\PSoC5/isr_WD_SYNC.c **** 
 121:Generated_Source\PSoC5/isr_WD_SYNC.c ****     /* Set the priority. */
 122:Generated_Source\PSoC5/isr_WD_SYNC.c ****     isr_WD_SYNC_SetPriority((uint8)isr_WD_SYNC_INTC_PRIOR_NUMBER);
  98              		.loc 1 122 0
  99 0012 0720     		movs	r0, #7
 100 0014 FFF7FEFF 		bl	isr_WD_SYNC_SetPriority
 123:Generated_Source\PSoC5/isr_WD_SYNC.c **** 
 124:Generated_Source\PSoC5/isr_WD_SYNC.c ****     /* Enable it. */
 125:Generated_Source\PSoC5/isr_WD_SYNC.c ****     isr_WD_SYNC_Enable();
 101              		.loc 1 125 0
 102 0018 FFF7FEFF 		bl	isr_WD_SYNC_Enable
 126:Generated_Source\PSoC5/isr_WD_SYNC.c **** }
ARM GAS  C:\Users\ilya\AppData\Local\Temp\ccFODQoR.s 			page 5


 103              		.loc 1 126 0
 104 001c 00BF     		nop
 105 001e 0837     		adds	r7, r7, #8
 106              		.cfi_def_cfa_offset 8
 107 0020 BD46     		mov	sp, r7
 108              		.cfi_def_cfa_register 13
 109              		@ sp needed
 110 0022 80BD     		pop	{r7, pc}
 111              		.cfi_endproc
 112              	.LFE64:
 113              		.size	isr_WD_SYNC_StartEx, .-isr_WD_SYNC_StartEx
 114              		.section	.text.isr_WD_SYNC_Stop,"ax",%progbits
 115              		.align	2
 116              		.global	isr_WD_SYNC_Stop
 117              		.thumb
 118              		.thumb_func
 119              		.type	isr_WD_SYNC_Stop, %function
 120              	isr_WD_SYNC_Stop:
 121              	.LFB65:
 127:Generated_Source\PSoC5/isr_WD_SYNC.c **** 
 128:Generated_Source\PSoC5/isr_WD_SYNC.c **** 
 129:Generated_Source\PSoC5/isr_WD_SYNC.c **** /*******************************************************************************
 130:Generated_Source\PSoC5/isr_WD_SYNC.c **** * Function Name: isr_WD_SYNC_Stop
 131:Generated_Source\PSoC5/isr_WD_SYNC.c **** ********************************************************************************
 132:Generated_Source\PSoC5/isr_WD_SYNC.c **** *
 133:Generated_Source\PSoC5/isr_WD_SYNC.c **** * Summary:
 134:Generated_Source\PSoC5/isr_WD_SYNC.c **** *   Disables and removes the interrupt.
 135:Generated_Source\PSoC5/isr_WD_SYNC.c **** *
 136:Generated_Source\PSoC5/isr_WD_SYNC.c **** * Parameters:  
 137:Generated_Source\PSoC5/isr_WD_SYNC.c **** *   None
 138:Generated_Source\PSoC5/isr_WD_SYNC.c **** *
 139:Generated_Source\PSoC5/isr_WD_SYNC.c **** * Return:
 140:Generated_Source\PSoC5/isr_WD_SYNC.c **** *   None
 141:Generated_Source\PSoC5/isr_WD_SYNC.c **** *
 142:Generated_Source\PSoC5/isr_WD_SYNC.c **** *******************************************************************************/
 143:Generated_Source\PSoC5/isr_WD_SYNC.c **** void isr_WD_SYNC_Stop(void)
 144:Generated_Source\PSoC5/isr_WD_SYNC.c **** {
 122              		.loc 1 144 0
 123              		.cfi_startproc
 124              		@ args = 0, pretend = 0, frame = 0
 125              		@ frame_needed = 1, uses_anonymous_args = 0
 126 0000 80B5     		push	{r7, lr}
 127              		.cfi_def_cfa_offset 8
 128              		.cfi_offset 7, -8
 129              		.cfi_offset 14, -4
 130 0002 00AF     		add	r7, sp, #0
 131              		.cfi_def_cfa_register 7
 145:Generated_Source\PSoC5/isr_WD_SYNC.c ****     /* Disable this interrupt. */
 146:Generated_Source\PSoC5/isr_WD_SYNC.c ****     isr_WD_SYNC_Disable();
 132              		.loc 1 146 0
 133 0004 FFF7FEFF 		bl	isr_WD_SYNC_Disable
 147:Generated_Source\PSoC5/isr_WD_SYNC.c **** 
 148:Generated_Source\PSoC5/isr_WD_SYNC.c ****     /* Set the ISR to point to the passive one. */
 149:Generated_Source\PSoC5/isr_WD_SYNC.c ****     isr_WD_SYNC_SetVector(&IntDefaultHandler);
 134              		.loc 1 149 0
 135 0008 0248     		ldr	r0, .L6
 136 000a FFF7FEFF 		bl	isr_WD_SYNC_SetVector
ARM GAS  C:\Users\ilya\AppData\Local\Temp\ccFODQoR.s 			page 6


 150:Generated_Source\PSoC5/isr_WD_SYNC.c **** }
 137              		.loc 1 150 0
 138 000e 00BF     		nop
 139 0010 80BD     		pop	{r7, pc}
 140              	.L7:
 141 0012 00BF     		.align	2
 142              	.L6:
 143 0014 00000000 		.word	IntDefaultHandler
 144              		.cfi_endproc
 145              	.LFE65:
 146              		.size	isr_WD_SYNC_Stop, .-isr_WD_SYNC_Stop
 147              		.section	.text.isr_WD_SYNC_Interrupt,"ax",%progbits
 148              		.align	2
 149              		.global	isr_WD_SYNC_Interrupt
 150              		.thumb
 151              		.thumb_func
 152              		.type	isr_WD_SYNC_Interrupt, %function
 153              	isr_WD_SYNC_Interrupt:
 154              	.LFB66:
 151:Generated_Source\PSoC5/isr_WD_SYNC.c **** 
 152:Generated_Source\PSoC5/isr_WD_SYNC.c **** 
 153:Generated_Source\PSoC5/isr_WD_SYNC.c **** /*******************************************************************************
 154:Generated_Source\PSoC5/isr_WD_SYNC.c **** * Function Name: isr_WD_SYNC_Interrupt
 155:Generated_Source\PSoC5/isr_WD_SYNC.c **** ********************************************************************************
 156:Generated_Source\PSoC5/isr_WD_SYNC.c **** *
 157:Generated_Source\PSoC5/isr_WD_SYNC.c **** * Summary:
 158:Generated_Source\PSoC5/isr_WD_SYNC.c **** *   The default Interrupt Service Routine for isr_WD_SYNC.
 159:Generated_Source\PSoC5/isr_WD_SYNC.c **** *
 160:Generated_Source\PSoC5/isr_WD_SYNC.c **** *   Add custom code between the coments to keep the next version of this file
 161:Generated_Source\PSoC5/isr_WD_SYNC.c **** *   from over writting your code.
 162:Generated_Source\PSoC5/isr_WD_SYNC.c **** *
 163:Generated_Source\PSoC5/isr_WD_SYNC.c **** * Parameters:  
 164:Generated_Source\PSoC5/isr_WD_SYNC.c **** *
 165:Generated_Source\PSoC5/isr_WD_SYNC.c **** * Return:
 166:Generated_Source\PSoC5/isr_WD_SYNC.c **** *   None
 167:Generated_Source\PSoC5/isr_WD_SYNC.c **** *
 168:Generated_Source\PSoC5/isr_WD_SYNC.c **** *******************************************************************************/
 169:Generated_Source\PSoC5/isr_WD_SYNC.c **** CY_ISR(isr_WD_SYNC_Interrupt)
 170:Generated_Source\PSoC5/isr_WD_SYNC.c **** {
 155              		.loc 1 170 0
 156              		.cfi_startproc
 157              		@ args = 0, pretend = 0, frame = 8
 158              		@ frame_needed = 1, uses_anonymous_args = 0
 159 0000 80B5     		push	{r7, lr}
 160              		.cfi_def_cfa_offset 8
 161              		.cfi_offset 7, -8
 162              		.cfi_offset 14, -4
 163 0002 82B0     		sub	sp, sp, #8
 164              		.cfi_def_cfa_offset 16
 165 0004 00AF     		add	r7, sp, #0
 166              		.cfi_def_cfa_register 7
 171:Generated_Source\PSoC5/isr_WD_SYNC.c ****     #ifdef isr_WD_SYNC_INTERRUPT_INTERRUPT_CALLBACK
 172:Generated_Source\PSoC5/isr_WD_SYNC.c ****         isr_WD_SYNC_Interrupt_InterruptCallback();
 173:Generated_Source\PSoC5/isr_WD_SYNC.c ****     #endif /* isr_WD_SYNC_INTERRUPT_INTERRUPT_CALLBACK */ 
 174:Generated_Source\PSoC5/isr_WD_SYNC.c **** 
 175:Generated_Source\PSoC5/isr_WD_SYNC.c ****     /*  Place your Interrupt code here. */
 176:Generated_Source\PSoC5/isr_WD_SYNC.c ****     /* `#START isr_WD_SYNC_Interrupt` */
ARM GAS  C:\Users\ilya\AppData\Local\Temp\ccFODQoR.s 			page 7


 177:Generated_Source\PSoC5/isr_WD_SYNC.c ****     Timeout_Timer_Isr_Disable();
 167              		.loc 1 177 0
 168 0006 FFF7FEFF 		bl	Timeout_Timer_Isr_Disable
 178:Generated_Source\PSoC5/isr_WD_SYNC.c ****     passmode_timeout = 0;
 169              		.loc 1 178 0
 170 000a 2F4B     		ldr	r3, .L14
 171 000c 0022     		movs	r2, #0
 172 000e 1A60     		str	r2, [r3]
 179:Generated_Source\PSoC5/isr_WD_SYNC.c ****     Timeout_Timer_Isr_Enable();
 173              		.loc 1 179 0
 174 0010 FFF7FEFF 		bl	Timeout_Timer_Isr_Enable
 180:Generated_Source\PSoC5/isr_WD_SYNC.c ****     isWiegandDataStart = 1;
 175              		.loc 1 180 0
 176 0014 2D4B     		ldr	r3, .L14+4
 177 0016 0122     		movs	r2, #1
 178 0018 1A70     		strb	r2, [r3]
 181:Generated_Source\PSoC5/isr_WD_SYNC.c **** 
 182:Generated_Source\PSoC5/isr_WD_SYNC.c ****     if(isWiegandDataReady){
 179              		.loc 1 182 0
 180 001a 2D4B     		ldr	r3, .L14+8
 181 001c 1B78     		ldrb	r3, [r3]	@ zero_extendqisi2
 182 001e 002B     		cmp	r3, #0
 183 0020 08D0     		beq	.L9
 183:Generated_Source\PSoC5/isr_WD_SYNC.c ****         testBitCount = 0;
 184              		.loc 1 183 0
 185 0022 2C4B     		ldr	r3, .L14+12
 186 0024 0022     		movs	r2, #0
 187 0026 1A60     		str	r2, [r3]
 184:Generated_Source\PSoC5/isr_WD_SYNC.c ****         wiegandByteCount = 0;
 188              		.loc 1 184 0
 189 0028 2B4B     		ldr	r3, .L14+16
 190 002a 0022     		movs	r2, #0
 191 002c 1A60     		str	r2, [r3]
 185:Generated_Source\PSoC5/isr_WD_SYNC.c ****         isWiegandDataReady = 0;
 192              		.loc 1 185 0
 193 002e 284B     		ldr	r3, .L14+8
 194 0030 0022     		movs	r2, #0
 195 0032 1A70     		strb	r2, [r3]
 196              	.L9:
 186:Generated_Source\PSoC5/isr_WD_SYNC.c ****     }
 187:Generated_Source\PSoC5/isr_WD_SYNC.c ****     char WBit = 0;
 197              		.loc 1 187 0
 198 0034 0023     		movs	r3, #0
 199 0036 FB71     		strb	r3, [r7, #7]
 188:Generated_Source\PSoC5/isr_WD_SYNC.c **** 
 189:Generated_Source\PSoC5/isr_WD_SYNC.c ****     
 190:Generated_Source\PSoC5/isr_WD_SYNC.c ****     WBit = Pin_WD1_Read();
 200              		.loc 1 190 0
 201 0038 FFF7FEFF 		bl	Pin_WD1_Read
 202 003c 0346     		mov	r3, r0
 203 003e FB71     		strb	r3, [r7, #7]
 191:Generated_Source\PSoC5/isr_WD_SYNC.c ****     if(WBit == Pin_WD1_Read()){
 204              		.loc 1 191 0
 205 0040 FFF7FEFF 		bl	Pin_WD1_Read
 206 0044 0346     		mov	r3, r0
 207 0046 1A46     		mov	r2, r3
 208 0048 FB79     		ldrb	r3, [r7, #7]	@ zero_extendqisi2
ARM GAS  C:\Users\ilya\AppData\Local\Temp\ccFODQoR.s 			page 8


 209 004a 9342     		cmp	r3, r2
 210 004c 37D1     		bne	.L13
 192:Generated_Source\PSoC5/isr_WD_SYNC.c ****         if(WBit == 0){
 211              		.loc 1 192 0
 212 004e FB79     		ldrb	r3, [r7, #7]	@ zero_extendqisi2
 213 0050 002B     		cmp	r3, #0
 214 0052 19D1     		bne	.L11
 193:Generated_Source\PSoC5/isr_WD_SYNC.c ****             wiegandBuffer[wiegandByteCount] |= (0x01 << (7-testBitCount));  //write a 1 to current 
 215              		.loc 1 193 0
 216 0054 204B     		ldr	r3, .L14+16
 217 0056 1B68     		ldr	r3, [r3]
 218 0058 1F4A     		ldr	r2, .L14+16
 219 005a 1268     		ldr	r2, [r2]
 220 005c 1F49     		ldr	r1, .L14+20
 221 005e 8A5C     		ldrb	r2, [r1, r2]	@ zero_extendqisi2
 222 0060 51B2     		sxtb	r1, r2
 223 0062 1C4A     		ldr	r2, .L14+12
 224 0064 1268     		ldr	r2, [r2]
 225 0066 C2F10702 		rsb	r2, r2, #7
 226 006a 0120     		movs	r0, #1
 227 006c 00FA02F2 		lsl	r2, r0, r2
 228 0070 52B2     		sxtb	r2, r2
 229 0072 0A43     		orrs	r2, r2, r1
 230 0074 52B2     		sxtb	r2, r2
 231 0076 D1B2     		uxtb	r1, r2
 232 0078 184A     		ldr	r2, .L14+20
 233 007a D154     		strb	r1, [r2, r3]
 194:Generated_Source\PSoC5/isr_WD_SYNC.c ****             testBitCount ++;
 234              		.loc 1 194 0
 235 007c 154B     		ldr	r3, .L14+12
 236 007e 1B68     		ldr	r3, [r3]
 237 0080 0133     		adds	r3, r3, #1
 238 0082 144A     		ldr	r2, .L14+12
 239 0084 1360     		str	r3, [r2]
 240 0086 04E0     		b	.L12
 241              	.L11:
 195:Generated_Source\PSoC5/isr_WD_SYNC.c ****         } else testBitCount ++;
 242              		.loc 1 195 0
 243 0088 124B     		ldr	r3, .L14+12
 244 008a 1B68     		ldr	r3, [r3]
 245 008c 0133     		adds	r3, r3, #1
 246 008e 114A     		ldr	r2, .L14+12
 247 0090 1360     		str	r3, [r2]
 248              	.L12:
 196:Generated_Source\PSoC5/isr_WD_SYNC.c ****         wiegandBitCount ++;
 249              		.loc 1 196 0
 250 0092 134B     		ldr	r3, .L14+24
 251 0094 1B68     		ldr	r3, [r3]
 252 0096 0133     		adds	r3, r3, #1
 253 0098 114A     		ldr	r2, .L14+24
 254 009a 1360     		str	r3, [r2]
 197:Generated_Source\PSoC5/isr_WD_SYNC.c ****         if(testBitCount > 7){
 255              		.loc 1 197 0
 256 009c 0D4B     		ldr	r3, .L14+12
 257 009e 1B68     		ldr	r3, [r3]
 258 00a0 072B     		cmp	r3, #7
 259 00a2 0CDD     		ble	.L13
ARM GAS  C:\Users\ilya\AppData\Local\Temp\ccFODQoR.s 			page 9


 198:Generated_Source\PSoC5/isr_WD_SYNC.c ****             testBitCount = 0;
 260              		.loc 1 198 0
 261 00a4 0B4B     		ldr	r3, .L14+12
 262 00a6 0022     		movs	r2, #0
 263 00a8 1A60     		str	r2, [r3]
 199:Generated_Source\PSoC5/isr_WD_SYNC.c ****             wiegandByteCount ++;
 264              		.loc 1 199 0
 265 00aa 0B4B     		ldr	r3, .L14+16
 266 00ac 1B68     		ldr	r3, [r3]
 267 00ae 0133     		adds	r3, r3, #1
 268 00b0 094A     		ldr	r2, .L14+16
 269 00b2 1360     		str	r3, [r2]
 200:Generated_Source\PSoC5/isr_WD_SYNC.c ****             wiegandBuffer[wiegandByteCount] = 0;
 270              		.loc 1 200 0
 271 00b4 084B     		ldr	r3, .L14+16
 272 00b6 1B68     		ldr	r3, [r3]
 273 00b8 084A     		ldr	r2, .L14+20
 274 00ba 0021     		movs	r1, #0
 275 00bc D154     		strb	r1, [r2, r3]
 276              	.L13:
 201:Generated_Source\PSoC5/isr_WD_SYNC.c ****         }
 202:Generated_Source\PSoC5/isr_WD_SYNC.c ****     } 
 203:Generated_Source\PSoC5/isr_WD_SYNC.c **** 
 204:Generated_Source\PSoC5/isr_WD_SYNC.c ****     
 205:Generated_Source\PSoC5/isr_WD_SYNC.c **** 
 206:Generated_Source\PSoC5/isr_WD_SYNC.c ****     /* `#END` */
 207:Generated_Source\PSoC5/isr_WD_SYNC.c **** }
 277              		.loc 1 207 0
 278 00be 00BF     		nop
 279 00c0 0837     		adds	r7, r7, #8
 280              		.cfi_def_cfa_offset 8
 281 00c2 BD46     		mov	sp, r7
 282              		.cfi_def_cfa_register 13
 283              		@ sp needed
 284 00c4 80BD     		pop	{r7, pc}
 285              	.L15:
 286 00c6 00BF     		.align	2
 287              	.L14:
 288 00c8 00000000 		.word	passmode_timeout
 289 00cc 00000000 		.word	isWiegandDataStart
 290 00d0 00000000 		.word	isWiegandDataReady
 291 00d4 00000000 		.word	testBitCount
 292 00d8 00000000 		.word	wiegandByteCount
 293 00dc 00000000 		.word	wiegandBuffer
 294 00e0 00000000 		.word	wiegandBitCount
 295              		.cfi_endproc
 296              	.LFE66:
 297              		.size	isr_WD_SYNC_Interrupt, .-isr_WD_SYNC_Interrupt
 298              		.section	.text.isr_WD_SYNC_SetVector,"ax",%progbits
 299              		.align	2
 300              		.global	isr_WD_SYNC_SetVector
 301              		.thumb
 302              		.thumb_func
 303              		.type	isr_WD_SYNC_SetVector, %function
 304              	isr_WD_SYNC_SetVector:
 305              	.LFB67:
 208:Generated_Source\PSoC5/isr_WD_SYNC.c **** 
ARM GAS  C:\Users\ilya\AppData\Local\Temp\ccFODQoR.s 			page 10


 209:Generated_Source\PSoC5/isr_WD_SYNC.c **** 
 210:Generated_Source\PSoC5/isr_WD_SYNC.c **** /*******************************************************************************
 211:Generated_Source\PSoC5/isr_WD_SYNC.c **** * Function Name: isr_WD_SYNC_SetVector
 212:Generated_Source\PSoC5/isr_WD_SYNC.c **** ********************************************************************************
 213:Generated_Source\PSoC5/isr_WD_SYNC.c **** *
 214:Generated_Source\PSoC5/isr_WD_SYNC.c **** * Summary:
 215:Generated_Source\PSoC5/isr_WD_SYNC.c **** *   Change the ISR vector for the Interrupt. Note calling isr_WD_SYNC_Start
 216:Generated_Source\PSoC5/isr_WD_SYNC.c **** *   will override any effect this method would have had. To set the vector 
 217:Generated_Source\PSoC5/isr_WD_SYNC.c **** *   before the component has been started use isr_WD_SYNC_StartEx instead.
 218:Generated_Source\PSoC5/isr_WD_SYNC.c **** * 
 219:Generated_Source\PSoC5/isr_WD_SYNC.c **** *   When defining ISR functions, the CY_ISR and CY_ISR_PROTO macros should be 
 220:Generated_Source\PSoC5/isr_WD_SYNC.c **** *   used to provide consistent definition across compilers:
 221:Generated_Source\PSoC5/isr_WD_SYNC.c **** *
 222:Generated_Source\PSoC5/isr_WD_SYNC.c **** *   Function definition example:
 223:Generated_Source\PSoC5/isr_WD_SYNC.c **** *   CY_ISR(MyISR)
 224:Generated_Source\PSoC5/isr_WD_SYNC.c **** *   {
 225:Generated_Source\PSoC5/isr_WD_SYNC.c **** *   }
 226:Generated_Source\PSoC5/isr_WD_SYNC.c **** *
 227:Generated_Source\PSoC5/isr_WD_SYNC.c **** *   Function prototype example:
 228:Generated_Source\PSoC5/isr_WD_SYNC.c **** *     CY_ISR_PROTO(MyISR);
 229:Generated_Source\PSoC5/isr_WD_SYNC.c **** *
 230:Generated_Source\PSoC5/isr_WD_SYNC.c **** * Parameters:
 231:Generated_Source\PSoC5/isr_WD_SYNC.c **** *   address: Address of the ISR to set in the interrupt vector table.
 232:Generated_Source\PSoC5/isr_WD_SYNC.c **** *
 233:Generated_Source\PSoC5/isr_WD_SYNC.c **** * Return:
 234:Generated_Source\PSoC5/isr_WD_SYNC.c **** *   None
 235:Generated_Source\PSoC5/isr_WD_SYNC.c **** *
 236:Generated_Source\PSoC5/isr_WD_SYNC.c **** *******************************************************************************/
 237:Generated_Source\PSoC5/isr_WD_SYNC.c **** void isr_WD_SYNC_SetVector(cyisraddress address)
 238:Generated_Source\PSoC5/isr_WD_SYNC.c **** {
 306              		.loc 1 238 0
 307              		.cfi_startproc
 308              		@ args = 0, pretend = 0, frame = 16
 309              		@ frame_needed = 1, uses_anonymous_args = 0
 310              		@ link register save eliminated.
 311 0000 80B4     		push	{r7}
 312              		.cfi_def_cfa_offset 4
 313              		.cfi_offset 7, -4
 314 0002 85B0     		sub	sp, sp, #20
 315              		.cfi_def_cfa_offset 24
 316 0004 00AF     		add	r7, sp, #0
 317              		.cfi_def_cfa_register 7
 318 0006 7860     		str	r0, [r7, #4]
 239:Generated_Source\PSoC5/isr_WD_SYNC.c ****     cyisraddress * ramVectorTable;
 240:Generated_Source\PSoC5/isr_WD_SYNC.c **** 
 241:Generated_Source\PSoC5/isr_WD_SYNC.c ****     ramVectorTable = (cyisraddress *) *CYINT_VECT_TABLE;
 319              		.loc 1 241 0
 320 0008 054B     		ldr	r3, .L17
 321 000a 1B68     		ldr	r3, [r3]
 322 000c FB60     		str	r3, [r7, #12]
 242:Generated_Source\PSoC5/isr_WD_SYNC.c **** 
 243:Generated_Source\PSoC5/isr_WD_SYNC.c ****     ramVectorTable[CYINT_IRQ_BASE + (uint32)isr_WD_SYNC__INTC_NUMBER] = address;
 323              		.loc 1 243 0
 324 000e FB68     		ldr	r3, [r7, #12]
 325 0010 6C33     		adds	r3, r3, #108
 326 0012 7A68     		ldr	r2, [r7, #4]
 327 0014 1A60     		str	r2, [r3]
ARM GAS  C:\Users\ilya\AppData\Local\Temp\ccFODQoR.s 			page 11


 244:Generated_Source\PSoC5/isr_WD_SYNC.c **** }
 328              		.loc 1 244 0
 329 0016 00BF     		nop
 330 0018 1437     		adds	r7, r7, #20
 331              		.cfi_def_cfa_offset 4
 332 001a BD46     		mov	sp, r7
 333              		.cfi_def_cfa_register 13
 334              		@ sp needed
 335 001c 80BC     		pop	{r7}
 336              		.cfi_restore 7
 337              		.cfi_def_cfa_offset 0
 338 001e 7047     		bx	lr
 339              	.L18:
 340              		.align	2
 341              	.L17:
 342 0020 08ED00E0 		.word	-536810232
 343              		.cfi_endproc
 344              	.LFE67:
 345              		.size	isr_WD_SYNC_SetVector, .-isr_WD_SYNC_SetVector
 346              		.section	.text.isr_WD_SYNC_GetVector,"ax",%progbits
 347              		.align	2
 348              		.global	isr_WD_SYNC_GetVector
 349              		.thumb
 350              		.thumb_func
 351              		.type	isr_WD_SYNC_GetVector, %function
 352              	isr_WD_SYNC_GetVector:
 353              	.LFB68:
 245:Generated_Source\PSoC5/isr_WD_SYNC.c **** 
 246:Generated_Source\PSoC5/isr_WD_SYNC.c **** 
 247:Generated_Source\PSoC5/isr_WD_SYNC.c **** /*******************************************************************************
 248:Generated_Source\PSoC5/isr_WD_SYNC.c **** * Function Name: isr_WD_SYNC_GetVector
 249:Generated_Source\PSoC5/isr_WD_SYNC.c **** ********************************************************************************
 250:Generated_Source\PSoC5/isr_WD_SYNC.c **** *
 251:Generated_Source\PSoC5/isr_WD_SYNC.c **** * Summary:
 252:Generated_Source\PSoC5/isr_WD_SYNC.c **** *   Gets the "address" of the current ISR vector for the Interrupt.
 253:Generated_Source\PSoC5/isr_WD_SYNC.c **** *
 254:Generated_Source\PSoC5/isr_WD_SYNC.c **** * Parameters:
 255:Generated_Source\PSoC5/isr_WD_SYNC.c **** *   None
 256:Generated_Source\PSoC5/isr_WD_SYNC.c **** *
 257:Generated_Source\PSoC5/isr_WD_SYNC.c **** * Return:
 258:Generated_Source\PSoC5/isr_WD_SYNC.c **** *   Address of the ISR in the interrupt vector table.
 259:Generated_Source\PSoC5/isr_WD_SYNC.c **** *
 260:Generated_Source\PSoC5/isr_WD_SYNC.c **** *******************************************************************************/
 261:Generated_Source\PSoC5/isr_WD_SYNC.c **** cyisraddress isr_WD_SYNC_GetVector(void)
 262:Generated_Source\PSoC5/isr_WD_SYNC.c **** {
 354              		.loc 1 262 0
 355              		.cfi_startproc
 356              		@ args = 0, pretend = 0, frame = 8
 357              		@ frame_needed = 1, uses_anonymous_args = 0
 358              		@ link register save eliminated.
 359 0000 80B4     		push	{r7}
 360              		.cfi_def_cfa_offset 4
 361              		.cfi_offset 7, -4
 362 0002 83B0     		sub	sp, sp, #12
 363              		.cfi_def_cfa_offset 16
 364 0004 00AF     		add	r7, sp, #0
 365              		.cfi_def_cfa_register 7
ARM GAS  C:\Users\ilya\AppData\Local\Temp\ccFODQoR.s 			page 12


 263:Generated_Source\PSoC5/isr_WD_SYNC.c ****     cyisraddress * ramVectorTable;
 264:Generated_Source\PSoC5/isr_WD_SYNC.c **** 
 265:Generated_Source\PSoC5/isr_WD_SYNC.c ****     ramVectorTable = (cyisraddress *) *CYINT_VECT_TABLE;
 366              		.loc 1 265 0
 367 0006 054B     		ldr	r3, .L21
 368 0008 1B68     		ldr	r3, [r3]
 369 000a 7B60     		str	r3, [r7, #4]
 266:Generated_Source\PSoC5/isr_WD_SYNC.c **** 
 267:Generated_Source\PSoC5/isr_WD_SYNC.c ****     return ramVectorTable[CYINT_IRQ_BASE + (uint32)isr_WD_SYNC__INTC_NUMBER];
 370              		.loc 1 267 0
 371 000c 7B68     		ldr	r3, [r7, #4]
 372 000e DB6E     		ldr	r3, [r3, #108]
 268:Generated_Source\PSoC5/isr_WD_SYNC.c **** }
 373              		.loc 1 268 0
 374 0010 1846     		mov	r0, r3
 375 0012 0C37     		adds	r7, r7, #12
 376              		.cfi_def_cfa_offset 4
 377 0014 BD46     		mov	sp, r7
 378              		.cfi_def_cfa_register 13
 379              		@ sp needed
 380 0016 80BC     		pop	{r7}
 381              		.cfi_restore 7
 382              		.cfi_def_cfa_offset 0
 383 0018 7047     		bx	lr
 384              	.L22:
 385 001a 00BF     		.align	2
 386              	.L21:
 387 001c 08ED00E0 		.word	-536810232
 388              		.cfi_endproc
 389              	.LFE68:
 390              		.size	isr_WD_SYNC_GetVector, .-isr_WD_SYNC_GetVector
 391              		.section	.text.isr_WD_SYNC_SetPriority,"ax",%progbits
 392              		.align	2
 393              		.global	isr_WD_SYNC_SetPriority
 394              		.thumb
 395              		.thumb_func
 396              		.type	isr_WD_SYNC_SetPriority, %function
 397              	isr_WD_SYNC_SetPriority:
 398              	.LFB69:
 269:Generated_Source\PSoC5/isr_WD_SYNC.c **** 
 270:Generated_Source\PSoC5/isr_WD_SYNC.c **** 
 271:Generated_Source\PSoC5/isr_WD_SYNC.c **** /*******************************************************************************
 272:Generated_Source\PSoC5/isr_WD_SYNC.c **** * Function Name: isr_WD_SYNC_SetPriority
 273:Generated_Source\PSoC5/isr_WD_SYNC.c **** ********************************************************************************
 274:Generated_Source\PSoC5/isr_WD_SYNC.c **** *
 275:Generated_Source\PSoC5/isr_WD_SYNC.c **** * Summary:
 276:Generated_Source\PSoC5/isr_WD_SYNC.c **** *   Sets the Priority of the Interrupt. 
 277:Generated_Source\PSoC5/isr_WD_SYNC.c **** *
 278:Generated_Source\PSoC5/isr_WD_SYNC.c **** *   Note calling isr_WD_SYNC_Start or isr_WD_SYNC_StartEx will 
 279:Generated_Source\PSoC5/isr_WD_SYNC.c **** *   override any effect this API would have had. This API should only be called
 280:Generated_Source\PSoC5/isr_WD_SYNC.c **** *   after isr_WD_SYNC_Start or isr_WD_SYNC_StartEx has been called. 
 281:Generated_Source\PSoC5/isr_WD_SYNC.c **** *   To set the initial priority for the component, use the Design-Wide Resources
 282:Generated_Source\PSoC5/isr_WD_SYNC.c **** *   Interrupt Editor.
 283:Generated_Source\PSoC5/isr_WD_SYNC.c **** *
 284:Generated_Source\PSoC5/isr_WD_SYNC.c **** *   Note This API has no effect on Non-maskable interrupt NMI).
 285:Generated_Source\PSoC5/isr_WD_SYNC.c **** *
 286:Generated_Source\PSoC5/isr_WD_SYNC.c **** * Parameters:
ARM GAS  C:\Users\ilya\AppData\Local\Temp\ccFODQoR.s 			page 13


 287:Generated_Source\PSoC5/isr_WD_SYNC.c **** *   priority: Priority of the interrupt, 0 being the highest priority
 288:Generated_Source\PSoC5/isr_WD_SYNC.c **** *             PSoC 3 and PSoC 5LP: Priority is from 0 to 7.
 289:Generated_Source\PSoC5/isr_WD_SYNC.c **** *             PSoC 4: Priority is from 0 to 3.
 290:Generated_Source\PSoC5/isr_WD_SYNC.c **** *
 291:Generated_Source\PSoC5/isr_WD_SYNC.c **** * Return:
 292:Generated_Source\PSoC5/isr_WD_SYNC.c **** *   None
 293:Generated_Source\PSoC5/isr_WD_SYNC.c **** *
 294:Generated_Source\PSoC5/isr_WD_SYNC.c **** *******************************************************************************/
 295:Generated_Source\PSoC5/isr_WD_SYNC.c **** void isr_WD_SYNC_SetPriority(uint8 priority)
 296:Generated_Source\PSoC5/isr_WD_SYNC.c **** {
 399              		.loc 1 296 0
 400              		.cfi_startproc
 401              		@ args = 0, pretend = 0, frame = 8
 402              		@ frame_needed = 1, uses_anonymous_args = 0
 403              		@ link register save eliminated.
 404 0000 80B4     		push	{r7}
 405              		.cfi_def_cfa_offset 4
 406              		.cfi_offset 7, -4
 407 0002 83B0     		sub	sp, sp, #12
 408              		.cfi_def_cfa_offset 16
 409 0004 00AF     		add	r7, sp, #0
 410              		.cfi_def_cfa_register 7
 411 0006 0346     		mov	r3, r0
 412 0008 FB71     		strb	r3, [r7, #7]
 297:Generated_Source\PSoC5/isr_WD_SYNC.c ****     *isr_WD_SYNC_INTC_PRIOR = priority << 5;
 413              		.loc 1 297 0
 414 000a 054A     		ldr	r2, .L24
 415 000c FB79     		ldrb	r3, [r7, #7]
 416 000e 5B01     		lsls	r3, r3, #5
 417 0010 DBB2     		uxtb	r3, r3
 418 0012 1370     		strb	r3, [r2]
 298:Generated_Source\PSoC5/isr_WD_SYNC.c **** }
 419              		.loc 1 298 0
 420 0014 00BF     		nop
 421 0016 0C37     		adds	r7, r7, #12
 422              		.cfi_def_cfa_offset 4
 423 0018 BD46     		mov	sp, r7
 424              		.cfi_def_cfa_register 13
 425              		@ sp needed
 426 001a 80BC     		pop	{r7}
 427              		.cfi_restore 7
 428              		.cfi_def_cfa_offset 0
 429 001c 7047     		bx	lr
 430              	.L25:
 431 001e 00BF     		.align	2
 432              	.L24:
 433 0020 0BE400E0 		.word	-536812533
 434              		.cfi_endproc
 435              	.LFE69:
 436              		.size	isr_WD_SYNC_SetPriority, .-isr_WD_SYNC_SetPriority
 437              		.section	.text.isr_WD_SYNC_GetPriority,"ax",%progbits
 438              		.align	2
 439              		.global	isr_WD_SYNC_GetPriority
 440              		.thumb
 441              		.thumb_func
 442              		.type	isr_WD_SYNC_GetPriority, %function
 443              	isr_WD_SYNC_GetPriority:
ARM GAS  C:\Users\ilya\AppData\Local\Temp\ccFODQoR.s 			page 14


 444              	.LFB70:
 299:Generated_Source\PSoC5/isr_WD_SYNC.c **** 
 300:Generated_Source\PSoC5/isr_WD_SYNC.c **** 
 301:Generated_Source\PSoC5/isr_WD_SYNC.c **** /*******************************************************************************
 302:Generated_Source\PSoC5/isr_WD_SYNC.c **** * Function Name: isr_WD_SYNC_GetPriority
 303:Generated_Source\PSoC5/isr_WD_SYNC.c **** ********************************************************************************
 304:Generated_Source\PSoC5/isr_WD_SYNC.c **** *
 305:Generated_Source\PSoC5/isr_WD_SYNC.c **** * Summary:
 306:Generated_Source\PSoC5/isr_WD_SYNC.c **** *   Gets the Priority of the Interrupt.
 307:Generated_Source\PSoC5/isr_WD_SYNC.c **** *
 308:Generated_Source\PSoC5/isr_WD_SYNC.c **** * Parameters:
 309:Generated_Source\PSoC5/isr_WD_SYNC.c **** *   None
 310:Generated_Source\PSoC5/isr_WD_SYNC.c **** *
 311:Generated_Source\PSoC5/isr_WD_SYNC.c **** * Return:
 312:Generated_Source\PSoC5/isr_WD_SYNC.c **** *   Priority of the interrupt, 0 being the highest priority
 313:Generated_Source\PSoC5/isr_WD_SYNC.c **** *    PSoC 3 and PSoC 5LP: Priority is from 0 to 7.
 314:Generated_Source\PSoC5/isr_WD_SYNC.c **** *    PSoC 4: Priority is from 0 to 3.
 315:Generated_Source\PSoC5/isr_WD_SYNC.c **** *
 316:Generated_Source\PSoC5/isr_WD_SYNC.c **** *******************************************************************************/
 317:Generated_Source\PSoC5/isr_WD_SYNC.c **** uint8 isr_WD_SYNC_GetPriority(void)
 318:Generated_Source\PSoC5/isr_WD_SYNC.c **** {
 445              		.loc 1 318 0
 446              		.cfi_startproc
 447              		@ args = 0, pretend = 0, frame = 8
 448              		@ frame_needed = 1, uses_anonymous_args = 0
 449              		@ link register save eliminated.
 450 0000 80B4     		push	{r7}
 451              		.cfi_def_cfa_offset 4
 452              		.cfi_offset 7, -4
 453 0002 83B0     		sub	sp, sp, #12
 454              		.cfi_def_cfa_offset 16
 455 0004 00AF     		add	r7, sp, #0
 456              		.cfi_def_cfa_register 7
 319:Generated_Source\PSoC5/isr_WD_SYNC.c ****     uint8 priority;
 320:Generated_Source\PSoC5/isr_WD_SYNC.c **** 
 321:Generated_Source\PSoC5/isr_WD_SYNC.c **** 
 322:Generated_Source\PSoC5/isr_WD_SYNC.c ****     priority = *isr_WD_SYNC_INTC_PRIOR >> 5;
 457              		.loc 1 322 0
 458 0006 054B     		ldr	r3, .L28
 459 0008 1B78     		ldrb	r3, [r3]
 460 000a DBB2     		uxtb	r3, r3
 461 000c 5B09     		lsrs	r3, r3, #5
 462 000e FB71     		strb	r3, [r7, #7]
 323:Generated_Source\PSoC5/isr_WD_SYNC.c **** 
 324:Generated_Source\PSoC5/isr_WD_SYNC.c ****     return priority;
 463              		.loc 1 324 0
 464 0010 FB79     		ldrb	r3, [r7, #7]	@ zero_extendqisi2
 325:Generated_Source\PSoC5/isr_WD_SYNC.c **** }
 465              		.loc 1 325 0
 466 0012 1846     		mov	r0, r3
 467 0014 0C37     		adds	r7, r7, #12
 468              		.cfi_def_cfa_offset 4
 469 0016 BD46     		mov	sp, r7
 470              		.cfi_def_cfa_register 13
 471              		@ sp needed
 472 0018 80BC     		pop	{r7}
 473              		.cfi_restore 7
ARM GAS  C:\Users\ilya\AppData\Local\Temp\ccFODQoR.s 			page 15


 474              		.cfi_def_cfa_offset 0
 475 001a 7047     		bx	lr
 476              	.L29:
 477              		.align	2
 478              	.L28:
 479 001c 0BE400E0 		.word	-536812533
 480              		.cfi_endproc
 481              	.LFE70:
 482              		.size	isr_WD_SYNC_GetPriority, .-isr_WD_SYNC_GetPriority
 483              		.section	.text.isr_WD_SYNC_Enable,"ax",%progbits
 484              		.align	2
 485              		.global	isr_WD_SYNC_Enable
 486              		.thumb
 487              		.thumb_func
 488              		.type	isr_WD_SYNC_Enable, %function
 489              	isr_WD_SYNC_Enable:
 490              	.LFB71:
 326:Generated_Source\PSoC5/isr_WD_SYNC.c **** 
 327:Generated_Source\PSoC5/isr_WD_SYNC.c **** 
 328:Generated_Source\PSoC5/isr_WD_SYNC.c **** /*******************************************************************************
 329:Generated_Source\PSoC5/isr_WD_SYNC.c **** * Function Name: isr_WD_SYNC_Enable
 330:Generated_Source\PSoC5/isr_WD_SYNC.c **** ********************************************************************************
 331:Generated_Source\PSoC5/isr_WD_SYNC.c **** *
 332:Generated_Source\PSoC5/isr_WD_SYNC.c **** * Summary:
 333:Generated_Source\PSoC5/isr_WD_SYNC.c **** *   Enables the interrupt to the interrupt controller. Do not call this function
 334:Generated_Source\PSoC5/isr_WD_SYNC.c **** *   unless ISR_Start() has been called or the functionality of the ISR_Start() 
 335:Generated_Source\PSoC5/isr_WD_SYNC.c **** *   function, which sets the vector and the priority, has been called.
 336:Generated_Source\PSoC5/isr_WD_SYNC.c **** *
 337:Generated_Source\PSoC5/isr_WD_SYNC.c **** * Parameters:
 338:Generated_Source\PSoC5/isr_WD_SYNC.c **** *   None
 339:Generated_Source\PSoC5/isr_WD_SYNC.c **** *
 340:Generated_Source\PSoC5/isr_WD_SYNC.c **** * Return:
 341:Generated_Source\PSoC5/isr_WD_SYNC.c **** *   None
 342:Generated_Source\PSoC5/isr_WD_SYNC.c **** *
 343:Generated_Source\PSoC5/isr_WD_SYNC.c **** *******************************************************************************/
 344:Generated_Source\PSoC5/isr_WD_SYNC.c **** void isr_WD_SYNC_Enable(void)
 345:Generated_Source\PSoC5/isr_WD_SYNC.c **** {
 491              		.loc 1 345 0
 492              		.cfi_startproc
 493              		@ args = 0, pretend = 0, frame = 0
 494              		@ frame_needed = 1, uses_anonymous_args = 0
 495              		@ link register save eliminated.
 496 0000 80B4     		push	{r7}
 497              		.cfi_def_cfa_offset 4
 498              		.cfi_offset 7, -4
 499 0002 00AF     		add	r7, sp, #0
 500              		.cfi_def_cfa_register 7
 346:Generated_Source\PSoC5/isr_WD_SYNC.c ****     /* Enable the general interrupt. */
 347:Generated_Source\PSoC5/isr_WD_SYNC.c ****     *isr_WD_SYNC_INTC_SET_EN = isr_WD_SYNC__INTC_MASK;
 501              		.loc 1 347 0
 502 0004 034B     		ldr	r3, .L31
 503 0006 4FF40062 		mov	r2, #2048
 504 000a 1A60     		str	r2, [r3]
 348:Generated_Source\PSoC5/isr_WD_SYNC.c **** }
 505              		.loc 1 348 0
 506 000c 00BF     		nop
 507 000e BD46     		mov	sp, r7
ARM GAS  C:\Users\ilya\AppData\Local\Temp\ccFODQoR.s 			page 16


 508              		.cfi_def_cfa_register 13
 509              		@ sp needed
 510 0010 80BC     		pop	{r7}
 511              		.cfi_restore 7
 512              		.cfi_def_cfa_offset 0
 513 0012 7047     		bx	lr
 514              	.L32:
 515              		.align	2
 516              	.L31:
 517 0014 00E100E0 		.word	-536813312
 518              		.cfi_endproc
 519              	.LFE71:
 520              		.size	isr_WD_SYNC_Enable, .-isr_WD_SYNC_Enable
 521              		.section	.text.isr_WD_SYNC_GetState,"ax",%progbits
 522              		.align	2
 523              		.global	isr_WD_SYNC_GetState
 524              		.thumb
 525              		.thumb_func
 526              		.type	isr_WD_SYNC_GetState, %function
 527              	isr_WD_SYNC_GetState:
 528              	.LFB72:
 349:Generated_Source\PSoC5/isr_WD_SYNC.c **** 
 350:Generated_Source\PSoC5/isr_WD_SYNC.c **** 
 351:Generated_Source\PSoC5/isr_WD_SYNC.c **** /*******************************************************************************
 352:Generated_Source\PSoC5/isr_WD_SYNC.c **** * Function Name: isr_WD_SYNC_GetState
 353:Generated_Source\PSoC5/isr_WD_SYNC.c **** ********************************************************************************
 354:Generated_Source\PSoC5/isr_WD_SYNC.c **** *
 355:Generated_Source\PSoC5/isr_WD_SYNC.c **** * Summary:
 356:Generated_Source\PSoC5/isr_WD_SYNC.c **** *   Gets the state (enabled, disabled) of the Interrupt.
 357:Generated_Source\PSoC5/isr_WD_SYNC.c **** *
 358:Generated_Source\PSoC5/isr_WD_SYNC.c **** * Parameters:
 359:Generated_Source\PSoC5/isr_WD_SYNC.c **** *   None
 360:Generated_Source\PSoC5/isr_WD_SYNC.c **** *
 361:Generated_Source\PSoC5/isr_WD_SYNC.c **** * Return:
 362:Generated_Source\PSoC5/isr_WD_SYNC.c **** *   1 if enabled, 0 if disabled.
 363:Generated_Source\PSoC5/isr_WD_SYNC.c **** *
 364:Generated_Source\PSoC5/isr_WD_SYNC.c **** *******************************************************************************/
 365:Generated_Source\PSoC5/isr_WD_SYNC.c **** uint8 isr_WD_SYNC_GetState(void)
 366:Generated_Source\PSoC5/isr_WD_SYNC.c **** {
 529              		.loc 1 366 0
 530              		.cfi_startproc
 531              		@ args = 0, pretend = 0, frame = 0
 532              		@ frame_needed = 1, uses_anonymous_args = 0
 533              		@ link register save eliminated.
 534 0000 80B4     		push	{r7}
 535              		.cfi_def_cfa_offset 4
 536              		.cfi_offset 7, -4
 537 0002 00AF     		add	r7, sp, #0
 538              		.cfi_def_cfa_register 7
 367:Generated_Source\PSoC5/isr_WD_SYNC.c ****     /* Get the state of the general interrupt. */
 368:Generated_Source\PSoC5/isr_WD_SYNC.c ****     return ((*isr_WD_SYNC_INTC_SET_EN & (uint32)isr_WD_SYNC__INTC_MASK) != 0u) ? 1u:0u;
 539              		.loc 1 368 0
 540 0004 064B     		ldr	r3, .L37
 541 0006 1B68     		ldr	r3, [r3]
 542 0008 03F40063 		and	r3, r3, #2048
 543 000c 002B     		cmp	r3, #0
 544 000e 01D0     		beq	.L34
ARM GAS  C:\Users\ilya\AppData\Local\Temp\ccFODQoR.s 			page 17


 545              		.loc 1 368 0 is_stmt 0 discriminator 1
 546 0010 0123     		movs	r3, #1
 547 0012 00E0     		b	.L35
 548              	.L34:
 549              		.loc 1 368 0 discriminator 2
 550 0014 0023     		movs	r3, #0
 551              	.L35:
 369:Generated_Source\PSoC5/isr_WD_SYNC.c **** }
 552              		.loc 1 369 0 is_stmt 1 discriminator 4
 553 0016 1846     		mov	r0, r3
 554 0018 BD46     		mov	sp, r7
 555              		.cfi_def_cfa_register 13
 556              		@ sp needed
 557 001a 80BC     		pop	{r7}
 558              		.cfi_restore 7
 559              		.cfi_def_cfa_offset 0
 560 001c 7047     		bx	lr
 561              	.L38:
 562 001e 00BF     		.align	2
 563              	.L37:
 564 0020 00E100E0 		.word	-536813312
 565              		.cfi_endproc
 566              	.LFE72:
 567              		.size	isr_WD_SYNC_GetState, .-isr_WD_SYNC_GetState
 568              		.section	.text.isr_WD_SYNC_Disable,"ax",%progbits
 569              		.align	2
 570              		.global	isr_WD_SYNC_Disable
 571              		.thumb
 572              		.thumb_func
 573              		.type	isr_WD_SYNC_Disable, %function
 574              	isr_WD_SYNC_Disable:
 575              	.LFB73:
 370:Generated_Source\PSoC5/isr_WD_SYNC.c **** 
 371:Generated_Source\PSoC5/isr_WD_SYNC.c **** 
 372:Generated_Source\PSoC5/isr_WD_SYNC.c **** /*******************************************************************************
 373:Generated_Source\PSoC5/isr_WD_SYNC.c **** * Function Name: isr_WD_SYNC_Disable
 374:Generated_Source\PSoC5/isr_WD_SYNC.c **** ********************************************************************************
 375:Generated_Source\PSoC5/isr_WD_SYNC.c **** *
 376:Generated_Source\PSoC5/isr_WD_SYNC.c **** * Summary:
 377:Generated_Source\PSoC5/isr_WD_SYNC.c **** *   Disables the Interrupt in the interrupt controller.
 378:Generated_Source\PSoC5/isr_WD_SYNC.c **** *
 379:Generated_Source\PSoC5/isr_WD_SYNC.c **** * Parameters:
 380:Generated_Source\PSoC5/isr_WD_SYNC.c **** *   None
 381:Generated_Source\PSoC5/isr_WD_SYNC.c **** *
 382:Generated_Source\PSoC5/isr_WD_SYNC.c **** * Return:
 383:Generated_Source\PSoC5/isr_WD_SYNC.c **** *   None
 384:Generated_Source\PSoC5/isr_WD_SYNC.c **** *
 385:Generated_Source\PSoC5/isr_WD_SYNC.c **** *******************************************************************************/
 386:Generated_Source\PSoC5/isr_WD_SYNC.c **** void isr_WD_SYNC_Disable(void)
 387:Generated_Source\PSoC5/isr_WD_SYNC.c **** {
 576              		.loc 1 387 0
 577              		.cfi_startproc
 578              		@ args = 0, pretend = 0, frame = 0
 579              		@ frame_needed = 1, uses_anonymous_args = 0
 580              		@ link register save eliminated.
 581 0000 80B4     		push	{r7}
 582              		.cfi_def_cfa_offset 4
ARM GAS  C:\Users\ilya\AppData\Local\Temp\ccFODQoR.s 			page 18


 583              		.cfi_offset 7, -4
 584 0002 00AF     		add	r7, sp, #0
 585              		.cfi_def_cfa_register 7
 388:Generated_Source\PSoC5/isr_WD_SYNC.c ****     /* Disable the general interrupt. */
 389:Generated_Source\PSoC5/isr_WD_SYNC.c ****     *isr_WD_SYNC_INTC_CLR_EN = isr_WD_SYNC__INTC_MASK;
 586              		.loc 1 389 0
 587 0004 034B     		ldr	r3, .L40
 588 0006 4FF40062 		mov	r2, #2048
 589 000a 1A60     		str	r2, [r3]
 390:Generated_Source\PSoC5/isr_WD_SYNC.c **** }
 590              		.loc 1 390 0
 591 000c 00BF     		nop
 592 000e BD46     		mov	sp, r7
 593              		.cfi_def_cfa_register 13
 594              		@ sp needed
 595 0010 80BC     		pop	{r7}
 596              		.cfi_restore 7
 597              		.cfi_def_cfa_offset 0
 598 0012 7047     		bx	lr
 599              	.L41:
 600              		.align	2
 601              	.L40:
 602 0014 80E100E0 		.word	-536813184
 603              		.cfi_endproc
 604              	.LFE73:
 605              		.size	isr_WD_SYNC_Disable, .-isr_WD_SYNC_Disable
 606              		.section	.text.isr_WD_SYNC_SetPending,"ax",%progbits
 607              		.align	2
 608              		.global	isr_WD_SYNC_SetPending
 609              		.thumb
 610              		.thumb_func
 611              		.type	isr_WD_SYNC_SetPending, %function
 612              	isr_WD_SYNC_SetPending:
 613              	.LFB74:
 391:Generated_Source\PSoC5/isr_WD_SYNC.c **** 
 392:Generated_Source\PSoC5/isr_WD_SYNC.c **** 
 393:Generated_Source\PSoC5/isr_WD_SYNC.c **** /*******************************************************************************
 394:Generated_Source\PSoC5/isr_WD_SYNC.c **** * Function Name: isr_WD_SYNC_SetPending
 395:Generated_Source\PSoC5/isr_WD_SYNC.c **** ********************************************************************************
 396:Generated_Source\PSoC5/isr_WD_SYNC.c **** *
 397:Generated_Source\PSoC5/isr_WD_SYNC.c **** * Summary:
 398:Generated_Source\PSoC5/isr_WD_SYNC.c **** *   Causes the Interrupt to enter the pending state, a software method of
 399:Generated_Source\PSoC5/isr_WD_SYNC.c **** *   generating the interrupt.
 400:Generated_Source\PSoC5/isr_WD_SYNC.c **** *
 401:Generated_Source\PSoC5/isr_WD_SYNC.c **** * Parameters:
 402:Generated_Source\PSoC5/isr_WD_SYNC.c **** *   None
 403:Generated_Source\PSoC5/isr_WD_SYNC.c **** *
 404:Generated_Source\PSoC5/isr_WD_SYNC.c **** * Return:
 405:Generated_Source\PSoC5/isr_WD_SYNC.c **** *   None
 406:Generated_Source\PSoC5/isr_WD_SYNC.c **** *
 407:Generated_Source\PSoC5/isr_WD_SYNC.c **** * Side Effects:
 408:Generated_Source\PSoC5/isr_WD_SYNC.c **** *   If interrupts are enabled and the interrupt is set up properly, the ISR is
 409:Generated_Source\PSoC5/isr_WD_SYNC.c **** *   entered (depending on the priority of this interrupt and other pending 
 410:Generated_Source\PSoC5/isr_WD_SYNC.c **** *   interrupts).
 411:Generated_Source\PSoC5/isr_WD_SYNC.c **** *
 412:Generated_Source\PSoC5/isr_WD_SYNC.c **** *******************************************************************************/
 413:Generated_Source\PSoC5/isr_WD_SYNC.c **** void isr_WD_SYNC_SetPending(void)
ARM GAS  C:\Users\ilya\AppData\Local\Temp\ccFODQoR.s 			page 19


 414:Generated_Source\PSoC5/isr_WD_SYNC.c **** {
 614              		.loc 1 414 0
 615              		.cfi_startproc
 616              		@ args = 0, pretend = 0, frame = 0
 617              		@ frame_needed = 1, uses_anonymous_args = 0
 618              		@ link register save eliminated.
 619 0000 80B4     		push	{r7}
 620              		.cfi_def_cfa_offset 4
 621              		.cfi_offset 7, -4
 622 0002 00AF     		add	r7, sp, #0
 623              		.cfi_def_cfa_register 7
 415:Generated_Source\PSoC5/isr_WD_SYNC.c ****     *isr_WD_SYNC_INTC_SET_PD = isr_WD_SYNC__INTC_MASK;
 624              		.loc 1 415 0
 625 0004 034B     		ldr	r3, .L43
 626 0006 4FF40062 		mov	r2, #2048
 627 000a 1A60     		str	r2, [r3]
 416:Generated_Source\PSoC5/isr_WD_SYNC.c **** }
 628              		.loc 1 416 0
 629 000c 00BF     		nop
 630 000e BD46     		mov	sp, r7
 631              		.cfi_def_cfa_register 13
 632              		@ sp needed
 633 0010 80BC     		pop	{r7}
 634              		.cfi_restore 7
 635              		.cfi_def_cfa_offset 0
 636 0012 7047     		bx	lr
 637              	.L44:
 638              		.align	2
 639              	.L43:
 640 0014 00E200E0 		.word	-536813056
 641              		.cfi_endproc
 642              	.LFE74:
 643              		.size	isr_WD_SYNC_SetPending, .-isr_WD_SYNC_SetPending
 644              		.section	.text.isr_WD_SYNC_ClearPending,"ax",%progbits
 645              		.align	2
 646              		.global	isr_WD_SYNC_ClearPending
 647              		.thumb
 648              		.thumb_func
 649              		.type	isr_WD_SYNC_ClearPending, %function
 650              	isr_WD_SYNC_ClearPending:
 651              	.LFB75:
 417:Generated_Source\PSoC5/isr_WD_SYNC.c **** 
 418:Generated_Source\PSoC5/isr_WD_SYNC.c **** 
 419:Generated_Source\PSoC5/isr_WD_SYNC.c **** /*******************************************************************************
 420:Generated_Source\PSoC5/isr_WD_SYNC.c **** * Function Name: isr_WD_SYNC_ClearPending
 421:Generated_Source\PSoC5/isr_WD_SYNC.c **** ********************************************************************************
 422:Generated_Source\PSoC5/isr_WD_SYNC.c **** *
 423:Generated_Source\PSoC5/isr_WD_SYNC.c **** * Summary:
 424:Generated_Source\PSoC5/isr_WD_SYNC.c **** *   Clears a pending interrupt in the interrupt controller.
 425:Generated_Source\PSoC5/isr_WD_SYNC.c **** *
 426:Generated_Source\PSoC5/isr_WD_SYNC.c **** *   Note Some interrupt sources are clear-on-read and require the block 
 427:Generated_Source\PSoC5/isr_WD_SYNC.c **** *   interrupt/status register to be read/cleared with the appropriate block API 
 428:Generated_Source\PSoC5/isr_WD_SYNC.c **** *   (GPIO, UART, and so on). Otherwise the ISR will continue to remain in 
 429:Generated_Source\PSoC5/isr_WD_SYNC.c **** *   pending state even though the interrupt itself is cleared using this API.
 430:Generated_Source\PSoC5/isr_WD_SYNC.c **** *
 431:Generated_Source\PSoC5/isr_WD_SYNC.c **** * Parameters:
 432:Generated_Source\PSoC5/isr_WD_SYNC.c **** *   None
ARM GAS  C:\Users\ilya\AppData\Local\Temp\ccFODQoR.s 			page 20


 433:Generated_Source\PSoC5/isr_WD_SYNC.c **** *
 434:Generated_Source\PSoC5/isr_WD_SYNC.c **** * Return:
 435:Generated_Source\PSoC5/isr_WD_SYNC.c **** *   None
 436:Generated_Source\PSoC5/isr_WD_SYNC.c **** *
 437:Generated_Source\PSoC5/isr_WD_SYNC.c **** *******************************************************************************/
 438:Generated_Source\PSoC5/isr_WD_SYNC.c **** void isr_WD_SYNC_ClearPending(void)
 439:Generated_Source\PSoC5/isr_WD_SYNC.c **** {
 652              		.loc 1 439 0
 653              		.cfi_startproc
 654              		@ args = 0, pretend = 0, frame = 0
 655              		@ frame_needed = 1, uses_anonymous_args = 0
 656              		@ link register save eliminated.
 657 0000 80B4     		push	{r7}
 658              		.cfi_def_cfa_offset 4
 659              		.cfi_offset 7, -4
 660 0002 00AF     		add	r7, sp, #0
 661              		.cfi_def_cfa_register 7
 440:Generated_Source\PSoC5/isr_WD_SYNC.c ****     *isr_WD_SYNC_INTC_CLR_PD = isr_WD_SYNC__INTC_MASK;
 662              		.loc 1 440 0
 663 0004 034B     		ldr	r3, .L46
 664 0006 4FF40062 		mov	r2, #2048
 665 000a 1A60     		str	r2, [r3]
 441:Generated_Source\PSoC5/isr_WD_SYNC.c **** }
 666              		.loc 1 441 0
 667 000c 00BF     		nop
 668 000e BD46     		mov	sp, r7
 669              		.cfi_def_cfa_register 13
 670              		@ sp needed
 671 0010 80BC     		pop	{r7}
 672              		.cfi_restore 7
 673              		.cfi_def_cfa_offset 0
 674 0012 7047     		bx	lr
 675              	.L47:
 676              		.align	2
 677              	.L46:
 678 0014 80E200E0 		.word	-536812928
 679              		.cfi_endproc
 680              	.LFE75:
 681              		.size	isr_WD_SYNC_ClearPending, .-isr_WD_SYNC_ClearPending
 682              		.text
 683              	.Letext0:
 684              		.file 2 "c:\\program files (x86)\\cypress\\psoc creator\\4.2\\psoc creator\\import\\gnu\\arm\\5.4.
 685              		.file 3 "c:\\program files (x86)\\cypress\\psoc creator\\4.2\\psoc creator\\import\\gnu\\arm\\5.4.
 686              		.file 4 "Generated_Source\\PSoC5/cytypes.h"
 687              		.file 5 "./softuart.h"
 688              		.file 6 "Generated_Source\\PSoC5/core_cm3.h"
 689              		.file 7 "./system.h"