ARM GAS  C:\Users\Rajesh\AppData\Local\Temp\ccIN6Ss3.s 			page 1


   1              		.syntax unified
   2              		.cpu cortex-m3
   3              		.fpu softvfp
   4              		.eabi_attribute 20, 1
   5              		.eabi_attribute 21, 1
   6              		.eabi_attribute 23, 3
   7              		.eabi_attribute 24, 1
   8              		.eabi_attribute 25, 1
   9              		.eabi_attribute 26, 1
  10              		.eabi_attribute 30, 6
  11              		.eabi_attribute 34, 1
  12              		.eabi_attribute 18, 4
  13              		.thumb
  14              		.syntax unified
  15              		.file	"main.c"
  16              		.text
  17              	.Ltext0:
  18              		.cfi_sections	.debug_frame
  19              		.comm	s,40,4
  20              		.comm	currentAccessType,1,1
  21              		.comm	hw_old,1,1
  22              		.comm	tp_old,1,1
  23              		.comm	tamperCR_polarity,4,4
  24              		.comm	tamper_out_polarity,4,4
  25              		.comm	card_ack,4,4
  26              		.comm	card_in_buf,4,4
  27              		.comm	osdp_timeout,4,4
  28              		.comm	bu,16,4
  29              		.global	z
  30              		.bss
  31              		.align	2
  32              		.type	z, %object
  33              		.size	z, 4
  34              	z:
  35 0000 00000000 		.space	4
  36              		.comm	TOC_port_init,1,1
  37              		.section	.text.SetVersion,"ax",%progbits
  38              		.align	2
  39              		.global	SetVersion
  40              		.thumb
  41              		.thumb_func
  42              		.type	SetVersion, %function
  43              	SetVersion:
  44              	.LFB63:
  45              		.file 1 "main.c"
   1:main.c        **** /* ========================================
   2:main.c        ****  *
   3:main.c        ****  * NanoNXT Breakout Board
   4:main.c        ****  * Copyright Eyelock.Inc, 2014, 2015
   5:main.c        ****  * All Rights Reserved
   6:main.c        ****  * UNPUBLISHED, LICENSED SOFTWARE.
   7:main.c        ****  * CONFIDENTIAL AND PROPRIETARY INFORMATION
   8:main.c        ****  * 
   9:main.c        ****  * Version History:
  10:main.c        ****  * ================
  11:main.c        ****  * 3.0.0 : Ported Nano Breakout board functionality without HID/F2F.
  12:main.c        ****  * 3.0.1 : Relay output moved from regular output mode to auxillary output mode
ARM GAS  C:\Users\Rajesh\AppData\Local\Temp\ccIN6Ss3.s 			page 2


  13:main.c        ****  * 3.0.2 : F2F functionality Added.
  14:main.c        ****  * 3.0.3 : HID functionality added using SW UART for 26 bit weigand & SW UART tested on PAC comapti
  15:main.c        ****  * 3.0.4 : Tamper In is directly routed to Tamper out
  16:main.c        ****  * 3.0.5 : Software Reset button functionality added
  17:main.c        ****  * 3.0.6 : HID functionality modified to support all types of weigand bit formats. 
  18:main.c        ****  * 3.0.7 : Bootloader functionality added.
  19:main.c        ****  * 3.0.8 : Reed Tamper Inverted for Beta.
  20:main.c        ****  * 3.0.9 : Ported code for ICM 3(PSOC 5).
  21:main.c        ****  * 3.1.0 : Bootloader functionality added to ICM3.
  22:main.c        ****  * 3.1.1 : GRI 1-13-15: Tamper signals repaired. Tamper moved to main code block.  Tamper polarity 
  23:main.c        ****  * 3.1.2 : GRI 1-28-15: Tamper moved to HandleInputs.  I2C bus clock was corrected to be 100kHz to 
  24:main.c        ****  * 3.1.3 : GRI 1-30-15: Removed all "ClearBuffer()" instances.
  25:main.c        ****  * 3.1.4 : GRI 2-02-15: Added ACK bit for card reads to prevent hanging after card read. PSoC will 
  26:main.c        ****  * 3.1.5 : GRI 2-04-15: Extensive revision to input signal handler to add noise immunity/debounce (
  27:main.c        ****  * 3.1.6 : Added F2F card reader functionality
  28:main.c        ****  * 3.1.7 : Debouncer added to WD0 && Functionality added to detect pulsewidth in F2F
  29:main.c        ****  * 3.1.8 : Added F2F conditionality to turn on timers
  30:main.c        ****  * 3.1.9 : Fixed the bootloader bug for PSOC creator 3.1  Use the debug NxtICM3_bootloader for refe
  31:main.c        ****  * 3.1.10 : Make F2F pulse timing adaptive to the input signal
  32:main.c        ****  * 3.1.15 : OSDP Dual Authentication
  33:main.c        ****  * 3.1.16 : support F2F variable length messages
  34:main.c        ****  * 3.2.0 : Fix F2F to accommodate prompt signal ATH-870
  35:main.c        ****  * 3.2.1 : support Tamper Out Polarity Settings in the Web
  36:main.c        ****  * 3.2.2 : reverse the tamper output polarity
  37:main.c        ****  * 3.2.3 : 16 bits I2C
  38:main.c        ****  * 3.2.4 : branched from 3.2.2, fixed pulse width narrowed by tamper interrupt problem
  39:main.c        ****  * 3.2.5 : help firmware set the card in status again in one second if no ack comming.
  40:main.c        ****  * 3.3.2 : same as 3.2.5 for GA release
  41:main.c        ****  * 3.4.3 : add TOC template on card
  42:main.c        ****  * 3.4.4 : add Pass Through mode
  43:main.c        ****  * 3.4.5 : Increased the timeout delay on PAC for Pass Through Mode.
  44:main.c        ****  * 3.4.6 : Add PAC for TOC Mode.
  45:main.c        ****  * 3.4.7 : Add RS485 sending function for the BLE Mode and the Iris Timeout interface commands.
  46:main.c        ****  * 3.4.8 : Fixed OSDP compiling issue, use osdp.h function prototype.
  47:main.c        ****  * 3.4.9 : Fixed ATH-1171 - Pass through (Iris or Card mode) does not 
  48:main.c        ****             authenticate two consecutive cards problem
  49:main.c        ****  * 5.0.2 : Add 200 bits Wiegand
  50:main.c        ****  * 5.0.4 : Simplified OSDP, fixed reader message misalignment problem
  51:main.c        ****  * ========================================
  52:main.c        **** */
  53:main.c        **** #include <project.h>
  54:main.c        **** #include "system.h"
  55:main.c        **** #include "commandhandler.h"
  56:main.c        **** #include "hwinit.h"
  57:main.c        **** #include "osdp.h"
  58:main.c        **** #include "inout.h"
  59:main.c        **** #include "wiegand.h"
  60:main.c        **** #include "f2f.h"
  61:main.c        **** #include "power.h"
  62:main.c        **** #include "inout.h"
  63:main.c        **** #include "i2cuart.h"
  64:main.c        **** #include "osdp.h"
  65:main.c        **** #include "toc.h"
  66:main.c        **** 
  67:main.c        **** unsigned char bu[16];
  68:main.c        **** int z=0;
  69:main.c        **** char TOC_port_init;
ARM GAS  C:\Users\Rajesh\AppData\Local\Temp\ccIN6Ss3.s 			page 3


  70:main.c        **** 
  71:main.c        **** 
  72:main.c        **** /***********************************
  73:main.c        ****     Sets the breakout board version.
  74:main.c        **** *************************************/
  75:main.c        **** void SetVersion()
  76:main.c        **** {
  46              		.loc 1 76 0
  47              		.cfi_startproc
  48              		@ args = 0, pretend = 0, frame = 0
  49              		@ frame_needed = 1, uses_anonymous_args = 0
  50              		@ link register save eliminated.
  51 0000 80B4     		push	{r7}
  52              		.cfi_def_cfa_offset 4
  53              		.cfi_offset 7, -4
  54 0002 00AF     		add	r7, sp, #0
  55              		.cfi_def_cfa_register 7
  77:main.c        ****     MyI2C_Regs.hw_version[0] = 0x71;
  56              		.loc 1 77 0
  57 0004 0D4B     		ldr	r3, .L2
  58 0006 7122     		movs	r2, #113
  59 0008 83F84620 		strb	r2, [r3, #70]
  78:main.c        ****     MyI2C_Regs.hw_version[1] = 0x42;
  60              		.loc 1 78 0
  61 000c 0B4B     		ldr	r3, .L2
  62 000e 4222     		movs	r2, #66
  63 0010 83F84720 		strb	r2, [r3, #71]
  79:main.c        ****     MyI2C_Regs.hw_version[2] = 0x0A;
  64              		.loc 1 79 0
  65 0014 094B     		ldr	r3, .L2
  66 0016 0A22     		movs	r2, #10
  67 0018 83F84820 		strb	r2, [r3, #72]
  80:main.c        ****     
  81:main.c        ****     MyI2C_Regs.sw_version[0] = 6;
  68              		.loc 1 81 0
  69 001c 074B     		ldr	r3, .L2
  70 001e 0622     		movs	r2, #6
  71 0020 83F84320 		strb	r2, [r3, #67]
  82:main.c        ****     MyI2C_Regs.sw_version[1] = 0;
  72              		.loc 1 82 0
  73 0024 054B     		ldr	r3, .L2
  74 0026 0022     		movs	r2, #0
  75 0028 83F84420 		strb	r2, [r3, #68]
  83:main.c        ****     MyI2C_Regs.sw_version[2] = 2;
  76              		.loc 1 83 0
  77 002c 034B     		ldr	r3, .L2
  78 002e 0222     		movs	r2, #2
  79 0030 83F84520 		strb	r2, [r3, #69]
  84:main.c        **** }
  80              		.loc 1 84 0
  81 0034 00BF     		nop
  82 0036 BD46     		mov	sp, r7
  83              		.cfi_def_cfa_register 13
  84              		@ sp needed
  85 0038 80BC     		pop	{r7}
  86              		.cfi_restore 7
  87              		.cfi_def_cfa_offset 0
ARM GAS  C:\Users\Rajesh\AppData\Local\Temp\ccIN6Ss3.s 			page 4


  88 003a 7047     		bx	lr
  89              	.L3:
  90              		.align	2
  91              	.L2:
  92 003c 00000000 		.word	MyI2C_Regs
  93              		.cfi_endproc
  94              	.LFE63:
  95              		.size	SetVersion, .-SetVersion
  96              		.section	.text.main,"ax",%progbits
  97              		.align	2
  98              		.global	main
  99              		.thumb
 100              		.thumb_func
 101              		.type	main, %function
 102              	main:
 103              	.LFB64:
  85:main.c        **** 
  86:main.c        **** 
  87:main.c        **** 
  88:main.c        **** int main()
  89:main.c        **** {
 104              		.loc 1 89 0
 105              		.cfi_startproc
 106              		@ args = 0, pretend = 0, frame = 8
 107              		@ frame_needed = 1, uses_anonymous_args = 0
 108 0000 80B5     		push	{r7, lr}
 109              		.cfi_def_cfa_offset 8
 110              		.cfi_offset 7, -8
 111              		.cfi_offset 14, -4
 112 0002 82B0     		sub	sp, sp, #8
 113              		.cfi_def_cfa_offset 16
 114 0004 00AF     		add	r7, sp, #0
 115              		.cfi_def_cfa_register 7
  90:main.c        ****     int ack_time_cnt; // counter for acknowledge timeout
  91:main.c        ****     int tmp;
  92:main.c        ****     
  93:main.c        ****     POE_RST_Write(1);
 116              		.loc 1 93 0
 117 0006 0120     		movs	r0, #1
 118 0008 FFF7FEFF 		bl	POE_RST_Write
  94:main.c        ****     POE_OIM_SDn_Write(0);
 119              		.loc 1 94 0
 120 000c 0020     		movs	r0, #0
 121 000e FFF7FEFF 		bl	POE_OIM_SDn_Write
  95:main.c        ****     CyGlobalIntEnable;  /* Uncomment this line to enable global interrupts. */
 122              		.loc 1 95 0
 123              		.syntax unified
 124              	@ 95 "main.c" 1
 125 0012 62B6     		CPSIE   i
 126              	@ 0 "" 2
  96:main.c        ****     ST_LED_0_Write(1);
 127              		.loc 1 96 0
 128              		.thumb
 129              		.syntax unified
 130 0014 0120     		movs	r0, #1
 131 0016 FFF7FEFF 		bl	ST_LED_0_Write
  97:main.c        ****     ST_LED_1_Write(1);
ARM GAS  C:\Users\Rajesh\AppData\Local\Temp\ccIN6Ss3.s 			page 5


 132              		.loc 1 97 0
 133 001a 0120     		movs	r0, #1
 134 001c FFF7FEFF 		bl	ST_LED_1_Write
  98:main.c        ****     ST_LED_2_Write(1);
 135              		.loc 1 98 0
 136 0020 0120     		movs	r0, #1
 137 0022 FFF7FEFF 		bl	ST_LED_2_Write
  99:main.c        ****     SF2F_Write(1);
 138              		.loc 1 99 0
 139 0026 0120     		movs	r0, #1
 140 0028 FFF7FEFF 		bl	SF2F_Write
 100:main.c        ****     I2C_Master_Start();
 141              		.loc 1 100 0
 142 002c FFF7FEFF 		bl	I2C_Master_Start
 101:main.c        ****     isr_WD_SYNC_Start();
 143              		.loc 1 101 0
 144 0030 FFF7FEFF 		bl	isr_WD_SYNC_Start
 102:main.c        ****     rtc_write_reg(0x25, 0x02);
 145              		.loc 1 102 0
 146 0034 0221     		movs	r1, #2
 147 0036 2520     		movs	r0, #37
 148 0038 FFF7FEFF 		bl	rtc_write_reg
 103:main.c        ****     rtc_write_reg(0x28, 0x00);
 149              		.loc 1 103 0
 150 003c 0021     		movs	r1, #0
 151 003e 2820     		movs	r0, #40
 152 0040 FFF7FEFF 		bl	rtc_write_reg
 104:main.c        ****     ST_LED_1_Write(0);
 153              		.loc 1 104 0
 154 0044 0020     		movs	r0, #0
 155 0046 FFF7FEFF 		bl	ST_LED_1_Write
 105:main.c        ****     rtc_read(0, MyI2C_Regs.buffer, 8);
 156              		.loc 1 105 0
 157 004a 0822     		movs	r2, #8
 158 004c 5A49     		ldr	r1, .L9
 159 004e 0020     		movs	r0, #0
 160 0050 FFF7FEFF 		bl	rtc_read
 106:main.c        ****     ST_LED_1_Write(1);
 161              		.loc 1 106 0
 162 0054 0120     		movs	r0, #1
 163 0056 FFF7FEFF 		bl	ST_LED_1_Write
 107:main.c        ****     rtc_read(0,bu,8);
 164              		.loc 1 107 0
 165 005a 0822     		movs	r2, #8
 166 005c 5749     		ldr	r1, .L9+4
 167 005e 0020     		movs	r0, #0
 168 0060 FFF7FEFF 		bl	rtc_read
 108:main.c        ****     SleepTimer_Start();
 169              		.loc 1 108 0
 170 0064 FFF7FEFF 		bl	SleepTimer_Start
 109:main.c        ****     isr_Sleep_Start();
 171              		.loc 1 109 0
 172 0068 FFF7FEFF 		bl	isr_Sleep_Start
 110:main.c        ****     ST_LED_1_Write(0);
 173              		.loc 1 110 0
 174 006c 0020     		movs	r0, #0
 175 006e FFF7FEFF 		bl	ST_LED_1_Write
ARM GAS  C:\Users\Rajesh\AppData\Local\Temp\ccIN6Ss3.s 			page 6


 111:main.c        ****     CyDelay(500);
 176              		.loc 1 111 0
 177 0072 4FF4FA70 		mov	r0, #500
 178 0076 FFF7FEFF 		bl	CyDelay
 112:main.c        ****     ST_LED_1_Write(1);
 179              		.loc 1 112 0
 180 007a 0120     		movs	r0, #1
 181 007c FFF7FEFF 		bl	ST_LED_1_Write
 113:main.c        ****     ST_LED_2_Write(0);
 182              		.loc 1 113 0
 183 0080 0020     		movs	r0, #0
 184 0082 FFF7FEFF 		bl	ST_LED_2_Write
 114:main.c        ****     CyDelay(500);
 185              		.loc 1 114 0
 186 0086 4FF4FA70 		mov	r0, #500
 187 008a FFF7FEFF 		bl	CyDelay
 115:main.c        ****     ST_LED_2_Write(1);
 188              		.loc 1 115 0
 189 008e 0120     		movs	r0, #1
 190 0090 FFF7FEFF 		bl	ST_LED_2_Write
 116:main.c        ****     ST_LED_0_Write(0);
 191              		.loc 1 116 0
 192 0094 0020     		movs	r0, #0
 193 0096 FFF7FEFF 		bl	ST_LED_0_Write
 117:main.c        ****     CyDelay(500);
 194              		.loc 1 117 0
 195 009a 4FF4FA70 		mov	r0, #500
 196 009e FFF7FEFF 		bl	CyDelay
 118:main.c        ****     ST_LED_0_Write(1);
 197              		.loc 1 118 0
 198 00a2 0120     		movs	r0, #1
 199 00a4 FFF7FEFF 		bl	ST_LED_0_Write
 119:main.c        ****     ST_LED_2_Write(0);
 200              		.loc 1 119 0
 201 00a8 0020     		movs	r0, #0
 202 00aa FFF7FEFF 		bl	ST_LED_2_Write
 120:main.c        ****     ST_LED_1_Write(0);
 203              		.loc 1 120 0
 204 00ae 0020     		movs	r0, #0
 205 00b0 FFF7FEFF 		bl	ST_LED_1_Write
 121:main.c        ****     USBUART_Start(0, USBUART_5V_OPERATION);
 206              		.loc 1 121 0
 207 00b4 0121     		movs	r1, #1
 208 00b6 0020     		movs	r0, #0
 209 00b8 FFF7FEFF 		bl	USBUART_Start
 122:main.c        ****     EEPROM_Start();
 210              		.loc 1 122 0
 211 00bc FFF7FEFF 		bl	EEPROM_Start
 123:main.c        ****     CySetTemp();
 212              		.loc 1 123 0
 213 00c0 FFF7FEFF 		bl	CySetTemp
 124:main.c        ****     if (EEPROM_ReadByte(0)==0x55)
 214              		.loc 1 124 0
 215 00c4 0020     		movs	r0, #0
 216 00c6 FFF7FEFF 		bl	EEPROM_ReadByte
 217 00ca 0346     		mov	r3, r0
 218 00cc 552B     		cmp	r3, #85
ARM GAS  C:\Users\Rajesh\AppData\Local\Temp\ccIN6Ss3.s 			page 7


 219 00ce 05D1     		bne	.L5
 125:main.c        ****     {
 126:main.c        ****         EEPROM_EraseSector(0);
 220              		.loc 1 126 0
 221 00d0 0020     		movs	r0, #0
 222 00d2 FFF7FEFF 		bl	EEPROM_EraseSector
 127:main.c        ****         ST_LED_2_Write(1);
 223              		.loc 1 127 0
 224 00d6 0120     		movs	r0, #1
 225 00d8 FFF7FEFF 		bl	ST_LED_2_Write
 226              	.L5:
 128:main.c        ****     }
 129:main.c        ****     POE_OIM_En(1);
 227              		.loc 1 129 0
 228 00dc 0120     		movs	r0, #1
 229 00de FFF7FEFF 		bl	POE_OIM_En
 130:main.c        **** //    /* Intializing the Timers and interrupts */
 131:main.c        **** 
 132:main.c        ****     UART_TIMER_Start();
 230              		.loc 1 132 0
 231 00e2 FFF7FEFF 		bl	UART_TIMER_Start
 133:main.c        **** 	UART_TIMER_ISR_StartEx(UART_TIMER_ISR_Interrupt);
 232              		.loc 1 133 0
 233 00e6 3648     		ldr	r0, .L9+8
 234 00e8 FFF7FEFF 		bl	UART_TIMER_ISR_StartEx
 134:main.c        ****     Tamper_Timer_Start();
 235              		.loc 1 134 0
 236 00ec FFF7FEFF 		bl	Tamper_Timer_Start
 135:main.c        ****     Tamper_Timer_ISR_StartEx(Tamper_Timer_ISR_Interrupt);
 237              		.loc 1 135 0
 238 00f0 3448     		ldr	r0, .L9+12
 239 00f2 FFF7FEFF 		bl	Tamper_Timer_ISR_StartEx
 136:main.c        ****     Timeout_Timer_Start();
 240              		.loc 1 136 0
 241 00f6 FFF7FEFF 		bl	Timeout_Timer_Start
 137:main.c        ****     Timeout_Timer_Isr_StartEx(Timeout_Timer_Isr_Interrupt);
 242              		.loc 1 137 0
 243 00fa 3348     		ldr	r0, .L9+16
 244 00fc FFF7FEFF 		bl	Timeout_Timer_Isr_StartEx
 138:main.c        **** 
 139:main.c        ****     /*Wiegand*/
 140:main.c        ****     Pulse_50us_Init();
 245              		.loc 1 140 0
 246 0100 FFF7FEFF 		bl	Pulse_50us_Init
 141:main.c        ****     isr_50us_StartEx(Pin_50us_Reset);
 247              		.loc 1 141 0
 248 0104 3148     		ldr	r0, .L9+20
 249 0106 FFF7FEFF 		bl	isr_50us_StartEx
 142:main.c        **** 
 143:main.c        ****     /*F2F*/
 144:main.c        ****     isr_F2F_edge_StartEx(isr_F2F_edge_Interrupt);
 250              		.loc 1 144 0
 251 010a 3148     		ldr	r0, .L9+24
 252 010c FFF7FEFF 		bl	isr_F2F_edge_StartEx
 145:main.c        ****     
 146:main.c        **** 	
 147:main.c        ****     /* Starting UART for PAC & HID */
ARM GAS  C:\Users\Rajesh\AppData\Local\Temp\ccIN6Ss3.s 			page 8


 148:main.c        ****     UART_1_Start();
 253              		.loc 1 148 0
 254 0110 FFF7FEFF 		bl	UART_1_Start
 149:main.c        ****     SU_Start(&s,1,PARITY_EVEN,1);
 255              		.loc 1 149 0
 256 0114 0123     		movs	r3, #1
 257 0116 0222     		movs	r2, #2
 258 0118 0121     		movs	r1, #1
 259 011a 2E48     		ldr	r0, .L9+28
 260 011c FFF7FEFF 		bl	SU_Start
 150:main.c        ****     
 151:main.c        ****     /* Turning off both LEDS */
 152:main.c        ****     LED_GRN_Write(OFF); // LED for signaling Output
 261              		.loc 1 152 0
 262 0120 0120     		movs	r0, #1
 263 0122 FFF7FEFF 		bl	LED_GRN_Write
 153:main.c        ****     LED_YEL_Write(OFF); // LED for signaling Input
 264              		.loc 1 153 0
 265 0126 0120     		movs	r0, #1
 266 0128 FFF7FEFF 		bl	LED_YEL_Write
 154:main.c        ****     LED_RED_Write(OFF); // turn off tamper LED
 267              		.loc 1 154 0
 268 012c 0120     		movs	r0, #1
 269 012e FFF7FEFF 		bl	LED_RED_Write
 155:main.c        ****     
 156:main.c        ****     /* Intializing the I2C Reg value */
 157:main.c        ****     MyI2C_Regs.factory_reset = 0;
 270              		.loc 1 157 0
 271 0132 294B     		ldr	r3, .L9+32
 272 0134 0022     		movs	r2, #0
 273 0136 9A71     		strb	r2, [r3, #6]
 158:main.c        ****     SetHardwareVals(TAMPERCR_POL);  // TAMPER_POL defaulted to 1 (normal config with active tamper 
 274              		.loc 1 158 0
 275 0138 0820     		movs	r0, #8
 276 013a FFF7FEFF 		bl	SetHardwareVals
 159:main.c        ****     
 160:main.c        ****     SetVersion();
 277              		.loc 1 160 0
 278 013e FFF7FEFF 		bl	SetVersion
 161:main.c        ****     
 162:main.c        ****     // initialize card reader tamper polarity bit:  1=normal
 163:main.c        ****     // This is only for TEST and must be set by webconfig/motherboard.
 164:main.c        ****     // tamperCR_polarity = 1;
 165:main.c        ****     hw_old = 0;
 279              		.loc 1 165 0
 280 0142 264B     		ldr	r3, .L9+36
 281 0144 0022     		movs	r2, #0
 282 0146 1A70     		strb	r2, [r3]
 166:main.c        ****     tp_old = 0;
 283              		.loc 1 166 0
 284 0148 254B     		ldr	r3, .L9+40
 285 014a 0022     		movs	r2, #0
 286 014c 1A70     		strb	r2, [r3]
 167:main.c        ****     TOC_port_init = 0;
 287              		.loc 1 167 0
 288 014e 254B     		ldr	r3, .L9+44
 289 0150 0022     		movs	r2, #0
ARM GAS  C:\Users\Rajesh\AppData\Local\Temp\ccIN6Ss3.s 			page 9


 290 0152 1A70     		strb	r2, [r3]
 168:main.c        ****     card_ack = 0;
 291              		.loc 1 168 0
 292 0154 244B     		ldr	r3, .L9+48
 293 0156 0022     		movs	r2, #0
 294 0158 1A60     		str	r2, [r3]
 169:main.c        ****     
 170:main.c        ****     initOSDP();
 295              		.loc 1 170 0
 296 015a FFF7FEFF 		bl	initOSDP
 171:main.c        ****     
 172:main.c        ****     /* push button */
 173:main.c        ****     buttonPressed=0;
 297              		.loc 1 173 0
 298 015e 234B     		ldr	r3, .L9+52
 299 0160 0022     		movs	r2, #0
 300 0162 1A70     		strb	r2, [r3]
 174:main.c        ****     buttonReleased=0;
 301              		.loc 1 174 0
 302 0164 224B     		ldr	r3, .L9+56
 303 0166 0022     		movs	r2, #0
 304 0168 1A70     		strb	r2, [r3]
 175:main.c        ****     buttonDuration=0;
 305              		.loc 1 175 0
 306 016a 224B     		ldr	r3, .L9+60
 307 016c 0022     		movs	r2, #0
 308 016e 1A60     		str	r2, [r3]
 176:main.c        ****     isr_SW_Rst_Start(); 
 309              		.loc 1 176 0
 310 0170 FFF7FEFF 		bl	isr_SW_Rst_Start
 177:main.c        ****       //ik  TX_EN_Write(1);
 178:main.c        **** 
 179:main.c        ****     UART_ACS_LoadRxConfig();
 311              		.loc 1 179 0
 312 0174 FFF7FEFF 		bl	UART_ACS_LoadRxConfig
 180:main.c        ****     //while(1)
 181:main.c        ****     //      UART_ACS_PutArray("test test",strlen("test test")); 
 182:main.c        ****     if (UART_ACS_GetRxBufferSize()> 0)
 313              		.loc 1 182 0
 314 0178 FFF7FEFF 		bl	UART_ACS_GetRxBufferSize
 315 017c 0346     		mov	r3, r0
 316 017e 002B     		cmp	r3, #0
 317 0180 03D0     		beq	.L6
 183:main.c        ****     {
 184:main.c        ****         tmp = UART_ACS_GetChar();
 318              		.loc 1 184 0
 319 0182 FFF7FEFF 		bl	UART_ACS_GetChar
 320 0186 0346     		mov	r3, r0
 321 0188 7B60     		str	r3, [r7, #4]
 322              	.L6:
 185:main.c        ****     }
 186:main.c        ****     POE_OIM_En(1);
 323              		.loc 1 186 0
 324 018a 0120     		movs	r0, #1
 325 018c FFF7FEFF 		bl	POE_OIM_En
 326              	.L8:
 327              	.LBB2:
ARM GAS  C:\Users\Rajesh\AppData\Local\Temp\ccIN6Ss3.s 			page 10


 187:main.c        ****     while(1)
 188:main.c        ****     {
 189:main.c        ****         static int st_div=0;
 190:main.c        ****         HandleUSB();
 328              		.loc 1 190 0
 329 0190 FFF7FEFF 		bl	HandleUSB
 191:main.c        ****         HandleCommand();
 330              		.loc 1 191 0
 331 0194 FFF7FEFF 		bl	HandleCommand
 192:main.c        ****         if ((MyI2C_Regs.status_out==0 ) && isWiegandDataReady)
 332              		.loc 1 192 0
 333 0198 0F4B     		ldr	r3, .L9+32
 334 019a 1B78     		ldrb	r3, [r3]	@ zero_extendqisi2
 335 019c 002B     		cmp	r3, #0
 336 019e F7D1     		bne	.L8
 337              		.loc 1 192 0 is_stmt 0 discriminator 1
 338 01a0 154B     		ldr	r3, .L9+64
 339 01a2 1B78     		ldrb	r3, [r3]	@ zero_extendqisi2
 340 01a4 002B     		cmp	r3, #0
 341 01a6 F3D0     		beq	.L8
 193:main.c        ****             MyI2C_Regs.status_out |= STAT_CHANGE | STAT_CARD_IN;
 342              		.loc 1 193 0 is_stmt 1
 343 01a8 0B4B     		ldr	r3, .L9+32
 344 01aa 1B78     		ldrb	r3, [r3]	@ zero_extendqisi2
 345 01ac 43F00303 		orr	r3, r3, #3
 346 01b0 DAB2     		uxtb	r2, r3
 347 01b2 094B     		ldr	r3, .L9+32
 348 01b4 1A70     		strb	r2, [r3]
 349              	.LBE2:
 194:main.c        ****         continue;
 195:main.c        ****         if (0)
 196:main.c        ****         {
 197:main.c        **** 
 198:main.c        ****             EEPROM_EraseSector(0);
 199:main.c        ****             EEPROM_WriteByte(0x55,0);
 200:main.c        ****             CySoftwareReset();
 201:main.c        ****         }
 202:main.c        ****         if (card_in_buf == 1)  // card read requires ack from motherboard
 203:main.c        ****         {
 204:main.c        ****             ack_time_cnt = 0;
 205:main.c        ****             while (card_ack == 0)   // waiting for card read acknowledge here
 206:main.c        ****             {
 207:main.c        ****                   HandleUSB();
 208:main.c        ****                 CyDelay(10);    //
 209:main.c        ****                 ack_time_cnt++;  // increment time counter every 10ms while waiting for ack
 210:main.c        ****                 if (ack_time_cnt >= 100)    //  re-notify and break.
 211:main.c        ****                 {
 212:main.c        ****                     MyI2C_Regs.status_out |= STAT_CHANGE | STAT_CARD_IN ;   // if timeout, set stat
 213:main.c        ****                     MyI2C_Regs.buffer1[11]++;
 214:main.c        ****                     break;
 215:main.c        ****                 }
 216:main.c        ****             }//while
 217:main.c        ****         } //if
 218:main.c        ****     } //main loop
 350              		.loc 1 218 0
 351 01b6 EBE7     		b	.L8
 352              	.L10:
ARM GAS  C:\Users\Rajesh\AppData\Local\Temp\ccIN6Ss3.s 			page 11


 353              		.align	2
 354              	.L9:
 355 01b8 64010000 		.word	MyI2C_Regs+356
 356 01bc 00000000 		.word	bu
 357 01c0 00000000 		.word	UART_TIMER_ISR_Interrupt
 358 01c4 00000000 		.word	Tamper_Timer_ISR_Interrupt
 359 01c8 00000000 		.word	Timeout_Timer_Isr_Interrupt
 360 01cc 00000000 		.word	Pin_50us_Reset
 361 01d0 00000000 		.word	isr_F2F_edge_Interrupt
 362 01d4 00000000 		.word	s
 363 01d8 00000000 		.word	MyI2C_Regs
 364 01dc 00000000 		.word	hw_old
 365 01e0 00000000 		.word	tp_old
 366 01e4 00000000 		.word	TOC_port_init
 367 01e8 00000000 		.word	card_ack
 368 01ec 00000000 		.word	buttonPressed
 369 01f0 00000000 		.word	buttonReleased
 370 01f4 00000000 		.word	buttonDuration
 371 01f8 00000000 		.word	isWiegandDataReady
 372              		.cfi_endproc
 373              	.LFE64:
 374              		.size	main, .-main
 375              		.bss
 376              		.align	2
 377              	st_div.7667:
 378 0004 00000000 		.space	4
 379              		.text
 380              	.Letext0:
 381              		.file 2 "c:\\program files (x86)\\cypress\\psoc creator\\4.2\\psoc creator\\import\\gnu\\arm\\5.4.
 382              		.file 3 "c:\\program files (x86)\\cypress\\psoc creator\\4.2\\psoc creator\\import\\gnu\\arm\\5.4.
 383              		.file 4 "softuart.h"
 384              		.file 5 "system.h"
 385              		.file 6 "Generated_Source\\PSoC5/core_cm3.h"
 386              		.file 7 "osdp.h"