ARM GAS  C:\Users\ilya\AppData\Local\Temp\ccoQ4V65.s 			page 1


   1              		.syntax unified
   2              		.cpu cortex-m3
   3              		.fpu softvfp
   4              		.eabi_attribute 20, 1
   5              		.eabi_attribute 21, 1
   6              		.eabi_attribute 23, 3
   7              		.eabi_attribute 24, 1
   8              		.eabi_attribute 25, 1
   9              		.eabi_attribute 26, 1
  10              		.eabi_attribute 30, 6
  11              		.eabi_attribute 34, 1
  12              		.eabi_attribute 18, 4
  13              		.thumb
  14              		.syntax unified
  15              		.file	"UART_READER.c"
  16              		.text
  17              	.Ltext0:
  18              		.cfi_sections	.debug_frame
  19              		.global	UART_READER_initVar
  20              		.bss
  21              		.type	UART_READER_initVar, %object
  22              		.size	UART_READER_initVar, 1
  23              	UART_READER_initVar:
  24 0000 00       		.space	1
  25              		.section	.text.UART_READER_Start,"ax",%progbits
  26              		.align	2
  27              		.global	UART_READER_Start
  28              		.thumb
  29              		.thumb_func
  30              		.type	UART_READER_Start, %function
  31              	UART_READER_Start:
  32              	.LFB0:
  33              		.file 1 "Generated_Source\\PSoC5\\UART_READER.c"
   1:Generated_Source\PSoC5/UART_READER.c **** /*******************************************************************************
   2:Generated_Source\PSoC5/UART_READER.c **** * File Name: UART_READER.c
   3:Generated_Source\PSoC5/UART_READER.c **** * Version 2.50
   4:Generated_Source\PSoC5/UART_READER.c **** *
   5:Generated_Source\PSoC5/UART_READER.c **** * Description:
   6:Generated_Source\PSoC5/UART_READER.c **** *  This file provides all API functionality of the UART component
   7:Generated_Source\PSoC5/UART_READER.c **** *
   8:Generated_Source\PSoC5/UART_READER.c **** * Note:
   9:Generated_Source\PSoC5/UART_READER.c **** *
  10:Generated_Source\PSoC5/UART_READER.c **** ********************************************************************************
  11:Generated_Source\PSoC5/UART_READER.c **** * Copyright 2008-2015, Cypress Semiconductor Corporation.  All rights reserved.
  12:Generated_Source\PSoC5/UART_READER.c **** * You may use this file only in accordance with the license, terms, conditions,
  13:Generated_Source\PSoC5/UART_READER.c **** * disclaimers, and limitations in the end user license agreement accompanying
  14:Generated_Source\PSoC5/UART_READER.c **** * the software package with which this file was provided.
  15:Generated_Source\PSoC5/UART_READER.c **** *******************************************************************************/
  16:Generated_Source\PSoC5/UART_READER.c **** 
  17:Generated_Source\PSoC5/UART_READER.c **** #include "UART_READER.h"
  18:Generated_Source\PSoC5/UART_READER.c **** #if (UART_READER_INTERNAL_CLOCK_USED)
  19:Generated_Source\PSoC5/UART_READER.c ****     #include "UART_READER_IntClock.h"
  20:Generated_Source\PSoC5/UART_READER.c **** #endif /* End UART_READER_INTERNAL_CLOCK_USED */
  21:Generated_Source\PSoC5/UART_READER.c **** 
  22:Generated_Source\PSoC5/UART_READER.c **** 
  23:Generated_Source\PSoC5/UART_READER.c **** /***************************************
  24:Generated_Source\PSoC5/UART_READER.c **** * Global data allocation
ARM GAS  C:\Users\ilya\AppData\Local\Temp\ccoQ4V65.s 			page 2


  25:Generated_Source\PSoC5/UART_READER.c **** ***************************************/
  26:Generated_Source\PSoC5/UART_READER.c **** 
  27:Generated_Source\PSoC5/UART_READER.c **** uint8 UART_READER_initVar = 0u;
  28:Generated_Source\PSoC5/UART_READER.c **** 
  29:Generated_Source\PSoC5/UART_READER.c **** #if (UART_READER_TX_INTERRUPT_ENABLED && UART_READER_TX_ENABLED)
  30:Generated_Source\PSoC5/UART_READER.c ****     volatile uint8 UART_READER_txBuffer[UART_READER_TX_BUFFER_SIZE];
  31:Generated_Source\PSoC5/UART_READER.c ****     volatile uint8 UART_READER_txBufferRead = 0u;
  32:Generated_Source\PSoC5/UART_READER.c ****     uint8 UART_READER_txBufferWrite = 0u;
  33:Generated_Source\PSoC5/UART_READER.c **** #endif /* (UART_READER_TX_INTERRUPT_ENABLED && UART_READER_TX_ENABLED) */
  34:Generated_Source\PSoC5/UART_READER.c **** 
  35:Generated_Source\PSoC5/UART_READER.c **** #if (UART_READER_RX_INTERRUPT_ENABLED && (UART_READER_RX_ENABLED || UART_READER_HD_ENABLED))
  36:Generated_Source\PSoC5/UART_READER.c ****     uint8 UART_READER_errorStatus = 0u;
  37:Generated_Source\PSoC5/UART_READER.c ****     volatile uint8 UART_READER_rxBuffer[UART_READER_RX_BUFFER_SIZE];
  38:Generated_Source\PSoC5/UART_READER.c ****     volatile uint8 UART_READER_rxBufferRead  = 0u;
  39:Generated_Source\PSoC5/UART_READER.c ****     volatile uint8 UART_READER_rxBufferWrite = 0u;
  40:Generated_Source\PSoC5/UART_READER.c ****     volatile uint8 UART_READER_rxBufferLoopDetect = 0u;
  41:Generated_Source\PSoC5/UART_READER.c ****     volatile uint8 UART_READER_rxBufferOverflow   = 0u;
  42:Generated_Source\PSoC5/UART_READER.c ****     #if (UART_READER_RXHW_ADDRESS_ENABLED)
  43:Generated_Source\PSoC5/UART_READER.c ****         volatile uint8 UART_READER_rxAddressMode = UART_READER_RX_ADDRESS_MODE;
  44:Generated_Source\PSoC5/UART_READER.c ****         volatile uint8 UART_READER_rxAddressDetected = 0u;
  45:Generated_Source\PSoC5/UART_READER.c ****     #endif /* (UART_READER_RXHW_ADDRESS_ENABLED) */
  46:Generated_Source\PSoC5/UART_READER.c **** #endif /* (UART_READER_RX_INTERRUPT_ENABLED && (UART_READER_RX_ENABLED || UART_READER_HD_ENABLED)) 
  47:Generated_Source\PSoC5/UART_READER.c **** 
  48:Generated_Source\PSoC5/UART_READER.c **** 
  49:Generated_Source\PSoC5/UART_READER.c **** /*******************************************************************************
  50:Generated_Source\PSoC5/UART_READER.c **** * Function Name: UART_READER_Start
  51:Generated_Source\PSoC5/UART_READER.c **** ********************************************************************************
  52:Generated_Source\PSoC5/UART_READER.c **** *
  53:Generated_Source\PSoC5/UART_READER.c **** * Summary:
  54:Generated_Source\PSoC5/UART_READER.c **** *  This is the preferred method to begin component operation.
  55:Generated_Source\PSoC5/UART_READER.c **** *  UART_READER_Start() sets the initVar variable, calls the
  56:Generated_Source\PSoC5/UART_READER.c **** *  UART_READER_Init() function, and then calls the
  57:Generated_Source\PSoC5/UART_READER.c **** *  UART_READER_Enable() function.
  58:Generated_Source\PSoC5/UART_READER.c **** *
  59:Generated_Source\PSoC5/UART_READER.c **** * Parameters:
  60:Generated_Source\PSoC5/UART_READER.c **** *  None.
  61:Generated_Source\PSoC5/UART_READER.c **** *
  62:Generated_Source\PSoC5/UART_READER.c **** * Return:
  63:Generated_Source\PSoC5/UART_READER.c **** *  None.
  64:Generated_Source\PSoC5/UART_READER.c **** *
  65:Generated_Source\PSoC5/UART_READER.c **** * Global variables:
  66:Generated_Source\PSoC5/UART_READER.c **** *  The UART_READER_intiVar variable is used to indicate initial
  67:Generated_Source\PSoC5/UART_READER.c **** *  configuration of this component. The variable is initialized to zero (0u)
  68:Generated_Source\PSoC5/UART_READER.c **** *  and set to one (1u) the first time UART_READER_Start() is called. This
  69:Generated_Source\PSoC5/UART_READER.c **** *  allows for component initialization without re-initialization in all
  70:Generated_Source\PSoC5/UART_READER.c **** *  subsequent calls to the UART_READER_Start() routine.
  71:Generated_Source\PSoC5/UART_READER.c **** *
  72:Generated_Source\PSoC5/UART_READER.c **** * Reentrant:
  73:Generated_Source\PSoC5/UART_READER.c **** *  No.
  74:Generated_Source\PSoC5/UART_READER.c **** *
  75:Generated_Source\PSoC5/UART_READER.c **** *******************************************************************************/
  76:Generated_Source\PSoC5/UART_READER.c **** void UART_READER_Start(void) 
  77:Generated_Source\PSoC5/UART_READER.c **** {
  34              		.loc 1 77 0
  35              		.cfi_startproc
  36              		@ args = 0, pretend = 0, frame = 0
  37              		@ frame_needed = 1, uses_anonymous_args = 0
ARM GAS  C:\Users\ilya\AppData\Local\Temp\ccoQ4V65.s 			page 3


  38 0000 80B5     		push	{r7, lr}
  39              		.cfi_def_cfa_offset 8
  40              		.cfi_offset 7, -8
  41              		.cfi_offset 14, -4
  42 0002 00AF     		add	r7, sp, #0
  43              		.cfi_def_cfa_register 7
  78:Generated_Source\PSoC5/UART_READER.c ****     /* If not initialized then initialize all required hardware and software */
  79:Generated_Source\PSoC5/UART_READER.c ****     if(UART_READER_initVar == 0u)
  44              		.loc 1 79 0
  45 0004 064B     		ldr	r3, .L3
  46 0006 1B78     		ldrb	r3, [r3]	@ zero_extendqisi2
  47 0008 002B     		cmp	r3, #0
  48 000a 04D1     		bne	.L2
  80:Generated_Source\PSoC5/UART_READER.c ****     {
  81:Generated_Source\PSoC5/UART_READER.c ****         UART_READER_Init();
  49              		.loc 1 81 0
  50 000c FFF7FEFF 		bl	UART_READER_Init
  82:Generated_Source\PSoC5/UART_READER.c ****         UART_READER_initVar = 1u;
  51              		.loc 1 82 0
  52 0010 034B     		ldr	r3, .L3
  53 0012 0122     		movs	r2, #1
  54 0014 1A70     		strb	r2, [r3]
  55              	.L2:
  83:Generated_Source\PSoC5/UART_READER.c ****     }
  84:Generated_Source\PSoC5/UART_READER.c **** 
  85:Generated_Source\PSoC5/UART_READER.c ****     UART_READER_Enable();
  56              		.loc 1 85 0
  57 0016 FFF7FEFF 		bl	UART_READER_Enable
  86:Generated_Source\PSoC5/UART_READER.c **** }
  58              		.loc 1 86 0
  59 001a 00BF     		nop
  60 001c 80BD     		pop	{r7, pc}
  61              	.L4:
  62 001e 00BF     		.align	2
  63              	.L3:
  64 0020 00000000 		.word	UART_READER_initVar
  65              		.cfi_endproc
  66              	.LFE0:
  67              		.size	UART_READER_Start, .-UART_READER_Start
  68              		.section	.text.UART_READER_Init,"ax",%progbits
  69              		.align	2
  70              		.global	UART_READER_Init
  71              		.thumb
  72              		.thumb_func
  73              		.type	UART_READER_Init, %function
  74              	UART_READER_Init:
  75              	.LFB1:
  87:Generated_Source\PSoC5/UART_READER.c **** 
  88:Generated_Source\PSoC5/UART_READER.c **** 
  89:Generated_Source\PSoC5/UART_READER.c **** /*******************************************************************************
  90:Generated_Source\PSoC5/UART_READER.c **** * Function Name: UART_READER_Init
  91:Generated_Source\PSoC5/UART_READER.c **** ********************************************************************************
  92:Generated_Source\PSoC5/UART_READER.c **** *
  93:Generated_Source\PSoC5/UART_READER.c **** * Summary:
  94:Generated_Source\PSoC5/UART_READER.c **** *  Initializes or restores the component according to the customizer Configure
  95:Generated_Source\PSoC5/UART_READER.c **** *  dialog settings. It is not necessary to call UART_READER_Init() because
  96:Generated_Source\PSoC5/UART_READER.c **** *  the UART_READER_Start() API calls this function and is the preferred
ARM GAS  C:\Users\ilya\AppData\Local\Temp\ccoQ4V65.s 			page 4


  97:Generated_Source\PSoC5/UART_READER.c **** *  method to begin component operation.
  98:Generated_Source\PSoC5/UART_READER.c **** *
  99:Generated_Source\PSoC5/UART_READER.c **** * Parameters:
 100:Generated_Source\PSoC5/UART_READER.c **** *  None.
 101:Generated_Source\PSoC5/UART_READER.c **** *
 102:Generated_Source\PSoC5/UART_READER.c **** * Return:
 103:Generated_Source\PSoC5/UART_READER.c **** *  None.
 104:Generated_Source\PSoC5/UART_READER.c **** *
 105:Generated_Source\PSoC5/UART_READER.c **** *******************************************************************************/
 106:Generated_Source\PSoC5/UART_READER.c **** void UART_READER_Init(void) 
 107:Generated_Source\PSoC5/UART_READER.c **** {
  76              		.loc 1 107 0
  77              		.cfi_startproc
  78              		@ args = 0, pretend = 0, frame = 0
  79              		@ frame_needed = 1, uses_anonymous_args = 0
  80              		@ link register save eliminated.
  81 0000 80B4     		push	{r7}
  82              		.cfi_def_cfa_offset 4
  83              		.cfi_offset 7, -4
  84 0002 00AF     		add	r7, sp, #0
  85              		.cfi_def_cfa_register 7
 108:Generated_Source\PSoC5/UART_READER.c ****     #if(UART_READER_RX_ENABLED || UART_READER_HD_ENABLED)
 109:Generated_Source\PSoC5/UART_READER.c **** 
 110:Generated_Source\PSoC5/UART_READER.c ****         #if (UART_READER_RX_INTERRUPT_ENABLED)
 111:Generated_Source\PSoC5/UART_READER.c ****             /* Set RX interrupt vector and priority */
 112:Generated_Source\PSoC5/UART_READER.c ****             (void) CyIntSetVector(UART_READER_RX_VECT_NUM, &UART_READER_RXISR);
 113:Generated_Source\PSoC5/UART_READER.c ****             CyIntSetPriority(UART_READER_RX_VECT_NUM, UART_READER_RX_PRIOR_NUM);
 114:Generated_Source\PSoC5/UART_READER.c ****             UART_READER_errorStatus = 0u;
 115:Generated_Source\PSoC5/UART_READER.c ****         #endif /* (UART_READER_RX_INTERRUPT_ENABLED) */
 116:Generated_Source\PSoC5/UART_READER.c **** 
 117:Generated_Source\PSoC5/UART_READER.c ****         #if (UART_READER_RXHW_ADDRESS_ENABLED)
 118:Generated_Source\PSoC5/UART_READER.c ****             UART_READER_SetRxAddressMode(UART_READER_RX_ADDRESS_MODE);
 119:Generated_Source\PSoC5/UART_READER.c ****             UART_READER_SetRxAddress1(UART_READER_RX_HW_ADDRESS1);
 120:Generated_Source\PSoC5/UART_READER.c ****             UART_READER_SetRxAddress2(UART_READER_RX_HW_ADDRESS2);
 121:Generated_Source\PSoC5/UART_READER.c ****         #endif /* End UART_READER_RXHW_ADDRESS_ENABLED */
 122:Generated_Source\PSoC5/UART_READER.c **** 
 123:Generated_Source\PSoC5/UART_READER.c ****         /* Init Count7 period */
 124:Generated_Source\PSoC5/UART_READER.c ****         UART_READER_RXBITCTR_PERIOD_REG = UART_READER_RXBITCTR_INIT;
  86              		.loc 1 124 0
  87 0004 044B     		ldr	r3, .L6
  88 0006 7222     		movs	r2, #114
  89 0008 1A70     		strb	r2, [r3]
 125:Generated_Source\PSoC5/UART_READER.c ****         /* Configure the Initial RX interrupt mask */
 126:Generated_Source\PSoC5/UART_READER.c ****         UART_READER_RXSTATUS_MASK_REG  = UART_READER_INIT_RX_INTERRUPTS_MASK;
  90              		.loc 1 126 0
  91 000a 044B     		ldr	r3, .L6+4
  92 000c 2022     		movs	r2, #32
  93 000e 1A70     		strb	r2, [r3]
 127:Generated_Source\PSoC5/UART_READER.c ****     #endif /* End UART_READER_RX_ENABLED || UART_READER_HD_ENABLED*/
 128:Generated_Source\PSoC5/UART_READER.c **** 
 129:Generated_Source\PSoC5/UART_READER.c ****     #if(UART_READER_TX_ENABLED)
 130:Generated_Source\PSoC5/UART_READER.c ****         #if (UART_READER_TX_INTERRUPT_ENABLED)
 131:Generated_Source\PSoC5/UART_READER.c ****             /* Set TX interrupt vector and priority */
 132:Generated_Source\PSoC5/UART_READER.c ****             (void) CyIntSetVector(UART_READER_TX_VECT_NUM, &UART_READER_TXISR);
 133:Generated_Source\PSoC5/UART_READER.c ****             CyIntSetPriority(UART_READER_TX_VECT_NUM, UART_READER_TX_PRIOR_NUM);
 134:Generated_Source\PSoC5/UART_READER.c ****         #endif /* (UART_READER_TX_INTERRUPT_ENABLED) */
 135:Generated_Source\PSoC5/UART_READER.c **** 
ARM GAS  C:\Users\ilya\AppData\Local\Temp\ccoQ4V65.s 			page 5


 136:Generated_Source\PSoC5/UART_READER.c ****         /* Write Counter Value for TX Bit Clk Generator*/
 137:Generated_Source\PSoC5/UART_READER.c ****         #if (UART_READER_TXCLKGEN_DP)
 138:Generated_Source\PSoC5/UART_READER.c ****             UART_READER_TXBITCLKGEN_CTR_REG = UART_READER_BIT_CENTER;
 139:Generated_Source\PSoC5/UART_READER.c ****             UART_READER_TXBITCLKTX_COMPLETE_REG = ((UART_READER_NUMBER_OF_DATA_BITS +
 140:Generated_Source\PSoC5/UART_READER.c ****                         UART_READER_NUMBER_OF_START_BIT) * UART_READER_OVER_SAMPLE_COUNT) - 1u;
 141:Generated_Source\PSoC5/UART_READER.c ****         #else
 142:Generated_Source\PSoC5/UART_READER.c ****             UART_READER_TXBITCTR_PERIOD_REG = ((UART_READER_NUMBER_OF_DATA_BITS +
 143:Generated_Source\PSoC5/UART_READER.c ****                         UART_READER_NUMBER_OF_START_BIT) * UART_READER_OVER_SAMPLE_8) - 1u;
 144:Generated_Source\PSoC5/UART_READER.c ****         #endif /* End UART_READER_TXCLKGEN_DP */
 145:Generated_Source\PSoC5/UART_READER.c **** 
 146:Generated_Source\PSoC5/UART_READER.c ****         /* Configure the Initial TX interrupt mask */
 147:Generated_Source\PSoC5/UART_READER.c ****         #if (UART_READER_TX_INTERRUPT_ENABLED)
 148:Generated_Source\PSoC5/UART_READER.c ****             UART_READER_TXSTATUS_MASK_REG = UART_READER_TX_STS_FIFO_EMPTY;
 149:Generated_Source\PSoC5/UART_READER.c ****         #else
 150:Generated_Source\PSoC5/UART_READER.c ****             UART_READER_TXSTATUS_MASK_REG = UART_READER_INIT_TX_INTERRUPTS_MASK;
 151:Generated_Source\PSoC5/UART_READER.c ****         #endif /*End UART_READER_TX_INTERRUPT_ENABLED*/
 152:Generated_Source\PSoC5/UART_READER.c **** 
 153:Generated_Source\PSoC5/UART_READER.c ****     #endif /* End UART_READER_TX_ENABLED */
 154:Generated_Source\PSoC5/UART_READER.c **** 
 155:Generated_Source\PSoC5/UART_READER.c ****     #if(UART_READER_PARITY_TYPE_SW)  /* Write Parity to Control Register */
 156:Generated_Source\PSoC5/UART_READER.c ****         UART_READER_WriteControlRegister( \
 157:Generated_Source\PSoC5/UART_READER.c ****             (UART_READER_ReadControlRegister() & (uint8)~UART_READER_CTRL_PARITY_TYPE_MASK) | \
 158:Generated_Source\PSoC5/UART_READER.c ****             (uint8)(UART_READER_PARITY_TYPE << UART_READER_CTRL_PARITY_TYPE0_SHIFT) );
 159:Generated_Source\PSoC5/UART_READER.c ****     #endif /* End UART_READER_PARITY_TYPE_SW */
 160:Generated_Source\PSoC5/UART_READER.c **** }
  94              		.loc 1 160 0
  95 0010 00BF     		nop
  96 0012 BD46     		mov	sp, r7
  97              		.cfi_def_cfa_register 13
  98              		@ sp needed
  99 0014 80BC     		pop	{r7}
 100              		.cfi_restore 7
 101              		.cfi_def_cfa_offset 0
 102 0016 7047     		bx	lr
 103              	.L7:
 104              		.align	2
 105              	.L6:
 106 0018 8B650040 		.word	1073767819
 107 001c 87650040 		.word	1073767815
 108              		.cfi_endproc
 109              	.LFE1:
 110              		.size	UART_READER_Init, .-UART_READER_Init
 111              		.section	.text.UART_READER_Enable,"ax",%progbits
 112              		.align	2
 113              		.global	UART_READER_Enable
 114              		.thumb
 115              		.thumb_func
 116              		.type	UART_READER_Enable, %function
 117              	UART_READER_Enable:
 118              	.LFB2:
 161:Generated_Source\PSoC5/UART_READER.c **** 
 162:Generated_Source\PSoC5/UART_READER.c **** 
 163:Generated_Source\PSoC5/UART_READER.c **** /*******************************************************************************
 164:Generated_Source\PSoC5/UART_READER.c **** * Function Name: UART_READER_Enable
 165:Generated_Source\PSoC5/UART_READER.c **** ********************************************************************************
 166:Generated_Source\PSoC5/UART_READER.c **** *
 167:Generated_Source\PSoC5/UART_READER.c **** * Summary:
ARM GAS  C:\Users\ilya\AppData\Local\Temp\ccoQ4V65.s 			page 6


 168:Generated_Source\PSoC5/UART_READER.c **** *  Activates the hardware and begins component operation. It is not necessary
 169:Generated_Source\PSoC5/UART_READER.c **** *  to call UART_READER_Enable() because the UART_READER_Start() API
 170:Generated_Source\PSoC5/UART_READER.c **** *  calls this function, which is the preferred method to begin component
 171:Generated_Source\PSoC5/UART_READER.c **** *  operation.
 172:Generated_Source\PSoC5/UART_READER.c **** 
 173:Generated_Source\PSoC5/UART_READER.c **** * Parameters:
 174:Generated_Source\PSoC5/UART_READER.c **** *  None.
 175:Generated_Source\PSoC5/UART_READER.c **** *
 176:Generated_Source\PSoC5/UART_READER.c **** * Return:
 177:Generated_Source\PSoC5/UART_READER.c **** *  None.
 178:Generated_Source\PSoC5/UART_READER.c **** *
 179:Generated_Source\PSoC5/UART_READER.c **** * Global Variables:
 180:Generated_Source\PSoC5/UART_READER.c **** *  UART_READER_rxAddressDetected - set to initial state (0).
 181:Generated_Source\PSoC5/UART_READER.c **** *
 182:Generated_Source\PSoC5/UART_READER.c **** *******************************************************************************/
 183:Generated_Source\PSoC5/UART_READER.c **** void UART_READER_Enable(void) 
 184:Generated_Source\PSoC5/UART_READER.c **** {
 119              		.loc 1 184 0
 120              		.cfi_startproc
 121              		@ args = 0, pretend = 0, frame = 8
 122              		@ frame_needed = 1, uses_anonymous_args = 0
 123 0000 80B5     		push	{r7, lr}
 124              		.cfi_def_cfa_offset 8
 125              		.cfi_offset 7, -8
 126              		.cfi_offset 14, -4
 127 0002 82B0     		sub	sp, sp, #8
 128              		.cfi_def_cfa_offset 16
 129 0004 00AF     		add	r7, sp, #0
 130              		.cfi_def_cfa_register 7
 185:Generated_Source\PSoC5/UART_READER.c ****     uint8 enableInterrupts;
 186:Generated_Source\PSoC5/UART_READER.c ****     enableInterrupts = CyEnterCriticalSection();
 131              		.loc 1 186 0
 132 0006 FFF7FEFF 		bl	CyEnterCriticalSection
 133 000a 0346     		mov	r3, r0
 134 000c FB71     		strb	r3, [r7, #7]
 187:Generated_Source\PSoC5/UART_READER.c **** 
 188:Generated_Source\PSoC5/UART_READER.c ****     #if (UART_READER_RX_ENABLED || UART_READER_HD_ENABLED)
 189:Generated_Source\PSoC5/UART_READER.c ****         /* RX Counter (Count7) Enable */
 190:Generated_Source\PSoC5/UART_READER.c ****         UART_READER_RXBITCTR_CONTROL_REG |= UART_READER_CNTR_ENABLE;
 135              		.loc 1 190 0
 136 000e 0C4A     		ldr	r2, .L9
 137 0010 0B4B     		ldr	r3, .L9
 138 0012 1B78     		ldrb	r3, [r3]
 139 0014 DBB2     		uxtb	r3, r3
 140 0016 43F02003 		orr	r3, r3, #32
 141 001a DBB2     		uxtb	r3, r3
 142 001c 1370     		strb	r3, [r2]
 191:Generated_Source\PSoC5/UART_READER.c **** 
 192:Generated_Source\PSoC5/UART_READER.c ****         /* Enable the RX Interrupt */
 193:Generated_Source\PSoC5/UART_READER.c ****         UART_READER_RXSTATUS_ACTL_REG  |= UART_READER_INT_ENABLE;
 143              		.loc 1 193 0
 144 001e 094A     		ldr	r2, .L9+4
 145 0020 084B     		ldr	r3, .L9+4
 146 0022 1B78     		ldrb	r3, [r3]
 147 0024 DBB2     		uxtb	r3, r3
 148 0026 43F01003 		orr	r3, r3, #16
 149 002a DBB2     		uxtb	r3, r3
ARM GAS  C:\Users\ilya\AppData\Local\Temp\ccoQ4V65.s 			page 7


 150 002c 1370     		strb	r3, [r2]
 194:Generated_Source\PSoC5/UART_READER.c **** 
 195:Generated_Source\PSoC5/UART_READER.c ****         #if (UART_READER_RX_INTERRUPT_ENABLED)
 196:Generated_Source\PSoC5/UART_READER.c ****             UART_READER_EnableRxInt();
 197:Generated_Source\PSoC5/UART_READER.c **** 
 198:Generated_Source\PSoC5/UART_READER.c ****             #if (UART_READER_RXHW_ADDRESS_ENABLED)
 199:Generated_Source\PSoC5/UART_READER.c ****                 UART_READER_rxAddressDetected = 0u;
 200:Generated_Source\PSoC5/UART_READER.c ****             #endif /* (UART_READER_RXHW_ADDRESS_ENABLED) */
 201:Generated_Source\PSoC5/UART_READER.c ****         #endif /* (UART_READER_RX_INTERRUPT_ENABLED) */
 202:Generated_Source\PSoC5/UART_READER.c ****     #endif /* (UART_READER_RX_ENABLED || UART_READER_HD_ENABLED) */
 203:Generated_Source\PSoC5/UART_READER.c **** 
 204:Generated_Source\PSoC5/UART_READER.c ****     #if(UART_READER_TX_ENABLED)
 205:Generated_Source\PSoC5/UART_READER.c ****         /* TX Counter (DP/Count7) Enable */
 206:Generated_Source\PSoC5/UART_READER.c ****         #if(!UART_READER_TXCLKGEN_DP)
 207:Generated_Source\PSoC5/UART_READER.c ****             UART_READER_TXBITCTR_CONTROL_REG |= UART_READER_CNTR_ENABLE;
 208:Generated_Source\PSoC5/UART_READER.c ****         #endif /* End UART_READER_TXCLKGEN_DP */
 209:Generated_Source\PSoC5/UART_READER.c **** 
 210:Generated_Source\PSoC5/UART_READER.c ****         /* Enable the TX Interrupt */
 211:Generated_Source\PSoC5/UART_READER.c ****         UART_READER_TXSTATUS_ACTL_REG |= UART_READER_INT_ENABLE;
 212:Generated_Source\PSoC5/UART_READER.c ****         #if (UART_READER_TX_INTERRUPT_ENABLED)
 213:Generated_Source\PSoC5/UART_READER.c ****             UART_READER_ClearPendingTxInt(); /* Clear history of TX_NOT_EMPTY */
 214:Generated_Source\PSoC5/UART_READER.c ****             UART_READER_EnableTxInt();
 215:Generated_Source\PSoC5/UART_READER.c ****         #endif /* (UART_READER_TX_INTERRUPT_ENABLED) */
 216:Generated_Source\PSoC5/UART_READER.c ****      #endif /* (UART_READER_TX_INTERRUPT_ENABLED) */
 217:Generated_Source\PSoC5/UART_READER.c **** 
 218:Generated_Source\PSoC5/UART_READER.c ****     #if (UART_READER_INTERNAL_CLOCK_USED)
 219:Generated_Source\PSoC5/UART_READER.c ****         UART_READER_IntClock_Start();  /* Enable the clock */
 220:Generated_Source\PSoC5/UART_READER.c ****     #endif /* (UART_READER_INTERNAL_CLOCK_USED) */
 221:Generated_Source\PSoC5/UART_READER.c **** 
 222:Generated_Source\PSoC5/UART_READER.c ****     CyExitCriticalSection(enableInterrupts);
 151              		.loc 1 222 0
 152 002e FB79     		ldrb	r3, [r7, #7]	@ zero_extendqisi2
 153 0030 1846     		mov	r0, r3
 154 0032 FFF7FEFF 		bl	CyExitCriticalSection
 223:Generated_Source\PSoC5/UART_READER.c **** }
 155              		.loc 1 223 0
 156 0036 00BF     		nop
 157 0038 0837     		adds	r7, r7, #8
 158              		.cfi_def_cfa_offset 8
 159 003a BD46     		mov	sp, r7
 160              		.cfi_def_cfa_register 13
 161              		@ sp needed
 162 003c 80BD     		pop	{r7, pc}
 163              	.L10:
 164 003e 00BF     		.align	2
 165              	.L9:
 166 0040 9B650040 		.word	1073767835
 167 0044 97650040 		.word	1073767831
 168              		.cfi_endproc
 169              	.LFE2:
 170              		.size	UART_READER_Enable, .-UART_READER_Enable
 171              		.section	.text.UART_READER_Stop,"ax",%progbits
 172              		.align	2
 173              		.global	UART_READER_Stop
 174              		.thumb
 175              		.thumb_func
 176              		.type	UART_READER_Stop, %function
ARM GAS  C:\Users\ilya\AppData\Local\Temp\ccoQ4V65.s 			page 8


 177              	UART_READER_Stop:
 178              	.LFB3:
 224:Generated_Source\PSoC5/UART_READER.c **** 
 225:Generated_Source\PSoC5/UART_READER.c **** 
 226:Generated_Source\PSoC5/UART_READER.c **** /*******************************************************************************
 227:Generated_Source\PSoC5/UART_READER.c **** * Function Name: UART_READER_Stop
 228:Generated_Source\PSoC5/UART_READER.c **** ********************************************************************************
 229:Generated_Source\PSoC5/UART_READER.c **** *
 230:Generated_Source\PSoC5/UART_READER.c **** * Summary:
 231:Generated_Source\PSoC5/UART_READER.c **** *  Disables the UART operation.
 232:Generated_Source\PSoC5/UART_READER.c **** *
 233:Generated_Source\PSoC5/UART_READER.c **** * Parameters:
 234:Generated_Source\PSoC5/UART_READER.c **** *  None.
 235:Generated_Source\PSoC5/UART_READER.c **** *
 236:Generated_Source\PSoC5/UART_READER.c **** * Return:
 237:Generated_Source\PSoC5/UART_READER.c **** *  None.
 238:Generated_Source\PSoC5/UART_READER.c **** *
 239:Generated_Source\PSoC5/UART_READER.c **** *******************************************************************************/
 240:Generated_Source\PSoC5/UART_READER.c **** void UART_READER_Stop(void) 
 241:Generated_Source\PSoC5/UART_READER.c **** {
 179              		.loc 1 241 0
 180              		.cfi_startproc
 181              		@ args = 0, pretend = 0, frame = 8
 182              		@ frame_needed = 1, uses_anonymous_args = 0
 183 0000 80B5     		push	{r7, lr}
 184              		.cfi_def_cfa_offset 8
 185              		.cfi_offset 7, -8
 186              		.cfi_offset 14, -4
 187 0002 82B0     		sub	sp, sp, #8
 188              		.cfi_def_cfa_offset 16
 189 0004 00AF     		add	r7, sp, #0
 190              		.cfi_def_cfa_register 7
 242:Generated_Source\PSoC5/UART_READER.c ****     uint8 enableInterrupts;
 243:Generated_Source\PSoC5/UART_READER.c ****     enableInterrupts = CyEnterCriticalSection();
 191              		.loc 1 243 0
 192 0006 FFF7FEFF 		bl	CyEnterCriticalSection
 193 000a 0346     		mov	r3, r0
 194 000c FB71     		strb	r3, [r7, #7]
 244:Generated_Source\PSoC5/UART_READER.c **** 
 245:Generated_Source\PSoC5/UART_READER.c ****     /* Write Bit Counter Disable */
 246:Generated_Source\PSoC5/UART_READER.c ****     #if (UART_READER_RX_ENABLED || UART_READER_HD_ENABLED)
 247:Generated_Source\PSoC5/UART_READER.c ****         UART_READER_RXBITCTR_CONTROL_REG &= (uint8) ~UART_READER_CNTR_ENABLE;
 195              		.loc 1 247 0
 196 000e 0C4A     		ldr	r2, .L12
 197 0010 0B4B     		ldr	r3, .L12
 198 0012 1B78     		ldrb	r3, [r3]
 199 0014 DBB2     		uxtb	r3, r3
 200 0016 23F02003 		bic	r3, r3, #32
 201 001a DBB2     		uxtb	r3, r3
 202 001c 1370     		strb	r3, [r2]
 248:Generated_Source\PSoC5/UART_READER.c ****     #endif /* (UART_READER_RX_ENABLED || UART_READER_HD_ENABLED) */
 249:Generated_Source\PSoC5/UART_READER.c **** 
 250:Generated_Source\PSoC5/UART_READER.c ****     #if (UART_READER_TX_ENABLED)
 251:Generated_Source\PSoC5/UART_READER.c ****         #if(!UART_READER_TXCLKGEN_DP)
 252:Generated_Source\PSoC5/UART_READER.c ****             UART_READER_TXBITCTR_CONTROL_REG &= (uint8) ~UART_READER_CNTR_ENABLE;
 253:Generated_Source\PSoC5/UART_READER.c ****         #endif /* (!UART_READER_TXCLKGEN_DP) */
 254:Generated_Source\PSoC5/UART_READER.c ****     #endif /* (UART_READER_TX_ENABLED) */
ARM GAS  C:\Users\ilya\AppData\Local\Temp\ccoQ4V65.s 			page 9


 255:Generated_Source\PSoC5/UART_READER.c **** 
 256:Generated_Source\PSoC5/UART_READER.c ****     #if (UART_READER_INTERNAL_CLOCK_USED)
 257:Generated_Source\PSoC5/UART_READER.c ****         UART_READER_IntClock_Stop();   /* Disable the clock */
 258:Generated_Source\PSoC5/UART_READER.c ****     #endif /* (UART_READER_INTERNAL_CLOCK_USED) */
 259:Generated_Source\PSoC5/UART_READER.c **** 
 260:Generated_Source\PSoC5/UART_READER.c ****     /* Disable internal interrupt component */
 261:Generated_Source\PSoC5/UART_READER.c ****     #if (UART_READER_RX_ENABLED || UART_READER_HD_ENABLED)
 262:Generated_Source\PSoC5/UART_READER.c ****         UART_READER_RXSTATUS_ACTL_REG  &= (uint8) ~UART_READER_INT_ENABLE;
 203              		.loc 1 262 0
 204 001e 094A     		ldr	r2, .L12+4
 205 0020 084B     		ldr	r3, .L12+4
 206 0022 1B78     		ldrb	r3, [r3]
 207 0024 DBB2     		uxtb	r3, r3
 208 0026 23F01003 		bic	r3, r3, #16
 209 002a DBB2     		uxtb	r3, r3
 210 002c 1370     		strb	r3, [r2]
 263:Generated_Source\PSoC5/UART_READER.c **** 
 264:Generated_Source\PSoC5/UART_READER.c ****         #if (UART_READER_RX_INTERRUPT_ENABLED)
 265:Generated_Source\PSoC5/UART_READER.c ****             UART_READER_DisableRxInt();
 266:Generated_Source\PSoC5/UART_READER.c ****         #endif /* (UART_READER_RX_INTERRUPT_ENABLED) */
 267:Generated_Source\PSoC5/UART_READER.c ****     #endif /* (UART_READER_RX_ENABLED || UART_READER_HD_ENABLED) */
 268:Generated_Source\PSoC5/UART_READER.c **** 
 269:Generated_Source\PSoC5/UART_READER.c ****     #if (UART_READER_TX_ENABLED)
 270:Generated_Source\PSoC5/UART_READER.c ****         UART_READER_TXSTATUS_ACTL_REG &= (uint8) ~UART_READER_INT_ENABLE;
 271:Generated_Source\PSoC5/UART_READER.c **** 
 272:Generated_Source\PSoC5/UART_READER.c ****         #if (UART_READER_TX_INTERRUPT_ENABLED)
 273:Generated_Source\PSoC5/UART_READER.c ****             UART_READER_DisableTxInt();
 274:Generated_Source\PSoC5/UART_READER.c ****         #endif /* (UART_READER_TX_INTERRUPT_ENABLED) */
 275:Generated_Source\PSoC5/UART_READER.c ****     #endif /* (UART_READER_TX_ENABLED) */
 276:Generated_Source\PSoC5/UART_READER.c **** 
 277:Generated_Source\PSoC5/UART_READER.c ****     CyExitCriticalSection(enableInterrupts);
 211              		.loc 1 277 0
 212 002e FB79     		ldrb	r3, [r7, #7]	@ zero_extendqisi2
 213 0030 1846     		mov	r0, r3
 214 0032 FFF7FEFF 		bl	CyExitCriticalSection
 278:Generated_Source\PSoC5/UART_READER.c **** }
 215              		.loc 1 278 0
 216 0036 00BF     		nop
 217 0038 0837     		adds	r7, r7, #8
 218              		.cfi_def_cfa_offset 8
 219 003a BD46     		mov	sp, r7
 220              		.cfi_def_cfa_register 13
 221              		@ sp needed
 222 003c 80BD     		pop	{r7, pc}
 223              	.L13:
 224 003e 00BF     		.align	2
 225              	.L12:
 226 0040 9B650040 		.word	1073767835
 227 0044 97650040 		.word	1073767831
 228              		.cfi_endproc
 229              	.LFE3:
 230              		.size	UART_READER_Stop, .-UART_READER_Stop
 231              		.section	.text.UART_READER_ReadControlRegister,"ax",%progbits
 232              		.align	2
 233              		.global	UART_READER_ReadControlRegister
 234              		.thumb
 235              		.thumb_func
ARM GAS  C:\Users\ilya\AppData\Local\Temp\ccoQ4V65.s 			page 10


 236              		.type	UART_READER_ReadControlRegister, %function
 237              	UART_READER_ReadControlRegister:
 238              	.LFB4:
 279:Generated_Source\PSoC5/UART_READER.c **** 
 280:Generated_Source\PSoC5/UART_READER.c **** 
 281:Generated_Source\PSoC5/UART_READER.c **** /*******************************************************************************
 282:Generated_Source\PSoC5/UART_READER.c **** * Function Name: UART_READER_ReadControlRegister
 283:Generated_Source\PSoC5/UART_READER.c **** ********************************************************************************
 284:Generated_Source\PSoC5/UART_READER.c **** *
 285:Generated_Source\PSoC5/UART_READER.c **** * Summary:
 286:Generated_Source\PSoC5/UART_READER.c **** *  Returns the current value of the control register.
 287:Generated_Source\PSoC5/UART_READER.c **** *
 288:Generated_Source\PSoC5/UART_READER.c **** * Parameters:
 289:Generated_Source\PSoC5/UART_READER.c **** *  None.
 290:Generated_Source\PSoC5/UART_READER.c **** *
 291:Generated_Source\PSoC5/UART_READER.c **** * Return:
 292:Generated_Source\PSoC5/UART_READER.c **** *  Contents of the control register.
 293:Generated_Source\PSoC5/UART_READER.c **** *
 294:Generated_Source\PSoC5/UART_READER.c **** *******************************************************************************/
 295:Generated_Source\PSoC5/UART_READER.c **** uint8 UART_READER_ReadControlRegister(void) 
 296:Generated_Source\PSoC5/UART_READER.c **** {
 239              		.loc 1 296 0
 240              		.cfi_startproc
 241              		@ args = 0, pretend = 0, frame = 0
 242              		@ frame_needed = 1, uses_anonymous_args = 0
 243              		@ link register save eliminated.
 244 0000 80B4     		push	{r7}
 245              		.cfi_def_cfa_offset 4
 246              		.cfi_offset 7, -4
 247 0002 00AF     		add	r7, sp, #0
 248              		.cfi_def_cfa_register 7
 297:Generated_Source\PSoC5/UART_READER.c ****     #if (UART_READER_CONTROL_REG_REMOVED)
 298:Generated_Source\PSoC5/UART_READER.c ****         return(0u);
 299:Generated_Source\PSoC5/UART_READER.c ****     #else
 300:Generated_Source\PSoC5/UART_READER.c ****         return(UART_READER_CONTROL_REG);
 249              		.loc 1 300 0
 250 0004 034B     		ldr	r3, .L16
 251 0006 1B78     		ldrb	r3, [r3]
 252 0008 DBB2     		uxtb	r3, r3
 301:Generated_Source\PSoC5/UART_READER.c ****     #endif /* (UART_READER_CONTROL_REG_REMOVED) */
 302:Generated_Source\PSoC5/UART_READER.c **** }
 253              		.loc 1 302 0
 254 000a 1846     		mov	r0, r3
 255 000c BD46     		mov	sp, r7
 256              		.cfi_def_cfa_register 13
 257              		@ sp needed
 258 000e 80BC     		pop	{r7}
 259              		.cfi_restore 7
 260              		.cfi_def_cfa_offset 0
 261 0010 7047     		bx	lr
 262              	.L17:
 263 0012 00BF     		.align	2
 264              	.L16:
 265 0014 78650040 		.word	1073767800
 266              		.cfi_endproc
 267              	.LFE4:
 268              		.size	UART_READER_ReadControlRegister, .-UART_READER_ReadControlRegister
ARM GAS  C:\Users\ilya\AppData\Local\Temp\ccoQ4V65.s 			page 11


 269              		.section	.text.UART_READER_WriteControlRegister,"ax",%progbits
 270              		.align	2
 271              		.global	UART_READER_WriteControlRegister
 272              		.thumb
 273              		.thumb_func
 274              		.type	UART_READER_WriteControlRegister, %function
 275              	UART_READER_WriteControlRegister:
 276              	.LFB5:
 303:Generated_Source\PSoC5/UART_READER.c **** 
 304:Generated_Source\PSoC5/UART_READER.c **** 
 305:Generated_Source\PSoC5/UART_READER.c **** /*******************************************************************************
 306:Generated_Source\PSoC5/UART_READER.c **** * Function Name: UART_READER_WriteControlRegister
 307:Generated_Source\PSoC5/UART_READER.c **** ********************************************************************************
 308:Generated_Source\PSoC5/UART_READER.c **** *
 309:Generated_Source\PSoC5/UART_READER.c **** * Summary:
 310:Generated_Source\PSoC5/UART_READER.c **** *  Writes an 8-bit value into the control register
 311:Generated_Source\PSoC5/UART_READER.c **** *
 312:Generated_Source\PSoC5/UART_READER.c **** * Parameters:
 313:Generated_Source\PSoC5/UART_READER.c **** *  control:  control register value
 314:Generated_Source\PSoC5/UART_READER.c **** *
 315:Generated_Source\PSoC5/UART_READER.c **** * Return:
 316:Generated_Source\PSoC5/UART_READER.c **** *  None.
 317:Generated_Source\PSoC5/UART_READER.c **** *
 318:Generated_Source\PSoC5/UART_READER.c **** *******************************************************************************/
 319:Generated_Source\PSoC5/UART_READER.c **** void  UART_READER_WriteControlRegister(uint8 control) 
 320:Generated_Source\PSoC5/UART_READER.c **** {
 277              		.loc 1 320 0
 278              		.cfi_startproc
 279              		@ args = 0, pretend = 0, frame = 8
 280              		@ frame_needed = 1, uses_anonymous_args = 0
 281              		@ link register save eliminated.
 282 0000 80B4     		push	{r7}
 283              		.cfi_def_cfa_offset 4
 284              		.cfi_offset 7, -4
 285 0002 83B0     		sub	sp, sp, #12
 286              		.cfi_def_cfa_offset 16
 287 0004 00AF     		add	r7, sp, #0
 288              		.cfi_def_cfa_register 7
 289 0006 0346     		mov	r3, r0
 290 0008 FB71     		strb	r3, [r7, #7]
 321:Generated_Source\PSoC5/UART_READER.c ****     #if (UART_READER_CONTROL_REG_REMOVED)
 322:Generated_Source\PSoC5/UART_READER.c ****         if(0u != control)
 323:Generated_Source\PSoC5/UART_READER.c ****         {
 324:Generated_Source\PSoC5/UART_READER.c ****             /* Suppress compiler warning */
 325:Generated_Source\PSoC5/UART_READER.c ****         }
 326:Generated_Source\PSoC5/UART_READER.c ****     #else
 327:Generated_Source\PSoC5/UART_READER.c ****        UART_READER_CONTROL_REG = control;
 291              		.loc 1 327 0
 292 000a 044A     		ldr	r2, .L19
 293 000c FB79     		ldrb	r3, [r7, #7]
 294 000e 1370     		strb	r3, [r2]
 328:Generated_Source\PSoC5/UART_READER.c ****     #endif /* (UART_READER_CONTROL_REG_REMOVED) */
 329:Generated_Source\PSoC5/UART_READER.c **** }
 295              		.loc 1 329 0
 296 0010 00BF     		nop
 297 0012 0C37     		adds	r7, r7, #12
 298              		.cfi_def_cfa_offset 4
ARM GAS  C:\Users\ilya\AppData\Local\Temp\ccoQ4V65.s 			page 12


 299 0014 BD46     		mov	sp, r7
 300              		.cfi_def_cfa_register 13
 301              		@ sp needed
 302 0016 80BC     		pop	{r7}
 303              		.cfi_restore 7
 304              		.cfi_def_cfa_offset 0
 305 0018 7047     		bx	lr
 306              	.L20:
 307 001a 00BF     		.align	2
 308              	.L19:
 309 001c 78650040 		.word	1073767800
 310              		.cfi_endproc
 311              	.LFE5:
 312              		.size	UART_READER_WriteControlRegister, .-UART_READER_WriteControlRegister
 313              		.section	.text.UART_READER_SetRxInterruptMode,"ax",%progbits
 314              		.align	2
 315              		.global	UART_READER_SetRxInterruptMode
 316              		.thumb
 317              		.thumb_func
 318              		.type	UART_READER_SetRxInterruptMode, %function
 319              	UART_READER_SetRxInterruptMode:
 320              	.LFB6:
 330:Generated_Source\PSoC5/UART_READER.c **** 
 331:Generated_Source\PSoC5/UART_READER.c **** 
 332:Generated_Source\PSoC5/UART_READER.c **** #if(UART_READER_RX_ENABLED || UART_READER_HD_ENABLED)
 333:Generated_Source\PSoC5/UART_READER.c ****     /*******************************************************************************
 334:Generated_Source\PSoC5/UART_READER.c ****     * Function Name: UART_READER_SetRxInterruptMode
 335:Generated_Source\PSoC5/UART_READER.c ****     ********************************************************************************
 336:Generated_Source\PSoC5/UART_READER.c ****     *
 337:Generated_Source\PSoC5/UART_READER.c ****     * Summary:
 338:Generated_Source\PSoC5/UART_READER.c ****     *  Configures the RX interrupt sources enabled.
 339:Generated_Source\PSoC5/UART_READER.c ****     *
 340:Generated_Source\PSoC5/UART_READER.c ****     * Parameters:
 341:Generated_Source\PSoC5/UART_READER.c ****     *  IntSrc:  Bit field containing the RX interrupts to enable. Based on the 
 342:Generated_Source\PSoC5/UART_READER.c ****     *  bit-field arrangement of the status register. This value must be a 
 343:Generated_Source\PSoC5/UART_READER.c ****     *  combination of status register bit-masks shown below:
 344:Generated_Source\PSoC5/UART_READER.c ****     *      UART_READER_RX_STS_FIFO_NOTEMPTY    Interrupt on byte received.
 345:Generated_Source\PSoC5/UART_READER.c ****     *      UART_READER_RX_STS_PAR_ERROR        Interrupt on parity error.
 346:Generated_Source\PSoC5/UART_READER.c ****     *      UART_READER_RX_STS_STOP_ERROR       Interrupt on stop error.
 347:Generated_Source\PSoC5/UART_READER.c ****     *      UART_READER_RX_STS_BREAK            Interrupt on break.
 348:Generated_Source\PSoC5/UART_READER.c ****     *      UART_READER_RX_STS_OVERRUN          Interrupt on overrun error.
 349:Generated_Source\PSoC5/UART_READER.c ****     *      UART_READER_RX_STS_ADDR_MATCH       Interrupt on address match.
 350:Generated_Source\PSoC5/UART_READER.c ****     *      UART_READER_RX_STS_MRKSPC           Interrupt on address detect.
 351:Generated_Source\PSoC5/UART_READER.c ****     *
 352:Generated_Source\PSoC5/UART_READER.c ****     * Return:
 353:Generated_Source\PSoC5/UART_READER.c ****     *  None.
 354:Generated_Source\PSoC5/UART_READER.c ****     *
 355:Generated_Source\PSoC5/UART_READER.c ****     * Theory:
 356:Generated_Source\PSoC5/UART_READER.c ****     *  Enables the output of specific status bits to the interrupt controller
 357:Generated_Source\PSoC5/UART_READER.c ****     *
 358:Generated_Source\PSoC5/UART_READER.c ****     *******************************************************************************/
 359:Generated_Source\PSoC5/UART_READER.c ****     void UART_READER_SetRxInterruptMode(uint8 intSrc) 
 360:Generated_Source\PSoC5/UART_READER.c ****     {
 321              		.loc 1 360 0
 322              		.cfi_startproc
 323              		@ args = 0, pretend = 0, frame = 8
 324              		@ frame_needed = 1, uses_anonymous_args = 0
ARM GAS  C:\Users\ilya\AppData\Local\Temp\ccoQ4V65.s 			page 13


 325              		@ link register save eliminated.
 326 0000 80B4     		push	{r7}
 327              		.cfi_def_cfa_offset 4
 328              		.cfi_offset 7, -4
 329 0002 83B0     		sub	sp, sp, #12
 330              		.cfi_def_cfa_offset 16
 331 0004 00AF     		add	r7, sp, #0
 332              		.cfi_def_cfa_register 7
 333 0006 0346     		mov	r3, r0
 334 0008 FB71     		strb	r3, [r7, #7]
 361:Generated_Source\PSoC5/UART_READER.c ****         UART_READER_RXSTATUS_MASK_REG  = intSrc;
 335              		.loc 1 361 0
 336 000a 044A     		ldr	r2, .L22
 337 000c FB79     		ldrb	r3, [r7, #7]
 338 000e 1370     		strb	r3, [r2]
 362:Generated_Source\PSoC5/UART_READER.c ****     }
 339              		.loc 1 362 0
 340 0010 00BF     		nop
 341 0012 0C37     		adds	r7, r7, #12
 342              		.cfi_def_cfa_offset 4
 343 0014 BD46     		mov	sp, r7
 344              		.cfi_def_cfa_register 13
 345              		@ sp needed
 346 0016 80BC     		pop	{r7}
 347              		.cfi_restore 7
 348              		.cfi_def_cfa_offset 0
 349 0018 7047     		bx	lr
 350              	.L23:
 351 001a 00BF     		.align	2
 352              	.L22:
 353 001c 87650040 		.word	1073767815
 354              		.cfi_endproc
 355              	.LFE6:
 356              		.size	UART_READER_SetRxInterruptMode, .-UART_READER_SetRxInterruptMode
 357              		.section	.text.UART_READER_ReadRxData,"ax",%progbits
 358              		.align	2
 359              		.global	UART_READER_ReadRxData
 360              		.thumb
 361              		.thumb_func
 362              		.type	UART_READER_ReadRxData, %function
 363              	UART_READER_ReadRxData:
 364              	.LFB7:
 363:Generated_Source\PSoC5/UART_READER.c **** 
 364:Generated_Source\PSoC5/UART_READER.c **** 
 365:Generated_Source\PSoC5/UART_READER.c ****     /*******************************************************************************
 366:Generated_Source\PSoC5/UART_READER.c ****     * Function Name: UART_READER_ReadRxData
 367:Generated_Source\PSoC5/UART_READER.c ****     ********************************************************************************
 368:Generated_Source\PSoC5/UART_READER.c ****     *
 369:Generated_Source\PSoC5/UART_READER.c ****     * Summary:
 370:Generated_Source\PSoC5/UART_READER.c ****     *  Returns the next byte of received data. This function returns data without
 371:Generated_Source\PSoC5/UART_READER.c ****     *  checking the status. You must check the status separately.
 372:Generated_Source\PSoC5/UART_READER.c ****     *
 373:Generated_Source\PSoC5/UART_READER.c ****     * Parameters:
 374:Generated_Source\PSoC5/UART_READER.c ****     *  None.
 375:Generated_Source\PSoC5/UART_READER.c ****     *
 376:Generated_Source\PSoC5/UART_READER.c ****     * Return:
 377:Generated_Source\PSoC5/UART_READER.c ****     *  Received data from RX register
ARM GAS  C:\Users\ilya\AppData\Local\Temp\ccoQ4V65.s 			page 14


 378:Generated_Source\PSoC5/UART_READER.c ****     *
 379:Generated_Source\PSoC5/UART_READER.c ****     * Global Variables:
 380:Generated_Source\PSoC5/UART_READER.c ****     *  UART_READER_rxBuffer - RAM buffer pointer for save received data.
 381:Generated_Source\PSoC5/UART_READER.c ****     *  UART_READER_rxBufferWrite - cyclic index for write to rxBuffer,
 382:Generated_Source\PSoC5/UART_READER.c ****     *     checked to identify new data.
 383:Generated_Source\PSoC5/UART_READER.c ****     *  UART_READER_rxBufferRead - cyclic index for read from rxBuffer,
 384:Generated_Source\PSoC5/UART_READER.c ****     *     incremented after each byte has been read from buffer.
 385:Generated_Source\PSoC5/UART_READER.c ****     *  UART_READER_rxBufferLoopDetect - cleared if loop condition was detected
 386:Generated_Source\PSoC5/UART_READER.c ****     *     in RX ISR.
 387:Generated_Source\PSoC5/UART_READER.c ****     *
 388:Generated_Source\PSoC5/UART_READER.c ****     * Reentrant:
 389:Generated_Source\PSoC5/UART_READER.c ****     *  No.
 390:Generated_Source\PSoC5/UART_READER.c ****     *
 391:Generated_Source\PSoC5/UART_READER.c ****     *******************************************************************************/
 392:Generated_Source\PSoC5/UART_READER.c ****     uint8 UART_READER_ReadRxData(void) 
 393:Generated_Source\PSoC5/UART_READER.c ****     {
 365              		.loc 1 393 0
 366              		.cfi_startproc
 367              		@ args = 0, pretend = 0, frame = 8
 368              		@ frame_needed = 1, uses_anonymous_args = 0
 369              		@ link register save eliminated.
 370 0000 80B4     		push	{r7}
 371              		.cfi_def_cfa_offset 4
 372              		.cfi_offset 7, -4
 373 0002 83B0     		sub	sp, sp, #12
 374              		.cfi_def_cfa_offset 16
 375 0004 00AF     		add	r7, sp, #0
 376              		.cfi_def_cfa_register 7
 394:Generated_Source\PSoC5/UART_READER.c ****         uint8 rxData;
 395:Generated_Source\PSoC5/UART_READER.c **** 
 396:Generated_Source\PSoC5/UART_READER.c ****     #if (UART_READER_RX_INTERRUPT_ENABLED)
 397:Generated_Source\PSoC5/UART_READER.c **** 
 398:Generated_Source\PSoC5/UART_READER.c ****         uint8 locRxBufferRead;
 399:Generated_Source\PSoC5/UART_READER.c ****         uint8 locRxBufferWrite;
 400:Generated_Source\PSoC5/UART_READER.c **** 
 401:Generated_Source\PSoC5/UART_READER.c ****         /* Protect variables that could change on interrupt */
 402:Generated_Source\PSoC5/UART_READER.c ****         UART_READER_DisableRxInt();
 403:Generated_Source\PSoC5/UART_READER.c **** 
 404:Generated_Source\PSoC5/UART_READER.c ****         locRxBufferRead  = UART_READER_rxBufferRead;
 405:Generated_Source\PSoC5/UART_READER.c ****         locRxBufferWrite = UART_READER_rxBufferWrite;
 406:Generated_Source\PSoC5/UART_READER.c **** 
 407:Generated_Source\PSoC5/UART_READER.c ****         if( (UART_READER_rxBufferLoopDetect != 0u) || (locRxBufferRead != locRxBufferWrite) )
 408:Generated_Source\PSoC5/UART_READER.c ****         {
 409:Generated_Source\PSoC5/UART_READER.c ****             rxData = UART_READER_rxBuffer[locRxBufferRead];
 410:Generated_Source\PSoC5/UART_READER.c ****             locRxBufferRead++;
 411:Generated_Source\PSoC5/UART_READER.c **** 
 412:Generated_Source\PSoC5/UART_READER.c ****             if(locRxBufferRead >= UART_READER_RX_BUFFER_SIZE)
 413:Generated_Source\PSoC5/UART_READER.c ****             {
 414:Generated_Source\PSoC5/UART_READER.c ****                 locRxBufferRead = 0u;
 415:Generated_Source\PSoC5/UART_READER.c ****             }
 416:Generated_Source\PSoC5/UART_READER.c ****             /* Update the real pointer */
 417:Generated_Source\PSoC5/UART_READER.c ****             UART_READER_rxBufferRead = locRxBufferRead;
 418:Generated_Source\PSoC5/UART_READER.c **** 
 419:Generated_Source\PSoC5/UART_READER.c ****             if(UART_READER_rxBufferLoopDetect != 0u)
 420:Generated_Source\PSoC5/UART_READER.c ****             {
 421:Generated_Source\PSoC5/UART_READER.c ****                 UART_READER_rxBufferLoopDetect = 0u;
 422:Generated_Source\PSoC5/UART_READER.c ****                 #if ((UART_READER_RX_INTERRUPT_ENABLED) && (UART_READER_FLOW_CONTROL != 0u))
ARM GAS  C:\Users\ilya\AppData\Local\Temp\ccoQ4V65.s 			page 15


 423:Generated_Source\PSoC5/UART_READER.c ****                     /* When Hardware Flow Control selected - return RX mask */
 424:Generated_Source\PSoC5/UART_READER.c ****                     #if( UART_READER_HD_ENABLED )
 425:Generated_Source\PSoC5/UART_READER.c ****                         if((UART_READER_CONTROL_REG & UART_READER_CTRL_HD_SEND) == 0u)
 426:Generated_Source\PSoC5/UART_READER.c ****                         {   /* In Half duplex mode return RX mask only in RX
 427:Generated_Source\PSoC5/UART_READER.c ****                             *  configuration set, otherwise
 428:Generated_Source\PSoC5/UART_READER.c ****                             *  mask will be returned in LoadRxConfig() API.
 429:Generated_Source\PSoC5/UART_READER.c ****                             */
 430:Generated_Source\PSoC5/UART_READER.c ****                             UART_READER_RXSTATUS_MASK_REG  |= UART_READER_RX_STS_FIFO_NOTEMPTY;
 431:Generated_Source\PSoC5/UART_READER.c ****                         }
 432:Generated_Source\PSoC5/UART_READER.c ****                     #else
 433:Generated_Source\PSoC5/UART_READER.c ****                         UART_READER_RXSTATUS_MASK_REG  |= UART_READER_RX_STS_FIFO_NOTEMPTY;
 434:Generated_Source\PSoC5/UART_READER.c ****                     #endif /* end UART_READER_HD_ENABLED */
 435:Generated_Source\PSoC5/UART_READER.c ****                 #endif /* ((UART_READER_RX_INTERRUPT_ENABLED) && (UART_READER_FLOW_CONTROL != 0u)) 
 436:Generated_Source\PSoC5/UART_READER.c ****             }
 437:Generated_Source\PSoC5/UART_READER.c ****         }
 438:Generated_Source\PSoC5/UART_READER.c ****         else
 439:Generated_Source\PSoC5/UART_READER.c ****         {   /* Needs to check status for RX_STS_FIFO_NOTEMPTY bit */
 440:Generated_Source\PSoC5/UART_READER.c ****             rxData = UART_READER_RXDATA_REG;
 441:Generated_Source\PSoC5/UART_READER.c ****         }
 442:Generated_Source\PSoC5/UART_READER.c **** 
 443:Generated_Source\PSoC5/UART_READER.c ****         UART_READER_EnableRxInt();
 444:Generated_Source\PSoC5/UART_READER.c **** 
 445:Generated_Source\PSoC5/UART_READER.c ****     #else
 446:Generated_Source\PSoC5/UART_READER.c **** 
 447:Generated_Source\PSoC5/UART_READER.c ****         /* Needs to check status for RX_STS_FIFO_NOTEMPTY bit */
 448:Generated_Source\PSoC5/UART_READER.c ****         rxData = UART_READER_RXDATA_REG;
 377              		.loc 1 448 0
 378 0006 044B     		ldr	r3, .L26
 379 0008 1B78     		ldrb	r3, [r3]
 380 000a FB71     		strb	r3, [r7, #7]
 449:Generated_Source\PSoC5/UART_READER.c **** 
 450:Generated_Source\PSoC5/UART_READER.c ****     #endif /* (UART_READER_RX_INTERRUPT_ENABLED) */
 451:Generated_Source\PSoC5/UART_READER.c **** 
 452:Generated_Source\PSoC5/UART_READER.c ****         return(rxData);
 381              		.loc 1 452 0
 382 000c FB79     		ldrb	r3, [r7, #7]	@ zero_extendqisi2
 453:Generated_Source\PSoC5/UART_READER.c ****     }
 383              		.loc 1 453 0
 384 000e 1846     		mov	r0, r3
 385 0010 0C37     		adds	r7, r7, #12
 386              		.cfi_def_cfa_offset 4
 387 0012 BD46     		mov	sp, r7
 388              		.cfi_def_cfa_register 13
 389              		@ sp needed
 390 0014 80BC     		pop	{r7}
 391              		.cfi_restore 7
 392              		.cfi_def_cfa_offset 0
 393 0016 7047     		bx	lr
 394              	.L27:
 395              		.align	2
 396              	.L26:
 397 0018 48650040 		.word	1073767752
 398              		.cfi_endproc
 399              	.LFE7:
 400              		.size	UART_READER_ReadRxData, .-UART_READER_ReadRxData
 401              		.section	.text.UART_READER_ReadRxStatus,"ax",%progbits
 402              		.align	2
ARM GAS  C:\Users\ilya\AppData\Local\Temp\ccoQ4V65.s 			page 16


 403              		.global	UART_READER_ReadRxStatus
 404              		.thumb
 405              		.thumb_func
 406              		.type	UART_READER_ReadRxStatus, %function
 407              	UART_READER_ReadRxStatus:
 408              	.LFB8:
 454:Generated_Source\PSoC5/UART_READER.c **** 
 455:Generated_Source\PSoC5/UART_READER.c **** 
 456:Generated_Source\PSoC5/UART_READER.c ****     /*******************************************************************************
 457:Generated_Source\PSoC5/UART_READER.c ****     * Function Name: UART_READER_ReadRxStatus
 458:Generated_Source\PSoC5/UART_READER.c ****     ********************************************************************************
 459:Generated_Source\PSoC5/UART_READER.c ****     *
 460:Generated_Source\PSoC5/UART_READER.c ****     * Summary:
 461:Generated_Source\PSoC5/UART_READER.c ****     *  Returns the current state of the receiver status register and the software
 462:Generated_Source\PSoC5/UART_READER.c ****     *  buffer overflow status.
 463:Generated_Source\PSoC5/UART_READER.c ****     *
 464:Generated_Source\PSoC5/UART_READER.c ****     * Parameters:
 465:Generated_Source\PSoC5/UART_READER.c ****     *  None.
 466:Generated_Source\PSoC5/UART_READER.c ****     *
 467:Generated_Source\PSoC5/UART_READER.c ****     * Return:
 468:Generated_Source\PSoC5/UART_READER.c ****     *  Current state of the status register.
 469:Generated_Source\PSoC5/UART_READER.c ****     *
 470:Generated_Source\PSoC5/UART_READER.c ****     * Side Effect:
 471:Generated_Source\PSoC5/UART_READER.c ****     *  All status register bits are clear-on-read except
 472:Generated_Source\PSoC5/UART_READER.c ****     *  UART_READER_RX_STS_FIFO_NOTEMPTY.
 473:Generated_Source\PSoC5/UART_READER.c ****     *  UART_READER_RX_STS_FIFO_NOTEMPTY clears immediately after RX data
 474:Generated_Source\PSoC5/UART_READER.c ****     *  register read.
 475:Generated_Source\PSoC5/UART_READER.c ****     *
 476:Generated_Source\PSoC5/UART_READER.c ****     * Global Variables:
 477:Generated_Source\PSoC5/UART_READER.c ****     *  UART_READER_rxBufferOverflow - used to indicate overload condition.
 478:Generated_Source\PSoC5/UART_READER.c ****     *   It set to one in RX interrupt when there isn't free space in
 479:Generated_Source\PSoC5/UART_READER.c ****     *   UART_READER_rxBufferRead to write new data. This condition returned
 480:Generated_Source\PSoC5/UART_READER.c ****     *   and cleared to zero by this API as an
 481:Generated_Source\PSoC5/UART_READER.c ****     *   UART_READER_RX_STS_SOFT_BUFF_OVER bit along with RX Status register
 482:Generated_Source\PSoC5/UART_READER.c ****     *   bits.
 483:Generated_Source\PSoC5/UART_READER.c ****     *
 484:Generated_Source\PSoC5/UART_READER.c ****     *******************************************************************************/
 485:Generated_Source\PSoC5/UART_READER.c ****     uint8 UART_READER_ReadRxStatus(void) 
 486:Generated_Source\PSoC5/UART_READER.c ****     {
 409              		.loc 1 486 0
 410              		.cfi_startproc
 411              		@ args = 0, pretend = 0, frame = 8
 412              		@ frame_needed = 1, uses_anonymous_args = 0
 413              		@ link register save eliminated.
 414 0000 80B4     		push	{r7}
 415              		.cfi_def_cfa_offset 4
 416              		.cfi_offset 7, -4
 417 0002 83B0     		sub	sp, sp, #12
 418              		.cfi_def_cfa_offset 16
 419 0004 00AF     		add	r7, sp, #0
 420              		.cfi_def_cfa_register 7
 487:Generated_Source\PSoC5/UART_READER.c ****         uint8 status;
 488:Generated_Source\PSoC5/UART_READER.c **** 
 489:Generated_Source\PSoC5/UART_READER.c ****         status = UART_READER_RXSTATUS_REG & UART_READER_RX_HW_MASK;
 421              		.loc 1 489 0
 422 0006 064B     		ldr	r3, .L30
 423 0008 1B78     		ldrb	r3, [r3]
ARM GAS  C:\Users\ilya\AppData\Local\Temp\ccoQ4V65.s 			page 17


 424 000a DBB2     		uxtb	r3, r3
 425 000c 03F07F03 		and	r3, r3, #127
 426 0010 FB71     		strb	r3, [r7, #7]
 490:Generated_Source\PSoC5/UART_READER.c **** 
 491:Generated_Source\PSoC5/UART_READER.c ****     #if (UART_READER_RX_INTERRUPT_ENABLED)
 492:Generated_Source\PSoC5/UART_READER.c ****         if(UART_READER_rxBufferOverflow != 0u)
 493:Generated_Source\PSoC5/UART_READER.c ****         {
 494:Generated_Source\PSoC5/UART_READER.c ****             status |= UART_READER_RX_STS_SOFT_BUFF_OVER;
 495:Generated_Source\PSoC5/UART_READER.c ****             UART_READER_rxBufferOverflow = 0u;
 496:Generated_Source\PSoC5/UART_READER.c ****         }
 497:Generated_Source\PSoC5/UART_READER.c ****     #endif /* (UART_READER_RX_INTERRUPT_ENABLED) */
 498:Generated_Source\PSoC5/UART_READER.c **** 
 499:Generated_Source\PSoC5/UART_READER.c ****         return(status);
 427              		.loc 1 499 0
 428 0012 FB79     		ldrb	r3, [r7, #7]	@ zero_extendqisi2
 500:Generated_Source\PSoC5/UART_READER.c ****     }
 429              		.loc 1 500 0
 430 0014 1846     		mov	r0, r3
 431 0016 0C37     		adds	r7, r7, #12
 432              		.cfi_def_cfa_offset 4
 433 0018 BD46     		mov	sp, r7
 434              		.cfi_def_cfa_register 13
 435              		@ sp needed
 436 001a 80BC     		pop	{r7}
 437              		.cfi_restore 7
 438              		.cfi_def_cfa_offset 0
 439 001c 7047     		bx	lr
 440              	.L31:
 441 001e 00BF     		.align	2
 442              	.L30:
 443 0020 67650040 		.word	1073767783
 444              		.cfi_endproc
 445              	.LFE8:
 446              		.size	UART_READER_ReadRxStatus, .-UART_READER_ReadRxStatus
 447              		.section	.text.UART_READER_GetChar,"ax",%progbits
 448              		.align	2
 449              		.global	UART_READER_GetChar
 450              		.thumb
 451              		.thumb_func
 452              		.type	UART_READER_GetChar, %function
 453              	UART_READER_GetChar:
 454              	.LFB9:
 501:Generated_Source\PSoC5/UART_READER.c **** 
 502:Generated_Source\PSoC5/UART_READER.c **** 
 503:Generated_Source\PSoC5/UART_READER.c ****     /*******************************************************************************
 504:Generated_Source\PSoC5/UART_READER.c ****     * Function Name: UART_READER_GetChar
 505:Generated_Source\PSoC5/UART_READER.c ****     ********************************************************************************
 506:Generated_Source\PSoC5/UART_READER.c ****     *
 507:Generated_Source\PSoC5/UART_READER.c ****     * Summary:
 508:Generated_Source\PSoC5/UART_READER.c ****     *  Returns the last received byte of data. UART_READER_GetChar() is
 509:Generated_Source\PSoC5/UART_READER.c ****     *  designed for ASCII characters and returns a uint8 where 1 to 255 are values
 510:Generated_Source\PSoC5/UART_READER.c ****     *  for valid characters and 0 indicates an error occurred or no data is present.
 511:Generated_Source\PSoC5/UART_READER.c ****     *
 512:Generated_Source\PSoC5/UART_READER.c ****     * Parameters:
 513:Generated_Source\PSoC5/UART_READER.c ****     *  None.
 514:Generated_Source\PSoC5/UART_READER.c ****     *
 515:Generated_Source\PSoC5/UART_READER.c ****     * Return:
ARM GAS  C:\Users\ilya\AppData\Local\Temp\ccoQ4V65.s 			page 18


 516:Generated_Source\PSoC5/UART_READER.c ****     *  Character read from UART RX buffer. ASCII characters from 1 to 255 are valid.
 517:Generated_Source\PSoC5/UART_READER.c ****     *  A returned zero signifies an error condition or no data available.
 518:Generated_Source\PSoC5/UART_READER.c ****     *
 519:Generated_Source\PSoC5/UART_READER.c ****     * Global Variables:
 520:Generated_Source\PSoC5/UART_READER.c ****     *  UART_READER_rxBuffer - RAM buffer pointer for save received data.
 521:Generated_Source\PSoC5/UART_READER.c ****     *  UART_READER_rxBufferWrite - cyclic index for write to rxBuffer,
 522:Generated_Source\PSoC5/UART_READER.c ****     *     checked to identify new data.
 523:Generated_Source\PSoC5/UART_READER.c ****     *  UART_READER_rxBufferRead - cyclic index for read from rxBuffer,
 524:Generated_Source\PSoC5/UART_READER.c ****     *     incremented after each byte has been read from buffer.
 525:Generated_Source\PSoC5/UART_READER.c ****     *  UART_READER_rxBufferLoopDetect - cleared if loop condition was detected
 526:Generated_Source\PSoC5/UART_READER.c ****     *     in RX ISR.
 527:Generated_Source\PSoC5/UART_READER.c ****     *
 528:Generated_Source\PSoC5/UART_READER.c ****     * Reentrant:
 529:Generated_Source\PSoC5/UART_READER.c ****     *  No.
 530:Generated_Source\PSoC5/UART_READER.c ****     *
 531:Generated_Source\PSoC5/UART_READER.c ****     *******************************************************************************/
 532:Generated_Source\PSoC5/UART_READER.c ****     uint8 UART_READER_GetChar(void) 
 533:Generated_Source\PSoC5/UART_READER.c ****     {
 455              		.loc 1 533 0
 456              		.cfi_startproc
 457              		@ args = 0, pretend = 0, frame = 8
 458              		@ frame_needed = 1, uses_anonymous_args = 0
 459              		@ link register save eliminated.
 460 0000 80B4     		push	{r7}
 461              		.cfi_def_cfa_offset 4
 462              		.cfi_offset 7, -4
 463 0002 83B0     		sub	sp, sp, #12
 464              		.cfi_def_cfa_offset 16
 465 0004 00AF     		add	r7, sp, #0
 466              		.cfi_def_cfa_register 7
 534:Generated_Source\PSoC5/UART_READER.c ****         uint8 rxData = 0u;
 467              		.loc 1 534 0
 468 0006 0023     		movs	r3, #0
 469 0008 FB71     		strb	r3, [r7, #7]
 535:Generated_Source\PSoC5/UART_READER.c ****         uint8 rxStatus;
 536:Generated_Source\PSoC5/UART_READER.c **** 
 537:Generated_Source\PSoC5/UART_READER.c ****     #if (UART_READER_RX_INTERRUPT_ENABLED)
 538:Generated_Source\PSoC5/UART_READER.c ****         uint8 locRxBufferRead;
 539:Generated_Source\PSoC5/UART_READER.c ****         uint8 locRxBufferWrite;
 540:Generated_Source\PSoC5/UART_READER.c **** 
 541:Generated_Source\PSoC5/UART_READER.c ****         /* Protect variables that could change on interrupt */
 542:Generated_Source\PSoC5/UART_READER.c ****         UART_READER_DisableRxInt();
 543:Generated_Source\PSoC5/UART_READER.c **** 
 544:Generated_Source\PSoC5/UART_READER.c ****         locRxBufferRead  = UART_READER_rxBufferRead;
 545:Generated_Source\PSoC5/UART_READER.c ****         locRxBufferWrite = UART_READER_rxBufferWrite;
 546:Generated_Source\PSoC5/UART_READER.c **** 
 547:Generated_Source\PSoC5/UART_READER.c ****         if( (UART_READER_rxBufferLoopDetect != 0u) || (locRxBufferRead != locRxBufferWrite) )
 548:Generated_Source\PSoC5/UART_READER.c ****         {
 549:Generated_Source\PSoC5/UART_READER.c ****             rxData = UART_READER_rxBuffer[locRxBufferRead];
 550:Generated_Source\PSoC5/UART_READER.c ****             locRxBufferRead++;
 551:Generated_Source\PSoC5/UART_READER.c ****             if(locRxBufferRead >= UART_READER_RX_BUFFER_SIZE)
 552:Generated_Source\PSoC5/UART_READER.c ****             {
 553:Generated_Source\PSoC5/UART_READER.c ****                 locRxBufferRead = 0u;
 554:Generated_Source\PSoC5/UART_READER.c ****             }
 555:Generated_Source\PSoC5/UART_READER.c ****             /* Update the real pointer */
 556:Generated_Source\PSoC5/UART_READER.c ****             UART_READER_rxBufferRead = locRxBufferRead;
 557:Generated_Source\PSoC5/UART_READER.c **** 
ARM GAS  C:\Users\ilya\AppData\Local\Temp\ccoQ4V65.s 			page 19


 558:Generated_Source\PSoC5/UART_READER.c ****             if(UART_READER_rxBufferLoopDetect != 0u)
 559:Generated_Source\PSoC5/UART_READER.c ****             {
 560:Generated_Source\PSoC5/UART_READER.c ****                 UART_READER_rxBufferLoopDetect = 0u;
 561:Generated_Source\PSoC5/UART_READER.c ****                 #if( (UART_READER_RX_INTERRUPT_ENABLED) && (UART_READER_FLOW_CONTROL != 0u) )
 562:Generated_Source\PSoC5/UART_READER.c ****                     /* When Hardware Flow Control selected - return RX mask */
 563:Generated_Source\PSoC5/UART_READER.c ****                     #if( UART_READER_HD_ENABLED )
 564:Generated_Source\PSoC5/UART_READER.c ****                         if((UART_READER_CONTROL_REG & UART_READER_CTRL_HD_SEND) == 0u)
 565:Generated_Source\PSoC5/UART_READER.c ****                         {   /* In Half duplex mode return RX mask only if
 566:Generated_Source\PSoC5/UART_READER.c ****                             *  RX configuration set, otherwise
 567:Generated_Source\PSoC5/UART_READER.c ****                             *  mask will be returned in LoadRxConfig() API.
 568:Generated_Source\PSoC5/UART_READER.c ****                             */
 569:Generated_Source\PSoC5/UART_READER.c ****                             UART_READER_RXSTATUS_MASK_REG |= UART_READER_RX_STS_FIFO_NOTEMPTY;
 570:Generated_Source\PSoC5/UART_READER.c ****                         }
 571:Generated_Source\PSoC5/UART_READER.c ****                     #else
 572:Generated_Source\PSoC5/UART_READER.c ****                         UART_READER_RXSTATUS_MASK_REG |= UART_READER_RX_STS_FIFO_NOTEMPTY;
 573:Generated_Source\PSoC5/UART_READER.c ****                     #endif /* end UART_READER_HD_ENABLED */
 574:Generated_Source\PSoC5/UART_READER.c ****                 #endif /* UART_READER_RX_INTERRUPT_ENABLED and Hardware flow control*/
 575:Generated_Source\PSoC5/UART_READER.c ****             }
 576:Generated_Source\PSoC5/UART_READER.c **** 
 577:Generated_Source\PSoC5/UART_READER.c ****         }
 578:Generated_Source\PSoC5/UART_READER.c ****         else
 579:Generated_Source\PSoC5/UART_READER.c ****         {   rxStatus = UART_READER_RXSTATUS_REG;
 580:Generated_Source\PSoC5/UART_READER.c ****             if((rxStatus & UART_READER_RX_STS_FIFO_NOTEMPTY) != 0u)
 581:Generated_Source\PSoC5/UART_READER.c ****             {   /* Read received data from FIFO */
 582:Generated_Source\PSoC5/UART_READER.c ****                 rxData = UART_READER_RXDATA_REG;
 583:Generated_Source\PSoC5/UART_READER.c ****                 /*Check status on error*/
 584:Generated_Source\PSoC5/UART_READER.c ****                 if((rxStatus & (UART_READER_RX_STS_BREAK | UART_READER_RX_STS_PAR_ERROR |
 585:Generated_Source\PSoC5/UART_READER.c ****                                 UART_READER_RX_STS_STOP_ERROR | UART_READER_RX_STS_OVERRUN)) != 0u)
 586:Generated_Source\PSoC5/UART_READER.c ****                 {
 587:Generated_Source\PSoC5/UART_READER.c ****                     rxData = 0u;
 588:Generated_Source\PSoC5/UART_READER.c ****                 }
 589:Generated_Source\PSoC5/UART_READER.c ****             }
 590:Generated_Source\PSoC5/UART_READER.c ****         }
 591:Generated_Source\PSoC5/UART_READER.c **** 
 592:Generated_Source\PSoC5/UART_READER.c ****         UART_READER_EnableRxInt();
 593:Generated_Source\PSoC5/UART_READER.c **** 
 594:Generated_Source\PSoC5/UART_READER.c ****     #else
 595:Generated_Source\PSoC5/UART_READER.c **** 
 596:Generated_Source\PSoC5/UART_READER.c ****         rxStatus =UART_READER_RXSTATUS_REG;
 470              		.loc 1 596 0
 471 000a 0C4B     		ldr	r3, .L35
 472 000c 1B78     		ldrb	r3, [r3]
 473 000e BB71     		strb	r3, [r7, #6]
 597:Generated_Source\PSoC5/UART_READER.c ****         if((rxStatus & UART_READER_RX_STS_FIFO_NOTEMPTY) != 0u)
 474              		.loc 1 597 0
 475 0010 BB79     		ldrb	r3, [r7, #6]	@ zero_extendqisi2
 476 0012 03F02003 		and	r3, r3, #32
 477 0016 002B     		cmp	r3, #0
 478 0018 09D0     		beq	.L33
 598:Generated_Source\PSoC5/UART_READER.c ****         {
 599:Generated_Source\PSoC5/UART_READER.c ****             /* Read received data from FIFO */
 600:Generated_Source\PSoC5/UART_READER.c ****             rxData = UART_READER_RXDATA_REG;
 479              		.loc 1 600 0
 480 001a 094B     		ldr	r3, .L35+4
 481 001c 1B78     		ldrb	r3, [r3]
 482 001e FB71     		strb	r3, [r7, #7]
 601:Generated_Source\PSoC5/UART_READER.c **** 
ARM GAS  C:\Users\ilya\AppData\Local\Temp\ccoQ4V65.s 			page 20


 602:Generated_Source\PSoC5/UART_READER.c ****             /*Check status on error*/
 603:Generated_Source\PSoC5/UART_READER.c ****             if((rxStatus & (UART_READER_RX_STS_BREAK | UART_READER_RX_STS_PAR_ERROR |
 604:Generated_Source\PSoC5/UART_READER.c ****                             UART_READER_RX_STS_STOP_ERROR | UART_READER_RX_STS_OVERRUN)) != 0u)
 483              		.loc 1 604 0
 484 0020 BB79     		ldrb	r3, [r7, #6]	@ zero_extendqisi2
 485 0022 03F01E03 		and	r3, r3, #30
 603:Generated_Source\PSoC5/UART_READER.c ****                             UART_READER_RX_STS_STOP_ERROR | UART_READER_RX_STS_OVERRUN)) != 0u)
 486              		.loc 1 603 0
 487 0026 002B     		cmp	r3, #0
 488 0028 01D0     		beq	.L33
 605:Generated_Source\PSoC5/UART_READER.c ****             {
 606:Generated_Source\PSoC5/UART_READER.c ****                 rxData = 0u;
 489              		.loc 1 606 0
 490 002a 0023     		movs	r3, #0
 491 002c FB71     		strb	r3, [r7, #7]
 492              	.L33:
 607:Generated_Source\PSoC5/UART_READER.c ****             }
 608:Generated_Source\PSoC5/UART_READER.c ****         }
 609:Generated_Source\PSoC5/UART_READER.c ****     #endif /* (UART_READER_RX_INTERRUPT_ENABLED) */
 610:Generated_Source\PSoC5/UART_READER.c **** 
 611:Generated_Source\PSoC5/UART_READER.c ****         return(rxData);
 493              		.loc 1 611 0
 494 002e FB79     		ldrb	r3, [r7, #7]	@ zero_extendqisi2
 612:Generated_Source\PSoC5/UART_READER.c ****     }
 495              		.loc 1 612 0
 496 0030 1846     		mov	r0, r3
 497 0032 0C37     		adds	r7, r7, #12
 498              		.cfi_def_cfa_offset 4
 499 0034 BD46     		mov	sp, r7
 500              		.cfi_def_cfa_register 13
 501              		@ sp needed
 502 0036 80BC     		pop	{r7}
 503              		.cfi_restore 7
 504              		.cfi_def_cfa_offset 0
 505 0038 7047     		bx	lr
 506              	.L36:
 507 003a 00BF     		.align	2
 508              	.L35:
 509 003c 67650040 		.word	1073767783
 510 0040 48650040 		.word	1073767752
 511              		.cfi_endproc
 512              	.LFE9:
 513              		.size	UART_READER_GetChar, .-UART_READER_GetChar
 514              		.section	.text.UART_READER_GetByte,"ax",%progbits
 515              		.align	2
 516              		.global	UART_READER_GetByte
 517              		.thumb
 518              		.thumb_func
 519              		.type	UART_READER_GetByte, %function
 520              	UART_READER_GetByte:
 521              	.LFB10:
 613:Generated_Source\PSoC5/UART_READER.c **** 
 614:Generated_Source\PSoC5/UART_READER.c **** 
 615:Generated_Source\PSoC5/UART_READER.c ****     /*******************************************************************************
 616:Generated_Source\PSoC5/UART_READER.c ****     * Function Name: UART_READER_GetByte
 617:Generated_Source\PSoC5/UART_READER.c ****     ********************************************************************************
 618:Generated_Source\PSoC5/UART_READER.c ****     *
ARM GAS  C:\Users\ilya\AppData\Local\Temp\ccoQ4V65.s 			page 21


 619:Generated_Source\PSoC5/UART_READER.c ****     * Summary:
 620:Generated_Source\PSoC5/UART_READER.c ****     *  Reads UART RX buffer immediately, returns received character and error
 621:Generated_Source\PSoC5/UART_READER.c ****     *  condition.
 622:Generated_Source\PSoC5/UART_READER.c ****     *
 623:Generated_Source\PSoC5/UART_READER.c ****     * Parameters:
 624:Generated_Source\PSoC5/UART_READER.c ****     *  None.
 625:Generated_Source\PSoC5/UART_READER.c ****     *
 626:Generated_Source\PSoC5/UART_READER.c ****     * Return:
 627:Generated_Source\PSoC5/UART_READER.c ****     *  MSB contains status and LSB contains UART RX data. If the MSB is nonzero,
 628:Generated_Source\PSoC5/UART_READER.c ****     *  an error has occurred.
 629:Generated_Source\PSoC5/UART_READER.c ****     *
 630:Generated_Source\PSoC5/UART_READER.c ****     * Reentrant:
 631:Generated_Source\PSoC5/UART_READER.c ****     *  No.
 632:Generated_Source\PSoC5/UART_READER.c ****     *
 633:Generated_Source\PSoC5/UART_READER.c ****     *******************************************************************************/
 634:Generated_Source\PSoC5/UART_READER.c ****     uint16 UART_READER_GetByte(void) 
 635:Generated_Source\PSoC5/UART_READER.c ****     {
 522              		.loc 1 635 0
 523              		.cfi_startproc
 524              		@ args = 0, pretend = 0, frame = 0
 525              		@ frame_needed = 1, uses_anonymous_args = 0
 526 0000 98B5     		push	{r3, r4, r7, lr}
 527              		.cfi_def_cfa_offset 16
 528              		.cfi_offset 3, -16
 529              		.cfi_offset 4, -12
 530              		.cfi_offset 7, -8
 531              		.cfi_offset 14, -4
 532 0002 00AF     		add	r7, sp, #0
 533              		.cfi_def_cfa_register 7
 636:Generated_Source\PSoC5/UART_READER.c ****         
 637:Generated_Source\PSoC5/UART_READER.c ****     #if (UART_READER_RX_INTERRUPT_ENABLED)
 638:Generated_Source\PSoC5/UART_READER.c ****         uint16 locErrorStatus;
 639:Generated_Source\PSoC5/UART_READER.c ****         /* Protect variables that could change on interrupt */
 640:Generated_Source\PSoC5/UART_READER.c ****         UART_READER_DisableRxInt();
 641:Generated_Source\PSoC5/UART_READER.c ****         locErrorStatus = (uint16)UART_READER_errorStatus;
 642:Generated_Source\PSoC5/UART_READER.c ****         UART_READER_errorStatus = 0u;
 643:Generated_Source\PSoC5/UART_READER.c ****         UART_READER_EnableRxInt();
 644:Generated_Source\PSoC5/UART_READER.c ****         return ( (uint16)(locErrorStatus << 8u) | UART_READER_ReadRxData() );
 645:Generated_Source\PSoC5/UART_READER.c ****     #else
 646:Generated_Source\PSoC5/UART_READER.c ****         return ( ((uint16)UART_READER_ReadRxStatus() << 8u) | UART_READER_ReadRxData() );
 534              		.loc 1 646 0
 535 0004 FFF7FEFF 		bl	UART_READER_ReadRxStatus
 536 0008 0346     		mov	r3, r0
 537 000a 1B02     		lsls	r3, r3, #8
 538 000c 1CB2     		sxth	r4, r3
 539 000e FFF7FEFF 		bl	UART_READER_ReadRxData
 540 0012 0346     		mov	r3, r0
 541 0014 1BB2     		sxth	r3, r3
 542 0016 2343     		orrs	r3, r3, r4
 543 0018 1BB2     		sxth	r3, r3
 544 001a 9BB2     		uxth	r3, r3
 647:Generated_Source\PSoC5/UART_READER.c ****     #endif /* UART_READER_RX_INTERRUPT_ENABLED */
 648:Generated_Source\PSoC5/UART_READER.c ****         
 649:Generated_Source\PSoC5/UART_READER.c ****     }
 545              		.loc 1 649 0
 546 001c 1846     		mov	r0, r3
 547 001e 98BD     		pop	{r3, r4, r7, pc}
ARM GAS  C:\Users\ilya\AppData\Local\Temp\ccoQ4V65.s 			page 22


 548              		.cfi_endproc
 549              	.LFE10:
 550              		.size	UART_READER_GetByte, .-UART_READER_GetByte
 551              		.section	.text.UART_READER_GetRxBufferSize,"ax",%progbits
 552              		.align	2
 553              		.global	UART_READER_GetRxBufferSize
 554              		.thumb
 555              		.thumb_func
 556              		.type	UART_READER_GetRxBufferSize, %function
 557              	UART_READER_GetRxBufferSize:
 558              	.LFB11:
 650:Generated_Source\PSoC5/UART_READER.c **** 
 651:Generated_Source\PSoC5/UART_READER.c **** 
 652:Generated_Source\PSoC5/UART_READER.c ****     /*******************************************************************************
 653:Generated_Source\PSoC5/UART_READER.c ****     * Function Name: UART_READER_GetRxBufferSize
 654:Generated_Source\PSoC5/UART_READER.c ****     ********************************************************************************
 655:Generated_Source\PSoC5/UART_READER.c ****     *
 656:Generated_Source\PSoC5/UART_READER.c ****     * Summary:
 657:Generated_Source\PSoC5/UART_READER.c ****     *  Returns the number of received bytes available in the RX buffer.
 658:Generated_Source\PSoC5/UART_READER.c ****     *  * RX software buffer is disabled (RX Buffer Size parameter is equal to 4): 
 659:Generated_Source\PSoC5/UART_READER.c ****     *    returns 0 for empty RX FIFO or 1 for not empty RX FIFO.
 660:Generated_Source\PSoC5/UART_READER.c ****     *  * RX software buffer is enabled: returns the number of bytes available in 
 661:Generated_Source\PSoC5/UART_READER.c ****     *    the RX software buffer. Bytes available in the RX FIFO do not take to 
 662:Generated_Source\PSoC5/UART_READER.c ****     *    account.
 663:Generated_Source\PSoC5/UART_READER.c ****     *
 664:Generated_Source\PSoC5/UART_READER.c ****     * Parameters:
 665:Generated_Source\PSoC5/UART_READER.c ****     *  None.
 666:Generated_Source\PSoC5/UART_READER.c ****     *
 667:Generated_Source\PSoC5/UART_READER.c ****     * Return:
 668:Generated_Source\PSoC5/UART_READER.c ****     *  uint8: Number of bytes in the RX buffer. 
 669:Generated_Source\PSoC5/UART_READER.c ****     *    Return value type depends on RX Buffer Size parameter.
 670:Generated_Source\PSoC5/UART_READER.c ****     *
 671:Generated_Source\PSoC5/UART_READER.c ****     * Global Variables:
 672:Generated_Source\PSoC5/UART_READER.c ****     *  UART_READER_rxBufferWrite - used to calculate left bytes.
 673:Generated_Source\PSoC5/UART_READER.c ****     *  UART_READER_rxBufferRead - used to calculate left bytes.
 674:Generated_Source\PSoC5/UART_READER.c ****     *  UART_READER_rxBufferLoopDetect - checked to decide left bytes amount.
 675:Generated_Source\PSoC5/UART_READER.c ****     *
 676:Generated_Source\PSoC5/UART_READER.c ****     * Reentrant:
 677:Generated_Source\PSoC5/UART_READER.c ****     *  No.
 678:Generated_Source\PSoC5/UART_READER.c ****     *
 679:Generated_Source\PSoC5/UART_READER.c ****     * Theory:
 680:Generated_Source\PSoC5/UART_READER.c ****     *  Allows the user to find out how full the RX Buffer is.
 681:Generated_Source\PSoC5/UART_READER.c ****     *
 682:Generated_Source\PSoC5/UART_READER.c ****     *******************************************************************************/
 683:Generated_Source\PSoC5/UART_READER.c ****     uint8 UART_READER_GetRxBufferSize(void)
 684:Generated_Source\PSoC5/UART_READER.c ****                                                             
 685:Generated_Source\PSoC5/UART_READER.c ****     {
 559              		.loc 1 685 0
 560              		.cfi_startproc
 561              		@ args = 0, pretend = 0, frame = 8
 562              		@ frame_needed = 1, uses_anonymous_args = 0
 563              		@ link register save eliminated.
 564 0000 80B4     		push	{r7}
 565              		.cfi_def_cfa_offset 4
 566              		.cfi_offset 7, -4
 567 0002 83B0     		sub	sp, sp, #12
 568              		.cfi_def_cfa_offset 16
ARM GAS  C:\Users\ilya\AppData\Local\Temp\ccoQ4V65.s 			page 23


 569 0004 00AF     		add	r7, sp, #0
 570              		.cfi_def_cfa_register 7
 686:Generated_Source\PSoC5/UART_READER.c ****         uint8 size;
 687:Generated_Source\PSoC5/UART_READER.c **** 
 688:Generated_Source\PSoC5/UART_READER.c ****     #if (UART_READER_RX_INTERRUPT_ENABLED)
 689:Generated_Source\PSoC5/UART_READER.c **** 
 690:Generated_Source\PSoC5/UART_READER.c ****         /* Protect variables that could change on interrupt */
 691:Generated_Source\PSoC5/UART_READER.c ****         UART_READER_DisableRxInt();
 692:Generated_Source\PSoC5/UART_READER.c **** 
 693:Generated_Source\PSoC5/UART_READER.c ****         if(UART_READER_rxBufferRead == UART_READER_rxBufferWrite)
 694:Generated_Source\PSoC5/UART_READER.c ****         {
 695:Generated_Source\PSoC5/UART_READER.c ****             if(UART_READER_rxBufferLoopDetect != 0u)
 696:Generated_Source\PSoC5/UART_READER.c ****             {
 697:Generated_Source\PSoC5/UART_READER.c ****                 size = UART_READER_RX_BUFFER_SIZE;
 698:Generated_Source\PSoC5/UART_READER.c ****             }
 699:Generated_Source\PSoC5/UART_READER.c ****             else
 700:Generated_Source\PSoC5/UART_READER.c ****             {
 701:Generated_Source\PSoC5/UART_READER.c ****                 size = 0u;
 702:Generated_Source\PSoC5/UART_READER.c ****             }
 703:Generated_Source\PSoC5/UART_READER.c ****         }
 704:Generated_Source\PSoC5/UART_READER.c ****         else if(UART_READER_rxBufferRead < UART_READER_rxBufferWrite)
 705:Generated_Source\PSoC5/UART_READER.c ****         {
 706:Generated_Source\PSoC5/UART_READER.c ****             size = (UART_READER_rxBufferWrite - UART_READER_rxBufferRead);
 707:Generated_Source\PSoC5/UART_READER.c ****         }
 708:Generated_Source\PSoC5/UART_READER.c ****         else
 709:Generated_Source\PSoC5/UART_READER.c ****         {
 710:Generated_Source\PSoC5/UART_READER.c ****             size = (UART_READER_RX_BUFFER_SIZE - UART_READER_rxBufferRead) + UART_READER_rxBufferWr
 711:Generated_Source\PSoC5/UART_READER.c ****         }
 712:Generated_Source\PSoC5/UART_READER.c **** 
 713:Generated_Source\PSoC5/UART_READER.c ****         UART_READER_EnableRxInt();
 714:Generated_Source\PSoC5/UART_READER.c **** 
 715:Generated_Source\PSoC5/UART_READER.c ****     #else
 716:Generated_Source\PSoC5/UART_READER.c **** 
 717:Generated_Source\PSoC5/UART_READER.c ****         /* We can only know if there is data in the fifo. */
 718:Generated_Source\PSoC5/UART_READER.c ****         size = ((UART_READER_RXSTATUS_REG & UART_READER_RX_STS_FIFO_NOTEMPTY) != 0u) ? 1u : 0u;
 571              		.loc 1 718 0
 572 0006 084B     		ldr	r3, .L43
 573 0008 1B78     		ldrb	r3, [r3]
 574 000a DBB2     		uxtb	r3, r3
 575 000c 03F02003 		and	r3, r3, #32
 576 0010 002B     		cmp	r3, #0
 577 0012 01D0     		beq	.L40
 578              		.loc 1 718 0 is_stmt 0 discriminator 1
 579 0014 0123     		movs	r3, #1
 580 0016 00E0     		b	.L41
 581              	.L40:
 582              		.loc 1 718 0 discriminator 2
 583 0018 0023     		movs	r3, #0
 584              	.L41:
 585              		.loc 1 718 0 discriminator 4
 586 001a FB71     		strb	r3, [r7, #7]
 719:Generated_Source\PSoC5/UART_READER.c **** 
 720:Generated_Source\PSoC5/UART_READER.c ****     #endif /* (UART_READER_RX_INTERRUPT_ENABLED) */
 721:Generated_Source\PSoC5/UART_READER.c **** 
 722:Generated_Source\PSoC5/UART_READER.c ****         return(size);
 587              		.loc 1 722 0 is_stmt 1 discriminator 4
 588 001c FB79     		ldrb	r3, [r7, #7]	@ zero_extendqisi2
ARM GAS  C:\Users\ilya\AppData\Local\Temp\ccoQ4V65.s 			page 24


 723:Generated_Source\PSoC5/UART_READER.c ****     }
 589              		.loc 1 723 0 discriminator 4
 590 001e 1846     		mov	r0, r3
 591 0020 0C37     		adds	r7, r7, #12
 592              		.cfi_def_cfa_offset 4
 593 0022 BD46     		mov	sp, r7
 594              		.cfi_def_cfa_register 13
 595              		@ sp needed
 596 0024 80BC     		pop	{r7}
 597              		.cfi_restore 7
 598              		.cfi_def_cfa_offset 0
 599 0026 7047     		bx	lr
 600              	.L44:
 601              		.align	2
 602              	.L43:
 603 0028 67650040 		.word	1073767783
 604              		.cfi_endproc
 605              	.LFE11:
 606              		.size	UART_READER_GetRxBufferSize, .-UART_READER_GetRxBufferSize
 607              		.section	.text.UART_READER_ClearRxBuffer,"ax",%progbits
 608              		.align	2
 609              		.global	UART_READER_ClearRxBuffer
 610              		.thumb
 611              		.thumb_func
 612              		.type	UART_READER_ClearRxBuffer, %function
 613              	UART_READER_ClearRxBuffer:
 614              	.LFB12:
 724:Generated_Source\PSoC5/UART_READER.c **** 
 725:Generated_Source\PSoC5/UART_READER.c **** 
 726:Generated_Source\PSoC5/UART_READER.c ****     /*******************************************************************************
 727:Generated_Source\PSoC5/UART_READER.c ****     * Function Name: UART_READER_ClearRxBuffer
 728:Generated_Source\PSoC5/UART_READER.c ****     ********************************************************************************
 729:Generated_Source\PSoC5/UART_READER.c ****     *
 730:Generated_Source\PSoC5/UART_READER.c ****     * Summary:
 731:Generated_Source\PSoC5/UART_READER.c ****     *  Clears the receiver memory buffer and hardware RX FIFO of all received data.
 732:Generated_Source\PSoC5/UART_READER.c ****     *
 733:Generated_Source\PSoC5/UART_READER.c ****     * Parameters:
 734:Generated_Source\PSoC5/UART_READER.c ****     *  None.
 735:Generated_Source\PSoC5/UART_READER.c ****     *
 736:Generated_Source\PSoC5/UART_READER.c ****     * Return:
 737:Generated_Source\PSoC5/UART_READER.c ****     *  None.
 738:Generated_Source\PSoC5/UART_READER.c ****     *
 739:Generated_Source\PSoC5/UART_READER.c ****     * Global Variables:
 740:Generated_Source\PSoC5/UART_READER.c ****     *  UART_READER_rxBufferWrite - cleared to zero.
 741:Generated_Source\PSoC5/UART_READER.c ****     *  UART_READER_rxBufferRead - cleared to zero.
 742:Generated_Source\PSoC5/UART_READER.c ****     *  UART_READER_rxBufferLoopDetect - cleared to zero.
 743:Generated_Source\PSoC5/UART_READER.c ****     *  UART_READER_rxBufferOverflow - cleared to zero.
 744:Generated_Source\PSoC5/UART_READER.c ****     *
 745:Generated_Source\PSoC5/UART_READER.c ****     * Reentrant:
 746:Generated_Source\PSoC5/UART_READER.c ****     *  No.
 747:Generated_Source\PSoC5/UART_READER.c ****     *
 748:Generated_Source\PSoC5/UART_READER.c ****     * Theory:
 749:Generated_Source\PSoC5/UART_READER.c ****     *  Setting the pointers to zero makes the system believe there is no data to
 750:Generated_Source\PSoC5/UART_READER.c ****     *  read and writing will resume at address 0 overwriting any data that may
 751:Generated_Source\PSoC5/UART_READER.c ****     *  have remained in the RAM.
 752:Generated_Source\PSoC5/UART_READER.c ****     *
 753:Generated_Source\PSoC5/UART_READER.c ****     * Side Effects:
ARM GAS  C:\Users\ilya\AppData\Local\Temp\ccoQ4V65.s 			page 25


 754:Generated_Source\PSoC5/UART_READER.c ****     *  Any received data not read from the RAM or FIFO buffer will be lost.
 755:Generated_Source\PSoC5/UART_READER.c ****     *
 756:Generated_Source\PSoC5/UART_READER.c ****     *******************************************************************************/
 757:Generated_Source\PSoC5/UART_READER.c ****     void UART_READER_ClearRxBuffer(void) 
 758:Generated_Source\PSoC5/UART_READER.c ****     {
 615              		.loc 1 758 0
 616              		.cfi_startproc
 617              		@ args = 0, pretend = 0, frame = 8
 618              		@ frame_needed = 1, uses_anonymous_args = 0
 619 0000 80B5     		push	{r7, lr}
 620              		.cfi_def_cfa_offset 8
 621              		.cfi_offset 7, -8
 622              		.cfi_offset 14, -4
 623 0002 82B0     		sub	sp, sp, #8
 624              		.cfi_def_cfa_offset 16
 625 0004 00AF     		add	r7, sp, #0
 626              		.cfi_def_cfa_register 7
 759:Generated_Source\PSoC5/UART_READER.c ****         uint8 enableInterrupts;
 760:Generated_Source\PSoC5/UART_READER.c **** 
 761:Generated_Source\PSoC5/UART_READER.c ****         /* Clear the HW FIFO */
 762:Generated_Source\PSoC5/UART_READER.c ****         enableInterrupts = CyEnterCriticalSection();
 627              		.loc 1 762 0
 628 0006 FFF7FEFF 		bl	CyEnterCriticalSection
 629 000a 0346     		mov	r3, r0
 630 000c FB71     		strb	r3, [r7, #7]
 763:Generated_Source\PSoC5/UART_READER.c ****         UART_READER_RXDATA_AUX_CTL_REG |= (uint8)  UART_READER_RX_FIFO_CLR;
 631              		.loc 1 763 0
 632 000e 0C4A     		ldr	r2, .L46
 633 0010 0B4B     		ldr	r3, .L46
 634 0012 1B78     		ldrb	r3, [r3]
 635 0014 DBB2     		uxtb	r3, r3
 636 0016 43F00103 		orr	r3, r3, #1
 637 001a DBB2     		uxtb	r3, r3
 638 001c 1370     		strb	r3, [r2]
 764:Generated_Source\PSoC5/UART_READER.c ****         UART_READER_RXDATA_AUX_CTL_REG &= (uint8) ~UART_READER_RX_FIFO_CLR;
 639              		.loc 1 764 0
 640 001e 084A     		ldr	r2, .L46
 641 0020 074B     		ldr	r3, .L46
 642 0022 1B78     		ldrb	r3, [r3]
 643 0024 DBB2     		uxtb	r3, r3
 644 0026 23F00103 		bic	r3, r3, #1
 645 002a DBB2     		uxtb	r3, r3
 646 002c 1370     		strb	r3, [r2]
 765:Generated_Source\PSoC5/UART_READER.c ****         CyExitCriticalSection(enableInterrupts);
 647              		.loc 1 765 0
 648 002e FB79     		ldrb	r3, [r7, #7]	@ zero_extendqisi2
 649 0030 1846     		mov	r0, r3
 650 0032 FFF7FEFF 		bl	CyExitCriticalSection
 766:Generated_Source\PSoC5/UART_READER.c **** 
 767:Generated_Source\PSoC5/UART_READER.c ****     #if (UART_READER_RX_INTERRUPT_ENABLED)
 768:Generated_Source\PSoC5/UART_READER.c **** 
 769:Generated_Source\PSoC5/UART_READER.c ****         /* Protect variables that could change on interrupt. */
 770:Generated_Source\PSoC5/UART_READER.c ****         UART_READER_DisableRxInt();
 771:Generated_Source\PSoC5/UART_READER.c **** 
 772:Generated_Source\PSoC5/UART_READER.c ****         UART_READER_rxBufferRead = 0u;
 773:Generated_Source\PSoC5/UART_READER.c ****         UART_READER_rxBufferWrite = 0u;
 774:Generated_Source\PSoC5/UART_READER.c ****         UART_READER_rxBufferLoopDetect = 0u;
ARM GAS  C:\Users\ilya\AppData\Local\Temp\ccoQ4V65.s 			page 26


 775:Generated_Source\PSoC5/UART_READER.c ****         UART_READER_rxBufferOverflow = 0u;
 776:Generated_Source\PSoC5/UART_READER.c **** 
 777:Generated_Source\PSoC5/UART_READER.c ****         UART_READER_EnableRxInt();
 778:Generated_Source\PSoC5/UART_READER.c **** 
 779:Generated_Source\PSoC5/UART_READER.c ****     #endif /* (UART_READER_RX_INTERRUPT_ENABLED) */
 780:Generated_Source\PSoC5/UART_READER.c **** 
 781:Generated_Source\PSoC5/UART_READER.c ****     }
 651              		.loc 1 781 0
 652 0036 00BF     		nop
 653 0038 0837     		adds	r7, r7, #8
 654              		.cfi_def_cfa_offset 8
 655 003a BD46     		mov	sp, r7
 656              		.cfi_def_cfa_register 13
 657              		@ sp needed
 658 003c 80BD     		pop	{r7, pc}
 659              	.L47:
 660 003e 00BF     		.align	2
 661              	.L46:
 662 0040 98650040 		.word	1073767832
 663              		.cfi_endproc
 664              	.LFE12:
 665              		.size	UART_READER_ClearRxBuffer, .-UART_READER_ClearRxBuffer
 666              		.section	.text.UART_READER_SetRxAddressMode,"ax",%progbits
 667              		.align	2
 668              		.global	UART_READER_SetRxAddressMode
 669              		.thumb
 670              		.thumb_func
 671              		.type	UART_READER_SetRxAddressMode, %function
 672              	UART_READER_SetRxAddressMode:
 673              	.LFB13:
 782:Generated_Source\PSoC5/UART_READER.c **** 
 783:Generated_Source\PSoC5/UART_READER.c **** 
 784:Generated_Source\PSoC5/UART_READER.c ****     /*******************************************************************************
 785:Generated_Source\PSoC5/UART_READER.c ****     * Function Name: UART_READER_SetRxAddressMode
 786:Generated_Source\PSoC5/UART_READER.c ****     ********************************************************************************
 787:Generated_Source\PSoC5/UART_READER.c ****     *
 788:Generated_Source\PSoC5/UART_READER.c ****     * Summary:
 789:Generated_Source\PSoC5/UART_READER.c ****     *  Sets the software controlled Addressing mode used by the RX portion of the
 790:Generated_Source\PSoC5/UART_READER.c ****     *  UART.
 791:Generated_Source\PSoC5/UART_READER.c ****     *
 792:Generated_Source\PSoC5/UART_READER.c ****     * Parameters:
 793:Generated_Source\PSoC5/UART_READER.c ****     *  addressMode: Enumerated value indicating the mode of RX addressing
 794:Generated_Source\PSoC5/UART_READER.c ****     *  UART_READER__B_UART__AM_SW_BYTE_BYTE -  Software Byte-by-Byte address
 795:Generated_Source\PSoC5/UART_READER.c ****     *                                               detection
 796:Generated_Source\PSoC5/UART_READER.c ****     *  UART_READER__B_UART__AM_SW_DETECT_TO_BUFFER - Software Detect to Buffer
 797:Generated_Source\PSoC5/UART_READER.c ****     *                                               address detection
 798:Generated_Source\PSoC5/UART_READER.c ****     *  UART_READER__B_UART__AM_HW_BYTE_BY_BYTE - Hardware Byte-by-Byte address
 799:Generated_Source\PSoC5/UART_READER.c ****     *                                               detection
 800:Generated_Source\PSoC5/UART_READER.c ****     *  UART_READER__B_UART__AM_HW_DETECT_TO_BUFFER - Hardware Detect to Buffer
 801:Generated_Source\PSoC5/UART_READER.c ****     *                                               address detection
 802:Generated_Source\PSoC5/UART_READER.c ****     *  UART_READER__B_UART__AM_NONE - No address detection
 803:Generated_Source\PSoC5/UART_READER.c ****     *
 804:Generated_Source\PSoC5/UART_READER.c ****     * Return:
 805:Generated_Source\PSoC5/UART_READER.c ****     *  None.
 806:Generated_Source\PSoC5/UART_READER.c ****     *
 807:Generated_Source\PSoC5/UART_READER.c ****     * Global Variables:
 808:Generated_Source\PSoC5/UART_READER.c ****     *  UART_READER_rxAddressMode - the parameter stored in this variable for
ARM GAS  C:\Users\ilya\AppData\Local\Temp\ccoQ4V65.s 			page 27


 809:Generated_Source\PSoC5/UART_READER.c ****     *   the farther usage in RX ISR.
 810:Generated_Source\PSoC5/UART_READER.c ****     *  UART_READER_rxAddressDetected - set to initial state (0).
 811:Generated_Source\PSoC5/UART_READER.c ****     *
 812:Generated_Source\PSoC5/UART_READER.c ****     *******************************************************************************/
 813:Generated_Source\PSoC5/UART_READER.c ****     void UART_READER_SetRxAddressMode(uint8 addressMode)
 814:Generated_Source\PSoC5/UART_READER.c ****                                                         
 815:Generated_Source\PSoC5/UART_READER.c ****     {
 674              		.loc 1 815 0
 675              		.cfi_startproc
 676              		@ args = 0, pretend = 0, frame = 8
 677              		@ frame_needed = 1, uses_anonymous_args = 0
 678              		@ link register save eliminated.
 679 0000 80B4     		push	{r7}
 680              		.cfi_def_cfa_offset 4
 681              		.cfi_offset 7, -4
 682 0002 83B0     		sub	sp, sp, #12
 683              		.cfi_def_cfa_offset 16
 684 0004 00AF     		add	r7, sp, #0
 685              		.cfi_def_cfa_register 7
 686 0006 0346     		mov	r3, r0
 687 0008 FB71     		strb	r3, [r7, #7]
 816:Generated_Source\PSoC5/UART_READER.c ****         #if(UART_READER_RXHW_ADDRESS_ENABLED)
 817:Generated_Source\PSoC5/UART_READER.c ****             #if(UART_READER_CONTROL_REG_REMOVED)
 818:Generated_Source\PSoC5/UART_READER.c ****                 if(0u != addressMode)
 819:Generated_Source\PSoC5/UART_READER.c ****                 {
 820:Generated_Source\PSoC5/UART_READER.c ****                     /* Suppress compiler warning */
 821:Generated_Source\PSoC5/UART_READER.c ****                 }
 822:Generated_Source\PSoC5/UART_READER.c ****             #else /* UART_READER_CONTROL_REG_REMOVED */
 823:Generated_Source\PSoC5/UART_READER.c ****                 uint8 tmpCtrl;
 824:Generated_Source\PSoC5/UART_READER.c ****                 tmpCtrl = UART_READER_CONTROL_REG & (uint8)~UART_READER_CTRL_RXADDR_MODE_MASK;
 825:Generated_Source\PSoC5/UART_READER.c ****                 tmpCtrl |= (uint8)(addressMode << UART_READER_CTRL_RXADDR_MODE0_SHIFT);
 826:Generated_Source\PSoC5/UART_READER.c ****                 UART_READER_CONTROL_REG = tmpCtrl;
 827:Generated_Source\PSoC5/UART_READER.c **** 
 828:Generated_Source\PSoC5/UART_READER.c ****                 #if(UART_READER_RX_INTERRUPT_ENABLED && \
 829:Generated_Source\PSoC5/UART_READER.c ****                    (UART_READER_RXBUFFERSIZE > UART_READER_FIFO_LENGTH) )
 830:Generated_Source\PSoC5/UART_READER.c ****                     UART_READER_rxAddressMode = addressMode;
 831:Generated_Source\PSoC5/UART_READER.c ****                     UART_READER_rxAddressDetected = 0u;
 832:Generated_Source\PSoC5/UART_READER.c ****                 #endif /* End UART_READER_RXBUFFERSIZE > UART_READER_FIFO_LENGTH*/
 833:Generated_Source\PSoC5/UART_READER.c ****             #endif /* End UART_READER_CONTROL_REG_REMOVED */
 834:Generated_Source\PSoC5/UART_READER.c ****         #else /* UART_READER_RXHW_ADDRESS_ENABLED */
 835:Generated_Source\PSoC5/UART_READER.c ****             if(0u != addressMode)
 836:Generated_Source\PSoC5/UART_READER.c ****             {
 837:Generated_Source\PSoC5/UART_READER.c ****                 /* Suppress compiler warning */
 838:Generated_Source\PSoC5/UART_READER.c ****             }
 839:Generated_Source\PSoC5/UART_READER.c ****         #endif /* End UART_READER_RXHW_ADDRESS_ENABLED */
 840:Generated_Source\PSoC5/UART_READER.c ****     }
 688              		.loc 1 840 0
 689 000a 00BF     		nop
 690 000c 0C37     		adds	r7, r7, #12
 691              		.cfi_def_cfa_offset 4
 692 000e BD46     		mov	sp, r7
 693              		.cfi_def_cfa_register 13
 694              		@ sp needed
 695 0010 80BC     		pop	{r7}
 696              		.cfi_restore 7
 697              		.cfi_def_cfa_offset 0
 698 0012 7047     		bx	lr
ARM GAS  C:\Users\ilya\AppData\Local\Temp\ccoQ4V65.s 			page 28


 699              		.cfi_endproc
 700              	.LFE13:
 701              		.size	UART_READER_SetRxAddressMode, .-UART_READER_SetRxAddressMode
 702              		.section	.text.UART_READER_SetRxAddress1,"ax",%progbits
 703              		.align	2
 704              		.global	UART_READER_SetRxAddress1
 705              		.thumb
 706              		.thumb_func
 707              		.type	UART_READER_SetRxAddress1, %function
 708              	UART_READER_SetRxAddress1:
 709              	.LFB14:
 841:Generated_Source\PSoC5/UART_READER.c **** 
 842:Generated_Source\PSoC5/UART_READER.c **** 
 843:Generated_Source\PSoC5/UART_READER.c ****     /*******************************************************************************
 844:Generated_Source\PSoC5/UART_READER.c ****     * Function Name: UART_READER_SetRxAddress1
 845:Generated_Source\PSoC5/UART_READER.c ****     ********************************************************************************
 846:Generated_Source\PSoC5/UART_READER.c ****     *
 847:Generated_Source\PSoC5/UART_READER.c ****     * Summary:
 848:Generated_Source\PSoC5/UART_READER.c ****     *  Sets the first of two hardware-detectable receiver addresses.
 849:Generated_Source\PSoC5/UART_READER.c ****     *
 850:Generated_Source\PSoC5/UART_READER.c ****     * Parameters:
 851:Generated_Source\PSoC5/UART_READER.c ****     *  address: Address #1 for hardware address detection.
 852:Generated_Source\PSoC5/UART_READER.c ****     *
 853:Generated_Source\PSoC5/UART_READER.c ****     * Return:
 854:Generated_Source\PSoC5/UART_READER.c ****     *  None.
 855:Generated_Source\PSoC5/UART_READER.c ****     *
 856:Generated_Source\PSoC5/UART_READER.c ****     *******************************************************************************/
 857:Generated_Source\PSoC5/UART_READER.c ****     void UART_READER_SetRxAddress1(uint8 address) 
 858:Generated_Source\PSoC5/UART_READER.c ****     {
 710              		.loc 1 858 0
 711              		.cfi_startproc
 712              		@ args = 0, pretend = 0, frame = 8
 713              		@ frame_needed = 1, uses_anonymous_args = 0
 714              		@ link register save eliminated.
 715 0000 80B4     		push	{r7}
 716              		.cfi_def_cfa_offset 4
 717              		.cfi_offset 7, -4
 718 0002 83B0     		sub	sp, sp, #12
 719              		.cfi_def_cfa_offset 16
 720 0004 00AF     		add	r7, sp, #0
 721              		.cfi_def_cfa_register 7
 722 0006 0346     		mov	r3, r0
 723 0008 FB71     		strb	r3, [r7, #7]
 859:Generated_Source\PSoC5/UART_READER.c ****         UART_READER_RXADDRESS1_REG = address;
 724              		.loc 1 859 0
 725 000a 044A     		ldr	r2, .L50
 726 000c FB79     		ldrb	r3, [r7, #7]
 727 000e 1370     		strb	r3, [r2]
 860:Generated_Source\PSoC5/UART_READER.c ****     }
 728              		.loc 1 860 0
 729 0010 00BF     		nop
 730 0012 0C37     		adds	r7, r7, #12
 731              		.cfi_def_cfa_offset 4
 732 0014 BD46     		mov	sp, r7
 733              		.cfi_def_cfa_register 13
 734              		@ sp needed
 735 0016 80BC     		pop	{r7}
ARM GAS  C:\Users\ilya\AppData\Local\Temp\ccoQ4V65.s 			page 29


 736              		.cfi_restore 7
 737              		.cfi_def_cfa_offset 0
 738 0018 7047     		bx	lr
 739              	.L51:
 740 001a 00BF     		.align	2
 741              	.L50:
 742 001c 28650040 		.word	1073767720
 743              		.cfi_endproc
 744              	.LFE14:
 745              		.size	UART_READER_SetRxAddress1, .-UART_READER_SetRxAddress1
 746              		.section	.text.UART_READER_SetRxAddress2,"ax",%progbits
 747              		.align	2
 748              		.global	UART_READER_SetRxAddress2
 749              		.thumb
 750              		.thumb_func
 751              		.type	UART_READER_SetRxAddress2, %function
 752              	UART_READER_SetRxAddress2:
 753              	.LFB15:
 861:Generated_Source\PSoC5/UART_READER.c **** 
 862:Generated_Source\PSoC5/UART_READER.c **** 
 863:Generated_Source\PSoC5/UART_READER.c ****     /*******************************************************************************
 864:Generated_Source\PSoC5/UART_READER.c ****     * Function Name: UART_READER_SetRxAddress2
 865:Generated_Source\PSoC5/UART_READER.c ****     ********************************************************************************
 866:Generated_Source\PSoC5/UART_READER.c ****     *
 867:Generated_Source\PSoC5/UART_READER.c ****     * Summary:
 868:Generated_Source\PSoC5/UART_READER.c ****     *  Sets the second of two hardware-detectable receiver addresses.
 869:Generated_Source\PSoC5/UART_READER.c ****     *
 870:Generated_Source\PSoC5/UART_READER.c ****     * Parameters:
 871:Generated_Source\PSoC5/UART_READER.c ****     *  address: Address #2 for hardware address detection.
 872:Generated_Source\PSoC5/UART_READER.c ****     *
 873:Generated_Source\PSoC5/UART_READER.c ****     * Return:
 874:Generated_Source\PSoC5/UART_READER.c ****     *  None.
 875:Generated_Source\PSoC5/UART_READER.c ****     *
 876:Generated_Source\PSoC5/UART_READER.c ****     *******************************************************************************/
 877:Generated_Source\PSoC5/UART_READER.c ****     void UART_READER_SetRxAddress2(uint8 address) 
 878:Generated_Source\PSoC5/UART_READER.c ****     {
 754              		.loc 1 878 0
 755              		.cfi_startproc
 756              		@ args = 0, pretend = 0, frame = 8
 757              		@ frame_needed = 1, uses_anonymous_args = 0
 758              		@ link register save eliminated.
 759 0000 80B4     		push	{r7}
 760              		.cfi_def_cfa_offset 4
 761              		.cfi_offset 7, -4
 762 0002 83B0     		sub	sp, sp, #12
 763              		.cfi_def_cfa_offset 16
 764 0004 00AF     		add	r7, sp, #0
 765              		.cfi_def_cfa_register 7
 766 0006 0346     		mov	r3, r0
 767 0008 FB71     		strb	r3, [r7, #7]
 879:Generated_Source\PSoC5/UART_READER.c ****         UART_READER_RXADDRESS2_REG = address;
 768              		.loc 1 879 0
 769 000a 044A     		ldr	r2, .L53
 770 000c FB79     		ldrb	r3, [r7, #7]
 771 000e 1370     		strb	r3, [r2]
 880:Generated_Source\PSoC5/UART_READER.c ****     }
 772              		.loc 1 880 0
ARM GAS  C:\Users\ilya\AppData\Local\Temp\ccoQ4V65.s 			page 30


 773 0010 00BF     		nop
 774 0012 0C37     		adds	r7, r7, #12
 775              		.cfi_def_cfa_offset 4
 776 0014 BD46     		mov	sp, r7
 777              		.cfi_def_cfa_register 13
 778              		@ sp needed
 779 0016 80BC     		pop	{r7}
 780              		.cfi_restore 7
 781              		.cfi_def_cfa_offset 0
 782 0018 7047     		bx	lr
 783              	.L54:
 784 001a 00BF     		.align	2
 785              	.L53:
 786 001c 38650040 		.word	1073767736
 787              		.cfi_endproc
 788              	.LFE15:
 789              		.size	UART_READER_SetRxAddress2, .-UART_READER_SetRxAddress2
 790              		.section	.text.UART_READER_SetTxInterruptMode,"ax",%progbits
 791              		.align	2
 792              		.global	UART_READER_SetTxInterruptMode
 793              		.thumb
 794              		.thumb_func
 795              		.type	UART_READER_SetTxInterruptMode, %function
 796              	UART_READER_SetTxInterruptMode:
 797              	.LFB16:
 881:Generated_Source\PSoC5/UART_READER.c **** 
 882:Generated_Source\PSoC5/UART_READER.c **** #endif  /* UART_READER_RX_ENABLED || UART_READER_HD_ENABLED*/
 883:Generated_Source\PSoC5/UART_READER.c **** 
 884:Generated_Source\PSoC5/UART_READER.c **** 
 885:Generated_Source\PSoC5/UART_READER.c **** #if( (UART_READER_TX_ENABLED) || (UART_READER_HD_ENABLED) )
 886:Generated_Source\PSoC5/UART_READER.c ****     /*******************************************************************************
 887:Generated_Source\PSoC5/UART_READER.c ****     * Function Name: UART_READER_SetTxInterruptMode
 888:Generated_Source\PSoC5/UART_READER.c ****     ********************************************************************************
 889:Generated_Source\PSoC5/UART_READER.c ****     *
 890:Generated_Source\PSoC5/UART_READER.c ****     * Summary:
 891:Generated_Source\PSoC5/UART_READER.c ****     *  Configures the TX interrupt sources to be enabled, but does not enable the
 892:Generated_Source\PSoC5/UART_READER.c ****     *  interrupt.
 893:Generated_Source\PSoC5/UART_READER.c ****     *
 894:Generated_Source\PSoC5/UART_READER.c ****     * Parameters:
 895:Generated_Source\PSoC5/UART_READER.c ****     *  intSrc: Bit field containing the TX interrupt sources to enable
 896:Generated_Source\PSoC5/UART_READER.c ****     *   UART_READER_TX_STS_COMPLETE        Interrupt on TX byte complete
 897:Generated_Source\PSoC5/UART_READER.c ****     *   UART_READER_TX_STS_FIFO_EMPTY      Interrupt when TX FIFO is empty
 898:Generated_Source\PSoC5/UART_READER.c ****     *   UART_READER_TX_STS_FIFO_FULL       Interrupt when TX FIFO is full
 899:Generated_Source\PSoC5/UART_READER.c ****     *   UART_READER_TX_STS_FIFO_NOT_FULL   Interrupt when TX FIFO is not full
 900:Generated_Source\PSoC5/UART_READER.c ****     *
 901:Generated_Source\PSoC5/UART_READER.c ****     * Return:
 902:Generated_Source\PSoC5/UART_READER.c ****     *  None.
 903:Generated_Source\PSoC5/UART_READER.c ****     *
 904:Generated_Source\PSoC5/UART_READER.c ****     * Theory:
 905:Generated_Source\PSoC5/UART_READER.c ****     *  Enables the output of specific status bits to the interrupt controller
 906:Generated_Source\PSoC5/UART_READER.c ****     *
 907:Generated_Source\PSoC5/UART_READER.c ****     *******************************************************************************/
 908:Generated_Source\PSoC5/UART_READER.c ****     void UART_READER_SetTxInterruptMode(uint8 intSrc) 
 909:Generated_Source\PSoC5/UART_READER.c ****     {
 798              		.loc 1 909 0
 799              		.cfi_startproc
 800              		@ args = 0, pretend = 0, frame = 8
ARM GAS  C:\Users\ilya\AppData\Local\Temp\ccoQ4V65.s 			page 31


 801              		@ frame_needed = 1, uses_anonymous_args = 0
 802              		@ link register save eliminated.
 803 0000 80B4     		push	{r7}
 804              		.cfi_def_cfa_offset 4
 805              		.cfi_offset 7, -4
 806 0002 83B0     		sub	sp, sp, #12
 807              		.cfi_def_cfa_offset 16
 808 0004 00AF     		add	r7, sp, #0
 809              		.cfi_def_cfa_register 7
 810 0006 0346     		mov	r3, r0
 811 0008 FB71     		strb	r3, [r7, #7]
 910:Generated_Source\PSoC5/UART_READER.c ****         UART_READER_TXSTATUS_MASK_REG = intSrc;
 812              		.loc 1 910 0
 813 000a 044A     		ldr	r2, .L56
 814 000c FB79     		ldrb	r3, [r7, #7]
 815 000e 1370     		strb	r3, [r2]
 911:Generated_Source\PSoC5/UART_READER.c ****     }
 816              		.loc 1 911 0
 817 0010 00BF     		nop
 818 0012 0C37     		adds	r7, r7, #12
 819              		.cfi_def_cfa_offset 4
 820 0014 BD46     		mov	sp, r7
 821              		.cfi_def_cfa_register 13
 822              		@ sp needed
 823 0016 80BC     		pop	{r7}
 824              		.cfi_restore 7
 825              		.cfi_def_cfa_offset 0
 826 0018 7047     		bx	lr
 827              	.L57:
 828 001a 00BF     		.align	2
 829              	.L56:
 830 001c 87650040 		.word	1073767815
 831              		.cfi_endproc
 832              	.LFE16:
 833              		.size	UART_READER_SetTxInterruptMode, .-UART_READER_SetTxInterruptMode
 834              		.section	.text.UART_READER_WriteTxData,"ax",%progbits
 835              		.align	2
 836              		.global	UART_READER_WriteTxData
 837              		.thumb
 838              		.thumb_func
 839              		.type	UART_READER_WriteTxData, %function
 840              	UART_READER_WriteTxData:
 841              	.LFB17:
 912:Generated_Source\PSoC5/UART_READER.c **** 
 913:Generated_Source\PSoC5/UART_READER.c **** 
 914:Generated_Source\PSoC5/UART_READER.c ****     /*******************************************************************************
 915:Generated_Source\PSoC5/UART_READER.c ****     * Function Name: UART_READER_WriteTxData
 916:Generated_Source\PSoC5/UART_READER.c ****     ********************************************************************************
 917:Generated_Source\PSoC5/UART_READER.c ****     *
 918:Generated_Source\PSoC5/UART_READER.c ****     * Summary:
 919:Generated_Source\PSoC5/UART_READER.c ****     *  Places a byte of data into the transmit buffer to be sent when the bus is
 920:Generated_Source\PSoC5/UART_READER.c ****     *  available without checking the TX status register. You must check status
 921:Generated_Source\PSoC5/UART_READER.c ****     *  separately.
 922:Generated_Source\PSoC5/UART_READER.c ****     *
 923:Generated_Source\PSoC5/UART_READER.c ****     * Parameters:
 924:Generated_Source\PSoC5/UART_READER.c ****     *  txDataByte: data byte
 925:Generated_Source\PSoC5/UART_READER.c ****     *
ARM GAS  C:\Users\ilya\AppData\Local\Temp\ccoQ4V65.s 			page 32


 926:Generated_Source\PSoC5/UART_READER.c ****     * Return:
 927:Generated_Source\PSoC5/UART_READER.c ****     * None.
 928:Generated_Source\PSoC5/UART_READER.c ****     *
 929:Generated_Source\PSoC5/UART_READER.c ****     * Global Variables:
 930:Generated_Source\PSoC5/UART_READER.c ****     *  UART_READER_txBuffer - RAM buffer pointer for save data for transmission
 931:Generated_Source\PSoC5/UART_READER.c ****     *  UART_READER_txBufferWrite - cyclic index for write to txBuffer,
 932:Generated_Source\PSoC5/UART_READER.c ****     *    incremented after each byte saved to buffer.
 933:Generated_Source\PSoC5/UART_READER.c ****     *  UART_READER_txBufferRead - cyclic index for read from txBuffer,
 934:Generated_Source\PSoC5/UART_READER.c ****     *    checked to identify the condition to write to FIFO directly or to TX buffer
 935:Generated_Source\PSoC5/UART_READER.c ****     *  UART_READER_initVar - checked to identify that the component has been
 936:Generated_Source\PSoC5/UART_READER.c ****     *    initialized.
 937:Generated_Source\PSoC5/UART_READER.c ****     *
 938:Generated_Source\PSoC5/UART_READER.c ****     * Reentrant:
 939:Generated_Source\PSoC5/UART_READER.c ****     *  No.
 940:Generated_Source\PSoC5/UART_READER.c ****     *
 941:Generated_Source\PSoC5/UART_READER.c ****     *******************************************************************************/
 942:Generated_Source\PSoC5/UART_READER.c ****     void UART_READER_WriteTxData(uint8 txDataByte) 
 943:Generated_Source\PSoC5/UART_READER.c ****     {
 842              		.loc 1 943 0
 843              		.cfi_startproc
 844              		@ args = 0, pretend = 0, frame = 8
 845              		@ frame_needed = 1, uses_anonymous_args = 0
 846              		@ link register save eliminated.
 847 0000 80B4     		push	{r7}
 848              		.cfi_def_cfa_offset 4
 849              		.cfi_offset 7, -4
 850 0002 83B0     		sub	sp, sp, #12
 851              		.cfi_def_cfa_offset 16
 852 0004 00AF     		add	r7, sp, #0
 853              		.cfi_def_cfa_register 7
 854 0006 0346     		mov	r3, r0
 855 0008 FB71     		strb	r3, [r7, #7]
 944:Generated_Source\PSoC5/UART_READER.c ****         /* If not Initialized then skip this function*/
 945:Generated_Source\PSoC5/UART_READER.c ****         if(UART_READER_initVar != 0u)
 856              		.loc 1 945 0
 857 000a 064B     		ldr	r3, .L61
 858 000c 1B78     		ldrb	r3, [r3]	@ zero_extendqisi2
 859 000e 002B     		cmp	r3, #0
 860 0010 02D0     		beq	.L60
 946:Generated_Source\PSoC5/UART_READER.c ****         {
 947:Generated_Source\PSoC5/UART_READER.c ****         #if (UART_READER_TX_INTERRUPT_ENABLED)
 948:Generated_Source\PSoC5/UART_READER.c **** 
 949:Generated_Source\PSoC5/UART_READER.c ****             /* Protect variables that could change on interrupt. */
 950:Generated_Source\PSoC5/UART_READER.c ****             UART_READER_DisableTxInt();
 951:Generated_Source\PSoC5/UART_READER.c **** 
 952:Generated_Source\PSoC5/UART_READER.c ****             if( (UART_READER_txBufferRead == UART_READER_txBufferWrite) &&
 953:Generated_Source\PSoC5/UART_READER.c ****                 ((UART_READER_TXSTATUS_REG & UART_READER_TX_STS_FIFO_FULL) == 0u) )
 954:Generated_Source\PSoC5/UART_READER.c ****             {
 955:Generated_Source\PSoC5/UART_READER.c ****                 /* Add directly to the FIFO. */
 956:Generated_Source\PSoC5/UART_READER.c ****                 UART_READER_TXDATA_REG = txDataByte;
 957:Generated_Source\PSoC5/UART_READER.c ****             }
 958:Generated_Source\PSoC5/UART_READER.c ****             else
 959:Generated_Source\PSoC5/UART_READER.c ****             {
 960:Generated_Source\PSoC5/UART_READER.c ****                 if(UART_READER_txBufferWrite >= UART_READER_TX_BUFFER_SIZE)
 961:Generated_Source\PSoC5/UART_READER.c ****                 {
 962:Generated_Source\PSoC5/UART_READER.c ****                     UART_READER_txBufferWrite = 0u;
 963:Generated_Source\PSoC5/UART_READER.c ****                 }
ARM GAS  C:\Users\ilya\AppData\Local\Temp\ccoQ4V65.s 			page 33


 964:Generated_Source\PSoC5/UART_READER.c **** 
 965:Generated_Source\PSoC5/UART_READER.c ****                 UART_READER_txBuffer[UART_READER_txBufferWrite] = txDataByte;
 966:Generated_Source\PSoC5/UART_READER.c **** 
 967:Generated_Source\PSoC5/UART_READER.c ****                 /* Add to the software buffer. */
 968:Generated_Source\PSoC5/UART_READER.c ****                 UART_READER_txBufferWrite++;
 969:Generated_Source\PSoC5/UART_READER.c ****             }
 970:Generated_Source\PSoC5/UART_READER.c **** 
 971:Generated_Source\PSoC5/UART_READER.c ****             UART_READER_EnableTxInt();
 972:Generated_Source\PSoC5/UART_READER.c **** 
 973:Generated_Source\PSoC5/UART_READER.c ****         #else
 974:Generated_Source\PSoC5/UART_READER.c **** 
 975:Generated_Source\PSoC5/UART_READER.c ****             /* Add directly to the FIFO. */
 976:Generated_Source\PSoC5/UART_READER.c ****             UART_READER_TXDATA_REG = txDataByte;
 861              		.loc 1 976 0
 862 0012 054A     		ldr	r2, .L61+4
 863 0014 FB79     		ldrb	r3, [r7, #7]
 864 0016 1370     		strb	r3, [r2]
 865              	.L60:
 977:Generated_Source\PSoC5/UART_READER.c **** 
 978:Generated_Source\PSoC5/UART_READER.c ****         #endif /*(UART_READER_TX_INTERRUPT_ENABLED) */
 979:Generated_Source\PSoC5/UART_READER.c ****         }
 980:Generated_Source\PSoC5/UART_READER.c ****     }
 866              		.loc 1 980 0
 867 0018 00BF     		nop
 868 001a 0C37     		adds	r7, r7, #12
 869              		.cfi_def_cfa_offset 4
 870 001c BD46     		mov	sp, r7
 871              		.cfi_def_cfa_register 13
 872              		@ sp needed
 873 001e 80BC     		pop	{r7}
 874              		.cfi_restore 7
 875              		.cfi_def_cfa_offset 0
 876 0020 7047     		bx	lr
 877              	.L62:
 878 0022 00BF     		.align	2
 879              	.L61:
 880 0024 00000000 		.word	UART_READER_initVar
 881 0028 58650040 		.word	1073767768
 882              		.cfi_endproc
 883              	.LFE17:
 884              		.size	UART_READER_WriteTxData, .-UART_READER_WriteTxData
 885              		.section	.text.UART_READER_ReadTxStatus,"ax",%progbits
 886              		.align	2
 887              		.global	UART_READER_ReadTxStatus
 888              		.thumb
 889              		.thumb_func
 890              		.type	UART_READER_ReadTxStatus, %function
 891              	UART_READER_ReadTxStatus:
 892              	.LFB18:
 981:Generated_Source\PSoC5/UART_READER.c **** 
 982:Generated_Source\PSoC5/UART_READER.c **** 
 983:Generated_Source\PSoC5/UART_READER.c ****     /*******************************************************************************
 984:Generated_Source\PSoC5/UART_READER.c ****     * Function Name: UART_READER_ReadTxStatus
 985:Generated_Source\PSoC5/UART_READER.c ****     ********************************************************************************
 986:Generated_Source\PSoC5/UART_READER.c ****     *
 987:Generated_Source\PSoC5/UART_READER.c ****     * Summary:
 988:Generated_Source\PSoC5/UART_READER.c ****     *  Reads the status register for the TX portion of the UART.
ARM GAS  C:\Users\ilya\AppData\Local\Temp\ccoQ4V65.s 			page 34


 989:Generated_Source\PSoC5/UART_READER.c ****     *
 990:Generated_Source\PSoC5/UART_READER.c ****     * Parameters:
 991:Generated_Source\PSoC5/UART_READER.c ****     *  None.
 992:Generated_Source\PSoC5/UART_READER.c ****     *
 993:Generated_Source\PSoC5/UART_READER.c ****     * Return:
 994:Generated_Source\PSoC5/UART_READER.c ****     *  Contents of the status register
 995:Generated_Source\PSoC5/UART_READER.c ****     *
 996:Generated_Source\PSoC5/UART_READER.c ****     * Theory:
 997:Generated_Source\PSoC5/UART_READER.c ****     *  This function reads the TX status register, which is cleared on read.
 998:Generated_Source\PSoC5/UART_READER.c ****     *  It is up to the user to handle all bits in this return value accordingly,
 999:Generated_Source\PSoC5/UART_READER.c ****     *  even if the bit was not enabled as an interrupt source the event happened
1000:Generated_Source\PSoC5/UART_READER.c ****     *  and must be handled accordingly.
1001:Generated_Source\PSoC5/UART_READER.c ****     *
1002:Generated_Source\PSoC5/UART_READER.c ****     *******************************************************************************/
1003:Generated_Source\PSoC5/UART_READER.c ****     uint8 UART_READER_ReadTxStatus(void) 
1004:Generated_Source\PSoC5/UART_READER.c ****     {
 893              		.loc 1 1004 0
 894              		.cfi_startproc
 895              		@ args = 0, pretend = 0, frame = 0
 896              		@ frame_needed = 1, uses_anonymous_args = 0
 897              		@ link register save eliminated.
 898 0000 80B4     		push	{r7}
 899              		.cfi_def_cfa_offset 4
 900              		.cfi_offset 7, -4
 901 0002 00AF     		add	r7, sp, #0
 902              		.cfi_def_cfa_register 7
1005:Generated_Source\PSoC5/UART_READER.c ****         return(UART_READER_TXSTATUS_REG);
 903              		.loc 1 1005 0
 904 0004 034B     		ldr	r3, .L65
 905 0006 1B78     		ldrb	r3, [r3]
 906 0008 DBB2     		uxtb	r3, r3
1006:Generated_Source\PSoC5/UART_READER.c ****     }
 907              		.loc 1 1006 0
 908 000a 1846     		mov	r0, r3
 909 000c BD46     		mov	sp, r7
 910              		.cfi_def_cfa_register 13
 911              		@ sp needed
 912 000e 80BC     		pop	{r7}
 913              		.cfi_restore 7
 914              		.cfi_def_cfa_offset 0
 915 0010 7047     		bx	lr
 916              	.L66:
 917 0012 00BF     		.align	2
 918              	.L65:
 919 0014 67650040 		.word	1073767783
 920              		.cfi_endproc
 921              	.LFE18:
 922              		.size	UART_READER_ReadTxStatus, .-UART_READER_ReadTxStatus
 923              		.section	.text.UART_READER_PutChar,"ax",%progbits
 924              		.align	2
 925              		.global	UART_READER_PutChar
 926              		.thumb
 927              		.thumb_func
 928              		.type	UART_READER_PutChar, %function
 929              	UART_READER_PutChar:
 930              	.LFB19:
1007:Generated_Source\PSoC5/UART_READER.c **** 
ARM GAS  C:\Users\ilya\AppData\Local\Temp\ccoQ4V65.s 			page 35


1008:Generated_Source\PSoC5/UART_READER.c **** 
1009:Generated_Source\PSoC5/UART_READER.c ****     /*******************************************************************************
1010:Generated_Source\PSoC5/UART_READER.c ****     * Function Name: UART_READER_PutChar
1011:Generated_Source\PSoC5/UART_READER.c ****     ********************************************************************************
1012:Generated_Source\PSoC5/UART_READER.c ****     *
1013:Generated_Source\PSoC5/UART_READER.c ****     * Summary:
1014:Generated_Source\PSoC5/UART_READER.c ****     *  Puts a byte of data into the transmit buffer to be sent when the bus is
1015:Generated_Source\PSoC5/UART_READER.c ****     *  available. This is a blocking API that waits until the TX buffer has room to
1016:Generated_Source\PSoC5/UART_READER.c ****     *  hold the data.
1017:Generated_Source\PSoC5/UART_READER.c ****     *
1018:Generated_Source\PSoC5/UART_READER.c ****     * Parameters:
1019:Generated_Source\PSoC5/UART_READER.c ****     *  txDataByte: Byte containing the data to transmit
1020:Generated_Source\PSoC5/UART_READER.c ****     *
1021:Generated_Source\PSoC5/UART_READER.c ****     * Return:
1022:Generated_Source\PSoC5/UART_READER.c ****     *  None.
1023:Generated_Source\PSoC5/UART_READER.c ****     *
1024:Generated_Source\PSoC5/UART_READER.c ****     * Global Variables:
1025:Generated_Source\PSoC5/UART_READER.c ****     *  UART_READER_txBuffer - RAM buffer pointer for save data for transmission
1026:Generated_Source\PSoC5/UART_READER.c ****     *  UART_READER_txBufferWrite - cyclic index for write to txBuffer,
1027:Generated_Source\PSoC5/UART_READER.c ****     *     checked to identify free space in txBuffer and incremented after each byte
1028:Generated_Source\PSoC5/UART_READER.c ****     *     saved to buffer.
1029:Generated_Source\PSoC5/UART_READER.c ****     *  UART_READER_txBufferRead - cyclic index for read from txBuffer,
1030:Generated_Source\PSoC5/UART_READER.c ****     *     checked to identify free space in txBuffer.
1031:Generated_Source\PSoC5/UART_READER.c ****     *  UART_READER_initVar - checked to identify that the component has been
1032:Generated_Source\PSoC5/UART_READER.c ****     *     initialized.
1033:Generated_Source\PSoC5/UART_READER.c ****     *
1034:Generated_Source\PSoC5/UART_READER.c ****     * Reentrant:
1035:Generated_Source\PSoC5/UART_READER.c ****     *  No.
1036:Generated_Source\PSoC5/UART_READER.c ****     *
1037:Generated_Source\PSoC5/UART_READER.c ****     * Theory:
1038:Generated_Source\PSoC5/UART_READER.c ****     *  Allows the user to transmit any byte of data in a single transfer
1039:Generated_Source\PSoC5/UART_READER.c ****     *
1040:Generated_Source\PSoC5/UART_READER.c ****     *******************************************************************************/
1041:Generated_Source\PSoC5/UART_READER.c ****     void UART_READER_PutChar(uint8 txDataByte) 
1042:Generated_Source\PSoC5/UART_READER.c ****     {
 931              		.loc 1 1042 0
 932              		.cfi_startproc
 933              		@ args = 0, pretend = 0, frame = 8
 934              		@ frame_needed = 1, uses_anonymous_args = 0
 935              		@ link register save eliminated.
 936 0000 80B4     		push	{r7}
 937              		.cfi_def_cfa_offset 4
 938              		.cfi_offset 7, -4
 939 0002 83B0     		sub	sp, sp, #12
 940              		.cfi_def_cfa_offset 16
 941 0004 00AF     		add	r7, sp, #0
 942              		.cfi_def_cfa_register 7
 943 0006 0346     		mov	r3, r0
 944 0008 FB71     		strb	r3, [r7, #7]
1043:Generated_Source\PSoC5/UART_READER.c ****     #if (UART_READER_TX_INTERRUPT_ENABLED)
1044:Generated_Source\PSoC5/UART_READER.c ****         /* The temporary output pointer is used since it takes two instructions
1045:Generated_Source\PSoC5/UART_READER.c ****         *  to increment with a wrap, and we can't risk doing that with the real
1046:Generated_Source\PSoC5/UART_READER.c ****         *  pointer and getting an interrupt in between instructions.
1047:Generated_Source\PSoC5/UART_READER.c ****         */
1048:Generated_Source\PSoC5/UART_READER.c ****         uint8 locTxBufferWrite;
1049:Generated_Source\PSoC5/UART_READER.c ****         uint8 locTxBufferRead;
1050:Generated_Source\PSoC5/UART_READER.c **** 
ARM GAS  C:\Users\ilya\AppData\Local\Temp\ccoQ4V65.s 			page 36


1051:Generated_Source\PSoC5/UART_READER.c ****         do
1052:Generated_Source\PSoC5/UART_READER.c ****         { /* Block if software buffer is full, so we don't overwrite. */
1053:Generated_Source\PSoC5/UART_READER.c **** 
1054:Generated_Source\PSoC5/UART_READER.c ****         #if ((UART_READER_TX_BUFFER_SIZE > UART_READER_MAX_BYTE_VALUE) && (CY_PSOC3))
1055:Generated_Source\PSoC5/UART_READER.c ****             /* Disable TX interrupt to protect variables from modification */
1056:Generated_Source\PSoC5/UART_READER.c ****             UART_READER_DisableTxInt();
1057:Generated_Source\PSoC5/UART_READER.c ****         #endif /* (UART_READER_TX_BUFFER_SIZE > UART_READER_MAX_BYTE_VALUE) && (CY_PSOC3) */
1058:Generated_Source\PSoC5/UART_READER.c **** 
1059:Generated_Source\PSoC5/UART_READER.c ****             locTxBufferWrite = UART_READER_txBufferWrite;
1060:Generated_Source\PSoC5/UART_READER.c ****             locTxBufferRead  = UART_READER_txBufferRead;
1061:Generated_Source\PSoC5/UART_READER.c **** 
1062:Generated_Source\PSoC5/UART_READER.c ****         #if ((UART_READER_TX_BUFFER_SIZE > UART_READER_MAX_BYTE_VALUE) && (CY_PSOC3))
1063:Generated_Source\PSoC5/UART_READER.c ****             /* Enable interrupt to continue transmission */
1064:Generated_Source\PSoC5/UART_READER.c ****             UART_READER_EnableTxInt();
1065:Generated_Source\PSoC5/UART_READER.c ****         #endif /* (UART_READER_TX_BUFFER_SIZE > UART_READER_MAX_BYTE_VALUE) && (CY_PSOC3) */
1066:Generated_Source\PSoC5/UART_READER.c ****         }
1067:Generated_Source\PSoC5/UART_READER.c ****         while( (locTxBufferWrite < locTxBufferRead) ? (locTxBufferWrite == (locTxBufferRead - 1u)) 
1068:Generated_Source\PSoC5/UART_READER.c ****                                 ((locTxBufferWrite - locTxBufferRead) ==
1069:Generated_Source\PSoC5/UART_READER.c ****                                 (uint8)(UART_READER_TX_BUFFER_SIZE - 1u)) );
1070:Generated_Source\PSoC5/UART_READER.c **** 
1071:Generated_Source\PSoC5/UART_READER.c ****         if( (locTxBufferRead == locTxBufferWrite) &&
1072:Generated_Source\PSoC5/UART_READER.c ****             ((UART_READER_TXSTATUS_REG & UART_READER_TX_STS_FIFO_FULL) == 0u) )
1073:Generated_Source\PSoC5/UART_READER.c ****         {
1074:Generated_Source\PSoC5/UART_READER.c ****             /* Add directly to the FIFO */
1075:Generated_Source\PSoC5/UART_READER.c ****             UART_READER_TXDATA_REG = txDataByte;
1076:Generated_Source\PSoC5/UART_READER.c ****         }
1077:Generated_Source\PSoC5/UART_READER.c ****         else
1078:Generated_Source\PSoC5/UART_READER.c ****         {
1079:Generated_Source\PSoC5/UART_READER.c ****             if(locTxBufferWrite >= UART_READER_TX_BUFFER_SIZE)
1080:Generated_Source\PSoC5/UART_READER.c ****             {
1081:Generated_Source\PSoC5/UART_READER.c ****                 locTxBufferWrite = 0u;
1082:Generated_Source\PSoC5/UART_READER.c ****             }
1083:Generated_Source\PSoC5/UART_READER.c ****             /* Add to the software buffer. */
1084:Generated_Source\PSoC5/UART_READER.c ****             UART_READER_txBuffer[locTxBufferWrite] = txDataByte;
1085:Generated_Source\PSoC5/UART_READER.c ****             locTxBufferWrite++;
1086:Generated_Source\PSoC5/UART_READER.c **** 
1087:Generated_Source\PSoC5/UART_READER.c ****             /* Finally, update the real output pointer */
1088:Generated_Source\PSoC5/UART_READER.c ****         #if ((UART_READER_TX_BUFFER_SIZE > UART_READER_MAX_BYTE_VALUE) && (CY_PSOC3))
1089:Generated_Source\PSoC5/UART_READER.c ****             UART_READER_DisableTxInt();
1090:Generated_Source\PSoC5/UART_READER.c ****         #endif /* (UART_READER_TX_BUFFER_SIZE > UART_READER_MAX_BYTE_VALUE) && (CY_PSOC3) */
1091:Generated_Source\PSoC5/UART_READER.c **** 
1092:Generated_Source\PSoC5/UART_READER.c ****             UART_READER_txBufferWrite = locTxBufferWrite;
1093:Generated_Source\PSoC5/UART_READER.c **** 
1094:Generated_Source\PSoC5/UART_READER.c ****         #if ((UART_READER_TX_BUFFER_SIZE > UART_READER_MAX_BYTE_VALUE) && (CY_PSOC3))
1095:Generated_Source\PSoC5/UART_READER.c ****             UART_READER_EnableTxInt();
1096:Generated_Source\PSoC5/UART_READER.c ****         #endif /* (UART_READER_TX_BUFFER_SIZE > UART_READER_MAX_BYTE_VALUE) && (CY_PSOC3) */
1097:Generated_Source\PSoC5/UART_READER.c **** 
1098:Generated_Source\PSoC5/UART_READER.c ****             if(0u != (UART_READER_TXSTATUS_REG & UART_READER_TX_STS_FIFO_EMPTY))
1099:Generated_Source\PSoC5/UART_READER.c ****             {
1100:Generated_Source\PSoC5/UART_READER.c ****                 /* Trigger TX interrupt to send software buffer */
1101:Generated_Source\PSoC5/UART_READER.c ****                 UART_READER_SetPendingTxInt();
1102:Generated_Source\PSoC5/UART_READER.c ****             }
1103:Generated_Source\PSoC5/UART_READER.c ****         }
1104:Generated_Source\PSoC5/UART_READER.c **** 
1105:Generated_Source\PSoC5/UART_READER.c ****     #else
1106:Generated_Source\PSoC5/UART_READER.c **** 
1107:Generated_Source\PSoC5/UART_READER.c ****         while((UART_READER_TXSTATUS_REG & UART_READER_TX_STS_FIFO_FULL) != 0u)
ARM GAS  C:\Users\ilya\AppData\Local\Temp\ccoQ4V65.s 			page 37


 945              		.loc 1 1107 0
 946 000a 00BF     		nop
 947              	.L68:
 948              		.loc 1 1107 0 is_stmt 0 discriminator 1
 949 000c 074B     		ldr	r3, .L69
 950 000e 1B78     		ldrb	r3, [r3]
 951 0010 DBB2     		uxtb	r3, r3
 952 0012 03F02003 		and	r3, r3, #32
 953 0016 002B     		cmp	r3, #0
 954 0018 F8D1     		bne	.L68
1108:Generated_Source\PSoC5/UART_READER.c ****         {
1109:Generated_Source\PSoC5/UART_READER.c ****             /* Wait for room in the FIFO */
1110:Generated_Source\PSoC5/UART_READER.c ****         }
1111:Generated_Source\PSoC5/UART_READER.c **** 
1112:Generated_Source\PSoC5/UART_READER.c ****         /* Add directly to the FIFO */
1113:Generated_Source\PSoC5/UART_READER.c ****         UART_READER_TXDATA_REG = txDataByte;
 955              		.loc 1 1113 0 is_stmt 1
 956 001a 054A     		ldr	r2, .L69+4
 957 001c FB79     		ldrb	r3, [r7, #7]
 958 001e 1370     		strb	r3, [r2]
1114:Generated_Source\PSoC5/UART_READER.c **** 
1115:Generated_Source\PSoC5/UART_READER.c ****     #endif /* UART_READER_TX_INTERRUPT_ENABLED */
1116:Generated_Source\PSoC5/UART_READER.c ****     }
 959              		.loc 1 1116 0
 960 0020 00BF     		nop
 961 0022 0C37     		adds	r7, r7, #12
 962              		.cfi_def_cfa_offset 4
 963 0024 BD46     		mov	sp, r7
 964              		.cfi_def_cfa_register 13
 965              		@ sp needed
 966 0026 80BC     		pop	{r7}
 967              		.cfi_restore 7
 968              		.cfi_def_cfa_offset 0
 969 0028 7047     		bx	lr
 970              	.L70:
 971 002a 00BF     		.align	2
 972              	.L69:
 973 002c 67650040 		.word	1073767783
 974 0030 58650040 		.word	1073767768
 975              		.cfi_endproc
 976              	.LFE19:
 977              		.size	UART_READER_PutChar, .-UART_READER_PutChar
 978              		.section	.text.UART_READER_PutString,"ax",%progbits
 979              		.align	2
 980              		.global	UART_READER_PutString
 981              		.thumb
 982              		.thumb_func
 983              		.type	UART_READER_PutString, %function
 984              	UART_READER_PutString:
 985              	.LFB20:
1117:Generated_Source\PSoC5/UART_READER.c **** 
1118:Generated_Source\PSoC5/UART_READER.c **** 
1119:Generated_Source\PSoC5/UART_READER.c ****     /*******************************************************************************
1120:Generated_Source\PSoC5/UART_READER.c ****     * Function Name: UART_READER_PutString
1121:Generated_Source\PSoC5/UART_READER.c ****     ********************************************************************************
1122:Generated_Source\PSoC5/UART_READER.c ****     *
1123:Generated_Source\PSoC5/UART_READER.c ****     * Summary:
ARM GAS  C:\Users\ilya\AppData\Local\Temp\ccoQ4V65.s 			page 38


1124:Generated_Source\PSoC5/UART_READER.c ****     *  Sends a NULL terminated string to the TX buffer for transmission.
1125:Generated_Source\PSoC5/UART_READER.c ****     *
1126:Generated_Source\PSoC5/UART_READER.c ****     * Parameters:
1127:Generated_Source\PSoC5/UART_READER.c ****     *  string[]: Pointer to the null terminated string array residing in RAM or ROM
1128:Generated_Source\PSoC5/UART_READER.c ****     *
1129:Generated_Source\PSoC5/UART_READER.c ****     * Return:
1130:Generated_Source\PSoC5/UART_READER.c ****     *  None.
1131:Generated_Source\PSoC5/UART_READER.c ****     *
1132:Generated_Source\PSoC5/UART_READER.c ****     * Global Variables:
1133:Generated_Source\PSoC5/UART_READER.c ****     *  UART_READER_initVar - checked to identify that the component has been
1134:Generated_Source\PSoC5/UART_READER.c ****     *     initialized.
1135:Generated_Source\PSoC5/UART_READER.c ****     *
1136:Generated_Source\PSoC5/UART_READER.c ****     * Reentrant:
1137:Generated_Source\PSoC5/UART_READER.c ****     *  No.
1138:Generated_Source\PSoC5/UART_READER.c ****     *
1139:Generated_Source\PSoC5/UART_READER.c ****     * Theory:
1140:Generated_Source\PSoC5/UART_READER.c ****     *  If there is not enough memory in the TX buffer for the entire string, this
1141:Generated_Source\PSoC5/UART_READER.c ****     *  function blocks until the last character of the string is loaded into the
1142:Generated_Source\PSoC5/UART_READER.c ****     *  TX buffer.
1143:Generated_Source\PSoC5/UART_READER.c ****     *
1144:Generated_Source\PSoC5/UART_READER.c ****     *******************************************************************************/
1145:Generated_Source\PSoC5/UART_READER.c ****     void UART_READER_PutString(const char8 string[]) 
1146:Generated_Source\PSoC5/UART_READER.c ****     {
 986              		.loc 1 1146 0
 987              		.cfi_startproc
 988              		@ args = 0, pretend = 0, frame = 16
 989              		@ frame_needed = 1, uses_anonymous_args = 0
 990 0000 80B5     		push	{r7, lr}
 991              		.cfi_def_cfa_offset 8
 992              		.cfi_offset 7, -8
 993              		.cfi_offset 14, -4
 994 0002 84B0     		sub	sp, sp, #16
 995              		.cfi_def_cfa_offset 24
 996 0004 00AF     		add	r7, sp, #0
 997              		.cfi_def_cfa_register 7
 998 0006 7860     		str	r0, [r7, #4]
1147:Generated_Source\PSoC5/UART_READER.c ****         uint16 bufIndex = 0u;
 999              		.loc 1 1147 0
 1000 0008 0023     		movs	r3, #0
 1001 000a FB81     		strh	r3, [r7, #14]	@ movhi
1148:Generated_Source\PSoC5/UART_READER.c **** 
1149:Generated_Source\PSoC5/UART_READER.c ****         /* If not Initialized then skip this function */
1150:Generated_Source\PSoC5/UART_READER.c ****         if(UART_READER_initVar != 0u)
 1002              		.loc 1 1150 0
 1003 000c 0C4B     		ldr	r3, .L76
 1004 000e 1B78     		ldrb	r3, [r3]	@ zero_extendqisi2
 1005 0010 002B     		cmp	r3, #0
 1006 0012 10D0     		beq	.L75
1151:Generated_Source\PSoC5/UART_READER.c ****         {
1152:Generated_Source\PSoC5/UART_READER.c ****             /* This is a blocking function, it will not exit until all data is sent */
1153:Generated_Source\PSoC5/UART_READER.c ****             while(string[bufIndex] != (char8) 0)
 1007              		.loc 1 1153 0
 1008 0014 09E0     		b	.L73
 1009              	.L74:
1154:Generated_Source\PSoC5/UART_READER.c ****             {
1155:Generated_Source\PSoC5/UART_READER.c ****                 UART_READER_PutChar((uint8)string[bufIndex]);
 1010              		.loc 1 1155 0
ARM GAS  C:\Users\ilya\AppData\Local\Temp\ccoQ4V65.s 			page 39


 1011 0016 FB89     		ldrh	r3, [r7, #14]
 1012 0018 7A68     		ldr	r2, [r7, #4]
 1013 001a 1344     		add	r3, r3, r2
 1014 001c 1B78     		ldrb	r3, [r3]	@ zero_extendqisi2
 1015 001e 1846     		mov	r0, r3
 1016 0020 FFF7FEFF 		bl	UART_READER_PutChar
1156:Generated_Source\PSoC5/UART_READER.c ****                 bufIndex++;
 1017              		.loc 1 1156 0
 1018 0024 FB89     		ldrh	r3, [r7, #14]
 1019 0026 0133     		adds	r3, r3, #1
 1020 0028 FB81     		strh	r3, [r7, #14]	@ movhi
 1021              	.L73:
1153:Generated_Source\PSoC5/UART_READER.c ****             {
 1022              		.loc 1 1153 0
 1023 002a FB89     		ldrh	r3, [r7, #14]
 1024 002c 7A68     		ldr	r2, [r7, #4]
 1025 002e 1344     		add	r3, r3, r2
 1026 0030 1B78     		ldrb	r3, [r3]	@ zero_extendqisi2
 1027 0032 002B     		cmp	r3, #0
 1028 0034 EFD1     		bne	.L74
 1029              	.L75:
1157:Generated_Source\PSoC5/UART_READER.c ****             }
1158:Generated_Source\PSoC5/UART_READER.c ****         }
1159:Generated_Source\PSoC5/UART_READER.c ****     }
 1030              		.loc 1 1159 0
 1031 0036 00BF     		nop
 1032 0038 1037     		adds	r7, r7, #16
 1033              		.cfi_def_cfa_offset 8
 1034 003a BD46     		mov	sp, r7
 1035              		.cfi_def_cfa_register 13
 1036              		@ sp needed
 1037 003c 80BD     		pop	{r7, pc}
 1038              	.L77:
 1039 003e 00BF     		.align	2
 1040              	.L76:
 1041 0040 00000000 		.word	UART_READER_initVar
 1042              		.cfi_endproc
 1043              	.LFE20:
 1044              		.size	UART_READER_PutString, .-UART_READER_PutString
 1045              		.section	.text.UART_READER_PutArray,"ax",%progbits
 1046              		.align	2
 1047              		.global	UART_READER_PutArray
 1048              		.thumb
 1049              		.thumb_func
 1050              		.type	UART_READER_PutArray, %function
 1051              	UART_READER_PutArray:
 1052              	.LFB21:
1160:Generated_Source\PSoC5/UART_READER.c **** 
1161:Generated_Source\PSoC5/UART_READER.c **** 
1162:Generated_Source\PSoC5/UART_READER.c ****     /*******************************************************************************
1163:Generated_Source\PSoC5/UART_READER.c ****     * Function Name: UART_READER_PutArray
1164:Generated_Source\PSoC5/UART_READER.c ****     ********************************************************************************
1165:Generated_Source\PSoC5/UART_READER.c ****     *
1166:Generated_Source\PSoC5/UART_READER.c ****     * Summary:
1167:Generated_Source\PSoC5/UART_READER.c ****     *  Places N bytes of data from a memory array into the TX buffer for
1168:Generated_Source\PSoC5/UART_READER.c ****     *  transmission.
1169:Generated_Source\PSoC5/UART_READER.c ****     *
ARM GAS  C:\Users\ilya\AppData\Local\Temp\ccoQ4V65.s 			page 40


1170:Generated_Source\PSoC5/UART_READER.c ****     * Parameters:
1171:Generated_Source\PSoC5/UART_READER.c ****     *  string[]: Address of the memory array residing in RAM or ROM.
1172:Generated_Source\PSoC5/UART_READER.c ****     *  byteCount: Number of bytes to be transmitted. The type depends on TX Buffer
1173:Generated_Source\PSoC5/UART_READER.c ****     *             Size parameter.
1174:Generated_Source\PSoC5/UART_READER.c ****     *
1175:Generated_Source\PSoC5/UART_READER.c ****     * Return:
1176:Generated_Source\PSoC5/UART_READER.c ****     *  None.
1177:Generated_Source\PSoC5/UART_READER.c ****     *
1178:Generated_Source\PSoC5/UART_READER.c ****     * Global Variables:
1179:Generated_Source\PSoC5/UART_READER.c ****     *  UART_READER_initVar - checked to identify that the component has been
1180:Generated_Source\PSoC5/UART_READER.c ****     *     initialized.
1181:Generated_Source\PSoC5/UART_READER.c ****     *
1182:Generated_Source\PSoC5/UART_READER.c ****     * Reentrant:
1183:Generated_Source\PSoC5/UART_READER.c ****     *  No.
1184:Generated_Source\PSoC5/UART_READER.c ****     *
1185:Generated_Source\PSoC5/UART_READER.c ****     * Theory:
1186:Generated_Source\PSoC5/UART_READER.c ****     *  If there is not enough memory in the TX buffer for the entire string, this
1187:Generated_Source\PSoC5/UART_READER.c ****     *  function blocks until the last character of the string is loaded into the
1188:Generated_Source\PSoC5/UART_READER.c ****     *  TX buffer.
1189:Generated_Source\PSoC5/UART_READER.c ****     *
1190:Generated_Source\PSoC5/UART_READER.c ****     *******************************************************************************/
1191:Generated_Source\PSoC5/UART_READER.c ****     void UART_READER_PutArray(const uint8 string[], uint8 byteCount)
1192:Generated_Source\PSoC5/UART_READER.c ****                                                                     
1193:Generated_Source\PSoC5/UART_READER.c ****     {
 1053              		.loc 1 1193 0
 1054              		.cfi_startproc
 1055              		@ args = 0, pretend = 0, frame = 16
 1056              		@ frame_needed = 1, uses_anonymous_args = 0
 1057 0000 80B5     		push	{r7, lr}
 1058              		.cfi_def_cfa_offset 8
 1059              		.cfi_offset 7, -8
 1060              		.cfi_offset 14, -4
 1061 0002 84B0     		sub	sp, sp, #16
 1062              		.cfi_def_cfa_offset 24
 1063 0004 00AF     		add	r7, sp, #0
 1064              		.cfi_def_cfa_register 7
 1065 0006 7860     		str	r0, [r7, #4]
 1066 0008 0B46     		mov	r3, r1
 1067 000a FB70     		strb	r3, [r7, #3]
1194:Generated_Source\PSoC5/UART_READER.c ****         uint8 bufIndex = 0u;
 1068              		.loc 1 1194 0
 1069 000c 0023     		movs	r3, #0
 1070 000e FB73     		strb	r3, [r7, #15]
1195:Generated_Source\PSoC5/UART_READER.c **** 
1196:Generated_Source\PSoC5/UART_READER.c ****         /* If not Initialized then skip this function */
1197:Generated_Source\PSoC5/UART_READER.c ****         if(UART_READER_initVar != 0u)
 1071              		.loc 1 1197 0
 1072 0010 0B4B     		ldr	r3, .L83
 1073 0012 1B78     		ldrb	r3, [r3]	@ zero_extendqisi2
 1074 0014 002B     		cmp	r3, #0
 1075 0016 0ED0     		beq	.L82
1198:Generated_Source\PSoC5/UART_READER.c ****         {
1199:Generated_Source\PSoC5/UART_READER.c ****             while(bufIndex < byteCount)
 1076              		.loc 1 1199 0
 1077 0018 09E0     		b	.L80
 1078              	.L81:
1200:Generated_Source\PSoC5/UART_READER.c ****             {
ARM GAS  C:\Users\ilya\AppData\Local\Temp\ccoQ4V65.s 			page 41


1201:Generated_Source\PSoC5/UART_READER.c ****                 UART_READER_PutChar(string[bufIndex]);
 1079              		.loc 1 1201 0
 1080 001a FB7B     		ldrb	r3, [r7, #15]	@ zero_extendqisi2
 1081 001c 7A68     		ldr	r2, [r7, #4]
 1082 001e 1344     		add	r3, r3, r2
 1083 0020 1B78     		ldrb	r3, [r3]	@ zero_extendqisi2
 1084 0022 1846     		mov	r0, r3
 1085 0024 FFF7FEFF 		bl	UART_READER_PutChar
1202:Generated_Source\PSoC5/UART_READER.c ****                 bufIndex++;
 1086              		.loc 1 1202 0
 1087 0028 FB7B     		ldrb	r3, [r7, #15]	@ zero_extendqisi2
 1088 002a 0133     		adds	r3, r3, #1
 1089 002c FB73     		strb	r3, [r7, #15]
 1090              	.L80:
1199:Generated_Source\PSoC5/UART_READER.c ****             {
 1091              		.loc 1 1199 0
 1092 002e FA7B     		ldrb	r2, [r7, #15]	@ zero_extendqisi2
 1093 0030 FB78     		ldrb	r3, [r7, #3]	@ zero_extendqisi2
 1094 0032 9A42     		cmp	r2, r3
 1095 0034 F1D3     		bcc	.L81
 1096              	.L82:
1203:Generated_Source\PSoC5/UART_READER.c ****             }
1204:Generated_Source\PSoC5/UART_READER.c ****         }
1205:Generated_Source\PSoC5/UART_READER.c ****     }
 1097              		.loc 1 1205 0
 1098 0036 00BF     		nop
 1099 0038 1037     		adds	r7, r7, #16
 1100              		.cfi_def_cfa_offset 8
 1101 003a BD46     		mov	sp, r7
 1102              		.cfi_def_cfa_register 13
 1103              		@ sp needed
 1104 003c 80BD     		pop	{r7, pc}
 1105              	.L84:
 1106 003e 00BF     		.align	2
 1107              	.L83:
 1108 0040 00000000 		.word	UART_READER_initVar
 1109              		.cfi_endproc
 1110              	.LFE21:
 1111              		.size	UART_READER_PutArray, .-UART_READER_PutArray
 1112              		.section	.text.UART_READER_PutCRLF,"ax",%progbits
 1113              		.align	2
 1114              		.global	UART_READER_PutCRLF
 1115              		.thumb
 1116              		.thumb_func
 1117              		.type	UART_READER_PutCRLF, %function
 1118              	UART_READER_PutCRLF:
 1119              	.LFB22:
1206:Generated_Source\PSoC5/UART_READER.c **** 
1207:Generated_Source\PSoC5/UART_READER.c **** 
1208:Generated_Source\PSoC5/UART_READER.c ****     /*******************************************************************************
1209:Generated_Source\PSoC5/UART_READER.c ****     * Function Name: UART_READER_PutCRLF
1210:Generated_Source\PSoC5/UART_READER.c ****     ********************************************************************************
1211:Generated_Source\PSoC5/UART_READER.c ****     *
1212:Generated_Source\PSoC5/UART_READER.c ****     * Summary:
1213:Generated_Source\PSoC5/UART_READER.c ****     *  Writes a byte of data followed by a carriage return (0x0D) and line feed
1214:Generated_Source\PSoC5/UART_READER.c ****     *  (0x0A) to the transmit buffer.
1215:Generated_Source\PSoC5/UART_READER.c ****     *
ARM GAS  C:\Users\ilya\AppData\Local\Temp\ccoQ4V65.s 			page 42


1216:Generated_Source\PSoC5/UART_READER.c ****     * Parameters:
1217:Generated_Source\PSoC5/UART_READER.c ****     *  txDataByte: Data byte to transmit before the carriage return and line feed.
1218:Generated_Source\PSoC5/UART_READER.c ****     *
1219:Generated_Source\PSoC5/UART_READER.c ****     * Return:
1220:Generated_Source\PSoC5/UART_READER.c ****     *  None.
1221:Generated_Source\PSoC5/UART_READER.c ****     *
1222:Generated_Source\PSoC5/UART_READER.c ****     * Global Variables:
1223:Generated_Source\PSoC5/UART_READER.c ****     *  UART_READER_initVar - checked to identify that the component has been
1224:Generated_Source\PSoC5/UART_READER.c ****     *     initialized.
1225:Generated_Source\PSoC5/UART_READER.c ****     *
1226:Generated_Source\PSoC5/UART_READER.c ****     * Reentrant:
1227:Generated_Source\PSoC5/UART_READER.c ****     *  No.
1228:Generated_Source\PSoC5/UART_READER.c ****     *
1229:Generated_Source\PSoC5/UART_READER.c ****     *******************************************************************************/
1230:Generated_Source\PSoC5/UART_READER.c ****     void UART_READER_PutCRLF(uint8 txDataByte) 
1231:Generated_Source\PSoC5/UART_READER.c ****     {
 1120              		.loc 1 1231 0
 1121              		.cfi_startproc
 1122              		@ args = 0, pretend = 0, frame = 8
 1123              		@ frame_needed = 1, uses_anonymous_args = 0
 1124 0000 80B5     		push	{r7, lr}
 1125              		.cfi_def_cfa_offset 8
 1126              		.cfi_offset 7, -8
 1127              		.cfi_offset 14, -4
 1128 0002 82B0     		sub	sp, sp, #8
 1129              		.cfi_def_cfa_offset 16
 1130 0004 00AF     		add	r7, sp, #0
 1131              		.cfi_def_cfa_register 7
 1132 0006 0346     		mov	r3, r0
 1133 0008 FB71     		strb	r3, [r7, #7]
1232:Generated_Source\PSoC5/UART_READER.c ****         /* If not Initialized then skip this function */
1233:Generated_Source\PSoC5/UART_READER.c ****         if(UART_READER_initVar != 0u)
 1134              		.loc 1 1233 0
 1135 000a 094B     		ldr	r3, .L88
 1136 000c 1B78     		ldrb	r3, [r3]	@ zero_extendqisi2
 1137 000e 002B     		cmp	r3, #0
 1138 0010 09D0     		beq	.L87
1234:Generated_Source\PSoC5/UART_READER.c ****         {
1235:Generated_Source\PSoC5/UART_READER.c ****             UART_READER_PutChar(txDataByte);
 1139              		.loc 1 1235 0
 1140 0012 FB79     		ldrb	r3, [r7, #7]	@ zero_extendqisi2
 1141 0014 1846     		mov	r0, r3
 1142 0016 FFF7FEFF 		bl	UART_READER_PutChar
1236:Generated_Source\PSoC5/UART_READER.c ****             UART_READER_PutChar(0x0Du);
 1143              		.loc 1 1236 0
 1144 001a 0D20     		movs	r0, #13
 1145 001c FFF7FEFF 		bl	UART_READER_PutChar
1237:Generated_Source\PSoC5/UART_READER.c ****             UART_READER_PutChar(0x0Au);
 1146              		.loc 1 1237 0
 1147 0020 0A20     		movs	r0, #10
 1148 0022 FFF7FEFF 		bl	UART_READER_PutChar
 1149              	.L87:
1238:Generated_Source\PSoC5/UART_READER.c ****         }
1239:Generated_Source\PSoC5/UART_READER.c ****     }
 1150              		.loc 1 1239 0
 1151 0026 00BF     		nop
 1152 0028 0837     		adds	r7, r7, #8
ARM GAS  C:\Users\ilya\AppData\Local\Temp\ccoQ4V65.s 			page 43


 1153              		.cfi_def_cfa_offset 8
 1154 002a BD46     		mov	sp, r7
 1155              		.cfi_def_cfa_register 13
 1156              		@ sp needed
 1157 002c 80BD     		pop	{r7, pc}
 1158              	.L89:
 1159 002e 00BF     		.align	2
 1160              	.L88:
 1161 0030 00000000 		.word	UART_READER_initVar
 1162              		.cfi_endproc
 1163              	.LFE22:
 1164              		.size	UART_READER_PutCRLF, .-UART_READER_PutCRLF
 1165              		.section	.text.UART_READER_GetTxBufferSize,"ax",%progbits
 1166              		.align	2
 1167              		.global	UART_READER_GetTxBufferSize
 1168              		.thumb
 1169              		.thumb_func
 1170              		.type	UART_READER_GetTxBufferSize, %function
 1171              	UART_READER_GetTxBufferSize:
 1172              	.LFB23:
1240:Generated_Source\PSoC5/UART_READER.c **** 
1241:Generated_Source\PSoC5/UART_READER.c **** 
1242:Generated_Source\PSoC5/UART_READER.c ****     /*******************************************************************************
1243:Generated_Source\PSoC5/UART_READER.c ****     * Function Name: UART_READER_GetTxBufferSize
1244:Generated_Source\PSoC5/UART_READER.c ****     ********************************************************************************
1245:Generated_Source\PSoC5/UART_READER.c ****     *
1246:Generated_Source\PSoC5/UART_READER.c ****     * Summary:
1247:Generated_Source\PSoC5/UART_READER.c ****     *  Returns the number of bytes in the TX buffer which are waiting to be 
1248:Generated_Source\PSoC5/UART_READER.c ****     *  transmitted.
1249:Generated_Source\PSoC5/UART_READER.c ****     *  * TX software buffer is disabled (TX Buffer Size parameter is equal to 4): 
1250:Generated_Source\PSoC5/UART_READER.c ****     *    returns 0 for empty TX FIFO, 1 for not full TX FIFO or 4 for full TX FIFO.
1251:Generated_Source\PSoC5/UART_READER.c ****     *  * TX software buffer is enabled: returns the number of bytes in the TX 
1252:Generated_Source\PSoC5/UART_READER.c ****     *    software buffer which are waiting to be transmitted. Bytes available in the
1253:Generated_Source\PSoC5/UART_READER.c ****     *    TX FIFO do not count.
1254:Generated_Source\PSoC5/UART_READER.c ****     *
1255:Generated_Source\PSoC5/UART_READER.c ****     * Parameters:
1256:Generated_Source\PSoC5/UART_READER.c ****     *  None.
1257:Generated_Source\PSoC5/UART_READER.c ****     *
1258:Generated_Source\PSoC5/UART_READER.c ****     * Return:
1259:Generated_Source\PSoC5/UART_READER.c ****     *  Number of bytes used in the TX buffer. Return value type depends on the TX 
1260:Generated_Source\PSoC5/UART_READER.c ****     *  Buffer Size parameter.
1261:Generated_Source\PSoC5/UART_READER.c ****     *
1262:Generated_Source\PSoC5/UART_READER.c ****     * Global Variables:
1263:Generated_Source\PSoC5/UART_READER.c ****     *  UART_READER_txBufferWrite - used to calculate left space.
1264:Generated_Source\PSoC5/UART_READER.c ****     *  UART_READER_txBufferRead - used to calculate left space.
1265:Generated_Source\PSoC5/UART_READER.c ****     *
1266:Generated_Source\PSoC5/UART_READER.c ****     * Reentrant:
1267:Generated_Source\PSoC5/UART_READER.c ****     *  No.
1268:Generated_Source\PSoC5/UART_READER.c ****     *
1269:Generated_Source\PSoC5/UART_READER.c ****     * Theory:
1270:Generated_Source\PSoC5/UART_READER.c ****     *  Allows the user to find out how full the TX Buffer is.
1271:Generated_Source\PSoC5/UART_READER.c ****     *
1272:Generated_Source\PSoC5/UART_READER.c ****     *******************************************************************************/
1273:Generated_Source\PSoC5/UART_READER.c ****     uint8 UART_READER_GetTxBufferSize(void)
1274:Generated_Source\PSoC5/UART_READER.c ****                                                             
1275:Generated_Source\PSoC5/UART_READER.c ****     {
 1173              		.loc 1 1275 0
ARM GAS  C:\Users\ilya\AppData\Local\Temp\ccoQ4V65.s 			page 44


 1174              		.cfi_startproc
 1175              		@ args = 0, pretend = 0, frame = 8
 1176              		@ frame_needed = 1, uses_anonymous_args = 0
 1177              		@ link register save eliminated.
 1178 0000 80B4     		push	{r7}
 1179              		.cfi_def_cfa_offset 4
 1180              		.cfi_offset 7, -4
 1181 0002 83B0     		sub	sp, sp, #12
 1182              		.cfi_def_cfa_offset 16
 1183 0004 00AF     		add	r7, sp, #0
 1184              		.cfi_def_cfa_register 7
1276:Generated_Source\PSoC5/UART_READER.c ****         uint8 size;
1277:Generated_Source\PSoC5/UART_READER.c **** 
1278:Generated_Source\PSoC5/UART_READER.c ****     #if (UART_READER_TX_INTERRUPT_ENABLED)
1279:Generated_Source\PSoC5/UART_READER.c **** 
1280:Generated_Source\PSoC5/UART_READER.c ****         /* Protect variables that could change on interrupt. */
1281:Generated_Source\PSoC5/UART_READER.c ****         UART_READER_DisableTxInt();
1282:Generated_Source\PSoC5/UART_READER.c **** 
1283:Generated_Source\PSoC5/UART_READER.c ****         if(UART_READER_txBufferRead == UART_READER_txBufferWrite)
1284:Generated_Source\PSoC5/UART_READER.c ****         {
1285:Generated_Source\PSoC5/UART_READER.c ****             size = 0u;
1286:Generated_Source\PSoC5/UART_READER.c ****         }
1287:Generated_Source\PSoC5/UART_READER.c ****         else if(UART_READER_txBufferRead < UART_READER_txBufferWrite)
1288:Generated_Source\PSoC5/UART_READER.c ****         {
1289:Generated_Source\PSoC5/UART_READER.c ****             size = (UART_READER_txBufferWrite - UART_READER_txBufferRead);
1290:Generated_Source\PSoC5/UART_READER.c ****         }
1291:Generated_Source\PSoC5/UART_READER.c ****         else
1292:Generated_Source\PSoC5/UART_READER.c ****         {
1293:Generated_Source\PSoC5/UART_READER.c ****             size = (UART_READER_TX_BUFFER_SIZE - UART_READER_txBufferRead) +
1294:Generated_Source\PSoC5/UART_READER.c ****                     UART_READER_txBufferWrite;
1295:Generated_Source\PSoC5/UART_READER.c ****         }
1296:Generated_Source\PSoC5/UART_READER.c **** 
1297:Generated_Source\PSoC5/UART_READER.c ****         UART_READER_EnableTxInt();
1298:Generated_Source\PSoC5/UART_READER.c **** 
1299:Generated_Source\PSoC5/UART_READER.c ****     #else
1300:Generated_Source\PSoC5/UART_READER.c **** 
1301:Generated_Source\PSoC5/UART_READER.c ****         size = UART_READER_TXSTATUS_REG;
 1185              		.loc 1 1301 0
 1186 0006 0D4B     		ldr	r3, .L95
 1187 0008 1B78     		ldrb	r3, [r3]
 1188 000a FB71     		strb	r3, [r7, #7]
1302:Generated_Source\PSoC5/UART_READER.c **** 
1303:Generated_Source\PSoC5/UART_READER.c ****         /* Is the fifo is full. */
1304:Generated_Source\PSoC5/UART_READER.c ****         if((size & UART_READER_TX_STS_FIFO_FULL) != 0u)
 1189              		.loc 1 1304 0
 1190 000c FB79     		ldrb	r3, [r7, #7]	@ zero_extendqisi2
 1191 000e 03F02003 		and	r3, r3, #32
 1192 0012 002B     		cmp	r3, #0
 1193 0014 02D0     		beq	.L91
1305:Generated_Source\PSoC5/UART_READER.c ****         {
1306:Generated_Source\PSoC5/UART_READER.c ****             size = UART_READER_FIFO_LENGTH;
 1194              		.loc 1 1306 0
 1195 0016 0423     		movs	r3, #4
 1196 0018 FB71     		strb	r3, [r7, #7]
 1197 001a 09E0     		b	.L92
 1198              	.L91:
1307:Generated_Source\PSoC5/UART_READER.c ****         }
ARM GAS  C:\Users\ilya\AppData\Local\Temp\ccoQ4V65.s 			page 45


1308:Generated_Source\PSoC5/UART_READER.c ****         else if((size & UART_READER_TX_STS_FIFO_EMPTY) != 0u)
 1199              		.loc 1 1308 0
 1200 001c FB79     		ldrb	r3, [r7, #7]	@ zero_extendqisi2
 1201 001e 03F00203 		and	r3, r3, #2
 1202 0022 002B     		cmp	r3, #0
 1203 0024 02D0     		beq	.L93
1309:Generated_Source\PSoC5/UART_READER.c ****         {
1310:Generated_Source\PSoC5/UART_READER.c ****             size = 0u;
 1204              		.loc 1 1310 0
 1205 0026 0023     		movs	r3, #0
 1206 0028 FB71     		strb	r3, [r7, #7]
 1207 002a 01E0     		b	.L92
 1208              	.L93:
1311:Generated_Source\PSoC5/UART_READER.c ****         }
1312:Generated_Source\PSoC5/UART_READER.c ****         else
1313:Generated_Source\PSoC5/UART_READER.c ****         {
1314:Generated_Source\PSoC5/UART_READER.c ****             /* We only know there is data in the fifo. */
1315:Generated_Source\PSoC5/UART_READER.c ****             size = 1u;
 1209              		.loc 1 1315 0
 1210 002c 0123     		movs	r3, #1
 1211 002e FB71     		strb	r3, [r7, #7]
 1212              	.L92:
1316:Generated_Source\PSoC5/UART_READER.c ****         }
1317:Generated_Source\PSoC5/UART_READER.c **** 
1318:Generated_Source\PSoC5/UART_READER.c ****     #endif /* (UART_READER_TX_INTERRUPT_ENABLED) */
1319:Generated_Source\PSoC5/UART_READER.c **** 
1320:Generated_Source\PSoC5/UART_READER.c ****     return(size);
 1213              		.loc 1 1320 0
 1214 0030 FB79     		ldrb	r3, [r7, #7]	@ zero_extendqisi2
1321:Generated_Source\PSoC5/UART_READER.c ****     }
 1215              		.loc 1 1321 0
 1216 0032 1846     		mov	r0, r3
 1217 0034 0C37     		adds	r7, r7, #12
 1218              		.cfi_def_cfa_offset 4
 1219 0036 BD46     		mov	sp, r7
 1220              		.cfi_def_cfa_register 13
 1221              		@ sp needed
 1222 0038 80BC     		pop	{r7}
 1223              		.cfi_restore 7
 1224              		.cfi_def_cfa_offset 0
 1225 003a 7047     		bx	lr
 1226              	.L96:
 1227              		.align	2
 1228              	.L95:
 1229 003c 67650040 		.word	1073767783
 1230              		.cfi_endproc
 1231              	.LFE23:
 1232              		.size	UART_READER_GetTxBufferSize, .-UART_READER_GetTxBufferSize
 1233              		.section	.text.UART_READER_ClearTxBuffer,"ax",%progbits
 1234              		.align	2
 1235              		.global	UART_READER_ClearTxBuffer
 1236              		.thumb
 1237              		.thumb_func
 1238              		.type	UART_READER_ClearTxBuffer, %function
 1239              	UART_READER_ClearTxBuffer:
 1240              	.LFB24:
1322:Generated_Source\PSoC5/UART_READER.c **** 
ARM GAS  C:\Users\ilya\AppData\Local\Temp\ccoQ4V65.s 			page 46


1323:Generated_Source\PSoC5/UART_READER.c **** 
1324:Generated_Source\PSoC5/UART_READER.c ****     /*******************************************************************************
1325:Generated_Source\PSoC5/UART_READER.c ****     * Function Name: UART_READER_ClearTxBuffer
1326:Generated_Source\PSoC5/UART_READER.c ****     ********************************************************************************
1327:Generated_Source\PSoC5/UART_READER.c ****     *
1328:Generated_Source\PSoC5/UART_READER.c ****     * Summary:
1329:Generated_Source\PSoC5/UART_READER.c ****     *  Clears all data from the TX buffer and hardware TX FIFO.
1330:Generated_Source\PSoC5/UART_READER.c ****     *
1331:Generated_Source\PSoC5/UART_READER.c ****     * Parameters:
1332:Generated_Source\PSoC5/UART_READER.c ****     *  None.
1333:Generated_Source\PSoC5/UART_READER.c ****     *
1334:Generated_Source\PSoC5/UART_READER.c ****     * Return:
1335:Generated_Source\PSoC5/UART_READER.c ****     *  None.
1336:Generated_Source\PSoC5/UART_READER.c ****     *
1337:Generated_Source\PSoC5/UART_READER.c ****     * Global Variables:
1338:Generated_Source\PSoC5/UART_READER.c ****     *  UART_READER_txBufferWrite - cleared to zero.
1339:Generated_Source\PSoC5/UART_READER.c ****     *  UART_READER_txBufferRead - cleared to zero.
1340:Generated_Source\PSoC5/UART_READER.c ****     *
1341:Generated_Source\PSoC5/UART_READER.c ****     * Reentrant:
1342:Generated_Source\PSoC5/UART_READER.c ****     *  No.
1343:Generated_Source\PSoC5/UART_READER.c ****     *
1344:Generated_Source\PSoC5/UART_READER.c ****     * Theory:
1345:Generated_Source\PSoC5/UART_READER.c ****     *  Setting the pointers to zero makes the system believe there is no data to
1346:Generated_Source\PSoC5/UART_READER.c ****     *  read and writing will resume at address 0 overwriting any data that may have
1347:Generated_Source\PSoC5/UART_READER.c ****     *  remained in the RAM.
1348:Generated_Source\PSoC5/UART_READER.c ****     *
1349:Generated_Source\PSoC5/UART_READER.c ****     * Side Effects:
1350:Generated_Source\PSoC5/UART_READER.c ****     *  Data waiting in the transmit buffer is not sent; a byte that is currently
1351:Generated_Source\PSoC5/UART_READER.c ****     *  transmitting finishes transmitting.
1352:Generated_Source\PSoC5/UART_READER.c ****     *
1353:Generated_Source\PSoC5/UART_READER.c ****     *******************************************************************************/
1354:Generated_Source\PSoC5/UART_READER.c ****     void UART_READER_ClearTxBuffer(void) 
1355:Generated_Source\PSoC5/UART_READER.c ****     {
 1241              		.loc 1 1355 0
 1242              		.cfi_startproc
 1243              		@ args = 0, pretend = 0, frame = 8
 1244              		@ frame_needed = 1, uses_anonymous_args = 0
 1245 0000 80B5     		push	{r7, lr}
 1246              		.cfi_def_cfa_offset 8
 1247              		.cfi_offset 7, -8
 1248              		.cfi_offset 14, -4
 1249 0002 82B0     		sub	sp, sp, #8
 1250              		.cfi_def_cfa_offset 16
 1251 0004 00AF     		add	r7, sp, #0
 1252              		.cfi_def_cfa_register 7
1356:Generated_Source\PSoC5/UART_READER.c ****         uint8 enableInterrupts;
1357:Generated_Source\PSoC5/UART_READER.c **** 
1358:Generated_Source\PSoC5/UART_READER.c ****         enableInterrupts = CyEnterCriticalSection();
 1253              		.loc 1 1358 0
 1254 0006 FFF7FEFF 		bl	CyEnterCriticalSection
 1255 000a 0346     		mov	r3, r0
 1256 000c FB71     		strb	r3, [r7, #7]
1359:Generated_Source\PSoC5/UART_READER.c ****         /* Clear the HW FIFO */
1360:Generated_Source\PSoC5/UART_READER.c ****         UART_READER_TXDATA_AUX_CTL_REG |= (uint8)  UART_READER_TX_FIFO_CLR;
 1257              		.loc 1 1360 0
 1258 000e 0C4A     		ldr	r2, .L98
 1259 0010 0B4B     		ldr	r3, .L98
ARM GAS  C:\Users\ilya\AppData\Local\Temp\ccoQ4V65.s 			page 47


 1260 0012 1B78     		ldrb	r3, [r3]
 1261 0014 DBB2     		uxtb	r3, r3
 1262 0016 43F00203 		orr	r3, r3, #2
 1263 001a DBB2     		uxtb	r3, r3
 1264 001c 1370     		strb	r3, [r2]
1361:Generated_Source\PSoC5/UART_READER.c ****         UART_READER_TXDATA_AUX_CTL_REG &= (uint8) ~UART_READER_TX_FIFO_CLR;
 1265              		.loc 1 1361 0
 1266 001e 084A     		ldr	r2, .L98
 1267 0020 074B     		ldr	r3, .L98
 1268 0022 1B78     		ldrb	r3, [r3]
 1269 0024 DBB2     		uxtb	r3, r3
 1270 0026 23F00203 		bic	r3, r3, #2
 1271 002a DBB2     		uxtb	r3, r3
 1272 002c 1370     		strb	r3, [r2]
1362:Generated_Source\PSoC5/UART_READER.c ****         CyExitCriticalSection(enableInterrupts);
 1273              		.loc 1 1362 0
 1274 002e FB79     		ldrb	r3, [r7, #7]	@ zero_extendqisi2
 1275 0030 1846     		mov	r0, r3
 1276 0032 FFF7FEFF 		bl	CyExitCriticalSection
1363:Generated_Source\PSoC5/UART_READER.c **** 
1364:Generated_Source\PSoC5/UART_READER.c ****     #if (UART_READER_TX_INTERRUPT_ENABLED)
1365:Generated_Source\PSoC5/UART_READER.c **** 
1366:Generated_Source\PSoC5/UART_READER.c ****         /* Protect variables that could change on interrupt. */
1367:Generated_Source\PSoC5/UART_READER.c ****         UART_READER_DisableTxInt();
1368:Generated_Source\PSoC5/UART_READER.c **** 
1369:Generated_Source\PSoC5/UART_READER.c ****         UART_READER_txBufferRead = 0u;
1370:Generated_Source\PSoC5/UART_READER.c ****         UART_READER_txBufferWrite = 0u;
1371:Generated_Source\PSoC5/UART_READER.c **** 
1372:Generated_Source\PSoC5/UART_READER.c ****         /* Enable Tx interrupt. */
1373:Generated_Source\PSoC5/UART_READER.c ****         UART_READER_EnableTxInt();
1374:Generated_Source\PSoC5/UART_READER.c **** 
1375:Generated_Source\PSoC5/UART_READER.c ****     #endif /* (UART_READER_TX_INTERRUPT_ENABLED) */
1376:Generated_Source\PSoC5/UART_READER.c ****     }
 1277              		.loc 1 1376 0
 1278 0036 00BF     		nop
 1279 0038 0837     		adds	r7, r7, #8
 1280              		.cfi_def_cfa_offset 8
 1281 003a BD46     		mov	sp, r7
 1282              		.cfi_def_cfa_register 13
 1283              		@ sp needed
 1284 003c 80BD     		pop	{r7, pc}
 1285              	.L99:
 1286 003e 00BF     		.align	2
 1287              	.L98:
 1288 0040 98650040 		.word	1073767832
 1289              		.cfi_endproc
 1290              	.LFE24:
 1291              		.size	UART_READER_ClearTxBuffer, .-UART_READER_ClearTxBuffer
 1292              		.section	.text.UART_READER_SendBreak,"ax",%progbits
 1293              		.align	2
 1294              		.global	UART_READER_SendBreak
 1295              		.thumb
 1296              		.thumb_func
 1297              		.type	UART_READER_SendBreak, %function
 1298              	UART_READER_SendBreak:
 1299              	.LFB25:
1377:Generated_Source\PSoC5/UART_READER.c **** 
ARM GAS  C:\Users\ilya\AppData\Local\Temp\ccoQ4V65.s 			page 48


1378:Generated_Source\PSoC5/UART_READER.c **** 
1379:Generated_Source\PSoC5/UART_READER.c ****     /*******************************************************************************
1380:Generated_Source\PSoC5/UART_READER.c ****     * Function Name: UART_READER_SendBreak
1381:Generated_Source\PSoC5/UART_READER.c ****     ********************************************************************************
1382:Generated_Source\PSoC5/UART_READER.c ****     *
1383:Generated_Source\PSoC5/UART_READER.c ****     * Summary:
1384:Generated_Source\PSoC5/UART_READER.c ****     *  Transmits a break signal on the bus.
1385:Generated_Source\PSoC5/UART_READER.c ****     *
1386:Generated_Source\PSoC5/UART_READER.c ****     * Parameters:
1387:Generated_Source\PSoC5/UART_READER.c ****     *  uint8 retMode:  Send Break return mode. See the following table for options.
1388:Generated_Source\PSoC5/UART_READER.c ****     *   UART_READER_SEND_BREAK - Initialize registers for break, send the Break
1389:Generated_Source\PSoC5/UART_READER.c ****     *       signal and return immediately.
1390:Generated_Source\PSoC5/UART_READER.c ****     *   UART_READER_WAIT_FOR_COMPLETE_REINIT - Wait until break transmission is
1391:Generated_Source\PSoC5/UART_READER.c ****     *       complete, reinitialize registers to normal transmission mode then return
1392:Generated_Source\PSoC5/UART_READER.c ****     *   UART_READER_REINIT - Reinitialize registers to normal transmission mode
1393:Generated_Source\PSoC5/UART_READER.c ****     *       then return.
1394:Generated_Source\PSoC5/UART_READER.c ****     *   UART_READER_SEND_WAIT_REINIT - Performs both options: 
1395:Generated_Source\PSoC5/UART_READER.c ****     *      UART_READER_SEND_BREAK and UART_READER_WAIT_FOR_COMPLETE_REINIT.
1396:Generated_Source\PSoC5/UART_READER.c ****     *      This option is recommended for most cases.
1397:Generated_Source\PSoC5/UART_READER.c ****     *
1398:Generated_Source\PSoC5/UART_READER.c ****     * Return:
1399:Generated_Source\PSoC5/UART_READER.c ****     *  None.
1400:Generated_Source\PSoC5/UART_READER.c ****     *
1401:Generated_Source\PSoC5/UART_READER.c ****     * Global Variables:
1402:Generated_Source\PSoC5/UART_READER.c ****     *  UART_READER_initVar - checked to identify that the component has been
1403:Generated_Source\PSoC5/UART_READER.c ****     *     initialized.
1404:Generated_Source\PSoC5/UART_READER.c ****     *  txPeriod - static variable, used for keeping TX period configuration.
1405:Generated_Source\PSoC5/UART_READER.c ****     *
1406:Generated_Source\PSoC5/UART_READER.c ****     * Reentrant:
1407:Generated_Source\PSoC5/UART_READER.c ****     *  No.
1408:Generated_Source\PSoC5/UART_READER.c ****     *
1409:Generated_Source\PSoC5/UART_READER.c ****     * Theory:
1410:Generated_Source\PSoC5/UART_READER.c ****     *  SendBreak function initializes registers to send 13-bit break signal. It is
1411:Generated_Source\PSoC5/UART_READER.c ****     *  important to return the registers configuration to normal for continue 8-bit
1412:Generated_Source\PSoC5/UART_READER.c ****     *  operation.
1413:Generated_Source\PSoC5/UART_READER.c ****     *  There are 3 variants for this API usage:
1414:Generated_Source\PSoC5/UART_READER.c ****     *  1) SendBreak(3) - function will send the Break signal and take care on the
1415:Generated_Source\PSoC5/UART_READER.c ****     *     configuration returning. Function will block CPU until transmission
1416:Generated_Source\PSoC5/UART_READER.c ****     *     complete.
1417:Generated_Source\PSoC5/UART_READER.c ****     *  2) User may want to use blocking time if UART configured to the low speed
1418:Generated_Source\PSoC5/UART_READER.c ****     *     operation
1419:Generated_Source\PSoC5/UART_READER.c ****     *     Example for this case:
1420:Generated_Source\PSoC5/UART_READER.c ****     *     SendBreak(0);     - initialize Break signal transmission
1421:Generated_Source\PSoC5/UART_READER.c ****     *         Add your code here to use CPU time
1422:Generated_Source\PSoC5/UART_READER.c ****     *     SendBreak(1);     - complete Break operation
1423:Generated_Source\PSoC5/UART_READER.c ****     *  3) Same to 2) but user may want to initialize and use the interrupt to
1424:Generated_Source\PSoC5/UART_READER.c ****     *     complete break operation.
1425:Generated_Source\PSoC5/UART_READER.c ****     *     Example for this case:
1426:Generated_Source\PSoC5/UART_READER.c ****     *     Initialize TX interrupt with "TX - On TX Complete" parameter
1427:Generated_Source\PSoC5/UART_READER.c ****     *     SendBreak(0);     - initialize Break signal transmission
1428:Generated_Source\PSoC5/UART_READER.c ****     *         Add your code here to use CPU time
1429:Generated_Source\PSoC5/UART_READER.c ****     *     When interrupt appear with UART_READER_TX_STS_COMPLETE status:
1430:Generated_Source\PSoC5/UART_READER.c ****     *     SendBreak(2);     - complete Break operation
1431:Generated_Source\PSoC5/UART_READER.c ****     *
1432:Generated_Source\PSoC5/UART_READER.c ****     * Side Effects:
1433:Generated_Source\PSoC5/UART_READER.c ****     *  The UART_READER_SendBreak() function initializes registers to send a
1434:Generated_Source\PSoC5/UART_READER.c ****     *  break signal.
ARM GAS  C:\Users\ilya\AppData\Local\Temp\ccoQ4V65.s 			page 49


1435:Generated_Source\PSoC5/UART_READER.c ****     *  Break signal length depends on the break signal bits configuration.
1436:Generated_Source\PSoC5/UART_READER.c ****     *  The register configuration should be reinitialized before normal 8-bit
1437:Generated_Source\PSoC5/UART_READER.c ****     *  communication can continue.
1438:Generated_Source\PSoC5/UART_READER.c ****     *
1439:Generated_Source\PSoC5/UART_READER.c ****     *******************************************************************************/
1440:Generated_Source\PSoC5/UART_READER.c ****     void UART_READER_SendBreak(uint8 retMode) 
1441:Generated_Source\PSoC5/UART_READER.c ****     {
 1300              		.loc 1 1441 0
 1301              		.cfi_startproc
 1302              		@ args = 0, pretend = 0, frame = 16
 1303              		@ frame_needed = 1, uses_anonymous_args = 0
 1304 0000 80B5     		push	{r7, lr}
 1305              		.cfi_def_cfa_offset 8
 1306              		.cfi_offset 7, -8
 1307              		.cfi_offset 14, -4
 1308 0002 84B0     		sub	sp, sp, #16
 1309              		.cfi_def_cfa_offset 24
 1310 0004 00AF     		add	r7, sp, #0
 1311              		.cfi_def_cfa_register 7
 1312 0006 0346     		mov	r3, r0
 1313 0008 FB71     		strb	r3, [r7, #7]
1442:Generated_Source\PSoC5/UART_READER.c **** 
1443:Generated_Source\PSoC5/UART_READER.c ****         /* If not Initialized then skip this function*/
1444:Generated_Source\PSoC5/UART_READER.c ****         if(UART_READER_initVar != 0u)
 1314              		.loc 1 1444 0
 1315 000a 224B     		ldr	r3, .L109
 1316 000c 1B78     		ldrb	r3, [r3]	@ zero_extendqisi2
 1317 000e 002B     		cmp	r3, #0
 1318 0010 3BD0     		beq	.L108
 1319              	.LBB2:
1445:Generated_Source\PSoC5/UART_READER.c ****         {
1446:Generated_Source\PSoC5/UART_READER.c ****             /* Set the Counter to 13-bits and transmit a 00 byte */
1447:Generated_Source\PSoC5/UART_READER.c ****             /* When that is done then reset the counter value back */
1448:Generated_Source\PSoC5/UART_READER.c ****             uint8 tmpStat;
1449:Generated_Source\PSoC5/UART_READER.c **** 
1450:Generated_Source\PSoC5/UART_READER.c ****         #if(UART_READER_HD_ENABLED) /* Half Duplex mode*/
1451:Generated_Source\PSoC5/UART_READER.c **** 
1452:Generated_Source\PSoC5/UART_READER.c ****             if( (retMode == UART_READER_SEND_BREAK) ||
 1320              		.loc 1 1452 0
 1321 0012 FB79     		ldrb	r3, [r7, #7]	@ zero_extendqisi2
 1322 0014 002B     		cmp	r3, #0
 1323 0016 02D0     		beq	.L102
 1324              		.loc 1 1452 0 is_stmt 0 discriminator 1
 1325 0018 FB79     		ldrb	r3, [r7, #7]	@ zero_extendqisi2
 1326 001a 032B     		cmp	r3, #3
 1327 001c 13D1     		bne	.L103
 1328              	.L102:
1453:Generated_Source\PSoC5/UART_READER.c ****                 (retMode == UART_READER_SEND_WAIT_REINIT ) )
1454:Generated_Source\PSoC5/UART_READER.c ****             {
1455:Generated_Source\PSoC5/UART_READER.c ****                 /* CTRL_HD_SEND_BREAK - sends break bits in HD mode */
1456:Generated_Source\PSoC5/UART_READER.c ****                 UART_READER_WriteControlRegister(UART_READER_ReadControlRegister() |
 1329              		.loc 1 1456 0 is_stmt 1
 1330 001e FFF7FEFF 		bl	UART_READER_ReadControlRegister
 1331 0022 0346     		mov	r3, r0
 1332 0024 43F00203 		orr	r3, r3, #2
 1333 0028 DBB2     		uxtb	r3, r3
 1334 002a 1846     		mov	r0, r3
ARM GAS  C:\Users\ilya\AppData\Local\Temp\ccoQ4V65.s 			page 50


 1335 002c FFF7FEFF 		bl	UART_READER_WriteControlRegister
1457:Generated_Source\PSoC5/UART_READER.c ****                                                       UART_READER_CTRL_HD_SEND_BREAK);
1458:Generated_Source\PSoC5/UART_READER.c ****                 /* Send zeros */
1459:Generated_Source\PSoC5/UART_READER.c ****                 UART_READER_TXDATA_REG = 0u;
 1336              		.loc 1 1459 0
 1337 0030 194B     		ldr	r3, .L109+4
 1338 0032 0022     		movs	r2, #0
 1339 0034 1A70     		strb	r2, [r3]
 1340              	.L104:
1460:Generated_Source\PSoC5/UART_READER.c **** 
1461:Generated_Source\PSoC5/UART_READER.c ****                 do /* Wait until transmit starts */
1462:Generated_Source\PSoC5/UART_READER.c ****                 {
1463:Generated_Source\PSoC5/UART_READER.c ****                     tmpStat = UART_READER_TXSTATUS_REG;
 1341              		.loc 1 1463 0 discriminator 1
 1342 0036 194B     		ldr	r3, .L109+8
 1343 0038 1B78     		ldrb	r3, [r3]
 1344 003a FB73     		strb	r3, [r7, #15]
1464:Generated_Source\PSoC5/UART_READER.c ****                 }
1465:Generated_Source\PSoC5/UART_READER.c ****                 while((tmpStat & UART_READER_TX_STS_FIFO_EMPTY) != 0u);
 1345              		.loc 1 1465 0 discriminator 1
 1346 003c FB7B     		ldrb	r3, [r7, #15]	@ zero_extendqisi2
 1347 003e 03F00203 		and	r3, r3, #2
 1348 0042 002B     		cmp	r3, #0
 1349 0044 F7D1     		bne	.L104
 1350              	.L103:
1466:Generated_Source\PSoC5/UART_READER.c ****             }
1467:Generated_Source\PSoC5/UART_READER.c **** 
1468:Generated_Source\PSoC5/UART_READER.c ****             if( (retMode == UART_READER_WAIT_FOR_COMPLETE_REINIT) ||
 1351              		.loc 1 1468 0
 1352 0046 FB79     		ldrb	r3, [r7, #7]	@ zero_extendqisi2
 1353 0048 012B     		cmp	r3, #1
 1354 004a 02D0     		beq	.L105
 1355              		.loc 1 1468 0 is_stmt 0 discriminator 1
 1356 004c FB79     		ldrb	r3, [r7, #7]	@ zero_extendqisi2
 1357 004e 032B     		cmp	r3, #3
 1358 0050 09D1     		bne	.L106
 1359              	.L105:
1469:Generated_Source\PSoC5/UART_READER.c ****                 (retMode == UART_READER_SEND_WAIT_REINIT) )
1470:Generated_Source\PSoC5/UART_READER.c ****             {
1471:Generated_Source\PSoC5/UART_READER.c ****                 do /* Wait until transmit complete */
1472:Generated_Source\PSoC5/UART_READER.c ****                 {
1473:Generated_Source\PSoC5/UART_READER.c ****                     tmpStat = UART_READER_TXSTATUS_REG;
 1360              		.loc 1 1473 0 is_stmt 1 discriminator 1
 1361 0052 124B     		ldr	r3, .L109+8
 1362 0054 1B78     		ldrb	r3, [r3]
 1363 0056 FB73     		strb	r3, [r7, #15]
1474:Generated_Source\PSoC5/UART_READER.c ****                 }
1475:Generated_Source\PSoC5/UART_READER.c ****                 while(((uint8)~tmpStat & UART_READER_TX_STS_COMPLETE) != 0u);
 1364              		.loc 1 1475 0 discriminator 1
 1365 0058 FB7B     		ldrb	r3, [r7, #15]
 1366 005a DB43     		mvns	r3, r3
 1367 005c DBB2     		uxtb	r3, r3
 1368 005e 03F00103 		and	r3, r3, #1
 1369 0062 002B     		cmp	r3, #0
 1370 0064 F5D1     		bne	.L105
 1371              	.L106:
1476:Generated_Source\PSoC5/UART_READER.c ****             }
ARM GAS  C:\Users\ilya\AppData\Local\Temp\ccoQ4V65.s 			page 51


1477:Generated_Source\PSoC5/UART_READER.c **** 
1478:Generated_Source\PSoC5/UART_READER.c ****             if( (retMode == UART_READER_WAIT_FOR_COMPLETE_REINIT) ||
 1372              		.loc 1 1478 0
 1373 0066 FB79     		ldrb	r3, [r7, #7]	@ zero_extendqisi2
 1374 0068 012B     		cmp	r3, #1
 1375 006a 05D0     		beq	.L107
 1376              		.loc 1 1478 0 is_stmt 0 discriminator 1
 1377 006c FB79     		ldrb	r3, [r7, #7]	@ zero_extendqisi2
 1378 006e 022B     		cmp	r3, #2
 1379 0070 02D0     		beq	.L107
1479:Generated_Source\PSoC5/UART_READER.c ****                 (retMode == UART_READER_REINIT) ||
 1380              		.loc 1 1479 0 is_stmt 1
 1381 0072 FB79     		ldrb	r3, [r7, #7]	@ zero_extendqisi2
 1382 0074 032B     		cmp	r3, #3
 1383 0076 08D1     		bne	.L108
 1384              	.L107:
1480:Generated_Source\PSoC5/UART_READER.c ****                 (retMode == UART_READER_SEND_WAIT_REINIT) )
1481:Generated_Source\PSoC5/UART_READER.c ****             {
1482:Generated_Source\PSoC5/UART_READER.c ****                 UART_READER_WriteControlRegister(UART_READER_ReadControlRegister() &
 1385              		.loc 1 1482 0
 1386 0078 FFF7FEFF 		bl	UART_READER_ReadControlRegister
 1387 007c 0346     		mov	r3, r0
 1388 007e 23F00203 		bic	r3, r3, #2
 1389 0082 DBB2     		uxtb	r3, r3
 1390 0084 1846     		mov	r0, r3
 1391 0086 FFF7FEFF 		bl	UART_READER_WriteControlRegister
 1392              	.L108:
 1393              	.LBE2:
1483:Generated_Source\PSoC5/UART_READER.c ****                                               (uint8)~UART_READER_CTRL_HD_SEND_BREAK);
1484:Generated_Source\PSoC5/UART_READER.c ****             }
1485:Generated_Source\PSoC5/UART_READER.c **** 
1486:Generated_Source\PSoC5/UART_READER.c ****         #else /* UART_READER_HD_ENABLED Full Duplex mode */
1487:Generated_Source\PSoC5/UART_READER.c **** 
1488:Generated_Source\PSoC5/UART_READER.c ****             static uint8 txPeriod;
1489:Generated_Source\PSoC5/UART_READER.c **** 
1490:Generated_Source\PSoC5/UART_READER.c ****             if( (retMode == UART_READER_SEND_BREAK) ||
1491:Generated_Source\PSoC5/UART_READER.c ****                 (retMode == UART_READER_SEND_WAIT_REINIT) )
1492:Generated_Source\PSoC5/UART_READER.c ****             {
1493:Generated_Source\PSoC5/UART_READER.c ****                 /* CTRL_HD_SEND_BREAK - skip to send parity bit at Break signal in Full Duplex mode
1494:Generated_Source\PSoC5/UART_READER.c ****                 #if( (UART_READER_PARITY_TYPE != UART_READER__B_UART__NONE_REVB) || \
1495:Generated_Source\PSoC5/UART_READER.c ****                                     (UART_READER_PARITY_TYPE_SW != 0u) )
1496:Generated_Source\PSoC5/UART_READER.c ****                     UART_READER_WriteControlRegister(UART_READER_ReadControlRegister() |
1497:Generated_Source\PSoC5/UART_READER.c ****                                                           UART_READER_CTRL_HD_SEND_BREAK);
1498:Generated_Source\PSoC5/UART_READER.c ****                 #endif /* End UART_READER_PARITY_TYPE != UART_READER__B_UART__NONE_REVB  */
1499:Generated_Source\PSoC5/UART_READER.c **** 
1500:Generated_Source\PSoC5/UART_READER.c ****                 #if(UART_READER_TXCLKGEN_DP)
1501:Generated_Source\PSoC5/UART_READER.c ****                     txPeriod = UART_READER_TXBITCLKTX_COMPLETE_REG;
1502:Generated_Source\PSoC5/UART_READER.c ****                     UART_READER_TXBITCLKTX_COMPLETE_REG = UART_READER_TXBITCTR_BREAKBITS;
1503:Generated_Source\PSoC5/UART_READER.c ****                 #else
1504:Generated_Source\PSoC5/UART_READER.c ****                     txPeriod = UART_READER_TXBITCTR_PERIOD_REG;
1505:Generated_Source\PSoC5/UART_READER.c ****                     UART_READER_TXBITCTR_PERIOD_REG = UART_READER_TXBITCTR_BREAKBITS8X;
1506:Generated_Source\PSoC5/UART_READER.c ****                 #endif /* End UART_READER_TXCLKGEN_DP */
1507:Generated_Source\PSoC5/UART_READER.c **** 
1508:Generated_Source\PSoC5/UART_READER.c ****                 /* Send zeros */
1509:Generated_Source\PSoC5/UART_READER.c ****                 UART_READER_TXDATA_REG = 0u;
1510:Generated_Source\PSoC5/UART_READER.c **** 
1511:Generated_Source\PSoC5/UART_READER.c ****                 do /* Wait until transmit starts */
ARM GAS  C:\Users\ilya\AppData\Local\Temp\ccoQ4V65.s 			page 52


1512:Generated_Source\PSoC5/UART_READER.c ****                 {
1513:Generated_Source\PSoC5/UART_READER.c ****                     tmpStat = UART_READER_TXSTATUS_REG;
1514:Generated_Source\PSoC5/UART_READER.c ****                 }
1515:Generated_Source\PSoC5/UART_READER.c ****                 while((tmpStat & UART_READER_TX_STS_FIFO_EMPTY) != 0u);
1516:Generated_Source\PSoC5/UART_READER.c ****             }
1517:Generated_Source\PSoC5/UART_READER.c **** 
1518:Generated_Source\PSoC5/UART_READER.c ****             if( (retMode == UART_READER_WAIT_FOR_COMPLETE_REINIT) ||
1519:Generated_Source\PSoC5/UART_READER.c ****                 (retMode == UART_READER_SEND_WAIT_REINIT) )
1520:Generated_Source\PSoC5/UART_READER.c ****             {
1521:Generated_Source\PSoC5/UART_READER.c ****                 do /* Wait until transmit complete */
1522:Generated_Source\PSoC5/UART_READER.c ****                 {
1523:Generated_Source\PSoC5/UART_READER.c ****                     tmpStat = UART_READER_TXSTATUS_REG;
1524:Generated_Source\PSoC5/UART_READER.c ****                 }
1525:Generated_Source\PSoC5/UART_READER.c ****                 while(((uint8)~tmpStat & UART_READER_TX_STS_COMPLETE) != 0u);
1526:Generated_Source\PSoC5/UART_READER.c ****             }
1527:Generated_Source\PSoC5/UART_READER.c **** 
1528:Generated_Source\PSoC5/UART_READER.c ****             if( (retMode == UART_READER_WAIT_FOR_COMPLETE_REINIT) ||
1529:Generated_Source\PSoC5/UART_READER.c ****                 (retMode == UART_READER_REINIT) ||
1530:Generated_Source\PSoC5/UART_READER.c ****                 (retMode == UART_READER_SEND_WAIT_REINIT) )
1531:Generated_Source\PSoC5/UART_READER.c ****             {
1532:Generated_Source\PSoC5/UART_READER.c **** 
1533:Generated_Source\PSoC5/UART_READER.c ****             #if(UART_READER_TXCLKGEN_DP)
1534:Generated_Source\PSoC5/UART_READER.c ****                 UART_READER_TXBITCLKTX_COMPLETE_REG = txPeriod;
1535:Generated_Source\PSoC5/UART_READER.c ****             #else
1536:Generated_Source\PSoC5/UART_READER.c ****                 UART_READER_TXBITCTR_PERIOD_REG = txPeriod;
1537:Generated_Source\PSoC5/UART_READER.c ****             #endif /* End UART_READER_TXCLKGEN_DP */
1538:Generated_Source\PSoC5/UART_READER.c **** 
1539:Generated_Source\PSoC5/UART_READER.c ****             #if( (UART_READER_PARITY_TYPE != UART_READER__B_UART__NONE_REVB) || \
1540:Generated_Source\PSoC5/UART_READER.c ****                  (UART_READER_PARITY_TYPE_SW != 0u) )
1541:Generated_Source\PSoC5/UART_READER.c ****                 UART_READER_WriteControlRegister(UART_READER_ReadControlRegister() &
1542:Generated_Source\PSoC5/UART_READER.c ****                                                       (uint8) ~UART_READER_CTRL_HD_SEND_BREAK);
1543:Generated_Source\PSoC5/UART_READER.c ****             #endif /* End UART_READER_PARITY_TYPE != NONE */
1544:Generated_Source\PSoC5/UART_READER.c ****             }
1545:Generated_Source\PSoC5/UART_READER.c ****         #endif    /* End UART_READER_HD_ENABLED */
1546:Generated_Source\PSoC5/UART_READER.c ****         }
1547:Generated_Source\PSoC5/UART_READER.c ****     }
 1394              		.loc 1 1547 0
 1395 008a 00BF     		nop
 1396 008c 1037     		adds	r7, r7, #16
 1397              		.cfi_def_cfa_offset 8
 1398 008e BD46     		mov	sp, r7
 1399              		.cfi_def_cfa_register 13
 1400              		@ sp needed
 1401 0090 80BD     		pop	{r7, pc}
 1402              	.L110:
 1403 0092 00BF     		.align	2
 1404              	.L109:
 1405 0094 00000000 		.word	UART_READER_initVar
 1406 0098 58650040 		.word	1073767768
 1407 009c 67650040 		.word	1073767783
 1408              		.cfi_endproc
 1409              	.LFE25:
 1410              		.size	UART_READER_SendBreak, .-UART_READER_SendBreak
 1411              		.section	.text.UART_READER_SetTxAddressMode,"ax",%progbits
 1412              		.align	2
 1413              		.global	UART_READER_SetTxAddressMode
 1414              		.thumb
ARM GAS  C:\Users\ilya\AppData\Local\Temp\ccoQ4V65.s 			page 53


 1415              		.thumb_func
 1416              		.type	UART_READER_SetTxAddressMode, %function
 1417              	UART_READER_SetTxAddressMode:
 1418              	.LFB26:
1548:Generated_Source\PSoC5/UART_READER.c **** 
1549:Generated_Source\PSoC5/UART_READER.c **** 
1550:Generated_Source\PSoC5/UART_READER.c ****     /*******************************************************************************
1551:Generated_Source\PSoC5/UART_READER.c ****     * Function Name: UART_READER_SetTxAddressMode
1552:Generated_Source\PSoC5/UART_READER.c ****     ********************************************************************************
1553:Generated_Source\PSoC5/UART_READER.c ****     *
1554:Generated_Source\PSoC5/UART_READER.c ****     * Summary:
1555:Generated_Source\PSoC5/UART_READER.c ****     *  Configures the transmitter to signal the next bytes is address or data.
1556:Generated_Source\PSoC5/UART_READER.c ****     *
1557:Generated_Source\PSoC5/UART_READER.c ****     * Parameters:
1558:Generated_Source\PSoC5/UART_READER.c ****     *  addressMode: 
1559:Generated_Source\PSoC5/UART_READER.c ****     *       UART_READER_SET_SPACE - Configure the transmitter to send the next
1560:Generated_Source\PSoC5/UART_READER.c ****     *                                    byte as a data.
1561:Generated_Source\PSoC5/UART_READER.c ****     *       UART_READER_SET_MARK  - Configure the transmitter to send the next
1562:Generated_Source\PSoC5/UART_READER.c ****     *                                    byte as an address.
1563:Generated_Source\PSoC5/UART_READER.c ****     *
1564:Generated_Source\PSoC5/UART_READER.c ****     * Return:
1565:Generated_Source\PSoC5/UART_READER.c ****     *  None.
1566:Generated_Source\PSoC5/UART_READER.c ****     *
1567:Generated_Source\PSoC5/UART_READER.c ****     * Side Effects:
1568:Generated_Source\PSoC5/UART_READER.c ****     *  This function sets and clears UART_READER_CTRL_MARK bit in the Control
1569:Generated_Source\PSoC5/UART_READER.c ****     *  register.
1570:Generated_Source\PSoC5/UART_READER.c ****     *
1571:Generated_Source\PSoC5/UART_READER.c ****     *******************************************************************************/
1572:Generated_Source\PSoC5/UART_READER.c ****     void UART_READER_SetTxAddressMode(uint8 addressMode) 
1573:Generated_Source\PSoC5/UART_READER.c ****     {
 1419              		.loc 1 1573 0
 1420              		.cfi_startproc
 1421              		@ args = 0, pretend = 0, frame = 8
 1422              		@ frame_needed = 1, uses_anonymous_args = 0
 1423 0000 80B5     		push	{r7, lr}
 1424              		.cfi_def_cfa_offset 8
 1425              		.cfi_offset 7, -8
 1426              		.cfi_offset 14, -4
 1427 0002 82B0     		sub	sp, sp, #8
 1428              		.cfi_def_cfa_offset 16
 1429 0004 00AF     		add	r7, sp, #0
 1430              		.cfi_def_cfa_register 7
 1431 0006 0346     		mov	r3, r0
 1432 0008 FB71     		strb	r3, [r7, #7]
1574:Generated_Source\PSoC5/UART_READER.c ****         /* Mark/Space sending enable */
1575:Generated_Source\PSoC5/UART_READER.c ****         if(addressMode != 0u)
 1433              		.loc 1 1575 0
 1434 000a FB79     		ldrb	r3, [r7, #7]	@ zero_extendqisi2
 1435 000c 002B     		cmp	r3, #0
 1436 000e 09D0     		beq	.L112
1576:Generated_Source\PSoC5/UART_READER.c ****         {
1577:Generated_Source\PSoC5/UART_READER.c ****         #if( UART_READER_CONTROL_REG_REMOVED == 0u )
1578:Generated_Source\PSoC5/UART_READER.c ****             UART_READER_WriteControlRegister(UART_READER_ReadControlRegister() |
 1437              		.loc 1 1578 0
 1438 0010 FFF7FEFF 		bl	UART_READER_ReadControlRegister
 1439 0014 0346     		mov	r3, r0
 1440 0016 43F00403 		orr	r3, r3, #4
ARM GAS  C:\Users\ilya\AppData\Local\Temp\ccoQ4V65.s 			page 54


 1441 001a DBB2     		uxtb	r3, r3
 1442 001c 1846     		mov	r0, r3
 1443 001e FFF7FEFF 		bl	UART_READER_WriteControlRegister
1579:Generated_Source\PSoC5/UART_READER.c ****                                                   UART_READER_CTRL_MARK);
1580:Generated_Source\PSoC5/UART_READER.c ****         #endif /* End UART_READER_CONTROL_REG_REMOVED == 0u */
1581:Generated_Source\PSoC5/UART_READER.c ****         }
1582:Generated_Source\PSoC5/UART_READER.c ****         else
1583:Generated_Source\PSoC5/UART_READER.c ****         {
1584:Generated_Source\PSoC5/UART_READER.c ****         #if( UART_READER_CONTROL_REG_REMOVED == 0u )
1585:Generated_Source\PSoC5/UART_READER.c ****             UART_READER_WriteControlRegister(UART_READER_ReadControlRegister() &
1586:Generated_Source\PSoC5/UART_READER.c ****                                                   (uint8) ~UART_READER_CTRL_MARK);
1587:Generated_Source\PSoC5/UART_READER.c ****         #endif /* End UART_READER_CONTROL_REG_REMOVED == 0u */
1588:Generated_Source\PSoC5/UART_READER.c ****         }
1589:Generated_Source\PSoC5/UART_READER.c ****     }
 1444              		.loc 1 1589 0
 1445 0022 08E0     		b	.L114
 1446              	.L112:
1585:Generated_Source\PSoC5/UART_READER.c ****                                                   (uint8) ~UART_READER_CTRL_MARK);
 1447              		.loc 1 1585 0
 1448 0024 FFF7FEFF 		bl	UART_READER_ReadControlRegister
 1449 0028 0346     		mov	r3, r0
 1450 002a 23F00403 		bic	r3, r3, #4
 1451 002e DBB2     		uxtb	r3, r3
 1452 0030 1846     		mov	r0, r3
 1453 0032 FFF7FEFF 		bl	UART_READER_WriteControlRegister
 1454              	.L114:
 1455              		.loc 1 1589 0
 1456 0036 00BF     		nop
 1457 0038 0837     		adds	r7, r7, #8
 1458              		.cfi_def_cfa_offset 8
 1459 003a BD46     		mov	sp, r7
 1460              		.cfi_def_cfa_register 13
 1461              		@ sp needed
 1462 003c 80BD     		pop	{r7, pc}
 1463              		.cfi_endproc
 1464              	.LFE26:
 1465              		.size	UART_READER_SetTxAddressMode, .-UART_READER_SetTxAddressMode
 1466 003e 00BF     		.section	.text.UART_READER_LoadRxConfig,"ax",%progbits
 1467              		.align	2
 1468              		.global	UART_READER_LoadRxConfig
 1469              		.thumb
 1470              		.thumb_func
 1471              		.type	UART_READER_LoadRxConfig, %function
 1472              	UART_READER_LoadRxConfig:
 1473              	.LFB27:
1590:Generated_Source\PSoC5/UART_READER.c **** 
1591:Generated_Source\PSoC5/UART_READER.c **** #endif  /* EndUART_READER_TX_ENABLED */
1592:Generated_Source\PSoC5/UART_READER.c **** 
1593:Generated_Source\PSoC5/UART_READER.c **** #if(UART_READER_HD_ENABLED)
1594:Generated_Source\PSoC5/UART_READER.c **** 
1595:Generated_Source\PSoC5/UART_READER.c **** 
1596:Generated_Source\PSoC5/UART_READER.c ****     /*******************************************************************************
1597:Generated_Source\PSoC5/UART_READER.c ****     * Function Name: UART_READER_LoadRxConfig
1598:Generated_Source\PSoC5/UART_READER.c ****     ********************************************************************************
1599:Generated_Source\PSoC5/UART_READER.c ****     *
1600:Generated_Source\PSoC5/UART_READER.c ****     * Summary:
1601:Generated_Source\PSoC5/UART_READER.c ****     *  Loads the receiver configuration in half duplex mode. After calling this
ARM GAS  C:\Users\ilya\AppData\Local\Temp\ccoQ4V65.s 			page 55


1602:Generated_Source\PSoC5/UART_READER.c ****     *  function, the UART is ready to receive data.
1603:Generated_Source\PSoC5/UART_READER.c ****     *
1604:Generated_Source\PSoC5/UART_READER.c ****     * Parameters:
1605:Generated_Source\PSoC5/UART_READER.c ****     *  None.
1606:Generated_Source\PSoC5/UART_READER.c ****     *
1607:Generated_Source\PSoC5/UART_READER.c ****     * Return:
1608:Generated_Source\PSoC5/UART_READER.c ****     *  None.
1609:Generated_Source\PSoC5/UART_READER.c ****     *
1610:Generated_Source\PSoC5/UART_READER.c ****     * Side Effects:
1611:Generated_Source\PSoC5/UART_READER.c ****     *  Valid only in half duplex mode. You must make sure that the previous
1612:Generated_Source\PSoC5/UART_READER.c ****     *  transaction is complete and it is safe to unload the transmitter
1613:Generated_Source\PSoC5/UART_READER.c ****     *  configuration.
1614:Generated_Source\PSoC5/UART_READER.c ****     *
1615:Generated_Source\PSoC5/UART_READER.c ****     *******************************************************************************/
1616:Generated_Source\PSoC5/UART_READER.c ****     void UART_READER_LoadRxConfig(void) 
1617:Generated_Source\PSoC5/UART_READER.c ****     {
 1474              		.loc 1 1617 0
 1475              		.cfi_startproc
 1476              		@ args = 0, pretend = 0, frame = 0
 1477              		@ frame_needed = 1, uses_anonymous_args = 0
 1478 0000 80B5     		push	{r7, lr}
 1479              		.cfi_def_cfa_offset 8
 1480              		.cfi_offset 7, -8
 1481              		.cfi_offset 14, -4
 1482 0002 00AF     		add	r7, sp, #0
 1483              		.cfi_def_cfa_register 7
1618:Generated_Source\PSoC5/UART_READER.c ****         UART_READER_WriteControlRegister(UART_READER_ReadControlRegister() &
 1484              		.loc 1 1618 0
 1485 0004 FFF7FEFF 		bl	UART_READER_ReadControlRegister
 1486 0008 0346     		mov	r3, r0
 1487 000a 23F00103 		bic	r3, r3, #1
 1488 000e DBB2     		uxtb	r3, r3
 1489 0010 1846     		mov	r0, r3
 1490 0012 FFF7FEFF 		bl	UART_READER_WriteControlRegister
1619:Generated_Source\PSoC5/UART_READER.c ****                                                 (uint8)~UART_READER_CTRL_HD_SEND);
1620:Generated_Source\PSoC5/UART_READER.c ****         UART_READER_RXBITCTR_PERIOD_REG = UART_READER_HD_RXBITCTR_INIT;
 1491              		.loc 1 1620 0
 1492 0016 024B     		ldr	r3, .L116
 1493 0018 7222     		movs	r2, #114
 1494 001a 1A70     		strb	r2, [r3]
1621:Generated_Source\PSoC5/UART_READER.c **** 
1622:Generated_Source\PSoC5/UART_READER.c ****     #if (UART_READER_RX_INTERRUPT_ENABLED)
1623:Generated_Source\PSoC5/UART_READER.c ****         /* Enable RX interrupt after set RX configuration */
1624:Generated_Source\PSoC5/UART_READER.c ****         UART_READER_SetRxInterruptMode(UART_READER_INIT_RX_INTERRUPTS_MASK);
1625:Generated_Source\PSoC5/UART_READER.c ****     #endif /* (UART_READER_RX_INTERRUPT_ENABLED) */
1626:Generated_Source\PSoC5/UART_READER.c ****     }
 1495              		.loc 1 1626 0
 1496 001c 00BF     		nop
 1497 001e 80BD     		pop	{r7, pc}
 1498              	.L117:
 1499              		.align	2
 1500              	.L116:
 1501 0020 8B650040 		.word	1073767819
 1502              		.cfi_endproc
 1503              	.LFE27:
 1504              		.size	UART_READER_LoadRxConfig, .-UART_READER_LoadRxConfig
 1505              		.section	.text.UART_READER_LoadTxConfig,"ax",%progbits
ARM GAS  C:\Users\ilya\AppData\Local\Temp\ccoQ4V65.s 			page 56


 1506              		.align	2
 1507              		.global	UART_READER_LoadTxConfig
 1508              		.thumb
 1509              		.thumb_func
 1510              		.type	UART_READER_LoadTxConfig, %function
 1511              	UART_READER_LoadTxConfig:
 1512              	.LFB28:
1627:Generated_Source\PSoC5/UART_READER.c **** 
1628:Generated_Source\PSoC5/UART_READER.c **** 
1629:Generated_Source\PSoC5/UART_READER.c ****     /*******************************************************************************
1630:Generated_Source\PSoC5/UART_READER.c ****     * Function Name: UART_READER_LoadTxConfig
1631:Generated_Source\PSoC5/UART_READER.c ****     ********************************************************************************
1632:Generated_Source\PSoC5/UART_READER.c ****     *
1633:Generated_Source\PSoC5/UART_READER.c ****     * Summary:
1634:Generated_Source\PSoC5/UART_READER.c ****     *  Loads the transmitter configuration in half duplex mode. After calling this
1635:Generated_Source\PSoC5/UART_READER.c ****     *  function, the UART is ready to transmit data.
1636:Generated_Source\PSoC5/UART_READER.c ****     *
1637:Generated_Source\PSoC5/UART_READER.c ****     * Parameters:
1638:Generated_Source\PSoC5/UART_READER.c ****     *  None.
1639:Generated_Source\PSoC5/UART_READER.c ****     *
1640:Generated_Source\PSoC5/UART_READER.c ****     * Return:
1641:Generated_Source\PSoC5/UART_READER.c ****     *  None.
1642:Generated_Source\PSoC5/UART_READER.c ****     *
1643:Generated_Source\PSoC5/UART_READER.c ****     * Side Effects:
1644:Generated_Source\PSoC5/UART_READER.c ****     *  Valid only in half duplex mode. You must make sure that the previous
1645:Generated_Source\PSoC5/UART_READER.c ****     *  transaction is complete and it is safe to unload the receiver configuration.
1646:Generated_Source\PSoC5/UART_READER.c ****     *
1647:Generated_Source\PSoC5/UART_READER.c ****     *******************************************************************************/
1648:Generated_Source\PSoC5/UART_READER.c ****     void UART_READER_LoadTxConfig(void) 
1649:Generated_Source\PSoC5/UART_READER.c ****     {
 1513              		.loc 1 1649 0
 1514              		.cfi_startproc
 1515              		@ args = 0, pretend = 0, frame = 0
 1516              		@ frame_needed = 1, uses_anonymous_args = 0
 1517 0000 80B5     		push	{r7, lr}
 1518              		.cfi_def_cfa_offset 8
 1519              		.cfi_offset 7, -8
 1520              		.cfi_offset 14, -4
 1521 0002 00AF     		add	r7, sp, #0
 1522              		.cfi_def_cfa_register 7
1650:Generated_Source\PSoC5/UART_READER.c ****     #if (UART_READER_RX_INTERRUPT_ENABLED)
1651:Generated_Source\PSoC5/UART_READER.c ****         /* Disable RX interrupts before set TX configuration */
1652:Generated_Source\PSoC5/UART_READER.c ****         UART_READER_SetRxInterruptMode(0u);
1653:Generated_Source\PSoC5/UART_READER.c ****     #endif /* (UART_READER_RX_INTERRUPT_ENABLED) */
1654:Generated_Source\PSoC5/UART_READER.c **** 
1655:Generated_Source\PSoC5/UART_READER.c ****         UART_READER_WriteControlRegister(UART_READER_ReadControlRegister() | UART_READER_CTRL_HD_SE
 1523              		.loc 1 1655 0
 1524 0004 FFF7FEFF 		bl	UART_READER_ReadControlRegister
 1525 0008 0346     		mov	r3, r0
 1526 000a 43F00103 		orr	r3, r3, #1
 1527 000e DBB2     		uxtb	r3, r3
 1528 0010 1846     		mov	r0, r3
 1529 0012 FFF7FEFF 		bl	UART_READER_WriteControlRegister
1656:Generated_Source\PSoC5/UART_READER.c ****         UART_READER_RXBITCTR_PERIOD_REG = UART_READER_HD_TXBITCTR_INIT;
 1530              		.loc 1 1656 0
 1531 0016 024B     		ldr	r3, .L119
 1532 0018 6F22     		movs	r2, #111
ARM GAS  C:\Users\ilya\AppData\Local\Temp\ccoQ4V65.s 			page 57


 1533 001a 1A70     		strb	r2, [r3]
1657:Generated_Source\PSoC5/UART_READER.c ****     }
 1534              		.loc 1 1657 0
 1535 001c 00BF     		nop
 1536 001e 80BD     		pop	{r7, pc}
 1537              	.L120:
 1538              		.align	2
 1539              	.L119:
 1540 0020 8B650040 		.word	1073767819
 1541              		.cfi_endproc
 1542              	.LFE28:
 1543              		.size	UART_READER_LoadTxConfig, .-UART_READER_LoadTxConfig
 1544              		.text
 1545              	.Letext0:
 1546              		.file 2 "Generated_Source\\PSoC5\\cytypes.h"