ARM GAS  C:\Users\ilya\AppData\Local\Temp\cckYQUis.s 			page 1


   1              		.syntax unified
   2              		.cpu cortex-m3
   3              		.fpu softvfp
   4              		.eabi_attribute 20, 1
   5              		.eabi_attribute 21, 1
   6              		.eabi_attribute 23, 3
   7              		.eabi_attribute 24, 1
   8              		.eabi_attribute 25, 1
   9              		.eabi_attribute 26, 1
  10              		.eabi_attribute 30, 6
  11              		.eabi_attribute 34, 1
  12              		.eabi_attribute 18, 4
  13              		.thumb
  14              		.syntax unified
  15              		.file	"UART_ACS.c"
  16              		.text
  17              	.Ltext0:
  18              		.cfi_sections	.debug_frame
  19              		.global	UART_ACS_initVar
  20              		.bss
  21              		.type	UART_ACS_initVar, %object
  22              		.size	UART_ACS_initVar, 1
  23              	UART_ACS_initVar:
  24 0000 00       		.space	1
  25              		.global	UART_ACS_errorStatus
  26              		.type	UART_ACS_errorStatus, %object
  27              		.size	UART_ACS_errorStatus, 1
  28              	UART_ACS_errorStatus:
  29 0001 00       		.space	1
  30              		.comm	UART_ACS_rxBuffer,256,4
  31              		.global	UART_ACS_rxBufferRead
  32              		.align	1
  33              		.type	UART_ACS_rxBufferRead, %object
  34              		.size	UART_ACS_rxBufferRead, 2
  35              	UART_ACS_rxBufferRead:
  36 0002 0000     		.space	2
  37              		.global	UART_ACS_rxBufferWrite
  38              		.align	1
  39              		.type	UART_ACS_rxBufferWrite, %object
  40              		.size	UART_ACS_rxBufferWrite, 2
  41              	UART_ACS_rxBufferWrite:
  42 0004 0000     		.space	2
  43              		.global	UART_ACS_rxBufferLoopDetect
  44              		.type	UART_ACS_rxBufferLoopDetect, %object
  45              		.size	UART_ACS_rxBufferLoopDetect, 1
  46              	UART_ACS_rxBufferLoopDetect:
  47 0006 00       		.space	1
  48              		.global	UART_ACS_rxBufferOverflow
  49              		.type	UART_ACS_rxBufferOverflow, %object
  50              		.size	UART_ACS_rxBufferOverflow, 1
  51              	UART_ACS_rxBufferOverflow:
  52 0007 00       		.space	1
  53              		.section	.text.UART_ACS_Start,"ax",%progbits
  54              		.align	2
  55              		.global	UART_ACS_Start
  56              		.thumb
  57              		.thumb_func
ARM GAS  C:\Users\ilya\AppData\Local\Temp\cckYQUis.s 			page 2


  58              		.type	UART_ACS_Start, %function
  59              	UART_ACS_Start:
  60              	.LFB0:
  61              		.file 1 "Generated_Source\\PSoC5\\UART_ACS.c"
   1:Generated_Source\PSoC5/UART_ACS.c **** /*******************************************************************************
   2:Generated_Source\PSoC5/UART_ACS.c **** * File Name: UART_ACS.c
   3:Generated_Source\PSoC5/UART_ACS.c **** * Version 2.50
   4:Generated_Source\PSoC5/UART_ACS.c **** *
   5:Generated_Source\PSoC5/UART_ACS.c **** * Description:
   6:Generated_Source\PSoC5/UART_ACS.c **** *  This file provides all API functionality of the UART component
   7:Generated_Source\PSoC5/UART_ACS.c **** *
   8:Generated_Source\PSoC5/UART_ACS.c **** * Note:
   9:Generated_Source\PSoC5/UART_ACS.c **** *
  10:Generated_Source\PSoC5/UART_ACS.c **** ********************************************************************************
  11:Generated_Source\PSoC5/UART_ACS.c **** * Copyright 2008-2015, Cypress Semiconductor Corporation.  All rights reserved.
  12:Generated_Source\PSoC5/UART_ACS.c **** * You may use this file only in accordance with the license, terms, conditions,
  13:Generated_Source\PSoC5/UART_ACS.c **** * disclaimers, and limitations in the end user license agreement accompanying
  14:Generated_Source\PSoC5/UART_ACS.c **** * the software package with which this file was provided.
  15:Generated_Source\PSoC5/UART_ACS.c **** *******************************************************************************/
  16:Generated_Source\PSoC5/UART_ACS.c **** 
  17:Generated_Source\PSoC5/UART_ACS.c **** #include "UART_ACS.h"
  18:Generated_Source\PSoC5/UART_ACS.c **** #if (UART_ACS_INTERNAL_CLOCK_USED)
  19:Generated_Source\PSoC5/UART_ACS.c ****     #include "UART_ACS_IntClock.h"
  20:Generated_Source\PSoC5/UART_ACS.c **** #endif /* End UART_ACS_INTERNAL_CLOCK_USED */
  21:Generated_Source\PSoC5/UART_ACS.c **** 
  22:Generated_Source\PSoC5/UART_ACS.c **** 
  23:Generated_Source\PSoC5/UART_ACS.c **** /***************************************
  24:Generated_Source\PSoC5/UART_ACS.c **** * Global data allocation
  25:Generated_Source\PSoC5/UART_ACS.c **** ***************************************/
  26:Generated_Source\PSoC5/UART_ACS.c **** 
  27:Generated_Source\PSoC5/UART_ACS.c **** uint8 UART_ACS_initVar = 0u;
  28:Generated_Source\PSoC5/UART_ACS.c **** 
  29:Generated_Source\PSoC5/UART_ACS.c **** #if (UART_ACS_TX_INTERRUPT_ENABLED && UART_ACS_TX_ENABLED)
  30:Generated_Source\PSoC5/UART_ACS.c ****     volatile uint8 UART_ACS_txBuffer[UART_ACS_TX_BUFFER_SIZE];
  31:Generated_Source\PSoC5/UART_ACS.c ****     volatile uint8 UART_ACS_txBufferRead = 0u;
  32:Generated_Source\PSoC5/UART_ACS.c ****     uint8 UART_ACS_txBufferWrite = 0u;
  33:Generated_Source\PSoC5/UART_ACS.c **** #endif /* (UART_ACS_TX_INTERRUPT_ENABLED && UART_ACS_TX_ENABLED) */
  34:Generated_Source\PSoC5/UART_ACS.c **** 
  35:Generated_Source\PSoC5/UART_ACS.c **** #if (UART_ACS_RX_INTERRUPT_ENABLED && (UART_ACS_RX_ENABLED || UART_ACS_HD_ENABLED))
  36:Generated_Source\PSoC5/UART_ACS.c ****     uint8 UART_ACS_errorStatus = 0u;
  37:Generated_Source\PSoC5/UART_ACS.c ****     volatile uint8 UART_ACS_rxBuffer[UART_ACS_RX_BUFFER_SIZE];
  38:Generated_Source\PSoC5/UART_ACS.c ****     volatile uint16 UART_ACS_rxBufferRead  = 0u;
  39:Generated_Source\PSoC5/UART_ACS.c ****     volatile uint16 UART_ACS_rxBufferWrite = 0u;
  40:Generated_Source\PSoC5/UART_ACS.c ****     volatile uint8 UART_ACS_rxBufferLoopDetect = 0u;
  41:Generated_Source\PSoC5/UART_ACS.c ****     volatile uint8 UART_ACS_rxBufferOverflow   = 0u;
  42:Generated_Source\PSoC5/UART_ACS.c ****     #if (UART_ACS_RXHW_ADDRESS_ENABLED)
  43:Generated_Source\PSoC5/UART_ACS.c ****         volatile uint8 UART_ACS_rxAddressMode = UART_ACS_RX_ADDRESS_MODE;
  44:Generated_Source\PSoC5/UART_ACS.c ****         volatile uint8 UART_ACS_rxAddressDetected = 0u;
  45:Generated_Source\PSoC5/UART_ACS.c ****     #endif /* (UART_ACS_RXHW_ADDRESS_ENABLED) */
  46:Generated_Source\PSoC5/UART_ACS.c **** #endif /* (UART_ACS_RX_INTERRUPT_ENABLED && (UART_ACS_RX_ENABLED || UART_ACS_HD_ENABLED)) */
  47:Generated_Source\PSoC5/UART_ACS.c **** 
  48:Generated_Source\PSoC5/UART_ACS.c **** 
  49:Generated_Source\PSoC5/UART_ACS.c **** /*******************************************************************************
  50:Generated_Source\PSoC5/UART_ACS.c **** * Function Name: UART_ACS_Start
  51:Generated_Source\PSoC5/UART_ACS.c **** ********************************************************************************
  52:Generated_Source\PSoC5/UART_ACS.c **** *
  53:Generated_Source\PSoC5/UART_ACS.c **** * Summary:
ARM GAS  C:\Users\ilya\AppData\Local\Temp\cckYQUis.s 			page 3


  54:Generated_Source\PSoC5/UART_ACS.c **** *  This is the preferred method to begin component operation.
  55:Generated_Source\PSoC5/UART_ACS.c **** *  UART_ACS_Start() sets the initVar variable, calls the
  56:Generated_Source\PSoC5/UART_ACS.c **** *  UART_ACS_Init() function, and then calls the
  57:Generated_Source\PSoC5/UART_ACS.c **** *  UART_ACS_Enable() function.
  58:Generated_Source\PSoC5/UART_ACS.c **** *
  59:Generated_Source\PSoC5/UART_ACS.c **** * Parameters:
  60:Generated_Source\PSoC5/UART_ACS.c **** *  None.
  61:Generated_Source\PSoC5/UART_ACS.c **** *
  62:Generated_Source\PSoC5/UART_ACS.c **** * Return:
  63:Generated_Source\PSoC5/UART_ACS.c **** *  None.
  64:Generated_Source\PSoC5/UART_ACS.c **** *
  65:Generated_Source\PSoC5/UART_ACS.c **** * Global variables:
  66:Generated_Source\PSoC5/UART_ACS.c **** *  The UART_ACS_intiVar variable is used to indicate initial
  67:Generated_Source\PSoC5/UART_ACS.c **** *  configuration of this component. The variable is initialized to zero (0u)
  68:Generated_Source\PSoC5/UART_ACS.c **** *  and set to one (1u) the first time UART_ACS_Start() is called. This
  69:Generated_Source\PSoC5/UART_ACS.c **** *  allows for component initialization without re-initialization in all
  70:Generated_Source\PSoC5/UART_ACS.c **** *  subsequent calls to the UART_ACS_Start() routine.
  71:Generated_Source\PSoC5/UART_ACS.c **** *
  72:Generated_Source\PSoC5/UART_ACS.c **** * Reentrant:
  73:Generated_Source\PSoC5/UART_ACS.c **** *  No.
  74:Generated_Source\PSoC5/UART_ACS.c **** *
  75:Generated_Source\PSoC5/UART_ACS.c **** *******************************************************************************/
  76:Generated_Source\PSoC5/UART_ACS.c **** void UART_ACS_Start(void) 
  77:Generated_Source\PSoC5/UART_ACS.c **** {
  62              		.loc 1 77 0
  63              		.cfi_startproc
  64              		@ args = 0, pretend = 0, frame = 0
  65              		@ frame_needed = 1, uses_anonymous_args = 0
  66 0000 80B5     		push	{r7, lr}
  67              		.cfi_def_cfa_offset 8
  68              		.cfi_offset 7, -8
  69              		.cfi_offset 14, -4
  70 0002 00AF     		add	r7, sp, #0
  71              		.cfi_def_cfa_register 7
  78:Generated_Source\PSoC5/UART_ACS.c ****     /* If not initialized then initialize all required hardware and software */
  79:Generated_Source\PSoC5/UART_ACS.c ****     if(UART_ACS_initVar == 0u)
  72              		.loc 1 79 0
  73 0004 064B     		ldr	r3, .L3
  74 0006 1B78     		ldrb	r3, [r3]	@ zero_extendqisi2
  75 0008 002B     		cmp	r3, #0
  76 000a 04D1     		bne	.L2
  80:Generated_Source\PSoC5/UART_ACS.c ****     {
  81:Generated_Source\PSoC5/UART_ACS.c ****         UART_ACS_Init();
  77              		.loc 1 81 0
  78 000c FFF7FEFF 		bl	UART_ACS_Init
  82:Generated_Source\PSoC5/UART_ACS.c ****         UART_ACS_initVar = 1u;
  79              		.loc 1 82 0
  80 0010 034B     		ldr	r3, .L3
  81 0012 0122     		movs	r2, #1
  82 0014 1A70     		strb	r2, [r3]
  83              	.L2:
  83:Generated_Source\PSoC5/UART_ACS.c ****     }
  84:Generated_Source\PSoC5/UART_ACS.c **** 
  85:Generated_Source\PSoC5/UART_ACS.c ****     UART_ACS_Enable();
  84              		.loc 1 85 0
  85 0016 FFF7FEFF 		bl	UART_ACS_Enable
  86:Generated_Source\PSoC5/UART_ACS.c **** }
ARM GAS  C:\Users\ilya\AppData\Local\Temp\cckYQUis.s 			page 4


  86              		.loc 1 86 0
  87 001a 00BF     		nop
  88 001c 80BD     		pop	{r7, pc}
  89              	.L4:
  90 001e 00BF     		.align	2
  91              	.L3:
  92 0020 00000000 		.word	UART_ACS_initVar
  93              		.cfi_endproc
  94              	.LFE0:
  95              		.size	UART_ACS_Start, .-UART_ACS_Start
  96              		.section	.text.UART_ACS_Init,"ax",%progbits
  97              		.align	2
  98              		.global	UART_ACS_Init
  99              		.thumb
 100              		.thumb_func
 101              		.type	UART_ACS_Init, %function
 102              	UART_ACS_Init:
 103              	.LFB1:
  87:Generated_Source\PSoC5/UART_ACS.c **** 
  88:Generated_Source\PSoC5/UART_ACS.c **** 
  89:Generated_Source\PSoC5/UART_ACS.c **** /*******************************************************************************
  90:Generated_Source\PSoC5/UART_ACS.c **** * Function Name: UART_ACS_Init
  91:Generated_Source\PSoC5/UART_ACS.c **** ********************************************************************************
  92:Generated_Source\PSoC5/UART_ACS.c **** *
  93:Generated_Source\PSoC5/UART_ACS.c **** * Summary:
  94:Generated_Source\PSoC5/UART_ACS.c **** *  Initializes or restores the component according to the customizer Configure
  95:Generated_Source\PSoC5/UART_ACS.c **** *  dialog settings. It is not necessary to call UART_ACS_Init() because
  96:Generated_Source\PSoC5/UART_ACS.c **** *  the UART_ACS_Start() API calls this function and is the preferred
  97:Generated_Source\PSoC5/UART_ACS.c **** *  method to begin component operation.
  98:Generated_Source\PSoC5/UART_ACS.c **** *
  99:Generated_Source\PSoC5/UART_ACS.c **** * Parameters:
 100:Generated_Source\PSoC5/UART_ACS.c **** *  None.
 101:Generated_Source\PSoC5/UART_ACS.c **** *
 102:Generated_Source\PSoC5/UART_ACS.c **** * Return:
 103:Generated_Source\PSoC5/UART_ACS.c **** *  None.
 104:Generated_Source\PSoC5/UART_ACS.c **** *
 105:Generated_Source\PSoC5/UART_ACS.c **** *******************************************************************************/
 106:Generated_Source\PSoC5/UART_ACS.c **** void UART_ACS_Init(void) 
 107:Generated_Source\PSoC5/UART_ACS.c **** {
 104              		.loc 1 107 0
 105              		.cfi_startproc
 106              		@ args = 0, pretend = 0, frame = 0
 107              		@ frame_needed = 1, uses_anonymous_args = 0
 108 0000 80B5     		push	{r7, lr}
 109              		.cfi_def_cfa_offset 8
 110              		.cfi_offset 7, -8
 111              		.cfi_offset 14, -4
 112 0002 00AF     		add	r7, sp, #0
 113              		.cfi_def_cfa_register 7
 108:Generated_Source\PSoC5/UART_ACS.c ****     #if(UART_ACS_RX_ENABLED || UART_ACS_HD_ENABLED)
 109:Generated_Source\PSoC5/UART_ACS.c **** 
 110:Generated_Source\PSoC5/UART_ACS.c ****         #if (UART_ACS_RX_INTERRUPT_ENABLED)
 111:Generated_Source\PSoC5/UART_ACS.c ****             /* Set RX interrupt vector and priority */
 112:Generated_Source\PSoC5/UART_ACS.c ****             (void) CyIntSetVector(UART_ACS_RX_VECT_NUM, &UART_ACS_RXISR);
 114              		.loc 1 112 0
 115 0004 0949     		ldr	r1, .L6
 116 0006 0220     		movs	r0, #2
ARM GAS  C:\Users\ilya\AppData\Local\Temp\cckYQUis.s 			page 5


 117 0008 FFF7FEFF 		bl	CyIntSetVector
 113:Generated_Source\PSoC5/UART_ACS.c ****             CyIntSetPriority(UART_ACS_RX_VECT_NUM, UART_ACS_RX_PRIOR_NUM);
 118              		.loc 1 113 0
 119 000c 0721     		movs	r1, #7
 120 000e 0220     		movs	r0, #2
 121 0010 FFF7FEFF 		bl	CyIntSetPriority
 114:Generated_Source\PSoC5/UART_ACS.c ****             UART_ACS_errorStatus = 0u;
 122              		.loc 1 114 0
 123 0014 064B     		ldr	r3, .L6+4
 124 0016 0022     		movs	r2, #0
 125 0018 1A70     		strb	r2, [r3]
 115:Generated_Source\PSoC5/UART_ACS.c ****         #endif /* (UART_ACS_RX_INTERRUPT_ENABLED) */
 116:Generated_Source\PSoC5/UART_ACS.c **** 
 117:Generated_Source\PSoC5/UART_ACS.c ****         #if (UART_ACS_RXHW_ADDRESS_ENABLED)
 118:Generated_Source\PSoC5/UART_ACS.c ****             UART_ACS_SetRxAddressMode(UART_ACS_RX_ADDRESS_MODE);
 119:Generated_Source\PSoC5/UART_ACS.c ****             UART_ACS_SetRxAddress1(UART_ACS_RX_HW_ADDRESS1);
 120:Generated_Source\PSoC5/UART_ACS.c ****             UART_ACS_SetRxAddress2(UART_ACS_RX_HW_ADDRESS2);
 121:Generated_Source\PSoC5/UART_ACS.c ****         #endif /* End UART_ACS_RXHW_ADDRESS_ENABLED */
 122:Generated_Source\PSoC5/UART_ACS.c **** 
 123:Generated_Source\PSoC5/UART_ACS.c ****         /* Init Count7 period */
 124:Generated_Source\PSoC5/UART_ACS.c ****         UART_ACS_RXBITCTR_PERIOD_REG = UART_ACS_RXBITCTR_INIT;
 126              		.loc 1 124 0
 127 001a 064B     		ldr	r3, .L6+8
 128 001c 7222     		movs	r2, #114
 129 001e 1A70     		strb	r2, [r3]
 125:Generated_Source\PSoC5/UART_ACS.c ****         /* Configure the Initial RX interrupt mask */
 126:Generated_Source\PSoC5/UART_ACS.c ****         UART_ACS_RXSTATUS_MASK_REG  = UART_ACS_INIT_RX_INTERRUPTS_MASK;
 130              		.loc 1 126 0
 131 0020 054B     		ldr	r3, .L6+12
 132 0022 2022     		movs	r2, #32
 133 0024 1A70     		strb	r2, [r3]
 127:Generated_Source\PSoC5/UART_ACS.c ****     #endif /* End UART_ACS_RX_ENABLED || UART_ACS_HD_ENABLED*/
 128:Generated_Source\PSoC5/UART_ACS.c **** 
 129:Generated_Source\PSoC5/UART_ACS.c ****     #if(UART_ACS_TX_ENABLED)
 130:Generated_Source\PSoC5/UART_ACS.c ****         #if (UART_ACS_TX_INTERRUPT_ENABLED)
 131:Generated_Source\PSoC5/UART_ACS.c ****             /* Set TX interrupt vector and priority */
 132:Generated_Source\PSoC5/UART_ACS.c ****             (void) CyIntSetVector(UART_ACS_TX_VECT_NUM, &UART_ACS_TXISR);
 133:Generated_Source\PSoC5/UART_ACS.c ****             CyIntSetPriority(UART_ACS_TX_VECT_NUM, UART_ACS_TX_PRIOR_NUM);
 134:Generated_Source\PSoC5/UART_ACS.c ****         #endif /* (UART_ACS_TX_INTERRUPT_ENABLED) */
 135:Generated_Source\PSoC5/UART_ACS.c **** 
 136:Generated_Source\PSoC5/UART_ACS.c ****         /* Write Counter Value for TX Bit Clk Generator*/
 137:Generated_Source\PSoC5/UART_ACS.c ****         #if (UART_ACS_TXCLKGEN_DP)
 138:Generated_Source\PSoC5/UART_ACS.c ****             UART_ACS_TXBITCLKGEN_CTR_REG = UART_ACS_BIT_CENTER;
 139:Generated_Source\PSoC5/UART_ACS.c ****             UART_ACS_TXBITCLKTX_COMPLETE_REG = ((UART_ACS_NUMBER_OF_DATA_BITS +
 140:Generated_Source\PSoC5/UART_ACS.c ****                         UART_ACS_NUMBER_OF_START_BIT) * UART_ACS_OVER_SAMPLE_COUNT) - 1u;
 141:Generated_Source\PSoC5/UART_ACS.c ****         #else
 142:Generated_Source\PSoC5/UART_ACS.c ****             UART_ACS_TXBITCTR_PERIOD_REG = ((UART_ACS_NUMBER_OF_DATA_BITS +
 143:Generated_Source\PSoC5/UART_ACS.c ****                         UART_ACS_NUMBER_OF_START_BIT) * UART_ACS_OVER_SAMPLE_8) - 1u;
 144:Generated_Source\PSoC5/UART_ACS.c ****         #endif /* End UART_ACS_TXCLKGEN_DP */
 145:Generated_Source\PSoC5/UART_ACS.c **** 
 146:Generated_Source\PSoC5/UART_ACS.c ****         /* Configure the Initial TX interrupt mask */
 147:Generated_Source\PSoC5/UART_ACS.c ****         #if (UART_ACS_TX_INTERRUPT_ENABLED)
 148:Generated_Source\PSoC5/UART_ACS.c ****             UART_ACS_TXSTATUS_MASK_REG = UART_ACS_TX_STS_FIFO_EMPTY;
 149:Generated_Source\PSoC5/UART_ACS.c ****         #else
 150:Generated_Source\PSoC5/UART_ACS.c ****             UART_ACS_TXSTATUS_MASK_REG = UART_ACS_INIT_TX_INTERRUPTS_MASK;
 151:Generated_Source\PSoC5/UART_ACS.c ****         #endif /*End UART_ACS_TX_INTERRUPT_ENABLED*/
 152:Generated_Source\PSoC5/UART_ACS.c **** 
ARM GAS  C:\Users\ilya\AppData\Local\Temp\cckYQUis.s 			page 6


 153:Generated_Source\PSoC5/UART_ACS.c ****     #endif /* End UART_ACS_TX_ENABLED */
 154:Generated_Source\PSoC5/UART_ACS.c **** 
 155:Generated_Source\PSoC5/UART_ACS.c ****     #if(UART_ACS_PARITY_TYPE_SW)  /* Write Parity to Control Register */
 156:Generated_Source\PSoC5/UART_ACS.c ****         UART_ACS_WriteControlRegister( \
 157:Generated_Source\PSoC5/UART_ACS.c ****             (UART_ACS_ReadControlRegister() & (uint8)~UART_ACS_CTRL_PARITY_TYPE_MASK) | \
 158:Generated_Source\PSoC5/UART_ACS.c ****             (uint8)(UART_ACS_PARITY_TYPE << UART_ACS_CTRL_PARITY_TYPE0_SHIFT) );
 159:Generated_Source\PSoC5/UART_ACS.c ****     #endif /* End UART_ACS_PARITY_TYPE_SW */
 160:Generated_Source\PSoC5/UART_ACS.c **** }
 134              		.loc 1 160 0
 135 0026 00BF     		nop
 136 0028 80BD     		pop	{r7, pc}
 137              	.L7:
 138 002a 00BF     		.align	2
 139              	.L6:
 140 002c 00000000 		.word	UART_ACS_RXISR
 141 0030 00000000 		.word	UART_ACS_errorStatus
 142 0034 83640040 		.word	1073767555
 143 0038 86640040 		.word	1073767558
 144              		.cfi_endproc
 145              	.LFE1:
 146              		.size	UART_ACS_Init, .-UART_ACS_Init
 147              		.section	.text.UART_ACS_Enable,"ax",%progbits
 148              		.align	2
 149              		.global	UART_ACS_Enable
 150              		.thumb
 151              		.thumb_func
 152              		.type	UART_ACS_Enable, %function
 153              	UART_ACS_Enable:
 154              	.LFB2:
 161:Generated_Source\PSoC5/UART_ACS.c **** 
 162:Generated_Source\PSoC5/UART_ACS.c **** 
 163:Generated_Source\PSoC5/UART_ACS.c **** /*******************************************************************************
 164:Generated_Source\PSoC5/UART_ACS.c **** * Function Name: UART_ACS_Enable
 165:Generated_Source\PSoC5/UART_ACS.c **** ********************************************************************************
 166:Generated_Source\PSoC5/UART_ACS.c **** *
 167:Generated_Source\PSoC5/UART_ACS.c **** * Summary:
 168:Generated_Source\PSoC5/UART_ACS.c **** *  Activates the hardware and begins component operation. It is not necessary
 169:Generated_Source\PSoC5/UART_ACS.c **** *  to call UART_ACS_Enable() because the UART_ACS_Start() API
 170:Generated_Source\PSoC5/UART_ACS.c **** *  calls this function, which is the preferred method to begin component
 171:Generated_Source\PSoC5/UART_ACS.c **** *  operation.
 172:Generated_Source\PSoC5/UART_ACS.c **** 
 173:Generated_Source\PSoC5/UART_ACS.c **** * Parameters:
 174:Generated_Source\PSoC5/UART_ACS.c **** *  None.
 175:Generated_Source\PSoC5/UART_ACS.c **** *
 176:Generated_Source\PSoC5/UART_ACS.c **** * Return:
 177:Generated_Source\PSoC5/UART_ACS.c **** *  None.
 178:Generated_Source\PSoC5/UART_ACS.c **** *
 179:Generated_Source\PSoC5/UART_ACS.c **** * Global Variables:
 180:Generated_Source\PSoC5/UART_ACS.c **** *  UART_ACS_rxAddressDetected - set to initial state (0).
 181:Generated_Source\PSoC5/UART_ACS.c **** *
 182:Generated_Source\PSoC5/UART_ACS.c **** *******************************************************************************/
 183:Generated_Source\PSoC5/UART_ACS.c **** void UART_ACS_Enable(void) 
 184:Generated_Source\PSoC5/UART_ACS.c **** {
 155              		.loc 1 184 0
 156              		.cfi_startproc
 157              		@ args = 0, pretend = 0, frame = 8
 158              		@ frame_needed = 1, uses_anonymous_args = 0
ARM GAS  C:\Users\ilya\AppData\Local\Temp\cckYQUis.s 			page 7


 159 0000 80B5     		push	{r7, lr}
 160              		.cfi_def_cfa_offset 8
 161              		.cfi_offset 7, -8
 162              		.cfi_offset 14, -4
 163 0002 82B0     		sub	sp, sp, #8
 164              		.cfi_def_cfa_offset 16
 165 0004 00AF     		add	r7, sp, #0
 166              		.cfi_def_cfa_register 7
 185:Generated_Source\PSoC5/UART_ACS.c ****     uint8 enableInterrupts;
 186:Generated_Source\PSoC5/UART_ACS.c ****     enableInterrupts = CyEnterCriticalSection();
 167              		.loc 1 186 0
 168 0006 FFF7FEFF 		bl	CyEnterCriticalSection
 169 000a 0346     		mov	r3, r0
 170 000c FB71     		strb	r3, [r7, #7]
 187:Generated_Source\PSoC5/UART_ACS.c **** 
 188:Generated_Source\PSoC5/UART_ACS.c ****     #if (UART_ACS_RX_ENABLED || UART_ACS_HD_ENABLED)
 189:Generated_Source\PSoC5/UART_ACS.c ****         /* RX Counter (Count7) Enable */
 190:Generated_Source\PSoC5/UART_ACS.c ****         UART_ACS_RXBITCTR_CONTROL_REG |= UART_ACS_CNTR_ENABLE;
 171              		.loc 1 190 0
 172 000e 0D4A     		ldr	r2, .L9
 173 0010 0C4B     		ldr	r3, .L9
 174 0012 1B78     		ldrb	r3, [r3]
 175 0014 DBB2     		uxtb	r3, r3
 176 0016 43F02003 		orr	r3, r3, #32
 177 001a DBB2     		uxtb	r3, r3
 178 001c 1370     		strb	r3, [r2]
 191:Generated_Source\PSoC5/UART_ACS.c **** 
 192:Generated_Source\PSoC5/UART_ACS.c ****         /* Enable the RX Interrupt */
 193:Generated_Source\PSoC5/UART_ACS.c ****         UART_ACS_RXSTATUS_ACTL_REG  |= UART_ACS_INT_ENABLE;
 179              		.loc 1 193 0
 180 001e 0A4A     		ldr	r2, .L9+4
 181 0020 094B     		ldr	r3, .L9+4
 182 0022 1B78     		ldrb	r3, [r3]
 183 0024 DBB2     		uxtb	r3, r3
 184 0026 43F01003 		orr	r3, r3, #16
 185 002a DBB2     		uxtb	r3, r3
 186 002c 1370     		strb	r3, [r2]
 194:Generated_Source\PSoC5/UART_ACS.c **** 
 195:Generated_Source\PSoC5/UART_ACS.c ****         #if (UART_ACS_RX_INTERRUPT_ENABLED)
 196:Generated_Source\PSoC5/UART_ACS.c ****             UART_ACS_EnableRxInt();
 187              		.loc 1 196 0
 188 002e 074B     		ldr	r3, .L9+8
 189 0030 0422     		movs	r2, #4
 190 0032 1A60     		str	r2, [r3]
 197:Generated_Source\PSoC5/UART_ACS.c **** 
 198:Generated_Source\PSoC5/UART_ACS.c ****             #if (UART_ACS_RXHW_ADDRESS_ENABLED)
 199:Generated_Source\PSoC5/UART_ACS.c ****                 UART_ACS_rxAddressDetected = 0u;
 200:Generated_Source\PSoC5/UART_ACS.c ****             #endif /* (UART_ACS_RXHW_ADDRESS_ENABLED) */
 201:Generated_Source\PSoC5/UART_ACS.c ****         #endif /* (UART_ACS_RX_INTERRUPT_ENABLED) */
 202:Generated_Source\PSoC5/UART_ACS.c ****     #endif /* (UART_ACS_RX_ENABLED || UART_ACS_HD_ENABLED) */
 203:Generated_Source\PSoC5/UART_ACS.c **** 
 204:Generated_Source\PSoC5/UART_ACS.c ****     #if(UART_ACS_TX_ENABLED)
 205:Generated_Source\PSoC5/UART_ACS.c ****         /* TX Counter (DP/Count7) Enable */
 206:Generated_Source\PSoC5/UART_ACS.c ****         #if(!UART_ACS_TXCLKGEN_DP)
 207:Generated_Source\PSoC5/UART_ACS.c ****             UART_ACS_TXBITCTR_CONTROL_REG |= UART_ACS_CNTR_ENABLE;
 208:Generated_Source\PSoC5/UART_ACS.c ****         #endif /* End UART_ACS_TXCLKGEN_DP */
 209:Generated_Source\PSoC5/UART_ACS.c **** 
ARM GAS  C:\Users\ilya\AppData\Local\Temp\cckYQUis.s 			page 8


 210:Generated_Source\PSoC5/UART_ACS.c ****         /* Enable the TX Interrupt */
 211:Generated_Source\PSoC5/UART_ACS.c ****         UART_ACS_TXSTATUS_ACTL_REG |= UART_ACS_INT_ENABLE;
 212:Generated_Source\PSoC5/UART_ACS.c ****         #if (UART_ACS_TX_INTERRUPT_ENABLED)
 213:Generated_Source\PSoC5/UART_ACS.c ****             UART_ACS_ClearPendingTxInt(); /* Clear history of TX_NOT_EMPTY */
 214:Generated_Source\PSoC5/UART_ACS.c ****             UART_ACS_EnableTxInt();
 215:Generated_Source\PSoC5/UART_ACS.c ****         #endif /* (UART_ACS_TX_INTERRUPT_ENABLED) */
 216:Generated_Source\PSoC5/UART_ACS.c ****      #endif /* (UART_ACS_TX_INTERRUPT_ENABLED) */
 217:Generated_Source\PSoC5/UART_ACS.c **** 
 218:Generated_Source\PSoC5/UART_ACS.c ****     #if (UART_ACS_INTERNAL_CLOCK_USED)
 219:Generated_Source\PSoC5/UART_ACS.c ****         UART_ACS_IntClock_Start();  /* Enable the clock */
 220:Generated_Source\PSoC5/UART_ACS.c ****     #endif /* (UART_ACS_INTERNAL_CLOCK_USED) */
 221:Generated_Source\PSoC5/UART_ACS.c **** 
 222:Generated_Source\PSoC5/UART_ACS.c ****     CyExitCriticalSection(enableInterrupts);
 191              		.loc 1 222 0
 192 0034 FB79     		ldrb	r3, [r7, #7]	@ zero_extendqisi2
 193 0036 1846     		mov	r0, r3
 194 0038 FFF7FEFF 		bl	CyExitCriticalSection
 223:Generated_Source\PSoC5/UART_ACS.c **** }
 195              		.loc 1 223 0
 196 003c 00BF     		nop
 197 003e 0837     		adds	r7, r7, #8
 198              		.cfi_def_cfa_offset 8
 199 0040 BD46     		mov	sp, r7
 200              		.cfi_def_cfa_register 13
 201              		@ sp needed
 202 0042 80BD     		pop	{r7, pc}
 203              	.L10:
 204              		.align	2
 205              	.L9:
 206 0044 93640040 		.word	1073767571
 207 0048 96640040 		.word	1073767574
 208 004c 00E100E0 		.word	-536813312
 209              		.cfi_endproc
 210              	.LFE2:
 211              		.size	UART_ACS_Enable, .-UART_ACS_Enable
 212              		.section	.text.UART_ACS_Stop,"ax",%progbits
 213              		.align	2
 214              		.global	UART_ACS_Stop
 215              		.thumb
 216              		.thumb_func
 217              		.type	UART_ACS_Stop, %function
 218              	UART_ACS_Stop:
 219              	.LFB3:
 224:Generated_Source\PSoC5/UART_ACS.c **** 
 225:Generated_Source\PSoC5/UART_ACS.c **** 
 226:Generated_Source\PSoC5/UART_ACS.c **** /*******************************************************************************
 227:Generated_Source\PSoC5/UART_ACS.c **** * Function Name: UART_ACS_Stop
 228:Generated_Source\PSoC5/UART_ACS.c **** ********************************************************************************
 229:Generated_Source\PSoC5/UART_ACS.c **** *
 230:Generated_Source\PSoC5/UART_ACS.c **** * Summary:
 231:Generated_Source\PSoC5/UART_ACS.c **** *  Disables the UART operation.
 232:Generated_Source\PSoC5/UART_ACS.c **** *
 233:Generated_Source\PSoC5/UART_ACS.c **** * Parameters:
 234:Generated_Source\PSoC5/UART_ACS.c **** *  None.
 235:Generated_Source\PSoC5/UART_ACS.c **** *
 236:Generated_Source\PSoC5/UART_ACS.c **** * Return:
 237:Generated_Source\PSoC5/UART_ACS.c **** *  None.
ARM GAS  C:\Users\ilya\AppData\Local\Temp\cckYQUis.s 			page 9


 238:Generated_Source\PSoC5/UART_ACS.c **** *
 239:Generated_Source\PSoC5/UART_ACS.c **** *******************************************************************************/
 240:Generated_Source\PSoC5/UART_ACS.c **** void UART_ACS_Stop(void) 
 241:Generated_Source\PSoC5/UART_ACS.c **** {
 220              		.loc 1 241 0
 221              		.cfi_startproc
 222              		@ args = 0, pretend = 0, frame = 8
 223              		@ frame_needed = 1, uses_anonymous_args = 0
 224 0000 80B5     		push	{r7, lr}
 225              		.cfi_def_cfa_offset 8
 226              		.cfi_offset 7, -8
 227              		.cfi_offset 14, -4
 228 0002 82B0     		sub	sp, sp, #8
 229              		.cfi_def_cfa_offset 16
 230 0004 00AF     		add	r7, sp, #0
 231              		.cfi_def_cfa_register 7
 242:Generated_Source\PSoC5/UART_ACS.c ****     uint8 enableInterrupts;
 243:Generated_Source\PSoC5/UART_ACS.c ****     enableInterrupts = CyEnterCriticalSection();
 232              		.loc 1 243 0
 233 0006 FFF7FEFF 		bl	CyEnterCriticalSection
 234 000a 0346     		mov	r3, r0
 235 000c FB71     		strb	r3, [r7, #7]
 244:Generated_Source\PSoC5/UART_ACS.c **** 
 245:Generated_Source\PSoC5/UART_ACS.c ****     /* Write Bit Counter Disable */
 246:Generated_Source\PSoC5/UART_ACS.c ****     #if (UART_ACS_RX_ENABLED || UART_ACS_HD_ENABLED)
 247:Generated_Source\PSoC5/UART_ACS.c ****         UART_ACS_RXBITCTR_CONTROL_REG &= (uint8) ~UART_ACS_CNTR_ENABLE;
 236              		.loc 1 247 0
 237 000e 0D4A     		ldr	r2, .L12
 238 0010 0C4B     		ldr	r3, .L12
 239 0012 1B78     		ldrb	r3, [r3]
 240 0014 DBB2     		uxtb	r3, r3
 241 0016 23F02003 		bic	r3, r3, #32
 242 001a DBB2     		uxtb	r3, r3
 243 001c 1370     		strb	r3, [r2]
 248:Generated_Source\PSoC5/UART_ACS.c ****     #endif /* (UART_ACS_RX_ENABLED || UART_ACS_HD_ENABLED) */
 249:Generated_Source\PSoC5/UART_ACS.c **** 
 250:Generated_Source\PSoC5/UART_ACS.c ****     #if (UART_ACS_TX_ENABLED)
 251:Generated_Source\PSoC5/UART_ACS.c ****         #if(!UART_ACS_TXCLKGEN_DP)
 252:Generated_Source\PSoC5/UART_ACS.c ****             UART_ACS_TXBITCTR_CONTROL_REG &= (uint8) ~UART_ACS_CNTR_ENABLE;
 253:Generated_Source\PSoC5/UART_ACS.c ****         #endif /* (!UART_ACS_TXCLKGEN_DP) */
 254:Generated_Source\PSoC5/UART_ACS.c ****     #endif /* (UART_ACS_TX_ENABLED) */
 255:Generated_Source\PSoC5/UART_ACS.c **** 
 256:Generated_Source\PSoC5/UART_ACS.c ****     #if (UART_ACS_INTERNAL_CLOCK_USED)
 257:Generated_Source\PSoC5/UART_ACS.c ****         UART_ACS_IntClock_Stop();   /* Disable the clock */
 258:Generated_Source\PSoC5/UART_ACS.c ****     #endif /* (UART_ACS_INTERNAL_CLOCK_USED) */
 259:Generated_Source\PSoC5/UART_ACS.c **** 
 260:Generated_Source\PSoC5/UART_ACS.c ****     /* Disable internal interrupt component */
 261:Generated_Source\PSoC5/UART_ACS.c ****     #if (UART_ACS_RX_ENABLED || UART_ACS_HD_ENABLED)
 262:Generated_Source\PSoC5/UART_ACS.c ****         UART_ACS_RXSTATUS_ACTL_REG  &= (uint8) ~UART_ACS_INT_ENABLE;
 244              		.loc 1 262 0
 245 001e 0A4A     		ldr	r2, .L12+4
 246 0020 094B     		ldr	r3, .L12+4
 247 0022 1B78     		ldrb	r3, [r3]
 248 0024 DBB2     		uxtb	r3, r3
 249 0026 23F01003 		bic	r3, r3, #16
 250 002a DBB2     		uxtb	r3, r3
 251 002c 1370     		strb	r3, [r2]
ARM GAS  C:\Users\ilya\AppData\Local\Temp\cckYQUis.s 			page 10


 263:Generated_Source\PSoC5/UART_ACS.c **** 
 264:Generated_Source\PSoC5/UART_ACS.c ****         #if (UART_ACS_RX_INTERRUPT_ENABLED)
 265:Generated_Source\PSoC5/UART_ACS.c ****             UART_ACS_DisableRxInt();
 252              		.loc 1 265 0
 253 002e 074B     		ldr	r3, .L12+8
 254 0030 0422     		movs	r2, #4
 255 0032 1A60     		str	r2, [r3]
 266:Generated_Source\PSoC5/UART_ACS.c ****         #endif /* (UART_ACS_RX_INTERRUPT_ENABLED) */
 267:Generated_Source\PSoC5/UART_ACS.c ****     #endif /* (UART_ACS_RX_ENABLED || UART_ACS_HD_ENABLED) */
 268:Generated_Source\PSoC5/UART_ACS.c **** 
 269:Generated_Source\PSoC5/UART_ACS.c ****     #if (UART_ACS_TX_ENABLED)
 270:Generated_Source\PSoC5/UART_ACS.c ****         UART_ACS_TXSTATUS_ACTL_REG &= (uint8) ~UART_ACS_INT_ENABLE;
 271:Generated_Source\PSoC5/UART_ACS.c **** 
 272:Generated_Source\PSoC5/UART_ACS.c ****         #if (UART_ACS_TX_INTERRUPT_ENABLED)
 273:Generated_Source\PSoC5/UART_ACS.c ****             UART_ACS_DisableTxInt();
 274:Generated_Source\PSoC5/UART_ACS.c ****         #endif /* (UART_ACS_TX_INTERRUPT_ENABLED) */
 275:Generated_Source\PSoC5/UART_ACS.c ****     #endif /* (UART_ACS_TX_ENABLED) */
 276:Generated_Source\PSoC5/UART_ACS.c **** 
 277:Generated_Source\PSoC5/UART_ACS.c ****     CyExitCriticalSection(enableInterrupts);
 256              		.loc 1 277 0
 257 0034 FB79     		ldrb	r3, [r7, #7]	@ zero_extendqisi2
 258 0036 1846     		mov	r0, r3
 259 0038 FFF7FEFF 		bl	CyExitCriticalSection
 278:Generated_Source\PSoC5/UART_ACS.c **** }
 260              		.loc 1 278 0
 261 003c 00BF     		nop
 262 003e 0837     		adds	r7, r7, #8
 263              		.cfi_def_cfa_offset 8
 264 0040 BD46     		mov	sp, r7
 265              		.cfi_def_cfa_register 13
 266              		@ sp needed
 267 0042 80BD     		pop	{r7, pc}
 268              	.L13:
 269              		.align	2
 270              	.L12:
 271 0044 93640040 		.word	1073767571
 272 0048 96640040 		.word	1073767574
 273 004c 80E100E0 		.word	-536813184
 274              		.cfi_endproc
 275              	.LFE3:
 276              		.size	UART_ACS_Stop, .-UART_ACS_Stop
 277              		.section	.text.UART_ACS_ReadControlRegister,"ax",%progbits
 278              		.align	2
 279              		.global	UART_ACS_ReadControlRegister
 280              		.thumb
 281              		.thumb_func
 282              		.type	UART_ACS_ReadControlRegister, %function
 283              	UART_ACS_ReadControlRegister:
 284              	.LFB4:
 279:Generated_Source\PSoC5/UART_ACS.c **** 
 280:Generated_Source\PSoC5/UART_ACS.c **** 
 281:Generated_Source\PSoC5/UART_ACS.c **** /*******************************************************************************
 282:Generated_Source\PSoC5/UART_ACS.c **** * Function Name: UART_ACS_ReadControlRegister
 283:Generated_Source\PSoC5/UART_ACS.c **** ********************************************************************************
 284:Generated_Source\PSoC5/UART_ACS.c **** *
 285:Generated_Source\PSoC5/UART_ACS.c **** * Summary:
 286:Generated_Source\PSoC5/UART_ACS.c **** *  Returns the current value of the control register.
ARM GAS  C:\Users\ilya\AppData\Local\Temp\cckYQUis.s 			page 11


 287:Generated_Source\PSoC5/UART_ACS.c **** *
 288:Generated_Source\PSoC5/UART_ACS.c **** * Parameters:
 289:Generated_Source\PSoC5/UART_ACS.c **** *  None.
 290:Generated_Source\PSoC5/UART_ACS.c **** *
 291:Generated_Source\PSoC5/UART_ACS.c **** * Return:
 292:Generated_Source\PSoC5/UART_ACS.c **** *  Contents of the control register.
 293:Generated_Source\PSoC5/UART_ACS.c **** *
 294:Generated_Source\PSoC5/UART_ACS.c **** *******************************************************************************/
 295:Generated_Source\PSoC5/UART_ACS.c **** uint8 UART_ACS_ReadControlRegister(void) 
 296:Generated_Source\PSoC5/UART_ACS.c **** {
 285              		.loc 1 296 0
 286              		.cfi_startproc
 287              		@ args = 0, pretend = 0, frame = 0
 288              		@ frame_needed = 1, uses_anonymous_args = 0
 289              		@ link register save eliminated.
 290 0000 80B4     		push	{r7}
 291              		.cfi_def_cfa_offset 4
 292              		.cfi_offset 7, -4
 293 0002 00AF     		add	r7, sp, #0
 294              		.cfi_def_cfa_register 7
 297:Generated_Source\PSoC5/UART_ACS.c ****     #if (UART_ACS_CONTROL_REG_REMOVED)
 298:Generated_Source\PSoC5/UART_ACS.c ****         return(0u);
 299:Generated_Source\PSoC5/UART_ACS.c ****     #else
 300:Generated_Source\PSoC5/UART_ACS.c ****         return(UART_ACS_CONTROL_REG);
 295              		.loc 1 300 0
 296 0004 034B     		ldr	r3, .L16
 297 0006 1B78     		ldrb	r3, [r3]
 298 0008 DBB2     		uxtb	r3, r3
 301:Generated_Source\PSoC5/UART_ACS.c ****     #endif /* (UART_ACS_CONTROL_REG_REMOVED) */
 302:Generated_Source\PSoC5/UART_ACS.c **** }
 299              		.loc 1 302 0
 300 000a 1846     		mov	r0, r3
 301 000c BD46     		mov	sp, r7
 302              		.cfi_def_cfa_register 13
 303              		@ sp needed
 304 000e 80BC     		pop	{r7}
 305              		.cfi_restore 7
 306              		.cfi_def_cfa_offset 0
 307 0010 7047     		bx	lr
 308              	.L17:
 309 0012 00BF     		.align	2
 310              	.L16:
 311 0014 76640040 		.word	1073767542
 312              		.cfi_endproc
 313              	.LFE4:
 314              		.size	UART_ACS_ReadControlRegister, .-UART_ACS_ReadControlRegister
 315              		.section	.text.UART_ACS_WriteControlRegister,"ax",%progbits
 316              		.align	2
 317              		.global	UART_ACS_WriteControlRegister
 318              		.thumb
 319              		.thumb_func
 320              		.type	UART_ACS_WriteControlRegister, %function
 321              	UART_ACS_WriteControlRegister:
 322              	.LFB5:
 303:Generated_Source\PSoC5/UART_ACS.c **** 
 304:Generated_Source\PSoC5/UART_ACS.c **** 
 305:Generated_Source\PSoC5/UART_ACS.c **** /*******************************************************************************
ARM GAS  C:\Users\ilya\AppData\Local\Temp\cckYQUis.s 			page 12


 306:Generated_Source\PSoC5/UART_ACS.c **** * Function Name: UART_ACS_WriteControlRegister
 307:Generated_Source\PSoC5/UART_ACS.c **** ********************************************************************************
 308:Generated_Source\PSoC5/UART_ACS.c **** *
 309:Generated_Source\PSoC5/UART_ACS.c **** * Summary:
 310:Generated_Source\PSoC5/UART_ACS.c **** *  Writes an 8-bit value into the control register
 311:Generated_Source\PSoC5/UART_ACS.c **** *
 312:Generated_Source\PSoC5/UART_ACS.c **** * Parameters:
 313:Generated_Source\PSoC5/UART_ACS.c **** *  control:  control register value
 314:Generated_Source\PSoC5/UART_ACS.c **** *
 315:Generated_Source\PSoC5/UART_ACS.c **** * Return:
 316:Generated_Source\PSoC5/UART_ACS.c **** *  None.
 317:Generated_Source\PSoC5/UART_ACS.c **** *
 318:Generated_Source\PSoC5/UART_ACS.c **** *******************************************************************************/
 319:Generated_Source\PSoC5/UART_ACS.c **** void  UART_ACS_WriteControlRegister(uint8 control) 
 320:Generated_Source\PSoC5/UART_ACS.c **** {
 323              		.loc 1 320 0
 324              		.cfi_startproc
 325              		@ args = 0, pretend = 0, frame = 8
 326              		@ frame_needed = 1, uses_anonymous_args = 0
 327              		@ link register save eliminated.
 328 0000 80B4     		push	{r7}
 329              		.cfi_def_cfa_offset 4
 330              		.cfi_offset 7, -4
 331 0002 83B0     		sub	sp, sp, #12
 332              		.cfi_def_cfa_offset 16
 333 0004 00AF     		add	r7, sp, #0
 334              		.cfi_def_cfa_register 7
 335 0006 0346     		mov	r3, r0
 336 0008 FB71     		strb	r3, [r7, #7]
 321:Generated_Source\PSoC5/UART_ACS.c ****     #if (UART_ACS_CONTROL_REG_REMOVED)
 322:Generated_Source\PSoC5/UART_ACS.c ****         if(0u != control)
 323:Generated_Source\PSoC5/UART_ACS.c ****         {
 324:Generated_Source\PSoC5/UART_ACS.c ****             /* Suppress compiler warning */
 325:Generated_Source\PSoC5/UART_ACS.c ****         }
 326:Generated_Source\PSoC5/UART_ACS.c ****     #else
 327:Generated_Source\PSoC5/UART_ACS.c ****        UART_ACS_CONTROL_REG = control;
 337              		.loc 1 327 0
 338 000a 044A     		ldr	r2, .L19
 339 000c FB79     		ldrb	r3, [r7, #7]
 340 000e 1370     		strb	r3, [r2]
 328:Generated_Source\PSoC5/UART_ACS.c ****     #endif /* (UART_ACS_CONTROL_REG_REMOVED) */
 329:Generated_Source\PSoC5/UART_ACS.c **** }
 341              		.loc 1 329 0
 342 0010 00BF     		nop
 343 0012 0C37     		adds	r7, r7, #12
 344              		.cfi_def_cfa_offset 4
 345 0014 BD46     		mov	sp, r7
 346              		.cfi_def_cfa_register 13
 347              		@ sp needed
 348 0016 80BC     		pop	{r7}
 349              		.cfi_restore 7
 350              		.cfi_def_cfa_offset 0
 351 0018 7047     		bx	lr
 352              	.L20:
 353 001a 00BF     		.align	2
 354              	.L19:
 355 001c 76640040 		.word	1073767542
ARM GAS  C:\Users\ilya\AppData\Local\Temp\cckYQUis.s 			page 13


 356              		.cfi_endproc
 357              	.LFE5:
 358              		.size	UART_ACS_WriteControlRegister, .-UART_ACS_WriteControlRegister
 359              		.section	.text.UART_ACS_SetRxInterruptMode,"ax",%progbits
 360              		.align	2
 361              		.global	UART_ACS_SetRxInterruptMode
 362              		.thumb
 363              		.thumb_func
 364              		.type	UART_ACS_SetRxInterruptMode, %function
 365              	UART_ACS_SetRxInterruptMode:
 366              	.LFB6:
 330:Generated_Source\PSoC5/UART_ACS.c **** 
 331:Generated_Source\PSoC5/UART_ACS.c **** 
 332:Generated_Source\PSoC5/UART_ACS.c **** #if(UART_ACS_RX_ENABLED || UART_ACS_HD_ENABLED)
 333:Generated_Source\PSoC5/UART_ACS.c ****     /*******************************************************************************
 334:Generated_Source\PSoC5/UART_ACS.c ****     * Function Name: UART_ACS_SetRxInterruptMode
 335:Generated_Source\PSoC5/UART_ACS.c ****     ********************************************************************************
 336:Generated_Source\PSoC5/UART_ACS.c ****     *
 337:Generated_Source\PSoC5/UART_ACS.c ****     * Summary:
 338:Generated_Source\PSoC5/UART_ACS.c ****     *  Configures the RX interrupt sources enabled.
 339:Generated_Source\PSoC5/UART_ACS.c ****     *
 340:Generated_Source\PSoC5/UART_ACS.c ****     * Parameters:
 341:Generated_Source\PSoC5/UART_ACS.c ****     *  IntSrc:  Bit field containing the RX interrupts to enable. Based on the 
 342:Generated_Source\PSoC5/UART_ACS.c ****     *  bit-field arrangement of the status register. This value must be a 
 343:Generated_Source\PSoC5/UART_ACS.c ****     *  combination of status register bit-masks shown below:
 344:Generated_Source\PSoC5/UART_ACS.c ****     *      UART_ACS_RX_STS_FIFO_NOTEMPTY    Interrupt on byte received.
 345:Generated_Source\PSoC5/UART_ACS.c ****     *      UART_ACS_RX_STS_PAR_ERROR        Interrupt on parity error.
 346:Generated_Source\PSoC5/UART_ACS.c ****     *      UART_ACS_RX_STS_STOP_ERROR       Interrupt on stop error.
 347:Generated_Source\PSoC5/UART_ACS.c ****     *      UART_ACS_RX_STS_BREAK            Interrupt on break.
 348:Generated_Source\PSoC5/UART_ACS.c ****     *      UART_ACS_RX_STS_OVERRUN          Interrupt on overrun error.
 349:Generated_Source\PSoC5/UART_ACS.c ****     *      UART_ACS_RX_STS_ADDR_MATCH       Interrupt on address match.
 350:Generated_Source\PSoC5/UART_ACS.c ****     *      UART_ACS_RX_STS_MRKSPC           Interrupt on address detect.
 351:Generated_Source\PSoC5/UART_ACS.c ****     *
 352:Generated_Source\PSoC5/UART_ACS.c ****     * Return:
 353:Generated_Source\PSoC5/UART_ACS.c ****     *  None.
 354:Generated_Source\PSoC5/UART_ACS.c ****     *
 355:Generated_Source\PSoC5/UART_ACS.c ****     * Theory:
 356:Generated_Source\PSoC5/UART_ACS.c ****     *  Enables the output of specific status bits to the interrupt controller
 357:Generated_Source\PSoC5/UART_ACS.c ****     *
 358:Generated_Source\PSoC5/UART_ACS.c ****     *******************************************************************************/
 359:Generated_Source\PSoC5/UART_ACS.c ****     void UART_ACS_SetRxInterruptMode(uint8 intSrc) 
 360:Generated_Source\PSoC5/UART_ACS.c ****     {
 367              		.loc 1 360 0
 368              		.cfi_startproc
 369              		@ args = 0, pretend = 0, frame = 8
 370              		@ frame_needed = 1, uses_anonymous_args = 0
 371              		@ link register save eliminated.
 372 0000 80B4     		push	{r7}
 373              		.cfi_def_cfa_offset 4
 374              		.cfi_offset 7, -4
 375 0002 83B0     		sub	sp, sp, #12
 376              		.cfi_def_cfa_offset 16
 377 0004 00AF     		add	r7, sp, #0
 378              		.cfi_def_cfa_register 7
 379 0006 0346     		mov	r3, r0
 380 0008 FB71     		strb	r3, [r7, #7]
 361:Generated_Source\PSoC5/UART_ACS.c ****         UART_ACS_RXSTATUS_MASK_REG  = intSrc;
ARM GAS  C:\Users\ilya\AppData\Local\Temp\cckYQUis.s 			page 14


 381              		.loc 1 361 0
 382 000a 044A     		ldr	r2, .L22
 383 000c FB79     		ldrb	r3, [r7, #7]
 384 000e 1370     		strb	r3, [r2]
 362:Generated_Source\PSoC5/UART_ACS.c ****     }
 385              		.loc 1 362 0
 386 0010 00BF     		nop
 387 0012 0C37     		adds	r7, r7, #12
 388              		.cfi_def_cfa_offset 4
 389 0014 BD46     		mov	sp, r7
 390              		.cfi_def_cfa_register 13
 391              		@ sp needed
 392 0016 80BC     		pop	{r7}
 393              		.cfi_restore 7
 394              		.cfi_def_cfa_offset 0
 395 0018 7047     		bx	lr
 396              	.L23:
 397 001a 00BF     		.align	2
 398              	.L22:
 399 001c 86640040 		.word	1073767558
 400              		.cfi_endproc
 401              	.LFE6:
 402              		.size	UART_ACS_SetRxInterruptMode, .-UART_ACS_SetRxInterruptMode
 403              		.section	.text.UART_ACS_ReadRxData,"ax",%progbits
 404              		.align	2
 405              		.global	UART_ACS_ReadRxData
 406              		.thumb
 407              		.thumb_func
 408              		.type	UART_ACS_ReadRxData, %function
 409              	UART_ACS_ReadRxData:
 410              	.LFB7:
 363:Generated_Source\PSoC5/UART_ACS.c **** 
 364:Generated_Source\PSoC5/UART_ACS.c **** 
 365:Generated_Source\PSoC5/UART_ACS.c ****     /*******************************************************************************
 366:Generated_Source\PSoC5/UART_ACS.c ****     * Function Name: UART_ACS_ReadRxData
 367:Generated_Source\PSoC5/UART_ACS.c ****     ********************************************************************************
 368:Generated_Source\PSoC5/UART_ACS.c ****     *
 369:Generated_Source\PSoC5/UART_ACS.c ****     * Summary:
 370:Generated_Source\PSoC5/UART_ACS.c ****     *  Returns the next byte of received data. This function returns data without
 371:Generated_Source\PSoC5/UART_ACS.c ****     *  checking the status. You must check the status separately.
 372:Generated_Source\PSoC5/UART_ACS.c ****     *
 373:Generated_Source\PSoC5/UART_ACS.c ****     * Parameters:
 374:Generated_Source\PSoC5/UART_ACS.c ****     *  None.
 375:Generated_Source\PSoC5/UART_ACS.c ****     *
 376:Generated_Source\PSoC5/UART_ACS.c ****     * Return:
 377:Generated_Source\PSoC5/UART_ACS.c ****     *  Received data from RX register
 378:Generated_Source\PSoC5/UART_ACS.c ****     *
 379:Generated_Source\PSoC5/UART_ACS.c ****     * Global Variables:
 380:Generated_Source\PSoC5/UART_ACS.c ****     *  UART_ACS_rxBuffer - RAM buffer pointer for save received data.
 381:Generated_Source\PSoC5/UART_ACS.c ****     *  UART_ACS_rxBufferWrite - cyclic index for write to rxBuffer,
 382:Generated_Source\PSoC5/UART_ACS.c ****     *     checked to identify new data.
 383:Generated_Source\PSoC5/UART_ACS.c ****     *  UART_ACS_rxBufferRead - cyclic index for read from rxBuffer,
 384:Generated_Source\PSoC5/UART_ACS.c ****     *     incremented after each byte has been read from buffer.
 385:Generated_Source\PSoC5/UART_ACS.c ****     *  UART_ACS_rxBufferLoopDetect - cleared if loop condition was detected
 386:Generated_Source\PSoC5/UART_ACS.c ****     *     in RX ISR.
 387:Generated_Source\PSoC5/UART_ACS.c ****     *
 388:Generated_Source\PSoC5/UART_ACS.c ****     * Reentrant:
ARM GAS  C:\Users\ilya\AppData\Local\Temp\cckYQUis.s 			page 15


 389:Generated_Source\PSoC5/UART_ACS.c ****     *  No.
 390:Generated_Source\PSoC5/UART_ACS.c ****     *
 391:Generated_Source\PSoC5/UART_ACS.c ****     *******************************************************************************/
 392:Generated_Source\PSoC5/UART_ACS.c ****     uint8 UART_ACS_ReadRxData(void) 
 393:Generated_Source\PSoC5/UART_ACS.c ****     {
 411              		.loc 1 393 0
 412              		.cfi_startproc
 413              		@ args = 0, pretend = 0, frame = 8
 414              		@ frame_needed = 1, uses_anonymous_args = 0
 415              		@ link register save eliminated.
 416 0000 80B4     		push	{r7}
 417              		.cfi_def_cfa_offset 4
 418              		.cfi_offset 7, -4
 419 0002 83B0     		sub	sp, sp, #12
 420              		.cfi_def_cfa_offset 16
 421 0004 00AF     		add	r7, sp, #0
 422              		.cfi_def_cfa_register 7
 394:Generated_Source\PSoC5/UART_ACS.c ****         uint8 rxData;
 395:Generated_Source\PSoC5/UART_ACS.c **** 
 396:Generated_Source\PSoC5/UART_ACS.c ****     #if (UART_ACS_RX_INTERRUPT_ENABLED)
 397:Generated_Source\PSoC5/UART_ACS.c **** 
 398:Generated_Source\PSoC5/UART_ACS.c ****         uint16 locRxBufferRead;
 399:Generated_Source\PSoC5/UART_ACS.c ****         uint16 locRxBufferWrite;
 400:Generated_Source\PSoC5/UART_ACS.c **** 
 401:Generated_Source\PSoC5/UART_ACS.c ****         /* Protect variables that could change on interrupt */
 402:Generated_Source\PSoC5/UART_ACS.c ****         UART_ACS_DisableRxInt();
 423              		.loc 1 402 0
 424 0006 1B4B     		ldr	r3, .L31
 425 0008 0422     		movs	r2, #4
 426 000a 1A60     		str	r2, [r3]
 403:Generated_Source\PSoC5/UART_ACS.c **** 
 404:Generated_Source\PSoC5/UART_ACS.c ****         locRxBufferRead  = UART_ACS_rxBufferRead;
 427              		.loc 1 404 0
 428 000c 1A4B     		ldr	r3, .L31+4
 429 000e 1B88     		ldrh	r3, [r3]	@ movhi
 430 0010 BB80     		strh	r3, [r7, #4]	@ movhi
 405:Generated_Source\PSoC5/UART_ACS.c ****         locRxBufferWrite = UART_ACS_rxBufferWrite;
 431              		.loc 1 405 0
 432 0012 1A4B     		ldr	r3, .L31+8
 433 0014 1B88     		ldrh	r3, [r3]	@ movhi
 434 0016 7B80     		strh	r3, [r7, #2]	@ movhi
 406:Generated_Source\PSoC5/UART_ACS.c **** 
 407:Generated_Source\PSoC5/UART_ACS.c ****         if( (UART_ACS_rxBufferLoopDetect != 0u) || (locRxBufferRead != locRxBufferWrite) )
 435              		.loc 1 407 0
 436 0018 194B     		ldr	r3, .L31+12
 437 001a 1B78     		ldrb	r3, [r3]
 438 001c DBB2     		uxtb	r3, r3
 439 001e 002B     		cmp	r3, #0
 440 0020 03D1     		bne	.L25
 441              		.loc 1 407 0 is_stmt 0 discriminator 1
 442 0022 BA88     		ldrh	r2, [r7, #4]
 443 0024 7B88     		ldrh	r3, [r7, #2]
 444 0026 9A42     		cmp	r2, r3
 445 0028 17D0     		beq	.L26
 446              	.L25:
 408:Generated_Source\PSoC5/UART_ACS.c ****         {
 409:Generated_Source\PSoC5/UART_ACS.c ****             rxData = UART_ACS_rxBuffer[locRxBufferRead];
ARM GAS  C:\Users\ilya\AppData\Local\Temp\cckYQUis.s 			page 16


 447              		.loc 1 409 0 is_stmt 1
 448 002a BB88     		ldrh	r3, [r7, #4]
 449 002c 154A     		ldr	r2, .L31+16
 450 002e D35C     		ldrb	r3, [r2, r3]
 451 0030 FB71     		strb	r3, [r7, #7]
 410:Generated_Source\PSoC5/UART_ACS.c ****             locRxBufferRead++;
 452              		.loc 1 410 0
 453 0032 BB88     		ldrh	r3, [r7, #4]
 454 0034 0133     		adds	r3, r3, #1
 455 0036 BB80     		strh	r3, [r7, #4]	@ movhi
 411:Generated_Source\PSoC5/UART_ACS.c **** 
 412:Generated_Source\PSoC5/UART_ACS.c ****             if(locRxBufferRead >= UART_ACS_RX_BUFFER_SIZE)
 456              		.loc 1 412 0
 457 0038 BB88     		ldrh	r3, [r7, #4]
 458 003a FF2B     		cmp	r3, #255
 459 003c 01D9     		bls	.L27
 413:Generated_Source\PSoC5/UART_ACS.c ****             {
 414:Generated_Source\PSoC5/UART_ACS.c ****                 locRxBufferRead = 0u;
 460              		.loc 1 414 0
 461 003e 0023     		movs	r3, #0
 462 0040 BB80     		strh	r3, [r7, #4]	@ movhi
 463              	.L27:
 415:Generated_Source\PSoC5/UART_ACS.c ****             }
 416:Generated_Source\PSoC5/UART_ACS.c ****             /* Update the real pointer */
 417:Generated_Source\PSoC5/UART_ACS.c ****             UART_ACS_rxBufferRead = locRxBufferRead;
 464              		.loc 1 417 0
 465 0042 0D4A     		ldr	r2, .L31+4
 466 0044 BB88     		ldrh	r3, [r7, #4]	@ movhi
 467 0046 1380     		strh	r3, [r2]	@ movhi
 418:Generated_Source\PSoC5/UART_ACS.c **** 
 419:Generated_Source\PSoC5/UART_ACS.c ****             if(UART_ACS_rxBufferLoopDetect != 0u)
 468              		.loc 1 419 0
 469 0048 0D4B     		ldr	r3, .L31+12
 470 004a 1B78     		ldrb	r3, [r3]
 471 004c DBB2     		uxtb	r3, r3
 472 004e 002B     		cmp	r3, #0
 473 0050 06D0     		beq	.L29
 420:Generated_Source\PSoC5/UART_ACS.c ****             {
 421:Generated_Source\PSoC5/UART_ACS.c ****                 UART_ACS_rxBufferLoopDetect = 0u;
 474              		.loc 1 421 0
 475 0052 0B4B     		ldr	r3, .L31+12
 476 0054 0022     		movs	r2, #0
 477 0056 1A70     		strb	r2, [r3]
 419:Generated_Source\PSoC5/UART_ACS.c ****             {
 478              		.loc 1 419 0
 479 0058 02E0     		b	.L29
 480              	.L26:
 422:Generated_Source\PSoC5/UART_ACS.c ****                 #if ((UART_ACS_RX_INTERRUPT_ENABLED) && (UART_ACS_FLOW_CONTROL != 0u))
 423:Generated_Source\PSoC5/UART_ACS.c ****                     /* When Hardware Flow Control selected - return RX mask */
 424:Generated_Source\PSoC5/UART_ACS.c ****                     #if( UART_ACS_HD_ENABLED )
 425:Generated_Source\PSoC5/UART_ACS.c ****                         if((UART_ACS_CONTROL_REG & UART_ACS_CTRL_HD_SEND) == 0u)
 426:Generated_Source\PSoC5/UART_ACS.c ****                         {   /* In Half duplex mode return RX mask only in RX
 427:Generated_Source\PSoC5/UART_ACS.c ****                             *  configuration set, otherwise
 428:Generated_Source\PSoC5/UART_ACS.c ****                             *  mask will be returned in LoadRxConfig() API.
 429:Generated_Source\PSoC5/UART_ACS.c ****                             */
 430:Generated_Source\PSoC5/UART_ACS.c ****                             UART_ACS_RXSTATUS_MASK_REG  |= UART_ACS_RX_STS_FIFO_NOTEMPTY;
 431:Generated_Source\PSoC5/UART_ACS.c ****                         }
ARM GAS  C:\Users\ilya\AppData\Local\Temp\cckYQUis.s 			page 17


 432:Generated_Source\PSoC5/UART_ACS.c ****                     #else
 433:Generated_Source\PSoC5/UART_ACS.c ****                         UART_ACS_RXSTATUS_MASK_REG  |= UART_ACS_RX_STS_FIFO_NOTEMPTY;
 434:Generated_Source\PSoC5/UART_ACS.c ****                     #endif /* end UART_ACS_HD_ENABLED */
 435:Generated_Source\PSoC5/UART_ACS.c ****                 #endif /* ((UART_ACS_RX_INTERRUPT_ENABLED) && (UART_ACS_FLOW_CONTROL != 0u)) */
 436:Generated_Source\PSoC5/UART_ACS.c ****             }
 437:Generated_Source\PSoC5/UART_ACS.c ****         }
 438:Generated_Source\PSoC5/UART_ACS.c ****         else
 439:Generated_Source\PSoC5/UART_ACS.c ****         {   /* Needs to check status for RX_STS_FIFO_NOTEMPTY bit */
 440:Generated_Source\PSoC5/UART_ACS.c ****             rxData = UART_ACS_RXDATA_REG;
 481              		.loc 1 440 0
 482 005a 0B4B     		ldr	r3, .L31+20
 483 005c 1B78     		ldrb	r3, [r3]
 484 005e FB71     		strb	r3, [r7, #7]
 485              	.L29:
 441:Generated_Source\PSoC5/UART_ACS.c ****         }
 442:Generated_Source\PSoC5/UART_ACS.c **** 
 443:Generated_Source\PSoC5/UART_ACS.c ****         UART_ACS_EnableRxInt();
 486              		.loc 1 443 0
 487 0060 0A4B     		ldr	r3, .L31+24
 488 0062 0422     		movs	r2, #4
 489 0064 1A60     		str	r2, [r3]
 444:Generated_Source\PSoC5/UART_ACS.c **** 
 445:Generated_Source\PSoC5/UART_ACS.c ****     #else
 446:Generated_Source\PSoC5/UART_ACS.c **** 
 447:Generated_Source\PSoC5/UART_ACS.c ****         /* Needs to check status for RX_STS_FIFO_NOTEMPTY bit */
 448:Generated_Source\PSoC5/UART_ACS.c ****         rxData = UART_ACS_RXDATA_REG;
 449:Generated_Source\PSoC5/UART_ACS.c **** 
 450:Generated_Source\PSoC5/UART_ACS.c ****     #endif /* (UART_ACS_RX_INTERRUPT_ENABLED) */
 451:Generated_Source\PSoC5/UART_ACS.c **** 
 452:Generated_Source\PSoC5/UART_ACS.c ****         return(rxData);
 490              		.loc 1 452 0
 491 0066 FB79     		ldrb	r3, [r7, #7]	@ zero_extendqisi2
 453:Generated_Source\PSoC5/UART_ACS.c ****     }
 492              		.loc 1 453 0
 493 0068 1846     		mov	r0, r3
 494 006a 0C37     		adds	r7, r7, #12
 495              		.cfi_def_cfa_offset 4
 496 006c BD46     		mov	sp, r7
 497              		.cfi_def_cfa_register 13
 498              		@ sp needed
 499 006e 80BC     		pop	{r7}
 500              		.cfi_restore 7
 501              		.cfi_def_cfa_offset 0
 502 0070 7047     		bx	lr
 503              	.L32:
 504 0072 00BF     		.align	2
 505              	.L31:
 506 0074 80E100E0 		.word	-536813184
 507 0078 00000000 		.word	UART_ACS_rxBufferRead
 508 007c 00000000 		.word	UART_ACS_rxBufferWrite
 509 0080 00000000 		.word	UART_ACS_rxBufferLoopDetect
 510 0084 00000000 		.word	UART_ACS_rxBuffer
 511 0088 46640040 		.word	1073767494
 512 008c 00E100E0 		.word	-536813312
 513              		.cfi_endproc
 514              	.LFE7:
 515              		.size	UART_ACS_ReadRxData, .-UART_ACS_ReadRxData
ARM GAS  C:\Users\ilya\AppData\Local\Temp\cckYQUis.s 			page 18


 516              		.section	.text.UART_ACS_ReadRxStatus,"ax",%progbits
 517              		.align	2
 518              		.global	UART_ACS_ReadRxStatus
 519              		.thumb
 520              		.thumb_func
 521              		.type	UART_ACS_ReadRxStatus, %function
 522              	UART_ACS_ReadRxStatus:
 523              	.LFB8:
 454:Generated_Source\PSoC5/UART_ACS.c **** 
 455:Generated_Source\PSoC5/UART_ACS.c **** 
 456:Generated_Source\PSoC5/UART_ACS.c ****     /*******************************************************************************
 457:Generated_Source\PSoC5/UART_ACS.c ****     * Function Name: UART_ACS_ReadRxStatus
 458:Generated_Source\PSoC5/UART_ACS.c ****     ********************************************************************************
 459:Generated_Source\PSoC5/UART_ACS.c ****     *
 460:Generated_Source\PSoC5/UART_ACS.c ****     * Summary:
 461:Generated_Source\PSoC5/UART_ACS.c ****     *  Returns the current state of the receiver status register and the software
 462:Generated_Source\PSoC5/UART_ACS.c ****     *  buffer overflow status.
 463:Generated_Source\PSoC5/UART_ACS.c ****     *
 464:Generated_Source\PSoC5/UART_ACS.c ****     * Parameters:
 465:Generated_Source\PSoC5/UART_ACS.c ****     *  None.
 466:Generated_Source\PSoC5/UART_ACS.c ****     *
 467:Generated_Source\PSoC5/UART_ACS.c ****     * Return:
 468:Generated_Source\PSoC5/UART_ACS.c ****     *  Current state of the status register.
 469:Generated_Source\PSoC5/UART_ACS.c ****     *
 470:Generated_Source\PSoC5/UART_ACS.c ****     * Side Effect:
 471:Generated_Source\PSoC5/UART_ACS.c ****     *  All status register bits are clear-on-read except
 472:Generated_Source\PSoC5/UART_ACS.c ****     *  UART_ACS_RX_STS_FIFO_NOTEMPTY.
 473:Generated_Source\PSoC5/UART_ACS.c ****     *  UART_ACS_RX_STS_FIFO_NOTEMPTY clears immediately after RX data
 474:Generated_Source\PSoC5/UART_ACS.c ****     *  register read.
 475:Generated_Source\PSoC5/UART_ACS.c ****     *
 476:Generated_Source\PSoC5/UART_ACS.c ****     * Global Variables:
 477:Generated_Source\PSoC5/UART_ACS.c ****     *  UART_ACS_rxBufferOverflow - used to indicate overload condition.
 478:Generated_Source\PSoC5/UART_ACS.c ****     *   It set to one in RX interrupt when there isn't free space in
 479:Generated_Source\PSoC5/UART_ACS.c ****     *   UART_ACS_rxBufferRead to write new data. This condition returned
 480:Generated_Source\PSoC5/UART_ACS.c ****     *   and cleared to zero by this API as an
 481:Generated_Source\PSoC5/UART_ACS.c ****     *   UART_ACS_RX_STS_SOFT_BUFF_OVER bit along with RX Status register
 482:Generated_Source\PSoC5/UART_ACS.c ****     *   bits.
 483:Generated_Source\PSoC5/UART_ACS.c ****     *
 484:Generated_Source\PSoC5/UART_ACS.c ****     *******************************************************************************/
 485:Generated_Source\PSoC5/UART_ACS.c ****     uint8 UART_ACS_ReadRxStatus(void) 
 486:Generated_Source\PSoC5/UART_ACS.c ****     {
 524              		.loc 1 486 0
 525              		.cfi_startproc
 526              		@ args = 0, pretend = 0, frame = 8
 527              		@ frame_needed = 1, uses_anonymous_args = 0
 528              		@ link register save eliminated.
 529 0000 80B4     		push	{r7}
 530              		.cfi_def_cfa_offset 4
 531              		.cfi_offset 7, -4
 532 0002 83B0     		sub	sp, sp, #12
 533              		.cfi_def_cfa_offset 16
 534 0004 00AF     		add	r7, sp, #0
 535              		.cfi_def_cfa_register 7
 487:Generated_Source\PSoC5/UART_ACS.c ****         uint8 status;
 488:Generated_Source\PSoC5/UART_ACS.c **** 
 489:Generated_Source\PSoC5/UART_ACS.c ****         status = UART_ACS_RXSTATUS_REG & UART_ACS_RX_HW_MASK;
 536              		.loc 1 489 0
ARM GAS  C:\Users\ilya\AppData\Local\Temp\cckYQUis.s 			page 19


 537 0006 0C4B     		ldr	r3, .L36
 538 0008 1B78     		ldrb	r3, [r3]
 539 000a DBB2     		uxtb	r3, r3
 540 000c 03F07F03 		and	r3, r3, #127
 541 0010 FB71     		strb	r3, [r7, #7]
 490:Generated_Source\PSoC5/UART_ACS.c **** 
 491:Generated_Source\PSoC5/UART_ACS.c ****     #if (UART_ACS_RX_INTERRUPT_ENABLED)
 492:Generated_Source\PSoC5/UART_ACS.c ****         if(UART_ACS_rxBufferOverflow != 0u)
 542              		.loc 1 492 0
 543 0012 0A4B     		ldr	r3, .L36+4
 544 0014 1B78     		ldrb	r3, [r3]
 545 0016 DBB2     		uxtb	r3, r3
 546 0018 002B     		cmp	r3, #0
 547 001a 06D0     		beq	.L34
 493:Generated_Source\PSoC5/UART_ACS.c ****         {
 494:Generated_Source\PSoC5/UART_ACS.c ****             status |= UART_ACS_RX_STS_SOFT_BUFF_OVER;
 548              		.loc 1 494 0
 549 001c FB79     		ldrb	r3, [r7, #7]
 550 001e 63F07F03 		orn	r3, r3, #127
 551 0022 FB71     		strb	r3, [r7, #7]
 495:Generated_Source\PSoC5/UART_ACS.c ****             UART_ACS_rxBufferOverflow = 0u;
 552              		.loc 1 495 0
 553 0024 054B     		ldr	r3, .L36+4
 554 0026 0022     		movs	r2, #0
 555 0028 1A70     		strb	r2, [r3]
 556              	.L34:
 496:Generated_Source\PSoC5/UART_ACS.c ****         }
 497:Generated_Source\PSoC5/UART_ACS.c ****     #endif /* (UART_ACS_RX_INTERRUPT_ENABLED) */
 498:Generated_Source\PSoC5/UART_ACS.c **** 
 499:Generated_Source\PSoC5/UART_ACS.c ****         return(status);
 557              		.loc 1 499 0
 558 002a FB79     		ldrb	r3, [r7, #7]	@ zero_extendqisi2
 500:Generated_Source\PSoC5/UART_ACS.c ****     }
 559              		.loc 1 500 0
 560 002c 1846     		mov	r0, r3
 561 002e 0C37     		adds	r7, r7, #12
 562              		.cfi_def_cfa_offset 4
 563 0030 BD46     		mov	sp, r7
 564              		.cfi_def_cfa_register 13
 565              		@ sp needed
 566 0032 80BC     		pop	{r7}
 567              		.cfi_restore 7
 568              		.cfi_def_cfa_offset 0
 569 0034 7047     		bx	lr
 570              	.L37:
 571 0036 00BF     		.align	2
 572              	.L36:
 573 0038 66640040 		.word	1073767526
 574 003c 00000000 		.word	UART_ACS_rxBufferOverflow
 575              		.cfi_endproc
 576              	.LFE8:
 577              		.size	UART_ACS_ReadRxStatus, .-UART_ACS_ReadRxStatus
 578              		.section	.text.UART_ACS_GetChar,"ax",%progbits
 579              		.align	2
 580              		.global	UART_ACS_GetChar
 581              		.thumb
 582              		.thumb_func
ARM GAS  C:\Users\ilya\AppData\Local\Temp\cckYQUis.s 			page 20


 583              		.type	UART_ACS_GetChar, %function
 584              	UART_ACS_GetChar:
 585              	.LFB9:
 501:Generated_Source\PSoC5/UART_ACS.c **** 
 502:Generated_Source\PSoC5/UART_ACS.c **** 
 503:Generated_Source\PSoC5/UART_ACS.c ****     /*******************************************************************************
 504:Generated_Source\PSoC5/UART_ACS.c ****     * Function Name: UART_ACS_GetChar
 505:Generated_Source\PSoC5/UART_ACS.c ****     ********************************************************************************
 506:Generated_Source\PSoC5/UART_ACS.c ****     *
 507:Generated_Source\PSoC5/UART_ACS.c ****     * Summary:
 508:Generated_Source\PSoC5/UART_ACS.c ****     *  Returns the last received byte of data. UART_ACS_GetChar() is
 509:Generated_Source\PSoC5/UART_ACS.c ****     *  designed for ASCII characters and returns a uint8 where 1 to 255 are values
 510:Generated_Source\PSoC5/UART_ACS.c ****     *  for valid characters and 0 indicates an error occurred or no data is present.
 511:Generated_Source\PSoC5/UART_ACS.c ****     *
 512:Generated_Source\PSoC5/UART_ACS.c ****     * Parameters:
 513:Generated_Source\PSoC5/UART_ACS.c ****     *  None.
 514:Generated_Source\PSoC5/UART_ACS.c ****     *
 515:Generated_Source\PSoC5/UART_ACS.c ****     * Return:
 516:Generated_Source\PSoC5/UART_ACS.c ****     *  Character read from UART RX buffer. ASCII characters from 1 to 255 are valid.
 517:Generated_Source\PSoC5/UART_ACS.c ****     *  A returned zero signifies an error condition or no data available.
 518:Generated_Source\PSoC5/UART_ACS.c ****     *
 519:Generated_Source\PSoC5/UART_ACS.c ****     * Global Variables:
 520:Generated_Source\PSoC5/UART_ACS.c ****     *  UART_ACS_rxBuffer - RAM buffer pointer for save received data.
 521:Generated_Source\PSoC5/UART_ACS.c ****     *  UART_ACS_rxBufferWrite - cyclic index for write to rxBuffer,
 522:Generated_Source\PSoC5/UART_ACS.c ****     *     checked to identify new data.
 523:Generated_Source\PSoC5/UART_ACS.c ****     *  UART_ACS_rxBufferRead - cyclic index for read from rxBuffer,
 524:Generated_Source\PSoC5/UART_ACS.c ****     *     incremented after each byte has been read from buffer.
 525:Generated_Source\PSoC5/UART_ACS.c ****     *  UART_ACS_rxBufferLoopDetect - cleared if loop condition was detected
 526:Generated_Source\PSoC5/UART_ACS.c ****     *     in RX ISR.
 527:Generated_Source\PSoC5/UART_ACS.c ****     *
 528:Generated_Source\PSoC5/UART_ACS.c ****     * Reentrant:
 529:Generated_Source\PSoC5/UART_ACS.c ****     *  No.
 530:Generated_Source\PSoC5/UART_ACS.c ****     *
 531:Generated_Source\PSoC5/UART_ACS.c ****     *******************************************************************************/
 532:Generated_Source\PSoC5/UART_ACS.c ****     uint8 UART_ACS_GetChar(void) 
 533:Generated_Source\PSoC5/UART_ACS.c ****     {
 586              		.loc 1 533 0
 587              		.cfi_startproc
 588              		@ args = 0, pretend = 0, frame = 8
 589              		@ frame_needed = 1, uses_anonymous_args = 0
 590              		@ link register save eliminated.
 591 0000 80B4     		push	{r7}
 592              		.cfi_def_cfa_offset 4
 593              		.cfi_offset 7, -4
 594 0002 83B0     		sub	sp, sp, #12
 595              		.cfi_def_cfa_offset 16
 596 0004 00AF     		add	r7, sp, #0
 597              		.cfi_def_cfa_register 7
 534:Generated_Source\PSoC5/UART_ACS.c ****         uint8 rxData = 0u;
 598              		.loc 1 534 0
 599 0006 0023     		movs	r3, #0
 600 0008 FB71     		strb	r3, [r7, #7]
 535:Generated_Source\PSoC5/UART_ACS.c ****         uint8 rxStatus;
 536:Generated_Source\PSoC5/UART_ACS.c **** 
 537:Generated_Source\PSoC5/UART_ACS.c ****     #if (UART_ACS_RX_INTERRUPT_ENABLED)
 538:Generated_Source\PSoC5/UART_ACS.c ****         uint16 locRxBufferRead;
 539:Generated_Source\PSoC5/UART_ACS.c ****         uint16 locRxBufferWrite;
ARM GAS  C:\Users\ilya\AppData\Local\Temp\cckYQUis.s 			page 21


 540:Generated_Source\PSoC5/UART_ACS.c **** 
 541:Generated_Source\PSoC5/UART_ACS.c ****         /* Protect variables that could change on interrupt */
 542:Generated_Source\PSoC5/UART_ACS.c ****         UART_ACS_DisableRxInt();
 601              		.loc 1 542 0
 602 000a 224B     		ldr	r3, .L45
 603 000c 0422     		movs	r2, #4
 604 000e 1A60     		str	r2, [r3]
 543:Generated_Source\PSoC5/UART_ACS.c **** 
 544:Generated_Source\PSoC5/UART_ACS.c ****         locRxBufferRead  = UART_ACS_rxBufferRead;
 605              		.loc 1 544 0
 606 0010 214B     		ldr	r3, .L45+4
 607 0012 1B88     		ldrh	r3, [r3]	@ movhi
 608 0014 BB80     		strh	r3, [r7, #4]	@ movhi
 545:Generated_Source\PSoC5/UART_ACS.c ****         locRxBufferWrite = UART_ACS_rxBufferWrite;
 609              		.loc 1 545 0
 610 0016 214B     		ldr	r3, .L45+8
 611 0018 1B88     		ldrh	r3, [r3]	@ movhi
 612 001a 7B80     		strh	r3, [r7, #2]	@ movhi
 546:Generated_Source\PSoC5/UART_ACS.c **** 
 547:Generated_Source\PSoC5/UART_ACS.c ****         if( (UART_ACS_rxBufferLoopDetect != 0u) || (locRxBufferRead != locRxBufferWrite) )
 613              		.loc 1 547 0
 614 001c 204B     		ldr	r3, .L45+12
 615 001e 1B78     		ldrb	r3, [r3]
 616 0020 DBB2     		uxtb	r3, r3
 617 0022 002B     		cmp	r3, #0
 618 0024 03D1     		bne	.L39
 619              		.loc 1 547 0 is_stmt 0 discriminator 1
 620 0026 BA88     		ldrh	r2, [r7, #4]
 621 0028 7B88     		ldrh	r3, [r7, #2]
 622 002a 9A42     		cmp	r2, r3
 623 002c 17D0     		beq	.L40
 624              	.L39:
 548:Generated_Source\PSoC5/UART_ACS.c ****         {
 549:Generated_Source\PSoC5/UART_ACS.c ****             rxData = UART_ACS_rxBuffer[locRxBufferRead];
 625              		.loc 1 549 0 is_stmt 1
 626 002e BB88     		ldrh	r3, [r7, #4]
 627 0030 1C4A     		ldr	r2, .L45+16
 628 0032 D35C     		ldrb	r3, [r2, r3]
 629 0034 FB71     		strb	r3, [r7, #7]
 550:Generated_Source\PSoC5/UART_ACS.c ****             locRxBufferRead++;
 630              		.loc 1 550 0
 631 0036 BB88     		ldrh	r3, [r7, #4]
 632 0038 0133     		adds	r3, r3, #1
 633 003a BB80     		strh	r3, [r7, #4]	@ movhi
 551:Generated_Source\PSoC5/UART_ACS.c ****             if(locRxBufferRead >= UART_ACS_RX_BUFFER_SIZE)
 634              		.loc 1 551 0
 635 003c BB88     		ldrh	r3, [r7, #4]
 636 003e FF2B     		cmp	r3, #255
 637 0040 01D9     		bls	.L41
 552:Generated_Source\PSoC5/UART_ACS.c ****             {
 553:Generated_Source\PSoC5/UART_ACS.c ****                 locRxBufferRead = 0u;
 638              		.loc 1 553 0
 639 0042 0023     		movs	r3, #0
 640 0044 BB80     		strh	r3, [r7, #4]	@ movhi
 641              	.L41:
 554:Generated_Source\PSoC5/UART_ACS.c ****             }
 555:Generated_Source\PSoC5/UART_ACS.c ****             /* Update the real pointer */
ARM GAS  C:\Users\ilya\AppData\Local\Temp\cckYQUis.s 			page 22


 556:Generated_Source\PSoC5/UART_ACS.c ****             UART_ACS_rxBufferRead = locRxBufferRead;
 642              		.loc 1 556 0
 643 0046 144A     		ldr	r2, .L45+4
 644 0048 BB88     		ldrh	r3, [r7, #4]	@ movhi
 645 004a 1380     		strh	r3, [r2]	@ movhi
 557:Generated_Source\PSoC5/UART_ACS.c **** 
 558:Generated_Source\PSoC5/UART_ACS.c ****             if(UART_ACS_rxBufferLoopDetect != 0u)
 646              		.loc 1 558 0
 647 004c 144B     		ldr	r3, .L45+12
 648 004e 1B78     		ldrb	r3, [r3]
 649 0050 DBB2     		uxtb	r3, r3
 650 0052 002B     		cmp	r3, #0
 651 0054 15D0     		beq	.L43
 559:Generated_Source\PSoC5/UART_ACS.c ****             {
 560:Generated_Source\PSoC5/UART_ACS.c ****                 UART_ACS_rxBufferLoopDetect = 0u;
 652              		.loc 1 560 0
 653 0056 124B     		ldr	r3, .L45+12
 654 0058 0022     		movs	r2, #0
 655 005a 1A70     		strb	r2, [r3]
 558:Generated_Source\PSoC5/UART_ACS.c ****             {
 656              		.loc 1 558 0
 657 005c 11E0     		b	.L43
 658              	.L40:
 561:Generated_Source\PSoC5/UART_ACS.c ****                 #if( (UART_ACS_RX_INTERRUPT_ENABLED) && (UART_ACS_FLOW_CONTROL != 0u) )
 562:Generated_Source\PSoC5/UART_ACS.c ****                     /* When Hardware Flow Control selected - return RX mask */
 563:Generated_Source\PSoC5/UART_ACS.c ****                     #if( UART_ACS_HD_ENABLED )
 564:Generated_Source\PSoC5/UART_ACS.c ****                         if((UART_ACS_CONTROL_REG & UART_ACS_CTRL_HD_SEND) == 0u)
 565:Generated_Source\PSoC5/UART_ACS.c ****                         {   /* In Half duplex mode return RX mask only if
 566:Generated_Source\PSoC5/UART_ACS.c ****                             *  RX configuration set, otherwise
 567:Generated_Source\PSoC5/UART_ACS.c ****                             *  mask will be returned in LoadRxConfig() API.
 568:Generated_Source\PSoC5/UART_ACS.c ****                             */
 569:Generated_Source\PSoC5/UART_ACS.c ****                             UART_ACS_RXSTATUS_MASK_REG |= UART_ACS_RX_STS_FIFO_NOTEMPTY;
 570:Generated_Source\PSoC5/UART_ACS.c ****                         }
 571:Generated_Source\PSoC5/UART_ACS.c ****                     #else
 572:Generated_Source\PSoC5/UART_ACS.c ****                         UART_ACS_RXSTATUS_MASK_REG |= UART_ACS_RX_STS_FIFO_NOTEMPTY;
 573:Generated_Source\PSoC5/UART_ACS.c ****                     #endif /* end UART_ACS_HD_ENABLED */
 574:Generated_Source\PSoC5/UART_ACS.c ****                 #endif /* UART_ACS_RX_INTERRUPT_ENABLED and Hardware flow control*/
 575:Generated_Source\PSoC5/UART_ACS.c ****             }
 576:Generated_Source\PSoC5/UART_ACS.c **** 
 577:Generated_Source\PSoC5/UART_ACS.c ****         }
 578:Generated_Source\PSoC5/UART_ACS.c ****         else
 579:Generated_Source\PSoC5/UART_ACS.c ****         {   rxStatus = UART_ACS_RXSTATUS_REG;
 659              		.loc 1 579 0
 660 005e 124B     		ldr	r3, .L45+20
 661 0060 1B78     		ldrb	r3, [r3]
 662 0062 7B70     		strb	r3, [r7, #1]
 580:Generated_Source\PSoC5/UART_ACS.c ****             if((rxStatus & UART_ACS_RX_STS_FIFO_NOTEMPTY) != 0u)
 663              		.loc 1 580 0
 664 0064 7B78     		ldrb	r3, [r7, #1]	@ zero_extendqisi2
 665 0066 03F02003 		and	r3, r3, #32
 666 006a 002B     		cmp	r3, #0
 667 006c 09D0     		beq	.L43
 581:Generated_Source\PSoC5/UART_ACS.c ****             {   /* Read received data from FIFO */
 582:Generated_Source\PSoC5/UART_ACS.c ****                 rxData = UART_ACS_RXDATA_REG;
 668              		.loc 1 582 0
 669 006e 0F4B     		ldr	r3, .L45+24
 670 0070 1B78     		ldrb	r3, [r3]
ARM GAS  C:\Users\ilya\AppData\Local\Temp\cckYQUis.s 			page 23


 671 0072 FB71     		strb	r3, [r7, #7]
 583:Generated_Source\PSoC5/UART_ACS.c ****                 /*Check status on error*/
 584:Generated_Source\PSoC5/UART_ACS.c ****                 if((rxStatus & (UART_ACS_RX_STS_BREAK | UART_ACS_RX_STS_PAR_ERROR |
 585:Generated_Source\PSoC5/UART_ACS.c ****                                 UART_ACS_RX_STS_STOP_ERROR | UART_ACS_RX_STS_OVERRUN)) != 0u)
 672              		.loc 1 585 0
 673 0074 7B78     		ldrb	r3, [r7, #1]	@ zero_extendqisi2
 674 0076 03F01E03 		and	r3, r3, #30
 584:Generated_Source\PSoC5/UART_ACS.c ****                                 UART_ACS_RX_STS_STOP_ERROR | UART_ACS_RX_STS_OVERRUN)) != 0u)
 675              		.loc 1 584 0
 676 007a 002B     		cmp	r3, #0
 677 007c 01D0     		beq	.L43
 586:Generated_Source\PSoC5/UART_ACS.c ****                 {
 587:Generated_Source\PSoC5/UART_ACS.c ****                     rxData = 0u;
 678              		.loc 1 587 0
 679 007e 0023     		movs	r3, #0
 680 0080 FB71     		strb	r3, [r7, #7]
 681              	.L43:
 588:Generated_Source\PSoC5/UART_ACS.c ****                 }
 589:Generated_Source\PSoC5/UART_ACS.c ****             }
 590:Generated_Source\PSoC5/UART_ACS.c ****         }
 591:Generated_Source\PSoC5/UART_ACS.c **** 
 592:Generated_Source\PSoC5/UART_ACS.c ****         UART_ACS_EnableRxInt();
 682              		.loc 1 592 0
 683 0082 0B4B     		ldr	r3, .L45+28
 684 0084 0422     		movs	r2, #4
 685 0086 1A60     		str	r2, [r3]
 593:Generated_Source\PSoC5/UART_ACS.c **** 
 594:Generated_Source\PSoC5/UART_ACS.c ****     #else
 595:Generated_Source\PSoC5/UART_ACS.c **** 
 596:Generated_Source\PSoC5/UART_ACS.c ****         rxStatus =UART_ACS_RXSTATUS_REG;
 597:Generated_Source\PSoC5/UART_ACS.c ****         if((rxStatus & UART_ACS_RX_STS_FIFO_NOTEMPTY) != 0u)
 598:Generated_Source\PSoC5/UART_ACS.c ****         {
 599:Generated_Source\PSoC5/UART_ACS.c ****             /* Read received data from FIFO */
 600:Generated_Source\PSoC5/UART_ACS.c ****             rxData = UART_ACS_RXDATA_REG;
 601:Generated_Source\PSoC5/UART_ACS.c **** 
 602:Generated_Source\PSoC5/UART_ACS.c ****             /*Check status on error*/
 603:Generated_Source\PSoC5/UART_ACS.c ****             if((rxStatus & (UART_ACS_RX_STS_BREAK | UART_ACS_RX_STS_PAR_ERROR |
 604:Generated_Source\PSoC5/UART_ACS.c ****                             UART_ACS_RX_STS_STOP_ERROR | UART_ACS_RX_STS_OVERRUN)) != 0u)
 605:Generated_Source\PSoC5/UART_ACS.c ****             {
 606:Generated_Source\PSoC5/UART_ACS.c ****                 rxData = 0u;
 607:Generated_Source\PSoC5/UART_ACS.c ****             }
 608:Generated_Source\PSoC5/UART_ACS.c ****         }
 609:Generated_Source\PSoC5/UART_ACS.c ****     #endif /* (UART_ACS_RX_INTERRUPT_ENABLED) */
 610:Generated_Source\PSoC5/UART_ACS.c **** 
 611:Generated_Source\PSoC5/UART_ACS.c ****         return(rxData);
 686              		.loc 1 611 0
 687 0088 FB79     		ldrb	r3, [r7, #7]	@ zero_extendqisi2
 612:Generated_Source\PSoC5/UART_ACS.c ****     }
 688              		.loc 1 612 0
 689 008a 1846     		mov	r0, r3
 690 008c 0C37     		adds	r7, r7, #12
 691              		.cfi_def_cfa_offset 4
 692 008e BD46     		mov	sp, r7
 693              		.cfi_def_cfa_register 13
 694              		@ sp needed
 695 0090 80BC     		pop	{r7}
 696              		.cfi_restore 7
ARM GAS  C:\Users\ilya\AppData\Local\Temp\cckYQUis.s 			page 24


 697              		.cfi_def_cfa_offset 0
 698 0092 7047     		bx	lr
 699              	.L46:
 700              		.align	2
 701              	.L45:
 702 0094 80E100E0 		.word	-536813184
 703 0098 00000000 		.word	UART_ACS_rxBufferRead
 704 009c 00000000 		.word	UART_ACS_rxBufferWrite
 705 00a0 00000000 		.word	UART_ACS_rxBufferLoopDetect
 706 00a4 00000000 		.word	UART_ACS_rxBuffer
 707 00a8 66640040 		.word	1073767526
 708 00ac 46640040 		.word	1073767494
 709 00b0 00E100E0 		.word	-536813312
 710              		.cfi_endproc
 711              	.LFE9:
 712              		.size	UART_ACS_GetChar, .-UART_ACS_GetChar
 713              		.section	.text.UART_ACS_GetByte,"ax",%progbits
 714              		.align	2
 715              		.global	UART_ACS_GetByte
 716              		.thumb
 717              		.thumb_func
 718              		.type	UART_ACS_GetByte, %function
 719              	UART_ACS_GetByte:
 720              	.LFB10:
 613:Generated_Source\PSoC5/UART_ACS.c **** 
 614:Generated_Source\PSoC5/UART_ACS.c **** 
 615:Generated_Source\PSoC5/UART_ACS.c ****     /*******************************************************************************
 616:Generated_Source\PSoC5/UART_ACS.c ****     * Function Name: UART_ACS_GetByte
 617:Generated_Source\PSoC5/UART_ACS.c ****     ********************************************************************************
 618:Generated_Source\PSoC5/UART_ACS.c ****     *
 619:Generated_Source\PSoC5/UART_ACS.c ****     * Summary:
 620:Generated_Source\PSoC5/UART_ACS.c ****     *  Reads UART RX buffer immediately, returns received character and error
 621:Generated_Source\PSoC5/UART_ACS.c ****     *  condition.
 622:Generated_Source\PSoC5/UART_ACS.c ****     *
 623:Generated_Source\PSoC5/UART_ACS.c ****     * Parameters:
 624:Generated_Source\PSoC5/UART_ACS.c ****     *  None.
 625:Generated_Source\PSoC5/UART_ACS.c ****     *
 626:Generated_Source\PSoC5/UART_ACS.c ****     * Return:
 627:Generated_Source\PSoC5/UART_ACS.c ****     *  MSB contains status and LSB contains UART RX data. If the MSB is nonzero,
 628:Generated_Source\PSoC5/UART_ACS.c ****     *  an error has occurred.
 629:Generated_Source\PSoC5/UART_ACS.c ****     *
 630:Generated_Source\PSoC5/UART_ACS.c ****     * Reentrant:
 631:Generated_Source\PSoC5/UART_ACS.c ****     *  No.
 632:Generated_Source\PSoC5/UART_ACS.c ****     *
 633:Generated_Source\PSoC5/UART_ACS.c ****     *******************************************************************************/
 634:Generated_Source\PSoC5/UART_ACS.c ****     uint16 UART_ACS_GetByte(void) 
 635:Generated_Source\PSoC5/UART_ACS.c ****     {
 721              		.loc 1 635 0
 722              		.cfi_startproc
 723              		@ args = 0, pretend = 0, frame = 8
 724              		@ frame_needed = 1, uses_anonymous_args = 0
 725 0000 90B5     		push	{r4, r7, lr}
 726              		.cfi_def_cfa_offset 12
 727              		.cfi_offset 4, -12
 728              		.cfi_offset 7, -8
 729              		.cfi_offset 14, -4
 730 0002 83B0     		sub	sp, sp, #12
ARM GAS  C:\Users\ilya\AppData\Local\Temp\cckYQUis.s 			page 25


 731              		.cfi_def_cfa_offset 24
 732 0004 00AF     		add	r7, sp, #0
 733              		.cfi_def_cfa_register 7
 636:Generated_Source\PSoC5/UART_ACS.c ****         
 637:Generated_Source\PSoC5/UART_ACS.c ****     #if (UART_ACS_RX_INTERRUPT_ENABLED)
 638:Generated_Source\PSoC5/UART_ACS.c ****         uint16 locErrorStatus;
 639:Generated_Source\PSoC5/UART_ACS.c ****         /* Protect variables that could change on interrupt */
 640:Generated_Source\PSoC5/UART_ACS.c ****         UART_ACS_DisableRxInt();
 734              		.loc 1 640 0
 735 0006 0C4B     		ldr	r3, .L49
 736 0008 0422     		movs	r2, #4
 737 000a 1A60     		str	r2, [r3]
 641:Generated_Source\PSoC5/UART_ACS.c ****         locErrorStatus = (uint16)UART_ACS_errorStatus;
 738              		.loc 1 641 0
 739 000c 0B4B     		ldr	r3, .L49+4
 740 000e 1B78     		ldrb	r3, [r3]	@ zero_extendqisi2
 741 0010 FB80     		strh	r3, [r7, #6]	@ movhi
 642:Generated_Source\PSoC5/UART_ACS.c ****         UART_ACS_errorStatus = 0u;
 742              		.loc 1 642 0
 743 0012 0A4B     		ldr	r3, .L49+4
 744 0014 0022     		movs	r2, #0
 745 0016 1A70     		strb	r2, [r3]
 643:Generated_Source\PSoC5/UART_ACS.c ****         UART_ACS_EnableRxInt();
 746              		.loc 1 643 0
 747 0018 094B     		ldr	r3, .L49+8
 748 001a 0422     		movs	r2, #4
 749 001c 1A60     		str	r2, [r3]
 644:Generated_Source\PSoC5/UART_ACS.c ****         return ( (uint16)(locErrorStatus << 8u) | UART_ACS_ReadRxData() );
 750              		.loc 1 644 0
 751 001e FB88     		ldrh	r3, [r7, #6]	@ movhi
 752 0020 1B02     		lsls	r3, r3, #8
 753 0022 9CB2     		uxth	r4, r3
 754 0024 FFF7FEFF 		bl	UART_ACS_ReadRxData
 755 0028 0346     		mov	r3, r0
 756 002a 9BB2     		uxth	r3, r3
 757 002c 2343     		orrs	r3, r3, r4
 758 002e 9BB2     		uxth	r3, r3
 645:Generated_Source\PSoC5/UART_ACS.c ****     #else
 646:Generated_Source\PSoC5/UART_ACS.c ****         return ( ((uint16)UART_ACS_ReadRxStatus() << 8u) | UART_ACS_ReadRxData() );
 647:Generated_Source\PSoC5/UART_ACS.c ****     #endif /* UART_ACS_RX_INTERRUPT_ENABLED */
 648:Generated_Source\PSoC5/UART_ACS.c ****         
 649:Generated_Source\PSoC5/UART_ACS.c ****     }
 759              		.loc 1 649 0
 760 0030 1846     		mov	r0, r3
 761 0032 0C37     		adds	r7, r7, #12
 762              		.cfi_def_cfa_offset 12
 763 0034 BD46     		mov	sp, r7
 764              		.cfi_def_cfa_register 13
 765              		@ sp needed
 766 0036 90BD     		pop	{r4, r7, pc}
 767              	.L50:
 768              		.align	2
 769              	.L49:
 770 0038 80E100E0 		.word	-536813184
 771 003c 00000000 		.word	UART_ACS_errorStatus
 772 0040 00E100E0 		.word	-536813312
 773              		.cfi_endproc
ARM GAS  C:\Users\ilya\AppData\Local\Temp\cckYQUis.s 			page 26


 774              	.LFE10:
 775              		.size	UART_ACS_GetByte, .-UART_ACS_GetByte
 776              		.section	.text.UART_ACS_GetRxBufferSize,"ax",%progbits
 777              		.align	2
 778              		.global	UART_ACS_GetRxBufferSize
 779              		.thumb
 780              		.thumb_func
 781              		.type	UART_ACS_GetRxBufferSize, %function
 782              	UART_ACS_GetRxBufferSize:
 783              	.LFB11:
 650:Generated_Source\PSoC5/UART_ACS.c **** 
 651:Generated_Source\PSoC5/UART_ACS.c **** 
 652:Generated_Source\PSoC5/UART_ACS.c ****     /*******************************************************************************
 653:Generated_Source\PSoC5/UART_ACS.c ****     * Function Name: UART_ACS_GetRxBufferSize
 654:Generated_Source\PSoC5/UART_ACS.c ****     ********************************************************************************
 655:Generated_Source\PSoC5/UART_ACS.c ****     *
 656:Generated_Source\PSoC5/UART_ACS.c ****     * Summary:
 657:Generated_Source\PSoC5/UART_ACS.c ****     *  Returns the number of received bytes available in the RX buffer.
 658:Generated_Source\PSoC5/UART_ACS.c ****     *  * RX software buffer is disabled (RX Buffer Size parameter is equal to 4): 
 659:Generated_Source\PSoC5/UART_ACS.c ****     *    returns 0 for empty RX FIFO or 1 for not empty RX FIFO.
 660:Generated_Source\PSoC5/UART_ACS.c ****     *  * RX software buffer is enabled: returns the number of bytes available in 
 661:Generated_Source\PSoC5/UART_ACS.c ****     *    the RX software buffer. Bytes available in the RX FIFO do not take to 
 662:Generated_Source\PSoC5/UART_ACS.c ****     *    account.
 663:Generated_Source\PSoC5/UART_ACS.c ****     *
 664:Generated_Source\PSoC5/UART_ACS.c ****     * Parameters:
 665:Generated_Source\PSoC5/UART_ACS.c ****     *  None.
 666:Generated_Source\PSoC5/UART_ACS.c ****     *
 667:Generated_Source\PSoC5/UART_ACS.c ****     * Return:
 668:Generated_Source\PSoC5/UART_ACS.c ****     *  uint16: Number of bytes in the RX buffer. 
 669:Generated_Source\PSoC5/UART_ACS.c ****     *    Return value type depends on RX Buffer Size parameter.
 670:Generated_Source\PSoC5/UART_ACS.c ****     *
 671:Generated_Source\PSoC5/UART_ACS.c ****     * Global Variables:
 672:Generated_Source\PSoC5/UART_ACS.c ****     *  UART_ACS_rxBufferWrite - used to calculate left bytes.
 673:Generated_Source\PSoC5/UART_ACS.c ****     *  UART_ACS_rxBufferRead - used to calculate left bytes.
 674:Generated_Source\PSoC5/UART_ACS.c ****     *  UART_ACS_rxBufferLoopDetect - checked to decide left bytes amount.
 675:Generated_Source\PSoC5/UART_ACS.c ****     *
 676:Generated_Source\PSoC5/UART_ACS.c ****     * Reentrant:
 677:Generated_Source\PSoC5/UART_ACS.c ****     *  No.
 678:Generated_Source\PSoC5/UART_ACS.c ****     *
 679:Generated_Source\PSoC5/UART_ACS.c ****     * Theory:
 680:Generated_Source\PSoC5/UART_ACS.c ****     *  Allows the user to find out how full the RX Buffer is.
 681:Generated_Source\PSoC5/UART_ACS.c ****     *
 682:Generated_Source\PSoC5/UART_ACS.c ****     *******************************************************************************/
 683:Generated_Source\PSoC5/UART_ACS.c ****     uint16 UART_ACS_GetRxBufferSize(void)
 684:Generated_Source\PSoC5/UART_ACS.c ****                                                             
 685:Generated_Source\PSoC5/UART_ACS.c ****     {
 784              		.loc 1 685 0
 785              		.cfi_startproc
 786              		@ args = 0, pretend = 0, frame = 8
 787              		@ frame_needed = 1, uses_anonymous_args = 0
 788              		@ link register save eliminated.
 789 0000 80B4     		push	{r7}
 790              		.cfi_def_cfa_offset 4
 791              		.cfi_offset 7, -4
 792 0002 83B0     		sub	sp, sp, #12
 793              		.cfi_def_cfa_offset 16
 794 0004 00AF     		add	r7, sp, #0
ARM GAS  C:\Users\ilya\AppData\Local\Temp\cckYQUis.s 			page 27


 795              		.cfi_def_cfa_register 7
 686:Generated_Source\PSoC5/UART_ACS.c ****         uint16 size;
 687:Generated_Source\PSoC5/UART_ACS.c **** 
 688:Generated_Source\PSoC5/UART_ACS.c ****     #if (UART_ACS_RX_INTERRUPT_ENABLED)
 689:Generated_Source\PSoC5/UART_ACS.c **** 
 690:Generated_Source\PSoC5/UART_ACS.c ****         /* Protect variables that could change on interrupt */
 691:Generated_Source\PSoC5/UART_ACS.c ****         UART_ACS_DisableRxInt();
 796              		.loc 1 691 0
 797 0006 1E4B     		ldr	r3, .L58
 798 0008 0422     		movs	r2, #4
 799 000a 1A60     		str	r2, [r3]
 692:Generated_Source\PSoC5/UART_ACS.c **** 
 693:Generated_Source\PSoC5/UART_ACS.c ****         if(UART_ACS_rxBufferRead == UART_ACS_rxBufferWrite)
 800              		.loc 1 693 0
 801 000c 1D4B     		ldr	r3, .L58+4
 802 000e 1B88     		ldrh	r3, [r3]	@ movhi
 803 0010 9AB2     		uxth	r2, r3
 804 0012 1D4B     		ldr	r3, .L58+8
 805 0014 1B88     		ldrh	r3, [r3]	@ movhi
 806 0016 9BB2     		uxth	r3, r3
 807 0018 9A42     		cmp	r2, r3
 808 001a 0BD1     		bne	.L52
 694:Generated_Source\PSoC5/UART_ACS.c ****         {
 695:Generated_Source\PSoC5/UART_ACS.c ****             if(UART_ACS_rxBufferLoopDetect != 0u)
 809              		.loc 1 695 0
 810 001c 1B4B     		ldr	r3, .L58+12
 811 001e 1B78     		ldrb	r3, [r3]
 812 0020 DBB2     		uxtb	r3, r3
 813 0022 002B     		cmp	r3, #0
 814 0024 03D0     		beq	.L53
 696:Generated_Source\PSoC5/UART_ACS.c ****             {
 697:Generated_Source\PSoC5/UART_ACS.c ****                 size = UART_ACS_RX_BUFFER_SIZE;
 815              		.loc 1 697 0
 816 0026 4FF48073 		mov	r3, #256
 817 002a FB80     		strh	r3, [r7, #6]	@ movhi
 818 002c 1EE0     		b	.L55
 819              	.L53:
 698:Generated_Source\PSoC5/UART_ACS.c ****             }
 699:Generated_Source\PSoC5/UART_ACS.c ****             else
 700:Generated_Source\PSoC5/UART_ACS.c ****             {
 701:Generated_Source\PSoC5/UART_ACS.c ****                 size = 0u;
 820              		.loc 1 701 0
 821 002e 0023     		movs	r3, #0
 822 0030 FB80     		strh	r3, [r7, #6]	@ movhi
 823 0032 1BE0     		b	.L55
 824              	.L52:
 702:Generated_Source\PSoC5/UART_ACS.c ****             }
 703:Generated_Source\PSoC5/UART_ACS.c ****         }
 704:Generated_Source\PSoC5/UART_ACS.c ****         else if(UART_ACS_rxBufferRead < UART_ACS_rxBufferWrite)
 825              		.loc 1 704 0
 826 0034 134B     		ldr	r3, .L58+4
 827 0036 1B88     		ldrh	r3, [r3]	@ movhi
 828 0038 9AB2     		uxth	r2, r3
 829 003a 134B     		ldr	r3, .L58+8
 830 003c 1B88     		ldrh	r3, [r3]	@ movhi
 831 003e 9BB2     		uxth	r3, r3
 832 0040 9A42     		cmp	r2, r3
ARM GAS  C:\Users\ilya\AppData\Local\Temp\cckYQUis.s 			page 28


 833 0042 08D2     		bcs	.L56
 705:Generated_Source\PSoC5/UART_ACS.c ****         {
 706:Generated_Source\PSoC5/UART_ACS.c ****             size = (UART_ACS_rxBufferWrite - UART_ACS_rxBufferRead);
 834              		.loc 1 706 0
 835 0044 104B     		ldr	r3, .L58+8
 836 0046 1B88     		ldrh	r3, [r3]	@ movhi
 837 0048 9AB2     		uxth	r2, r3
 838 004a 0E4B     		ldr	r3, .L58+4
 839 004c 1B88     		ldrh	r3, [r3]	@ movhi
 840 004e 9BB2     		uxth	r3, r3
 841 0050 D31A     		subs	r3, r2, r3
 842 0052 FB80     		strh	r3, [r7, #6]	@ movhi
 843 0054 0AE0     		b	.L55
 844              	.L56:
 707:Generated_Source\PSoC5/UART_ACS.c ****         }
 708:Generated_Source\PSoC5/UART_ACS.c ****         else
 709:Generated_Source\PSoC5/UART_ACS.c ****         {
 710:Generated_Source\PSoC5/UART_ACS.c ****             size = (UART_ACS_RX_BUFFER_SIZE - UART_ACS_rxBufferRead) + UART_ACS_rxBufferWrite;
 845              		.loc 1 710 0
 846 0056 0C4B     		ldr	r3, .L58+8
 847 0058 1B88     		ldrh	r3, [r3]	@ movhi
 848 005a 9AB2     		uxth	r2, r3
 849 005c 094B     		ldr	r3, .L58+4
 850 005e 1B88     		ldrh	r3, [r3]	@ movhi
 851 0060 9BB2     		uxth	r3, r3
 852 0062 D31A     		subs	r3, r2, r3
 853 0064 9BB2     		uxth	r3, r3
 854 0066 03F58073 		add	r3, r3, #256
 855 006a FB80     		strh	r3, [r7, #6]	@ movhi
 856              	.L55:
 711:Generated_Source\PSoC5/UART_ACS.c ****         }
 712:Generated_Source\PSoC5/UART_ACS.c **** 
 713:Generated_Source\PSoC5/UART_ACS.c ****         UART_ACS_EnableRxInt();
 857              		.loc 1 713 0
 858 006c 084B     		ldr	r3, .L58+16
 859 006e 0422     		movs	r2, #4
 860 0070 1A60     		str	r2, [r3]
 714:Generated_Source\PSoC5/UART_ACS.c **** 
 715:Generated_Source\PSoC5/UART_ACS.c ****     #else
 716:Generated_Source\PSoC5/UART_ACS.c **** 
 717:Generated_Source\PSoC5/UART_ACS.c ****         /* We can only know if there is data in the fifo. */
 718:Generated_Source\PSoC5/UART_ACS.c ****         size = ((UART_ACS_RXSTATUS_REG & UART_ACS_RX_STS_FIFO_NOTEMPTY) != 0u) ? 1u : 0u;
 719:Generated_Source\PSoC5/UART_ACS.c **** 
 720:Generated_Source\PSoC5/UART_ACS.c ****     #endif /* (UART_ACS_RX_INTERRUPT_ENABLED) */
 721:Generated_Source\PSoC5/UART_ACS.c **** 
 722:Generated_Source\PSoC5/UART_ACS.c ****         return(size);
 861              		.loc 1 722 0
 862 0072 FB88     		ldrh	r3, [r7, #6]
 723:Generated_Source\PSoC5/UART_ACS.c ****     }
 863              		.loc 1 723 0
 864 0074 1846     		mov	r0, r3
 865 0076 0C37     		adds	r7, r7, #12
 866              		.cfi_def_cfa_offset 4
 867 0078 BD46     		mov	sp, r7
 868              		.cfi_def_cfa_register 13
 869              		@ sp needed
 870 007a 80BC     		pop	{r7}
ARM GAS  C:\Users\ilya\AppData\Local\Temp\cckYQUis.s 			page 29


 871              		.cfi_restore 7
 872              		.cfi_def_cfa_offset 0
 873 007c 7047     		bx	lr
 874              	.L59:
 875 007e 00BF     		.align	2
 876              	.L58:
 877 0080 80E100E0 		.word	-536813184
 878 0084 00000000 		.word	UART_ACS_rxBufferRead
 879 0088 00000000 		.word	UART_ACS_rxBufferWrite
 880 008c 00000000 		.word	UART_ACS_rxBufferLoopDetect
 881 0090 00E100E0 		.word	-536813312
 882              		.cfi_endproc
 883              	.LFE11:
 884              		.size	UART_ACS_GetRxBufferSize, .-UART_ACS_GetRxBufferSize
 885              		.section	.text.UART_ACS_ClearRxBuffer,"ax",%progbits
 886              		.align	2
 887              		.global	UART_ACS_ClearRxBuffer
 888              		.thumb
 889              		.thumb_func
 890              		.type	UART_ACS_ClearRxBuffer, %function
 891              	UART_ACS_ClearRxBuffer:
 892              	.LFB12:
 724:Generated_Source\PSoC5/UART_ACS.c **** 
 725:Generated_Source\PSoC5/UART_ACS.c **** 
 726:Generated_Source\PSoC5/UART_ACS.c ****     /*******************************************************************************
 727:Generated_Source\PSoC5/UART_ACS.c ****     * Function Name: UART_ACS_ClearRxBuffer
 728:Generated_Source\PSoC5/UART_ACS.c ****     ********************************************************************************
 729:Generated_Source\PSoC5/UART_ACS.c ****     *
 730:Generated_Source\PSoC5/UART_ACS.c ****     * Summary:
 731:Generated_Source\PSoC5/UART_ACS.c ****     *  Clears the receiver memory buffer and hardware RX FIFO of all received data.
 732:Generated_Source\PSoC5/UART_ACS.c ****     *
 733:Generated_Source\PSoC5/UART_ACS.c ****     * Parameters:
 734:Generated_Source\PSoC5/UART_ACS.c ****     *  None.
 735:Generated_Source\PSoC5/UART_ACS.c ****     *
 736:Generated_Source\PSoC5/UART_ACS.c ****     * Return:
 737:Generated_Source\PSoC5/UART_ACS.c ****     *  None.
 738:Generated_Source\PSoC5/UART_ACS.c ****     *
 739:Generated_Source\PSoC5/UART_ACS.c ****     * Global Variables:
 740:Generated_Source\PSoC5/UART_ACS.c ****     *  UART_ACS_rxBufferWrite - cleared to zero.
 741:Generated_Source\PSoC5/UART_ACS.c ****     *  UART_ACS_rxBufferRead - cleared to zero.
 742:Generated_Source\PSoC5/UART_ACS.c ****     *  UART_ACS_rxBufferLoopDetect - cleared to zero.
 743:Generated_Source\PSoC5/UART_ACS.c ****     *  UART_ACS_rxBufferOverflow - cleared to zero.
 744:Generated_Source\PSoC5/UART_ACS.c ****     *
 745:Generated_Source\PSoC5/UART_ACS.c ****     * Reentrant:
 746:Generated_Source\PSoC5/UART_ACS.c ****     *  No.
 747:Generated_Source\PSoC5/UART_ACS.c ****     *
 748:Generated_Source\PSoC5/UART_ACS.c ****     * Theory:
 749:Generated_Source\PSoC5/UART_ACS.c ****     *  Setting the pointers to zero makes the system believe there is no data to
 750:Generated_Source\PSoC5/UART_ACS.c ****     *  read and writing will resume at address 0 overwriting any data that may
 751:Generated_Source\PSoC5/UART_ACS.c ****     *  have remained in the RAM.
 752:Generated_Source\PSoC5/UART_ACS.c ****     *
 753:Generated_Source\PSoC5/UART_ACS.c ****     * Side Effects:
 754:Generated_Source\PSoC5/UART_ACS.c ****     *  Any received data not read from the RAM or FIFO buffer will be lost.
 755:Generated_Source\PSoC5/UART_ACS.c ****     *
 756:Generated_Source\PSoC5/UART_ACS.c ****     *******************************************************************************/
 757:Generated_Source\PSoC5/UART_ACS.c ****     void UART_ACS_ClearRxBuffer(void) 
 758:Generated_Source\PSoC5/UART_ACS.c ****     {
ARM GAS  C:\Users\ilya\AppData\Local\Temp\cckYQUis.s 			page 30


 893              		.loc 1 758 0
 894              		.cfi_startproc
 895              		@ args = 0, pretend = 0, frame = 8
 896              		@ frame_needed = 1, uses_anonymous_args = 0
 897 0000 80B5     		push	{r7, lr}
 898              		.cfi_def_cfa_offset 8
 899              		.cfi_offset 7, -8
 900              		.cfi_offset 14, -4
 901 0002 82B0     		sub	sp, sp, #8
 902              		.cfi_def_cfa_offset 16
 903 0004 00AF     		add	r7, sp, #0
 904              		.cfi_def_cfa_register 7
 759:Generated_Source\PSoC5/UART_ACS.c ****         uint8 enableInterrupts;
 760:Generated_Source\PSoC5/UART_ACS.c **** 
 761:Generated_Source\PSoC5/UART_ACS.c ****         /* Clear the HW FIFO */
 762:Generated_Source\PSoC5/UART_ACS.c ****         enableInterrupts = CyEnterCriticalSection();
 905              		.loc 1 762 0
 906 0006 FFF7FEFF 		bl	CyEnterCriticalSection
 907 000a 0346     		mov	r3, r0
 908 000c FB71     		strb	r3, [r7, #7]
 763:Generated_Source\PSoC5/UART_ACS.c ****         UART_ACS_RXDATA_AUX_CTL_REG |= (uint8)  UART_ACS_RX_FIFO_CLR;
 909              		.loc 1 763 0
 910 000e 154A     		ldr	r2, .L61
 911 0010 144B     		ldr	r3, .L61
 912 0012 1B78     		ldrb	r3, [r3]
 913 0014 DBB2     		uxtb	r3, r3
 914 0016 43F00103 		orr	r3, r3, #1
 915 001a DBB2     		uxtb	r3, r3
 916 001c 1370     		strb	r3, [r2]
 764:Generated_Source\PSoC5/UART_ACS.c ****         UART_ACS_RXDATA_AUX_CTL_REG &= (uint8) ~UART_ACS_RX_FIFO_CLR;
 917              		.loc 1 764 0
 918 001e 114A     		ldr	r2, .L61
 919 0020 104B     		ldr	r3, .L61
 920 0022 1B78     		ldrb	r3, [r3]
 921 0024 DBB2     		uxtb	r3, r3
 922 0026 23F00103 		bic	r3, r3, #1
 923 002a DBB2     		uxtb	r3, r3
 924 002c 1370     		strb	r3, [r2]
 765:Generated_Source\PSoC5/UART_ACS.c ****         CyExitCriticalSection(enableInterrupts);
 925              		.loc 1 765 0
 926 002e FB79     		ldrb	r3, [r7, #7]	@ zero_extendqisi2
 927 0030 1846     		mov	r0, r3
 928 0032 FFF7FEFF 		bl	CyExitCriticalSection
 766:Generated_Source\PSoC5/UART_ACS.c **** 
 767:Generated_Source\PSoC5/UART_ACS.c ****     #if (UART_ACS_RX_INTERRUPT_ENABLED)
 768:Generated_Source\PSoC5/UART_ACS.c **** 
 769:Generated_Source\PSoC5/UART_ACS.c ****         /* Protect variables that could change on interrupt. */
 770:Generated_Source\PSoC5/UART_ACS.c ****         UART_ACS_DisableRxInt();
 929              		.loc 1 770 0
 930 0036 0C4B     		ldr	r3, .L61+4
 931 0038 0422     		movs	r2, #4
 932 003a 1A60     		str	r2, [r3]
 771:Generated_Source\PSoC5/UART_ACS.c **** 
 772:Generated_Source\PSoC5/UART_ACS.c ****         UART_ACS_rxBufferRead = 0u;
 933              		.loc 1 772 0
 934 003c 0B4B     		ldr	r3, .L61+8
 935 003e 0022     		movs	r2, #0
ARM GAS  C:\Users\ilya\AppData\Local\Temp\cckYQUis.s 			page 31


 936 0040 1A80     		strh	r2, [r3]	@ movhi
 773:Generated_Source\PSoC5/UART_ACS.c ****         UART_ACS_rxBufferWrite = 0u;
 937              		.loc 1 773 0
 938 0042 0B4B     		ldr	r3, .L61+12
 939 0044 0022     		movs	r2, #0
 940 0046 1A80     		strh	r2, [r3]	@ movhi
 774:Generated_Source\PSoC5/UART_ACS.c ****         UART_ACS_rxBufferLoopDetect = 0u;
 941              		.loc 1 774 0
 942 0048 0A4B     		ldr	r3, .L61+16
 943 004a 0022     		movs	r2, #0
 944 004c 1A70     		strb	r2, [r3]
 775:Generated_Source\PSoC5/UART_ACS.c ****         UART_ACS_rxBufferOverflow = 0u;
 945              		.loc 1 775 0
 946 004e 0A4B     		ldr	r3, .L61+20
 947 0050 0022     		movs	r2, #0
 948 0052 1A70     		strb	r2, [r3]
 776:Generated_Source\PSoC5/UART_ACS.c **** 
 777:Generated_Source\PSoC5/UART_ACS.c ****         UART_ACS_EnableRxInt();
 949              		.loc 1 777 0
 950 0054 094B     		ldr	r3, .L61+24
 951 0056 0422     		movs	r2, #4
 952 0058 1A60     		str	r2, [r3]
 778:Generated_Source\PSoC5/UART_ACS.c **** 
 779:Generated_Source\PSoC5/UART_ACS.c ****     #endif /* (UART_ACS_RX_INTERRUPT_ENABLED) */
 780:Generated_Source\PSoC5/UART_ACS.c **** 
 781:Generated_Source\PSoC5/UART_ACS.c ****     }
 953              		.loc 1 781 0
 954 005a 00BF     		nop
 955 005c 0837     		adds	r7, r7, #8
 956              		.cfi_def_cfa_offset 8
 957 005e BD46     		mov	sp, r7
 958              		.cfi_def_cfa_register 13
 959              		@ sp needed
 960 0060 80BD     		pop	{r7, pc}
 961              	.L62:
 962 0062 00BF     		.align	2
 963              	.L61:
 964 0064 96640040 		.word	1073767574
 965 0068 80E100E0 		.word	-536813184
 966 006c 00000000 		.word	UART_ACS_rxBufferRead
 967 0070 00000000 		.word	UART_ACS_rxBufferWrite
 968 0074 00000000 		.word	UART_ACS_rxBufferLoopDetect
 969 0078 00000000 		.word	UART_ACS_rxBufferOverflow
 970 007c 00E100E0 		.word	-536813312
 971              		.cfi_endproc
 972              	.LFE12:
 973              		.size	UART_ACS_ClearRxBuffer, .-UART_ACS_ClearRxBuffer
 974              		.section	.text.UART_ACS_SetRxAddressMode,"ax",%progbits
 975              		.align	2
 976              		.global	UART_ACS_SetRxAddressMode
 977              		.thumb
 978              		.thumb_func
 979              		.type	UART_ACS_SetRxAddressMode, %function
 980              	UART_ACS_SetRxAddressMode:
 981              	.LFB13:
 782:Generated_Source\PSoC5/UART_ACS.c **** 
 783:Generated_Source\PSoC5/UART_ACS.c **** 
ARM GAS  C:\Users\ilya\AppData\Local\Temp\cckYQUis.s 			page 32


 784:Generated_Source\PSoC5/UART_ACS.c ****     /*******************************************************************************
 785:Generated_Source\PSoC5/UART_ACS.c ****     * Function Name: UART_ACS_SetRxAddressMode
 786:Generated_Source\PSoC5/UART_ACS.c ****     ********************************************************************************
 787:Generated_Source\PSoC5/UART_ACS.c ****     *
 788:Generated_Source\PSoC5/UART_ACS.c ****     * Summary:
 789:Generated_Source\PSoC5/UART_ACS.c ****     *  Sets the software controlled Addressing mode used by the RX portion of the
 790:Generated_Source\PSoC5/UART_ACS.c ****     *  UART.
 791:Generated_Source\PSoC5/UART_ACS.c ****     *
 792:Generated_Source\PSoC5/UART_ACS.c ****     * Parameters:
 793:Generated_Source\PSoC5/UART_ACS.c ****     *  addressMode: Enumerated value indicating the mode of RX addressing
 794:Generated_Source\PSoC5/UART_ACS.c ****     *  UART_ACS__B_UART__AM_SW_BYTE_BYTE -  Software Byte-by-Byte address
 795:Generated_Source\PSoC5/UART_ACS.c ****     *                                               detection
 796:Generated_Source\PSoC5/UART_ACS.c ****     *  UART_ACS__B_UART__AM_SW_DETECT_TO_BUFFER - Software Detect to Buffer
 797:Generated_Source\PSoC5/UART_ACS.c ****     *                                               address detection
 798:Generated_Source\PSoC5/UART_ACS.c ****     *  UART_ACS__B_UART__AM_HW_BYTE_BY_BYTE - Hardware Byte-by-Byte address
 799:Generated_Source\PSoC5/UART_ACS.c ****     *                                               detection
 800:Generated_Source\PSoC5/UART_ACS.c ****     *  UART_ACS__B_UART__AM_HW_DETECT_TO_BUFFER - Hardware Detect to Buffer
 801:Generated_Source\PSoC5/UART_ACS.c ****     *                                               address detection
 802:Generated_Source\PSoC5/UART_ACS.c ****     *  UART_ACS__B_UART__AM_NONE - No address detection
 803:Generated_Source\PSoC5/UART_ACS.c ****     *
 804:Generated_Source\PSoC5/UART_ACS.c ****     * Return:
 805:Generated_Source\PSoC5/UART_ACS.c ****     *  None.
 806:Generated_Source\PSoC5/UART_ACS.c ****     *
 807:Generated_Source\PSoC5/UART_ACS.c ****     * Global Variables:
 808:Generated_Source\PSoC5/UART_ACS.c ****     *  UART_ACS_rxAddressMode - the parameter stored in this variable for
 809:Generated_Source\PSoC5/UART_ACS.c ****     *   the farther usage in RX ISR.
 810:Generated_Source\PSoC5/UART_ACS.c ****     *  UART_ACS_rxAddressDetected - set to initial state (0).
 811:Generated_Source\PSoC5/UART_ACS.c ****     *
 812:Generated_Source\PSoC5/UART_ACS.c ****     *******************************************************************************/
 813:Generated_Source\PSoC5/UART_ACS.c ****     void UART_ACS_SetRxAddressMode(uint8 addressMode)
 814:Generated_Source\PSoC5/UART_ACS.c ****                                                         
 815:Generated_Source\PSoC5/UART_ACS.c ****     {
 982              		.loc 1 815 0
 983              		.cfi_startproc
 984              		@ args = 0, pretend = 0, frame = 8
 985              		@ frame_needed = 1, uses_anonymous_args = 0
 986              		@ link register save eliminated.
 987 0000 80B4     		push	{r7}
 988              		.cfi_def_cfa_offset 4
 989              		.cfi_offset 7, -4
 990 0002 83B0     		sub	sp, sp, #12
 991              		.cfi_def_cfa_offset 16
 992 0004 00AF     		add	r7, sp, #0
 993              		.cfi_def_cfa_register 7
 994 0006 0346     		mov	r3, r0
 995 0008 FB71     		strb	r3, [r7, #7]
 816:Generated_Source\PSoC5/UART_ACS.c ****         #if(UART_ACS_RXHW_ADDRESS_ENABLED)
 817:Generated_Source\PSoC5/UART_ACS.c ****             #if(UART_ACS_CONTROL_REG_REMOVED)
 818:Generated_Source\PSoC5/UART_ACS.c ****                 if(0u != addressMode)
 819:Generated_Source\PSoC5/UART_ACS.c ****                 {
 820:Generated_Source\PSoC5/UART_ACS.c ****                     /* Suppress compiler warning */
 821:Generated_Source\PSoC5/UART_ACS.c ****                 }
 822:Generated_Source\PSoC5/UART_ACS.c ****             #else /* UART_ACS_CONTROL_REG_REMOVED */
 823:Generated_Source\PSoC5/UART_ACS.c ****                 uint8 tmpCtrl;
 824:Generated_Source\PSoC5/UART_ACS.c ****                 tmpCtrl = UART_ACS_CONTROL_REG & (uint8)~UART_ACS_CTRL_RXADDR_MODE_MASK;
 825:Generated_Source\PSoC5/UART_ACS.c ****                 tmpCtrl |= (uint8)(addressMode << UART_ACS_CTRL_RXADDR_MODE0_SHIFT);
 826:Generated_Source\PSoC5/UART_ACS.c ****                 UART_ACS_CONTROL_REG = tmpCtrl;
ARM GAS  C:\Users\ilya\AppData\Local\Temp\cckYQUis.s 			page 33


 827:Generated_Source\PSoC5/UART_ACS.c **** 
 828:Generated_Source\PSoC5/UART_ACS.c ****                 #if(UART_ACS_RX_INTERRUPT_ENABLED && \
 829:Generated_Source\PSoC5/UART_ACS.c ****                    (UART_ACS_RXBUFFERSIZE > UART_ACS_FIFO_LENGTH) )
 830:Generated_Source\PSoC5/UART_ACS.c ****                     UART_ACS_rxAddressMode = addressMode;
 831:Generated_Source\PSoC5/UART_ACS.c ****                     UART_ACS_rxAddressDetected = 0u;
 832:Generated_Source\PSoC5/UART_ACS.c ****                 #endif /* End UART_ACS_RXBUFFERSIZE > UART_ACS_FIFO_LENGTH*/
 833:Generated_Source\PSoC5/UART_ACS.c ****             #endif /* End UART_ACS_CONTROL_REG_REMOVED */
 834:Generated_Source\PSoC5/UART_ACS.c ****         #else /* UART_ACS_RXHW_ADDRESS_ENABLED */
 835:Generated_Source\PSoC5/UART_ACS.c ****             if(0u != addressMode)
 836:Generated_Source\PSoC5/UART_ACS.c ****             {
 837:Generated_Source\PSoC5/UART_ACS.c ****                 /* Suppress compiler warning */
 838:Generated_Source\PSoC5/UART_ACS.c ****             }
 839:Generated_Source\PSoC5/UART_ACS.c ****         #endif /* End UART_ACS_RXHW_ADDRESS_ENABLED */
 840:Generated_Source\PSoC5/UART_ACS.c ****     }
 996              		.loc 1 840 0
 997 000a 00BF     		nop
 998 000c 0C37     		adds	r7, r7, #12
 999              		.cfi_def_cfa_offset 4
 1000 000e BD46     		mov	sp, r7
 1001              		.cfi_def_cfa_register 13
 1002              		@ sp needed
 1003 0010 80BC     		pop	{r7}
 1004              		.cfi_restore 7
 1005              		.cfi_def_cfa_offset 0
 1006 0012 7047     		bx	lr
 1007              		.cfi_endproc
 1008              	.LFE13:
 1009              		.size	UART_ACS_SetRxAddressMode, .-UART_ACS_SetRxAddressMode
 1010              		.section	.text.UART_ACS_SetRxAddress1,"ax",%progbits
 1011              		.align	2
 1012              		.global	UART_ACS_SetRxAddress1
 1013              		.thumb
 1014              		.thumb_func
 1015              		.type	UART_ACS_SetRxAddress1, %function
 1016              	UART_ACS_SetRxAddress1:
 1017              	.LFB14:
 841:Generated_Source\PSoC5/UART_ACS.c **** 
 842:Generated_Source\PSoC5/UART_ACS.c **** 
 843:Generated_Source\PSoC5/UART_ACS.c ****     /*******************************************************************************
 844:Generated_Source\PSoC5/UART_ACS.c ****     * Function Name: UART_ACS_SetRxAddress1
 845:Generated_Source\PSoC5/UART_ACS.c ****     ********************************************************************************
 846:Generated_Source\PSoC5/UART_ACS.c ****     *
 847:Generated_Source\PSoC5/UART_ACS.c ****     * Summary:
 848:Generated_Source\PSoC5/UART_ACS.c ****     *  Sets the first of two hardware-detectable receiver addresses.
 849:Generated_Source\PSoC5/UART_ACS.c ****     *
 850:Generated_Source\PSoC5/UART_ACS.c ****     * Parameters:
 851:Generated_Source\PSoC5/UART_ACS.c ****     *  address: Address #1 for hardware address detection.
 852:Generated_Source\PSoC5/UART_ACS.c ****     *
 853:Generated_Source\PSoC5/UART_ACS.c ****     * Return:
 854:Generated_Source\PSoC5/UART_ACS.c ****     *  None.
 855:Generated_Source\PSoC5/UART_ACS.c ****     *
 856:Generated_Source\PSoC5/UART_ACS.c ****     *******************************************************************************/
 857:Generated_Source\PSoC5/UART_ACS.c ****     void UART_ACS_SetRxAddress1(uint8 address) 
 858:Generated_Source\PSoC5/UART_ACS.c ****     {
 1018              		.loc 1 858 0
 1019              		.cfi_startproc
 1020              		@ args = 0, pretend = 0, frame = 8
ARM GAS  C:\Users\ilya\AppData\Local\Temp\cckYQUis.s 			page 34


 1021              		@ frame_needed = 1, uses_anonymous_args = 0
 1022              		@ link register save eliminated.
 1023 0000 80B4     		push	{r7}
 1024              		.cfi_def_cfa_offset 4
 1025              		.cfi_offset 7, -4
 1026 0002 83B0     		sub	sp, sp, #12
 1027              		.cfi_def_cfa_offset 16
 1028 0004 00AF     		add	r7, sp, #0
 1029              		.cfi_def_cfa_register 7
 1030 0006 0346     		mov	r3, r0
 1031 0008 FB71     		strb	r3, [r7, #7]
 859:Generated_Source\PSoC5/UART_ACS.c ****         UART_ACS_RXADDRESS1_REG = address;
 1032              		.loc 1 859 0
 1033 000a 044A     		ldr	r2, .L65
 1034 000c FB79     		ldrb	r3, [r7, #7]
 1035 000e 1370     		strb	r3, [r2]
 860:Generated_Source\PSoC5/UART_ACS.c ****     }
 1036              		.loc 1 860 0
 1037 0010 00BF     		nop
 1038 0012 0C37     		adds	r7, r7, #12
 1039              		.cfi_def_cfa_offset 4
 1040 0014 BD46     		mov	sp, r7
 1041              		.cfi_def_cfa_register 13
 1042              		@ sp needed
 1043 0016 80BC     		pop	{r7}
 1044              		.cfi_restore 7
 1045              		.cfi_def_cfa_offset 0
 1046 0018 7047     		bx	lr
 1047              	.L66:
 1048 001a 00BF     		.align	2
 1049              	.L65:
 1050 001c 26640040 		.word	1073767462
 1051              		.cfi_endproc
 1052              	.LFE14:
 1053              		.size	UART_ACS_SetRxAddress1, .-UART_ACS_SetRxAddress1
 1054              		.section	.text.UART_ACS_SetRxAddress2,"ax",%progbits
 1055              		.align	2
 1056              		.global	UART_ACS_SetRxAddress2
 1057              		.thumb
 1058              		.thumb_func
 1059              		.type	UART_ACS_SetRxAddress2, %function
 1060              	UART_ACS_SetRxAddress2:
 1061              	.LFB15:
 861:Generated_Source\PSoC5/UART_ACS.c **** 
 862:Generated_Source\PSoC5/UART_ACS.c **** 
 863:Generated_Source\PSoC5/UART_ACS.c ****     /*******************************************************************************
 864:Generated_Source\PSoC5/UART_ACS.c ****     * Function Name: UART_ACS_SetRxAddress2
 865:Generated_Source\PSoC5/UART_ACS.c ****     ********************************************************************************
 866:Generated_Source\PSoC5/UART_ACS.c ****     *
 867:Generated_Source\PSoC5/UART_ACS.c ****     * Summary:
 868:Generated_Source\PSoC5/UART_ACS.c ****     *  Sets the second of two hardware-detectable receiver addresses.
 869:Generated_Source\PSoC5/UART_ACS.c ****     *
 870:Generated_Source\PSoC5/UART_ACS.c ****     * Parameters:
 871:Generated_Source\PSoC5/UART_ACS.c ****     *  address: Address #2 for hardware address detection.
 872:Generated_Source\PSoC5/UART_ACS.c ****     *
 873:Generated_Source\PSoC5/UART_ACS.c ****     * Return:
 874:Generated_Source\PSoC5/UART_ACS.c ****     *  None.
ARM GAS  C:\Users\ilya\AppData\Local\Temp\cckYQUis.s 			page 35


 875:Generated_Source\PSoC5/UART_ACS.c ****     *
 876:Generated_Source\PSoC5/UART_ACS.c ****     *******************************************************************************/
 877:Generated_Source\PSoC5/UART_ACS.c ****     void UART_ACS_SetRxAddress2(uint8 address) 
 878:Generated_Source\PSoC5/UART_ACS.c ****     {
 1062              		.loc 1 878 0
 1063              		.cfi_startproc
 1064              		@ args = 0, pretend = 0, frame = 8
 1065              		@ frame_needed = 1, uses_anonymous_args = 0
 1066              		@ link register save eliminated.
 1067 0000 80B4     		push	{r7}
 1068              		.cfi_def_cfa_offset 4
 1069              		.cfi_offset 7, -4
 1070 0002 83B0     		sub	sp, sp, #12
 1071              		.cfi_def_cfa_offset 16
 1072 0004 00AF     		add	r7, sp, #0
 1073              		.cfi_def_cfa_register 7
 1074 0006 0346     		mov	r3, r0
 1075 0008 FB71     		strb	r3, [r7, #7]
 879:Generated_Source\PSoC5/UART_ACS.c ****         UART_ACS_RXADDRESS2_REG = address;
 1076              		.loc 1 879 0
 1077 000a 044A     		ldr	r2, .L68
 1078 000c FB79     		ldrb	r3, [r7, #7]
 1079 000e 1370     		strb	r3, [r2]
 880:Generated_Source\PSoC5/UART_ACS.c ****     }
 1080              		.loc 1 880 0
 1081 0010 00BF     		nop
 1082 0012 0C37     		adds	r7, r7, #12
 1083              		.cfi_def_cfa_offset 4
 1084 0014 BD46     		mov	sp, r7
 1085              		.cfi_def_cfa_register 13
 1086              		@ sp needed
 1087 0016 80BC     		pop	{r7}
 1088              		.cfi_restore 7
 1089              		.cfi_def_cfa_offset 0
 1090 0018 7047     		bx	lr
 1091              	.L69:
 1092 001a 00BF     		.align	2
 1093              	.L68:
 1094 001c 36640040 		.word	1073767478
 1095              		.cfi_endproc
 1096              	.LFE15:
 1097              		.size	UART_ACS_SetRxAddress2, .-UART_ACS_SetRxAddress2
 1098              		.section	.text.UART_ACS_SetTxInterruptMode,"ax",%progbits
 1099              		.align	2
 1100              		.global	UART_ACS_SetTxInterruptMode
 1101              		.thumb
 1102              		.thumb_func
 1103              		.type	UART_ACS_SetTxInterruptMode, %function
 1104              	UART_ACS_SetTxInterruptMode:
 1105              	.LFB16:
 881:Generated_Source\PSoC5/UART_ACS.c **** 
 882:Generated_Source\PSoC5/UART_ACS.c **** #endif  /* UART_ACS_RX_ENABLED || UART_ACS_HD_ENABLED*/
 883:Generated_Source\PSoC5/UART_ACS.c **** 
 884:Generated_Source\PSoC5/UART_ACS.c **** 
 885:Generated_Source\PSoC5/UART_ACS.c **** #if( (UART_ACS_TX_ENABLED) || (UART_ACS_HD_ENABLED) )
 886:Generated_Source\PSoC5/UART_ACS.c ****     /*******************************************************************************
 887:Generated_Source\PSoC5/UART_ACS.c ****     * Function Name: UART_ACS_SetTxInterruptMode
ARM GAS  C:\Users\ilya\AppData\Local\Temp\cckYQUis.s 			page 36


 888:Generated_Source\PSoC5/UART_ACS.c ****     ********************************************************************************
 889:Generated_Source\PSoC5/UART_ACS.c ****     *
 890:Generated_Source\PSoC5/UART_ACS.c ****     * Summary:
 891:Generated_Source\PSoC5/UART_ACS.c ****     *  Configures the TX interrupt sources to be enabled, but does not enable the
 892:Generated_Source\PSoC5/UART_ACS.c ****     *  interrupt.
 893:Generated_Source\PSoC5/UART_ACS.c ****     *
 894:Generated_Source\PSoC5/UART_ACS.c ****     * Parameters:
 895:Generated_Source\PSoC5/UART_ACS.c ****     *  intSrc: Bit field containing the TX interrupt sources to enable
 896:Generated_Source\PSoC5/UART_ACS.c ****     *   UART_ACS_TX_STS_COMPLETE        Interrupt on TX byte complete
 897:Generated_Source\PSoC5/UART_ACS.c ****     *   UART_ACS_TX_STS_FIFO_EMPTY      Interrupt when TX FIFO is empty
 898:Generated_Source\PSoC5/UART_ACS.c ****     *   UART_ACS_TX_STS_FIFO_FULL       Interrupt when TX FIFO is full
 899:Generated_Source\PSoC5/UART_ACS.c ****     *   UART_ACS_TX_STS_FIFO_NOT_FULL   Interrupt when TX FIFO is not full
 900:Generated_Source\PSoC5/UART_ACS.c ****     *
 901:Generated_Source\PSoC5/UART_ACS.c ****     * Return:
 902:Generated_Source\PSoC5/UART_ACS.c ****     *  None.
 903:Generated_Source\PSoC5/UART_ACS.c ****     *
 904:Generated_Source\PSoC5/UART_ACS.c ****     * Theory:
 905:Generated_Source\PSoC5/UART_ACS.c ****     *  Enables the output of specific status bits to the interrupt controller
 906:Generated_Source\PSoC5/UART_ACS.c ****     *
 907:Generated_Source\PSoC5/UART_ACS.c ****     *******************************************************************************/
 908:Generated_Source\PSoC5/UART_ACS.c ****     void UART_ACS_SetTxInterruptMode(uint8 intSrc) 
 909:Generated_Source\PSoC5/UART_ACS.c ****     {
 1106              		.loc 1 909 0
 1107              		.cfi_startproc
 1108              		@ args = 0, pretend = 0, frame = 8
 1109              		@ frame_needed = 1, uses_anonymous_args = 0
 1110              		@ link register save eliminated.
 1111 0000 80B4     		push	{r7}
 1112              		.cfi_def_cfa_offset 4
 1113              		.cfi_offset 7, -4
 1114 0002 83B0     		sub	sp, sp, #12
 1115              		.cfi_def_cfa_offset 16
 1116 0004 00AF     		add	r7, sp, #0
 1117              		.cfi_def_cfa_register 7
 1118 0006 0346     		mov	r3, r0
 1119 0008 FB71     		strb	r3, [r7, #7]
 910:Generated_Source\PSoC5/UART_ACS.c ****         UART_ACS_TXSTATUS_MASK_REG = intSrc;
 1120              		.loc 1 910 0
 1121 000a 044A     		ldr	r2, .L71
 1122 000c FB79     		ldrb	r3, [r7, #7]
 1123 000e 1370     		strb	r3, [r2]
 911:Generated_Source\PSoC5/UART_ACS.c ****     }
 1124              		.loc 1 911 0
 1125 0010 00BF     		nop
 1126 0012 0C37     		adds	r7, r7, #12
 1127              		.cfi_def_cfa_offset 4
 1128 0014 BD46     		mov	sp, r7
 1129              		.cfi_def_cfa_register 13
 1130              		@ sp needed
 1131 0016 80BC     		pop	{r7}
 1132              		.cfi_restore 7
 1133              		.cfi_def_cfa_offset 0
 1134 0018 7047     		bx	lr
 1135              	.L72:
 1136 001a 00BF     		.align	2
 1137              	.L71:
 1138 001c 86640040 		.word	1073767558
ARM GAS  C:\Users\ilya\AppData\Local\Temp\cckYQUis.s 			page 37


 1139              		.cfi_endproc
 1140              	.LFE16:
 1141              		.size	UART_ACS_SetTxInterruptMode, .-UART_ACS_SetTxInterruptMode
 1142              		.section	.text.UART_ACS_WriteTxData,"ax",%progbits
 1143              		.align	2
 1144              		.global	UART_ACS_WriteTxData
 1145              		.thumb
 1146              		.thumb_func
 1147              		.type	UART_ACS_WriteTxData, %function
 1148              	UART_ACS_WriteTxData:
 1149              	.LFB17:
 912:Generated_Source\PSoC5/UART_ACS.c **** 
 913:Generated_Source\PSoC5/UART_ACS.c **** 
 914:Generated_Source\PSoC5/UART_ACS.c ****     /*******************************************************************************
 915:Generated_Source\PSoC5/UART_ACS.c ****     * Function Name: UART_ACS_WriteTxData
 916:Generated_Source\PSoC5/UART_ACS.c ****     ********************************************************************************
 917:Generated_Source\PSoC5/UART_ACS.c ****     *
 918:Generated_Source\PSoC5/UART_ACS.c ****     * Summary:
 919:Generated_Source\PSoC5/UART_ACS.c ****     *  Places a byte of data into the transmit buffer to be sent when the bus is
 920:Generated_Source\PSoC5/UART_ACS.c ****     *  available without checking the TX status register. You must check status
 921:Generated_Source\PSoC5/UART_ACS.c ****     *  separately.
 922:Generated_Source\PSoC5/UART_ACS.c ****     *
 923:Generated_Source\PSoC5/UART_ACS.c ****     * Parameters:
 924:Generated_Source\PSoC5/UART_ACS.c ****     *  txDataByte: data byte
 925:Generated_Source\PSoC5/UART_ACS.c ****     *
 926:Generated_Source\PSoC5/UART_ACS.c ****     * Return:
 927:Generated_Source\PSoC5/UART_ACS.c ****     * None.
 928:Generated_Source\PSoC5/UART_ACS.c ****     *
 929:Generated_Source\PSoC5/UART_ACS.c ****     * Global Variables:
 930:Generated_Source\PSoC5/UART_ACS.c ****     *  UART_ACS_txBuffer - RAM buffer pointer for save data for transmission
 931:Generated_Source\PSoC5/UART_ACS.c ****     *  UART_ACS_txBufferWrite - cyclic index for write to txBuffer,
 932:Generated_Source\PSoC5/UART_ACS.c ****     *    incremented after each byte saved to buffer.
 933:Generated_Source\PSoC5/UART_ACS.c ****     *  UART_ACS_txBufferRead - cyclic index for read from txBuffer,
 934:Generated_Source\PSoC5/UART_ACS.c ****     *    checked to identify the condition to write to FIFO directly or to TX buffer
 935:Generated_Source\PSoC5/UART_ACS.c ****     *  UART_ACS_initVar - checked to identify that the component has been
 936:Generated_Source\PSoC5/UART_ACS.c ****     *    initialized.
 937:Generated_Source\PSoC5/UART_ACS.c ****     *
 938:Generated_Source\PSoC5/UART_ACS.c ****     * Reentrant:
 939:Generated_Source\PSoC5/UART_ACS.c ****     *  No.
 940:Generated_Source\PSoC5/UART_ACS.c ****     *
 941:Generated_Source\PSoC5/UART_ACS.c ****     *******************************************************************************/
 942:Generated_Source\PSoC5/UART_ACS.c ****     void UART_ACS_WriteTxData(uint8 txDataByte) 
 943:Generated_Source\PSoC5/UART_ACS.c ****     {
 1150              		.loc 1 943 0
 1151              		.cfi_startproc
 1152              		@ args = 0, pretend = 0, frame = 8
 1153              		@ frame_needed = 1, uses_anonymous_args = 0
 1154              		@ link register save eliminated.
 1155 0000 80B4     		push	{r7}
 1156              		.cfi_def_cfa_offset 4
 1157              		.cfi_offset 7, -4
 1158 0002 83B0     		sub	sp, sp, #12
 1159              		.cfi_def_cfa_offset 16
 1160 0004 00AF     		add	r7, sp, #0
 1161              		.cfi_def_cfa_register 7
 1162 0006 0346     		mov	r3, r0
 1163 0008 FB71     		strb	r3, [r7, #7]
ARM GAS  C:\Users\ilya\AppData\Local\Temp\cckYQUis.s 			page 38


 944:Generated_Source\PSoC5/UART_ACS.c ****         /* If not Initialized then skip this function*/
 945:Generated_Source\PSoC5/UART_ACS.c ****         if(UART_ACS_initVar != 0u)
 1164              		.loc 1 945 0
 1165 000a 064B     		ldr	r3, .L76
 1166 000c 1B78     		ldrb	r3, [r3]	@ zero_extendqisi2
 1167 000e 002B     		cmp	r3, #0
 1168 0010 02D0     		beq	.L75
 946:Generated_Source\PSoC5/UART_ACS.c ****         {
 947:Generated_Source\PSoC5/UART_ACS.c ****         #if (UART_ACS_TX_INTERRUPT_ENABLED)
 948:Generated_Source\PSoC5/UART_ACS.c **** 
 949:Generated_Source\PSoC5/UART_ACS.c ****             /* Protect variables that could change on interrupt. */
 950:Generated_Source\PSoC5/UART_ACS.c ****             UART_ACS_DisableTxInt();
 951:Generated_Source\PSoC5/UART_ACS.c **** 
 952:Generated_Source\PSoC5/UART_ACS.c ****             if( (UART_ACS_txBufferRead == UART_ACS_txBufferWrite) &&
 953:Generated_Source\PSoC5/UART_ACS.c ****                 ((UART_ACS_TXSTATUS_REG & UART_ACS_TX_STS_FIFO_FULL) == 0u) )
 954:Generated_Source\PSoC5/UART_ACS.c ****             {
 955:Generated_Source\PSoC5/UART_ACS.c ****                 /* Add directly to the FIFO. */
 956:Generated_Source\PSoC5/UART_ACS.c ****                 UART_ACS_TXDATA_REG = txDataByte;
 957:Generated_Source\PSoC5/UART_ACS.c ****             }
 958:Generated_Source\PSoC5/UART_ACS.c ****             else
 959:Generated_Source\PSoC5/UART_ACS.c ****             {
 960:Generated_Source\PSoC5/UART_ACS.c ****                 if(UART_ACS_txBufferWrite >= UART_ACS_TX_BUFFER_SIZE)
 961:Generated_Source\PSoC5/UART_ACS.c ****                 {
 962:Generated_Source\PSoC5/UART_ACS.c ****                     UART_ACS_txBufferWrite = 0u;
 963:Generated_Source\PSoC5/UART_ACS.c ****                 }
 964:Generated_Source\PSoC5/UART_ACS.c **** 
 965:Generated_Source\PSoC5/UART_ACS.c ****                 UART_ACS_txBuffer[UART_ACS_txBufferWrite] = txDataByte;
 966:Generated_Source\PSoC5/UART_ACS.c **** 
 967:Generated_Source\PSoC5/UART_ACS.c ****                 /* Add to the software buffer. */
 968:Generated_Source\PSoC5/UART_ACS.c ****                 UART_ACS_txBufferWrite++;
 969:Generated_Source\PSoC5/UART_ACS.c ****             }
 970:Generated_Source\PSoC5/UART_ACS.c **** 
 971:Generated_Source\PSoC5/UART_ACS.c ****             UART_ACS_EnableTxInt();
 972:Generated_Source\PSoC5/UART_ACS.c **** 
 973:Generated_Source\PSoC5/UART_ACS.c ****         #else
 974:Generated_Source\PSoC5/UART_ACS.c **** 
 975:Generated_Source\PSoC5/UART_ACS.c ****             /* Add directly to the FIFO. */
 976:Generated_Source\PSoC5/UART_ACS.c ****             UART_ACS_TXDATA_REG = txDataByte;
 1169              		.loc 1 976 0
 1170 0012 054A     		ldr	r2, .L76+4
 1171 0014 FB79     		ldrb	r3, [r7, #7]
 1172 0016 1370     		strb	r3, [r2]
 1173              	.L75:
 977:Generated_Source\PSoC5/UART_ACS.c **** 
 978:Generated_Source\PSoC5/UART_ACS.c ****         #endif /*(UART_ACS_TX_INTERRUPT_ENABLED) */
 979:Generated_Source\PSoC5/UART_ACS.c ****         }
 980:Generated_Source\PSoC5/UART_ACS.c ****     }
 1174              		.loc 1 980 0
 1175 0018 00BF     		nop
 1176 001a 0C37     		adds	r7, r7, #12
 1177              		.cfi_def_cfa_offset 4
 1178 001c BD46     		mov	sp, r7
 1179              		.cfi_def_cfa_register 13
 1180              		@ sp needed
 1181 001e 80BC     		pop	{r7}
 1182              		.cfi_restore 7
 1183              		.cfi_def_cfa_offset 0
ARM GAS  C:\Users\ilya\AppData\Local\Temp\cckYQUis.s 			page 39


 1184 0020 7047     		bx	lr
 1185              	.L77:
 1186 0022 00BF     		.align	2
 1187              	.L76:
 1188 0024 00000000 		.word	UART_ACS_initVar
 1189 0028 56640040 		.word	1073767510
 1190              		.cfi_endproc
 1191              	.LFE17:
 1192              		.size	UART_ACS_WriteTxData, .-UART_ACS_WriteTxData
 1193              		.section	.text.UART_ACS_ReadTxStatus,"ax",%progbits
 1194              		.align	2
 1195              		.global	UART_ACS_ReadTxStatus
 1196              		.thumb
 1197              		.thumb_func
 1198              		.type	UART_ACS_ReadTxStatus, %function
 1199              	UART_ACS_ReadTxStatus:
 1200              	.LFB18:
 981:Generated_Source\PSoC5/UART_ACS.c **** 
 982:Generated_Source\PSoC5/UART_ACS.c **** 
 983:Generated_Source\PSoC5/UART_ACS.c ****     /*******************************************************************************
 984:Generated_Source\PSoC5/UART_ACS.c ****     * Function Name: UART_ACS_ReadTxStatus
 985:Generated_Source\PSoC5/UART_ACS.c ****     ********************************************************************************
 986:Generated_Source\PSoC5/UART_ACS.c ****     *
 987:Generated_Source\PSoC5/UART_ACS.c ****     * Summary:
 988:Generated_Source\PSoC5/UART_ACS.c ****     *  Reads the status register for the TX portion of the UART.
 989:Generated_Source\PSoC5/UART_ACS.c ****     *
 990:Generated_Source\PSoC5/UART_ACS.c ****     * Parameters:
 991:Generated_Source\PSoC5/UART_ACS.c ****     *  None.
 992:Generated_Source\PSoC5/UART_ACS.c ****     *
 993:Generated_Source\PSoC5/UART_ACS.c ****     * Return:
 994:Generated_Source\PSoC5/UART_ACS.c ****     *  Contents of the status register
 995:Generated_Source\PSoC5/UART_ACS.c ****     *
 996:Generated_Source\PSoC5/UART_ACS.c ****     * Theory:
 997:Generated_Source\PSoC5/UART_ACS.c ****     *  This function reads the TX status register, which is cleared on read.
 998:Generated_Source\PSoC5/UART_ACS.c ****     *  It is up to the user to handle all bits in this return value accordingly,
 999:Generated_Source\PSoC5/UART_ACS.c ****     *  even if the bit was not enabled as an interrupt source the event happened
1000:Generated_Source\PSoC5/UART_ACS.c ****     *  and must be handled accordingly.
1001:Generated_Source\PSoC5/UART_ACS.c ****     *
1002:Generated_Source\PSoC5/UART_ACS.c ****     *******************************************************************************/
1003:Generated_Source\PSoC5/UART_ACS.c ****     uint8 UART_ACS_ReadTxStatus(void) 
1004:Generated_Source\PSoC5/UART_ACS.c ****     {
 1201              		.loc 1 1004 0
 1202              		.cfi_startproc
 1203              		@ args = 0, pretend = 0, frame = 0
 1204              		@ frame_needed = 1, uses_anonymous_args = 0
 1205              		@ link register save eliminated.
 1206 0000 80B4     		push	{r7}
 1207              		.cfi_def_cfa_offset 4
 1208              		.cfi_offset 7, -4
 1209 0002 00AF     		add	r7, sp, #0
 1210              		.cfi_def_cfa_register 7
1005:Generated_Source\PSoC5/UART_ACS.c ****         return(UART_ACS_TXSTATUS_REG);
 1211              		.loc 1 1005 0
 1212 0004 034B     		ldr	r3, .L80
 1213 0006 1B78     		ldrb	r3, [r3]
 1214 0008 DBB2     		uxtb	r3, r3
1006:Generated_Source\PSoC5/UART_ACS.c ****     }
ARM GAS  C:\Users\ilya\AppData\Local\Temp\cckYQUis.s 			page 40


 1215              		.loc 1 1006 0
 1216 000a 1846     		mov	r0, r3
 1217 000c BD46     		mov	sp, r7
 1218              		.cfi_def_cfa_register 13
 1219              		@ sp needed
 1220 000e 80BC     		pop	{r7}
 1221              		.cfi_restore 7
 1222              		.cfi_def_cfa_offset 0
 1223 0010 7047     		bx	lr
 1224              	.L81:
 1225 0012 00BF     		.align	2
 1226              	.L80:
 1227 0014 66640040 		.word	1073767526
 1228              		.cfi_endproc
 1229              	.LFE18:
 1230              		.size	UART_ACS_ReadTxStatus, .-UART_ACS_ReadTxStatus
 1231              		.section	.text.UART_ACS_PutChar,"ax",%progbits
 1232              		.align	2
 1233              		.global	UART_ACS_PutChar
 1234              		.thumb
 1235              		.thumb_func
 1236              		.type	UART_ACS_PutChar, %function
 1237              	UART_ACS_PutChar:
 1238              	.LFB19:
1007:Generated_Source\PSoC5/UART_ACS.c **** 
1008:Generated_Source\PSoC5/UART_ACS.c **** 
1009:Generated_Source\PSoC5/UART_ACS.c ****     /*******************************************************************************
1010:Generated_Source\PSoC5/UART_ACS.c ****     * Function Name: UART_ACS_PutChar
1011:Generated_Source\PSoC5/UART_ACS.c ****     ********************************************************************************
1012:Generated_Source\PSoC5/UART_ACS.c ****     *
1013:Generated_Source\PSoC5/UART_ACS.c ****     * Summary:
1014:Generated_Source\PSoC5/UART_ACS.c ****     *  Puts a byte of data into the transmit buffer to be sent when the bus is
1015:Generated_Source\PSoC5/UART_ACS.c ****     *  available. This is a blocking API that waits until the TX buffer has room to
1016:Generated_Source\PSoC5/UART_ACS.c ****     *  hold the data.
1017:Generated_Source\PSoC5/UART_ACS.c ****     *
1018:Generated_Source\PSoC5/UART_ACS.c ****     * Parameters:
1019:Generated_Source\PSoC5/UART_ACS.c ****     *  txDataByte: Byte containing the data to transmit
1020:Generated_Source\PSoC5/UART_ACS.c ****     *
1021:Generated_Source\PSoC5/UART_ACS.c ****     * Return:
1022:Generated_Source\PSoC5/UART_ACS.c ****     *  None.
1023:Generated_Source\PSoC5/UART_ACS.c ****     *
1024:Generated_Source\PSoC5/UART_ACS.c ****     * Global Variables:
1025:Generated_Source\PSoC5/UART_ACS.c ****     *  UART_ACS_txBuffer - RAM buffer pointer for save data for transmission
1026:Generated_Source\PSoC5/UART_ACS.c ****     *  UART_ACS_txBufferWrite - cyclic index for write to txBuffer,
1027:Generated_Source\PSoC5/UART_ACS.c ****     *     checked to identify free space in txBuffer and incremented after each byte
1028:Generated_Source\PSoC5/UART_ACS.c ****     *     saved to buffer.
1029:Generated_Source\PSoC5/UART_ACS.c ****     *  UART_ACS_txBufferRead - cyclic index for read from txBuffer,
1030:Generated_Source\PSoC5/UART_ACS.c ****     *     checked to identify free space in txBuffer.
1031:Generated_Source\PSoC5/UART_ACS.c ****     *  UART_ACS_initVar - checked to identify that the component has been
1032:Generated_Source\PSoC5/UART_ACS.c ****     *     initialized.
1033:Generated_Source\PSoC5/UART_ACS.c ****     *
1034:Generated_Source\PSoC5/UART_ACS.c ****     * Reentrant:
1035:Generated_Source\PSoC5/UART_ACS.c ****     *  No.
1036:Generated_Source\PSoC5/UART_ACS.c ****     *
1037:Generated_Source\PSoC5/UART_ACS.c ****     * Theory:
1038:Generated_Source\PSoC5/UART_ACS.c ****     *  Allows the user to transmit any byte of data in a single transfer
1039:Generated_Source\PSoC5/UART_ACS.c ****     *
ARM GAS  C:\Users\ilya\AppData\Local\Temp\cckYQUis.s 			page 41


1040:Generated_Source\PSoC5/UART_ACS.c ****     *******************************************************************************/
1041:Generated_Source\PSoC5/UART_ACS.c ****     void UART_ACS_PutChar(uint8 txDataByte) 
1042:Generated_Source\PSoC5/UART_ACS.c ****     {
 1239              		.loc 1 1042 0
 1240              		.cfi_startproc
 1241              		@ args = 0, pretend = 0, frame = 8
 1242              		@ frame_needed = 1, uses_anonymous_args = 0
 1243              		@ link register save eliminated.
 1244 0000 80B4     		push	{r7}
 1245              		.cfi_def_cfa_offset 4
 1246              		.cfi_offset 7, -4
 1247 0002 83B0     		sub	sp, sp, #12
 1248              		.cfi_def_cfa_offset 16
 1249 0004 00AF     		add	r7, sp, #0
 1250              		.cfi_def_cfa_register 7
 1251 0006 0346     		mov	r3, r0
 1252 0008 FB71     		strb	r3, [r7, #7]
1043:Generated_Source\PSoC5/UART_ACS.c ****     #if (UART_ACS_TX_INTERRUPT_ENABLED)
1044:Generated_Source\PSoC5/UART_ACS.c ****         /* The temporary output pointer is used since it takes two instructions
1045:Generated_Source\PSoC5/UART_ACS.c ****         *  to increment with a wrap, and we can't risk doing that with the real
1046:Generated_Source\PSoC5/UART_ACS.c ****         *  pointer and getting an interrupt in between instructions.
1047:Generated_Source\PSoC5/UART_ACS.c ****         */
1048:Generated_Source\PSoC5/UART_ACS.c ****         uint8 locTxBufferWrite;
1049:Generated_Source\PSoC5/UART_ACS.c ****         uint8 locTxBufferRead;
1050:Generated_Source\PSoC5/UART_ACS.c **** 
1051:Generated_Source\PSoC5/UART_ACS.c ****         do
1052:Generated_Source\PSoC5/UART_ACS.c ****         { /* Block if software buffer is full, so we don't overwrite. */
1053:Generated_Source\PSoC5/UART_ACS.c **** 
1054:Generated_Source\PSoC5/UART_ACS.c ****         #if ((UART_ACS_TX_BUFFER_SIZE > UART_ACS_MAX_BYTE_VALUE) && (CY_PSOC3))
1055:Generated_Source\PSoC5/UART_ACS.c ****             /* Disable TX interrupt to protect variables from modification */
1056:Generated_Source\PSoC5/UART_ACS.c ****             UART_ACS_DisableTxInt();
1057:Generated_Source\PSoC5/UART_ACS.c ****         #endif /* (UART_ACS_TX_BUFFER_SIZE > UART_ACS_MAX_BYTE_VALUE) && (CY_PSOC3) */
1058:Generated_Source\PSoC5/UART_ACS.c **** 
1059:Generated_Source\PSoC5/UART_ACS.c ****             locTxBufferWrite = UART_ACS_txBufferWrite;
1060:Generated_Source\PSoC5/UART_ACS.c ****             locTxBufferRead  = UART_ACS_txBufferRead;
1061:Generated_Source\PSoC5/UART_ACS.c **** 
1062:Generated_Source\PSoC5/UART_ACS.c ****         #if ((UART_ACS_TX_BUFFER_SIZE > UART_ACS_MAX_BYTE_VALUE) && (CY_PSOC3))
1063:Generated_Source\PSoC5/UART_ACS.c ****             /* Enable interrupt to continue transmission */
1064:Generated_Source\PSoC5/UART_ACS.c ****             UART_ACS_EnableTxInt();
1065:Generated_Source\PSoC5/UART_ACS.c ****         #endif /* (UART_ACS_TX_BUFFER_SIZE > UART_ACS_MAX_BYTE_VALUE) && (CY_PSOC3) */
1066:Generated_Source\PSoC5/UART_ACS.c ****         }
1067:Generated_Source\PSoC5/UART_ACS.c ****         while( (locTxBufferWrite < locTxBufferRead) ? (locTxBufferWrite == (locTxBufferRead - 1u)) 
1068:Generated_Source\PSoC5/UART_ACS.c ****                                 ((locTxBufferWrite - locTxBufferRead) ==
1069:Generated_Source\PSoC5/UART_ACS.c ****                                 (uint8)(UART_ACS_TX_BUFFER_SIZE - 1u)) );
1070:Generated_Source\PSoC5/UART_ACS.c **** 
1071:Generated_Source\PSoC5/UART_ACS.c ****         if( (locTxBufferRead == locTxBufferWrite) &&
1072:Generated_Source\PSoC5/UART_ACS.c ****             ((UART_ACS_TXSTATUS_REG & UART_ACS_TX_STS_FIFO_FULL) == 0u) )
1073:Generated_Source\PSoC5/UART_ACS.c ****         {
1074:Generated_Source\PSoC5/UART_ACS.c ****             /* Add directly to the FIFO */
1075:Generated_Source\PSoC5/UART_ACS.c ****             UART_ACS_TXDATA_REG = txDataByte;
1076:Generated_Source\PSoC5/UART_ACS.c ****         }
1077:Generated_Source\PSoC5/UART_ACS.c ****         else
1078:Generated_Source\PSoC5/UART_ACS.c ****         {
1079:Generated_Source\PSoC5/UART_ACS.c ****             if(locTxBufferWrite >= UART_ACS_TX_BUFFER_SIZE)
1080:Generated_Source\PSoC5/UART_ACS.c ****             {
1081:Generated_Source\PSoC5/UART_ACS.c ****                 locTxBufferWrite = 0u;
1082:Generated_Source\PSoC5/UART_ACS.c ****             }
ARM GAS  C:\Users\ilya\AppData\Local\Temp\cckYQUis.s 			page 42


1083:Generated_Source\PSoC5/UART_ACS.c ****             /* Add to the software buffer. */
1084:Generated_Source\PSoC5/UART_ACS.c ****             UART_ACS_txBuffer[locTxBufferWrite] = txDataByte;
1085:Generated_Source\PSoC5/UART_ACS.c ****             locTxBufferWrite++;
1086:Generated_Source\PSoC5/UART_ACS.c **** 
1087:Generated_Source\PSoC5/UART_ACS.c ****             /* Finally, update the real output pointer */
1088:Generated_Source\PSoC5/UART_ACS.c ****         #if ((UART_ACS_TX_BUFFER_SIZE > UART_ACS_MAX_BYTE_VALUE) && (CY_PSOC3))
1089:Generated_Source\PSoC5/UART_ACS.c ****             UART_ACS_DisableTxInt();
1090:Generated_Source\PSoC5/UART_ACS.c ****         #endif /* (UART_ACS_TX_BUFFER_SIZE > UART_ACS_MAX_BYTE_VALUE) && (CY_PSOC3) */
1091:Generated_Source\PSoC5/UART_ACS.c **** 
1092:Generated_Source\PSoC5/UART_ACS.c ****             UART_ACS_txBufferWrite = locTxBufferWrite;
1093:Generated_Source\PSoC5/UART_ACS.c **** 
1094:Generated_Source\PSoC5/UART_ACS.c ****         #if ((UART_ACS_TX_BUFFER_SIZE > UART_ACS_MAX_BYTE_VALUE) && (CY_PSOC3))
1095:Generated_Source\PSoC5/UART_ACS.c ****             UART_ACS_EnableTxInt();
1096:Generated_Source\PSoC5/UART_ACS.c ****         #endif /* (UART_ACS_TX_BUFFER_SIZE > UART_ACS_MAX_BYTE_VALUE) && (CY_PSOC3) */
1097:Generated_Source\PSoC5/UART_ACS.c **** 
1098:Generated_Source\PSoC5/UART_ACS.c ****             if(0u != (UART_ACS_TXSTATUS_REG & UART_ACS_TX_STS_FIFO_EMPTY))
1099:Generated_Source\PSoC5/UART_ACS.c ****             {
1100:Generated_Source\PSoC5/UART_ACS.c ****                 /* Trigger TX interrupt to send software buffer */
1101:Generated_Source\PSoC5/UART_ACS.c ****                 UART_ACS_SetPendingTxInt();
1102:Generated_Source\PSoC5/UART_ACS.c ****             }
1103:Generated_Source\PSoC5/UART_ACS.c ****         }
1104:Generated_Source\PSoC5/UART_ACS.c **** 
1105:Generated_Source\PSoC5/UART_ACS.c ****     #else
1106:Generated_Source\PSoC5/UART_ACS.c **** 
1107:Generated_Source\PSoC5/UART_ACS.c ****         while((UART_ACS_TXSTATUS_REG & UART_ACS_TX_STS_FIFO_FULL) != 0u)
 1253              		.loc 1 1107 0
 1254 000a 00BF     		nop
 1255              	.L83:
 1256              		.loc 1 1107 0 is_stmt 0 discriminator 1
 1257 000c 074B     		ldr	r3, .L84
 1258 000e 1B78     		ldrb	r3, [r3]
 1259 0010 DBB2     		uxtb	r3, r3
 1260 0012 03F02003 		and	r3, r3, #32
 1261 0016 002B     		cmp	r3, #0
 1262 0018 F8D1     		bne	.L83
1108:Generated_Source\PSoC5/UART_ACS.c ****         {
1109:Generated_Source\PSoC5/UART_ACS.c ****             /* Wait for room in the FIFO */
1110:Generated_Source\PSoC5/UART_ACS.c ****         }
1111:Generated_Source\PSoC5/UART_ACS.c **** 
1112:Generated_Source\PSoC5/UART_ACS.c ****         /* Add directly to the FIFO */
1113:Generated_Source\PSoC5/UART_ACS.c ****         UART_ACS_TXDATA_REG = txDataByte;
 1263              		.loc 1 1113 0 is_stmt 1
 1264 001a 054A     		ldr	r2, .L84+4
 1265 001c FB79     		ldrb	r3, [r7, #7]
 1266 001e 1370     		strb	r3, [r2]
1114:Generated_Source\PSoC5/UART_ACS.c **** 
1115:Generated_Source\PSoC5/UART_ACS.c ****     #endif /* UART_ACS_TX_INTERRUPT_ENABLED */
1116:Generated_Source\PSoC5/UART_ACS.c ****     }
 1267              		.loc 1 1116 0
 1268 0020 00BF     		nop
 1269 0022 0C37     		adds	r7, r7, #12
 1270              		.cfi_def_cfa_offset 4
 1271 0024 BD46     		mov	sp, r7
 1272              		.cfi_def_cfa_register 13
 1273              		@ sp needed
 1274 0026 80BC     		pop	{r7}
 1275              		.cfi_restore 7
ARM GAS  C:\Users\ilya\AppData\Local\Temp\cckYQUis.s 			page 43


 1276              		.cfi_def_cfa_offset 0
 1277 0028 7047     		bx	lr
 1278              	.L85:
 1279 002a 00BF     		.align	2
 1280              	.L84:
 1281 002c 66640040 		.word	1073767526
 1282 0030 56640040 		.word	1073767510
 1283              		.cfi_endproc
 1284              	.LFE19:
 1285              		.size	UART_ACS_PutChar, .-UART_ACS_PutChar
 1286              		.section	.text.UART_ACS_PutString,"ax",%progbits
 1287              		.align	2
 1288              		.global	UART_ACS_PutString
 1289              		.thumb
 1290              		.thumb_func
 1291              		.type	UART_ACS_PutString, %function
 1292              	UART_ACS_PutString:
 1293              	.LFB20:
1117:Generated_Source\PSoC5/UART_ACS.c **** 
1118:Generated_Source\PSoC5/UART_ACS.c **** 
1119:Generated_Source\PSoC5/UART_ACS.c ****     /*******************************************************************************
1120:Generated_Source\PSoC5/UART_ACS.c ****     * Function Name: UART_ACS_PutString
1121:Generated_Source\PSoC5/UART_ACS.c ****     ********************************************************************************
1122:Generated_Source\PSoC5/UART_ACS.c ****     *
1123:Generated_Source\PSoC5/UART_ACS.c ****     * Summary:
1124:Generated_Source\PSoC5/UART_ACS.c ****     *  Sends a NULL terminated string to the TX buffer for transmission.
1125:Generated_Source\PSoC5/UART_ACS.c ****     *
1126:Generated_Source\PSoC5/UART_ACS.c ****     * Parameters:
1127:Generated_Source\PSoC5/UART_ACS.c ****     *  string[]: Pointer to the null terminated string array residing in RAM or ROM
1128:Generated_Source\PSoC5/UART_ACS.c ****     *
1129:Generated_Source\PSoC5/UART_ACS.c ****     * Return:
1130:Generated_Source\PSoC5/UART_ACS.c ****     *  None.
1131:Generated_Source\PSoC5/UART_ACS.c ****     *
1132:Generated_Source\PSoC5/UART_ACS.c ****     * Global Variables:
1133:Generated_Source\PSoC5/UART_ACS.c ****     *  UART_ACS_initVar - checked to identify that the component has been
1134:Generated_Source\PSoC5/UART_ACS.c ****     *     initialized.
1135:Generated_Source\PSoC5/UART_ACS.c ****     *
1136:Generated_Source\PSoC5/UART_ACS.c ****     * Reentrant:
1137:Generated_Source\PSoC5/UART_ACS.c ****     *  No.
1138:Generated_Source\PSoC5/UART_ACS.c ****     *
1139:Generated_Source\PSoC5/UART_ACS.c ****     * Theory:
1140:Generated_Source\PSoC5/UART_ACS.c ****     *  If there is not enough memory in the TX buffer for the entire string, this
1141:Generated_Source\PSoC5/UART_ACS.c ****     *  function blocks until the last character of the string is loaded into the
1142:Generated_Source\PSoC5/UART_ACS.c ****     *  TX buffer.
1143:Generated_Source\PSoC5/UART_ACS.c ****     *
1144:Generated_Source\PSoC5/UART_ACS.c ****     *******************************************************************************/
1145:Generated_Source\PSoC5/UART_ACS.c ****     void UART_ACS_PutString(const char8 string[]) 
1146:Generated_Source\PSoC5/UART_ACS.c ****     {
 1294              		.loc 1 1146 0
 1295              		.cfi_startproc
 1296              		@ args = 0, pretend = 0, frame = 16
 1297              		@ frame_needed = 1, uses_anonymous_args = 0
 1298 0000 80B5     		push	{r7, lr}
 1299              		.cfi_def_cfa_offset 8
 1300              		.cfi_offset 7, -8
 1301              		.cfi_offset 14, -4
 1302 0002 84B0     		sub	sp, sp, #16
ARM GAS  C:\Users\ilya\AppData\Local\Temp\cckYQUis.s 			page 44


 1303              		.cfi_def_cfa_offset 24
 1304 0004 00AF     		add	r7, sp, #0
 1305              		.cfi_def_cfa_register 7
 1306 0006 7860     		str	r0, [r7, #4]
1147:Generated_Source\PSoC5/UART_ACS.c ****         uint16 bufIndex = 0u;
 1307              		.loc 1 1147 0
 1308 0008 0023     		movs	r3, #0
 1309 000a FB81     		strh	r3, [r7, #14]	@ movhi
1148:Generated_Source\PSoC5/UART_ACS.c **** 
1149:Generated_Source\PSoC5/UART_ACS.c ****         /* If not Initialized then skip this function */
1150:Generated_Source\PSoC5/UART_ACS.c ****         if(UART_ACS_initVar != 0u)
 1310              		.loc 1 1150 0
 1311 000c 0C4B     		ldr	r3, .L91
 1312 000e 1B78     		ldrb	r3, [r3]	@ zero_extendqisi2
 1313 0010 002B     		cmp	r3, #0
 1314 0012 10D0     		beq	.L90
1151:Generated_Source\PSoC5/UART_ACS.c ****         {
1152:Generated_Source\PSoC5/UART_ACS.c ****             /* This is a blocking function, it will not exit until all data is sent */
1153:Generated_Source\PSoC5/UART_ACS.c ****             while(string[bufIndex] != (char8) 0)
 1315              		.loc 1 1153 0
 1316 0014 09E0     		b	.L88
 1317              	.L89:
1154:Generated_Source\PSoC5/UART_ACS.c ****             {
1155:Generated_Source\PSoC5/UART_ACS.c ****                 UART_ACS_PutChar((uint8)string[bufIndex]);
 1318              		.loc 1 1155 0
 1319 0016 FB89     		ldrh	r3, [r7, #14]
 1320 0018 7A68     		ldr	r2, [r7, #4]
 1321 001a 1344     		add	r3, r3, r2
 1322 001c 1B78     		ldrb	r3, [r3]	@ zero_extendqisi2
 1323 001e 1846     		mov	r0, r3
 1324 0020 FFF7FEFF 		bl	UART_ACS_PutChar
1156:Generated_Source\PSoC5/UART_ACS.c ****                 bufIndex++;
 1325              		.loc 1 1156 0
 1326 0024 FB89     		ldrh	r3, [r7, #14]
 1327 0026 0133     		adds	r3, r3, #1
 1328 0028 FB81     		strh	r3, [r7, #14]	@ movhi
 1329              	.L88:
1153:Generated_Source\PSoC5/UART_ACS.c ****             {
 1330              		.loc 1 1153 0
 1331 002a FB89     		ldrh	r3, [r7, #14]
 1332 002c 7A68     		ldr	r2, [r7, #4]
 1333 002e 1344     		add	r3, r3, r2
 1334 0030 1B78     		ldrb	r3, [r3]	@ zero_extendqisi2
 1335 0032 002B     		cmp	r3, #0
 1336 0034 EFD1     		bne	.L89
 1337              	.L90:
1157:Generated_Source\PSoC5/UART_ACS.c ****             }
1158:Generated_Source\PSoC5/UART_ACS.c ****         }
1159:Generated_Source\PSoC5/UART_ACS.c ****     }
 1338              		.loc 1 1159 0
 1339 0036 00BF     		nop
 1340 0038 1037     		adds	r7, r7, #16
 1341              		.cfi_def_cfa_offset 8
 1342 003a BD46     		mov	sp, r7
 1343              		.cfi_def_cfa_register 13
 1344              		@ sp needed
 1345 003c 80BD     		pop	{r7, pc}
ARM GAS  C:\Users\ilya\AppData\Local\Temp\cckYQUis.s 			page 45


 1346              	.L92:
 1347 003e 00BF     		.align	2
 1348              	.L91:
 1349 0040 00000000 		.word	UART_ACS_initVar
 1350              		.cfi_endproc
 1351              	.LFE20:
 1352              		.size	UART_ACS_PutString, .-UART_ACS_PutString
 1353              		.section	.text.UART_ACS_PutArray,"ax",%progbits
 1354              		.align	2
 1355              		.global	UART_ACS_PutArray
 1356              		.thumb
 1357              		.thumb_func
 1358              		.type	UART_ACS_PutArray, %function
 1359              	UART_ACS_PutArray:
 1360              	.LFB21:
1160:Generated_Source\PSoC5/UART_ACS.c **** 
1161:Generated_Source\PSoC5/UART_ACS.c **** 
1162:Generated_Source\PSoC5/UART_ACS.c ****     /*******************************************************************************
1163:Generated_Source\PSoC5/UART_ACS.c ****     * Function Name: UART_ACS_PutArray
1164:Generated_Source\PSoC5/UART_ACS.c ****     ********************************************************************************
1165:Generated_Source\PSoC5/UART_ACS.c ****     *
1166:Generated_Source\PSoC5/UART_ACS.c ****     * Summary:
1167:Generated_Source\PSoC5/UART_ACS.c ****     *  Places N bytes of data from a memory array into the TX buffer for
1168:Generated_Source\PSoC5/UART_ACS.c ****     *  transmission.
1169:Generated_Source\PSoC5/UART_ACS.c ****     *
1170:Generated_Source\PSoC5/UART_ACS.c ****     * Parameters:
1171:Generated_Source\PSoC5/UART_ACS.c ****     *  string[]: Address of the memory array residing in RAM or ROM.
1172:Generated_Source\PSoC5/UART_ACS.c ****     *  byteCount: Number of bytes to be transmitted. The type depends on TX Buffer
1173:Generated_Source\PSoC5/UART_ACS.c ****     *             Size parameter.
1174:Generated_Source\PSoC5/UART_ACS.c ****     *
1175:Generated_Source\PSoC5/UART_ACS.c ****     * Return:
1176:Generated_Source\PSoC5/UART_ACS.c ****     *  None.
1177:Generated_Source\PSoC5/UART_ACS.c ****     *
1178:Generated_Source\PSoC5/UART_ACS.c ****     * Global Variables:
1179:Generated_Source\PSoC5/UART_ACS.c ****     *  UART_ACS_initVar - checked to identify that the component has been
1180:Generated_Source\PSoC5/UART_ACS.c ****     *     initialized.
1181:Generated_Source\PSoC5/UART_ACS.c ****     *
1182:Generated_Source\PSoC5/UART_ACS.c ****     * Reentrant:
1183:Generated_Source\PSoC5/UART_ACS.c ****     *  No.
1184:Generated_Source\PSoC5/UART_ACS.c ****     *
1185:Generated_Source\PSoC5/UART_ACS.c ****     * Theory:
1186:Generated_Source\PSoC5/UART_ACS.c ****     *  If there is not enough memory in the TX buffer for the entire string, this
1187:Generated_Source\PSoC5/UART_ACS.c ****     *  function blocks until the last character of the string is loaded into the
1188:Generated_Source\PSoC5/UART_ACS.c ****     *  TX buffer.
1189:Generated_Source\PSoC5/UART_ACS.c ****     *
1190:Generated_Source\PSoC5/UART_ACS.c ****     *******************************************************************************/
1191:Generated_Source\PSoC5/UART_ACS.c ****     void UART_ACS_PutArray(const uint8 string[], uint8 byteCount)
1192:Generated_Source\PSoC5/UART_ACS.c ****                                                                     
1193:Generated_Source\PSoC5/UART_ACS.c ****     {
 1361              		.loc 1 1193 0
 1362              		.cfi_startproc
 1363              		@ args = 0, pretend = 0, frame = 16
 1364              		@ frame_needed = 1, uses_anonymous_args = 0
 1365 0000 80B5     		push	{r7, lr}
 1366              		.cfi_def_cfa_offset 8
 1367              		.cfi_offset 7, -8
 1368              		.cfi_offset 14, -4
ARM GAS  C:\Users\ilya\AppData\Local\Temp\cckYQUis.s 			page 46


 1369 0002 84B0     		sub	sp, sp, #16
 1370              		.cfi_def_cfa_offset 24
 1371 0004 00AF     		add	r7, sp, #0
 1372              		.cfi_def_cfa_register 7
 1373 0006 7860     		str	r0, [r7, #4]
 1374 0008 0B46     		mov	r3, r1
 1375 000a FB70     		strb	r3, [r7, #3]
1194:Generated_Source\PSoC5/UART_ACS.c ****         uint8 bufIndex = 0u;
 1376              		.loc 1 1194 0
 1377 000c 0023     		movs	r3, #0
 1378 000e FB73     		strb	r3, [r7, #15]
1195:Generated_Source\PSoC5/UART_ACS.c **** 
1196:Generated_Source\PSoC5/UART_ACS.c ****         /* If not Initialized then skip this function */
1197:Generated_Source\PSoC5/UART_ACS.c ****         if(UART_ACS_initVar != 0u)
 1379              		.loc 1 1197 0
 1380 0010 0B4B     		ldr	r3, .L98
 1381 0012 1B78     		ldrb	r3, [r3]	@ zero_extendqisi2
 1382 0014 002B     		cmp	r3, #0
 1383 0016 0ED0     		beq	.L97
1198:Generated_Source\PSoC5/UART_ACS.c ****         {
1199:Generated_Source\PSoC5/UART_ACS.c ****             while(bufIndex < byteCount)
 1384              		.loc 1 1199 0
 1385 0018 09E0     		b	.L95
 1386              	.L96:
1200:Generated_Source\PSoC5/UART_ACS.c ****             {
1201:Generated_Source\PSoC5/UART_ACS.c ****                 UART_ACS_PutChar(string[bufIndex]);
 1387              		.loc 1 1201 0
 1388 001a FB7B     		ldrb	r3, [r7, #15]	@ zero_extendqisi2
 1389 001c 7A68     		ldr	r2, [r7, #4]
 1390 001e 1344     		add	r3, r3, r2
 1391 0020 1B78     		ldrb	r3, [r3]	@ zero_extendqisi2
 1392 0022 1846     		mov	r0, r3
 1393 0024 FFF7FEFF 		bl	UART_ACS_PutChar
1202:Generated_Source\PSoC5/UART_ACS.c ****                 bufIndex++;
 1394              		.loc 1 1202 0
 1395 0028 FB7B     		ldrb	r3, [r7, #15]	@ zero_extendqisi2
 1396 002a 0133     		adds	r3, r3, #1
 1397 002c FB73     		strb	r3, [r7, #15]
 1398              	.L95:
1199:Generated_Source\PSoC5/UART_ACS.c ****             {
 1399              		.loc 1 1199 0
 1400 002e FA7B     		ldrb	r2, [r7, #15]	@ zero_extendqisi2
 1401 0030 FB78     		ldrb	r3, [r7, #3]	@ zero_extendqisi2
 1402 0032 9A42     		cmp	r2, r3
 1403 0034 F1D3     		bcc	.L96
 1404              	.L97:
1203:Generated_Source\PSoC5/UART_ACS.c ****             }
1204:Generated_Source\PSoC5/UART_ACS.c ****         }
1205:Generated_Source\PSoC5/UART_ACS.c ****     }
 1405              		.loc 1 1205 0
 1406 0036 00BF     		nop
 1407 0038 1037     		adds	r7, r7, #16
 1408              		.cfi_def_cfa_offset 8
 1409 003a BD46     		mov	sp, r7
 1410              		.cfi_def_cfa_register 13
 1411              		@ sp needed
 1412 003c 80BD     		pop	{r7, pc}
ARM GAS  C:\Users\ilya\AppData\Local\Temp\cckYQUis.s 			page 47


 1413              	.L99:
 1414 003e 00BF     		.align	2
 1415              	.L98:
 1416 0040 00000000 		.word	UART_ACS_initVar
 1417              		.cfi_endproc
 1418              	.LFE21:
 1419              		.size	UART_ACS_PutArray, .-UART_ACS_PutArray
 1420              		.section	.text.UART_ACS_PutCRLF,"ax",%progbits
 1421              		.align	2
 1422              		.global	UART_ACS_PutCRLF
 1423              		.thumb
 1424              		.thumb_func
 1425              		.type	UART_ACS_PutCRLF, %function
 1426              	UART_ACS_PutCRLF:
 1427              	.LFB22:
1206:Generated_Source\PSoC5/UART_ACS.c **** 
1207:Generated_Source\PSoC5/UART_ACS.c **** 
1208:Generated_Source\PSoC5/UART_ACS.c ****     /*******************************************************************************
1209:Generated_Source\PSoC5/UART_ACS.c ****     * Function Name: UART_ACS_PutCRLF
1210:Generated_Source\PSoC5/UART_ACS.c ****     ********************************************************************************
1211:Generated_Source\PSoC5/UART_ACS.c ****     *
1212:Generated_Source\PSoC5/UART_ACS.c ****     * Summary:
1213:Generated_Source\PSoC5/UART_ACS.c ****     *  Writes a byte of data followed by a carriage return (0x0D) and line feed
1214:Generated_Source\PSoC5/UART_ACS.c ****     *  (0x0A) to the transmit buffer.
1215:Generated_Source\PSoC5/UART_ACS.c ****     *
1216:Generated_Source\PSoC5/UART_ACS.c ****     * Parameters:
1217:Generated_Source\PSoC5/UART_ACS.c ****     *  txDataByte: Data byte to transmit before the carriage return and line feed.
1218:Generated_Source\PSoC5/UART_ACS.c ****     *
1219:Generated_Source\PSoC5/UART_ACS.c ****     * Return:
1220:Generated_Source\PSoC5/UART_ACS.c ****     *  None.
1221:Generated_Source\PSoC5/UART_ACS.c ****     *
1222:Generated_Source\PSoC5/UART_ACS.c ****     * Global Variables:
1223:Generated_Source\PSoC5/UART_ACS.c ****     *  UART_ACS_initVar - checked to identify that the component has been
1224:Generated_Source\PSoC5/UART_ACS.c ****     *     initialized.
1225:Generated_Source\PSoC5/UART_ACS.c ****     *
1226:Generated_Source\PSoC5/UART_ACS.c ****     * Reentrant:
1227:Generated_Source\PSoC5/UART_ACS.c ****     *  No.
1228:Generated_Source\PSoC5/UART_ACS.c ****     *
1229:Generated_Source\PSoC5/UART_ACS.c ****     *******************************************************************************/
1230:Generated_Source\PSoC5/UART_ACS.c ****     void UART_ACS_PutCRLF(uint8 txDataByte) 
1231:Generated_Source\PSoC5/UART_ACS.c ****     {
 1428              		.loc 1 1231 0
 1429              		.cfi_startproc
 1430              		@ args = 0, pretend = 0, frame = 8
 1431              		@ frame_needed = 1, uses_anonymous_args = 0
 1432 0000 80B5     		push	{r7, lr}
 1433              		.cfi_def_cfa_offset 8
 1434              		.cfi_offset 7, -8
 1435              		.cfi_offset 14, -4
 1436 0002 82B0     		sub	sp, sp, #8
 1437              		.cfi_def_cfa_offset 16
 1438 0004 00AF     		add	r7, sp, #0
 1439              		.cfi_def_cfa_register 7
 1440 0006 0346     		mov	r3, r0
 1441 0008 FB71     		strb	r3, [r7, #7]
1232:Generated_Source\PSoC5/UART_ACS.c ****         /* If not Initialized then skip this function */
1233:Generated_Source\PSoC5/UART_ACS.c ****         if(UART_ACS_initVar != 0u)
ARM GAS  C:\Users\ilya\AppData\Local\Temp\cckYQUis.s 			page 48


 1442              		.loc 1 1233 0
 1443 000a 094B     		ldr	r3, .L103
 1444 000c 1B78     		ldrb	r3, [r3]	@ zero_extendqisi2
 1445 000e 002B     		cmp	r3, #0
 1446 0010 09D0     		beq	.L102
1234:Generated_Source\PSoC5/UART_ACS.c ****         {
1235:Generated_Source\PSoC5/UART_ACS.c ****             UART_ACS_PutChar(txDataByte);
 1447              		.loc 1 1235 0
 1448 0012 FB79     		ldrb	r3, [r7, #7]	@ zero_extendqisi2
 1449 0014 1846     		mov	r0, r3
 1450 0016 FFF7FEFF 		bl	UART_ACS_PutChar
1236:Generated_Source\PSoC5/UART_ACS.c ****             UART_ACS_PutChar(0x0Du);
 1451              		.loc 1 1236 0
 1452 001a 0D20     		movs	r0, #13
 1453 001c FFF7FEFF 		bl	UART_ACS_PutChar
1237:Generated_Source\PSoC5/UART_ACS.c ****             UART_ACS_PutChar(0x0Au);
 1454              		.loc 1 1237 0
 1455 0020 0A20     		movs	r0, #10
 1456 0022 FFF7FEFF 		bl	UART_ACS_PutChar
 1457              	.L102:
1238:Generated_Source\PSoC5/UART_ACS.c ****         }
1239:Generated_Source\PSoC5/UART_ACS.c ****     }
 1458              		.loc 1 1239 0
 1459 0026 00BF     		nop
 1460 0028 0837     		adds	r7, r7, #8
 1461              		.cfi_def_cfa_offset 8
 1462 002a BD46     		mov	sp, r7
 1463              		.cfi_def_cfa_register 13
 1464              		@ sp needed
 1465 002c 80BD     		pop	{r7, pc}
 1466              	.L104:
 1467 002e 00BF     		.align	2
 1468              	.L103:
 1469 0030 00000000 		.word	UART_ACS_initVar
 1470              		.cfi_endproc
 1471              	.LFE22:
 1472              		.size	UART_ACS_PutCRLF, .-UART_ACS_PutCRLF
 1473              		.section	.text.UART_ACS_GetTxBufferSize,"ax",%progbits
 1474              		.align	2
 1475              		.global	UART_ACS_GetTxBufferSize
 1476              		.thumb
 1477              		.thumb_func
 1478              		.type	UART_ACS_GetTxBufferSize, %function
 1479              	UART_ACS_GetTxBufferSize:
 1480              	.LFB23:
1240:Generated_Source\PSoC5/UART_ACS.c **** 
1241:Generated_Source\PSoC5/UART_ACS.c **** 
1242:Generated_Source\PSoC5/UART_ACS.c ****     /*******************************************************************************
1243:Generated_Source\PSoC5/UART_ACS.c ****     * Function Name: UART_ACS_GetTxBufferSize
1244:Generated_Source\PSoC5/UART_ACS.c ****     ********************************************************************************
1245:Generated_Source\PSoC5/UART_ACS.c ****     *
1246:Generated_Source\PSoC5/UART_ACS.c ****     * Summary:
1247:Generated_Source\PSoC5/UART_ACS.c ****     *  Returns the number of bytes in the TX buffer which are waiting to be 
1248:Generated_Source\PSoC5/UART_ACS.c ****     *  transmitted.
1249:Generated_Source\PSoC5/UART_ACS.c ****     *  * TX software buffer is disabled (TX Buffer Size parameter is equal to 4): 
1250:Generated_Source\PSoC5/UART_ACS.c ****     *    returns 0 for empty TX FIFO, 1 for not full TX FIFO or 4 for full TX FIFO.
1251:Generated_Source\PSoC5/UART_ACS.c ****     *  * TX software buffer is enabled: returns the number of bytes in the TX 
ARM GAS  C:\Users\ilya\AppData\Local\Temp\cckYQUis.s 			page 49


1252:Generated_Source\PSoC5/UART_ACS.c ****     *    software buffer which are waiting to be transmitted. Bytes available in the
1253:Generated_Source\PSoC5/UART_ACS.c ****     *    TX FIFO do not count.
1254:Generated_Source\PSoC5/UART_ACS.c ****     *
1255:Generated_Source\PSoC5/UART_ACS.c ****     * Parameters:
1256:Generated_Source\PSoC5/UART_ACS.c ****     *  None.
1257:Generated_Source\PSoC5/UART_ACS.c ****     *
1258:Generated_Source\PSoC5/UART_ACS.c ****     * Return:
1259:Generated_Source\PSoC5/UART_ACS.c ****     *  Number of bytes used in the TX buffer. Return value type depends on the TX 
1260:Generated_Source\PSoC5/UART_ACS.c ****     *  Buffer Size parameter.
1261:Generated_Source\PSoC5/UART_ACS.c ****     *
1262:Generated_Source\PSoC5/UART_ACS.c ****     * Global Variables:
1263:Generated_Source\PSoC5/UART_ACS.c ****     *  UART_ACS_txBufferWrite - used to calculate left space.
1264:Generated_Source\PSoC5/UART_ACS.c ****     *  UART_ACS_txBufferRead - used to calculate left space.
1265:Generated_Source\PSoC5/UART_ACS.c ****     *
1266:Generated_Source\PSoC5/UART_ACS.c ****     * Reentrant:
1267:Generated_Source\PSoC5/UART_ACS.c ****     *  No.
1268:Generated_Source\PSoC5/UART_ACS.c ****     *
1269:Generated_Source\PSoC5/UART_ACS.c ****     * Theory:
1270:Generated_Source\PSoC5/UART_ACS.c ****     *  Allows the user to find out how full the TX Buffer is.
1271:Generated_Source\PSoC5/UART_ACS.c ****     *
1272:Generated_Source\PSoC5/UART_ACS.c ****     *******************************************************************************/
1273:Generated_Source\PSoC5/UART_ACS.c ****     uint8 UART_ACS_GetTxBufferSize(void)
1274:Generated_Source\PSoC5/UART_ACS.c ****                                                             
1275:Generated_Source\PSoC5/UART_ACS.c ****     {
 1481              		.loc 1 1275 0
 1482              		.cfi_startproc
 1483              		@ args = 0, pretend = 0, frame = 8
 1484              		@ frame_needed = 1, uses_anonymous_args = 0
 1485              		@ link register save eliminated.
 1486 0000 80B4     		push	{r7}
 1487              		.cfi_def_cfa_offset 4
 1488              		.cfi_offset 7, -4
 1489 0002 83B0     		sub	sp, sp, #12
 1490              		.cfi_def_cfa_offset 16
 1491 0004 00AF     		add	r7, sp, #0
 1492              		.cfi_def_cfa_register 7
1276:Generated_Source\PSoC5/UART_ACS.c ****         uint8 size;
1277:Generated_Source\PSoC5/UART_ACS.c **** 
1278:Generated_Source\PSoC5/UART_ACS.c ****     #if (UART_ACS_TX_INTERRUPT_ENABLED)
1279:Generated_Source\PSoC5/UART_ACS.c **** 
1280:Generated_Source\PSoC5/UART_ACS.c ****         /* Protect variables that could change on interrupt. */
1281:Generated_Source\PSoC5/UART_ACS.c ****         UART_ACS_DisableTxInt();
1282:Generated_Source\PSoC5/UART_ACS.c **** 
1283:Generated_Source\PSoC5/UART_ACS.c ****         if(UART_ACS_txBufferRead == UART_ACS_txBufferWrite)
1284:Generated_Source\PSoC5/UART_ACS.c ****         {
1285:Generated_Source\PSoC5/UART_ACS.c ****             size = 0u;
1286:Generated_Source\PSoC5/UART_ACS.c ****         }
1287:Generated_Source\PSoC5/UART_ACS.c ****         else if(UART_ACS_txBufferRead < UART_ACS_txBufferWrite)
1288:Generated_Source\PSoC5/UART_ACS.c ****         {
1289:Generated_Source\PSoC5/UART_ACS.c ****             size = (UART_ACS_txBufferWrite - UART_ACS_txBufferRead);
1290:Generated_Source\PSoC5/UART_ACS.c ****         }
1291:Generated_Source\PSoC5/UART_ACS.c ****         else
1292:Generated_Source\PSoC5/UART_ACS.c ****         {
1293:Generated_Source\PSoC5/UART_ACS.c ****             size = (UART_ACS_TX_BUFFER_SIZE - UART_ACS_txBufferRead) +
1294:Generated_Source\PSoC5/UART_ACS.c ****                     UART_ACS_txBufferWrite;
1295:Generated_Source\PSoC5/UART_ACS.c ****         }
1296:Generated_Source\PSoC5/UART_ACS.c **** 
ARM GAS  C:\Users\ilya\AppData\Local\Temp\cckYQUis.s 			page 50


1297:Generated_Source\PSoC5/UART_ACS.c ****         UART_ACS_EnableTxInt();
1298:Generated_Source\PSoC5/UART_ACS.c **** 
1299:Generated_Source\PSoC5/UART_ACS.c ****     #else
1300:Generated_Source\PSoC5/UART_ACS.c **** 
1301:Generated_Source\PSoC5/UART_ACS.c ****         size = UART_ACS_TXSTATUS_REG;
 1493              		.loc 1 1301 0
 1494 0006 0D4B     		ldr	r3, .L110
 1495 0008 1B78     		ldrb	r3, [r3]
 1496 000a FB71     		strb	r3, [r7, #7]
1302:Generated_Source\PSoC5/UART_ACS.c **** 
1303:Generated_Source\PSoC5/UART_ACS.c ****         /* Is the fifo is full. */
1304:Generated_Source\PSoC5/UART_ACS.c ****         if((size & UART_ACS_TX_STS_FIFO_FULL) != 0u)
 1497              		.loc 1 1304 0
 1498 000c FB79     		ldrb	r3, [r7, #7]	@ zero_extendqisi2
 1499 000e 03F02003 		and	r3, r3, #32
 1500 0012 002B     		cmp	r3, #0
 1501 0014 02D0     		beq	.L106
1305:Generated_Source\PSoC5/UART_ACS.c ****         {
1306:Generated_Source\PSoC5/UART_ACS.c ****             size = UART_ACS_FIFO_LENGTH;
 1502              		.loc 1 1306 0
 1503 0016 0423     		movs	r3, #4
 1504 0018 FB71     		strb	r3, [r7, #7]
 1505 001a 09E0     		b	.L107
 1506              	.L106:
1307:Generated_Source\PSoC5/UART_ACS.c ****         }
1308:Generated_Source\PSoC5/UART_ACS.c ****         else if((size & UART_ACS_TX_STS_FIFO_EMPTY) != 0u)
 1507              		.loc 1 1308 0
 1508 001c FB79     		ldrb	r3, [r7, #7]	@ zero_extendqisi2
 1509 001e 03F00203 		and	r3, r3, #2
 1510 0022 002B     		cmp	r3, #0
 1511 0024 02D0     		beq	.L108
1309:Generated_Source\PSoC5/UART_ACS.c ****         {
1310:Generated_Source\PSoC5/UART_ACS.c ****             size = 0u;
 1512              		.loc 1 1310 0
 1513 0026 0023     		movs	r3, #0
 1514 0028 FB71     		strb	r3, [r7, #7]
 1515 002a 01E0     		b	.L107
 1516              	.L108:
1311:Generated_Source\PSoC5/UART_ACS.c ****         }
1312:Generated_Source\PSoC5/UART_ACS.c ****         else
1313:Generated_Source\PSoC5/UART_ACS.c ****         {
1314:Generated_Source\PSoC5/UART_ACS.c ****             /* We only know there is data in the fifo. */
1315:Generated_Source\PSoC5/UART_ACS.c ****             size = 1u;
 1517              		.loc 1 1315 0
 1518 002c 0123     		movs	r3, #1
 1519 002e FB71     		strb	r3, [r7, #7]
 1520              	.L107:
1316:Generated_Source\PSoC5/UART_ACS.c ****         }
1317:Generated_Source\PSoC5/UART_ACS.c **** 
1318:Generated_Source\PSoC5/UART_ACS.c ****     #endif /* (UART_ACS_TX_INTERRUPT_ENABLED) */
1319:Generated_Source\PSoC5/UART_ACS.c **** 
1320:Generated_Source\PSoC5/UART_ACS.c ****     return(size);
 1521              		.loc 1 1320 0
 1522 0030 FB79     		ldrb	r3, [r7, #7]	@ zero_extendqisi2
1321:Generated_Source\PSoC5/UART_ACS.c ****     }
 1523              		.loc 1 1321 0
 1524 0032 1846     		mov	r0, r3
ARM GAS  C:\Users\ilya\AppData\Local\Temp\cckYQUis.s 			page 51


 1525 0034 0C37     		adds	r7, r7, #12
 1526              		.cfi_def_cfa_offset 4
 1527 0036 BD46     		mov	sp, r7
 1528              		.cfi_def_cfa_register 13
 1529              		@ sp needed
 1530 0038 80BC     		pop	{r7}
 1531              		.cfi_restore 7
 1532              		.cfi_def_cfa_offset 0
 1533 003a 7047     		bx	lr
 1534              	.L111:
 1535              		.align	2
 1536              	.L110:
 1537 003c 66640040 		.word	1073767526
 1538              		.cfi_endproc
 1539              	.LFE23:
 1540              		.size	UART_ACS_GetTxBufferSize, .-UART_ACS_GetTxBufferSize
 1541              		.section	.text.UART_ACS_ClearTxBuffer,"ax",%progbits
 1542              		.align	2
 1543              		.global	UART_ACS_ClearTxBuffer
 1544              		.thumb
 1545              		.thumb_func
 1546              		.type	UART_ACS_ClearTxBuffer, %function
 1547              	UART_ACS_ClearTxBuffer:
 1548              	.LFB24:
1322:Generated_Source\PSoC5/UART_ACS.c **** 
1323:Generated_Source\PSoC5/UART_ACS.c **** 
1324:Generated_Source\PSoC5/UART_ACS.c ****     /*******************************************************************************
1325:Generated_Source\PSoC5/UART_ACS.c ****     * Function Name: UART_ACS_ClearTxBuffer
1326:Generated_Source\PSoC5/UART_ACS.c ****     ********************************************************************************
1327:Generated_Source\PSoC5/UART_ACS.c ****     *
1328:Generated_Source\PSoC5/UART_ACS.c ****     * Summary:
1329:Generated_Source\PSoC5/UART_ACS.c ****     *  Clears all data from the TX buffer and hardware TX FIFO.
1330:Generated_Source\PSoC5/UART_ACS.c ****     *
1331:Generated_Source\PSoC5/UART_ACS.c ****     * Parameters:
1332:Generated_Source\PSoC5/UART_ACS.c ****     *  None.
1333:Generated_Source\PSoC5/UART_ACS.c ****     *
1334:Generated_Source\PSoC5/UART_ACS.c ****     * Return:
1335:Generated_Source\PSoC5/UART_ACS.c ****     *  None.
1336:Generated_Source\PSoC5/UART_ACS.c ****     *
1337:Generated_Source\PSoC5/UART_ACS.c ****     * Global Variables:
1338:Generated_Source\PSoC5/UART_ACS.c ****     *  UART_ACS_txBufferWrite - cleared to zero.
1339:Generated_Source\PSoC5/UART_ACS.c ****     *  UART_ACS_txBufferRead - cleared to zero.
1340:Generated_Source\PSoC5/UART_ACS.c ****     *
1341:Generated_Source\PSoC5/UART_ACS.c ****     * Reentrant:
1342:Generated_Source\PSoC5/UART_ACS.c ****     *  No.
1343:Generated_Source\PSoC5/UART_ACS.c ****     *
1344:Generated_Source\PSoC5/UART_ACS.c ****     * Theory:
1345:Generated_Source\PSoC5/UART_ACS.c ****     *  Setting the pointers to zero makes the system believe there is no data to
1346:Generated_Source\PSoC5/UART_ACS.c ****     *  read and writing will resume at address 0 overwriting any data that may have
1347:Generated_Source\PSoC5/UART_ACS.c ****     *  remained in the RAM.
1348:Generated_Source\PSoC5/UART_ACS.c ****     *
1349:Generated_Source\PSoC5/UART_ACS.c ****     * Side Effects:
1350:Generated_Source\PSoC5/UART_ACS.c ****     *  Data waiting in the transmit buffer is not sent; a byte that is currently
1351:Generated_Source\PSoC5/UART_ACS.c ****     *  transmitting finishes transmitting.
1352:Generated_Source\PSoC5/UART_ACS.c ****     *
1353:Generated_Source\PSoC5/UART_ACS.c ****     *******************************************************************************/
1354:Generated_Source\PSoC5/UART_ACS.c ****     void UART_ACS_ClearTxBuffer(void) 
ARM GAS  C:\Users\ilya\AppData\Local\Temp\cckYQUis.s 			page 52


1355:Generated_Source\PSoC5/UART_ACS.c ****     {
 1549              		.loc 1 1355 0
 1550              		.cfi_startproc
 1551              		@ args = 0, pretend = 0, frame = 8
 1552              		@ frame_needed = 1, uses_anonymous_args = 0
 1553 0000 80B5     		push	{r7, lr}
 1554              		.cfi_def_cfa_offset 8
 1555              		.cfi_offset 7, -8
 1556              		.cfi_offset 14, -4
 1557 0002 82B0     		sub	sp, sp, #8
 1558              		.cfi_def_cfa_offset 16
 1559 0004 00AF     		add	r7, sp, #0
 1560              		.cfi_def_cfa_register 7
1356:Generated_Source\PSoC5/UART_ACS.c ****         uint8 enableInterrupts;
1357:Generated_Source\PSoC5/UART_ACS.c **** 
1358:Generated_Source\PSoC5/UART_ACS.c ****         enableInterrupts = CyEnterCriticalSection();
 1561              		.loc 1 1358 0
 1562 0006 FFF7FEFF 		bl	CyEnterCriticalSection
 1563 000a 0346     		mov	r3, r0
 1564 000c FB71     		strb	r3, [r7, #7]
1359:Generated_Source\PSoC5/UART_ACS.c ****         /* Clear the HW FIFO */
1360:Generated_Source\PSoC5/UART_ACS.c ****         UART_ACS_TXDATA_AUX_CTL_REG |= (uint8)  UART_ACS_TX_FIFO_CLR;
 1565              		.loc 1 1360 0
 1566 000e 0C4A     		ldr	r2, .L113
 1567 0010 0B4B     		ldr	r3, .L113
 1568 0012 1B78     		ldrb	r3, [r3]
 1569 0014 DBB2     		uxtb	r3, r3
 1570 0016 43F00203 		orr	r3, r3, #2
 1571 001a DBB2     		uxtb	r3, r3
 1572 001c 1370     		strb	r3, [r2]
1361:Generated_Source\PSoC5/UART_ACS.c ****         UART_ACS_TXDATA_AUX_CTL_REG &= (uint8) ~UART_ACS_TX_FIFO_CLR;
 1573              		.loc 1 1361 0
 1574 001e 084A     		ldr	r2, .L113
 1575 0020 074B     		ldr	r3, .L113
 1576 0022 1B78     		ldrb	r3, [r3]
 1577 0024 DBB2     		uxtb	r3, r3
 1578 0026 23F00203 		bic	r3, r3, #2
 1579 002a DBB2     		uxtb	r3, r3
 1580 002c 1370     		strb	r3, [r2]
1362:Generated_Source\PSoC5/UART_ACS.c ****         CyExitCriticalSection(enableInterrupts);
 1581              		.loc 1 1362 0
 1582 002e FB79     		ldrb	r3, [r7, #7]	@ zero_extendqisi2
 1583 0030 1846     		mov	r0, r3
 1584 0032 FFF7FEFF 		bl	CyExitCriticalSection
1363:Generated_Source\PSoC5/UART_ACS.c **** 
1364:Generated_Source\PSoC5/UART_ACS.c ****     #if (UART_ACS_TX_INTERRUPT_ENABLED)
1365:Generated_Source\PSoC5/UART_ACS.c **** 
1366:Generated_Source\PSoC5/UART_ACS.c ****         /* Protect variables that could change on interrupt. */
1367:Generated_Source\PSoC5/UART_ACS.c ****         UART_ACS_DisableTxInt();
1368:Generated_Source\PSoC5/UART_ACS.c **** 
1369:Generated_Source\PSoC5/UART_ACS.c ****         UART_ACS_txBufferRead = 0u;
1370:Generated_Source\PSoC5/UART_ACS.c ****         UART_ACS_txBufferWrite = 0u;
1371:Generated_Source\PSoC5/UART_ACS.c **** 
1372:Generated_Source\PSoC5/UART_ACS.c ****         /* Enable Tx interrupt. */
1373:Generated_Source\PSoC5/UART_ACS.c ****         UART_ACS_EnableTxInt();
1374:Generated_Source\PSoC5/UART_ACS.c **** 
1375:Generated_Source\PSoC5/UART_ACS.c ****     #endif /* (UART_ACS_TX_INTERRUPT_ENABLED) */
ARM GAS  C:\Users\ilya\AppData\Local\Temp\cckYQUis.s 			page 53


1376:Generated_Source\PSoC5/UART_ACS.c ****     }
 1585              		.loc 1 1376 0
 1586 0036 00BF     		nop
 1587 0038 0837     		adds	r7, r7, #8
 1588              		.cfi_def_cfa_offset 8
 1589 003a BD46     		mov	sp, r7
 1590              		.cfi_def_cfa_register 13
 1591              		@ sp needed
 1592 003c 80BD     		pop	{r7, pc}
 1593              	.L114:
 1594 003e 00BF     		.align	2
 1595              	.L113:
 1596 0040 96640040 		.word	1073767574
 1597              		.cfi_endproc
 1598              	.LFE24:
 1599              		.size	UART_ACS_ClearTxBuffer, .-UART_ACS_ClearTxBuffer
 1600              		.section	.text.UART_ACS_SendBreak,"ax",%progbits
 1601              		.align	2
 1602              		.global	UART_ACS_SendBreak
 1603              		.thumb
 1604              		.thumb_func
 1605              		.type	UART_ACS_SendBreak, %function
 1606              	UART_ACS_SendBreak:
 1607              	.LFB25:
1377:Generated_Source\PSoC5/UART_ACS.c **** 
1378:Generated_Source\PSoC5/UART_ACS.c **** 
1379:Generated_Source\PSoC5/UART_ACS.c ****     /*******************************************************************************
1380:Generated_Source\PSoC5/UART_ACS.c ****     * Function Name: UART_ACS_SendBreak
1381:Generated_Source\PSoC5/UART_ACS.c ****     ********************************************************************************
1382:Generated_Source\PSoC5/UART_ACS.c ****     *
1383:Generated_Source\PSoC5/UART_ACS.c ****     * Summary:
1384:Generated_Source\PSoC5/UART_ACS.c ****     *  Transmits a break signal on the bus.
1385:Generated_Source\PSoC5/UART_ACS.c ****     *
1386:Generated_Source\PSoC5/UART_ACS.c ****     * Parameters:
1387:Generated_Source\PSoC5/UART_ACS.c ****     *  uint8 retMode:  Send Break return mode. See the following table for options.
1388:Generated_Source\PSoC5/UART_ACS.c ****     *   UART_ACS_SEND_BREAK - Initialize registers for break, send the Break
1389:Generated_Source\PSoC5/UART_ACS.c ****     *       signal and return immediately.
1390:Generated_Source\PSoC5/UART_ACS.c ****     *   UART_ACS_WAIT_FOR_COMPLETE_REINIT - Wait until break transmission is
1391:Generated_Source\PSoC5/UART_ACS.c ****     *       complete, reinitialize registers to normal transmission mode then return
1392:Generated_Source\PSoC5/UART_ACS.c ****     *   UART_ACS_REINIT - Reinitialize registers to normal transmission mode
1393:Generated_Source\PSoC5/UART_ACS.c ****     *       then return.
1394:Generated_Source\PSoC5/UART_ACS.c ****     *   UART_ACS_SEND_WAIT_REINIT - Performs both options: 
1395:Generated_Source\PSoC5/UART_ACS.c ****     *      UART_ACS_SEND_BREAK and UART_ACS_WAIT_FOR_COMPLETE_REINIT.
1396:Generated_Source\PSoC5/UART_ACS.c ****     *      This option is recommended for most cases.
1397:Generated_Source\PSoC5/UART_ACS.c ****     *
1398:Generated_Source\PSoC5/UART_ACS.c ****     * Return:
1399:Generated_Source\PSoC5/UART_ACS.c ****     *  None.
1400:Generated_Source\PSoC5/UART_ACS.c ****     *
1401:Generated_Source\PSoC5/UART_ACS.c ****     * Global Variables:
1402:Generated_Source\PSoC5/UART_ACS.c ****     *  UART_ACS_initVar - checked to identify that the component has been
1403:Generated_Source\PSoC5/UART_ACS.c ****     *     initialized.
1404:Generated_Source\PSoC5/UART_ACS.c ****     *  txPeriod - static variable, used for keeping TX period configuration.
1405:Generated_Source\PSoC5/UART_ACS.c ****     *
1406:Generated_Source\PSoC5/UART_ACS.c ****     * Reentrant:
1407:Generated_Source\PSoC5/UART_ACS.c ****     *  No.
1408:Generated_Source\PSoC5/UART_ACS.c ****     *
1409:Generated_Source\PSoC5/UART_ACS.c ****     * Theory:
ARM GAS  C:\Users\ilya\AppData\Local\Temp\cckYQUis.s 			page 54


1410:Generated_Source\PSoC5/UART_ACS.c ****     *  SendBreak function initializes registers to send 13-bit break signal. It is
1411:Generated_Source\PSoC5/UART_ACS.c ****     *  important to return the registers configuration to normal for continue 8-bit
1412:Generated_Source\PSoC5/UART_ACS.c ****     *  operation.
1413:Generated_Source\PSoC5/UART_ACS.c ****     *  There are 3 variants for this API usage:
1414:Generated_Source\PSoC5/UART_ACS.c ****     *  1) SendBreak(3) - function will send the Break signal and take care on the
1415:Generated_Source\PSoC5/UART_ACS.c ****     *     configuration returning. Function will block CPU until transmission
1416:Generated_Source\PSoC5/UART_ACS.c ****     *     complete.
1417:Generated_Source\PSoC5/UART_ACS.c ****     *  2) User may want to use blocking time if UART configured to the low speed
1418:Generated_Source\PSoC5/UART_ACS.c ****     *     operation
1419:Generated_Source\PSoC5/UART_ACS.c ****     *     Example for this case:
1420:Generated_Source\PSoC5/UART_ACS.c ****     *     SendBreak(0);     - initialize Break signal transmission
1421:Generated_Source\PSoC5/UART_ACS.c ****     *         Add your code here to use CPU time
1422:Generated_Source\PSoC5/UART_ACS.c ****     *     SendBreak(1);     - complete Break operation
1423:Generated_Source\PSoC5/UART_ACS.c ****     *  3) Same to 2) but user may want to initialize and use the interrupt to
1424:Generated_Source\PSoC5/UART_ACS.c ****     *     complete break operation.
1425:Generated_Source\PSoC5/UART_ACS.c ****     *     Example for this case:
1426:Generated_Source\PSoC5/UART_ACS.c ****     *     Initialize TX interrupt with "TX - On TX Complete" parameter
1427:Generated_Source\PSoC5/UART_ACS.c ****     *     SendBreak(0);     - initialize Break signal transmission
1428:Generated_Source\PSoC5/UART_ACS.c ****     *         Add your code here to use CPU time
1429:Generated_Source\PSoC5/UART_ACS.c ****     *     When interrupt appear with UART_ACS_TX_STS_COMPLETE status:
1430:Generated_Source\PSoC5/UART_ACS.c ****     *     SendBreak(2);     - complete Break operation
1431:Generated_Source\PSoC5/UART_ACS.c ****     *
1432:Generated_Source\PSoC5/UART_ACS.c ****     * Side Effects:
1433:Generated_Source\PSoC5/UART_ACS.c ****     *  The UART_ACS_SendBreak() function initializes registers to send a
1434:Generated_Source\PSoC5/UART_ACS.c ****     *  break signal.
1435:Generated_Source\PSoC5/UART_ACS.c ****     *  Break signal length depends on the break signal bits configuration.
1436:Generated_Source\PSoC5/UART_ACS.c ****     *  The register configuration should be reinitialized before normal 8-bit
1437:Generated_Source\PSoC5/UART_ACS.c ****     *  communication can continue.
1438:Generated_Source\PSoC5/UART_ACS.c ****     *
1439:Generated_Source\PSoC5/UART_ACS.c ****     *******************************************************************************/
1440:Generated_Source\PSoC5/UART_ACS.c ****     void UART_ACS_SendBreak(uint8 retMode) 
1441:Generated_Source\PSoC5/UART_ACS.c ****     {
 1608              		.loc 1 1441 0
 1609              		.cfi_startproc
 1610              		@ args = 0, pretend = 0, frame = 16
 1611              		@ frame_needed = 1, uses_anonymous_args = 0
 1612 0000 80B5     		push	{r7, lr}
 1613              		.cfi_def_cfa_offset 8
 1614              		.cfi_offset 7, -8
 1615              		.cfi_offset 14, -4
 1616 0002 84B0     		sub	sp, sp, #16
 1617              		.cfi_def_cfa_offset 24
 1618 0004 00AF     		add	r7, sp, #0
 1619              		.cfi_def_cfa_register 7
 1620 0006 0346     		mov	r3, r0
 1621 0008 FB71     		strb	r3, [r7, #7]
1442:Generated_Source\PSoC5/UART_ACS.c **** 
1443:Generated_Source\PSoC5/UART_ACS.c ****         /* If not Initialized then skip this function*/
1444:Generated_Source\PSoC5/UART_ACS.c ****         if(UART_ACS_initVar != 0u)
 1622              		.loc 1 1444 0
 1623 000a 224B     		ldr	r3, .L124
 1624 000c 1B78     		ldrb	r3, [r3]	@ zero_extendqisi2
 1625 000e 002B     		cmp	r3, #0
 1626 0010 3BD0     		beq	.L123
 1627              	.LBB2:
1445:Generated_Source\PSoC5/UART_ACS.c ****         {
1446:Generated_Source\PSoC5/UART_ACS.c ****             /* Set the Counter to 13-bits and transmit a 00 byte */
ARM GAS  C:\Users\ilya\AppData\Local\Temp\cckYQUis.s 			page 55


1447:Generated_Source\PSoC5/UART_ACS.c ****             /* When that is done then reset the counter value back */
1448:Generated_Source\PSoC5/UART_ACS.c ****             uint8 tmpStat;
1449:Generated_Source\PSoC5/UART_ACS.c **** 
1450:Generated_Source\PSoC5/UART_ACS.c ****         #if(UART_ACS_HD_ENABLED) /* Half Duplex mode*/
1451:Generated_Source\PSoC5/UART_ACS.c **** 
1452:Generated_Source\PSoC5/UART_ACS.c ****             if( (retMode == UART_ACS_SEND_BREAK) ||
 1628              		.loc 1 1452 0
 1629 0012 FB79     		ldrb	r3, [r7, #7]	@ zero_extendqisi2
 1630 0014 002B     		cmp	r3, #0
 1631 0016 02D0     		beq	.L117
 1632              		.loc 1 1452 0 is_stmt 0 discriminator 1
 1633 0018 FB79     		ldrb	r3, [r7, #7]	@ zero_extendqisi2
 1634 001a 032B     		cmp	r3, #3
 1635 001c 13D1     		bne	.L118
 1636              	.L117:
1453:Generated_Source\PSoC5/UART_ACS.c ****                 (retMode == UART_ACS_SEND_WAIT_REINIT ) )
1454:Generated_Source\PSoC5/UART_ACS.c ****             {
1455:Generated_Source\PSoC5/UART_ACS.c ****                 /* CTRL_HD_SEND_BREAK - sends break bits in HD mode */
1456:Generated_Source\PSoC5/UART_ACS.c ****                 UART_ACS_WriteControlRegister(UART_ACS_ReadControlRegister() |
 1637              		.loc 1 1456 0 is_stmt 1
 1638 001e FFF7FEFF 		bl	UART_ACS_ReadControlRegister
 1639 0022 0346     		mov	r3, r0
 1640 0024 43F00203 		orr	r3, r3, #2
 1641 0028 DBB2     		uxtb	r3, r3
 1642 002a 1846     		mov	r0, r3
 1643 002c FFF7FEFF 		bl	UART_ACS_WriteControlRegister
1457:Generated_Source\PSoC5/UART_ACS.c ****                                                       UART_ACS_CTRL_HD_SEND_BREAK);
1458:Generated_Source\PSoC5/UART_ACS.c ****                 /* Send zeros */
1459:Generated_Source\PSoC5/UART_ACS.c ****                 UART_ACS_TXDATA_REG = 0u;
 1644              		.loc 1 1459 0
 1645 0030 194B     		ldr	r3, .L124+4
 1646 0032 0022     		movs	r2, #0
 1647 0034 1A70     		strb	r2, [r3]
 1648              	.L119:
1460:Generated_Source\PSoC5/UART_ACS.c **** 
1461:Generated_Source\PSoC5/UART_ACS.c ****                 do /* Wait until transmit starts */
1462:Generated_Source\PSoC5/UART_ACS.c ****                 {
1463:Generated_Source\PSoC5/UART_ACS.c ****                     tmpStat = UART_ACS_TXSTATUS_REG;
 1649              		.loc 1 1463 0 discriminator 1
 1650 0036 194B     		ldr	r3, .L124+8
 1651 0038 1B78     		ldrb	r3, [r3]
 1652 003a FB73     		strb	r3, [r7, #15]
1464:Generated_Source\PSoC5/UART_ACS.c ****                 }
1465:Generated_Source\PSoC5/UART_ACS.c ****                 while((tmpStat & UART_ACS_TX_STS_FIFO_EMPTY) != 0u);
 1653              		.loc 1 1465 0 discriminator 1
 1654 003c FB7B     		ldrb	r3, [r7, #15]	@ zero_extendqisi2
 1655 003e 03F00203 		and	r3, r3, #2
 1656 0042 002B     		cmp	r3, #0
 1657 0044 F7D1     		bne	.L119
 1658              	.L118:
1466:Generated_Source\PSoC5/UART_ACS.c ****             }
1467:Generated_Source\PSoC5/UART_ACS.c **** 
1468:Generated_Source\PSoC5/UART_ACS.c ****             if( (retMode == UART_ACS_WAIT_FOR_COMPLETE_REINIT) ||
 1659              		.loc 1 1468 0
 1660 0046 FB79     		ldrb	r3, [r7, #7]	@ zero_extendqisi2
 1661 0048 012B     		cmp	r3, #1
 1662 004a 02D0     		beq	.L120
ARM GAS  C:\Users\ilya\AppData\Local\Temp\cckYQUis.s 			page 56


 1663              		.loc 1 1468 0 is_stmt 0 discriminator 1
 1664 004c FB79     		ldrb	r3, [r7, #7]	@ zero_extendqisi2
 1665 004e 032B     		cmp	r3, #3
 1666 0050 09D1     		bne	.L121
 1667              	.L120:
1469:Generated_Source\PSoC5/UART_ACS.c ****                 (retMode == UART_ACS_SEND_WAIT_REINIT) )
1470:Generated_Source\PSoC5/UART_ACS.c ****             {
1471:Generated_Source\PSoC5/UART_ACS.c ****                 do /* Wait until transmit complete */
1472:Generated_Source\PSoC5/UART_ACS.c ****                 {
1473:Generated_Source\PSoC5/UART_ACS.c ****                     tmpStat = UART_ACS_TXSTATUS_REG;
 1668              		.loc 1 1473 0 is_stmt 1 discriminator 1
 1669 0052 124B     		ldr	r3, .L124+8
 1670 0054 1B78     		ldrb	r3, [r3]
 1671 0056 FB73     		strb	r3, [r7, #15]
1474:Generated_Source\PSoC5/UART_ACS.c ****                 }
1475:Generated_Source\PSoC5/UART_ACS.c ****                 while(((uint8)~tmpStat & UART_ACS_TX_STS_COMPLETE) != 0u);
 1672              		.loc 1 1475 0 discriminator 1
 1673 0058 FB7B     		ldrb	r3, [r7, #15]
 1674 005a DB43     		mvns	r3, r3
 1675 005c DBB2     		uxtb	r3, r3
 1676 005e 03F00103 		and	r3, r3, #1
 1677 0062 002B     		cmp	r3, #0
 1678 0064 F5D1     		bne	.L120
 1679              	.L121:
1476:Generated_Source\PSoC5/UART_ACS.c ****             }
1477:Generated_Source\PSoC5/UART_ACS.c **** 
1478:Generated_Source\PSoC5/UART_ACS.c ****             if( (retMode == UART_ACS_WAIT_FOR_COMPLETE_REINIT) ||
 1680              		.loc 1 1478 0
 1681 0066 FB79     		ldrb	r3, [r7, #7]	@ zero_extendqisi2
 1682 0068 012B     		cmp	r3, #1
 1683 006a 05D0     		beq	.L122
 1684              		.loc 1 1478 0 is_stmt 0 discriminator 1
 1685 006c FB79     		ldrb	r3, [r7, #7]	@ zero_extendqisi2
 1686 006e 022B     		cmp	r3, #2
 1687 0070 02D0     		beq	.L122
1479:Generated_Source\PSoC5/UART_ACS.c ****                 (retMode == UART_ACS_REINIT) ||
 1688              		.loc 1 1479 0 is_stmt 1
 1689 0072 FB79     		ldrb	r3, [r7, #7]	@ zero_extendqisi2
 1690 0074 032B     		cmp	r3, #3
 1691 0076 08D1     		bne	.L123
 1692              	.L122:
1480:Generated_Source\PSoC5/UART_ACS.c ****                 (retMode == UART_ACS_SEND_WAIT_REINIT) )
1481:Generated_Source\PSoC5/UART_ACS.c ****             {
1482:Generated_Source\PSoC5/UART_ACS.c ****                 UART_ACS_WriteControlRegister(UART_ACS_ReadControlRegister() &
 1693              		.loc 1 1482 0
 1694 0078 FFF7FEFF 		bl	UART_ACS_ReadControlRegister
 1695 007c 0346     		mov	r3, r0
 1696 007e 23F00203 		bic	r3, r3, #2
 1697 0082 DBB2     		uxtb	r3, r3
 1698 0084 1846     		mov	r0, r3
 1699 0086 FFF7FEFF 		bl	UART_ACS_WriteControlRegister
 1700              	.L123:
 1701              	.LBE2:
1483:Generated_Source\PSoC5/UART_ACS.c ****                                               (uint8)~UART_ACS_CTRL_HD_SEND_BREAK);
1484:Generated_Source\PSoC5/UART_ACS.c ****             }
1485:Generated_Source\PSoC5/UART_ACS.c **** 
1486:Generated_Source\PSoC5/UART_ACS.c ****         #else /* UART_ACS_HD_ENABLED Full Duplex mode */
ARM GAS  C:\Users\ilya\AppData\Local\Temp\cckYQUis.s 			page 57


1487:Generated_Source\PSoC5/UART_ACS.c **** 
1488:Generated_Source\PSoC5/UART_ACS.c ****             static uint8 txPeriod;
1489:Generated_Source\PSoC5/UART_ACS.c **** 
1490:Generated_Source\PSoC5/UART_ACS.c ****             if( (retMode == UART_ACS_SEND_BREAK) ||
1491:Generated_Source\PSoC5/UART_ACS.c ****                 (retMode == UART_ACS_SEND_WAIT_REINIT) )
1492:Generated_Source\PSoC5/UART_ACS.c ****             {
1493:Generated_Source\PSoC5/UART_ACS.c ****                 /* CTRL_HD_SEND_BREAK - skip to send parity bit at Break signal in Full Duplex mode
1494:Generated_Source\PSoC5/UART_ACS.c ****                 #if( (UART_ACS_PARITY_TYPE != UART_ACS__B_UART__NONE_REVB) || \
1495:Generated_Source\PSoC5/UART_ACS.c ****                                     (UART_ACS_PARITY_TYPE_SW != 0u) )
1496:Generated_Source\PSoC5/UART_ACS.c ****                     UART_ACS_WriteControlRegister(UART_ACS_ReadControlRegister() |
1497:Generated_Source\PSoC5/UART_ACS.c ****                                                           UART_ACS_CTRL_HD_SEND_BREAK);
1498:Generated_Source\PSoC5/UART_ACS.c ****                 #endif /* End UART_ACS_PARITY_TYPE != UART_ACS__B_UART__NONE_REVB  */
1499:Generated_Source\PSoC5/UART_ACS.c **** 
1500:Generated_Source\PSoC5/UART_ACS.c ****                 #if(UART_ACS_TXCLKGEN_DP)
1501:Generated_Source\PSoC5/UART_ACS.c ****                     txPeriod = UART_ACS_TXBITCLKTX_COMPLETE_REG;
1502:Generated_Source\PSoC5/UART_ACS.c ****                     UART_ACS_TXBITCLKTX_COMPLETE_REG = UART_ACS_TXBITCTR_BREAKBITS;
1503:Generated_Source\PSoC5/UART_ACS.c ****                 #else
1504:Generated_Source\PSoC5/UART_ACS.c ****                     txPeriod = UART_ACS_TXBITCTR_PERIOD_REG;
1505:Generated_Source\PSoC5/UART_ACS.c ****                     UART_ACS_TXBITCTR_PERIOD_REG = UART_ACS_TXBITCTR_BREAKBITS8X;
1506:Generated_Source\PSoC5/UART_ACS.c ****                 #endif /* End UART_ACS_TXCLKGEN_DP */
1507:Generated_Source\PSoC5/UART_ACS.c **** 
1508:Generated_Source\PSoC5/UART_ACS.c ****                 /* Send zeros */
1509:Generated_Source\PSoC5/UART_ACS.c ****                 UART_ACS_TXDATA_REG = 0u;
1510:Generated_Source\PSoC5/UART_ACS.c **** 
1511:Generated_Source\PSoC5/UART_ACS.c ****                 do /* Wait until transmit starts */
1512:Generated_Source\PSoC5/UART_ACS.c ****                 {
1513:Generated_Source\PSoC5/UART_ACS.c ****                     tmpStat = UART_ACS_TXSTATUS_REG;
1514:Generated_Source\PSoC5/UART_ACS.c ****                 }
1515:Generated_Source\PSoC5/UART_ACS.c ****                 while((tmpStat & UART_ACS_TX_STS_FIFO_EMPTY) != 0u);
1516:Generated_Source\PSoC5/UART_ACS.c ****             }
1517:Generated_Source\PSoC5/UART_ACS.c **** 
1518:Generated_Source\PSoC5/UART_ACS.c ****             if( (retMode == UART_ACS_WAIT_FOR_COMPLETE_REINIT) ||
1519:Generated_Source\PSoC5/UART_ACS.c ****                 (retMode == UART_ACS_SEND_WAIT_REINIT) )
1520:Generated_Source\PSoC5/UART_ACS.c ****             {
1521:Generated_Source\PSoC5/UART_ACS.c ****                 do /* Wait until transmit complete */
1522:Generated_Source\PSoC5/UART_ACS.c ****                 {
1523:Generated_Source\PSoC5/UART_ACS.c ****                     tmpStat = UART_ACS_TXSTATUS_REG;
1524:Generated_Source\PSoC5/UART_ACS.c ****                 }
1525:Generated_Source\PSoC5/UART_ACS.c ****                 while(((uint8)~tmpStat & UART_ACS_TX_STS_COMPLETE) != 0u);
1526:Generated_Source\PSoC5/UART_ACS.c ****             }
1527:Generated_Source\PSoC5/UART_ACS.c **** 
1528:Generated_Source\PSoC5/UART_ACS.c ****             if( (retMode == UART_ACS_WAIT_FOR_COMPLETE_REINIT) ||
1529:Generated_Source\PSoC5/UART_ACS.c ****                 (retMode == UART_ACS_REINIT) ||
1530:Generated_Source\PSoC5/UART_ACS.c ****                 (retMode == UART_ACS_SEND_WAIT_REINIT) )
1531:Generated_Source\PSoC5/UART_ACS.c ****             {
1532:Generated_Source\PSoC5/UART_ACS.c **** 
1533:Generated_Source\PSoC5/UART_ACS.c ****             #if(UART_ACS_TXCLKGEN_DP)
1534:Generated_Source\PSoC5/UART_ACS.c ****                 UART_ACS_TXBITCLKTX_COMPLETE_REG = txPeriod;
1535:Generated_Source\PSoC5/UART_ACS.c ****             #else
1536:Generated_Source\PSoC5/UART_ACS.c ****                 UART_ACS_TXBITCTR_PERIOD_REG = txPeriod;
1537:Generated_Source\PSoC5/UART_ACS.c ****             #endif /* End UART_ACS_TXCLKGEN_DP */
1538:Generated_Source\PSoC5/UART_ACS.c **** 
1539:Generated_Source\PSoC5/UART_ACS.c ****             #if( (UART_ACS_PARITY_TYPE != UART_ACS__B_UART__NONE_REVB) || \
1540:Generated_Source\PSoC5/UART_ACS.c ****                  (UART_ACS_PARITY_TYPE_SW != 0u) )
1541:Generated_Source\PSoC5/UART_ACS.c ****                 UART_ACS_WriteControlRegister(UART_ACS_ReadControlRegister() &
1542:Generated_Source\PSoC5/UART_ACS.c ****                                                       (uint8) ~UART_ACS_CTRL_HD_SEND_BREAK);
1543:Generated_Source\PSoC5/UART_ACS.c ****             #endif /* End UART_ACS_PARITY_TYPE != NONE */
ARM GAS  C:\Users\ilya\AppData\Local\Temp\cckYQUis.s 			page 58


1544:Generated_Source\PSoC5/UART_ACS.c ****             }
1545:Generated_Source\PSoC5/UART_ACS.c ****         #endif    /* End UART_ACS_HD_ENABLED */
1546:Generated_Source\PSoC5/UART_ACS.c ****         }
1547:Generated_Source\PSoC5/UART_ACS.c ****     }
 1702              		.loc 1 1547 0
 1703 008a 00BF     		nop
 1704 008c 1037     		adds	r7, r7, #16
 1705              		.cfi_def_cfa_offset 8
 1706 008e BD46     		mov	sp, r7
 1707              		.cfi_def_cfa_register 13
 1708              		@ sp needed
 1709 0090 80BD     		pop	{r7, pc}
 1710              	.L125:
 1711 0092 00BF     		.align	2
 1712              	.L124:
 1713 0094 00000000 		.word	UART_ACS_initVar
 1714 0098 56640040 		.word	1073767510
 1715 009c 66640040 		.word	1073767526
 1716              		.cfi_endproc
 1717              	.LFE25:
 1718              		.size	UART_ACS_SendBreak, .-UART_ACS_SendBreak
 1719              		.section	.text.UART_ACS_SetTxAddressMode,"ax",%progbits
 1720              		.align	2
 1721              		.global	UART_ACS_SetTxAddressMode
 1722              		.thumb
 1723              		.thumb_func
 1724              		.type	UART_ACS_SetTxAddressMode, %function
 1725              	UART_ACS_SetTxAddressMode:
 1726              	.LFB26:
1548:Generated_Source\PSoC5/UART_ACS.c **** 
1549:Generated_Source\PSoC5/UART_ACS.c **** 
1550:Generated_Source\PSoC5/UART_ACS.c ****     /*******************************************************************************
1551:Generated_Source\PSoC5/UART_ACS.c ****     * Function Name: UART_ACS_SetTxAddressMode
1552:Generated_Source\PSoC5/UART_ACS.c ****     ********************************************************************************
1553:Generated_Source\PSoC5/UART_ACS.c ****     *
1554:Generated_Source\PSoC5/UART_ACS.c ****     * Summary:
1555:Generated_Source\PSoC5/UART_ACS.c ****     *  Configures the transmitter to signal the next bytes is address or data.
1556:Generated_Source\PSoC5/UART_ACS.c ****     *
1557:Generated_Source\PSoC5/UART_ACS.c ****     * Parameters:
1558:Generated_Source\PSoC5/UART_ACS.c ****     *  addressMode: 
1559:Generated_Source\PSoC5/UART_ACS.c ****     *       UART_ACS_SET_SPACE - Configure the transmitter to send the next
1560:Generated_Source\PSoC5/UART_ACS.c ****     *                                    byte as a data.
1561:Generated_Source\PSoC5/UART_ACS.c ****     *       UART_ACS_SET_MARK  - Configure the transmitter to send the next
1562:Generated_Source\PSoC5/UART_ACS.c ****     *                                    byte as an address.
1563:Generated_Source\PSoC5/UART_ACS.c ****     *
1564:Generated_Source\PSoC5/UART_ACS.c ****     * Return:
1565:Generated_Source\PSoC5/UART_ACS.c ****     *  None.
1566:Generated_Source\PSoC5/UART_ACS.c ****     *
1567:Generated_Source\PSoC5/UART_ACS.c ****     * Side Effects:
1568:Generated_Source\PSoC5/UART_ACS.c ****     *  This function sets and clears UART_ACS_CTRL_MARK bit in the Control
1569:Generated_Source\PSoC5/UART_ACS.c ****     *  register.
1570:Generated_Source\PSoC5/UART_ACS.c ****     *
1571:Generated_Source\PSoC5/UART_ACS.c ****     *******************************************************************************/
1572:Generated_Source\PSoC5/UART_ACS.c ****     void UART_ACS_SetTxAddressMode(uint8 addressMode) 
1573:Generated_Source\PSoC5/UART_ACS.c ****     {
 1727              		.loc 1 1573 0
 1728              		.cfi_startproc
ARM GAS  C:\Users\ilya\AppData\Local\Temp\cckYQUis.s 			page 59


 1729              		@ args = 0, pretend = 0, frame = 8
 1730              		@ frame_needed = 1, uses_anonymous_args = 0
 1731 0000 80B5     		push	{r7, lr}
 1732              		.cfi_def_cfa_offset 8
 1733              		.cfi_offset 7, -8
 1734              		.cfi_offset 14, -4
 1735 0002 82B0     		sub	sp, sp, #8
 1736              		.cfi_def_cfa_offset 16
 1737 0004 00AF     		add	r7, sp, #0
 1738              		.cfi_def_cfa_register 7
 1739 0006 0346     		mov	r3, r0
 1740 0008 FB71     		strb	r3, [r7, #7]
1574:Generated_Source\PSoC5/UART_ACS.c ****         /* Mark/Space sending enable */
1575:Generated_Source\PSoC5/UART_ACS.c ****         if(addressMode != 0u)
 1741              		.loc 1 1575 0
 1742 000a FB79     		ldrb	r3, [r7, #7]	@ zero_extendqisi2
 1743 000c 002B     		cmp	r3, #0
 1744 000e 09D0     		beq	.L127
1576:Generated_Source\PSoC5/UART_ACS.c ****         {
1577:Generated_Source\PSoC5/UART_ACS.c ****         #if( UART_ACS_CONTROL_REG_REMOVED == 0u )
1578:Generated_Source\PSoC5/UART_ACS.c ****             UART_ACS_WriteControlRegister(UART_ACS_ReadControlRegister() |
 1745              		.loc 1 1578 0
 1746 0010 FFF7FEFF 		bl	UART_ACS_ReadControlRegister
 1747 0014 0346     		mov	r3, r0
 1748 0016 43F00403 		orr	r3, r3, #4
 1749 001a DBB2     		uxtb	r3, r3
 1750 001c 1846     		mov	r0, r3
 1751 001e FFF7FEFF 		bl	UART_ACS_WriteControlRegister
1579:Generated_Source\PSoC5/UART_ACS.c ****                                                   UART_ACS_CTRL_MARK);
1580:Generated_Source\PSoC5/UART_ACS.c ****         #endif /* End UART_ACS_CONTROL_REG_REMOVED == 0u */
1581:Generated_Source\PSoC5/UART_ACS.c ****         }
1582:Generated_Source\PSoC5/UART_ACS.c ****         else
1583:Generated_Source\PSoC5/UART_ACS.c ****         {
1584:Generated_Source\PSoC5/UART_ACS.c ****         #if( UART_ACS_CONTROL_REG_REMOVED == 0u )
1585:Generated_Source\PSoC5/UART_ACS.c ****             UART_ACS_WriteControlRegister(UART_ACS_ReadControlRegister() &
1586:Generated_Source\PSoC5/UART_ACS.c ****                                                   (uint8) ~UART_ACS_CTRL_MARK);
1587:Generated_Source\PSoC5/UART_ACS.c ****         #endif /* End UART_ACS_CONTROL_REG_REMOVED == 0u */
1588:Generated_Source\PSoC5/UART_ACS.c ****         }
1589:Generated_Source\PSoC5/UART_ACS.c ****     }
 1752              		.loc 1 1589 0
 1753 0022 08E0     		b	.L129
 1754              	.L127:
1585:Generated_Source\PSoC5/UART_ACS.c ****                                                   (uint8) ~UART_ACS_CTRL_MARK);
 1755              		.loc 1 1585 0
 1756 0024 FFF7FEFF 		bl	UART_ACS_ReadControlRegister
 1757 0028 0346     		mov	r3, r0
 1758 002a 23F00403 		bic	r3, r3, #4
 1759 002e DBB2     		uxtb	r3, r3
 1760 0030 1846     		mov	r0, r3
 1761 0032 FFF7FEFF 		bl	UART_ACS_WriteControlRegister
 1762              	.L129:
 1763              		.loc 1 1589 0
 1764 0036 00BF     		nop
 1765 0038 0837     		adds	r7, r7, #8
 1766              		.cfi_def_cfa_offset 8
 1767 003a BD46     		mov	sp, r7
 1768              		.cfi_def_cfa_register 13
ARM GAS  C:\Users\ilya\AppData\Local\Temp\cckYQUis.s 			page 60


 1769              		@ sp needed
 1770 003c 80BD     		pop	{r7, pc}
 1771              		.cfi_endproc
 1772              	.LFE26:
 1773              		.size	UART_ACS_SetTxAddressMode, .-UART_ACS_SetTxAddressMode
 1774 003e 00BF     		.section	.text.UART_ACS_LoadRxConfig,"ax",%progbits
 1775              		.align	2
 1776              		.global	UART_ACS_LoadRxConfig
 1777              		.thumb
 1778              		.thumb_func
 1779              		.type	UART_ACS_LoadRxConfig, %function
 1780              	UART_ACS_LoadRxConfig:
 1781              	.LFB27:
1590:Generated_Source\PSoC5/UART_ACS.c **** 
1591:Generated_Source\PSoC5/UART_ACS.c **** #endif  /* EndUART_ACS_TX_ENABLED */
1592:Generated_Source\PSoC5/UART_ACS.c **** 
1593:Generated_Source\PSoC5/UART_ACS.c **** #if(UART_ACS_HD_ENABLED)
1594:Generated_Source\PSoC5/UART_ACS.c **** 
1595:Generated_Source\PSoC5/UART_ACS.c **** 
1596:Generated_Source\PSoC5/UART_ACS.c ****     /*******************************************************************************
1597:Generated_Source\PSoC5/UART_ACS.c ****     * Function Name: UART_ACS_LoadRxConfig
1598:Generated_Source\PSoC5/UART_ACS.c ****     ********************************************************************************
1599:Generated_Source\PSoC5/UART_ACS.c ****     *
1600:Generated_Source\PSoC5/UART_ACS.c ****     * Summary:
1601:Generated_Source\PSoC5/UART_ACS.c ****     *  Loads the receiver configuration in half duplex mode. After calling this
1602:Generated_Source\PSoC5/UART_ACS.c ****     *  function, the UART is ready to receive data.
1603:Generated_Source\PSoC5/UART_ACS.c ****     *
1604:Generated_Source\PSoC5/UART_ACS.c ****     * Parameters:
1605:Generated_Source\PSoC5/UART_ACS.c ****     *  None.
1606:Generated_Source\PSoC5/UART_ACS.c ****     *
1607:Generated_Source\PSoC5/UART_ACS.c ****     * Return:
1608:Generated_Source\PSoC5/UART_ACS.c ****     *  None.
1609:Generated_Source\PSoC5/UART_ACS.c ****     *
1610:Generated_Source\PSoC5/UART_ACS.c ****     * Side Effects:
1611:Generated_Source\PSoC5/UART_ACS.c ****     *  Valid only in half duplex mode. You must make sure that the previous
1612:Generated_Source\PSoC5/UART_ACS.c ****     *  transaction is complete and it is safe to unload the transmitter
1613:Generated_Source\PSoC5/UART_ACS.c ****     *  configuration.
1614:Generated_Source\PSoC5/UART_ACS.c ****     *
1615:Generated_Source\PSoC5/UART_ACS.c ****     *******************************************************************************/
1616:Generated_Source\PSoC5/UART_ACS.c ****     void UART_ACS_LoadRxConfig(void) 
1617:Generated_Source\PSoC5/UART_ACS.c ****     {
 1782              		.loc 1 1617 0
 1783              		.cfi_startproc
 1784              		@ args = 0, pretend = 0, frame = 0
 1785              		@ frame_needed = 1, uses_anonymous_args = 0
 1786 0000 80B5     		push	{r7, lr}
 1787              		.cfi_def_cfa_offset 8
 1788              		.cfi_offset 7, -8
 1789              		.cfi_offset 14, -4
 1790 0002 00AF     		add	r7, sp, #0
 1791              		.cfi_def_cfa_register 7
1618:Generated_Source\PSoC5/UART_ACS.c ****         UART_ACS_WriteControlRegister(UART_ACS_ReadControlRegister() &
 1792              		.loc 1 1618 0
 1793 0004 FFF7FEFF 		bl	UART_ACS_ReadControlRegister
 1794 0008 0346     		mov	r3, r0
 1795 000a 23F00103 		bic	r3, r3, #1
 1796 000e DBB2     		uxtb	r3, r3
ARM GAS  C:\Users\ilya\AppData\Local\Temp\cckYQUis.s 			page 61


 1797 0010 1846     		mov	r0, r3
 1798 0012 FFF7FEFF 		bl	UART_ACS_WriteControlRegister
1619:Generated_Source\PSoC5/UART_ACS.c ****                                                 (uint8)~UART_ACS_CTRL_HD_SEND);
1620:Generated_Source\PSoC5/UART_ACS.c ****         UART_ACS_RXBITCTR_PERIOD_REG = UART_ACS_HD_RXBITCTR_INIT;
 1799              		.loc 1 1620 0
 1800 0016 044B     		ldr	r3, .L131
 1801 0018 7222     		movs	r2, #114
 1802 001a 1A70     		strb	r2, [r3]
1621:Generated_Source\PSoC5/UART_ACS.c **** 
1622:Generated_Source\PSoC5/UART_ACS.c ****     #if (UART_ACS_RX_INTERRUPT_ENABLED)
1623:Generated_Source\PSoC5/UART_ACS.c ****         /* Enable RX interrupt after set RX configuration */
1624:Generated_Source\PSoC5/UART_ACS.c ****         UART_ACS_SetRxInterruptMode(UART_ACS_INIT_RX_INTERRUPTS_MASK);
 1803              		.loc 1 1624 0
 1804 001c 2020     		movs	r0, #32
 1805 001e FFF7FEFF 		bl	UART_ACS_SetRxInterruptMode
1625:Generated_Source\PSoC5/UART_ACS.c ****     #endif /* (UART_ACS_RX_INTERRUPT_ENABLED) */
1626:Generated_Source\PSoC5/UART_ACS.c ****     }
 1806              		.loc 1 1626 0
 1807 0022 00BF     		nop
 1808 0024 80BD     		pop	{r7, pc}
 1809              	.L132:
 1810 0026 00BF     		.align	2
 1811              	.L131:
 1812 0028 83640040 		.word	1073767555
 1813              		.cfi_endproc
 1814              	.LFE27:
 1815              		.size	UART_ACS_LoadRxConfig, .-UART_ACS_LoadRxConfig
 1816              		.section	.text.UART_ACS_LoadTxConfig,"ax",%progbits
 1817              		.align	2
 1818              		.global	UART_ACS_LoadTxConfig
 1819              		.thumb
 1820              		.thumb_func
 1821              		.type	UART_ACS_LoadTxConfig, %function
 1822              	UART_ACS_LoadTxConfig:
 1823              	.LFB28:
1627:Generated_Source\PSoC5/UART_ACS.c **** 
1628:Generated_Source\PSoC5/UART_ACS.c **** 
1629:Generated_Source\PSoC5/UART_ACS.c ****     /*******************************************************************************
1630:Generated_Source\PSoC5/UART_ACS.c ****     * Function Name: UART_ACS_LoadTxConfig
1631:Generated_Source\PSoC5/UART_ACS.c ****     ********************************************************************************
1632:Generated_Source\PSoC5/UART_ACS.c ****     *
1633:Generated_Source\PSoC5/UART_ACS.c ****     * Summary:
1634:Generated_Source\PSoC5/UART_ACS.c ****     *  Loads the transmitter configuration in half duplex mode. After calling this
1635:Generated_Source\PSoC5/UART_ACS.c ****     *  function, the UART is ready to transmit data.
1636:Generated_Source\PSoC5/UART_ACS.c ****     *
1637:Generated_Source\PSoC5/UART_ACS.c ****     * Parameters:
1638:Generated_Source\PSoC5/UART_ACS.c ****     *  None.
1639:Generated_Source\PSoC5/UART_ACS.c ****     *
1640:Generated_Source\PSoC5/UART_ACS.c ****     * Return:
1641:Generated_Source\PSoC5/UART_ACS.c ****     *  None.
1642:Generated_Source\PSoC5/UART_ACS.c ****     *
1643:Generated_Source\PSoC5/UART_ACS.c ****     * Side Effects:
1644:Generated_Source\PSoC5/UART_ACS.c ****     *  Valid only in half duplex mode. You must make sure that the previous
1645:Generated_Source\PSoC5/UART_ACS.c ****     *  transaction is complete and it is safe to unload the receiver configuration.
1646:Generated_Source\PSoC5/UART_ACS.c ****     *
1647:Generated_Source\PSoC5/UART_ACS.c ****     *******************************************************************************/
1648:Generated_Source\PSoC5/UART_ACS.c ****     void UART_ACS_LoadTxConfig(void) 
ARM GAS  C:\Users\ilya\AppData\Local\Temp\cckYQUis.s 			page 62


1649:Generated_Source\PSoC5/UART_ACS.c ****     {
 1824              		.loc 1 1649 0
 1825              		.cfi_startproc
 1826              		@ args = 0, pretend = 0, frame = 0
 1827              		@ frame_needed = 1, uses_anonymous_args = 0
 1828 0000 80B5     		push	{r7, lr}
 1829              		.cfi_def_cfa_offset 8
 1830              		.cfi_offset 7, -8
 1831              		.cfi_offset 14, -4
 1832 0002 00AF     		add	r7, sp, #0
 1833              		.cfi_def_cfa_register 7
1650:Generated_Source\PSoC5/UART_ACS.c ****     #if (UART_ACS_RX_INTERRUPT_ENABLED)
1651:Generated_Source\PSoC5/UART_ACS.c ****         /* Disable RX interrupts before set TX configuration */
1652:Generated_Source\PSoC5/UART_ACS.c ****         UART_ACS_SetRxInterruptMode(0u);
 1834              		.loc 1 1652 0
 1835 0004 0020     		movs	r0, #0
 1836 0006 FFF7FEFF 		bl	UART_ACS_SetRxInterruptMode
1653:Generated_Source\PSoC5/UART_ACS.c ****     #endif /* (UART_ACS_RX_INTERRUPT_ENABLED) */
1654:Generated_Source\PSoC5/UART_ACS.c **** 
1655:Generated_Source\PSoC5/UART_ACS.c ****         UART_ACS_WriteControlRegister(UART_ACS_ReadControlRegister() | UART_ACS_CTRL_HD_SEND);
 1837              		.loc 1 1655 0
 1838 000a FFF7FEFF 		bl	UART_ACS_ReadControlRegister
 1839 000e 0346     		mov	r3, r0
 1840 0010 43F00103 		orr	r3, r3, #1
 1841 0014 DBB2     		uxtb	r3, r3
 1842 0016 1846     		mov	r0, r3
 1843 0018 FFF7FEFF 		bl	UART_ACS_WriteControlRegister
1656:Generated_Source\PSoC5/UART_ACS.c ****         UART_ACS_RXBITCTR_PERIOD_REG = UART_ACS_HD_TXBITCTR_INIT;
 1844              		.loc 1 1656 0
 1845 001c 024B     		ldr	r3, .L134
 1846 001e 6F22     		movs	r2, #111
 1847 0020 1A70     		strb	r2, [r3]
1657:Generated_Source\PSoC5/UART_ACS.c ****     }
 1848              		.loc 1 1657 0
 1849 0022 00BF     		nop
 1850 0024 80BD     		pop	{r7, pc}
 1851              	.L135:
 1852 0026 00BF     		.align	2
 1853              	.L134:
 1854 0028 83640040 		.word	1073767555
 1855              		.cfi_endproc
 1856              	.LFE28:
 1857              		.size	UART_ACS_LoadTxConfig, .-UART_ACS_LoadTxConfig
 1858              		.text
 1859              	.Letext0:
 1860              		.file 2 "Generated_Source\\PSoC5\\cytypes.h"
 1861              		.section	.debug_info,"",%progbits
 1862              	.Ldebug_info0:
 1863 0000 05060000 		.4byte	0x605
 1864 0004 0400     		.2byte	0x4
 1865 0006 00000000 		.4byte	.Ldebug_abbrev0
 1866 000a 04       		.byte	0x4
 1867 000b 01       		.uleb128 0x1
 1868 000c 46000000 		.4byte	.LASF74
 1869 0010 0C       		.byte	0xc
 1870 0011 0D020000 		.4byte	.LASF75
 1871 0015 B5020000 		.4byte	.LASF76
ARM GAS  C:\Users\ilya\AppData\Local\Temp\cckYQUis.s 			page 63


 1872 0019 00000000 		.4byte	.Ldebug_ranges0+0
 1873 001d 00000000 		.4byte	0
 1874 0021 00000000 		.4byte	.Ldebug_line0
 1875 0025 02       		.uleb128 0x2
 1876 0026 01       		.byte	0x1
 1877 0027 06       		.byte	0x6
 1878 0028 50010000 		.4byte	.LASF0
 1879 002c 02       		.uleb128 0x2
 1880 002d 01       		.byte	0x1
 1881 002e 08       		.byte	0x8
 1882 002f 33040000 		.4byte	.LASF1
 1883 0033 02       		.uleb128 0x2
 1884 0034 02       		.byte	0x2
 1885 0035 05       		.byte	0x5
 1886 0036 41040000 		.4byte	.LASF2
 1887 003a 02       		.uleb128 0x2
 1888 003b 02       		.byte	0x2
 1889 003c 07       		.byte	0x7
 1890 003d A2020000 		.4byte	.LASF3
 1891 0041 02       		.uleb128 0x2
 1892 0042 04       		.byte	0x4
 1893 0043 05       		.byte	0x5
 1894 0044 8A010000 		.4byte	.LASF4
 1895 0048 02       		.uleb128 0x2
 1896 0049 04       		.byte	0x4
 1897 004a 07       		.byte	0x7
 1898 004b 76020000 		.4byte	.LASF5
 1899 004f 02       		.uleb128 0x2
 1900 0050 08       		.byte	0x8
 1901 0051 05       		.byte	0x5
 1902 0052 42010000 		.4byte	.LASF6
 1903 0056 02       		.uleb128 0x2
 1904 0057 08       		.byte	0x8
 1905 0058 07       		.byte	0x7
 1906 0059 E5000000 		.4byte	.LASF7
 1907 005d 03       		.uleb128 0x3
 1908 005e 04       		.byte	0x4
 1909 005f 05       		.byte	0x5
 1910 0060 696E7400 		.ascii	"int\000"
 1911 0064 02       		.uleb128 0x2
 1912 0065 04       		.byte	0x4
 1913 0066 07       		.byte	0x7
 1914 0067 4C020000 		.4byte	.LASF8
 1915 006b 04       		.uleb128 0x4
 1916 006c 93010000 		.4byte	.LASF9
 1917 0070 02       		.byte	0x2
 1918 0071 9201     		.2byte	0x192
 1919 0073 2C000000 		.4byte	0x2c
 1920 0077 04       		.uleb128 0x4
 1921 0078 00000000 		.4byte	.LASF10
 1922 007c 02       		.byte	0x2
 1923 007d 9301     		.2byte	0x193
 1924 007f 3A000000 		.4byte	0x3a
 1925 0083 04       		.uleb128 0x4
 1926 0084 D2010000 		.4byte	.LASF11
 1927 0088 02       		.byte	0x2
 1928 0089 9401     		.2byte	0x194
ARM GAS  C:\Users\ilya\AppData\Local\Temp\cckYQUis.s 			page 64


 1929 008b 48000000 		.4byte	0x48
 1930 008f 02       		.uleb128 0x2
 1931 0090 04       		.byte	0x4
 1932 0091 04       		.byte	0x4
 1933 0092 CD030000 		.4byte	.LASF12
 1934 0096 02       		.uleb128 0x2
 1935 0097 08       		.byte	0x8
 1936 0098 04       		.byte	0x4
 1937 0099 A9010000 		.4byte	.LASF13
 1938 009d 04       		.uleb128 0x4
 1939 009e 04050000 		.4byte	.LASF14
 1940 00a2 02       		.byte	0x2
 1941 00a3 A301     		.2byte	0x1a3
 1942 00a5 A9000000 		.4byte	0xa9
 1943 00a9 02       		.uleb128 0x2
 1944 00aa 01       		.byte	0x1
 1945 00ab 08       		.byte	0x8
 1946 00ac FF040000 		.4byte	.LASF15
 1947 00b0 04       		.uleb128 0x4
 1948 00b1 2E040000 		.4byte	.LASF16
 1949 00b5 02       		.byte	0x2
 1950 00b6 3C02     		.2byte	0x23c
 1951 00b8 BC000000 		.4byte	0xbc
 1952 00bc 05       		.uleb128 0x5
 1953 00bd 6B000000 		.4byte	0x6b
 1954 00c1 05       		.uleb128 0x5
 1955 00c2 77000000 		.4byte	0x77
 1956 00c6 04       		.uleb128 0x4
 1957 00c7 37030000 		.4byte	.LASF17
 1958 00cb 02       		.byte	0x2
 1959 00cc 3E02     		.2byte	0x23e
 1960 00ce D2000000 		.4byte	0xd2
 1961 00d2 05       		.uleb128 0x5
 1962 00d3 83000000 		.4byte	0x83
 1963 00d7 02       		.uleb128 0x2
 1964 00d8 08       		.byte	0x8
 1965 00d9 04       		.byte	0x4
 1966 00da 61030000 		.4byte	.LASF18
 1967 00de 02       		.uleb128 0x2
 1968 00df 04       		.byte	0x4
 1969 00e0 07       		.byte	0x7
 1970 00e1 58030000 		.4byte	.LASF19
 1971 00e5 06       		.uleb128 0x6
 1972 00e6 21010000 		.4byte	.LASF20
 1973 00ea 01       		.byte	0x1
 1974 00eb 4C       		.byte	0x4c
 1975 00ec 00000000 		.4byte	.LFB0
 1976 00f0 24000000 		.4byte	.LFE0-.LFB0
 1977 00f4 01       		.uleb128 0x1
 1978 00f5 9C       		.byte	0x9c
 1979 00f6 06       		.uleb128 0x6
 1980 00f7 C3040000 		.4byte	.LASF21
 1981 00fb 01       		.byte	0x1
 1982 00fc 6A       		.byte	0x6a
 1983 00fd 00000000 		.4byte	.LFB1
 1984 0101 3C000000 		.4byte	.LFE1-.LFB1
 1985 0105 01       		.uleb128 0x1
ARM GAS  C:\Users\ilya\AppData\Local\Temp\cckYQUis.s 			page 65


 1986 0106 9C       		.byte	0x9c
 1987 0107 07       		.uleb128 0x7
 1988 0108 99010000 		.4byte	.LASF22
 1989 010c 01       		.byte	0x1
 1990 010d B7       		.byte	0xb7
 1991 010e 00000000 		.4byte	.LFB2
 1992 0112 50000000 		.4byte	.LFE2-.LFB2
 1993 0116 01       		.uleb128 0x1
 1994 0117 9C       		.byte	0x9c
 1995 0118 2B010000 		.4byte	0x12b
 1996 011c 08       		.uleb128 0x8
 1997 011d 1A050000 		.4byte	.LASF24
 1998 0121 01       		.byte	0x1
 1999 0122 B9       		.byte	0xb9
 2000 0123 6B000000 		.4byte	0x6b
 2001 0127 02       		.uleb128 0x2
 2002 0128 91       		.byte	0x91
 2003 0129 77       		.sleb128 -9
 2004 012a 00       		.byte	0
 2005 012b 07       		.uleb128 0x7
 2006 012c 59020000 		.4byte	.LASF23
 2007 0130 01       		.byte	0x1
 2008 0131 F0       		.byte	0xf0
 2009 0132 00000000 		.4byte	.LFB3
 2010 0136 50000000 		.4byte	.LFE3-.LFB3
 2011 013a 01       		.uleb128 0x1
 2012 013b 9C       		.byte	0x9c
 2013 013c 4F010000 		.4byte	0x14f
 2014 0140 08       		.uleb128 0x8
 2015 0141 1A050000 		.4byte	.LASF24
 2016 0145 01       		.byte	0x1
 2017 0146 F2       		.byte	0xf2
 2018 0147 6B000000 		.4byte	0x6b
 2019 014b 02       		.uleb128 0x2
 2020 014c 91       		.byte	0x91
 2021 014d 77       		.sleb128 -9
 2022 014e 00       		.byte	0
 2023 014f 09       		.uleb128 0x9
 2024 0150 1A030000 		.4byte	.LASF50
 2025 0154 01       		.byte	0x1
 2026 0155 2701     		.2byte	0x127
 2027 0157 6B000000 		.4byte	0x6b
 2028 015b 00000000 		.4byte	.LFB4
 2029 015f 18000000 		.4byte	.LFE4-.LFB4
 2030 0163 01       		.uleb128 0x1
 2031 0164 9C       		.byte	0x9c
 2032 0165 0A       		.uleb128 0xa
 2033 0166 7B040000 		.4byte	.LASF25
 2034 016a 01       		.byte	0x1
 2035 016b 3F01     		.2byte	0x13f
 2036 016d 00000000 		.4byte	.LFB5
 2037 0171 20000000 		.4byte	.LFE5-.LFB5
 2038 0175 01       		.uleb128 0x1
 2039 0176 9C       		.byte	0x9c
 2040 0177 8B010000 		.4byte	0x18b
 2041 017b 0B       		.uleb128 0xb
 2042 017c D9010000 		.4byte	.LASF27
ARM GAS  C:\Users\ilya\AppData\Local\Temp\cckYQUis.s 			page 66


 2043 0180 01       		.byte	0x1
 2044 0181 3F01     		.2byte	0x13f
 2045 0183 6B000000 		.4byte	0x6b
 2046 0187 02       		.uleb128 0x2
 2047 0188 91       		.byte	0x91
 2048 0189 77       		.sleb128 -9
 2049 018a 00       		.byte	0
 2050 018b 0A       		.uleb128 0xa
 2051 018c 01040000 		.4byte	.LASF26
 2052 0190 01       		.byte	0x1
 2053 0191 6701     		.2byte	0x167
 2054 0193 00000000 		.4byte	.LFB6
 2055 0197 20000000 		.4byte	.LFE6-.LFB6
 2056 019b 01       		.uleb128 0x1
 2057 019c 9C       		.byte	0x9c
 2058 019d B1010000 		.4byte	0x1b1
 2059 01a1 0B       		.uleb128 0xb
 2060 01a2 13030000 		.4byte	.LASF28
 2061 01a6 01       		.byte	0x1
 2062 01a7 6701     		.2byte	0x167
 2063 01a9 6B000000 		.4byte	0x6b
 2064 01ad 02       		.uleb128 0x2
 2065 01ae 91       		.byte	0x91
 2066 01af 77       		.sleb128 -9
 2067 01b0 00       		.byte	0
 2068 01b1 0C       		.uleb128 0xc
 2069 01b2 0D010000 		.4byte	.LASF32
 2070 01b6 01       		.byte	0x1
 2071 01b7 8801     		.2byte	0x188
 2072 01b9 6B000000 		.4byte	0x6b
 2073 01bd 00000000 		.4byte	.LFB7
 2074 01c1 90000000 		.4byte	.LFE7-.LFB7
 2075 01c5 01       		.uleb128 0x1
 2076 01c6 9C       		.byte	0x9c
 2077 01c7 F9010000 		.4byte	0x1f9
 2078 01cb 0D       		.uleb128 0xd
 2079 01cc BC040000 		.4byte	.LASF29
 2080 01d0 01       		.byte	0x1
 2081 01d1 8A01     		.2byte	0x18a
 2082 01d3 6B000000 		.4byte	0x6b
 2083 01d7 02       		.uleb128 0x2
 2084 01d8 91       		.byte	0x91
 2085 01d9 77       		.sleb128 -9
 2086 01da 0D       		.uleb128 0xd
 2087 01db 0A050000 		.4byte	.LASF30
 2088 01df 01       		.byte	0x1
 2089 01e0 8E01     		.2byte	0x18e
 2090 01e2 77000000 		.4byte	0x77
 2091 01e6 02       		.uleb128 0x2
 2092 01e7 91       		.byte	0x91
 2093 01e8 74       		.sleb128 -12
 2094 01e9 0D       		.uleb128 0xd
 2095 01ea 75030000 		.4byte	.LASF31
 2096 01ee 01       		.byte	0x1
 2097 01ef 8F01     		.2byte	0x18f
 2098 01f1 77000000 		.4byte	0x77
 2099 01f5 02       		.uleb128 0x2
ARM GAS  C:\Users\ilya\AppData\Local\Temp\cckYQUis.s 			page 67


 2100 01f6 91       		.byte	0x91
 2101 01f7 72       		.sleb128 -14
 2102 01f8 00       		.byte	0
 2103 01f9 0C       		.uleb128 0xc
 2104 01fa B7030000 		.4byte	.LASF33
 2105 01fe 01       		.byte	0x1
 2106 01ff E501     		.2byte	0x1e5
 2107 0201 6B000000 		.4byte	0x6b
 2108 0205 00000000 		.4byte	.LFB8
 2109 0209 40000000 		.4byte	.LFE8-.LFB8
 2110 020d 01       		.uleb128 0x1
 2111 020e 9C       		.byte	0x9c
 2112 020f 23020000 		.4byte	0x223
 2113 0213 0D       		.uleb128 0xd
 2114 0214 2B050000 		.4byte	.LASF34
 2115 0218 01       		.byte	0x1
 2116 0219 E701     		.2byte	0x1e7
 2117 021b 6B000000 		.4byte	0x6b
 2118 021f 02       		.uleb128 0x2
 2119 0220 91       		.byte	0x91
 2120 0221 77       		.sleb128 -9
 2121 0222 00       		.byte	0
 2122 0223 0C       		.uleb128 0xc
 2123 0224 A6030000 		.4byte	.LASF35
 2124 0228 01       		.byte	0x1
 2125 0229 1402     		.2byte	0x214
 2126 022b 6B000000 		.4byte	0x6b
 2127 022f 00000000 		.4byte	.LFB9
 2128 0233 B4000000 		.4byte	.LFE9-.LFB9
 2129 0237 01       		.uleb128 0x1
 2130 0238 9C       		.byte	0x9c
 2131 0239 7A020000 		.4byte	0x27a
 2132 023d 0D       		.uleb128 0xd
 2133 023e BC040000 		.4byte	.LASF29
 2134 0242 01       		.byte	0x1
 2135 0243 1602     		.2byte	0x216
 2136 0245 6B000000 		.4byte	0x6b
 2137 0249 02       		.uleb128 0x2
 2138 024a 91       		.byte	0x91
 2139 024b 77       		.sleb128 -9
 2140 024c 0D       		.uleb128 0xd
 2141 024d 86030000 		.4byte	.LASF36
 2142 0251 01       		.byte	0x1
 2143 0252 1702     		.2byte	0x217
 2144 0254 6B000000 		.4byte	0x6b
 2145 0258 02       		.uleb128 0x2
 2146 0259 91       		.byte	0x91
 2147 025a 71       		.sleb128 -15
 2148 025b 0D       		.uleb128 0xd
 2149 025c 0A050000 		.4byte	.LASF30
 2150 0260 01       		.byte	0x1
 2151 0261 1A02     		.2byte	0x21a
 2152 0263 77000000 		.4byte	0x77
 2153 0267 02       		.uleb128 0x2
 2154 0268 91       		.byte	0x91
 2155 0269 74       		.sleb128 -12
 2156 026a 0D       		.uleb128 0xd
ARM GAS  C:\Users\ilya\AppData\Local\Temp\cckYQUis.s 			page 68


 2157 026b 75030000 		.4byte	.LASF31
 2158 026f 01       		.byte	0x1
 2159 0270 1B02     		.2byte	0x21b
 2160 0272 77000000 		.4byte	0x77
 2161 0276 02       		.uleb128 0x2
 2162 0277 91       		.byte	0x91
 2163 0278 72       		.sleb128 -14
 2164 0279 00       		.byte	0
 2165 027a 0E       		.uleb128 0xe
 2166 027b D4000000 		.4byte	.LASF37
 2167 027f 01       		.byte	0x1
 2168 0280 7A02     		.2byte	0x27a
 2169 0282 77000000 		.4byte	0x77
 2170 0286 00000000 		.4byte	.LFB10
 2171 028a 44000000 		.4byte	.LFE10-.LFB10
 2172 028e 01       		.uleb128 0x1
 2173 028f 9C       		.byte	0x9c
 2174 0290 A4020000 		.4byte	0x2a4
 2175 0294 0D       		.uleb128 0xd
 2176 0295 67020000 		.4byte	.LASF38
 2177 0299 01       		.byte	0x1
 2178 029a 7E02     		.2byte	0x27e
 2179 029c 77000000 		.4byte	0x77
 2180 02a0 02       		.uleb128 0x2
 2181 02a1 91       		.byte	0x91
 2182 02a2 6E       		.sleb128 -18
 2183 02a3 00       		.byte	0
 2184 02a4 0C       		.uleb128 0xc
 2185 02a5 79050000 		.4byte	.LASF39
 2186 02a9 01       		.byte	0x1
 2187 02aa AB02     		.2byte	0x2ab
 2188 02ac 77000000 		.4byte	0x77
 2189 02b0 00000000 		.4byte	.LFB11
 2190 02b4 94000000 		.4byte	.LFE11-.LFB11
 2191 02b8 01       		.uleb128 0x1
 2192 02b9 9C       		.byte	0x9c
 2193 02ba CE020000 		.4byte	0x2ce
 2194 02be 0D       		.uleb128 0xd
 2195 02bf 9D020000 		.4byte	.LASF40
 2196 02c3 01       		.byte	0x1
 2197 02c4 AE02     		.2byte	0x2ae
 2198 02c6 77000000 		.4byte	0x77
 2199 02ca 02       		.uleb128 0x2
 2200 02cb 91       		.byte	0x91
 2201 02cc 76       		.sleb128 -10
 2202 02cd 00       		.byte	0
 2203 02ce 0F       		.uleb128 0xf
 2204 02cf 5C010000 		.4byte	.LASF41
 2205 02d3 01       		.byte	0x1
 2206 02d4 F502     		.2byte	0x2f5
 2207 02d6 00000000 		.4byte	.LFB12
 2208 02da 80000000 		.4byte	.LFE12-.LFB12
 2209 02de 01       		.uleb128 0x1
 2210 02df 9C       		.byte	0x9c
 2211 02e0 F4020000 		.4byte	0x2f4
 2212 02e4 0D       		.uleb128 0xd
 2213 02e5 1A050000 		.4byte	.LASF24
ARM GAS  C:\Users\ilya\AppData\Local\Temp\cckYQUis.s 			page 69


 2214 02e9 01       		.byte	0x1
 2215 02ea F702     		.2byte	0x2f7
 2216 02ec 6B000000 		.4byte	0x6b
 2217 02f0 02       		.uleb128 0x2
 2218 02f1 91       		.byte	0x91
 2219 02f2 77       		.sleb128 -9
 2220 02f3 00       		.byte	0
 2221 02f4 0A       		.uleb128 0xa
 2222 02f5 32050000 		.4byte	.LASF42
 2223 02f9 01       		.byte	0x1
 2224 02fa 2D03     		.2byte	0x32d
 2225 02fc 00000000 		.4byte	.LFB13
 2226 0300 14000000 		.4byte	.LFE13-.LFB13
 2227 0304 01       		.uleb128 0x1
 2228 0305 9C       		.byte	0x9c
 2229 0306 1A030000 		.4byte	0x31a
 2230 030a 0B       		.uleb128 0xb
 2231 030b B0010000 		.4byte	.LASF43
 2232 030f 01       		.byte	0x1
 2233 0310 2D03     		.2byte	0x32d
 2234 0312 6B000000 		.4byte	0x6b
 2235 0316 02       		.uleb128 0x2
 2236 0317 91       		.byte	0x91
 2237 0318 77       		.sleb128 -9
 2238 0319 00       		.byte	0
 2239 031a 0A       		.uleb128 0xa
 2240 031b D1040000 		.4byte	.LASF44
 2241 031f 01       		.byte	0x1
 2242 0320 5903     		.2byte	0x359
 2243 0322 00000000 		.4byte	.LFB14
 2244 0326 20000000 		.4byte	.LFE14-.LFB14
 2245 032a 01       		.uleb128 0x1
 2246 032b 9C       		.byte	0x9c
 2247 032c 40030000 		.4byte	0x340
 2248 0330 0B       		.uleb128 0xb
 2249 0331 6D030000 		.4byte	.LASF45
 2250 0335 01       		.byte	0x1
 2251 0336 5903     		.2byte	0x359
 2252 0338 6B000000 		.4byte	0x6b
 2253 033c 02       		.uleb128 0x2
 2254 033d 91       		.byte	0x91
 2255 033e 77       		.sleb128 -9
 2256 033f 00       		.byte	0
 2257 0340 0A       		.uleb128 0xa
 2258 0341 E8040000 		.4byte	.LASF46
 2259 0345 01       		.byte	0x1
 2260 0346 6D03     		.2byte	0x36d
 2261 0348 00000000 		.4byte	.LFB15
 2262 034c 20000000 		.4byte	.LFE15-.LFB15
 2263 0350 01       		.uleb128 0x1
 2264 0351 9C       		.byte	0x9c
 2265 0352 66030000 		.4byte	0x366
 2266 0356 0B       		.uleb128 0xb
 2267 0357 6D030000 		.4byte	.LASF45
 2268 035b 01       		.byte	0x1
 2269 035c 6D03     		.2byte	0x36d
 2270 035e 6B000000 		.4byte	0x6b
ARM GAS  C:\Users\ilya\AppData\Local\Temp\cckYQUis.s 			page 70


 2271 0362 02       		.uleb128 0x2
 2272 0363 91       		.byte	0x91
 2273 0364 77       		.sleb128 -9
 2274 0365 00       		.byte	0
 2275 0366 0A       		.uleb128 0xa
 2276 0367 E5030000 		.4byte	.LASF47
 2277 036b 01       		.byte	0x1
 2278 036c 8C03     		.2byte	0x38c
 2279 036e 00000000 		.4byte	.LFB16
 2280 0372 20000000 		.4byte	.LFE16-.LFB16
 2281 0376 01       		.uleb128 0x1
 2282 0377 9C       		.byte	0x9c
 2283 0378 8C030000 		.4byte	0x38c
 2284 037c 0B       		.uleb128 0xb
 2285 037d 13030000 		.4byte	.LASF28
 2286 0381 01       		.byte	0x1
 2287 0382 8C03     		.2byte	0x38c
 2288 0384 6B000000 		.4byte	0x6b
 2289 0388 02       		.uleb128 0x2
 2290 0389 91       		.byte	0x91
 2291 038a 77       		.sleb128 -9
 2292 038b 00       		.byte	0
 2293 038c 0A       		.uleb128 0xa
 2294 038d 88020000 		.4byte	.LASF48
 2295 0391 01       		.byte	0x1
 2296 0392 AE03     		.2byte	0x3ae
 2297 0394 00000000 		.4byte	.LFB17
 2298 0398 2C000000 		.4byte	.LFE17-.LFB17
 2299 039c 01       		.uleb128 0x1
 2300 039d 9C       		.byte	0x9c
 2301 039e B2030000 		.4byte	0x3b2
 2302 03a2 0B       		.uleb128 0xb
 2303 03a3 21000000 		.4byte	.LASF49
 2304 03a7 01       		.byte	0x1
 2305 03a8 AE03     		.2byte	0x3ae
 2306 03aa 6B000000 		.4byte	0x6b
 2307 03ae 02       		.uleb128 0x2
 2308 03af 91       		.byte	0x91
 2309 03b0 77       		.sleb128 -9
 2310 03b1 00       		.byte	0
 2311 03b2 09       		.uleb128 0x9
 2312 03b3 F7010000 		.4byte	.LASF51
 2313 03b7 01       		.byte	0x1
 2314 03b8 EB03     		.2byte	0x3eb
 2315 03ba 6B000000 		.4byte	0x6b
 2316 03be 00000000 		.4byte	.LFB18
 2317 03c2 18000000 		.4byte	.LFE18-.LFB18
 2318 03c6 01       		.uleb128 0x1
 2319 03c7 9C       		.byte	0x9c
 2320 03c8 0A       		.uleb128 0xa
 2321 03c9 68050000 		.4byte	.LASF52
 2322 03cd 01       		.byte	0x1
 2323 03ce 1104     		.2byte	0x411
 2324 03d0 00000000 		.4byte	.LFB19
 2325 03d4 34000000 		.4byte	.LFE19-.LFB19
 2326 03d8 01       		.uleb128 0x1
 2327 03d9 9C       		.byte	0x9c
ARM GAS  C:\Users\ilya\AppData\Local\Temp\cckYQUis.s 			page 71


 2328 03da EE030000 		.4byte	0x3ee
 2329 03de 0B       		.uleb128 0xb
 2330 03df 21000000 		.4byte	.LASF49
 2331 03e3 01       		.byte	0x1
 2332 03e4 1104     		.2byte	0x411
 2333 03e6 6B000000 		.4byte	0x6b
 2334 03ea 02       		.uleb128 0x2
 2335 03eb 91       		.byte	0x91
 2336 03ec 77       		.sleb128 -9
 2337 03ed 00       		.byte	0
 2338 03ee 0F       		.uleb128 0xf
 2339 03ef 2C000000 		.4byte	.LASF53
 2340 03f3 01       		.byte	0x1
 2341 03f4 7904     		.2byte	0x479
 2342 03f6 00000000 		.4byte	.LFB20
 2343 03fa 44000000 		.4byte	.LFE20-.LFB20
 2344 03fe 01       		.uleb128 0x1
 2345 03ff 9C       		.byte	0x9c
 2346 0400 23040000 		.4byte	0x423
 2347 0404 0B       		.uleb128 0xb
 2348 0405 3F000000 		.4byte	.LASF54
 2349 0409 01       		.byte	0x1
 2350 040a 7904     		.2byte	0x479
 2351 040c 23040000 		.4byte	0x423
 2352 0410 02       		.uleb128 0x2
 2353 0411 91       		.byte	0x91
 2354 0412 6C       		.sleb128 -20
 2355 0413 0D       		.uleb128 0xd
 2356 0414 0A030000 		.4byte	.LASF55
 2357 0418 01       		.byte	0x1
 2358 0419 7B04     		.2byte	0x47b
 2359 041b 77000000 		.4byte	0x77
 2360 041f 02       		.uleb128 0x2
 2361 0420 91       		.byte	0x91
 2362 0421 76       		.sleb128 -10
 2363 0422 00       		.byte	0
 2364 0423 10       		.uleb128 0x10
 2365 0424 04       		.byte	0x4
 2366 0425 29040000 		.4byte	0x429
 2367 0429 11       		.uleb128 0x11
 2368 042a 9D000000 		.4byte	0x9d
 2369 042e 0F       		.uleb128 0xf
 2370 042f D3030000 		.4byte	.LASF56
 2371 0433 01       		.byte	0x1
 2372 0434 A704     		.2byte	0x4a7
 2373 0436 00000000 		.4byte	.LFB21
 2374 043a 44000000 		.4byte	.LFE21-.LFB21
 2375 043e 01       		.uleb128 0x1
 2376 043f 9C       		.byte	0x9c
 2377 0440 72040000 		.4byte	0x472
 2378 0444 0B       		.uleb128 0xb
 2379 0445 3F000000 		.4byte	.LASF54
 2380 0449 01       		.byte	0x1
 2381 044a A704     		.2byte	0x4a7
 2382 044c 72040000 		.4byte	0x472
 2383 0450 02       		.uleb128 0x2
 2384 0451 91       		.byte	0x91
ARM GAS  C:\Users\ilya\AppData\Local\Temp\cckYQUis.s 			page 72


 2385 0452 6C       		.sleb128 -20
 2386 0453 0B       		.uleb128 0xb
 2387 0454 99040000 		.4byte	.LASF57
 2388 0458 01       		.byte	0x1
 2389 0459 A704     		.2byte	0x4a7
 2390 045b 6B000000 		.4byte	0x6b
 2391 045f 02       		.uleb128 0x2
 2392 0460 91       		.byte	0x91
 2393 0461 6B       		.sleb128 -21
 2394 0462 0D       		.uleb128 0xd
 2395 0463 0A030000 		.4byte	.LASF55
 2396 0467 01       		.byte	0x1
 2397 0468 AA04     		.2byte	0x4aa
 2398 046a 6B000000 		.4byte	0x6b
 2399 046e 02       		.uleb128 0x2
 2400 046f 91       		.byte	0x91
 2401 0470 77       		.sleb128 -9
 2402 0471 00       		.byte	0
 2403 0472 10       		.uleb128 0x10
 2404 0473 04       		.byte	0x4
 2405 0474 78040000 		.4byte	0x478
 2406 0478 11       		.uleb128 0x11
 2407 0479 6B000000 		.4byte	0x6b
 2408 047d 0F       		.uleb128 0xf
 2409 047e FC000000 		.4byte	.LASF58
 2410 0482 01       		.byte	0x1
 2411 0483 CE04     		.2byte	0x4ce
 2412 0485 00000000 		.4byte	.LFB22
 2413 0489 34000000 		.4byte	.LFE22-.LFB22
 2414 048d 01       		.uleb128 0x1
 2415 048e 9C       		.byte	0x9c
 2416 048f A3040000 		.4byte	0x4a3
 2417 0493 0B       		.uleb128 0xb
 2418 0494 21000000 		.4byte	.LASF49
 2419 0498 01       		.byte	0x1
 2420 0499 CE04     		.2byte	0x4ce
 2421 049b 6B000000 		.4byte	0x6b
 2422 049f 02       		.uleb128 0x2
 2423 04a0 91       		.byte	0x91
 2424 04a1 77       		.sleb128 -9
 2425 04a2 00       		.byte	0
 2426 04a3 0C       		.uleb128 0xc
 2427 04a4 A3040000 		.4byte	.LASF59
 2428 04a8 01       		.byte	0x1
 2429 04a9 F904     		.2byte	0x4f9
 2430 04ab 6B000000 		.4byte	0x6b
 2431 04af 00000000 		.4byte	.LFB23
 2432 04b3 40000000 		.4byte	.LFE23-.LFB23
 2433 04b7 01       		.uleb128 0x1
 2434 04b8 9C       		.byte	0x9c
 2435 04b9 CD040000 		.4byte	0x4cd
 2436 04bd 0D       		.uleb128 0xd
 2437 04be 9D020000 		.4byte	.LASF40
 2438 04c2 01       		.byte	0x1
 2439 04c3 FC04     		.2byte	0x4fc
 2440 04c5 6B000000 		.4byte	0x6b
 2441 04c9 02       		.uleb128 0x2
ARM GAS  C:\Users\ilya\AppData\Local\Temp\cckYQUis.s 			page 73


 2442 04ca 91       		.byte	0x91
 2443 04cb 77       		.sleb128 -9
 2444 04cc 00       		.byte	0
 2445 04cd 0F       		.uleb128 0xf
 2446 04ce 8F030000 		.4byte	.LASF60
 2447 04d2 01       		.byte	0x1
 2448 04d3 4A05     		.2byte	0x54a
 2449 04d5 00000000 		.4byte	.LFB24
 2450 04d9 44000000 		.4byte	.LFE24-.LFB24
 2451 04dd 01       		.uleb128 0x1
 2452 04de 9C       		.byte	0x9c
 2453 04df F3040000 		.4byte	0x4f3
 2454 04e3 0D       		.uleb128 0xd
 2455 04e4 1A050000 		.4byte	.LASF24
 2456 04e8 01       		.byte	0x1
 2457 04e9 4C05     		.2byte	0x54c
 2458 04eb 6B000000 		.4byte	0x6b
 2459 04ef 02       		.uleb128 0x2
 2460 04f0 91       		.byte	0x91
 2461 04f1 77       		.sleb128 -9
 2462 04f2 00       		.byte	0
 2463 04f3 0F       		.uleb128 0xf
 2464 04f4 45030000 		.4byte	.LASF61
 2465 04f8 01       		.byte	0x1
 2466 04f9 A005     		.2byte	0x5a0
 2467 04fb 00000000 		.4byte	.LFB25
 2468 04ff A0000000 		.4byte	.LFE25-.LFB25
 2469 0503 01       		.uleb128 0x1
 2470 0504 9C       		.byte	0x9c
 2471 0505 32050000 		.4byte	0x532
 2472 0509 0B       		.uleb128 0xb
 2473 050a 44020000 		.4byte	.LASF62
 2474 050e 01       		.byte	0x1
 2475 050f A005     		.2byte	0x5a0
 2476 0511 6B000000 		.4byte	0x6b
 2477 0515 02       		.uleb128 0x2
 2478 0516 91       		.byte	0x91
 2479 0517 6F       		.sleb128 -17
 2480 0518 12       		.uleb128 0x12
 2481 0519 12000000 		.4byte	.LBB2
 2482 051d 78000000 		.4byte	.LBE2-.LBB2
 2483 0521 0D       		.uleb128 0xd
 2484 0522 3D030000 		.4byte	.LASF63
 2485 0526 01       		.byte	0x1
 2486 0527 A805     		.2byte	0x5a8
 2487 0529 6B000000 		.4byte	0x6b
 2488 052d 02       		.uleb128 0x2
 2489 052e 91       		.byte	0x91
 2490 052f 77       		.sleb128 -9
 2491 0530 00       		.byte	0
 2492 0531 00       		.byte	0
 2493 0532 0F       		.uleb128 0xf
 2494 0533 61040000 		.4byte	.LASF64
 2495 0537 01       		.byte	0x1
 2496 0538 2406     		.2byte	0x624
 2497 053a 00000000 		.4byte	.LFB26
 2498 053e 3E000000 		.4byte	.LFE26-.LFB26
ARM GAS  C:\Users\ilya\AppData\Local\Temp\cckYQUis.s 			page 74


 2499 0542 01       		.uleb128 0x1
 2500 0543 9C       		.byte	0x9c
 2501 0544 58050000 		.4byte	0x558
 2502 0548 0B       		.uleb128 0xb
 2503 0549 B0010000 		.4byte	.LASF43
 2504 054d 01       		.byte	0x1
 2505 054e 2406     		.2byte	0x624
 2506 0550 6B000000 		.4byte	0x6b
 2507 0554 02       		.uleb128 0x2
 2508 0555 91       		.byte	0x91
 2509 0556 77       		.sleb128 -9
 2510 0557 00       		.byte	0
 2511 0558 13       		.uleb128 0x13
 2512 0559 E1010000 		.4byte	.LASF65
 2513 055d 01       		.byte	0x1
 2514 055e 5006     		.2byte	0x650
 2515 0560 00000000 		.4byte	.LFB27
 2516 0564 2C000000 		.4byte	.LFE27-.LFB27
 2517 0568 01       		.uleb128 0x1
 2518 0569 9C       		.byte	0x9c
 2519 056a 13       		.uleb128 0x13
 2520 056b 4B040000 		.4byte	.LASF66
 2521 056f 01       		.byte	0x1
 2522 0570 7006     		.2byte	0x670
 2523 0572 00000000 		.4byte	.LFB28
 2524 0576 2C000000 		.4byte	.LFE28-.LFB28
 2525 057a 01       		.uleb128 0x1
 2526 057b 9C       		.byte	0x9c
 2527 057c 14       		.uleb128 0x14
 2528 057d 1D040000 		.4byte	.LASF67
 2529 0581 01       		.byte	0x1
 2530 0582 1B       		.byte	0x1b
 2531 0583 6B000000 		.4byte	0x6b
 2532 0587 05       		.uleb128 0x5
 2533 0588 03       		.byte	0x3
 2534 0589 00000000 		.4byte	UART_ACS_initVar
 2535 058d 14       		.uleb128 0x14
 2536 058e 2F020000 		.4byte	.LASF68
 2537 0592 01       		.byte	0x1
 2538 0593 24       		.byte	0x24
 2539 0594 6B000000 		.4byte	0x6b
 2540 0598 05       		.uleb128 0x5
 2541 0599 03       		.byte	0x3
 2542 059a 00000000 		.4byte	UART_ACS_errorStatus
 2543 059e 15       		.uleb128 0x15
 2544 059f BC000000 		.4byte	0xbc
 2545 05a3 AE050000 		.4byte	0x5ae
 2546 05a7 16       		.uleb128 0x16
 2547 05a8 DE000000 		.4byte	0xde
 2548 05ac FF       		.byte	0xff
 2549 05ad 00       		.byte	0
 2550 05ae 14       		.uleb128 0x14
 2551 05af 30010000 		.4byte	.LASF69
 2552 05b3 01       		.byte	0x1
 2553 05b4 25       		.byte	0x25
 2554 05b5 BF050000 		.4byte	0x5bf
 2555 05b9 05       		.uleb128 0x5
ARM GAS  C:\Users\ilya\AppData\Local\Temp\cckYQUis.s 			page 75


 2556 05ba 03       		.byte	0x3
 2557 05bb 00000000 		.4byte	UART_ACS_rxBuffer
 2558 05bf 05       		.uleb128 0x5
 2559 05c0 9E050000 		.4byte	0x59e
 2560 05c4 14       		.uleb128 0x14
 2561 05c5 BC010000 		.4byte	.LASF70
 2562 05c9 01       		.byte	0x1
 2563 05ca 26       		.byte	0x26
 2564 05cb C1000000 		.4byte	0xc1
 2565 05cf 05       		.uleb128 0x5
 2566 05d0 03       		.byte	0x3
 2567 05d1 00000000 		.4byte	UART_ACS_rxBufferRead
 2568 05d5 14       		.uleb128 0x14
 2569 05d6 73010000 		.4byte	.LASF71
 2570 05da 01       		.byte	0x1
 2571 05db 27       		.byte	0x27
 2572 05dc C1000000 		.4byte	0xc1
 2573 05e0 05       		.uleb128 0x5
 2574 05e1 03       		.byte	0x3
 2575 05e2 00000000 		.4byte	UART_ACS_rxBufferWrite
 2576 05e6 14       		.uleb128 0x14
 2577 05e7 4C050000 		.4byte	.LASF72
 2578 05eb 01       		.byte	0x1
 2579 05ec 28       		.byte	0x28
 2580 05ed BC000000 		.4byte	0xbc
 2581 05f1 05       		.uleb128 0x5
 2582 05f2 03       		.byte	0x3
 2583 05f3 00000000 		.4byte	UART_ACS_rxBufferLoopDetect
 2584 05f7 14       		.uleb128 0x14
 2585 05f8 07000000 		.4byte	.LASF73
 2586 05fc 01       		.byte	0x1
 2587 05fd 29       		.byte	0x29
 2588 05fe BC000000 		.4byte	0xbc
 2589 0602 05       		.uleb128 0x5
 2590 0603 03       		.byte	0x3
 2591 0604 00000000 		.4byte	UART_ACS_rxBufferOverflow
 2592 0608 00       		.byte	0
 2593              		.section	.debug_abbrev,"",%progbits
 2594              	.Ldebug_abbrev0:
 2595 0000 01       		.uleb128 0x1
 2596 0001 11       		.uleb128 0x11
 2597 0002 01       		.byte	0x1
 2598 0003 25       		.uleb128 0x25
 2599 0004 0E       		.uleb128 0xe
 2600 0005 13       		.uleb128 0x13
 2601 0006 0B       		.uleb128 0xb
 2602 0007 03       		.uleb128 0x3
 2603 0008 0E       		.uleb128 0xe
 2604 0009 1B       		.uleb128 0x1b
 2605 000a 0E       		.uleb128 0xe
 2606 000b 55       		.uleb128 0x55
 2607 000c 17       		.uleb128 0x17
 2608 000d 11       		.uleb128 0x11
 2609 000e 01       		.uleb128 0x1
 2610 000f 10       		.uleb128 0x10
 2611 0010 17       		.uleb128 0x17
 2612 0011 00       		.byte	0
ARM GAS  C:\Users\ilya\AppData\Local\Temp\cckYQUis.s 			page 76


 2613 0012 00       		.byte	0
 2614 0013 02       		.uleb128 0x2
 2615 0014 24       		.uleb128 0x24
 2616 0015 00       		.byte	0
 2617 0016 0B       		.uleb128 0xb
 2618 0017 0B       		.uleb128 0xb
 2619 0018 3E       		.uleb128 0x3e
 2620 0019 0B       		.uleb128 0xb
 2621 001a 03       		.uleb128 0x3
 2622 001b 0E       		.uleb128 0xe
 2623 001c 00       		.byte	0
 2624 001d 00       		.byte	0
 2625 001e 03       		.uleb128 0x3
 2626 001f 24       		.uleb128 0x24
 2627 0020 00       		.byte	0
 2628 0021 0B       		.uleb128 0xb
 2629 0022 0B       		.uleb128 0xb
 2630 0023 3E       		.uleb128 0x3e
 2631 0024 0B       		.uleb128 0xb
 2632 0025 03       		.uleb128 0x3
 2633 0026 08       		.uleb128 0x8
 2634 0027 00       		.byte	0
 2635 0028 00       		.byte	0
 2636 0029 04       		.uleb128 0x4
 2637 002a 16       		.uleb128 0x16
 2638 002b 00       		.byte	0
 2639 002c 03       		.uleb128 0x3
 2640 002d 0E       		.uleb128 0xe
 2641 002e 3A       		.uleb128 0x3a
 2642 002f 0B       		.uleb128 0xb
 2643 0030 3B       		.uleb128 0x3b
 2644 0031 05       		.uleb128 0x5
 2645 0032 49       		.uleb128 0x49
 2646 0033 13       		.uleb128 0x13
 2647 0034 00       		.byte	0
 2648 0035 00       		.byte	0
 2649 0036 05       		.uleb128 0x5
 2650 0037 35       		.uleb128 0x35
 2651 0038 00       		.byte	0
 2652 0039 49       		.uleb128 0x49
 2653 003a 13       		.uleb128 0x13
 2654 003b 00       		.byte	0
 2655 003c 00       		.byte	0
 2656 003d 06       		.uleb128 0x6
 2657 003e 2E       		.uleb128 0x2e
 2658 003f 00       		.byte	0
 2659 0040 3F       		.uleb128 0x3f
 2660 0041 19       		.uleb128 0x19
 2661 0042 03       		.uleb128 0x3
 2662 0043 0E       		.uleb128 0xe
 2663 0044 3A       		.uleb128 0x3a
 2664 0045 0B       		.uleb128 0xb
 2665 0046 3B       		.uleb128 0x3b
 2666 0047 0B       		.uleb128 0xb
 2667 0048 27       		.uleb128 0x27
 2668 0049 19       		.uleb128 0x19
 2669 004a 11       		.uleb128 0x11
ARM GAS  C:\Users\ilya\AppData\Local\Temp\cckYQUis.s 			page 77


 2670 004b 01       		.uleb128 0x1
 2671 004c 12       		.uleb128 0x12
 2672 004d 06       		.uleb128 0x6
 2673 004e 40       		.uleb128 0x40
 2674 004f 18       		.uleb128 0x18
 2675 0050 9642     		.uleb128 0x2116
 2676 0052 19       		.uleb128 0x19
 2677 0053 00       		.byte	0
 2678 0054 00       		.byte	0
 2679 0055 07       		.uleb128 0x7
 2680 0056 2E       		.uleb128 0x2e
 2681 0057 01       		.byte	0x1
 2682 0058 3F       		.uleb128 0x3f
 2683 0059 19       		.uleb128 0x19
 2684 005a 03       		.uleb128 0x3
 2685 005b 0E       		.uleb128 0xe
 2686 005c 3A       		.uleb128 0x3a
 2687 005d 0B       		.uleb128 0xb
 2688 005e 3B       		.uleb128 0x3b
 2689 005f 0B       		.uleb128 0xb
 2690 0060 27       		.uleb128 0x27
 2691 0061 19       		.uleb128 0x19
 2692 0062 11       		.uleb128 0x11
 2693 0063 01       		.uleb128 0x1
 2694 0064 12       		.uleb128 0x12
 2695 0065 06       		.uleb128 0x6
 2696 0066 40       		.uleb128 0x40
 2697 0067 18       		.uleb128 0x18
 2698 0068 9642     		.uleb128 0x2116
 2699 006a 19       		.uleb128 0x19
 2700 006b 01       		.uleb128 0x1
 2701 006c 13       		.uleb128 0x13
 2702 006d 00       		.byte	0
 2703 006e 00       		.byte	0
 2704 006f 08       		.uleb128 0x8
 2705 0070 34       		.uleb128 0x34
 2706 0071 00       		.byte	0
 2707 0072 03       		.uleb128 0x3
 2708 0073 0E       		.uleb128 0xe
 2709 0074 3A       		.uleb128 0x3a
 2710 0075 0B       		.uleb128 0xb
 2711 0076 3B       		.uleb128 0x3b
 2712 0077 0B       		.uleb128 0xb
 2713 0078 49       		.uleb128 0x49
 2714 0079 13       		.uleb128 0x13
 2715 007a 02       		.uleb128 0x2
 2716 007b 18       		.uleb128 0x18
 2717 007c 00       		.byte	0
 2718 007d 00       		.byte	0
 2719 007e 09       		.uleb128 0x9
 2720 007f 2E       		.uleb128 0x2e
 2721 0080 00       		.byte	0
 2722 0081 3F       		.uleb128 0x3f
 2723 0082 19       		.uleb128 0x19
 2724 0083 03       		.uleb128 0x3
 2725 0084 0E       		.uleb128 0xe
 2726 0085 3A       		.uleb128 0x3a
ARM GAS  C:\Users\ilya\AppData\Local\Temp\cckYQUis.s 			page 78


 2727 0086 0B       		.uleb128 0xb
 2728 0087 3B       		.uleb128 0x3b
 2729 0088 05       		.uleb128 0x5
 2730 0089 27       		.uleb128 0x27
 2731 008a 19       		.uleb128 0x19
 2732 008b 49       		.uleb128 0x49
 2733 008c 13       		.uleb128 0x13
 2734 008d 11       		.uleb128 0x11
 2735 008e 01       		.uleb128 0x1
 2736 008f 12       		.uleb128 0x12
 2737 0090 06       		.uleb128 0x6
 2738 0091 40       		.uleb128 0x40
 2739 0092 18       		.uleb128 0x18
 2740 0093 9742     		.uleb128 0x2117
 2741 0095 19       		.uleb128 0x19
 2742 0096 00       		.byte	0
 2743 0097 00       		.byte	0
 2744 0098 0A       		.uleb128 0xa
 2745 0099 2E       		.uleb128 0x2e
 2746 009a 01       		.byte	0x1
 2747 009b 3F       		.uleb128 0x3f
 2748 009c 19       		.uleb128 0x19
 2749 009d 03       		.uleb128 0x3
 2750 009e 0E       		.uleb128 0xe
 2751 009f 3A       		.uleb128 0x3a
 2752 00a0 0B       		.uleb128 0xb
 2753 00a1 3B       		.uleb128 0x3b
 2754 00a2 05       		.uleb128 0x5
 2755 00a3 27       		.uleb128 0x27
 2756 00a4 19       		.uleb128 0x19
 2757 00a5 11       		.uleb128 0x11
 2758 00a6 01       		.uleb128 0x1
 2759 00a7 12       		.uleb128 0x12
 2760 00a8 06       		.uleb128 0x6
 2761 00a9 40       		.uleb128 0x40
 2762 00aa 18       		.uleb128 0x18
 2763 00ab 9742     		.uleb128 0x2117
 2764 00ad 19       		.uleb128 0x19
 2765 00ae 01       		.uleb128 0x1
 2766 00af 13       		.uleb128 0x13
 2767 00b0 00       		.byte	0
 2768 00b1 00       		.byte	0
 2769 00b2 0B       		.uleb128 0xb
 2770 00b3 05       		.uleb128 0x5
 2771 00b4 00       		.byte	0
 2772 00b5 03       		.uleb128 0x3
 2773 00b6 0E       		.uleb128 0xe
 2774 00b7 3A       		.uleb128 0x3a
 2775 00b8 0B       		.uleb128 0xb
 2776 00b9 3B       		.uleb128 0x3b
 2777 00ba 05       		.uleb128 0x5
 2778 00bb 49       		.uleb128 0x49
 2779 00bc 13       		.uleb128 0x13
 2780 00bd 02       		.uleb128 0x2
 2781 00be 18       		.uleb128 0x18
 2782 00bf 00       		.byte	0
 2783 00c0 00       		.byte	0
ARM GAS  C:\Users\ilya\AppData\Local\Temp\cckYQUis.s 			page 79


 2784 00c1 0C       		.uleb128 0xc
 2785 00c2 2E       		.uleb128 0x2e
 2786 00c3 01       		.byte	0x1
 2787 00c4 3F       		.uleb128 0x3f
 2788 00c5 19       		.uleb128 0x19
 2789 00c6 03       		.uleb128 0x3
 2790 00c7 0E       		.uleb128 0xe
 2791 00c8 3A       		.uleb128 0x3a
 2792 00c9 0B       		.uleb128 0xb
 2793 00ca 3B       		.uleb128 0x3b
 2794 00cb 05       		.uleb128 0x5
 2795 00cc 27       		.uleb128 0x27
 2796 00cd 19       		.uleb128 0x19
 2797 00ce 49       		.uleb128 0x49
 2798 00cf 13       		.uleb128 0x13
 2799 00d0 11       		.uleb128 0x11
 2800 00d1 01       		.uleb128 0x1
 2801 00d2 12       		.uleb128 0x12
 2802 00d3 06       		.uleb128 0x6
 2803 00d4 40       		.uleb128 0x40
 2804 00d5 18       		.uleb128 0x18
 2805 00d6 9742     		.uleb128 0x2117
 2806 00d8 19       		.uleb128 0x19
 2807 00d9 01       		.uleb128 0x1
 2808 00da 13       		.uleb128 0x13
 2809 00db 00       		.byte	0
 2810 00dc 00       		.byte	0
 2811 00dd 0D       		.uleb128 0xd
 2812 00de 34       		.uleb128 0x34
 2813 00df 00       		.byte	0
 2814 00e0 03       		.uleb128 0x3
 2815 00e1 0E       		.uleb128 0xe
 2816 00e2 3A       		.uleb128 0x3a
 2817 00e3 0B       		.uleb128 0xb
 2818 00e4 3B       		.uleb128 0x3b
 2819 00e5 05       		.uleb128 0x5
 2820 00e6 49       		.uleb128 0x49
 2821 00e7 13       		.uleb128 0x13
 2822 00e8 02       		.uleb128 0x2
 2823 00e9 18       		.uleb128 0x18
 2824 00ea 00       		.byte	0
 2825 00eb 00       		.byte	0
 2826 00ec 0E       		.uleb128 0xe
 2827 00ed 2E       		.uleb128 0x2e
 2828 00ee 01       		.byte	0x1
 2829 00ef 3F       		.uleb128 0x3f
 2830 00f0 19       		.uleb128 0x19
 2831 00f1 03       		.uleb128 0x3
 2832 00f2 0E       		.uleb128 0xe
 2833 00f3 3A       		.uleb128 0x3a
 2834 00f4 0B       		.uleb128 0xb
 2835 00f5 3B       		.uleb128 0x3b
 2836 00f6 05       		.uleb128 0x5
 2837 00f7 27       		.uleb128 0x27
 2838 00f8 19       		.uleb128 0x19
 2839 00f9 49       		.uleb128 0x49
 2840 00fa 13       		.uleb128 0x13
ARM GAS  C:\Users\ilya\AppData\Local\Temp\cckYQUis.s 			page 80


 2841 00fb 11       		.uleb128 0x11
 2842 00fc 01       		.uleb128 0x1
 2843 00fd 12       		.uleb128 0x12
 2844 00fe 06       		.uleb128 0x6
 2845 00ff 40       		.uleb128 0x40
 2846 0100 18       		.uleb128 0x18
 2847 0101 9642     		.uleb128 0x2116
 2848 0103 19       		.uleb128 0x19
 2849 0104 01       		.uleb128 0x1
 2850 0105 13       		.uleb128 0x13
 2851 0106 00       		.byte	0
 2852 0107 00       		.byte	0
 2853 0108 0F       		.uleb128 0xf
 2854 0109 2E       		.uleb128 0x2e
 2855 010a 01       		.byte	0x1
 2856 010b 3F       		.uleb128 0x3f
 2857 010c 19       		.uleb128 0x19
 2858 010d 03       		.uleb128 0x3
 2859 010e 0E       		.uleb128 0xe
 2860 010f 3A       		.uleb128 0x3a
 2861 0110 0B       		.uleb128 0xb
 2862 0111 3B       		.uleb128 0x3b
 2863 0112 05       		.uleb128 0x5
 2864 0113 27       		.uleb128 0x27
 2865 0114 19       		.uleb128 0x19
 2866 0115 11       		.uleb128 0x11
 2867 0116 01       		.uleb128 0x1
 2868 0117 12       		.uleb128 0x12
 2869 0118 06       		.uleb128 0x6
 2870 0119 40       		.uleb128 0x40
 2871 011a 18       		.uleb128 0x18
 2872 011b 9642     		.uleb128 0x2116
 2873 011d 19       		.uleb128 0x19
 2874 011e 01       		.uleb128 0x1
 2875 011f 13       		.uleb128 0x13
 2876 0120 00       		.byte	0
 2877 0121 00       		.byte	0
 2878 0122 10       		.uleb128 0x10
 2879 0123 0F       		.uleb128 0xf
 2880 0124 00       		.byte	0
 2881 0125 0B       		.uleb128 0xb
 2882 0126 0B       		.uleb128 0xb
 2883 0127 49       		.uleb128 0x49
 2884 0128 13       		.uleb128 0x13
 2885 0129 00       		.byte	0
 2886 012a 00       		.byte	0
 2887 012b 11       		.uleb128 0x11
 2888 012c 26       		.uleb128 0x26
 2889 012d 00       		.byte	0
 2890 012e 49       		.uleb128 0x49
 2891 012f 13       		.uleb128 0x13
 2892 0130 00       		.byte	0
 2893 0131 00       		.byte	0
 2894 0132 12       		.uleb128 0x12
 2895 0133 0B       		.uleb128 0xb
 2896 0134 01       		.byte	0x1
 2897 0135 11       		.uleb128 0x11
ARM GAS  C:\Users\ilya\AppData\Local\Temp\cckYQUis.s 			page 81


 2898 0136 01       		.uleb128 0x1
 2899 0137 12       		.uleb128 0x12
 2900 0138 06       		.uleb128 0x6
 2901 0139 00       		.byte	0
 2902 013a 00       		.byte	0
 2903 013b 13       		.uleb128 0x13
 2904 013c 2E       		.uleb128 0x2e
 2905 013d 00       		.byte	0
 2906 013e 3F       		.uleb128 0x3f
 2907 013f 19       		.uleb128 0x19
 2908 0140 03       		.uleb128 0x3
 2909 0141 0E       		.uleb128 0xe
 2910 0142 3A       		.uleb128 0x3a
 2911 0143 0B       		.uleb128 0xb
 2912 0144 3B       		.uleb128 0x3b
 2913 0145 05       		.uleb128 0x5
 2914 0146 27       		.uleb128 0x27
 2915 0147 19       		.uleb128 0x19
 2916 0148 11       		.uleb128 0x11
 2917 0149 01       		.uleb128 0x1
 2918 014a 12       		.uleb128 0x12
 2919 014b 06       		.uleb128 0x6
 2920 014c 40       		.uleb128 0x40
 2921 014d 18       		.uleb128 0x18
 2922 014e 9642     		.uleb128 0x2116
 2923 0150 19       		.uleb128 0x19
 2924 0151 00       		.byte	0
 2925 0152 00       		.byte	0
 2926 0153 14       		.uleb128 0x14
 2927 0154 34       		.uleb128 0x34
 2928 0155 00       		.byte	0
 2929 0156 03       		.uleb128 0x3
 2930 0157 0E       		.uleb128 0xe
 2931 0158 3A       		.uleb128 0x3a
 2932 0159 0B       		.uleb128 0xb
 2933 015a 3B       		.uleb128 0x3b
 2934 015b 0B       		.uleb128 0xb
 2935 015c 49       		.uleb128 0x49
 2936 015d 13       		.uleb128 0x13
 2937 015e 3F       		.uleb128 0x3f
 2938 015f 19       		.uleb128 0x19
 2939 0160 02       		.uleb128 0x2
 2940 0161 18       		.uleb128 0x18
 2941 0162 00       		.byte	0
 2942 0163 00       		.byte	0
 2943 0164 15       		.uleb128 0x15
 2944 0165 01       		.uleb128 0x1
 2945 0166 01       		.byte	0x1
 2946 0167 49       		.uleb128 0x49
 2947 0168 13       		.uleb128 0x13
 2948 0169 01       		.uleb128 0x1
 2949 016a 13       		.uleb128 0x13
 2950 016b 00       		.byte	0
 2951 016c 00       		.byte	0
 2952 016d 16       		.uleb128 0x16
 2953 016e 21       		.uleb128 0x21
 2954 016f 00       		.byte	0
ARM GAS  C:\Users\ilya\AppData\Local\Temp\cckYQUis.s 			page 82


 2955 0170 49       		.uleb128 0x49
 2956 0171 13       		.uleb128 0x13
 2957 0172 2F       		.uleb128 0x2f
 2958 0173 0B       		.uleb128 0xb
 2959 0174 00       		.byte	0
 2960 0175 00       		.byte	0
 2961 0176 00       		.byte	0
 2962              		.section	.debug_aranges,"",%progbits
 2963 0000 FC000000 		.4byte	0xfc
 2964 0004 0200     		.2byte	0x2
 2965 0006 00000000 		.4byte	.Ldebug_info0
 2966 000a 04       		.byte	0x4
 2967 000b 00       		.byte	0
 2968 000c 0000     		.2byte	0
 2969 000e 0000     		.2byte	0
 2970 0010 00000000 		.4byte	.LFB0
 2971 0014 24000000 		.4byte	.LFE0-.LFB0
 2972 0018 00000000 		.4byte	.LFB1
 2973 001c 3C000000 		.4byte	.LFE1-.LFB1
 2974 0020 00000000 		.4byte	.LFB2
 2975 0024 50000000 		.4byte	.LFE2-.LFB2
 2976 0028 00000000 		.4byte	.LFB3
 2977 002c 50000000 		.4byte	.LFE3-.LFB3
 2978 0030 00000000 		.4byte	.LFB4
 2979 0034 18000000 		.4byte	.LFE4-.LFB4
 2980 0038 00000000 		.4byte	.LFB5
 2981 003c 20000000 		.4byte	.LFE5-.LFB5
 2982 0040 00000000 		.4byte	.LFB6
 2983 0044 20000000 		.4byte	.LFE6-.LFB6
 2984 0048 00000000 		.4byte	.LFB7
 2985 004c 90000000 		.4byte	.LFE7-.LFB7
 2986 0050 00000000 		.4byte	.LFB8
 2987 0054 40000000 		.4byte	.LFE8-.LFB8
 2988 0058 00000000 		.4byte	.LFB9
 2989 005c B4000000 		.4byte	.LFE9-.LFB9
 2990 0060 00000000 		.4byte	.LFB10
 2991 0064 44000000 		.4byte	.LFE10-.LFB10
 2992 0068 00000000 		.4byte	.LFB11
 2993 006c 94000000 		.4byte	.LFE11-.LFB11
 2994 0070 00000000 		.4byte	.LFB12
 2995 0074 80000000 		.4byte	.LFE12-.LFB12
 2996 0078 00000000 		.4byte	.LFB13
 2997 007c 14000000 		.4byte	.LFE13-.LFB13
 2998 0080 00000000 		.4byte	.LFB14
 2999 0084 20000000 		.4byte	.LFE14-.LFB14
 3000 0088 00000000 		.4byte	.LFB15
 3001 008c 20000000 		.4byte	.LFE15-.LFB15
 3002 0090 00000000 		.4byte	.LFB16
 3003 0094 20000000 		.4byte	.LFE16-.LFB16
 3004 0098 00000000 		.4byte	.LFB17
 3005 009c 2C000000 		.4byte	.LFE17-.LFB17
 3006 00a0 00000000 		.4byte	.LFB18
 3007 00a4 18000000 		.4byte	.LFE18-.LFB18
 3008 00a8 00000000 		.4byte	.LFB19
 3009 00ac 34000000 		.4byte	.LFE19-.LFB19
 3010 00b0 00000000 		.4byte	.LFB20
 3011 00b4 44000000 		.4byte	.LFE20-.LFB20
ARM GAS  C:\Users\ilya\AppData\Local\Temp\cckYQUis.s 			page 83


 3012 00b8 00000000 		.4byte	.LFB21
 3013 00bc 44000000 		.4byte	.LFE21-.LFB21
 3014 00c0 00000000 		.4byte	.LFB22
 3015 00c4 34000000 		.4byte	.LFE22-.LFB22
 3016 00c8 00000000 		.4byte	.LFB23
 3017 00cc 40000000 		.4byte	.LFE23-.LFB23
 3018 00d0 00000000 		.4byte	.LFB24
 3019 00d4 44000000 		.4byte	.LFE24-.LFB24
 3020 00d8 00000000 		.4byte	.LFB25
 3021 00dc A0000000 		.4byte	.LFE25-.LFB25
 3022 00e0 00000000 		.4byte	.LFB26
 3023 00e4 3E000000 		.4byte	.LFE26-.LFB26
 3024 00e8 00000000 		.4byte	.LFB27
 3025 00ec 2C000000 		.4byte	.LFE27-.LFB27
 3026 00f0 00000000 		.4byte	.LFB28
 3027 00f4 2C000000 		.4byte	.LFE28-.LFB28
 3028 00f8 00000000 		.4byte	0
 3029 00fc 00000000 		.4byte	0
 3030              		.section	.debug_ranges,"",%progbits
 3031              	.Ldebug_ranges0:
 3032 0000 00000000 		.4byte	.LFB0
 3033 0004 24000000 		.4byte	.LFE0
 3034 0008 00000000 		.4byte	.LFB1
 3035 000c 3C000000 		.4byte	.LFE1
 3036 0010 00000000 		.4byte	.LFB2
 3037 0014 50000000 		.4byte	.LFE2
 3038 0018 00000000 		.4byte	.LFB3
 3039 001c 50000000 		.4byte	.LFE3
 3040 0020 00000000 		.4byte	.LFB4
 3041 0024 18000000 		.4byte	.LFE4
 3042 0028 00000000 		.4byte	.LFB5
 3043 002c 20000000 		.4byte	.LFE5
 3044 0030 00000000 		.4byte	.LFB6
 3045 0034 20000000 		.4byte	.LFE6
 3046 0038 00000000 		.4byte	.LFB7
 3047 003c 90000000 		.4byte	.LFE7
 3048 0040 00000000 		.4byte	.LFB8
 3049 0044 40000000 		.4byte	.LFE8
 3050 0048 00000000 		.4byte	.LFB9
 3051 004c B4000000 		.4byte	.LFE9
 3052 0050 00000000 		.4byte	.LFB10
 3053 0054 44000000 		.4byte	.LFE10
 3054 0058 00000000 		.4byte	.LFB11
 3055 005c 94000000 		.4byte	.LFE11
 3056 0060 00000000 		.4byte	.LFB12
 3057 0064 80000000 		.4byte	.LFE12
 3058 0068 00000000 		.4byte	.LFB13
 3059 006c 14000000 		.4byte	.LFE13
 3060 0070 00000000 		.4byte	.LFB14
 3061 0074 20000000 		.4byte	.LFE14
 3062 0078 00000000 		.4byte	.LFB15
 3063 007c 20000000 		.4byte	.LFE15
 3064 0080 00000000 		.4byte	.LFB16
 3065 0084 20000000 		.4byte	.LFE16
 3066 0088 00000000 		.4byte	.LFB17
 3067 008c 2C000000 		.4byte	.LFE17
 3068 0090 00000000 		.4byte	.LFB18
ARM GAS  C:\Users\ilya\AppData\Local\Temp\cckYQUis.s 			page 84


 3069 0094 18000000 		.4byte	.LFE18
 3070 0098 00000000 		.4byte	.LFB19
 3071 009c 34000000 		.4byte	.LFE19
 3072 00a0 00000000 		.4byte	.LFB20
 3073 00a4 44000000 		.4byte	.LFE20
 3074 00a8 00000000 		.4byte	.LFB21
 3075 00ac 44000000 		.4byte	.LFE21
 3076 00b0 00000000 		.4byte	.LFB22
 3077 00b4 34000000 		.4byte	.LFE22
 3078 00b8 00000000 		.4byte	.LFB23
 3079 00bc 40000000 		.4byte	.LFE23
 3080 00c0 00000000 		.4byte	.LFB24
 3081 00c4 44000000 		.4byte	.LFE24
 3082 00c8 00000000 		.4byte	.LFB25
 3083 00cc A0000000 		.4byte	.LFE25
 3084 00d0 00000000 		.4byte	.LFB26
 3085 00d4 3E000000 		.4byte	.LFE26
 3086 00d8 00000000 		.4byte	.LFB27
 3087 00dc 2C000000 		.4byte	.LFE27
 3088 00e0 00000000 		.4byte	.LFB28
 3089 00e4 2C000000 		.4byte	.LFE28
 3090 00e8 00000000 		.4byte	0
 3091 00ec 00000000 		.4byte	0
 3092              		.section	.debug_line,"",%progbits
 3093              	.Ldebug_line0:
 3094 0000 29030000 		.section	.debug_str,"MS",%progbits,1
 3094      02004500 
 3094      00000201 
 3094      FB0E0D00 
 3094      01010101 
 3095              	.LASF10:
 3096 0000 75696E74 		.ascii	"uint16\000"
 3096      313600
 3097              	.LASF73:
 3098 0007 55415254 		.ascii	"UART_ACS_rxBufferOverflow\000"
 3098      5F414353 
 3098      5F727842 
 3098      75666665 
 3098      724F7665 
 3099              	.LASF49:
 3100 0021 74784461 		.ascii	"txDataByte\000"
 3100      74614279 
 3100      746500
 3101              	.LASF53:
 3102 002c 55415254 		.ascii	"UART_ACS_PutString\000"
 3102      5F414353 
 3102      5F507574 
 3102      53747269 
 3102      6E6700
 3103              	.LASF54:
 3104 003f 73747269 		.ascii	"string\000"
 3104      6E6700
 3105              	.LASF74:
 3106 0046 474E5520 		.ascii	"GNU C11 5.4.1 20160609 (release) [ARM/embedded-5-br"
 3106      43313120 
 3106      352E342E 
 3106      31203230 
ARM GAS  C:\Users\ilya\AppData\Local\Temp\cckYQUis.s 			page 85


 3106      31363036 
 3107 0079 616E6368 		.ascii	"anch revision 237715] -mcpu=cortex-m3 -mthumb -g -O"
 3107      20726576 
 3107      6973696F 
 3107      6E203233 
 3107      37373135 
 3108 00ac 30202D66 		.ascii	"0 -ffunction-sections -ffat-lto-objects\000"
 3108      66756E63 
 3108      74696F6E 
 3108      2D736563 
 3108      74696F6E 
 3109              	.LASF37:
 3110 00d4 55415254 		.ascii	"UART_ACS_GetByte\000"
 3110      5F414353 
 3110      5F476574 
 3110      42797465 
 3110      00
 3111              	.LASF7:
 3112 00e5 6C6F6E67 		.ascii	"long long unsigned int\000"
 3112      206C6F6E 
 3112      6720756E 
 3112      7369676E 
 3112      65642069 
 3113              	.LASF58:
 3114 00fc 55415254 		.ascii	"UART_ACS_PutCRLF\000"
 3114      5F414353 
 3114      5F507574 
 3114      43524C46 
 3114      00
 3115              	.LASF32:
 3116 010d 55415254 		.ascii	"UART_ACS_ReadRxData\000"
 3116      5F414353 
 3116      5F526561 
 3116      64527844 
 3116      61746100 
 3117              	.LASF20:
 3118 0121 55415254 		.ascii	"UART_ACS_Start\000"
 3118      5F414353 
 3118      5F537461 
 3118      727400
 3119              	.LASF69:
 3120 0130 55415254 		.ascii	"UART_ACS_rxBuffer\000"
 3120      5F414353 
 3120      5F727842 
 3120      75666665 
 3120      7200
 3121              	.LASF6:
 3122 0142 6C6F6E67 		.ascii	"long long int\000"
 3122      206C6F6E 
 3122      6720696E 
 3122      7400
 3123              	.LASF0:
 3124 0150 7369676E 		.ascii	"signed char\000"
 3124      65642063 
 3124      68617200 
 3125              	.LASF41:
 3126 015c 55415254 		.ascii	"UART_ACS_ClearRxBuffer\000"
ARM GAS  C:\Users\ilya\AppData\Local\Temp\cckYQUis.s 			page 86


 3126      5F414353 
 3126      5F436C65 
 3126      61725278 
 3126      42756666 
 3127              	.LASF71:
 3128 0173 55415254 		.ascii	"UART_ACS_rxBufferWrite\000"
 3128      5F414353 
 3128      5F727842 
 3128      75666665 
 3128      72577269 
 3129              	.LASF4:
 3130 018a 6C6F6E67 		.ascii	"long int\000"
 3130      20696E74 
 3130      00
 3131              	.LASF9:
 3132 0193 75696E74 		.ascii	"uint8\000"
 3132      3800
 3133              	.LASF22:
 3134 0199 55415254 		.ascii	"UART_ACS_Enable\000"
 3134      5F414353 
 3134      5F456E61 
 3134      626C6500 
 3135              	.LASF13:
 3136 01a9 646F7562 		.ascii	"double\000"
 3136      6C6500
 3137              	.LASF43:
 3138 01b0 61646472 		.ascii	"addressMode\000"
 3138      6573734D 
 3138      6F646500 
 3139              	.LASF70:
 3140 01bc 55415254 		.ascii	"UART_ACS_rxBufferRead\000"
 3140      5F414353 
 3140      5F727842 
 3140      75666665 
 3140      72526561 
 3141              	.LASF11:
 3142 01d2 75696E74 		.ascii	"uint32\000"
 3142      333200
 3143              	.LASF27:
 3144 01d9 636F6E74 		.ascii	"control\000"
 3144      726F6C00 
 3145              	.LASF65:
 3146 01e1 55415254 		.ascii	"UART_ACS_LoadRxConfig\000"
 3146      5F414353 
 3146      5F4C6F61 
 3146      64527843 
 3146      6F6E6669 
 3147              	.LASF51:
 3148 01f7 55415254 		.ascii	"UART_ACS_ReadTxStatus\000"
 3148      5F414353 
 3148      5F526561 
 3148      64547853 
 3148      74617475 
 3149              	.LASF75:
 3150 020d 47656E65 		.ascii	"Generated_Source\\PSoC5\\UART_ACS.c\000"
 3150      72617465 
 3150      645F536F 
ARM GAS  C:\Users\ilya\AppData\Local\Temp\cckYQUis.s 			page 87


 3150      75726365 
 3150      5C50536F 
 3151              	.LASF68:
 3152 022f 55415254 		.ascii	"UART_ACS_errorStatus\000"
 3152      5F414353 
 3152      5F657272 
 3152      6F725374 
 3152      61747573 
 3153              	.LASF62:
 3154 0244 7265744D 		.ascii	"retMode\000"
 3154      6F646500 
 3155              	.LASF8:
 3156 024c 756E7369 		.ascii	"unsigned int\000"
 3156      676E6564 
 3156      20696E74 
 3156      00
 3157              	.LASF23:
 3158 0259 55415254 		.ascii	"UART_ACS_Stop\000"
 3158      5F414353 
 3158      5F53746F 
 3158      7000
 3159              	.LASF38:
 3160 0267 6C6F6345 		.ascii	"locErrorStatus\000"
 3160      72726F72 
 3160      53746174 
 3160      757300
 3161              	.LASF5:
 3162 0276 6C6F6E67 		.ascii	"long unsigned int\000"
 3162      20756E73 
 3162      69676E65 
 3162      6420696E 
 3162      7400
 3163              	.LASF48:
 3164 0288 55415254 		.ascii	"UART_ACS_WriteTxData\000"
 3164      5F414353 
 3164      5F577269 
 3164      74655478 
 3164      44617461 
 3165              	.LASF40:
 3166 029d 73697A65 		.ascii	"size\000"
 3166      00
 3167              	.LASF3:
 3168 02a2 73686F72 		.ascii	"short unsigned int\000"
 3168      7420756E 
 3168      7369676E 
 3168      65642069 
 3168      6E7400
 3169              	.LASF76:
 3170 02b5 433A5C70 		.ascii	"C:\\psoc\\chamonix\\icm_stuff\\nanoNxt_ICM3_be_befo"
 3170      736F635C 
 3170      6368616D 
 3170      6F6E6978 
 3170      5C69636D 
 3171 02e4 72655F72 		.ascii	"re_russian\\nanoNxt_ICM3\\ext_pim.cydsn\000"
 3171      75737369 
 3171      616E5C6E 
 3171      616E6F4E 
ARM GAS  C:\Users\ilya\AppData\Local\Temp\cckYQUis.s 			page 88


 3171      78745F49 
 3172              	.LASF55:
 3173 030a 62756649 		.ascii	"bufIndex\000"
 3173      6E646578 
 3173      00
 3174              	.LASF28:
 3175 0313 696E7453 		.ascii	"intSrc\000"
 3175      726300
 3176              	.LASF50:
 3177 031a 55415254 		.ascii	"UART_ACS_ReadControlRegister\000"
 3177      5F414353 
 3177      5F526561 
 3177      64436F6E 
 3177      74726F6C 
 3178              	.LASF17:
 3179 0337 72656733 		.ascii	"reg32\000"
 3179      3200
 3180              	.LASF63:
 3181 033d 746D7053 		.ascii	"tmpStat\000"
 3181      74617400 
 3182              	.LASF61:
 3183 0345 55415254 		.ascii	"UART_ACS_SendBreak\000"
 3183      5F414353 
 3183      5F53656E 
 3183      64427265 
 3183      616B00
 3184              	.LASF19:
 3185 0358 73697A65 		.ascii	"sizetype\000"
 3185      74797065 
 3185      00
 3186              	.LASF18:
 3187 0361 6C6F6E67 		.ascii	"long double\000"
 3187      20646F75 
 3187      626C6500 
 3188              	.LASF45:
 3189 036d 61646472 		.ascii	"address\000"
 3189      65737300 
 3190              	.LASF31:
 3191 0375 6C6F6352 		.ascii	"locRxBufferWrite\000"
 3191      78427566 
 3191      66657257 
 3191      72697465 
 3191      00
 3192              	.LASF36:
 3193 0386 72785374 		.ascii	"rxStatus\000"
 3193      61747573 
 3193      00
 3194              	.LASF60:
 3195 038f 55415254 		.ascii	"UART_ACS_ClearTxBuffer\000"
 3195      5F414353 
 3195      5F436C65 
 3195      61725478 
 3195      42756666 
 3196              	.LASF35:
 3197 03a6 55415254 		.ascii	"UART_ACS_GetChar\000"
 3197      5F414353 
 3197      5F476574 
ARM GAS  C:\Users\ilya\AppData\Local\Temp\cckYQUis.s 			page 89


 3197      43686172 
 3197      00
 3198              	.LASF33:
 3199 03b7 55415254 		.ascii	"UART_ACS_ReadRxStatus\000"
 3199      5F414353 
 3199      5F526561 
 3199      64527853 
 3199      74617475 
 3200              	.LASF12:
 3201 03cd 666C6F61 		.ascii	"float\000"
 3201      7400
 3202              	.LASF56:
 3203 03d3 55415254 		.ascii	"UART_ACS_PutArray\000"
 3203      5F414353 
 3203      5F507574 
 3203      41727261 
 3203      7900
 3204              	.LASF47:
 3205 03e5 55415254 		.ascii	"UART_ACS_SetTxInterruptMode\000"
 3205      5F414353 
 3205      5F536574 
 3205      5478496E 
 3205      74657272 
 3206              	.LASF26:
 3207 0401 55415254 		.ascii	"UART_ACS_SetRxInterruptMode\000"
 3207      5F414353 
 3207      5F536574 
 3207      5278496E 
 3207      74657272 
 3208              	.LASF67:
 3209 041d 55415254 		.ascii	"UART_ACS_initVar\000"
 3209      5F414353 
 3209      5F696E69 
 3209      74566172 
 3209      00
 3210              	.LASF16:
 3211 042e 72656738 		.ascii	"reg8\000"
 3211      00
 3212              	.LASF1:
 3213 0433 756E7369 		.ascii	"unsigned char\000"
 3213      676E6564 
 3213      20636861 
 3213      7200
 3214              	.LASF2:
 3215 0441 73686F72 		.ascii	"short int\000"
 3215      7420696E 
 3215      7400
 3216              	.LASF66:
 3217 044b 55415254 		.ascii	"UART_ACS_LoadTxConfig\000"
 3217      5F414353 
 3217      5F4C6F61 
 3217      64547843 
 3217      6F6E6669 
 3218              	.LASF64:
 3219 0461 55415254 		.ascii	"UART_ACS_SetTxAddressMode\000"
 3219      5F414353 
 3219      5F536574 
ARM GAS  C:\Users\ilya\AppData\Local\Temp\cckYQUis.s 			page 90


 3219      54784164 
 3219      64726573 
 3220              	.LASF25:
 3221 047b 55415254 		.ascii	"UART_ACS_WriteControlRegister\000"
 3221      5F414353 
 3221      5F577269 
 3221      7465436F 
 3221      6E74726F 
 3222              	.LASF57:
 3223 0499 62797465 		.ascii	"byteCount\000"
 3223      436F756E 
 3223      7400
 3224              	.LASF59:
 3225 04a3 55415254 		.ascii	"UART_ACS_GetTxBufferSize\000"
 3225      5F414353 
 3225      5F476574 
 3225      54784275 
 3225      66666572 
 3226              	.LASF29:
 3227 04bc 72784461 		.ascii	"rxData\000"
 3227      746100
 3228              	.LASF21:
 3229 04c3 55415254 		.ascii	"UART_ACS_Init\000"
 3229      5F414353 
 3229      5F496E69 
 3229      7400
 3230              	.LASF44:
 3231 04d1 55415254 		.ascii	"UART_ACS_SetRxAddress1\000"
 3231      5F414353 
 3231      5F536574 
 3231      52784164 
 3231      64726573 
 3232              	.LASF46:
 3233 04e8 55415254 		.ascii	"UART_ACS_SetRxAddress2\000"
 3233      5F414353 
 3233      5F536574 
 3233      52784164 
 3233      64726573 
 3234              	.LASF15:
 3235 04ff 63686172 		.ascii	"char\000"
 3235      00
 3236              	.LASF14:
 3237 0504 63686172 		.ascii	"char8\000"
 3237      3800
 3238              	.LASF30:
 3239 050a 6C6F6352 		.ascii	"locRxBufferRead\000"
 3239      78427566 
 3239      66657252 
 3239      65616400 
 3240              	.LASF24:
 3241 051a 656E6162 		.ascii	"enableInterrupts\000"
 3241      6C65496E 
 3241      74657272 
 3241      75707473 
 3241      00
 3242              	.LASF34:
 3243 052b 73746174 		.ascii	"status\000"
ARM GAS  C:\Users\ilya\AppData\Local\Temp\cckYQUis.s 			page 91


 3243      757300
 3244              	.LASF42:
 3245 0532 55415254 		.ascii	"UART_ACS_SetRxAddressMode\000"
 3245      5F414353 
 3245      5F536574 
 3245      52784164 
 3245      64726573 
 3246              	.LASF72:
 3247 054c 55415254 		.ascii	"UART_ACS_rxBufferLoopDetect\000"
 3247      5F414353 
 3247      5F727842 
 3247      75666665 
 3247      724C6F6F 
 3248              	.LASF52:
 3249 0568 55415254 		.ascii	"UART_ACS_PutChar\000"
 3249      5F414353 
 3249      5F507574 
 3249      43686172 
 3249      00
 3250              	.LASF39:
 3251 0579 55415254 		.ascii	"UART_ACS_GetRxBufferSize\000"
 3251      5F414353 
 3251      5F476574 
 3251      52784275 
 3251      66666572 
 3252              		.ident	"GCC: (GNU Tools for ARM Embedded Processors) 5.4.1 20160609 (release) [ARM/embedded-5-bran
