ARM GAS  C:\Users\ilya\AppData\Local\Temp\ccVU2AIc.s 			page 1


   1              		.cpu cortex-m0
   2              		.fpu softvfp
   3              		.eabi_attribute 20, 1
   4              		.eabi_attribute 21, 1
   5              		.eabi_attribute 23, 3
   6              		.eabi_attribute 24, 1
   7              		.eabi_attribute 25, 1
   8              		.eabi_attribute 26, 1
   9              		.eabi_attribute 30, 6
  10              		.eabi_attribute 34, 0
  11              		.eabi_attribute 18, 4
  12              		.code	16
  13              		.file	"TIMER.c"
  14              		.text
  15              	.Ltext0:
  16              		.cfi_sections	.debug_frame
  17              		.global	TIMER_initVar
  18              		.bss
  19              		.type	TIMER_initVar, %object
  20              		.size	TIMER_initVar, 1
  21              	TIMER_initVar:
  22 0000 00       		.space	1
  23              		.section	.text.TIMER_Init,"ax",%progbits
  24              		.align	2
  25              		.global	TIMER_Init
  26              		.code	16
  27              		.thumb_func
  28              		.type	TIMER_Init, %function
  29              	TIMER_Init:
  30              	.LFB1:
  31              		.file 1 "Generated_Source\\PSoC4\\TIMER.c"
   1:Generated_Source\PSoC4/TIMER.c **** /*******************************************************************************
   2:Generated_Source\PSoC4/TIMER.c **** * File Name: TIMER.c
   3:Generated_Source\PSoC4/TIMER.c **** * Version 2.10
   4:Generated_Source\PSoC4/TIMER.c **** *
   5:Generated_Source\PSoC4/TIMER.c **** * Description:
   6:Generated_Source\PSoC4/TIMER.c **** *  This file provides the source code to the API for the TIMER
   7:Generated_Source\PSoC4/TIMER.c **** *  component
   8:Generated_Source\PSoC4/TIMER.c **** *
   9:Generated_Source\PSoC4/TIMER.c **** * Note:
  10:Generated_Source\PSoC4/TIMER.c **** *  None
  11:Generated_Source\PSoC4/TIMER.c **** *
  12:Generated_Source\PSoC4/TIMER.c **** ********************************************************************************
  13:Generated_Source\PSoC4/TIMER.c **** * Copyright 2013-2015, Cypress Semiconductor Corporation.  All rights reserved.
  14:Generated_Source\PSoC4/TIMER.c **** * You may use this file only in accordance with the license, terms, conditions,
  15:Generated_Source\PSoC4/TIMER.c **** * disclaimers, and limitations in the end user license agreement accompanying
  16:Generated_Source\PSoC4/TIMER.c **** * the software package with which this file was provided.
  17:Generated_Source\PSoC4/TIMER.c **** *******************************************************************************/
  18:Generated_Source\PSoC4/TIMER.c **** 
  19:Generated_Source\PSoC4/TIMER.c **** #include "TIMER.h"
  20:Generated_Source\PSoC4/TIMER.c **** 
  21:Generated_Source\PSoC4/TIMER.c **** uint8 TIMER_initVar = 0u;
  22:Generated_Source\PSoC4/TIMER.c **** 
  23:Generated_Source\PSoC4/TIMER.c **** 
  24:Generated_Source\PSoC4/TIMER.c **** /*******************************************************************************
  25:Generated_Source\PSoC4/TIMER.c **** * Function Name: TIMER_Init
  26:Generated_Source\PSoC4/TIMER.c **** ********************************************************************************
ARM GAS  C:\Users\ilya\AppData\Local\Temp\ccVU2AIc.s 			page 2


  27:Generated_Source\PSoC4/TIMER.c **** *
  28:Generated_Source\PSoC4/TIMER.c **** * Summary:
  29:Generated_Source\PSoC4/TIMER.c **** *  Initialize/Restore default TIMER configuration.
  30:Generated_Source\PSoC4/TIMER.c **** *
  31:Generated_Source\PSoC4/TIMER.c **** * Parameters:
  32:Generated_Source\PSoC4/TIMER.c **** *  None
  33:Generated_Source\PSoC4/TIMER.c **** *
  34:Generated_Source\PSoC4/TIMER.c **** * Return:
  35:Generated_Source\PSoC4/TIMER.c **** *  None
  36:Generated_Source\PSoC4/TIMER.c **** *
  37:Generated_Source\PSoC4/TIMER.c **** *******************************************************************************/
  38:Generated_Source\PSoC4/TIMER.c **** void TIMER_Init(void)
  39:Generated_Source\PSoC4/TIMER.c **** {
  32              		.loc 1 39 0
  33              		.cfi_startproc
  34 0000 80B5     		push	{r7, lr}
  35              		.cfi_def_cfa_offset 8
  36              		.cfi_offset 7, -8
  37              		.cfi_offset 14, -4
  38 0002 00AF     		add	r7, sp, #0
  39              		.cfi_def_cfa_register 7
  40:Generated_Source\PSoC4/TIMER.c **** 
  41:Generated_Source\PSoC4/TIMER.c ****     /* Set values from customizer to CTRL */
  42:Generated_Source\PSoC4/TIMER.c ****     #if (TIMER__QUAD == TIMER_CONFIG)
  43:Generated_Source\PSoC4/TIMER.c ****         TIMER_CONTROL_REG = TIMER_CTRL_QUAD_BASE_CONFIG;
  44:Generated_Source\PSoC4/TIMER.c ****         
  45:Generated_Source\PSoC4/TIMER.c ****         /* Set values from customizer to CTRL1 */
  46:Generated_Source\PSoC4/TIMER.c ****         TIMER_TRIG_CONTROL1_REG  = TIMER_QUAD_SIGNALS_MODES;
  47:Generated_Source\PSoC4/TIMER.c **** 
  48:Generated_Source\PSoC4/TIMER.c ****         /* Set values from customizer to INTR */
  49:Generated_Source\PSoC4/TIMER.c ****         TIMER_SetInterruptMode(TIMER_QUAD_INTERRUPT_MASK);
  50:Generated_Source\PSoC4/TIMER.c ****         
  51:Generated_Source\PSoC4/TIMER.c ****          /* Set other values */
  52:Generated_Source\PSoC4/TIMER.c ****         TIMER_SetCounterMode(TIMER_COUNT_DOWN);
  53:Generated_Source\PSoC4/TIMER.c ****         TIMER_WritePeriod(TIMER_QUAD_PERIOD_INIT_VALUE);
  54:Generated_Source\PSoC4/TIMER.c ****         TIMER_WriteCounter(TIMER_QUAD_PERIOD_INIT_VALUE);
  55:Generated_Source\PSoC4/TIMER.c ****     #endif  /* (TIMER__QUAD == TIMER_CONFIG) */
  56:Generated_Source\PSoC4/TIMER.c **** 
  57:Generated_Source\PSoC4/TIMER.c ****     #if (TIMER__TIMER == TIMER_CONFIG)
  58:Generated_Source\PSoC4/TIMER.c ****         TIMER_CONTROL_REG = TIMER_CTRL_TIMER_BASE_CONFIG;
  40              		.loc 1 58 0
  41 0004 094B     		ldr	r3, .L2
  42 0006 8022     		mov	r2, #128
  43 0008 9204     		lsl	r2, r2, #18
  44 000a 1A60     		str	r2, [r3]
  59:Generated_Source\PSoC4/TIMER.c ****         
  60:Generated_Source\PSoC4/TIMER.c ****         /* Set values from customizer to CTRL1 */
  61:Generated_Source\PSoC4/TIMER.c ****         TIMER_TRIG_CONTROL1_REG  = TIMER_TIMER_SIGNALS_MODES;
  45              		.loc 1 61 0
  46 000c 084B     		ldr	r3, .L2+4
  47 000e 0C22     		mov	r2, #12
  48 0010 1A60     		str	r2, [r3]
  62:Generated_Source\PSoC4/TIMER.c ****     
  63:Generated_Source\PSoC4/TIMER.c ****         /* Set values from customizer to INTR */
  64:Generated_Source\PSoC4/TIMER.c ****         TIMER_SetInterruptMode(TIMER_TC_INTERRUPT_MASK);
  49              		.loc 1 64 0
  50 0012 0120     		mov	r0, #1
ARM GAS  C:\Users\ilya\AppData\Local\Temp\ccVU2AIc.s 			page 3


  51 0014 FFF7FEFF 		bl	TIMER_SetInterruptMode
  65:Generated_Source\PSoC4/TIMER.c ****         
  66:Generated_Source\PSoC4/TIMER.c ****         /* Set other values from customizer */
  67:Generated_Source\PSoC4/TIMER.c ****         TIMER_WritePeriod(TIMER_TC_PERIOD_VALUE );
  52              		.loc 1 67 0
  53 0018 064B     		ldr	r3, .L2+8
  54 001a 181C     		mov	r0, r3
  55 001c FFF7FEFF 		bl	TIMER_WritePeriod
  68:Generated_Source\PSoC4/TIMER.c **** 
  69:Generated_Source\PSoC4/TIMER.c ****         #if (TIMER__COMPARE == TIMER_TC_COMP_CAP_MODE)
  70:Generated_Source\PSoC4/TIMER.c ****             TIMER_WriteCompare(TIMER_TC_COMPARE_VALUE);
  71:Generated_Source\PSoC4/TIMER.c **** 
  72:Generated_Source\PSoC4/TIMER.c ****             #if (1u == TIMER_TC_COMPARE_SWAP)
  73:Generated_Source\PSoC4/TIMER.c ****                 TIMER_SetCompareSwap(1u);
  74:Generated_Source\PSoC4/TIMER.c ****                 TIMER_WriteCompareBuf(TIMER_TC_COMPARE_BUF_VALUE);
  75:Generated_Source\PSoC4/TIMER.c ****             #endif  /* (1u == TIMER_TC_COMPARE_SWAP) */
  76:Generated_Source\PSoC4/TIMER.c ****         #endif  /* (TIMER__COMPARE == TIMER_TC_COMP_CAP_MODE) */
  77:Generated_Source\PSoC4/TIMER.c **** 
  78:Generated_Source\PSoC4/TIMER.c ****         /* Initialize counter value */
  79:Generated_Source\PSoC4/TIMER.c ****         #if (TIMER_CY_TCPWM_V2 && TIMER_TIMER_UPDOWN_CNT_USED && !TIMER_CY_TCPWM_4000)
  80:Generated_Source\PSoC4/TIMER.c ****             TIMER_WriteCounter(1u);
  81:Generated_Source\PSoC4/TIMER.c ****         #elif(TIMER__COUNT_DOWN == TIMER_TC_COUNTER_MODE)
  82:Generated_Source\PSoC4/TIMER.c ****             TIMER_WriteCounter(TIMER_TC_PERIOD_VALUE);
  83:Generated_Source\PSoC4/TIMER.c ****         #else
  84:Generated_Source\PSoC4/TIMER.c ****             TIMER_WriteCounter(0u);
  56              		.loc 1 84 0
  57 0020 0020     		mov	r0, #0
  58 0022 FFF7FEFF 		bl	TIMER_WriteCounter
  85:Generated_Source\PSoC4/TIMER.c ****         #endif /* (TIMER_CY_TCPWM_V2 && TIMER_TIMER_UPDOWN_CNT_USED && !TIMER_CY_TCPWM_4000) */
  86:Generated_Source\PSoC4/TIMER.c ****     #endif  /* (TIMER__TIMER == TIMER_CONFIG) */
  87:Generated_Source\PSoC4/TIMER.c **** 
  88:Generated_Source\PSoC4/TIMER.c ****     #if (TIMER__PWM_SEL == TIMER_CONFIG)
  89:Generated_Source\PSoC4/TIMER.c ****         TIMER_CONTROL_REG = TIMER_CTRL_PWM_BASE_CONFIG;
  90:Generated_Source\PSoC4/TIMER.c **** 
  91:Generated_Source\PSoC4/TIMER.c ****         #if (TIMER__PWM_PR == TIMER_PWM_MODE)
  92:Generated_Source\PSoC4/TIMER.c ****             TIMER_CONTROL_REG |= TIMER_CTRL_PWM_RUN_MODE;
  93:Generated_Source\PSoC4/TIMER.c ****             TIMER_WriteCounter(TIMER_PWM_PR_INIT_VALUE);
  94:Generated_Source\PSoC4/TIMER.c ****         #else
  95:Generated_Source\PSoC4/TIMER.c ****             TIMER_CONTROL_REG |= TIMER_CTRL_PWM_ALIGN | TIMER_CTRL_PWM_KILL_EVENT;
  96:Generated_Source\PSoC4/TIMER.c ****             
  97:Generated_Source\PSoC4/TIMER.c ****             /* Initialize counter value */
  98:Generated_Source\PSoC4/TIMER.c ****             #if (TIMER_CY_TCPWM_V2 && TIMER_PWM_UPDOWN_CNT_USED && !TIMER_CY_TCPWM_4000)
  99:Generated_Source\PSoC4/TIMER.c ****                 TIMER_WriteCounter(1u);
 100:Generated_Source\PSoC4/TIMER.c ****             #elif (TIMER__RIGHT == TIMER_PWM_ALIGN)
 101:Generated_Source\PSoC4/TIMER.c ****                 TIMER_WriteCounter(TIMER_PWM_PERIOD_VALUE);
 102:Generated_Source\PSoC4/TIMER.c ****             #else 
 103:Generated_Source\PSoC4/TIMER.c ****                 TIMER_WriteCounter(0u);
 104:Generated_Source\PSoC4/TIMER.c ****             #endif  /* (TIMER_CY_TCPWM_V2 && TIMER_PWM_UPDOWN_CNT_USED && !TIMER_CY_TCPWM_4000) */
 105:Generated_Source\PSoC4/TIMER.c ****         #endif  /* (TIMER__PWM_PR == TIMER_PWM_MODE) */
 106:Generated_Source\PSoC4/TIMER.c **** 
 107:Generated_Source\PSoC4/TIMER.c ****         #if (TIMER__PWM_DT == TIMER_PWM_MODE)
 108:Generated_Source\PSoC4/TIMER.c ****             TIMER_CONTROL_REG |= TIMER_CTRL_PWM_DEAD_TIME_CYCLE;
 109:Generated_Source\PSoC4/TIMER.c ****         #endif  /* (TIMER__PWM_DT == TIMER_PWM_MODE) */
 110:Generated_Source\PSoC4/TIMER.c **** 
 111:Generated_Source\PSoC4/TIMER.c ****         #if (TIMER__PWM == TIMER_PWM_MODE)
 112:Generated_Source\PSoC4/TIMER.c ****             TIMER_CONTROL_REG |= TIMER_CTRL_PWM_PRESCALER;
 113:Generated_Source\PSoC4/TIMER.c ****         #endif  /* (TIMER__PWM == TIMER_PWM_MODE) */
ARM GAS  C:\Users\ilya\AppData\Local\Temp\ccVU2AIc.s 			page 4


 114:Generated_Source\PSoC4/TIMER.c **** 
 115:Generated_Source\PSoC4/TIMER.c ****         /* Set values from customizer to CTRL1 */
 116:Generated_Source\PSoC4/TIMER.c ****         TIMER_TRIG_CONTROL1_REG  = TIMER_PWM_SIGNALS_MODES;
 117:Generated_Source\PSoC4/TIMER.c ****     
 118:Generated_Source\PSoC4/TIMER.c ****         /* Set values from customizer to INTR */
 119:Generated_Source\PSoC4/TIMER.c ****         TIMER_SetInterruptMode(TIMER_PWM_INTERRUPT_MASK);
 120:Generated_Source\PSoC4/TIMER.c **** 
 121:Generated_Source\PSoC4/TIMER.c ****         /* Set values from customizer to CTRL2 */
 122:Generated_Source\PSoC4/TIMER.c ****         #if (TIMER__PWM_PR == TIMER_PWM_MODE)
 123:Generated_Source\PSoC4/TIMER.c ****             TIMER_TRIG_CONTROL2_REG =
 124:Generated_Source\PSoC4/TIMER.c ****                     (TIMER_CC_MATCH_NO_CHANGE    |
 125:Generated_Source\PSoC4/TIMER.c ****                     TIMER_OVERLOW_NO_CHANGE      |
 126:Generated_Source\PSoC4/TIMER.c ****                     TIMER_UNDERFLOW_NO_CHANGE);
 127:Generated_Source\PSoC4/TIMER.c ****         #else
 128:Generated_Source\PSoC4/TIMER.c ****             #if (TIMER__LEFT == TIMER_PWM_ALIGN)
 129:Generated_Source\PSoC4/TIMER.c ****                 TIMER_TRIG_CONTROL2_REG = TIMER_PWM_MODE_LEFT;
 130:Generated_Source\PSoC4/TIMER.c ****             #endif  /* ( TIMER_PWM_LEFT == TIMER_PWM_ALIGN) */
 131:Generated_Source\PSoC4/TIMER.c **** 
 132:Generated_Source\PSoC4/TIMER.c ****             #if (TIMER__RIGHT == TIMER_PWM_ALIGN)
 133:Generated_Source\PSoC4/TIMER.c ****                 TIMER_TRIG_CONTROL2_REG = TIMER_PWM_MODE_RIGHT;
 134:Generated_Source\PSoC4/TIMER.c ****             #endif  /* ( TIMER_PWM_RIGHT == TIMER_PWM_ALIGN) */
 135:Generated_Source\PSoC4/TIMER.c **** 
 136:Generated_Source\PSoC4/TIMER.c ****             #if (TIMER__CENTER == TIMER_PWM_ALIGN)
 137:Generated_Source\PSoC4/TIMER.c ****                 TIMER_TRIG_CONTROL2_REG = TIMER_PWM_MODE_CENTER;
 138:Generated_Source\PSoC4/TIMER.c ****             #endif  /* ( TIMER_PWM_CENTER == TIMER_PWM_ALIGN) */
 139:Generated_Source\PSoC4/TIMER.c **** 
 140:Generated_Source\PSoC4/TIMER.c ****             #if (TIMER__ASYMMETRIC == TIMER_PWM_ALIGN)
 141:Generated_Source\PSoC4/TIMER.c ****                 TIMER_TRIG_CONTROL2_REG = TIMER_PWM_MODE_ASYM;
 142:Generated_Source\PSoC4/TIMER.c ****             #endif  /* (TIMER__ASYMMETRIC == TIMER_PWM_ALIGN) */
 143:Generated_Source\PSoC4/TIMER.c ****         #endif  /* (TIMER__PWM_PR == TIMER_PWM_MODE) */
 144:Generated_Source\PSoC4/TIMER.c **** 
 145:Generated_Source\PSoC4/TIMER.c ****         /* Set other values from customizer */
 146:Generated_Source\PSoC4/TIMER.c ****         TIMER_WritePeriod(TIMER_PWM_PERIOD_VALUE );
 147:Generated_Source\PSoC4/TIMER.c ****         TIMER_WriteCompare(TIMER_PWM_COMPARE_VALUE);
 148:Generated_Source\PSoC4/TIMER.c **** 
 149:Generated_Source\PSoC4/TIMER.c ****         #if (1u == TIMER_PWM_COMPARE_SWAP)
 150:Generated_Source\PSoC4/TIMER.c ****             TIMER_SetCompareSwap(1u);
 151:Generated_Source\PSoC4/TIMER.c ****             TIMER_WriteCompareBuf(TIMER_PWM_COMPARE_BUF_VALUE);
 152:Generated_Source\PSoC4/TIMER.c ****         #endif  /* (1u == TIMER_PWM_COMPARE_SWAP) */
 153:Generated_Source\PSoC4/TIMER.c **** 
 154:Generated_Source\PSoC4/TIMER.c ****         #if (1u == TIMER_PWM_PERIOD_SWAP)
 155:Generated_Source\PSoC4/TIMER.c ****             TIMER_SetPeriodSwap(1u);
 156:Generated_Source\PSoC4/TIMER.c ****             TIMER_WritePeriodBuf(TIMER_PWM_PERIOD_BUF_VALUE);
 157:Generated_Source\PSoC4/TIMER.c ****         #endif  /* (1u == TIMER_PWM_PERIOD_SWAP) */
 158:Generated_Source\PSoC4/TIMER.c ****     #endif  /* (TIMER__PWM_SEL == TIMER_CONFIG) */
 159:Generated_Source\PSoC4/TIMER.c ****     
 160:Generated_Source\PSoC4/TIMER.c **** }
  59              		.loc 1 160 0
  60 0026 BD46     		mov	sp, r7
  61              		@ sp needed
  62 0028 80BD     		pop	{r7, pc}
  63              	.L3:
  64 002a C046     		.align	2
  65              	.L2:
  66 002c 40012040 		.word	1075839296
  67 0030 64012040 		.word	1075839332
  68 0034 FFFF0000 		.word	65535
ARM GAS  C:\Users\ilya\AppData\Local\Temp\ccVU2AIc.s 			page 5


  69              		.cfi_endproc
  70              	.LFE1:
  71              		.size	TIMER_Init, .-TIMER_Init
  72              		.section	.text.TIMER_Enable,"ax",%progbits
  73              		.align	2
  74              		.global	TIMER_Enable
  75              		.code	16
  76              		.thumb_func
  77              		.type	TIMER_Enable, %function
  78              	TIMER_Enable:
  79              	.LFB2:
 161:Generated_Source\PSoC4/TIMER.c **** 
 162:Generated_Source\PSoC4/TIMER.c **** 
 163:Generated_Source\PSoC4/TIMER.c **** /*******************************************************************************
 164:Generated_Source\PSoC4/TIMER.c **** * Function Name: TIMER_Enable
 165:Generated_Source\PSoC4/TIMER.c **** ********************************************************************************
 166:Generated_Source\PSoC4/TIMER.c **** *
 167:Generated_Source\PSoC4/TIMER.c **** * Summary:
 168:Generated_Source\PSoC4/TIMER.c **** *  Enables the TIMER.
 169:Generated_Source\PSoC4/TIMER.c **** *
 170:Generated_Source\PSoC4/TIMER.c **** * Parameters:
 171:Generated_Source\PSoC4/TIMER.c **** *  None
 172:Generated_Source\PSoC4/TIMER.c **** *
 173:Generated_Source\PSoC4/TIMER.c **** * Return:
 174:Generated_Source\PSoC4/TIMER.c **** *  None
 175:Generated_Source\PSoC4/TIMER.c **** *
 176:Generated_Source\PSoC4/TIMER.c **** *******************************************************************************/
 177:Generated_Source\PSoC4/TIMER.c **** void TIMER_Enable(void)
 178:Generated_Source\PSoC4/TIMER.c **** {
  80              		.loc 1 178 0
  81              		.cfi_startproc
  82 0000 90B5     		push	{r4, r7, lr}
  83              		.cfi_def_cfa_offset 12
  84              		.cfi_offset 4, -12
  85              		.cfi_offset 7, -8
  86              		.cfi_offset 14, -4
  87 0002 83B0     		sub	sp, sp, #12
  88              		.cfi_def_cfa_offset 24
  89 0004 00AF     		add	r7, sp, #0
  90              		.cfi_def_cfa_register 7
 179:Generated_Source\PSoC4/TIMER.c ****     uint8 enableInterrupts;
 180:Generated_Source\PSoC4/TIMER.c **** 
 181:Generated_Source\PSoC4/TIMER.c ****     enableInterrupts = CyEnterCriticalSection();
  91              		.loc 1 181 0
  92 0006 FC1D     		add	r4, r7, #7
  93 0008 FFF7FEFF 		bl	CyEnterCriticalSection
  94 000c 031C     		mov	r3, r0
  95 000e 2370     		strb	r3, [r4]
 182:Generated_Source\PSoC4/TIMER.c ****     TIMER_BLOCK_CONTROL_REG |= TIMER_MASK;
  96              		.loc 1 182 0
  97 0010 084B     		ldr	r3, .L5
  98 0012 084A     		ldr	r2, .L5
  99 0014 1268     		ldr	r2, [r2]
 100 0016 0221     		mov	r1, #2
 101 0018 0A43     		orr	r2, r1
 102 001a 1A60     		str	r2, [r3]
 183:Generated_Source\PSoC4/TIMER.c ****     CyExitCriticalSection(enableInterrupts);
ARM GAS  C:\Users\ilya\AppData\Local\Temp\ccVU2AIc.s 			page 6


 103              		.loc 1 183 0
 104 001c FB1D     		add	r3, r7, #7
 105 001e 1B78     		ldrb	r3, [r3]
 106 0020 181C     		mov	r0, r3
 107 0022 FFF7FEFF 		bl	CyExitCriticalSection
 184:Generated_Source\PSoC4/TIMER.c **** 
 185:Generated_Source\PSoC4/TIMER.c ****     /* Start Timer or PWM if start input is absent */
 186:Generated_Source\PSoC4/TIMER.c ****     #if (TIMER__PWM_SEL == TIMER_CONFIG)
 187:Generated_Source\PSoC4/TIMER.c ****         #if (0u == TIMER_PWM_START_SIGNAL_PRESENT)
 188:Generated_Source\PSoC4/TIMER.c ****             TIMER_TriggerCommand(TIMER_MASK, TIMER_CMD_START);
 189:Generated_Source\PSoC4/TIMER.c ****         #endif /* (0u == TIMER_PWM_START_SIGNAL_PRESENT) */
 190:Generated_Source\PSoC4/TIMER.c ****     #endif /* (TIMER__PWM_SEL == TIMER_CONFIG) */
 191:Generated_Source\PSoC4/TIMER.c **** 
 192:Generated_Source\PSoC4/TIMER.c ****     #if (TIMER__TIMER == TIMER_CONFIG)
 193:Generated_Source\PSoC4/TIMER.c ****         #if (0u == TIMER_TC_START_SIGNAL_PRESENT)
 194:Generated_Source\PSoC4/TIMER.c ****             TIMER_TriggerCommand(TIMER_MASK, TIMER_CMD_START);
 108              		.loc 1 194 0
 109 0026 0220     		mov	r0, #2
 110 0028 1821     		mov	r1, #24
 111 002a FFF7FEFF 		bl	TIMER_TriggerCommand
 195:Generated_Source\PSoC4/TIMER.c ****         #endif /* (0u == TIMER_TC_START_SIGNAL_PRESENT) */
 196:Generated_Source\PSoC4/TIMER.c ****     #endif /* (TIMER__TIMER == TIMER_CONFIG) */
 197:Generated_Source\PSoC4/TIMER.c ****     
 198:Generated_Source\PSoC4/TIMER.c ****     #if (TIMER__QUAD == TIMER_CONFIG)
 199:Generated_Source\PSoC4/TIMER.c ****         #if (0u != TIMER_QUAD_AUTO_START)
 200:Generated_Source\PSoC4/TIMER.c ****             TIMER_TriggerCommand(TIMER_MASK, TIMER_CMD_RELOAD);
 201:Generated_Source\PSoC4/TIMER.c ****         #endif /* (0u != TIMER_QUAD_AUTO_START) */
 202:Generated_Source\PSoC4/TIMER.c ****     #endif  /* (TIMER__QUAD == TIMER_CONFIG) */
 203:Generated_Source\PSoC4/TIMER.c **** }
 112              		.loc 1 203 0
 113 002e BD46     		mov	sp, r7
 114 0030 03B0     		add	sp, sp, #12
 115              		@ sp needed
 116 0032 90BD     		pop	{r4, r7, pc}
 117              	.L6:
 118              		.align	2
 119              	.L5:
 120 0034 00002040 		.word	1075838976
 121              		.cfi_endproc
 122              	.LFE2:
 123              		.size	TIMER_Enable, .-TIMER_Enable
 124              		.section	.text.TIMER_Start,"ax",%progbits
 125              		.align	2
 126              		.global	TIMER_Start
 127              		.code	16
 128              		.thumb_func
 129              		.type	TIMER_Start, %function
 130              	TIMER_Start:
 131              	.LFB3:
 204:Generated_Source\PSoC4/TIMER.c **** 
 205:Generated_Source\PSoC4/TIMER.c **** 
 206:Generated_Source\PSoC4/TIMER.c **** /*******************************************************************************
 207:Generated_Source\PSoC4/TIMER.c **** * Function Name: TIMER_Start
 208:Generated_Source\PSoC4/TIMER.c **** ********************************************************************************
 209:Generated_Source\PSoC4/TIMER.c **** *
 210:Generated_Source\PSoC4/TIMER.c **** * Summary:
 211:Generated_Source\PSoC4/TIMER.c **** *  Initializes the TIMER with default customizer
ARM GAS  C:\Users\ilya\AppData\Local\Temp\ccVU2AIc.s 			page 7


 212:Generated_Source\PSoC4/TIMER.c **** *  values when called the first time and enables the TIMER.
 213:Generated_Source\PSoC4/TIMER.c **** *  For subsequent calls the configuration is left unchanged and the component is
 214:Generated_Source\PSoC4/TIMER.c **** *  just enabled.
 215:Generated_Source\PSoC4/TIMER.c **** *
 216:Generated_Source\PSoC4/TIMER.c **** * Parameters:
 217:Generated_Source\PSoC4/TIMER.c **** *  None
 218:Generated_Source\PSoC4/TIMER.c **** *
 219:Generated_Source\PSoC4/TIMER.c **** * Return:
 220:Generated_Source\PSoC4/TIMER.c **** *  None
 221:Generated_Source\PSoC4/TIMER.c **** *
 222:Generated_Source\PSoC4/TIMER.c **** * Global variables:
 223:Generated_Source\PSoC4/TIMER.c **** *  TIMER_initVar: global variable is used to indicate initial
 224:Generated_Source\PSoC4/TIMER.c **** *  configuration of this component.  The variable is initialized to zero and set
 225:Generated_Source\PSoC4/TIMER.c **** *  to 1 the first time TIMER_Start() is called. This allows
 226:Generated_Source\PSoC4/TIMER.c **** *  enabling/disabling a component without re-initialization in all subsequent
 227:Generated_Source\PSoC4/TIMER.c **** *  calls to the TIMER_Start() routine.
 228:Generated_Source\PSoC4/TIMER.c **** *
 229:Generated_Source\PSoC4/TIMER.c **** *******************************************************************************/
 230:Generated_Source\PSoC4/TIMER.c **** void TIMER_Start(void)
 231:Generated_Source\PSoC4/TIMER.c **** {
 132              		.loc 1 231 0
 133              		.cfi_startproc
 134 0000 80B5     		push	{r7, lr}
 135              		.cfi_def_cfa_offset 8
 136              		.cfi_offset 7, -8
 137              		.cfi_offset 14, -4
 138 0002 00AF     		add	r7, sp, #0
 139              		.cfi_def_cfa_register 7
 232:Generated_Source\PSoC4/TIMER.c ****     if (0u == TIMER_initVar)
 140              		.loc 1 232 0
 141 0004 064B     		ldr	r3, .L9
 142 0006 1B78     		ldrb	r3, [r3]
 143 0008 002B     		cmp	r3, #0
 144 000a 04D1     		bne	.L8
 233:Generated_Source\PSoC4/TIMER.c ****     {
 234:Generated_Source\PSoC4/TIMER.c ****         TIMER_Init();
 145              		.loc 1 234 0
 146 000c FFF7FEFF 		bl	TIMER_Init
 235:Generated_Source\PSoC4/TIMER.c ****         TIMER_initVar = 1u;
 147              		.loc 1 235 0
 148 0010 034B     		ldr	r3, .L9
 149 0012 0122     		mov	r2, #1
 150 0014 1A70     		strb	r2, [r3]
 151              	.L8:
 236:Generated_Source\PSoC4/TIMER.c ****     }
 237:Generated_Source\PSoC4/TIMER.c **** 
 238:Generated_Source\PSoC4/TIMER.c ****     TIMER_Enable();
 152              		.loc 1 238 0
 153 0016 FFF7FEFF 		bl	TIMER_Enable
 239:Generated_Source\PSoC4/TIMER.c **** }
 154              		.loc 1 239 0
 155 001a BD46     		mov	sp, r7
 156              		@ sp needed
 157 001c 80BD     		pop	{r7, pc}
 158              	.L10:
 159 001e C046     		.align	2
 160              	.L9:
ARM GAS  C:\Users\ilya\AppData\Local\Temp\ccVU2AIc.s 			page 8


 161 0020 00000000 		.word	TIMER_initVar
 162              		.cfi_endproc
 163              	.LFE3:
 164              		.size	TIMER_Start, .-TIMER_Start
 165              		.section	.text.TIMER_Stop,"ax",%progbits
 166              		.align	2
 167              		.global	TIMER_Stop
 168              		.code	16
 169              		.thumb_func
 170              		.type	TIMER_Stop, %function
 171              	TIMER_Stop:
 172              	.LFB4:
 240:Generated_Source\PSoC4/TIMER.c **** 
 241:Generated_Source\PSoC4/TIMER.c **** 
 242:Generated_Source\PSoC4/TIMER.c **** /*******************************************************************************
 243:Generated_Source\PSoC4/TIMER.c **** * Function Name: TIMER_Stop
 244:Generated_Source\PSoC4/TIMER.c **** ********************************************************************************
 245:Generated_Source\PSoC4/TIMER.c **** *
 246:Generated_Source\PSoC4/TIMER.c **** * Summary:
 247:Generated_Source\PSoC4/TIMER.c **** *  Disables the TIMER.
 248:Generated_Source\PSoC4/TIMER.c **** *
 249:Generated_Source\PSoC4/TIMER.c **** * Parameters:
 250:Generated_Source\PSoC4/TIMER.c **** *  None
 251:Generated_Source\PSoC4/TIMER.c **** *
 252:Generated_Source\PSoC4/TIMER.c **** * Return:
 253:Generated_Source\PSoC4/TIMER.c **** *  None
 254:Generated_Source\PSoC4/TIMER.c **** *
 255:Generated_Source\PSoC4/TIMER.c **** *******************************************************************************/
 256:Generated_Source\PSoC4/TIMER.c **** void TIMER_Stop(void)
 257:Generated_Source\PSoC4/TIMER.c **** {
 173              		.loc 1 257 0
 174              		.cfi_startproc
 175 0000 90B5     		push	{r4, r7, lr}
 176              		.cfi_def_cfa_offset 12
 177              		.cfi_offset 4, -12
 178              		.cfi_offset 7, -8
 179              		.cfi_offset 14, -4
 180 0002 83B0     		sub	sp, sp, #12
 181              		.cfi_def_cfa_offset 24
 182 0004 00AF     		add	r7, sp, #0
 183              		.cfi_def_cfa_register 7
 258:Generated_Source\PSoC4/TIMER.c ****     uint8 enableInterrupts;
 259:Generated_Source\PSoC4/TIMER.c **** 
 260:Generated_Source\PSoC4/TIMER.c ****     enableInterrupts = CyEnterCriticalSection();
 184              		.loc 1 260 0
 185 0006 FC1D     		add	r4, r7, #7
 186 0008 FFF7FEFF 		bl	CyEnterCriticalSection
 187 000c 031C     		mov	r3, r0
 188 000e 2370     		strb	r3, [r4]
 261:Generated_Source\PSoC4/TIMER.c **** 
 262:Generated_Source\PSoC4/TIMER.c ****     TIMER_BLOCK_CONTROL_REG &= (uint32)~TIMER_MASK;
 189              		.loc 1 262 0
 190 0010 064B     		ldr	r3, .L12
 191 0012 064A     		ldr	r2, .L12
 192 0014 1268     		ldr	r2, [r2]
 193 0016 0221     		mov	r1, #2
 194 0018 8A43     		bic	r2, r1
ARM GAS  C:\Users\ilya\AppData\Local\Temp\ccVU2AIc.s 			page 9


 195 001a 1A60     		str	r2, [r3]
 263:Generated_Source\PSoC4/TIMER.c **** 
 264:Generated_Source\PSoC4/TIMER.c ****     CyExitCriticalSection(enableInterrupts);
 196              		.loc 1 264 0
 197 001c FB1D     		add	r3, r7, #7
 198 001e 1B78     		ldrb	r3, [r3]
 199 0020 181C     		mov	r0, r3
 200 0022 FFF7FEFF 		bl	CyExitCriticalSection
 265:Generated_Source\PSoC4/TIMER.c **** }
 201              		.loc 1 265 0
 202 0026 BD46     		mov	sp, r7
 203 0028 03B0     		add	sp, sp, #12
 204              		@ sp needed
 205 002a 90BD     		pop	{r4, r7, pc}
 206              	.L13:
 207              		.align	2
 208              	.L12:
 209 002c 00002040 		.word	1075838976
 210              		.cfi_endproc
 211              	.LFE4:
 212              		.size	TIMER_Stop, .-TIMER_Stop
 213              		.section	.text.TIMER_SetMode,"ax",%progbits
 214              		.align	2
 215              		.global	TIMER_SetMode
 216              		.code	16
 217              		.thumb_func
 218              		.type	TIMER_SetMode, %function
 219              	TIMER_SetMode:
 220              	.LFB5:
 266:Generated_Source\PSoC4/TIMER.c **** 
 267:Generated_Source\PSoC4/TIMER.c **** 
 268:Generated_Source\PSoC4/TIMER.c **** /*******************************************************************************
 269:Generated_Source\PSoC4/TIMER.c **** * Function Name: TIMER_SetMode
 270:Generated_Source\PSoC4/TIMER.c **** ********************************************************************************
 271:Generated_Source\PSoC4/TIMER.c **** *
 272:Generated_Source\PSoC4/TIMER.c **** * Summary:
 273:Generated_Source\PSoC4/TIMER.c **** *  Sets the operation mode of the TIMER. This function is used when
 274:Generated_Source\PSoC4/TIMER.c **** *  configured as a generic TIMER and the actual mode of operation is
 275:Generated_Source\PSoC4/TIMER.c **** *  set at runtime. The mode must be set while the component is disabled.
 276:Generated_Source\PSoC4/TIMER.c **** *
 277:Generated_Source\PSoC4/TIMER.c **** * Parameters:
 278:Generated_Source\PSoC4/TIMER.c **** *  mode: Mode for the TIMER to operate in
 279:Generated_Source\PSoC4/TIMER.c **** *   Values:
 280:Generated_Source\PSoC4/TIMER.c **** *   - TIMER_MODE_TIMER_COMPARE - Timer / Counter with
 281:Generated_Source\PSoC4/TIMER.c **** *                                                 compare capability
 282:Generated_Source\PSoC4/TIMER.c **** *         - TIMER_MODE_TIMER_CAPTURE - Timer / Counter with
 283:Generated_Source\PSoC4/TIMER.c **** *                                                 capture capability
 284:Generated_Source\PSoC4/TIMER.c **** *         - TIMER_MODE_QUAD - Quadrature decoder
 285:Generated_Source\PSoC4/TIMER.c **** *         - TIMER_MODE_PWM - PWM
 286:Generated_Source\PSoC4/TIMER.c **** *         - TIMER_MODE_PWM_DT - PWM with dead time
 287:Generated_Source\PSoC4/TIMER.c **** *         - TIMER_MODE_PWM_PR - PWM with pseudo random capability
 288:Generated_Source\PSoC4/TIMER.c **** *
 289:Generated_Source\PSoC4/TIMER.c **** * Return:
 290:Generated_Source\PSoC4/TIMER.c **** *  None
 291:Generated_Source\PSoC4/TIMER.c **** *
 292:Generated_Source\PSoC4/TIMER.c **** *******************************************************************************/
 293:Generated_Source\PSoC4/TIMER.c **** void TIMER_SetMode(uint32 mode)
ARM GAS  C:\Users\ilya\AppData\Local\Temp\ccVU2AIc.s 			page 10


 294:Generated_Source\PSoC4/TIMER.c **** {
 221              		.loc 1 294 0
 222              		.cfi_startproc
 223 0000 90B5     		push	{r4, r7, lr}
 224              		.cfi_def_cfa_offset 12
 225              		.cfi_offset 4, -12
 226              		.cfi_offset 7, -8
 227              		.cfi_offset 14, -4
 228 0002 85B0     		sub	sp, sp, #20
 229              		.cfi_def_cfa_offset 32
 230 0004 00AF     		add	r7, sp, #0
 231              		.cfi_def_cfa_register 7
 232 0006 7860     		str	r0, [r7, #4]
 295:Generated_Source\PSoC4/TIMER.c ****     uint8 enableInterrupts;
 296:Generated_Source\PSoC4/TIMER.c **** 
 297:Generated_Source\PSoC4/TIMER.c ****     enableInterrupts = CyEnterCriticalSection();
 233              		.loc 1 297 0
 234 0008 0F23     		mov	r3, #15
 235 000a FC18     		add	r4, r7, r3
 236 000c FFF7FEFF 		bl	CyEnterCriticalSection
 237 0010 031C     		mov	r3, r0
 238 0012 2370     		strb	r3, [r4]
 298:Generated_Source\PSoC4/TIMER.c **** 
 299:Generated_Source\PSoC4/TIMER.c ****     TIMER_CONTROL_REG &= (uint32)~TIMER_MODE_MASK;
 239              		.loc 1 299 0
 240 0014 0A4B     		ldr	r3, .L15
 241 0016 0A4A     		ldr	r2, .L15
 242 0018 1268     		ldr	r2, [r2]
 243 001a 0A49     		ldr	r1, .L15+4
 244 001c 0A40     		and	r2, r1
 245 001e 1A60     		str	r2, [r3]
 300:Generated_Source\PSoC4/TIMER.c ****     TIMER_CONTROL_REG |= mode;
 246              		.loc 1 300 0
 247 0020 074B     		ldr	r3, .L15
 248 0022 074A     		ldr	r2, .L15
 249 0024 1168     		ldr	r1, [r2]
 250 0026 7A68     		ldr	r2, [r7, #4]
 251 0028 0A43     		orr	r2, r1
 252 002a 1A60     		str	r2, [r3]
 301:Generated_Source\PSoC4/TIMER.c **** 
 302:Generated_Source\PSoC4/TIMER.c ****     CyExitCriticalSection(enableInterrupts);
 253              		.loc 1 302 0
 254 002c 0F23     		mov	r3, #15
 255 002e FB18     		add	r3, r7, r3
 256 0030 1B78     		ldrb	r3, [r3]
 257 0032 181C     		mov	r0, r3
 258 0034 FFF7FEFF 		bl	CyExitCriticalSection
 303:Generated_Source\PSoC4/TIMER.c **** }
 259              		.loc 1 303 0
 260 0038 BD46     		mov	sp, r7
 261 003a 05B0     		add	sp, sp, #20
 262              		@ sp needed
 263 003c 90BD     		pop	{r4, r7, pc}
 264              	.L16:
 265 003e C046     		.align	2
 266              	.L15:
 267 0040 40012040 		.word	1075839296
ARM GAS  C:\Users\ilya\AppData\Local\Temp\ccVU2AIc.s 			page 11


 268 0044 FFFFFFF8 		.word	-117440513
 269              		.cfi_endproc
 270              	.LFE5:
 271              		.size	TIMER_SetMode, .-TIMER_SetMode
 272              		.section	.text.TIMER_SetQDMode,"ax",%progbits
 273              		.align	2
 274              		.global	TIMER_SetQDMode
 275              		.code	16
 276              		.thumb_func
 277              		.type	TIMER_SetQDMode, %function
 278              	TIMER_SetQDMode:
 279              	.LFB6:
 304:Generated_Source\PSoC4/TIMER.c **** 
 305:Generated_Source\PSoC4/TIMER.c **** 
 306:Generated_Source\PSoC4/TIMER.c **** /*******************************************************************************
 307:Generated_Source\PSoC4/TIMER.c **** * Function Name: TIMER_SetQDMode
 308:Generated_Source\PSoC4/TIMER.c **** ********************************************************************************
 309:Generated_Source\PSoC4/TIMER.c **** *
 310:Generated_Source\PSoC4/TIMER.c **** * Summary:
 311:Generated_Source\PSoC4/TIMER.c **** *  Sets the the Quadrature Decoder to one of the 3 supported modes.
 312:Generated_Source\PSoC4/TIMER.c **** *  Its functionality is only applicable to Quadrature Decoder operation.
 313:Generated_Source\PSoC4/TIMER.c **** *
 314:Generated_Source\PSoC4/TIMER.c **** * Parameters:
 315:Generated_Source\PSoC4/TIMER.c **** *  qdMode: Quadrature Decoder mode
 316:Generated_Source\PSoC4/TIMER.c **** *   Values:
 317:Generated_Source\PSoC4/TIMER.c **** *         - TIMER_MODE_X1 - Counts on phi 1 rising
 318:Generated_Source\PSoC4/TIMER.c **** *         - TIMER_MODE_X2 - Counts on both edges of phi1 (2x faster)
 319:Generated_Source\PSoC4/TIMER.c **** *         - TIMER_MODE_X4 - Counts on both edges of phi1 and phi2
 320:Generated_Source\PSoC4/TIMER.c **** *                                        (4x faster)
 321:Generated_Source\PSoC4/TIMER.c **** *
 322:Generated_Source\PSoC4/TIMER.c **** * Return:
 323:Generated_Source\PSoC4/TIMER.c **** *  None
 324:Generated_Source\PSoC4/TIMER.c **** *
 325:Generated_Source\PSoC4/TIMER.c **** *******************************************************************************/
 326:Generated_Source\PSoC4/TIMER.c **** void TIMER_SetQDMode(uint32 qdMode)
 327:Generated_Source\PSoC4/TIMER.c **** {
 280              		.loc 1 327 0
 281              		.cfi_startproc
 282 0000 90B5     		push	{r4, r7, lr}
 283              		.cfi_def_cfa_offset 12
 284              		.cfi_offset 4, -12
 285              		.cfi_offset 7, -8
 286              		.cfi_offset 14, -4
 287 0002 85B0     		sub	sp, sp, #20
 288              		.cfi_def_cfa_offset 32
 289 0004 00AF     		add	r7, sp, #0
 290              		.cfi_def_cfa_register 7
 291 0006 7860     		str	r0, [r7, #4]
 328:Generated_Source\PSoC4/TIMER.c ****     uint8 enableInterrupts;
 329:Generated_Source\PSoC4/TIMER.c **** 
 330:Generated_Source\PSoC4/TIMER.c ****     enableInterrupts = CyEnterCriticalSection();
 292              		.loc 1 330 0
 293 0008 0F23     		mov	r3, #15
 294 000a FC18     		add	r4, r7, r3
 295 000c FFF7FEFF 		bl	CyEnterCriticalSection
 296 0010 031C     		mov	r3, r0
 297 0012 2370     		strb	r3, [r4]
ARM GAS  C:\Users\ilya\AppData\Local\Temp\ccVU2AIc.s 			page 12


 331:Generated_Source\PSoC4/TIMER.c **** 
 332:Generated_Source\PSoC4/TIMER.c ****     TIMER_CONTROL_REG &= (uint32)~TIMER_QUAD_MODE_MASK;
 298              		.loc 1 332 0
 299 0014 0A4B     		ldr	r3, .L18
 300 0016 0A4A     		ldr	r2, .L18
 301 0018 1268     		ldr	r2, [r2]
 302 001a 0A49     		ldr	r1, .L18+4
 303 001c 0A40     		and	r2, r1
 304 001e 1A60     		str	r2, [r3]
 333:Generated_Source\PSoC4/TIMER.c ****     TIMER_CONTROL_REG |= qdMode;
 305              		.loc 1 333 0
 306 0020 074B     		ldr	r3, .L18
 307 0022 074A     		ldr	r2, .L18
 308 0024 1168     		ldr	r1, [r2]
 309 0026 7A68     		ldr	r2, [r7, #4]
 310 0028 0A43     		orr	r2, r1
 311 002a 1A60     		str	r2, [r3]
 334:Generated_Source\PSoC4/TIMER.c **** 
 335:Generated_Source\PSoC4/TIMER.c ****     CyExitCriticalSection(enableInterrupts);
 312              		.loc 1 335 0
 313 002c 0F23     		mov	r3, #15
 314 002e FB18     		add	r3, r7, r3
 315 0030 1B78     		ldrb	r3, [r3]
 316 0032 181C     		mov	r0, r3
 317 0034 FFF7FEFF 		bl	CyExitCriticalSection
 336:Generated_Source\PSoC4/TIMER.c **** }
 318              		.loc 1 336 0
 319 0038 BD46     		mov	sp, r7
 320 003a 05B0     		add	sp, sp, #20
 321              		@ sp needed
 322 003c 90BD     		pop	{r4, r7, pc}
 323              	.L19:
 324 003e C046     		.align	2
 325              	.L18:
 326 0040 40012040 		.word	1075839296
 327 0044 FFFF8FFF 		.word	-7340033
 328              		.cfi_endproc
 329              	.LFE6:
 330              		.size	TIMER_SetQDMode, .-TIMER_SetQDMode
 331              		.section	.text.TIMER_SetPrescaler,"ax",%progbits
 332              		.align	2
 333              		.global	TIMER_SetPrescaler
 334              		.code	16
 335              		.thumb_func
 336              		.type	TIMER_SetPrescaler, %function
 337              	TIMER_SetPrescaler:
 338              	.LFB7:
 337:Generated_Source\PSoC4/TIMER.c **** 
 338:Generated_Source\PSoC4/TIMER.c **** 
 339:Generated_Source\PSoC4/TIMER.c **** /*******************************************************************************
 340:Generated_Source\PSoC4/TIMER.c **** * Function Name: TIMER_SetPrescaler
 341:Generated_Source\PSoC4/TIMER.c **** ********************************************************************************
 342:Generated_Source\PSoC4/TIMER.c **** *
 343:Generated_Source\PSoC4/TIMER.c **** * Summary:
 344:Generated_Source\PSoC4/TIMER.c **** *  Sets the prescaler value that is applied to the clock input.  Not applicable
 345:Generated_Source\PSoC4/TIMER.c **** *  to a PWM with the dead time mode or Quadrature Decoder mode.
 346:Generated_Source\PSoC4/TIMER.c **** *
ARM GAS  C:\Users\ilya\AppData\Local\Temp\ccVU2AIc.s 			page 13


 347:Generated_Source\PSoC4/TIMER.c **** * Parameters:
 348:Generated_Source\PSoC4/TIMER.c **** *  prescaler: Prescaler divider value
 349:Generated_Source\PSoC4/TIMER.c **** *   Values:
 350:Generated_Source\PSoC4/TIMER.c **** *         - TIMER_PRESCALE_DIVBY1    - Divide by 1 (no prescaling)
 351:Generated_Source\PSoC4/TIMER.c **** *         - TIMER_PRESCALE_DIVBY2    - Divide by 2
 352:Generated_Source\PSoC4/TIMER.c **** *         - TIMER_PRESCALE_DIVBY4    - Divide by 4
 353:Generated_Source\PSoC4/TIMER.c **** *         - TIMER_PRESCALE_DIVBY8    - Divide by 8
 354:Generated_Source\PSoC4/TIMER.c **** *         - TIMER_PRESCALE_DIVBY16   - Divide by 16
 355:Generated_Source\PSoC4/TIMER.c **** *         - TIMER_PRESCALE_DIVBY32   - Divide by 32
 356:Generated_Source\PSoC4/TIMER.c **** *         - TIMER_PRESCALE_DIVBY64   - Divide by 64
 357:Generated_Source\PSoC4/TIMER.c **** *         - TIMER_PRESCALE_DIVBY128  - Divide by 128
 358:Generated_Source\PSoC4/TIMER.c **** *
 359:Generated_Source\PSoC4/TIMER.c **** * Return:
 360:Generated_Source\PSoC4/TIMER.c **** *  None
 361:Generated_Source\PSoC4/TIMER.c **** *
 362:Generated_Source\PSoC4/TIMER.c **** *******************************************************************************/
 363:Generated_Source\PSoC4/TIMER.c **** void TIMER_SetPrescaler(uint32 prescaler)
 364:Generated_Source\PSoC4/TIMER.c **** {
 339              		.loc 1 364 0
 340              		.cfi_startproc
 341 0000 90B5     		push	{r4, r7, lr}
 342              		.cfi_def_cfa_offset 12
 343              		.cfi_offset 4, -12
 344              		.cfi_offset 7, -8
 345              		.cfi_offset 14, -4
 346 0002 85B0     		sub	sp, sp, #20
 347              		.cfi_def_cfa_offset 32
 348 0004 00AF     		add	r7, sp, #0
 349              		.cfi_def_cfa_register 7
 350 0006 7860     		str	r0, [r7, #4]
 365:Generated_Source\PSoC4/TIMER.c ****     uint8 enableInterrupts;
 366:Generated_Source\PSoC4/TIMER.c **** 
 367:Generated_Source\PSoC4/TIMER.c ****     enableInterrupts = CyEnterCriticalSection();
 351              		.loc 1 367 0
 352 0008 0F23     		mov	r3, #15
 353 000a FC18     		add	r4, r7, r3
 354 000c FFF7FEFF 		bl	CyEnterCriticalSection
 355 0010 031C     		mov	r3, r0
 356 0012 2370     		strb	r3, [r4]
 368:Generated_Source\PSoC4/TIMER.c **** 
 369:Generated_Source\PSoC4/TIMER.c ****     TIMER_CONTROL_REG &= (uint32)~TIMER_PRESCALER_MASK;
 357              		.loc 1 369 0
 358 0014 0A4B     		ldr	r3, .L21
 359 0016 0A4A     		ldr	r2, .L21
 360 0018 1268     		ldr	r2, [r2]
 361 001a 0A49     		ldr	r1, .L21+4
 362 001c 0A40     		and	r2, r1
 363 001e 1A60     		str	r2, [r3]
 370:Generated_Source\PSoC4/TIMER.c ****     TIMER_CONTROL_REG |= prescaler;
 364              		.loc 1 370 0
 365 0020 074B     		ldr	r3, .L21
 366 0022 074A     		ldr	r2, .L21
 367 0024 1168     		ldr	r1, [r2]
 368 0026 7A68     		ldr	r2, [r7, #4]
 369 0028 0A43     		orr	r2, r1
 370 002a 1A60     		str	r2, [r3]
 371:Generated_Source\PSoC4/TIMER.c **** 
ARM GAS  C:\Users\ilya\AppData\Local\Temp\ccVU2AIc.s 			page 14


 372:Generated_Source\PSoC4/TIMER.c ****     CyExitCriticalSection(enableInterrupts);
 371              		.loc 1 372 0
 372 002c 0F23     		mov	r3, #15
 373 002e FB18     		add	r3, r7, r3
 374 0030 1B78     		ldrb	r3, [r3]
 375 0032 181C     		mov	r0, r3
 376 0034 FFF7FEFF 		bl	CyExitCriticalSection
 373:Generated_Source\PSoC4/TIMER.c **** }
 377              		.loc 1 373 0
 378 0038 BD46     		mov	sp, r7
 379 003a 05B0     		add	sp, sp, #20
 380              		@ sp needed
 381 003c 90BD     		pop	{r4, r7, pc}
 382              	.L22:
 383 003e C046     		.align	2
 384              	.L21:
 385 0040 40012040 		.word	1075839296
 386 0044 FF00FFFF 		.word	-65281
 387              		.cfi_endproc
 388              	.LFE7:
 389              		.size	TIMER_SetPrescaler, .-TIMER_SetPrescaler
 390              		.section	.text.TIMER_SetOneShot,"ax",%progbits
 391              		.align	2
 392              		.global	TIMER_SetOneShot
 393              		.code	16
 394              		.thumb_func
 395              		.type	TIMER_SetOneShot, %function
 396              	TIMER_SetOneShot:
 397              	.LFB8:
 374:Generated_Source\PSoC4/TIMER.c **** 
 375:Generated_Source\PSoC4/TIMER.c **** 
 376:Generated_Source\PSoC4/TIMER.c **** /*******************************************************************************
 377:Generated_Source\PSoC4/TIMER.c **** * Function Name: TIMER_SetOneShot
 378:Generated_Source\PSoC4/TIMER.c **** ********************************************************************************
 379:Generated_Source\PSoC4/TIMER.c **** *
 380:Generated_Source\PSoC4/TIMER.c **** * Summary:
 381:Generated_Source\PSoC4/TIMER.c **** *  Writes the register that controls whether the TIMER runs
 382:Generated_Source\PSoC4/TIMER.c **** *  continuously or stops when terminal count is reached.  By default the
 383:Generated_Source\PSoC4/TIMER.c **** *  TIMER operates in the continuous mode.
 384:Generated_Source\PSoC4/TIMER.c **** *
 385:Generated_Source\PSoC4/TIMER.c **** * Parameters:
 386:Generated_Source\PSoC4/TIMER.c **** *  oneShotEnable
 387:Generated_Source\PSoC4/TIMER.c **** *   Values:
 388:Generated_Source\PSoC4/TIMER.c **** *     - 0 - Continuous
 389:Generated_Source\PSoC4/TIMER.c **** *     - 1 - Enable One Shot
 390:Generated_Source\PSoC4/TIMER.c **** *
 391:Generated_Source\PSoC4/TIMER.c **** * Return:
 392:Generated_Source\PSoC4/TIMER.c **** *  None
 393:Generated_Source\PSoC4/TIMER.c **** *
 394:Generated_Source\PSoC4/TIMER.c **** *******************************************************************************/
 395:Generated_Source\PSoC4/TIMER.c **** void TIMER_SetOneShot(uint32 oneShotEnable)
 396:Generated_Source\PSoC4/TIMER.c **** {
 398              		.loc 1 396 0
 399              		.cfi_startproc
 400 0000 90B5     		push	{r4, r7, lr}
 401              		.cfi_def_cfa_offset 12
 402              		.cfi_offset 4, -12
ARM GAS  C:\Users\ilya\AppData\Local\Temp\ccVU2AIc.s 			page 15


 403              		.cfi_offset 7, -8
 404              		.cfi_offset 14, -4
 405 0002 85B0     		sub	sp, sp, #20
 406              		.cfi_def_cfa_offset 32
 407 0004 00AF     		add	r7, sp, #0
 408              		.cfi_def_cfa_register 7
 409 0006 7860     		str	r0, [r7, #4]
 397:Generated_Source\PSoC4/TIMER.c ****     uint8 enableInterrupts;
 398:Generated_Source\PSoC4/TIMER.c **** 
 399:Generated_Source\PSoC4/TIMER.c ****     enableInterrupts = CyEnterCriticalSection();
 410              		.loc 1 399 0
 411 0008 0F23     		mov	r3, #15
 412 000a FC18     		add	r4, r7, r3
 413 000c FFF7FEFF 		bl	CyEnterCriticalSection
 414 0010 031C     		mov	r3, r0
 415 0012 2370     		strb	r3, [r4]
 400:Generated_Source\PSoC4/TIMER.c **** 
 401:Generated_Source\PSoC4/TIMER.c ****     TIMER_CONTROL_REG &= (uint32)~TIMER_ONESHOT_MASK;
 416              		.loc 1 401 0
 417 0014 0B4B     		ldr	r3, .L24
 418 0016 0B4A     		ldr	r2, .L24
 419 0018 1268     		ldr	r2, [r2]
 420 001a 0B49     		ldr	r1, .L24+4
 421 001c 0A40     		and	r2, r1
 422 001e 1A60     		str	r2, [r3]
 402:Generated_Source\PSoC4/TIMER.c ****     TIMER_CONTROL_REG |= ((uint32)((oneShotEnable & TIMER_1BIT_MASK) <<
 423              		.loc 1 402 0
 424 0020 084B     		ldr	r3, .L24
 425 0022 084A     		ldr	r2, .L24
 426 0024 1168     		ldr	r1, [r2]
 427 0026 7A68     		ldr	r2, [r7, #4]
 428 0028 0120     		mov	r0, #1
 429 002a 0240     		and	r2, r0
 430 002c 9204     		lsl	r2, r2, #18
 431 002e 0A43     		orr	r2, r1
 432 0030 1A60     		str	r2, [r3]
 403:Generated_Source\PSoC4/TIMER.c ****                                                                TIMER_ONESHOT_SHIFT));
 404:Generated_Source\PSoC4/TIMER.c **** 
 405:Generated_Source\PSoC4/TIMER.c ****     CyExitCriticalSection(enableInterrupts);
 433              		.loc 1 405 0
 434 0032 0F23     		mov	r3, #15
 435 0034 FB18     		add	r3, r7, r3
 436 0036 1B78     		ldrb	r3, [r3]
 437 0038 181C     		mov	r0, r3
 438 003a FFF7FEFF 		bl	CyExitCriticalSection
 406:Generated_Source\PSoC4/TIMER.c **** }
 439              		.loc 1 406 0
 440 003e BD46     		mov	sp, r7
 441 0040 05B0     		add	sp, sp, #20
 442              		@ sp needed
 443 0042 90BD     		pop	{r4, r7, pc}
 444              	.L25:
 445              		.align	2
 446              	.L24:
 447 0044 40012040 		.word	1075839296
 448 0048 FFFFFBFF 		.word	-262145
 449              		.cfi_endproc
ARM GAS  C:\Users\ilya\AppData\Local\Temp\ccVU2AIc.s 			page 16


 450              	.LFE8:
 451              		.size	TIMER_SetOneShot, .-TIMER_SetOneShot
 452              		.section	.text.TIMER_SetPWMMode,"ax",%progbits
 453              		.align	2
 454              		.global	TIMER_SetPWMMode
 455              		.code	16
 456              		.thumb_func
 457              		.type	TIMER_SetPWMMode, %function
 458              	TIMER_SetPWMMode:
 459              	.LFB9:
 407:Generated_Source\PSoC4/TIMER.c **** 
 408:Generated_Source\PSoC4/TIMER.c **** 
 409:Generated_Source\PSoC4/TIMER.c **** /*******************************************************************************
 410:Generated_Source\PSoC4/TIMER.c **** * Function Name: TIMER_SetPWMMode
 411:Generated_Source\PSoC4/TIMER.c **** ********************************************************************************
 412:Generated_Source\PSoC4/TIMER.c **** *
 413:Generated_Source\PSoC4/TIMER.c **** * Summary:
 414:Generated_Source\PSoC4/TIMER.c **** *  Writes the control register that determines what mode of operation the PWM
 415:Generated_Source\PSoC4/TIMER.c **** *  output lines are driven in.  There is a setting for what to do on a
 416:Generated_Source\PSoC4/TIMER.c **** *  comparison match (CC_MATCH), on an overflow (OVERFLOW) and on an underflow
 417:Generated_Source\PSoC4/TIMER.c **** *  (UNDERFLOW).  The value for each of the three must be ORed together to form
 418:Generated_Source\PSoC4/TIMER.c **** *  the mode.
 419:Generated_Source\PSoC4/TIMER.c **** *
 420:Generated_Source\PSoC4/TIMER.c **** * Parameters:
 421:Generated_Source\PSoC4/TIMER.c **** *  modeMask: A combination of three mode settings.  Mask must include a value
 422:Generated_Source\PSoC4/TIMER.c **** *  for each of the three or use one of the preconfigured PWM settings.
 423:Generated_Source\PSoC4/TIMER.c **** *   Values:
 424:Generated_Source\PSoC4/TIMER.c **** *     - CC_MATCH_SET        - Set on comparison match
 425:Generated_Source\PSoC4/TIMER.c **** *     - CC_MATCH_CLEAR      - Clear on comparison match
 426:Generated_Source\PSoC4/TIMER.c **** *     - CC_MATCH_INVERT     - Invert on comparison match
 427:Generated_Source\PSoC4/TIMER.c **** *     - CC_MATCH_NO_CHANGE  - No change on comparison match
 428:Generated_Source\PSoC4/TIMER.c **** *     - OVERLOW_SET         - Set on overflow
 429:Generated_Source\PSoC4/TIMER.c **** *     - OVERLOW_CLEAR       - Clear on  overflow
 430:Generated_Source\PSoC4/TIMER.c **** *     - OVERLOW_INVERT      - Invert on overflow
 431:Generated_Source\PSoC4/TIMER.c **** *     - OVERLOW_NO_CHANGE   - No change on overflow
 432:Generated_Source\PSoC4/TIMER.c **** *     - UNDERFLOW_SET       - Set on underflow
 433:Generated_Source\PSoC4/TIMER.c **** *     - UNDERFLOW_CLEAR     - Clear on underflow
 434:Generated_Source\PSoC4/TIMER.c **** *     - UNDERFLOW_INVERT    - Invert on underflow
 435:Generated_Source\PSoC4/TIMER.c **** *     - UNDERFLOW_NO_CHANGE - No change on underflow
 436:Generated_Source\PSoC4/TIMER.c **** *     - PWM_MODE_LEFT       - Setting for left aligned PWM.  Should be combined
 437:Generated_Source\PSoC4/TIMER.c **** *                             with up counting mode
 438:Generated_Source\PSoC4/TIMER.c **** *     - PWM_MODE_RIGHT      - Setting for right aligned PWM.  Should be combined
 439:Generated_Source\PSoC4/TIMER.c **** *                             with down counting mode
 440:Generated_Source\PSoC4/TIMER.c **** *     - PWM_MODE_CENTER     - Setting for center aligned PWM.  Should be
 441:Generated_Source\PSoC4/TIMER.c **** *                             combined with up/down 0 mode
 442:Generated_Source\PSoC4/TIMER.c **** *     - PWM_MODE_ASYM       - Setting for asymmetric PWM.  Should be combined
 443:Generated_Source\PSoC4/TIMER.c **** *                             with up/down 1 mode
 444:Generated_Source\PSoC4/TIMER.c **** *
 445:Generated_Source\PSoC4/TIMER.c **** * Return:
 446:Generated_Source\PSoC4/TIMER.c **** *  None
 447:Generated_Source\PSoC4/TIMER.c **** *
 448:Generated_Source\PSoC4/TIMER.c **** *******************************************************************************/
 449:Generated_Source\PSoC4/TIMER.c **** void TIMER_SetPWMMode(uint32 modeMask)
 450:Generated_Source\PSoC4/TIMER.c **** {
 460              		.loc 1 450 0
 461              		.cfi_startproc
 462 0000 80B5     		push	{r7, lr}
ARM GAS  C:\Users\ilya\AppData\Local\Temp\ccVU2AIc.s 			page 17


 463              		.cfi_def_cfa_offset 8
 464              		.cfi_offset 7, -8
 465              		.cfi_offset 14, -4
 466 0002 82B0     		sub	sp, sp, #8
 467              		.cfi_def_cfa_offset 16
 468 0004 00AF     		add	r7, sp, #0
 469              		.cfi_def_cfa_register 7
 470 0006 7860     		str	r0, [r7, #4]
 451:Generated_Source\PSoC4/TIMER.c ****     TIMER_TRIG_CONTROL2_REG = (modeMask & TIMER_6BIT_MASK);
 471              		.loc 1 451 0
 472 0008 034B     		ldr	r3, .L27
 473 000a 7A68     		ldr	r2, [r7, #4]
 474 000c 3F21     		mov	r1, #63
 475 000e 0A40     		and	r2, r1
 476 0010 1A60     		str	r2, [r3]
 452:Generated_Source\PSoC4/TIMER.c **** }
 477              		.loc 1 452 0
 478 0012 BD46     		mov	sp, r7
 479 0014 02B0     		add	sp, sp, #8
 480              		@ sp needed
 481 0016 80BD     		pop	{r7, pc}
 482              	.L28:
 483              		.align	2
 484              	.L27:
 485 0018 68012040 		.word	1075839336
 486              		.cfi_endproc
 487              	.LFE9:
 488              		.size	TIMER_SetPWMMode, .-TIMER_SetPWMMode
 489              		.section	.text.TIMER_SetPWMSyncKill,"ax",%progbits
 490              		.align	2
 491              		.global	TIMER_SetPWMSyncKill
 492              		.code	16
 493              		.thumb_func
 494              		.type	TIMER_SetPWMSyncKill, %function
 495              	TIMER_SetPWMSyncKill:
 496              	.LFB10:
 453:Generated_Source\PSoC4/TIMER.c **** 
 454:Generated_Source\PSoC4/TIMER.c **** 
 455:Generated_Source\PSoC4/TIMER.c **** 
 456:Generated_Source\PSoC4/TIMER.c **** /*******************************************************************************
 457:Generated_Source\PSoC4/TIMER.c **** * Function Name: TIMER_SetPWMSyncKill
 458:Generated_Source\PSoC4/TIMER.c **** ********************************************************************************
 459:Generated_Source\PSoC4/TIMER.c **** *
 460:Generated_Source\PSoC4/TIMER.c **** * Summary:
 461:Generated_Source\PSoC4/TIMER.c **** *  Writes the register that controls whether the PWM kill signal (stop input)
 462:Generated_Source\PSoC4/TIMER.c **** *  causes asynchronous or synchronous kill operation.  By default the kill
 463:Generated_Source\PSoC4/TIMER.c **** *  operation is asynchronous.  This functionality is only applicable to the PWM
 464:Generated_Source\PSoC4/TIMER.c **** *  and PWM with dead time modes.
 465:Generated_Source\PSoC4/TIMER.c **** *
 466:Generated_Source\PSoC4/TIMER.c **** *  For Synchronous mode the kill signal disables both the line and line_n
 467:Generated_Source\PSoC4/TIMER.c **** *  signals until the next terminal count.
 468:Generated_Source\PSoC4/TIMER.c **** *
 469:Generated_Source\PSoC4/TIMER.c **** *  For Asynchronous mode the kill signal disables both the line and line_n
 470:Generated_Source\PSoC4/TIMER.c **** *  signals when the kill signal is present.  This mode should only be used
 471:Generated_Source\PSoC4/TIMER.c **** *  when the kill signal (stop input) is configured in the pass through mode
 472:Generated_Source\PSoC4/TIMER.c **** *  (Level sensitive signal).
 473:Generated_Source\PSoC4/TIMER.c **** 
ARM GAS  C:\Users\ilya\AppData\Local\Temp\ccVU2AIc.s 			page 18


 474:Generated_Source\PSoC4/TIMER.c **** *
 475:Generated_Source\PSoC4/TIMER.c **** * Parameters:
 476:Generated_Source\PSoC4/TIMER.c **** *  syncKillEnable
 477:Generated_Source\PSoC4/TIMER.c **** *   Values:
 478:Generated_Source\PSoC4/TIMER.c **** *     - 0 - Asynchronous
 479:Generated_Source\PSoC4/TIMER.c **** *     - 1 - Synchronous
 480:Generated_Source\PSoC4/TIMER.c **** *
 481:Generated_Source\PSoC4/TIMER.c **** * Return:
 482:Generated_Source\PSoC4/TIMER.c **** *  None
 483:Generated_Source\PSoC4/TIMER.c **** *
 484:Generated_Source\PSoC4/TIMER.c **** *******************************************************************************/
 485:Generated_Source\PSoC4/TIMER.c **** void TIMER_SetPWMSyncKill(uint32 syncKillEnable)
 486:Generated_Source\PSoC4/TIMER.c **** {
 497              		.loc 1 486 0
 498              		.cfi_startproc
 499 0000 90B5     		push	{r4, r7, lr}
 500              		.cfi_def_cfa_offset 12
 501              		.cfi_offset 4, -12
 502              		.cfi_offset 7, -8
 503              		.cfi_offset 14, -4
 504 0002 85B0     		sub	sp, sp, #20
 505              		.cfi_def_cfa_offset 32
 506 0004 00AF     		add	r7, sp, #0
 507              		.cfi_def_cfa_register 7
 508 0006 7860     		str	r0, [r7, #4]
 487:Generated_Source\PSoC4/TIMER.c ****     uint8 enableInterrupts;
 488:Generated_Source\PSoC4/TIMER.c **** 
 489:Generated_Source\PSoC4/TIMER.c ****     enableInterrupts = CyEnterCriticalSection();
 509              		.loc 1 489 0
 510 0008 0F23     		mov	r3, #15
 511 000a FC18     		add	r4, r7, r3
 512 000c FFF7FEFF 		bl	CyEnterCriticalSection
 513 0010 031C     		mov	r3, r0
 514 0012 2370     		strb	r3, [r4]
 490:Generated_Source\PSoC4/TIMER.c **** 
 491:Generated_Source\PSoC4/TIMER.c ****     TIMER_CONTROL_REG &= (uint32)~TIMER_PWM_SYNC_KILL_MASK;
 515              		.loc 1 491 0
 516 0014 0B4B     		ldr	r3, .L30
 517 0016 0B4A     		ldr	r2, .L30
 518 0018 1268     		ldr	r2, [r2]
 519 001a 0421     		mov	r1, #4
 520 001c 8A43     		bic	r2, r1
 521 001e 1A60     		str	r2, [r3]
 492:Generated_Source\PSoC4/TIMER.c ****     TIMER_CONTROL_REG |= ((uint32)((syncKillEnable & TIMER_1BIT_MASK)  <<
 522              		.loc 1 492 0
 523 0020 084B     		ldr	r3, .L30
 524 0022 084A     		ldr	r2, .L30
 525 0024 1168     		ldr	r1, [r2]
 526 0026 7A68     		ldr	r2, [r7, #4]
 527 0028 0120     		mov	r0, #1
 528 002a 0240     		and	r2, r0
 529 002c 9200     		lsl	r2, r2, #2
 530 002e 0A43     		orr	r2, r1
 531 0030 1A60     		str	r2, [r3]
 493:Generated_Source\PSoC4/TIMER.c ****                                                TIMER_PWM_SYNC_KILL_SHIFT));
 494:Generated_Source\PSoC4/TIMER.c **** 
 495:Generated_Source\PSoC4/TIMER.c ****     CyExitCriticalSection(enableInterrupts);
ARM GAS  C:\Users\ilya\AppData\Local\Temp\ccVU2AIc.s 			page 19


 532              		.loc 1 495 0
 533 0032 0F23     		mov	r3, #15
 534 0034 FB18     		add	r3, r7, r3
 535 0036 1B78     		ldrb	r3, [r3]
 536 0038 181C     		mov	r0, r3
 537 003a FFF7FEFF 		bl	CyExitCriticalSection
 496:Generated_Source\PSoC4/TIMER.c **** }
 538              		.loc 1 496 0
 539 003e BD46     		mov	sp, r7
 540 0040 05B0     		add	sp, sp, #20
 541              		@ sp needed
 542 0042 90BD     		pop	{r4, r7, pc}
 543              	.L31:
 544              		.align	2
 545              	.L30:
 546 0044 40012040 		.word	1075839296
 547              		.cfi_endproc
 548              	.LFE10:
 549              		.size	TIMER_SetPWMSyncKill, .-TIMER_SetPWMSyncKill
 550              		.section	.text.TIMER_SetPWMStopOnKill,"ax",%progbits
 551              		.align	2
 552              		.global	TIMER_SetPWMStopOnKill
 553              		.code	16
 554              		.thumb_func
 555              		.type	TIMER_SetPWMStopOnKill, %function
 556              	TIMER_SetPWMStopOnKill:
 557              	.LFB11:
 497:Generated_Source\PSoC4/TIMER.c **** 
 498:Generated_Source\PSoC4/TIMER.c **** 
 499:Generated_Source\PSoC4/TIMER.c **** /*******************************************************************************
 500:Generated_Source\PSoC4/TIMER.c **** * Function Name: TIMER_SetPWMStopOnKill
 501:Generated_Source\PSoC4/TIMER.c **** ********************************************************************************
 502:Generated_Source\PSoC4/TIMER.c **** *
 503:Generated_Source\PSoC4/TIMER.c **** * Summary:
 504:Generated_Source\PSoC4/TIMER.c **** *  Writes the register that controls whether the PWM kill signal (stop input)
 505:Generated_Source\PSoC4/TIMER.c **** *  causes the PWM counter to stop.  By default the kill operation does not stop
 506:Generated_Source\PSoC4/TIMER.c **** *  the counter.  This functionality is only applicable to the three PWM modes.
 507:Generated_Source\PSoC4/TIMER.c **** *
 508:Generated_Source\PSoC4/TIMER.c **** *
 509:Generated_Source\PSoC4/TIMER.c **** * Parameters:
 510:Generated_Source\PSoC4/TIMER.c **** *  stopOnKillEnable
 511:Generated_Source\PSoC4/TIMER.c **** *   Values:
 512:Generated_Source\PSoC4/TIMER.c **** *     - 0 - Don't stop
 513:Generated_Source\PSoC4/TIMER.c **** *     - 1 - Stop
 514:Generated_Source\PSoC4/TIMER.c **** *
 515:Generated_Source\PSoC4/TIMER.c **** * Return:
 516:Generated_Source\PSoC4/TIMER.c **** *  None
 517:Generated_Source\PSoC4/TIMER.c **** *
 518:Generated_Source\PSoC4/TIMER.c **** *******************************************************************************/
 519:Generated_Source\PSoC4/TIMER.c **** void TIMER_SetPWMStopOnKill(uint32 stopOnKillEnable)
 520:Generated_Source\PSoC4/TIMER.c **** {
 558              		.loc 1 520 0
 559              		.cfi_startproc
 560 0000 90B5     		push	{r4, r7, lr}
 561              		.cfi_def_cfa_offset 12
 562              		.cfi_offset 4, -12
 563              		.cfi_offset 7, -8
ARM GAS  C:\Users\ilya\AppData\Local\Temp\ccVU2AIc.s 			page 20


 564              		.cfi_offset 14, -4
 565 0002 85B0     		sub	sp, sp, #20
 566              		.cfi_def_cfa_offset 32
 567 0004 00AF     		add	r7, sp, #0
 568              		.cfi_def_cfa_register 7
 569 0006 7860     		str	r0, [r7, #4]
 521:Generated_Source\PSoC4/TIMER.c ****     uint8 enableInterrupts;
 522:Generated_Source\PSoC4/TIMER.c **** 
 523:Generated_Source\PSoC4/TIMER.c ****     enableInterrupts = CyEnterCriticalSection();
 570              		.loc 1 523 0
 571 0008 0F23     		mov	r3, #15
 572 000a FC18     		add	r4, r7, r3
 573 000c FFF7FEFF 		bl	CyEnterCriticalSection
 574 0010 031C     		mov	r3, r0
 575 0012 2370     		strb	r3, [r4]
 524:Generated_Source\PSoC4/TIMER.c **** 
 525:Generated_Source\PSoC4/TIMER.c ****     TIMER_CONTROL_REG &= (uint32)~TIMER_PWM_STOP_KILL_MASK;
 576              		.loc 1 525 0
 577 0014 0B4B     		ldr	r3, .L33
 578 0016 0B4A     		ldr	r2, .L33
 579 0018 1268     		ldr	r2, [r2]
 580 001a 0821     		mov	r1, #8
 581 001c 8A43     		bic	r2, r1
 582 001e 1A60     		str	r2, [r3]
 526:Generated_Source\PSoC4/TIMER.c ****     TIMER_CONTROL_REG |= ((uint32)((stopOnKillEnable & TIMER_1BIT_MASK)  <<
 583              		.loc 1 526 0
 584 0020 084B     		ldr	r3, .L33
 585 0022 084A     		ldr	r2, .L33
 586 0024 1168     		ldr	r1, [r2]
 587 0026 7A68     		ldr	r2, [r7, #4]
 588 0028 0120     		mov	r0, #1
 589 002a 0240     		and	r2, r0
 590 002c D200     		lsl	r2, r2, #3
 591 002e 0A43     		orr	r2, r1
 592 0030 1A60     		str	r2, [r3]
 527:Generated_Source\PSoC4/TIMER.c ****                                                          TIMER_PWM_STOP_KILL_SHIFT));
 528:Generated_Source\PSoC4/TIMER.c **** 
 529:Generated_Source\PSoC4/TIMER.c ****     CyExitCriticalSection(enableInterrupts);
 593              		.loc 1 529 0
 594 0032 0F23     		mov	r3, #15
 595 0034 FB18     		add	r3, r7, r3
 596 0036 1B78     		ldrb	r3, [r3]
 597 0038 181C     		mov	r0, r3
 598 003a FFF7FEFF 		bl	CyExitCriticalSection
 530:Generated_Source\PSoC4/TIMER.c **** }
 599              		.loc 1 530 0
 600 003e BD46     		mov	sp, r7
 601 0040 05B0     		add	sp, sp, #20
 602              		@ sp needed
 603 0042 90BD     		pop	{r4, r7, pc}
 604              	.L34:
 605              		.align	2
 606              	.L33:
 607 0044 40012040 		.word	1075839296
 608              		.cfi_endproc
 609              	.LFE11:
 610              		.size	TIMER_SetPWMStopOnKill, .-TIMER_SetPWMStopOnKill
ARM GAS  C:\Users\ilya\AppData\Local\Temp\ccVU2AIc.s 			page 21


 611              		.section	.text.TIMER_SetPWMDeadTime,"ax",%progbits
 612              		.align	2
 613              		.global	TIMER_SetPWMDeadTime
 614              		.code	16
 615              		.thumb_func
 616              		.type	TIMER_SetPWMDeadTime, %function
 617              	TIMER_SetPWMDeadTime:
 618              	.LFB12:
 531:Generated_Source\PSoC4/TIMER.c **** 
 532:Generated_Source\PSoC4/TIMER.c **** 
 533:Generated_Source\PSoC4/TIMER.c **** /*******************************************************************************
 534:Generated_Source\PSoC4/TIMER.c **** * Function Name: TIMER_SetPWMDeadTime
 535:Generated_Source\PSoC4/TIMER.c **** ********************************************************************************
 536:Generated_Source\PSoC4/TIMER.c **** *
 537:Generated_Source\PSoC4/TIMER.c **** * Summary:
 538:Generated_Source\PSoC4/TIMER.c **** *  Writes the dead time control value.  This value delays the rising edge of
 539:Generated_Source\PSoC4/TIMER.c **** *  both the line and line_n signals the designated number of cycles resulting
 540:Generated_Source\PSoC4/TIMER.c **** *  in both signals being inactive for that many cycles.  This functionality is
 541:Generated_Source\PSoC4/TIMER.c **** *  only applicable to the PWM in the dead time mode.
 542:Generated_Source\PSoC4/TIMER.c **** 
 543:Generated_Source\PSoC4/TIMER.c **** *
 544:Generated_Source\PSoC4/TIMER.c **** * Parameters:
 545:Generated_Source\PSoC4/TIMER.c **** *  Dead time to insert
 546:Generated_Source\PSoC4/TIMER.c **** *   Values: 0 to 255
 547:Generated_Source\PSoC4/TIMER.c **** *
 548:Generated_Source\PSoC4/TIMER.c **** * Return:
 549:Generated_Source\PSoC4/TIMER.c **** *  None
 550:Generated_Source\PSoC4/TIMER.c **** *
 551:Generated_Source\PSoC4/TIMER.c **** *******************************************************************************/
 552:Generated_Source\PSoC4/TIMER.c **** void TIMER_SetPWMDeadTime(uint32 deadTime)
 553:Generated_Source\PSoC4/TIMER.c **** {
 619              		.loc 1 553 0
 620              		.cfi_startproc
 621 0000 90B5     		push	{r4, r7, lr}
 622              		.cfi_def_cfa_offset 12
 623              		.cfi_offset 4, -12
 624              		.cfi_offset 7, -8
 625              		.cfi_offset 14, -4
 626 0002 85B0     		sub	sp, sp, #20
 627              		.cfi_def_cfa_offset 32
 628 0004 00AF     		add	r7, sp, #0
 629              		.cfi_def_cfa_register 7
 630 0006 7860     		str	r0, [r7, #4]
 554:Generated_Source\PSoC4/TIMER.c ****     uint8 enableInterrupts;
 555:Generated_Source\PSoC4/TIMER.c **** 
 556:Generated_Source\PSoC4/TIMER.c ****     enableInterrupts = CyEnterCriticalSection();
 631              		.loc 1 556 0
 632 0008 0F23     		mov	r3, #15
 633 000a FC18     		add	r4, r7, r3
 634 000c FFF7FEFF 		bl	CyEnterCriticalSection
 635 0010 031C     		mov	r3, r0
 636 0012 2370     		strb	r3, [r4]
 557:Generated_Source\PSoC4/TIMER.c **** 
 558:Generated_Source\PSoC4/TIMER.c ****     TIMER_CONTROL_REG &= (uint32)~TIMER_PRESCALER_MASK;
 637              		.loc 1 558 0
 638 0014 0B4B     		ldr	r3, .L36
 639 0016 0B4A     		ldr	r2, .L36
ARM GAS  C:\Users\ilya\AppData\Local\Temp\ccVU2AIc.s 			page 22


 640 0018 1268     		ldr	r2, [r2]
 641 001a 0B49     		ldr	r1, .L36+4
 642 001c 0A40     		and	r2, r1
 643 001e 1A60     		str	r2, [r3]
 559:Generated_Source\PSoC4/TIMER.c ****     TIMER_CONTROL_REG |= ((uint32)((deadTime & TIMER_8BIT_MASK) <<
 644              		.loc 1 559 0
 645 0020 084B     		ldr	r3, .L36
 646 0022 084A     		ldr	r2, .L36
 647 0024 1168     		ldr	r1, [r2]
 648 0026 7A68     		ldr	r2, [r7, #4]
 649 0028 1202     		lsl	r2, r2, #8
 650 002a 1204     		lsl	r2, r2, #16
 651 002c 120C     		lsr	r2, r2, #16
 652 002e 0A43     		orr	r2, r1
 653 0030 1A60     		str	r2, [r3]
 560:Generated_Source\PSoC4/TIMER.c ****                                                           TIMER_PRESCALER_SHIFT));
 561:Generated_Source\PSoC4/TIMER.c **** 
 562:Generated_Source\PSoC4/TIMER.c ****     CyExitCriticalSection(enableInterrupts);
 654              		.loc 1 562 0
 655 0032 0F23     		mov	r3, #15
 656 0034 FB18     		add	r3, r7, r3
 657 0036 1B78     		ldrb	r3, [r3]
 658 0038 181C     		mov	r0, r3
 659 003a FFF7FEFF 		bl	CyExitCriticalSection
 563:Generated_Source\PSoC4/TIMER.c **** }
 660              		.loc 1 563 0
 661 003e BD46     		mov	sp, r7
 662 0040 05B0     		add	sp, sp, #20
 663              		@ sp needed
 664 0042 90BD     		pop	{r4, r7, pc}
 665              	.L37:
 666              		.align	2
 667              	.L36:
 668 0044 40012040 		.word	1075839296
 669 0048 FF00FFFF 		.word	-65281
 670              		.cfi_endproc
 671              	.LFE12:
 672              		.size	TIMER_SetPWMDeadTime, .-TIMER_SetPWMDeadTime
 673              		.section	.text.TIMER_SetPWMInvert,"ax",%progbits
 674              		.align	2
 675              		.global	TIMER_SetPWMInvert
 676              		.code	16
 677              		.thumb_func
 678              		.type	TIMER_SetPWMInvert, %function
 679              	TIMER_SetPWMInvert:
 680              	.LFB13:
 564:Generated_Source\PSoC4/TIMER.c **** 
 565:Generated_Source\PSoC4/TIMER.c **** 
 566:Generated_Source\PSoC4/TIMER.c **** /*******************************************************************************
 567:Generated_Source\PSoC4/TIMER.c **** * Function Name: TIMER_SetPWMInvert
 568:Generated_Source\PSoC4/TIMER.c **** ********************************************************************************
 569:Generated_Source\PSoC4/TIMER.c **** *
 570:Generated_Source\PSoC4/TIMER.c **** * Summary:
 571:Generated_Source\PSoC4/TIMER.c **** *  Writes the bits that control whether the line and line_n outputs are
 572:Generated_Source\PSoC4/TIMER.c **** *  inverted from their normal output values.  This functionality is only
 573:Generated_Source\PSoC4/TIMER.c **** *  applicable to the three PWM modes.
 574:Generated_Source\PSoC4/TIMER.c **** *
ARM GAS  C:\Users\ilya\AppData\Local\Temp\ccVU2AIc.s 			page 23


 575:Generated_Source\PSoC4/TIMER.c **** * Parameters:
 576:Generated_Source\PSoC4/TIMER.c **** *  mask: Mask of outputs to invert.
 577:Generated_Source\PSoC4/TIMER.c **** *   Values:
 578:Generated_Source\PSoC4/TIMER.c **** *         - TIMER_INVERT_LINE   - Inverts the line output
 579:Generated_Source\PSoC4/TIMER.c **** *         - TIMER_INVERT_LINE_N - Inverts the line_n output
 580:Generated_Source\PSoC4/TIMER.c **** *
 581:Generated_Source\PSoC4/TIMER.c **** * Return:
 582:Generated_Source\PSoC4/TIMER.c **** *  None
 583:Generated_Source\PSoC4/TIMER.c **** *
 584:Generated_Source\PSoC4/TIMER.c **** *******************************************************************************/
 585:Generated_Source\PSoC4/TIMER.c **** void TIMER_SetPWMInvert(uint32 mask)
 586:Generated_Source\PSoC4/TIMER.c **** {
 681              		.loc 1 586 0
 682              		.cfi_startproc
 683 0000 90B5     		push	{r4, r7, lr}
 684              		.cfi_def_cfa_offset 12
 685              		.cfi_offset 4, -12
 686              		.cfi_offset 7, -8
 687              		.cfi_offset 14, -4
 688 0002 85B0     		sub	sp, sp, #20
 689              		.cfi_def_cfa_offset 32
 690 0004 00AF     		add	r7, sp, #0
 691              		.cfi_def_cfa_register 7
 692 0006 7860     		str	r0, [r7, #4]
 587:Generated_Source\PSoC4/TIMER.c ****     uint8 enableInterrupts;
 588:Generated_Source\PSoC4/TIMER.c **** 
 589:Generated_Source\PSoC4/TIMER.c ****     enableInterrupts = CyEnterCriticalSection();
 693              		.loc 1 589 0
 694 0008 0F23     		mov	r3, #15
 695 000a FC18     		add	r4, r7, r3
 696 000c FFF7FEFF 		bl	CyEnterCriticalSection
 697 0010 031C     		mov	r3, r0
 698 0012 2370     		strb	r3, [r4]
 590:Generated_Source\PSoC4/TIMER.c **** 
 591:Generated_Source\PSoC4/TIMER.c ****     TIMER_CONTROL_REG &= (uint32)~TIMER_INV_OUT_MASK;
 699              		.loc 1 591 0
 700 0014 0A4B     		ldr	r3, .L39
 701 0016 0A4A     		ldr	r2, .L39
 702 0018 1268     		ldr	r2, [r2]
 703 001a 0A49     		ldr	r1, .L39+4
 704 001c 0A40     		and	r2, r1
 705 001e 1A60     		str	r2, [r3]
 592:Generated_Source\PSoC4/TIMER.c ****     TIMER_CONTROL_REG |= mask;
 706              		.loc 1 592 0
 707 0020 074B     		ldr	r3, .L39
 708 0022 074A     		ldr	r2, .L39
 709 0024 1168     		ldr	r1, [r2]
 710 0026 7A68     		ldr	r2, [r7, #4]
 711 0028 0A43     		orr	r2, r1
 712 002a 1A60     		str	r2, [r3]
 593:Generated_Source\PSoC4/TIMER.c **** 
 594:Generated_Source\PSoC4/TIMER.c ****     CyExitCriticalSection(enableInterrupts);
 713              		.loc 1 594 0
 714 002c 0F23     		mov	r3, #15
 715 002e FB18     		add	r3, r7, r3
 716 0030 1B78     		ldrb	r3, [r3]
 717 0032 181C     		mov	r0, r3
ARM GAS  C:\Users\ilya\AppData\Local\Temp\ccVU2AIc.s 			page 24


 718 0034 FFF7FEFF 		bl	CyExitCriticalSection
 595:Generated_Source\PSoC4/TIMER.c **** }
 719              		.loc 1 595 0
 720 0038 BD46     		mov	sp, r7
 721 003a 05B0     		add	sp, sp, #20
 722              		@ sp needed
 723 003c 90BD     		pop	{r4, r7, pc}
 724              	.L40:
 725 003e C046     		.align	2
 726              	.L39:
 727 0040 40012040 		.word	1075839296
 728 0044 FFFFCFFF 		.word	-3145729
 729              		.cfi_endproc
 730              	.LFE13:
 731              		.size	TIMER_SetPWMInvert, .-TIMER_SetPWMInvert
 732              		.section	.text.TIMER_WriteCounter,"ax",%progbits
 733              		.align	2
 734              		.global	TIMER_WriteCounter
 735              		.code	16
 736              		.thumb_func
 737              		.type	TIMER_WriteCounter, %function
 738              	TIMER_WriteCounter:
 739              	.LFB14:
 596:Generated_Source\PSoC4/TIMER.c **** 
 597:Generated_Source\PSoC4/TIMER.c **** 
 598:Generated_Source\PSoC4/TIMER.c **** 
 599:Generated_Source\PSoC4/TIMER.c **** /*******************************************************************************
 600:Generated_Source\PSoC4/TIMER.c **** * Function Name: TIMER_WriteCounter
 601:Generated_Source\PSoC4/TIMER.c **** ********************************************************************************
 602:Generated_Source\PSoC4/TIMER.c **** *
 603:Generated_Source\PSoC4/TIMER.c **** * Summary:
 604:Generated_Source\PSoC4/TIMER.c **** *  Writes a new 16bit counter value directly into the counter register, thus
 605:Generated_Source\PSoC4/TIMER.c **** *  setting the counter (not the period) to the value written. It is not
 606:Generated_Source\PSoC4/TIMER.c **** *  advised to write to this field when the counter is running.
 607:Generated_Source\PSoC4/TIMER.c **** *
 608:Generated_Source\PSoC4/TIMER.c **** * Parameters:
 609:Generated_Source\PSoC4/TIMER.c **** *  count: value to write
 610:Generated_Source\PSoC4/TIMER.c **** *
 611:Generated_Source\PSoC4/TIMER.c **** * Return:
 612:Generated_Source\PSoC4/TIMER.c **** *  None
 613:Generated_Source\PSoC4/TIMER.c **** *
 614:Generated_Source\PSoC4/TIMER.c **** *******************************************************************************/
 615:Generated_Source\PSoC4/TIMER.c **** void TIMER_WriteCounter(uint32 count)
 616:Generated_Source\PSoC4/TIMER.c **** {
 740              		.loc 1 616 0
 741              		.cfi_startproc
 742 0000 80B5     		push	{r7, lr}
 743              		.cfi_def_cfa_offset 8
 744              		.cfi_offset 7, -8
 745              		.cfi_offset 14, -4
 746 0002 82B0     		sub	sp, sp, #8
 747              		.cfi_def_cfa_offset 16
 748 0004 00AF     		add	r7, sp, #0
 749              		.cfi_def_cfa_register 7
 750 0006 7860     		str	r0, [r7, #4]
 617:Generated_Source\PSoC4/TIMER.c ****     TIMER_COUNTER_REG = (count & TIMER_16BIT_MASK);
 751              		.loc 1 617 0
ARM GAS  C:\Users\ilya\AppData\Local\Temp\ccVU2AIc.s 			page 25


 752 0008 034B     		ldr	r3, .L42
 753 000a 7A68     		ldr	r2, [r7, #4]
 754 000c 1204     		lsl	r2, r2, #16
 755 000e 120C     		lsr	r2, r2, #16
 756 0010 1A60     		str	r2, [r3]
 618:Generated_Source\PSoC4/TIMER.c **** }
 757              		.loc 1 618 0
 758 0012 BD46     		mov	sp, r7
 759 0014 02B0     		add	sp, sp, #8
 760              		@ sp needed
 761 0016 80BD     		pop	{r7, pc}
 762              	.L43:
 763              		.align	2
 764              	.L42:
 765 0018 48012040 		.word	1075839304
 766              		.cfi_endproc
 767              	.LFE14:
 768              		.size	TIMER_WriteCounter, .-TIMER_WriteCounter
 769              		.section	.text.TIMER_ReadCounter,"ax",%progbits
 770              		.align	2
 771              		.global	TIMER_ReadCounter
 772              		.code	16
 773              		.thumb_func
 774              		.type	TIMER_ReadCounter, %function
 775              	TIMER_ReadCounter:
 776              	.LFB15:
 619:Generated_Source\PSoC4/TIMER.c **** 
 620:Generated_Source\PSoC4/TIMER.c **** 
 621:Generated_Source\PSoC4/TIMER.c **** /*******************************************************************************
 622:Generated_Source\PSoC4/TIMER.c **** * Function Name: TIMER_ReadCounter
 623:Generated_Source\PSoC4/TIMER.c **** ********************************************************************************
 624:Generated_Source\PSoC4/TIMER.c **** *
 625:Generated_Source\PSoC4/TIMER.c **** * Summary:
 626:Generated_Source\PSoC4/TIMER.c **** *  Reads the current counter value.
 627:Generated_Source\PSoC4/TIMER.c **** *
 628:Generated_Source\PSoC4/TIMER.c **** * Parameters:
 629:Generated_Source\PSoC4/TIMER.c **** *  None
 630:Generated_Source\PSoC4/TIMER.c **** *
 631:Generated_Source\PSoC4/TIMER.c **** * Return:
 632:Generated_Source\PSoC4/TIMER.c **** *  Current counter value
 633:Generated_Source\PSoC4/TIMER.c **** *
 634:Generated_Source\PSoC4/TIMER.c **** *******************************************************************************/
 635:Generated_Source\PSoC4/TIMER.c **** uint32 TIMER_ReadCounter(void)
 636:Generated_Source\PSoC4/TIMER.c **** {
 777              		.loc 1 636 0
 778              		.cfi_startproc
 779 0000 80B5     		push	{r7, lr}
 780              		.cfi_def_cfa_offset 8
 781              		.cfi_offset 7, -8
 782              		.cfi_offset 14, -4
 783 0002 00AF     		add	r7, sp, #0
 784              		.cfi_def_cfa_register 7
 637:Generated_Source\PSoC4/TIMER.c ****     return (TIMER_COUNTER_REG & TIMER_16BIT_MASK);
 785              		.loc 1 637 0
 786 0004 034B     		ldr	r3, .L46
 787 0006 1B68     		ldr	r3, [r3]
 788 0008 1B04     		lsl	r3, r3, #16
ARM GAS  C:\Users\ilya\AppData\Local\Temp\ccVU2AIc.s 			page 26


 789 000a 1B0C     		lsr	r3, r3, #16
 638:Generated_Source\PSoC4/TIMER.c **** }
 790              		.loc 1 638 0
 791 000c 181C     		mov	r0, r3
 792 000e BD46     		mov	sp, r7
 793              		@ sp needed
 794 0010 80BD     		pop	{r7, pc}
 795              	.L47:
 796 0012 C046     		.align	2
 797              	.L46:
 798 0014 48012040 		.word	1075839304
 799              		.cfi_endproc
 800              	.LFE15:
 801              		.size	TIMER_ReadCounter, .-TIMER_ReadCounter
 802              		.section	.text.TIMER_SetCounterMode,"ax",%progbits
 803              		.align	2
 804              		.global	TIMER_SetCounterMode
 805              		.code	16
 806              		.thumb_func
 807              		.type	TIMER_SetCounterMode, %function
 808              	TIMER_SetCounterMode:
 809              	.LFB16:
 639:Generated_Source\PSoC4/TIMER.c **** 
 640:Generated_Source\PSoC4/TIMER.c **** 
 641:Generated_Source\PSoC4/TIMER.c **** /*******************************************************************************
 642:Generated_Source\PSoC4/TIMER.c **** * Function Name: TIMER_SetCounterMode
 643:Generated_Source\PSoC4/TIMER.c **** ********************************************************************************
 644:Generated_Source\PSoC4/TIMER.c **** *
 645:Generated_Source\PSoC4/TIMER.c **** * Summary:
 646:Generated_Source\PSoC4/TIMER.c **** *  Sets the counter mode.  Applicable to all modes except Quadrature Decoder
 647:Generated_Source\PSoC4/TIMER.c **** *  and the PWM with a pseudo random output.
 648:Generated_Source\PSoC4/TIMER.c **** *
 649:Generated_Source\PSoC4/TIMER.c **** * Parameters:
 650:Generated_Source\PSoC4/TIMER.c **** *  counterMode: Enumerated counter type values
 651:Generated_Source\PSoC4/TIMER.c **** *   Values:
 652:Generated_Source\PSoC4/TIMER.c **** *     - TIMER_COUNT_UP       - Counts up
 653:Generated_Source\PSoC4/TIMER.c **** *     - TIMER_COUNT_DOWN     - Counts down
 654:Generated_Source\PSoC4/TIMER.c **** *     - TIMER_COUNT_UPDOWN0  - Counts up and down. Terminal count
 655:Generated_Source\PSoC4/TIMER.c **** *                                         generated when counter reaches 0
 656:Generated_Source\PSoC4/TIMER.c **** *     - TIMER_COUNT_UPDOWN1  - Counts up and down. Terminal count
 657:Generated_Source\PSoC4/TIMER.c **** *                                         generated both when counter reaches 0
 658:Generated_Source\PSoC4/TIMER.c **** *                                         and period
 659:Generated_Source\PSoC4/TIMER.c **** *
 660:Generated_Source\PSoC4/TIMER.c **** * Return:
 661:Generated_Source\PSoC4/TIMER.c **** *  None
 662:Generated_Source\PSoC4/TIMER.c **** *
 663:Generated_Source\PSoC4/TIMER.c **** *******************************************************************************/
 664:Generated_Source\PSoC4/TIMER.c **** void TIMER_SetCounterMode(uint32 counterMode)
 665:Generated_Source\PSoC4/TIMER.c **** {
 810              		.loc 1 665 0
 811              		.cfi_startproc
 812 0000 90B5     		push	{r4, r7, lr}
 813              		.cfi_def_cfa_offset 12
 814              		.cfi_offset 4, -12
 815              		.cfi_offset 7, -8
 816              		.cfi_offset 14, -4
 817 0002 85B0     		sub	sp, sp, #20
ARM GAS  C:\Users\ilya\AppData\Local\Temp\ccVU2AIc.s 			page 27


 818              		.cfi_def_cfa_offset 32
 819 0004 00AF     		add	r7, sp, #0
 820              		.cfi_def_cfa_register 7
 821 0006 7860     		str	r0, [r7, #4]
 666:Generated_Source\PSoC4/TIMER.c ****     uint8 enableInterrupts;
 667:Generated_Source\PSoC4/TIMER.c **** 
 668:Generated_Source\PSoC4/TIMER.c ****     enableInterrupts = CyEnterCriticalSection();
 822              		.loc 1 668 0
 823 0008 0F23     		mov	r3, #15
 824 000a FC18     		add	r4, r7, r3
 825 000c FFF7FEFF 		bl	CyEnterCriticalSection
 826 0010 031C     		mov	r3, r0
 827 0012 2370     		strb	r3, [r4]
 669:Generated_Source\PSoC4/TIMER.c **** 
 670:Generated_Source\PSoC4/TIMER.c ****     TIMER_CONTROL_REG &= (uint32)~TIMER_UPDOWN_MASK;
 828              		.loc 1 670 0
 829 0014 0A4B     		ldr	r3, .L49
 830 0016 0A4A     		ldr	r2, .L49
 831 0018 1268     		ldr	r2, [r2]
 832 001a 0A49     		ldr	r1, .L49+4
 833 001c 0A40     		and	r2, r1
 834 001e 1A60     		str	r2, [r3]
 671:Generated_Source\PSoC4/TIMER.c ****     TIMER_CONTROL_REG |= counterMode;
 835              		.loc 1 671 0
 836 0020 074B     		ldr	r3, .L49
 837 0022 074A     		ldr	r2, .L49
 838 0024 1168     		ldr	r1, [r2]
 839 0026 7A68     		ldr	r2, [r7, #4]
 840 0028 0A43     		orr	r2, r1
 841 002a 1A60     		str	r2, [r3]
 672:Generated_Source\PSoC4/TIMER.c **** 
 673:Generated_Source\PSoC4/TIMER.c ****     CyExitCriticalSection(enableInterrupts);
 842              		.loc 1 673 0
 843 002c 0F23     		mov	r3, #15
 844 002e FB18     		add	r3, r7, r3
 845 0030 1B78     		ldrb	r3, [r3]
 846 0032 181C     		mov	r0, r3
 847 0034 FFF7FEFF 		bl	CyExitCriticalSection
 674:Generated_Source\PSoC4/TIMER.c **** }
 848              		.loc 1 674 0
 849 0038 BD46     		mov	sp, r7
 850 003a 05B0     		add	sp, sp, #20
 851              		@ sp needed
 852 003c 90BD     		pop	{r4, r7, pc}
 853              	.L50:
 854 003e C046     		.align	2
 855              	.L49:
 856 0040 40012040 		.word	1075839296
 857 0044 FFFFFCFF 		.word	-196609
 858              		.cfi_endproc
 859              	.LFE16:
 860              		.size	TIMER_SetCounterMode, .-TIMER_SetCounterMode
 861              		.section	.text.TIMER_WritePeriod,"ax",%progbits
 862              		.align	2
 863              		.global	TIMER_WritePeriod
 864              		.code	16
 865              		.thumb_func
ARM GAS  C:\Users\ilya\AppData\Local\Temp\ccVU2AIc.s 			page 28


 866              		.type	TIMER_WritePeriod, %function
 867              	TIMER_WritePeriod:
 868              	.LFB17:
 675:Generated_Source\PSoC4/TIMER.c **** 
 676:Generated_Source\PSoC4/TIMER.c **** 
 677:Generated_Source\PSoC4/TIMER.c **** /*******************************************************************************
 678:Generated_Source\PSoC4/TIMER.c **** * Function Name: TIMER_WritePeriod
 679:Generated_Source\PSoC4/TIMER.c **** ********************************************************************************
 680:Generated_Source\PSoC4/TIMER.c **** *
 681:Generated_Source\PSoC4/TIMER.c **** * Summary:
 682:Generated_Source\PSoC4/TIMER.c **** *  Writes the 16 bit period register with the new period value.
 683:Generated_Source\PSoC4/TIMER.c **** *  To cause the counter to count for N cycles this register should be written
 684:Generated_Source\PSoC4/TIMER.c **** *  with N-1 (counts from 0 to period inclusive).
 685:Generated_Source\PSoC4/TIMER.c **** *
 686:Generated_Source\PSoC4/TIMER.c **** * Parameters:
 687:Generated_Source\PSoC4/TIMER.c **** *  period: Period value
 688:Generated_Source\PSoC4/TIMER.c **** *
 689:Generated_Source\PSoC4/TIMER.c **** * Return:
 690:Generated_Source\PSoC4/TIMER.c **** *  None
 691:Generated_Source\PSoC4/TIMER.c **** *
 692:Generated_Source\PSoC4/TIMER.c **** *******************************************************************************/
 693:Generated_Source\PSoC4/TIMER.c **** void TIMER_WritePeriod(uint32 period)
 694:Generated_Source\PSoC4/TIMER.c **** {
 869              		.loc 1 694 0
 870              		.cfi_startproc
 871 0000 80B5     		push	{r7, lr}
 872              		.cfi_def_cfa_offset 8
 873              		.cfi_offset 7, -8
 874              		.cfi_offset 14, -4
 875 0002 82B0     		sub	sp, sp, #8
 876              		.cfi_def_cfa_offset 16
 877 0004 00AF     		add	r7, sp, #0
 878              		.cfi_def_cfa_register 7
 879 0006 7860     		str	r0, [r7, #4]
 695:Generated_Source\PSoC4/TIMER.c ****     TIMER_PERIOD_REG = (period & TIMER_16BIT_MASK);
 880              		.loc 1 695 0
 881 0008 034B     		ldr	r3, .L52
 882 000a 7A68     		ldr	r2, [r7, #4]
 883 000c 1204     		lsl	r2, r2, #16
 884 000e 120C     		lsr	r2, r2, #16
 885 0010 1A60     		str	r2, [r3]
 696:Generated_Source\PSoC4/TIMER.c **** }
 886              		.loc 1 696 0
 887 0012 BD46     		mov	sp, r7
 888 0014 02B0     		add	sp, sp, #8
 889              		@ sp needed
 890 0016 80BD     		pop	{r7, pc}
 891              	.L53:
 892              		.align	2
 893              	.L52:
 894 0018 54012040 		.word	1075839316
 895              		.cfi_endproc
 896              	.LFE17:
 897              		.size	TIMER_WritePeriod, .-TIMER_WritePeriod
 898              		.section	.text.TIMER_ReadPeriod,"ax",%progbits
 899              		.align	2
 900              		.global	TIMER_ReadPeriod
ARM GAS  C:\Users\ilya\AppData\Local\Temp\ccVU2AIc.s 			page 29


 901              		.code	16
 902              		.thumb_func
 903              		.type	TIMER_ReadPeriod, %function
 904              	TIMER_ReadPeriod:
 905              	.LFB18:
 697:Generated_Source\PSoC4/TIMER.c **** 
 698:Generated_Source\PSoC4/TIMER.c **** 
 699:Generated_Source\PSoC4/TIMER.c **** /*******************************************************************************
 700:Generated_Source\PSoC4/TIMER.c **** * Function Name: TIMER_ReadPeriod
 701:Generated_Source\PSoC4/TIMER.c **** ********************************************************************************
 702:Generated_Source\PSoC4/TIMER.c **** *
 703:Generated_Source\PSoC4/TIMER.c **** * Summary:
 704:Generated_Source\PSoC4/TIMER.c **** *  Reads the 16 bit period register.
 705:Generated_Source\PSoC4/TIMER.c **** *
 706:Generated_Source\PSoC4/TIMER.c **** * Parameters:
 707:Generated_Source\PSoC4/TIMER.c **** *  None
 708:Generated_Source\PSoC4/TIMER.c **** *
 709:Generated_Source\PSoC4/TIMER.c **** * Return:
 710:Generated_Source\PSoC4/TIMER.c **** *  Period value
 711:Generated_Source\PSoC4/TIMER.c **** *
 712:Generated_Source\PSoC4/TIMER.c **** *******************************************************************************/
 713:Generated_Source\PSoC4/TIMER.c **** uint32 TIMER_ReadPeriod(void)
 714:Generated_Source\PSoC4/TIMER.c **** {
 906              		.loc 1 714 0
 907              		.cfi_startproc
 908 0000 80B5     		push	{r7, lr}
 909              		.cfi_def_cfa_offset 8
 910              		.cfi_offset 7, -8
 911              		.cfi_offset 14, -4
 912 0002 00AF     		add	r7, sp, #0
 913              		.cfi_def_cfa_register 7
 715:Generated_Source\PSoC4/TIMER.c ****     return (TIMER_PERIOD_REG & TIMER_16BIT_MASK);
 914              		.loc 1 715 0
 915 0004 034B     		ldr	r3, .L56
 916 0006 1B68     		ldr	r3, [r3]
 917 0008 1B04     		lsl	r3, r3, #16
 918 000a 1B0C     		lsr	r3, r3, #16
 716:Generated_Source\PSoC4/TIMER.c **** }
 919              		.loc 1 716 0
 920 000c 181C     		mov	r0, r3
 921 000e BD46     		mov	sp, r7
 922              		@ sp needed
 923 0010 80BD     		pop	{r7, pc}
 924              	.L57:
 925 0012 C046     		.align	2
 926              	.L56:
 927 0014 54012040 		.word	1075839316
 928              		.cfi_endproc
 929              	.LFE18:
 930              		.size	TIMER_ReadPeriod, .-TIMER_ReadPeriod
 931              		.section	.text.TIMER_SetCompareSwap,"ax",%progbits
 932              		.align	2
 933              		.global	TIMER_SetCompareSwap
 934              		.code	16
 935              		.thumb_func
 936              		.type	TIMER_SetCompareSwap, %function
 937              	TIMER_SetCompareSwap:
ARM GAS  C:\Users\ilya\AppData\Local\Temp\ccVU2AIc.s 			page 30


 938              	.LFB19:
 717:Generated_Source\PSoC4/TIMER.c **** 
 718:Generated_Source\PSoC4/TIMER.c **** 
 719:Generated_Source\PSoC4/TIMER.c **** /*******************************************************************************
 720:Generated_Source\PSoC4/TIMER.c **** * Function Name: TIMER_SetCompareSwap
 721:Generated_Source\PSoC4/TIMER.c **** ********************************************************************************
 722:Generated_Source\PSoC4/TIMER.c **** *
 723:Generated_Source\PSoC4/TIMER.c **** * Summary:
 724:Generated_Source\PSoC4/TIMER.c **** *  Writes the register that controls whether the compare registers are
 725:Generated_Source\PSoC4/TIMER.c **** *  swapped. When enabled in the Timer/Counter mode(without capture) the swap
 726:Generated_Source\PSoC4/TIMER.c **** *  occurs at a TC event. In the PWM mode the swap occurs at the next TC event
 727:Generated_Source\PSoC4/TIMER.c **** *  following a hardware switch event.
 728:Generated_Source\PSoC4/TIMER.c **** *
 729:Generated_Source\PSoC4/TIMER.c **** * Parameters:
 730:Generated_Source\PSoC4/TIMER.c **** *  swapEnable
 731:Generated_Source\PSoC4/TIMER.c **** *   Values:
 732:Generated_Source\PSoC4/TIMER.c **** *     - 0 - Disable swap
 733:Generated_Source\PSoC4/TIMER.c **** *     - 1 - Enable swap
 734:Generated_Source\PSoC4/TIMER.c **** *
 735:Generated_Source\PSoC4/TIMER.c **** * Return:
 736:Generated_Source\PSoC4/TIMER.c **** *  None
 737:Generated_Source\PSoC4/TIMER.c **** *
 738:Generated_Source\PSoC4/TIMER.c **** *******************************************************************************/
 739:Generated_Source\PSoC4/TIMER.c **** void TIMER_SetCompareSwap(uint32 swapEnable)
 740:Generated_Source\PSoC4/TIMER.c **** {
 939              		.loc 1 740 0
 940              		.cfi_startproc
 941 0000 90B5     		push	{r4, r7, lr}
 942              		.cfi_def_cfa_offset 12
 943              		.cfi_offset 4, -12
 944              		.cfi_offset 7, -8
 945              		.cfi_offset 14, -4
 946 0002 85B0     		sub	sp, sp, #20
 947              		.cfi_def_cfa_offset 32
 948 0004 00AF     		add	r7, sp, #0
 949              		.cfi_def_cfa_register 7
 950 0006 7860     		str	r0, [r7, #4]
 741:Generated_Source\PSoC4/TIMER.c ****     uint8 enableInterrupts;
 742:Generated_Source\PSoC4/TIMER.c **** 
 743:Generated_Source\PSoC4/TIMER.c ****     enableInterrupts = CyEnterCriticalSection();
 951              		.loc 1 743 0
 952 0008 0F23     		mov	r3, #15
 953 000a FC18     		add	r4, r7, r3
 954 000c FFF7FEFF 		bl	CyEnterCriticalSection
 955 0010 031C     		mov	r3, r0
 956 0012 2370     		strb	r3, [r4]
 744:Generated_Source\PSoC4/TIMER.c **** 
 745:Generated_Source\PSoC4/TIMER.c ****     TIMER_CONTROL_REG &= (uint32)~TIMER_RELOAD_CC_MASK;
 957              		.loc 1 745 0
 958 0014 0B4B     		ldr	r3, .L59
 959 0016 0B4A     		ldr	r2, .L59
 960 0018 1268     		ldr	r2, [r2]
 961 001a 0121     		mov	r1, #1
 962 001c 8A43     		bic	r2, r1
 963 001e 1A60     		str	r2, [r3]
 746:Generated_Source\PSoC4/TIMER.c ****     TIMER_CONTROL_REG |= (swapEnable & TIMER_1BIT_MASK);
 964              		.loc 1 746 0
ARM GAS  C:\Users\ilya\AppData\Local\Temp\ccVU2AIc.s 			page 31


 965 0020 084B     		ldr	r3, .L59
 966 0022 084A     		ldr	r2, .L59
 967 0024 1168     		ldr	r1, [r2]
 968 0026 7A68     		ldr	r2, [r7, #4]
 969 0028 0120     		mov	r0, #1
 970 002a 0240     		and	r2, r0
 971 002c 0A43     		orr	r2, r1
 972 002e 1A60     		str	r2, [r3]
 747:Generated_Source\PSoC4/TIMER.c **** 
 748:Generated_Source\PSoC4/TIMER.c ****     CyExitCriticalSection(enableInterrupts);
 973              		.loc 1 748 0
 974 0030 0F23     		mov	r3, #15
 975 0032 FB18     		add	r3, r7, r3
 976 0034 1B78     		ldrb	r3, [r3]
 977 0036 181C     		mov	r0, r3
 978 0038 FFF7FEFF 		bl	CyExitCriticalSection
 749:Generated_Source\PSoC4/TIMER.c **** }
 979              		.loc 1 749 0
 980 003c BD46     		mov	sp, r7
 981 003e 05B0     		add	sp, sp, #20
 982              		@ sp needed
 983 0040 90BD     		pop	{r4, r7, pc}
 984              	.L60:
 985 0042 C046     		.align	2
 986              	.L59:
 987 0044 40012040 		.word	1075839296
 988              		.cfi_endproc
 989              	.LFE19:
 990              		.size	TIMER_SetCompareSwap, .-TIMER_SetCompareSwap
 991              		.section	.text.TIMER_WritePeriodBuf,"ax",%progbits
 992              		.align	2
 993              		.global	TIMER_WritePeriodBuf
 994              		.code	16
 995              		.thumb_func
 996              		.type	TIMER_WritePeriodBuf, %function
 997              	TIMER_WritePeriodBuf:
 998              	.LFB20:
 750:Generated_Source\PSoC4/TIMER.c **** 
 751:Generated_Source\PSoC4/TIMER.c **** 
 752:Generated_Source\PSoC4/TIMER.c **** /*******************************************************************************
 753:Generated_Source\PSoC4/TIMER.c **** * Function Name: TIMER_WritePeriodBuf
 754:Generated_Source\PSoC4/TIMER.c **** ********************************************************************************
 755:Generated_Source\PSoC4/TIMER.c **** *
 756:Generated_Source\PSoC4/TIMER.c **** * Summary:
 757:Generated_Source\PSoC4/TIMER.c **** *  Writes the 16 bit period buf register with the new period value.
 758:Generated_Source\PSoC4/TIMER.c **** *
 759:Generated_Source\PSoC4/TIMER.c **** * Parameters:
 760:Generated_Source\PSoC4/TIMER.c **** *  periodBuf: Period value
 761:Generated_Source\PSoC4/TIMER.c **** *
 762:Generated_Source\PSoC4/TIMER.c **** * Return:
 763:Generated_Source\PSoC4/TIMER.c **** *  None
 764:Generated_Source\PSoC4/TIMER.c **** *
 765:Generated_Source\PSoC4/TIMER.c **** *******************************************************************************/
 766:Generated_Source\PSoC4/TIMER.c **** void TIMER_WritePeriodBuf(uint32 periodBuf)
 767:Generated_Source\PSoC4/TIMER.c **** {
 999              		.loc 1 767 0
 1000              		.cfi_startproc
ARM GAS  C:\Users\ilya\AppData\Local\Temp\ccVU2AIc.s 			page 32


 1001 0000 80B5     		push	{r7, lr}
 1002              		.cfi_def_cfa_offset 8
 1003              		.cfi_offset 7, -8
 1004              		.cfi_offset 14, -4
 1005 0002 82B0     		sub	sp, sp, #8
 1006              		.cfi_def_cfa_offset 16
 1007 0004 00AF     		add	r7, sp, #0
 1008              		.cfi_def_cfa_register 7
 1009 0006 7860     		str	r0, [r7, #4]
 768:Generated_Source\PSoC4/TIMER.c ****     TIMER_PERIOD_BUF_REG = (periodBuf & TIMER_16BIT_MASK);
 1010              		.loc 1 768 0
 1011 0008 034B     		ldr	r3, .L62
 1012 000a 7A68     		ldr	r2, [r7, #4]
 1013 000c 1204     		lsl	r2, r2, #16
 1014 000e 120C     		lsr	r2, r2, #16
 1015 0010 1A60     		str	r2, [r3]
 769:Generated_Source\PSoC4/TIMER.c **** }
 1016              		.loc 1 769 0
 1017 0012 BD46     		mov	sp, r7
 1018 0014 02B0     		add	sp, sp, #8
 1019              		@ sp needed
 1020 0016 80BD     		pop	{r7, pc}
 1021              	.L63:
 1022              		.align	2
 1023              	.L62:
 1024 0018 58012040 		.word	1075839320
 1025              		.cfi_endproc
 1026              	.LFE20:
 1027              		.size	TIMER_WritePeriodBuf, .-TIMER_WritePeriodBuf
 1028              		.section	.text.TIMER_ReadPeriodBuf,"ax",%progbits
 1029              		.align	2
 1030              		.global	TIMER_ReadPeriodBuf
 1031              		.code	16
 1032              		.thumb_func
 1033              		.type	TIMER_ReadPeriodBuf, %function
 1034              	TIMER_ReadPeriodBuf:
 1035              	.LFB21:
 770:Generated_Source\PSoC4/TIMER.c **** 
 771:Generated_Source\PSoC4/TIMER.c **** 
 772:Generated_Source\PSoC4/TIMER.c **** /*******************************************************************************
 773:Generated_Source\PSoC4/TIMER.c **** * Function Name: TIMER_ReadPeriodBuf
 774:Generated_Source\PSoC4/TIMER.c **** ********************************************************************************
 775:Generated_Source\PSoC4/TIMER.c **** *
 776:Generated_Source\PSoC4/TIMER.c **** * Summary:
 777:Generated_Source\PSoC4/TIMER.c **** *  Reads the 16 bit period buf register.
 778:Generated_Source\PSoC4/TIMER.c **** *
 779:Generated_Source\PSoC4/TIMER.c **** * Parameters:
 780:Generated_Source\PSoC4/TIMER.c **** *  None
 781:Generated_Source\PSoC4/TIMER.c **** *
 782:Generated_Source\PSoC4/TIMER.c **** * Return:
 783:Generated_Source\PSoC4/TIMER.c **** *  Period value
 784:Generated_Source\PSoC4/TIMER.c **** *
 785:Generated_Source\PSoC4/TIMER.c **** *******************************************************************************/
 786:Generated_Source\PSoC4/TIMER.c **** uint32 TIMER_ReadPeriodBuf(void)
 787:Generated_Source\PSoC4/TIMER.c **** {
 1036              		.loc 1 787 0
 1037              		.cfi_startproc
ARM GAS  C:\Users\ilya\AppData\Local\Temp\ccVU2AIc.s 			page 33


 1038 0000 80B5     		push	{r7, lr}
 1039              		.cfi_def_cfa_offset 8
 1040              		.cfi_offset 7, -8
 1041              		.cfi_offset 14, -4
 1042 0002 00AF     		add	r7, sp, #0
 1043              		.cfi_def_cfa_register 7
 788:Generated_Source\PSoC4/TIMER.c ****     return (TIMER_PERIOD_BUF_REG & TIMER_16BIT_MASK);
 1044              		.loc 1 788 0
 1045 0004 034B     		ldr	r3, .L66
 1046 0006 1B68     		ldr	r3, [r3]
 1047 0008 1B04     		lsl	r3, r3, #16
 1048 000a 1B0C     		lsr	r3, r3, #16
 789:Generated_Source\PSoC4/TIMER.c **** }
 1049              		.loc 1 789 0
 1050 000c 181C     		mov	r0, r3
 1051 000e BD46     		mov	sp, r7
 1052              		@ sp needed
 1053 0010 80BD     		pop	{r7, pc}
 1054              	.L67:
 1055 0012 C046     		.align	2
 1056              	.L66:
 1057 0014 58012040 		.word	1075839320
 1058              		.cfi_endproc
 1059              	.LFE21:
 1060              		.size	TIMER_ReadPeriodBuf, .-TIMER_ReadPeriodBuf
 1061              		.section	.text.TIMER_SetPeriodSwap,"ax",%progbits
 1062              		.align	2
 1063              		.global	TIMER_SetPeriodSwap
 1064              		.code	16
 1065              		.thumb_func
 1066              		.type	TIMER_SetPeriodSwap, %function
 1067              	TIMER_SetPeriodSwap:
 1068              	.LFB22:
 790:Generated_Source\PSoC4/TIMER.c **** 
 791:Generated_Source\PSoC4/TIMER.c **** 
 792:Generated_Source\PSoC4/TIMER.c **** /*******************************************************************************
 793:Generated_Source\PSoC4/TIMER.c **** * Function Name: TIMER_SetPeriodSwap
 794:Generated_Source\PSoC4/TIMER.c **** ********************************************************************************
 795:Generated_Source\PSoC4/TIMER.c **** *
 796:Generated_Source\PSoC4/TIMER.c **** * Summary:
 797:Generated_Source\PSoC4/TIMER.c **** *  Writes the register that controls whether the period registers are
 798:Generated_Source\PSoC4/TIMER.c **** *  swapped. When enabled in Timer/Counter mode the swap occurs at a TC event.
 799:Generated_Source\PSoC4/TIMER.c **** *  In the PWM mode the swap occurs at the next TC event following a hardware
 800:Generated_Source\PSoC4/TIMER.c **** *  switch event.
 801:Generated_Source\PSoC4/TIMER.c **** *
 802:Generated_Source\PSoC4/TIMER.c **** * Parameters:
 803:Generated_Source\PSoC4/TIMER.c **** *  swapEnable
 804:Generated_Source\PSoC4/TIMER.c **** *   Values:
 805:Generated_Source\PSoC4/TIMER.c **** *     - 0 - Disable swap
 806:Generated_Source\PSoC4/TIMER.c **** *     - 1 - Enable swap
 807:Generated_Source\PSoC4/TIMER.c **** *
 808:Generated_Source\PSoC4/TIMER.c **** * Return:
 809:Generated_Source\PSoC4/TIMER.c **** *  None
 810:Generated_Source\PSoC4/TIMER.c **** *
 811:Generated_Source\PSoC4/TIMER.c **** *******************************************************************************/
 812:Generated_Source\PSoC4/TIMER.c **** void TIMER_SetPeriodSwap(uint32 swapEnable)
 813:Generated_Source\PSoC4/TIMER.c **** {
ARM GAS  C:\Users\ilya\AppData\Local\Temp\ccVU2AIc.s 			page 34


 1069              		.loc 1 813 0
 1070              		.cfi_startproc
 1071 0000 90B5     		push	{r4, r7, lr}
 1072              		.cfi_def_cfa_offset 12
 1073              		.cfi_offset 4, -12
 1074              		.cfi_offset 7, -8
 1075              		.cfi_offset 14, -4
 1076 0002 85B0     		sub	sp, sp, #20
 1077              		.cfi_def_cfa_offset 32
 1078 0004 00AF     		add	r7, sp, #0
 1079              		.cfi_def_cfa_register 7
 1080 0006 7860     		str	r0, [r7, #4]
 814:Generated_Source\PSoC4/TIMER.c ****     uint8 enableInterrupts;
 815:Generated_Source\PSoC4/TIMER.c **** 
 816:Generated_Source\PSoC4/TIMER.c ****     enableInterrupts = CyEnterCriticalSection();
 1081              		.loc 1 816 0
 1082 0008 0F23     		mov	r3, #15
 1083 000a FC18     		add	r4, r7, r3
 1084 000c FFF7FEFF 		bl	CyEnterCriticalSection
 1085 0010 031C     		mov	r3, r0
 1086 0012 2370     		strb	r3, [r4]
 817:Generated_Source\PSoC4/TIMER.c **** 
 818:Generated_Source\PSoC4/TIMER.c ****     TIMER_CONTROL_REG &= (uint32)~TIMER_RELOAD_PERIOD_MASK;
 1087              		.loc 1 818 0
 1088 0014 0B4B     		ldr	r3, .L69
 1089 0016 0B4A     		ldr	r2, .L69
 1090 0018 1268     		ldr	r2, [r2]
 1091 001a 0221     		mov	r1, #2
 1092 001c 8A43     		bic	r2, r1
 1093 001e 1A60     		str	r2, [r3]
 819:Generated_Source\PSoC4/TIMER.c ****     TIMER_CONTROL_REG |= ((uint32)((swapEnable & TIMER_1BIT_MASK) <<
 1094              		.loc 1 819 0
 1095 0020 084B     		ldr	r3, .L69
 1096 0022 084A     		ldr	r2, .L69
 1097 0024 1168     		ldr	r1, [r2]
 1098 0026 7A68     		ldr	r2, [r7, #4]
 1099 0028 0120     		mov	r0, #1
 1100 002a 0240     		and	r2, r0
 1101 002c 5200     		lsl	r2, r2, #1
 1102 002e 0A43     		orr	r2, r1
 1103 0030 1A60     		str	r2, [r3]
 820:Generated_Source\PSoC4/TIMER.c ****                                                             TIMER_RELOAD_PERIOD_SHIFT));
 821:Generated_Source\PSoC4/TIMER.c **** 
 822:Generated_Source\PSoC4/TIMER.c ****     CyExitCriticalSection(enableInterrupts);
 1104              		.loc 1 822 0
 1105 0032 0F23     		mov	r3, #15
 1106 0034 FB18     		add	r3, r7, r3
 1107 0036 1B78     		ldrb	r3, [r3]
 1108 0038 181C     		mov	r0, r3
 1109 003a FFF7FEFF 		bl	CyExitCriticalSection
 823:Generated_Source\PSoC4/TIMER.c **** }
 1110              		.loc 1 823 0
 1111 003e BD46     		mov	sp, r7
 1112 0040 05B0     		add	sp, sp, #20
 1113              		@ sp needed
 1114 0042 90BD     		pop	{r4, r7, pc}
 1115              	.L70:
ARM GAS  C:\Users\ilya\AppData\Local\Temp\ccVU2AIc.s 			page 35


 1116              		.align	2
 1117              	.L69:
 1118 0044 40012040 		.word	1075839296
 1119              		.cfi_endproc
 1120              	.LFE22:
 1121              		.size	TIMER_SetPeriodSwap, .-TIMER_SetPeriodSwap
 1122              		.section	.text.TIMER_WriteCompare,"ax",%progbits
 1123              		.align	2
 1124              		.global	TIMER_WriteCompare
 1125              		.code	16
 1126              		.thumb_func
 1127              		.type	TIMER_WriteCompare, %function
 1128              	TIMER_WriteCompare:
 1129              	.LFB23:
 824:Generated_Source\PSoC4/TIMER.c **** 
 825:Generated_Source\PSoC4/TIMER.c **** 
 826:Generated_Source\PSoC4/TIMER.c **** /*******************************************************************************
 827:Generated_Source\PSoC4/TIMER.c **** * Function Name: TIMER_WriteCompare
 828:Generated_Source\PSoC4/TIMER.c **** ********************************************************************************
 829:Generated_Source\PSoC4/TIMER.c **** *
 830:Generated_Source\PSoC4/TIMER.c **** * Summary:
 831:Generated_Source\PSoC4/TIMER.c **** *  Writes the 16 bit compare register with the new compare value. Not
 832:Generated_Source\PSoC4/TIMER.c **** *  applicable for Timer/Counter with Capture or in Quadrature Decoder modes.
 833:Generated_Source\PSoC4/TIMER.c **** *
 834:Generated_Source\PSoC4/TIMER.c **** * Parameters:
 835:Generated_Source\PSoC4/TIMER.c **** *  compare: Compare value
 836:Generated_Source\PSoC4/TIMER.c **** *
 837:Generated_Source\PSoC4/TIMER.c **** * Return:
 838:Generated_Source\PSoC4/TIMER.c **** *  None
 839:Generated_Source\PSoC4/TIMER.c **** *
 840:Generated_Source\PSoC4/TIMER.c **** * Note:
 841:Generated_Source\PSoC4/TIMER.c **** *  It is not recommended to use the value equal to "0" or equal to 
 842:Generated_Source\PSoC4/TIMER.c **** *  "period value" in Center or Asymmetric align PWM modes on the 
 843:Generated_Source\PSoC4/TIMER.c **** *  PSoC 4100/PSoC 4200 devices.
 844:Generated_Source\PSoC4/TIMER.c **** *  PSoC 4000 devices write the 16 bit compare register with the decremented 
 845:Generated_Source\PSoC4/TIMER.c **** *  compare value in the Up counting mode (except 0x0u), and the incremented 
 846:Generated_Source\PSoC4/TIMER.c **** *  compare value in the Down counting mode (except 0xFFFFu).
 847:Generated_Source\PSoC4/TIMER.c **** *
 848:Generated_Source\PSoC4/TIMER.c **** *******************************************************************************/
 849:Generated_Source\PSoC4/TIMER.c **** void TIMER_WriteCompare(uint32 compare)
 850:Generated_Source\PSoC4/TIMER.c **** {
 1130              		.loc 1 850 0
 1131              		.cfi_startproc
 1132 0000 80B5     		push	{r7, lr}
 1133              		.cfi_def_cfa_offset 8
 1134              		.cfi_offset 7, -8
 1135              		.cfi_offset 14, -4
 1136 0002 82B0     		sub	sp, sp, #8
 1137              		.cfi_def_cfa_offset 16
 1138 0004 00AF     		add	r7, sp, #0
 1139              		.cfi_def_cfa_register 7
 1140 0006 7860     		str	r0, [r7, #4]
 851:Generated_Source\PSoC4/TIMER.c ****     #if (TIMER_CY_TCPWM_4000)
 852:Generated_Source\PSoC4/TIMER.c ****         uint32 currentMode;
 853:Generated_Source\PSoC4/TIMER.c ****     #endif /* (TIMER_CY_TCPWM_4000) */
 854:Generated_Source\PSoC4/TIMER.c **** 
 855:Generated_Source\PSoC4/TIMER.c ****     #if (TIMER_CY_TCPWM_4000)
ARM GAS  C:\Users\ilya\AppData\Local\Temp\ccVU2AIc.s 			page 36


 856:Generated_Source\PSoC4/TIMER.c ****         currentMode = ((TIMER_CONTROL_REG & TIMER_UPDOWN_MASK) >> TIMER_UPDOWN_SHIFT);
 857:Generated_Source\PSoC4/TIMER.c **** 
 858:Generated_Source\PSoC4/TIMER.c ****         if (((uint32)TIMER__COUNT_DOWN == currentMode) && (0xFFFFu != compare))
 859:Generated_Source\PSoC4/TIMER.c ****         {
 860:Generated_Source\PSoC4/TIMER.c ****             compare++;
 861:Generated_Source\PSoC4/TIMER.c ****         }
 862:Generated_Source\PSoC4/TIMER.c ****         else if (((uint32)TIMER__COUNT_UP == currentMode) && (0u != compare))
 863:Generated_Source\PSoC4/TIMER.c ****         {
 864:Generated_Source\PSoC4/TIMER.c ****             compare--;
 865:Generated_Source\PSoC4/TIMER.c ****         }
 866:Generated_Source\PSoC4/TIMER.c ****         else
 867:Generated_Source\PSoC4/TIMER.c ****         {
 868:Generated_Source\PSoC4/TIMER.c ****         }
 869:Generated_Source\PSoC4/TIMER.c ****         
 870:Generated_Source\PSoC4/TIMER.c ****     
 871:Generated_Source\PSoC4/TIMER.c ****     #endif /* (TIMER_CY_TCPWM_4000) */
 872:Generated_Source\PSoC4/TIMER.c ****     
 873:Generated_Source\PSoC4/TIMER.c ****     TIMER_COMP_CAP_REG = (compare & TIMER_16BIT_MASK);
 1141              		.loc 1 873 0
 1142 0008 034B     		ldr	r3, .L72
 1143 000a 7A68     		ldr	r2, [r7, #4]
 1144 000c 1204     		lsl	r2, r2, #16
 1145 000e 120C     		lsr	r2, r2, #16
 1146 0010 1A60     		str	r2, [r3]
 874:Generated_Source\PSoC4/TIMER.c **** }
 1147              		.loc 1 874 0
 1148 0012 BD46     		mov	sp, r7
 1149 0014 02B0     		add	sp, sp, #8
 1150              		@ sp needed
 1151 0016 80BD     		pop	{r7, pc}
 1152              	.L73:
 1153              		.align	2
 1154              	.L72:
 1155 0018 4C012040 		.word	1075839308
 1156              		.cfi_endproc
 1157              	.LFE23:
 1158              		.size	TIMER_WriteCompare, .-TIMER_WriteCompare
 1159              		.section	.text.TIMER_ReadCompare,"ax",%progbits
 1160              		.align	2
 1161              		.global	TIMER_ReadCompare
 1162              		.code	16
 1163              		.thumb_func
 1164              		.type	TIMER_ReadCompare, %function
 1165              	TIMER_ReadCompare:
 1166              	.LFB24:
 875:Generated_Source\PSoC4/TIMER.c **** 
 876:Generated_Source\PSoC4/TIMER.c **** 
 877:Generated_Source\PSoC4/TIMER.c **** /*******************************************************************************
 878:Generated_Source\PSoC4/TIMER.c **** * Function Name: TIMER_ReadCompare
 879:Generated_Source\PSoC4/TIMER.c **** ********************************************************************************
 880:Generated_Source\PSoC4/TIMER.c **** *
 881:Generated_Source\PSoC4/TIMER.c **** * Summary:
 882:Generated_Source\PSoC4/TIMER.c **** *  Reads the compare register. Not applicable for Timer/Counter with Capture
 883:Generated_Source\PSoC4/TIMER.c **** *  or in Quadrature Decoder modes.
 884:Generated_Source\PSoC4/TIMER.c **** *  PSoC 4000 devices read the incremented compare register value in the 
 885:Generated_Source\PSoC4/TIMER.c **** *  Up counting mode (except 0xFFFFu), and the decremented value in the 
 886:Generated_Source\PSoC4/TIMER.c **** *  Down counting mode (except 0x0u).
ARM GAS  C:\Users\ilya\AppData\Local\Temp\ccVU2AIc.s 			page 37


 887:Generated_Source\PSoC4/TIMER.c **** *
 888:Generated_Source\PSoC4/TIMER.c **** * Parameters:
 889:Generated_Source\PSoC4/TIMER.c **** *  None
 890:Generated_Source\PSoC4/TIMER.c **** *
 891:Generated_Source\PSoC4/TIMER.c **** * Return:
 892:Generated_Source\PSoC4/TIMER.c **** *  Compare value
 893:Generated_Source\PSoC4/TIMER.c **** *
 894:Generated_Source\PSoC4/TIMER.c **** * Note:
 895:Generated_Source\PSoC4/TIMER.c **** *  PSoC 4000 devices read the incremented compare register value in the 
 896:Generated_Source\PSoC4/TIMER.c **** *  Up counting mode (except 0xFFFFu), and the decremented value in the 
 897:Generated_Source\PSoC4/TIMER.c **** *  Down counting mode (except 0x0u).
 898:Generated_Source\PSoC4/TIMER.c **** *
 899:Generated_Source\PSoC4/TIMER.c **** *******************************************************************************/
 900:Generated_Source\PSoC4/TIMER.c **** uint32 TIMER_ReadCompare(void)
 901:Generated_Source\PSoC4/TIMER.c **** {
 1167              		.loc 1 901 0
 1168              		.cfi_startproc
 1169 0000 80B5     		push	{r7, lr}
 1170              		.cfi_def_cfa_offset 8
 1171              		.cfi_offset 7, -8
 1172              		.cfi_offset 14, -4
 1173 0002 00AF     		add	r7, sp, #0
 1174              		.cfi_def_cfa_register 7
 902:Generated_Source\PSoC4/TIMER.c ****     #if (TIMER_CY_TCPWM_4000)
 903:Generated_Source\PSoC4/TIMER.c ****         uint32 currentMode;
 904:Generated_Source\PSoC4/TIMER.c ****         uint32 regVal;
 905:Generated_Source\PSoC4/TIMER.c ****     #endif /* (TIMER_CY_TCPWM_4000) */
 906:Generated_Source\PSoC4/TIMER.c **** 
 907:Generated_Source\PSoC4/TIMER.c ****     #if (TIMER_CY_TCPWM_4000)
 908:Generated_Source\PSoC4/TIMER.c ****         currentMode = ((TIMER_CONTROL_REG & TIMER_UPDOWN_MASK) >> TIMER_UPDOWN_SHIFT);
 909:Generated_Source\PSoC4/TIMER.c ****         
 910:Generated_Source\PSoC4/TIMER.c ****         regVal = TIMER_COMP_CAP_REG;
 911:Generated_Source\PSoC4/TIMER.c ****         
 912:Generated_Source\PSoC4/TIMER.c ****         if (((uint32)TIMER__COUNT_DOWN == currentMode) && (0u != regVal))
 913:Generated_Source\PSoC4/TIMER.c ****         {
 914:Generated_Source\PSoC4/TIMER.c ****             regVal--;
 915:Generated_Source\PSoC4/TIMER.c ****         }
 916:Generated_Source\PSoC4/TIMER.c ****         else if (((uint32)TIMER__COUNT_UP == currentMode) && (0xFFFFu != regVal))
 917:Generated_Source\PSoC4/TIMER.c ****         {
 918:Generated_Source\PSoC4/TIMER.c ****             regVal++;
 919:Generated_Source\PSoC4/TIMER.c ****         }
 920:Generated_Source\PSoC4/TIMER.c ****         else
 921:Generated_Source\PSoC4/TIMER.c ****         {
 922:Generated_Source\PSoC4/TIMER.c ****         }
 923:Generated_Source\PSoC4/TIMER.c **** 
 924:Generated_Source\PSoC4/TIMER.c ****         return (regVal & TIMER_16BIT_MASK);
 925:Generated_Source\PSoC4/TIMER.c ****     #else
 926:Generated_Source\PSoC4/TIMER.c ****         return (TIMER_COMP_CAP_REG & TIMER_16BIT_MASK);
 1175              		.loc 1 926 0
 1176 0004 034B     		ldr	r3, .L76
 1177 0006 1B68     		ldr	r3, [r3]
 1178 0008 1B04     		lsl	r3, r3, #16
 1179 000a 1B0C     		lsr	r3, r3, #16
 927:Generated_Source\PSoC4/TIMER.c ****     #endif /* (TIMER_CY_TCPWM_4000) */
 928:Generated_Source\PSoC4/TIMER.c **** }
 1180              		.loc 1 928 0
 1181 000c 181C     		mov	r0, r3
ARM GAS  C:\Users\ilya\AppData\Local\Temp\ccVU2AIc.s 			page 38


 1182 000e BD46     		mov	sp, r7
 1183              		@ sp needed
 1184 0010 80BD     		pop	{r7, pc}
 1185              	.L77:
 1186 0012 C046     		.align	2
 1187              	.L76:
 1188 0014 4C012040 		.word	1075839308
 1189              		.cfi_endproc
 1190              	.LFE24:
 1191              		.size	TIMER_ReadCompare, .-TIMER_ReadCompare
 1192              		.section	.text.TIMER_WriteCompareBuf,"ax",%progbits
 1193              		.align	2
 1194              		.global	TIMER_WriteCompareBuf
 1195              		.code	16
 1196              		.thumb_func
 1197              		.type	TIMER_WriteCompareBuf, %function
 1198              	TIMER_WriteCompareBuf:
 1199              	.LFB25:
 929:Generated_Source\PSoC4/TIMER.c **** 
 930:Generated_Source\PSoC4/TIMER.c **** 
 931:Generated_Source\PSoC4/TIMER.c **** /*******************************************************************************
 932:Generated_Source\PSoC4/TIMER.c **** * Function Name: TIMER_WriteCompareBuf
 933:Generated_Source\PSoC4/TIMER.c **** ********************************************************************************
 934:Generated_Source\PSoC4/TIMER.c **** *
 935:Generated_Source\PSoC4/TIMER.c **** * Summary:
 936:Generated_Source\PSoC4/TIMER.c **** *  Writes the 16 bit compare buffer register with the new compare value. Not
 937:Generated_Source\PSoC4/TIMER.c **** *  applicable for Timer/Counter with Capture or in Quadrature Decoder modes.
 938:Generated_Source\PSoC4/TIMER.c **** *
 939:Generated_Source\PSoC4/TIMER.c **** * Parameters:
 940:Generated_Source\PSoC4/TIMER.c **** *  compareBuf: Compare value
 941:Generated_Source\PSoC4/TIMER.c **** *
 942:Generated_Source\PSoC4/TIMER.c **** * Return:
 943:Generated_Source\PSoC4/TIMER.c **** *  None
 944:Generated_Source\PSoC4/TIMER.c **** *
 945:Generated_Source\PSoC4/TIMER.c **** * Note:
 946:Generated_Source\PSoC4/TIMER.c **** *  It is not recommended to use the value equal to "0" or equal to 
 947:Generated_Source\PSoC4/TIMER.c **** *  "period value" in Center or Asymmetric align PWM modes on the 
 948:Generated_Source\PSoC4/TIMER.c **** *  PSoC 4100/PSoC 4200 devices.
 949:Generated_Source\PSoC4/TIMER.c **** *  PSoC 4000 devices write the 16 bit compare register with the decremented 
 950:Generated_Source\PSoC4/TIMER.c **** *  compare value in the Up counting mode (except 0x0u), and the incremented 
 951:Generated_Source\PSoC4/TIMER.c **** *  compare value in the Down counting mode (except 0xFFFFu).
 952:Generated_Source\PSoC4/TIMER.c **** *
 953:Generated_Source\PSoC4/TIMER.c **** *******************************************************************************/
 954:Generated_Source\PSoC4/TIMER.c **** void TIMER_WriteCompareBuf(uint32 compareBuf)
 955:Generated_Source\PSoC4/TIMER.c **** {
 1200              		.loc 1 955 0
 1201              		.cfi_startproc
 1202 0000 80B5     		push	{r7, lr}
 1203              		.cfi_def_cfa_offset 8
 1204              		.cfi_offset 7, -8
 1205              		.cfi_offset 14, -4
 1206 0002 82B0     		sub	sp, sp, #8
 1207              		.cfi_def_cfa_offset 16
 1208 0004 00AF     		add	r7, sp, #0
 1209              		.cfi_def_cfa_register 7
 1210 0006 7860     		str	r0, [r7, #4]
 956:Generated_Source\PSoC4/TIMER.c ****     #if (TIMER_CY_TCPWM_4000)
ARM GAS  C:\Users\ilya\AppData\Local\Temp\ccVU2AIc.s 			page 39


 957:Generated_Source\PSoC4/TIMER.c ****         uint32 currentMode;
 958:Generated_Source\PSoC4/TIMER.c ****     #endif /* (TIMER_CY_TCPWM_4000) */
 959:Generated_Source\PSoC4/TIMER.c **** 
 960:Generated_Source\PSoC4/TIMER.c ****     #if (TIMER_CY_TCPWM_4000)
 961:Generated_Source\PSoC4/TIMER.c ****         currentMode = ((TIMER_CONTROL_REG & TIMER_UPDOWN_MASK) >> TIMER_UPDOWN_SHIFT);
 962:Generated_Source\PSoC4/TIMER.c **** 
 963:Generated_Source\PSoC4/TIMER.c ****         if (((uint32)TIMER__COUNT_DOWN == currentMode) && (0xFFFFu != compareBuf))
 964:Generated_Source\PSoC4/TIMER.c ****         {
 965:Generated_Source\PSoC4/TIMER.c ****             compareBuf++;
 966:Generated_Source\PSoC4/TIMER.c ****         }
 967:Generated_Source\PSoC4/TIMER.c ****         else if (((uint32)TIMER__COUNT_UP == currentMode) && (0u != compareBuf))
 968:Generated_Source\PSoC4/TIMER.c ****         {
 969:Generated_Source\PSoC4/TIMER.c ****             compareBuf --;
 970:Generated_Source\PSoC4/TIMER.c ****         }
 971:Generated_Source\PSoC4/TIMER.c ****         else
 972:Generated_Source\PSoC4/TIMER.c ****         {
 973:Generated_Source\PSoC4/TIMER.c ****         }
 974:Generated_Source\PSoC4/TIMER.c ****     #endif /* (TIMER_CY_TCPWM_4000) */
 975:Generated_Source\PSoC4/TIMER.c ****     
 976:Generated_Source\PSoC4/TIMER.c ****     TIMER_COMP_CAP_BUF_REG = (compareBuf & TIMER_16BIT_MASK);
 1211              		.loc 1 976 0
 1212 0008 034B     		ldr	r3, .L79
 1213 000a 7A68     		ldr	r2, [r7, #4]
 1214 000c 1204     		lsl	r2, r2, #16
 1215 000e 120C     		lsr	r2, r2, #16
 1216 0010 1A60     		str	r2, [r3]
 977:Generated_Source\PSoC4/TIMER.c **** }
 1217              		.loc 1 977 0
 1218 0012 BD46     		mov	sp, r7
 1219 0014 02B0     		add	sp, sp, #8
 1220              		@ sp needed
 1221 0016 80BD     		pop	{r7, pc}
 1222              	.L80:
 1223              		.align	2
 1224              	.L79:
 1225 0018 50012040 		.word	1075839312
 1226              		.cfi_endproc
 1227              	.LFE25:
 1228              		.size	TIMER_WriteCompareBuf, .-TIMER_WriteCompareBuf
 1229              		.section	.text.TIMER_ReadCompareBuf,"ax",%progbits
 1230              		.align	2
 1231              		.global	TIMER_ReadCompareBuf
 1232              		.code	16
 1233              		.thumb_func
 1234              		.type	TIMER_ReadCompareBuf, %function
 1235              	TIMER_ReadCompareBuf:
 1236              	.LFB26:
 978:Generated_Source\PSoC4/TIMER.c **** 
 979:Generated_Source\PSoC4/TIMER.c **** 
 980:Generated_Source\PSoC4/TIMER.c **** /*******************************************************************************
 981:Generated_Source\PSoC4/TIMER.c **** * Function Name: TIMER_ReadCompareBuf
 982:Generated_Source\PSoC4/TIMER.c **** ********************************************************************************
 983:Generated_Source\PSoC4/TIMER.c **** *
 984:Generated_Source\PSoC4/TIMER.c **** * Summary:
 985:Generated_Source\PSoC4/TIMER.c **** *  Reads the compare buffer register. Not applicable for Timer/Counter with
 986:Generated_Source\PSoC4/TIMER.c **** *  Capture or in Quadrature Decoder modes.
 987:Generated_Source\PSoC4/TIMER.c **** *
ARM GAS  C:\Users\ilya\AppData\Local\Temp\ccVU2AIc.s 			page 40


 988:Generated_Source\PSoC4/TIMER.c **** * Parameters:
 989:Generated_Source\PSoC4/TIMER.c **** *  None
 990:Generated_Source\PSoC4/TIMER.c **** *
 991:Generated_Source\PSoC4/TIMER.c **** * Return:
 992:Generated_Source\PSoC4/TIMER.c **** *  Compare buffer value
 993:Generated_Source\PSoC4/TIMER.c **** *
 994:Generated_Source\PSoC4/TIMER.c **** * Note:
 995:Generated_Source\PSoC4/TIMER.c **** *  PSoC 4000 devices read the incremented compare register value in the 
 996:Generated_Source\PSoC4/TIMER.c **** *  Up counting mode (except 0xFFFFu), and the decremented value in the 
 997:Generated_Source\PSoC4/TIMER.c **** *  Down counting mode (except 0x0u).
 998:Generated_Source\PSoC4/TIMER.c **** *
 999:Generated_Source\PSoC4/TIMER.c **** *******************************************************************************/
1000:Generated_Source\PSoC4/TIMER.c **** uint32 TIMER_ReadCompareBuf(void)
1001:Generated_Source\PSoC4/TIMER.c **** {
 1237              		.loc 1 1001 0
 1238              		.cfi_startproc
 1239 0000 80B5     		push	{r7, lr}
 1240              		.cfi_def_cfa_offset 8
 1241              		.cfi_offset 7, -8
 1242              		.cfi_offset 14, -4
 1243 0002 00AF     		add	r7, sp, #0
 1244              		.cfi_def_cfa_register 7
1002:Generated_Source\PSoC4/TIMER.c ****     #if (TIMER_CY_TCPWM_4000)
1003:Generated_Source\PSoC4/TIMER.c ****         uint32 currentMode;
1004:Generated_Source\PSoC4/TIMER.c ****         uint32 regVal;
1005:Generated_Source\PSoC4/TIMER.c ****     #endif /* (TIMER_CY_TCPWM_4000) */
1006:Generated_Source\PSoC4/TIMER.c **** 
1007:Generated_Source\PSoC4/TIMER.c ****     #if (TIMER_CY_TCPWM_4000)
1008:Generated_Source\PSoC4/TIMER.c ****         currentMode = ((TIMER_CONTROL_REG & TIMER_UPDOWN_MASK) >> TIMER_UPDOWN_SHIFT);
1009:Generated_Source\PSoC4/TIMER.c **** 
1010:Generated_Source\PSoC4/TIMER.c ****         regVal = TIMER_COMP_CAP_BUF_REG;
1011:Generated_Source\PSoC4/TIMER.c ****         
1012:Generated_Source\PSoC4/TIMER.c ****         if (((uint32)TIMER__COUNT_DOWN == currentMode) && (0u != regVal))
1013:Generated_Source\PSoC4/TIMER.c ****         {
1014:Generated_Source\PSoC4/TIMER.c ****             regVal--;
1015:Generated_Source\PSoC4/TIMER.c ****         }
1016:Generated_Source\PSoC4/TIMER.c ****         else if (((uint32)TIMER__COUNT_UP == currentMode) && (0xFFFFu != regVal))
1017:Generated_Source\PSoC4/TIMER.c ****         {
1018:Generated_Source\PSoC4/TIMER.c ****             regVal++;
1019:Generated_Source\PSoC4/TIMER.c ****         }
1020:Generated_Source\PSoC4/TIMER.c ****         else
1021:Generated_Source\PSoC4/TIMER.c ****         {
1022:Generated_Source\PSoC4/TIMER.c ****         }
1023:Generated_Source\PSoC4/TIMER.c **** 
1024:Generated_Source\PSoC4/TIMER.c ****         return (regVal & TIMER_16BIT_MASK);
1025:Generated_Source\PSoC4/TIMER.c ****     #else
1026:Generated_Source\PSoC4/TIMER.c ****         return (TIMER_COMP_CAP_BUF_REG & TIMER_16BIT_MASK);
 1245              		.loc 1 1026 0
 1246 0004 034B     		ldr	r3, .L83
 1247 0006 1B68     		ldr	r3, [r3]
 1248 0008 1B04     		lsl	r3, r3, #16
 1249 000a 1B0C     		lsr	r3, r3, #16
1027:Generated_Source\PSoC4/TIMER.c ****     #endif /* (TIMER_CY_TCPWM_4000) */
1028:Generated_Source\PSoC4/TIMER.c **** }
 1250              		.loc 1 1028 0
 1251 000c 181C     		mov	r0, r3
 1252 000e BD46     		mov	sp, r7
ARM GAS  C:\Users\ilya\AppData\Local\Temp\ccVU2AIc.s 			page 41


 1253              		@ sp needed
 1254 0010 80BD     		pop	{r7, pc}
 1255              	.L84:
 1256 0012 C046     		.align	2
 1257              	.L83:
 1258 0014 50012040 		.word	1075839312
 1259              		.cfi_endproc
 1260              	.LFE26:
 1261              		.size	TIMER_ReadCompareBuf, .-TIMER_ReadCompareBuf
 1262              		.section	.text.TIMER_ReadCapture,"ax",%progbits
 1263              		.align	2
 1264              		.global	TIMER_ReadCapture
 1265              		.code	16
 1266              		.thumb_func
 1267              		.type	TIMER_ReadCapture, %function
 1268              	TIMER_ReadCapture:
 1269              	.LFB27:
1029:Generated_Source\PSoC4/TIMER.c **** 
1030:Generated_Source\PSoC4/TIMER.c **** 
1031:Generated_Source\PSoC4/TIMER.c **** /*******************************************************************************
1032:Generated_Source\PSoC4/TIMER.c **** * Function Name: TIMER_ReadCapture
1033:Generated_Source\PSoC4/TIMER.c **** ********************************************************************************
1034:Generated_Source\PSoC4/TIMER.c **** *
1035:Generated_Source\PSoC4/TIMER.c **** * Summary:
1036:Generated_Source\PSoC4/TIMER.c **** *  Reads the captured counter value. This API is applicable only for
1037:Generated_Source\PSoC4/TIMER.c **** *  Timer/Counter with the capture mode and Quadrature Decoder modes.
1038:Generated_Source\PSoC4/TIMER.c **** *
1039:Generated_Source\PSoC4/TIMER.c **** * Parameters:
1040:Generated_Source\PSoC4/TIMER.c **** *  None
1041:Generated_Source\PSoC4/TIMER.c **** *
1042:Generated_Source\PSoC4/TIMER.c **** * Return:
1043:Generated_Source\PSoC4/TIMER.c **** *  Capture value
1044:Generated_Source\PSoC4/TIMER.c **** *
1045:Generated_Source\PSoC4/TIMER.c **** *******************************************************************************/
1046:Generated_Source\PSoC4/TIMER.c **** uint32 TIMER_ReadCapture(void)
1047:Generated_Source\PSoC4/TIMER.c **** {
 1270              		.loc 1 1047 0
 1271              		.cfi_startproc
 1272 0000 80B5     		push	{r7, lr}
 1273              		.cfi_def_cfa_offset 8
 1274              		.cfi_offset 7, -8
 1275              		.cfi_offset 14, -4
 1276 0002 00AF     		add	r7, sp, #0
 1277              		.cfi_def_cfa_register 7
1048:Generated_Source\PSoC4/TIMER.c ****     return (TIMER_COMP_CAP_REG & TIMER_16BIT_MASK);
 1278              		.loc 1 1048 0
 1279 0004 034B     		ldr	r3, .L87
 1280 0006 1B68     		ldr	r3, [r3]
 1281 0008 1B04     		lsl	r3, r3, #16
 1282 000a 1B0C     		lsr	r3, r3, #16
1049:Generated_Source\PSoC4/TIMER.c **** }
 1283              		.loc 1 1049 0
 1284 000c 181C     		mov	r0, r3
 1285 000e BD46     		mov	sp, r7
 1286              		@ sp needed
 1287 0010 80BD     		pop	{r7, pc}
 1288              	.L88:
ARM GAS  C:\Users\ilya\AppData\Local\Temp\ccVU2AIc.s 			page 42


 1289 0012 C046     		.align	2
 1290              	.L87:
 1291 0014 4C012040 		.word	1075839308
 1292              		.cfi_endproc
 1293              	.LFE27:
 1294              		.size	TIMER_ReadCapture, .-TIMER_ReadCapture
 1295              		.section	.text.TIMER_ReadCaptureBuf,"ax",%progbits
 1296              		.align	2
 1297              		.global	TIMER_ReadCaptureBuf
 1298              		.code	16
 1299              		.thumb_func
 1300              		.type	TIMER_ReadCaptureBuf, %function
 1301              	TIMER_ReadCaptureBuf:
 1302              	.LFB28:
1050:Generated_Source\PSoC4/TIMER.c **** 
1051:Generated_Source\PSoC4/TIMER.c **** 
1052:Generated_Source\PSoC4/TIMER.c **** /*******************************************************************************
1053:Generated_Source\PSoC4/TIMER.c **** * Function Name: TIMER_ReadCaptureBuf
1054:Generated_Source\PSoC4/TIMER.c **** ********************************************************************************
1055:Generated_Source\PSoC4/TIMER.c **** *
1056:Generated_Source\PSoC4/TIMER.c **** * Summary:
1057:Generated_Source\PSoC4/TIMER.c **** *  Reads the capture buffer register. This API is applicable only for
1058:Generated_Source\PSoC4/TIMER.c **** *  Timer/Counter with the capture mode and Quadrature Decoder modes.
1059:Generated_Source\PSoC4/TIMER.c **** *
1060:Generated_Source\PSoC4/TIMER.c **** * Parameters:
1061:Generated_Source\PSoC4/TIMER.c **** *  None
1062:Generated_Source\PSoC4/TIMER.c **** *
1063:Generated_Source\PSoC4/TIMER.c **** * Return:
1064:Generated_Source\PSoC4/TIMER.c **** *  Capture buffer value
1065:Generated_Source\PSoC4/TIMER.c **** *
1066:Generated_Source\PSoC4/TIMER.c **** *******************************************************************************/
1067:Generated_Source\PSoC4/TIMER.c **** uint32 TIMER_ReadCaptureBuf(void)
1068:Generated_Source\PSoC4/TIMER.c **** {
 1303              		.loc 1 1068 0
 1304              		.cfi_startproc
 1305 0000 80B5     		push	{r7, lr}
 1306              		.cfi_def_cfa_offset 8
 1307              		.cfi_offset 7, -8
 1308              		.cfi_offset 14, -4
 1309 0002 00AF     		add	r7, sp, #0
 1310              		.cfi_def_cfa_register 7
1069:Generated_Source\PSoC4/TIMER.c ****     return (TIMER_COMP_CAP_BUF_REG & TIMER_16BIT_MASK);
 1311              		.loc 1 1069 0
 1312 0004 034B     		ldr	r3, .L91
 1313 0006 1B68     		ldr	r3, [r3]
 1314 0008 1B04     		lsl	r3, r3, #16
 1315 000a 1B0C     		lsr	r3, r3, #16
1070:Generated_Source\PSoC4/TIMER.c **** }
 1316              		.loc 1 1070 0
 1317 000c 181C     		mov	r0, r3
 1318 000e BD46     		mov	sp, r7
 1319              		@ sp needed
 1320 0010 80BD     		pop	{r7, pc}
 1321              	.L92:
 1322 0012 C046     		.align	2
 1323              	.L91:
 1324 0014 50012040 		.word	1075839312
ARM GAS  C:\Users\ilya\AppData\Local\Temp\ccVU2AIc.s 			page 43


 1325              		.cfi_endproc
 1326              	.LFE28:
 1327              		.size	TIMER_ReadCaptureBuf, .-TIMER_ReadCaptureBuf
 1328              		.section	.text.TIMER_SetCaptureMode,"ax",%progbits
 1329              		.align	2
 1330              		.global	TIMER_SetCaptureMode
 1331              		.code	16
 1332              		.thumb_func
 1333              		.type	TIMER_SetCaptureMode, %function
 1334              	TIMER_SetCaptureMode:
 1335              	.LFB29:
1071:Generated_Source\PSoC4/TIMER.c **** 
1072:Generated_Source\PSoC4/TIMER.c **** 
1073:Generated_Source\PSoC4/TIMER.c **** /*******************************************************************************
1074:Generated_Source\PSoC4/TIMER.c **** * Function Name: TIMER_SetCaptureMode
1075:Generated_Source\PSoC4/TIMER.c **** ********************************************************************************
1076:Generated_Source\PSoC4/TIMER.c **** *
1077:Generated_Source\PSoC4/TIMER.c **** * Summary:
1078:Generated_Source\PSoC4/TIMER.c **** *  Sets the capture trigger mode. For PWM mode this is the switch input.
1079:Generated_Source\PSoC4/TIMER.c **** *  This input is not applicable to the Timer/Counter without Capture and
1080:Generated_Source\PSoC4/TIMER.c **** *  Quadrature Decoder modes.
1081:Generated_Source\PSoC4/TIMER.c **** *
1082:Generated_Source\PSoC4/TIMER.c **** * Parameters:
1083:Generated_Source\PSoC4/TIMER.c **** *  triggerMode: Enumerated trigger mode value
1084:Generated_Source\PSoC4/TIMER.c **** *   Values:
1085:Generated_Source\PSoC4/TIMER.c **** *     - TIMER_TRIG_LEVEL     - Level
1086:Generated_Source\PSoC4/TIMER.c **** *     - TIMER_TRIG_RISING    - Rising edge
1087:Generated_Source\PSoC4/TIMER.c **** *     - TIMER_TRIG_FALLING   - Falling edge
1088:Generated_Source\PSoC4/TIMER.c **** *     - TIMER_TRIG_BOTH      - Both rising and falling edge
1089:Generated_Source\PSoC4/TIMER.c **** *
1090:Generated_Source\PSoC4/TIMER.c **** * Return:
1091:Generated_Source\PSoC4/TIMER.c **** *  None
1092:Generated_Source\PSoC4/TIMER.c **** *
1093:Generated_Source\PSoC4/TIMER.c **** *******************************************************************************/
1094:Generated_Source\PSoC4/TIMER.c **** void TIMER_SetCaptureMode(uint32 triggerMode)
1095:Generated_Source\PSoC4/TIMER.c **** {
 1336              		.loc 1 1095 0
 1337              		.cfi_startproc
 1338 0000 90B5     		push	{r4, r7, lr}
 1339              		.cfi_def_cfa_offset 12
 1340              		.cfi_offset 4, -12
 1341              		.cfi_offset 7, -8
 1342              		.cfi_offset 14, -4
 1343 0002 85B0     		sub	sp, sp, #20
 1344              		.cfi_def_cfa_offset 32
 1345 0004 00AF     		add	r7, sp, #0
 1346              		.cfi_def_cfa_register 7
 1347 0006 7860     		str	r0, [r7, #4]
1096:Generated_Source\PSoC4/TIMER.c ****     uint8 enableInterrupts;
1097:Generated_Source\PSoC4/TIMER.c **** 
1098:Generated_Source\PSoC4/TIMER.c ****     enableInterrupts = CyEnterCriticalSection();
 1348              		.loc 1 1098 0
 1349 0008 0F23     		mov	r3, #15
 1350 000a FC18     		add	r4, r7, r3
 1351 000c FFF7FEFF 		bl	CyEnterCriticalSection
 1352 0010 031C     		mov	r3, r0
 1353 0012 2370     		strb	r3, [r4]
ARM GAS  C:\Users\ilya\AppData\Local\Temp\ccVU2AIc.s 			page 44


1099:Generated_Source\PSoC4/TIMER.c **** 
1100:Generated_Source\PSoC4/TIMER.c ****     TIMER_TRIG_CONTROL1_REG &= (uint32)~TIMER_CAPTURE_MASK;
 1354              		.loc 1 1100 0
 1355 0014 0A4B     		ldr	r3, .L94
 1356 0016 0A4A     		ldr	r2, .L94
 1357 0018 1268     		ldr	r2, [r2]
 1358 001a 0321     		mov	r1, #3
 1359 001c 8A43     		bic	r2, r1
 1360 001e 1A60     		str	r2, [r3]
1101:Generated_Source\PSoC4/TIMER.c ****     TIMER_TRIG_CONTROL1_REG |= triggerMode;
 1361              		.loc 1 1101 0
 1362 0020 074B     		ldr	r3, .L94
 1363 0022 074A     		ldr	r2, .L94
 1364 0024 1168     		ldr	r1, [r2]
 1365 0026 7A68     		ldr	r2, [r7, #4]
 1366 0028 0A43     		orr	r2, r1
 1367 002a 1A60     		str	r2, [r3]
1102:Generated_Source\PSoC4/TIMER.c **** 
1103:Generated_Source\PSoC4/TIMER.c ****     CyExitCriticalSection(enableInterrupts);
 1368              		.loc 1 1103 0
 1369 002c 0F23     		mov	r3, #15
 1370 002e FB18     		add	r3, r7, r3
 1371 0030 1B78     		ldrb	r3, [r3]
 1372 0032 181C     		mov	r0, r3
 1373 0034 FFF7FEFF 		bl	CyExitCriticalSection
1104:Generated_Source\PSoC4/TIMER.c **** }
 1374              		.loc 1 1104 0
 1375 0038 BD46     		mov	sp, r7
 1376 003a 05B0     		add	sp, sp, #20
 1377              		@ sp needed
 1378 003c 90BD     		pop	{r4, r7, pc}
 1379              	.L95:
 1380 003e C046     		.align	2
 1381              	.L94:
 1382 0040 64012040 		.word	1075839332
 1383              		.cfi_endproc
 1384              	.LFE29:
 1385              		.size	TIMER_SetCaptureMode, .-TIMER_SetCaptureMode
 1386              		.section	.text.TIMER_SetReloadMode,"ax",%progbits
 1387              		.align	2
 1388              		.global	TIMER_SetReloadMode
 1389              		.code	16
 1390              		.thumb_func
 1391              		.type	TIMER_SetReloadMode, %function
 1392              	TIMER_SetReloadMode:
 1393              	.LFB30:
1105:Generated_Source\PSoC4/TIMER.c **** 
1106:Generated_Source\PSoC4/TIMER.c **** 
1107:Generated_Source\PSoC4/TIMER.c **** /*******************************************************************************
1108:Generated_Source\PSoC4/TIMER.c **** * Function Name: TIMER_SetReloadMode
1109:Generated_Source\PSoC4/TIMER.c **** ********************************************************************************
1110:Generated_Source\PSoC4/TIMER.c **** *
1111:Generated_Source\PSoC4/TIMER.c **** * Summary:
1112:Generated_Source\PSoC4/TIMER.c **** *  Sets the reload trigger mode. For Quadrature Decoder mode this is the index
1113:Generated_Source\PSoC4/TIMER.c **** *  input.
1114:Generated_Source\PSoC4/TIMER.c **** *
1115:Generated_Source\PSoC4/TIMER.c **** * Parameters:
ARM GAS  C:\Users\ilya\AppData\Local\Temp\ccVU2AIc.s 			page 45


1116:Generated_Source\PSoC4/TIMER.c **** *  triggerMode: Enumerated trigger mode value
1117:Generated_Source\PSoC4/TIMER.c **** *   Values:
1118:Generated_Source\PSoC4/TIMER.c **** *     - TIMER_TRIG_LEVEL     - Level
1119:Generated_Source\PSoC4/TIMER.c **** *     - TIMER_TRIG_RISING    - Rising edge
1120:Generated_Source\PSoC4/TIMER.c **** *     - TIMER_TRIG_FALLING   - Falling edge
1121:Generated_Source\PSoC4/TIMER.c **** *     - TIMER_TRIG_BOTH      - Both rising and falling edge
1122:Generated_Source\PSoC4/TIMER.c **** *
1123:Generated_Source\PSoC4/TIMER.c **** * Return:
1124:Generated_Source\PSoC4/TIMER.c **** *  None
1125:Generated_Source\PSoC4/TIMER.c **** *
1126:Generated_Source\PSoC4/TIMER.c **** *******************************************************************************/
1127:Generated_Source\PSoC4/TIMER.c **** void TIMER_SetReloadMode(uint32 triggerMode)
1128:Generated_Source\PSoC4/TIMER.c **** {
 1394              		.loc 1 1128 0
 1395              		.cfi_startproc
 1396 0000 90B5     		push	{r4, r7, lr}
 1397              		.cfi_def_cfa_offset 12
 1398              		.cfi_offset 4, -12
 1399              		.cfi_offset 7, -8
 1400              		.cfi_offset 14, -4
 1401 0002 85B0     		sub	sp, sp, #20
 1402              		.cfi_def_cfa_offset 32
 1403 0004 00AF     		add	r7, sp, #0
 1404              		.cfi_def_cfa_register 7
 1405 0006 7860     		str	r0, [r7, #4]
1129:Generated_Source\PSoC4/TIMER.c ****     uint8 enableInterrupts;
1130:Generated_Source\PSoC4/TIMER.c **** 
1131:Generated_Source\PSoC4/TIMER.c ****     enableInterrupts = CyEnterCriticalSection();
 1406              		.loc 1 1131 0
 1407 0008 0F23     		mov	r3, #15
 1408 000a FC18     		add	r4, r7, r3
 1409 000c FFF7FEFF 		bl	CyEnterCriticalSection
 1410 0010 031C     		mov	r3, r0
 1411 0012 2370     		strb	r3, [r4]
1132:Generated_Source\PSoC4/TIMER.c **** 
1133:Generated_Source\PSoC4/TIMER.c ****     TIMER_TRIG_CONTROL1_REG &= (uint32)~TIMER_RELOAD_MASK;
 1412              		.loc 1 1133 0
 1413 0014 0A4B     		ldr	r3, .L97
 1414 0016 0A4A     		ldr	r2, .L97
 1415 0018 1268     		ldr	r2, [r2]
 1416 001a 3021     		mov	r1, #48
 1417 001c 8A43     		bic	r2, r1
 1418 001e 1A60     		str	r2, [r3]
1134:Generated_Source\PSoC4/TIMER.c ****     TIMER_TRIG_CONTROL1_REG |= ((uint32)(triggerMode << TIMER_RELOAD_SHIFT));
 1419              		.loc 1 1134 0
 1420 0020 074B     		ldr	r3, .L97
 1421 0022 074A     		ldr	r2, .L97
 1422 0024 1168     		ldr	r1, [r2]
 1423 0026 7A68     		ldr	r2, [r7, #4]
 1424 0028 1201     		lsl	r2, r2, #4
 1425 002a 0A43     		orr	r2, r1
 1426 002c 1A60     		str	r2, [r3]
1135:Generated_Source\PSoC4/TIMER.c **** 
1136:Generated_Source\PSoC4/TIMER.c ****     CyExitCriticalSection(enableInterrupts);
 1427              		.loc 1 1136 0
 1428 002e 0F23     		mov	r3, #15
 1429 0030 FB18     		add	r3, r7, r3
ARM GAS  C:\Users\ilya\AppData\Local\Temp\ccVU2AIc.s 			page 46


 1430 0032 1B78     		ldrb	r3, [r3]
 1431 0034 181C     		mov	r0, r3
 1432 0036 FFF7FEFF 		bl	CyExitCriticalSection
1137:Generated_Source\PSoC4/TIMER.c **** }
 1433              		.loc 1 1137 0
 1434 003a BD46     		mov	sp, r7
 1435 003c 05B0     		add	sp, sp, #20
 1436              		@ sp needed
 1437 003e 90BD     		pop	{r4, r7, pc}
 1438              	.L98:
 1439              		.align	2
 1440              	.L97:
 1441 0040 64012040 		.word	1075839332
 1442              		.cfi_endproc
 1443              	.LFE30:
 1444              		.size	TIMER_SetReloadMode, .-TIMER_SetReloadMode
 1445              		.section	.text.TIMER_SetStartMode,"ax",%progbits
 1446              		.align	2
 1447              		.global	TIMER_SetStartMode
 1448              		.code	16
 1449              		.thumb_func
 1450              		.type	TIMER_SetStartMode, %function
 1451              	TIMER_SetStartMode:
 1452              	.LFB31:
1138:Generated_Source\PSoC4/TIMER.c **** 
1139:Generated_Source\PSoC4/TIMER.c **** 
1140:Generated_Source\PSoC4/TIMER.c **** /*******************************************************************************
1141:Generated_Source\PSoC4/TIMER.c **** * Function Name: TIMER_SetStartMode
1142:Generated_Source\PSoC4/TIMER.c **** ********************************************************************************
1143:Generated_Source\PSoC4/TIMER.c **** *
1144:Generated_Source\PSoC4/TIMER.c **** * Summary:
1145:Generated_Source\PSoC4/TIMER.c **** *  Sets the start trigger mode. For Quadrature Decoder mode this is the
1146:Generated_Source\PSoC4/TIMER.c **** *  phiB input.
1147:Generated_Source\PSoC4/TIMER.c **** *
1148:Generated_Source\PSoC4/TIMER.c **** * Parameters:
1149:Generated_Source\PSoC4/TIMER.c **** *  triggerMode: Enumerated trigger mode value
1150:Generated_Source\PSoC4/TIMER.c **** *   Values:
1151:Generated_Source\PSoC4/TIMER.c **** *     - TIMER_TRIG_LEVEL     - Level
1152:Generated_Source\PSoC4/TIMER.c **** *     - TIMER_TRIG_RISING    - Rising edge
1153:Generated_Source\PSoC4/TIMER.c **** *     - TIMER_TRIG_FALLING   - Falling edge
1154:Generated_Source\PSoC4/TIMER.c **** *     - TIMER_TRIG_BOTH      - Both rising and falling edge
1155:Generated_Source\PSoC4/TIMER.c **** *
1156:Generated_Source\PSoC4/TIMER.c **** * Return:
1157:Generated_Source\PSoC4/TIMER.c **** *  None
1158:Generated_Source\PSoC4/TIMER.c **** *
1159:Generated_Source\PSoC4/TIMER.c **** *******************************************************************************/
1160:Generated_Source\PSoC4/TIMER.c **** void TIMER_SetStartMode(uint32 triggerMode)
1161:Generated_Source\PSoC4/TIMER.c **** {
 1453              		.loc 1 1161 0
 1454              		.cfi_startproc
 1455 0000 90B5     		push	{r4, r7, lr}
 1456              		.cfi_def_cfa_offset 12
 1457              		.cfi_offset 4, -12
 1458              		.cfi_offset 7, -8
 1459              		.cfi_offset 14, -4
 1460 0002 85B0     		sub	sp, sp, #20
 1461              		.cfi_def_cfa_offset 32
ARM GAS  C:\Users\ilya\AppData\Local\Temp\ccVU2AIc.s 			page 47


 1462 0004 00AF     		add	r7, sp, #0
 1463              		.cfi_def_cfa_register 7
 1464 0006 7860     		str	r0, [r7, #4]
1162:Generated_Source\PSoC4/TIMER.c ****     uint8 enableInterrupts;
1163:Generated_Source\PSoC4/TIMER.c **** 
1164:Generated_Source\PSoC4/TIMER.c ****     enableInterrupts = CyEnterCriticalSection();
 1465              		.loc 1 1164 0
 1466 0008 0F23     		mov	r3, #15
 1467 000a FC18     		add	r4, r7, r3
 1468 000c FFF7FEFF 		bl	CyEnterCriticalSection
 1469 0010 031C     		mov	r3, r0
 1470 0012 2370     		strb	r3, [r4]
1165:Generated_Source\PSoC4/TIMER.c **** 
1166:Generated_Source\PSoC4/TIMER.c ****     TIMER_TRIG_CONTROL1_REG &= (uint32)~TIMER_START_MASK;
 1471              		.loc 1 1166 0
 1472 0014 0A4B     		ldr	r3, .L100
 1473 0016 0A4A     		ldr	r2, .L100
 1474 0018 1268     		ldr	r2, [r2]
 1475 001a 0A49     		ldr	r1, .L100+4
 1476 001c 0A40     		and	r2, r1
 1477 001e 1A60     		str	r2, [r3]
1167:Generated_Source\PSoC4/TIMER.c ****     TIMER_TRIG_CONTROL1_REG |= ((uint32)(triggerMode << TIMER_START_SHIFT));
 1478              		.loc 1 1167 0
 1479 0020 074B     		ldr	r3, .L100
 1480 0022 074A     		ldr	r2, .L100
 1481 0024 1168     		ldr	r1, [r2]
 1482 0026 7A68     		ldr	r2, [r7, #4]
 1483 0028 1202     		lsl	r2, r2, #8
 1484 002a 0A43     		orr	r2, r1
 1485 002c 1A60     		str	r2, [r3]
1168:Generated_Source\PSoC4/TIMER.c **** 
1169:Generated_Source\PSoC4/TIMER.c ****     CyExitCriticalSection(enableInterrupts);
 1486              		.loc 1 1169 0
 1487 002e 0F23     		mov	r3, #15
 1488 0030 FB18     		add	r3, r7, r3
 1489 0032 1B78     		ldrb	r3, [r3]
 1490 0034 181C     		mov	r0, r3
 1491 0036 FFF7FEFF 		bl	CyExitCriticalSection
1170:Generated_Source\PSoC4/TIMER.c **** }
 1492              		.loc 1 1170 0
 1493 003a BD46     		mov	sp, r7
 1494 003c 05B0     		add	sp, sp, #20
 1495              		@ sp needed
 1496 003e 90BD     		pop	{r4, r7, pc}
 1497              	.L101:
 1498              		.align	2
 1499              	.L100:
 1500 0040 64012040 		.word	1075839332
 1501 0044 FFFCFFFF 		.word	-769
 1502              		.cfi_endproc
 1503              	.LFE31:
 1504              		.size	TIMER_SetStartMode, .-TIMER_SetStartMode
 1505              		.section	.text.TIMER_SetStopMode,"ax",%progbits
 1506              		.align	2
 1507              		.global	TIMER_SetStopMode
 1508              		.code	16
 1509              		.thumb_func
ARM GAS  C:\Users\ilya\AppData\Local\Temp\ccVU2AIc.s 			page 48


 1510              		.type	TIMER_SetStopMode, %function
 1511              	TIMER_SetStopMode:
 1512              	.LFB32:
1171:Generated_Source\PSoC4/TIMER.c **** 
1172:Generated_Source\PSoC4/TIMER.c **** 
1173:Generated_Source\PSoC4/TIMER.c **** /*******************************************************************************
1174:Generated_Source\PSoC4/TIMER.c **** * Function Name: TIMER_SetStopMode
1175:Generated_Source\PSoC4/TIMER.c **** ********************************************************************************
1176:Generated_Source\PSoC4/TIMER.c **** *
1177:Generated_Source\PSoC4/TIMER.c **** * Summary:
1178:Generated_Source\PSoC4/TIMER.c **** *  Sets the stop trigger mode. For PWM mode this is the kill input.
1179:Generated_Source\PSoC4/TIMER.c **** *
1180:Generated_Source\PSoC4/TIMER.c **** * Parameters:
1181:Generated_Source\PSoC4/TIMER.c **** *  triggerMode: Enumerated trigger mode value
1182:Generated_Source\PSoC4/TIMER.c **** *   Values:
1183:Generated_Source\PSoC4/TIMER.c **** *     - TIMER_TRIG_LEVEL     - Level
1184:Generated_Source\PSoC4/TIMER.c **** *     - TIMER_TRIG_RISING    - Rising edge
1185:Generated_Source\PSoC4/TIMER.c **** *     - TIMER_TRIG_FALLING   - Falling edge
1186:Generated_Source\PSoC4/TIMER.c **** *     - TIMER_TRIG_BOTH      - Both rising and falling edge
1187:Generated_Source\PSoC4/TIMER.c **** *
1188:Generated_Source\PSoC4/TIMER.c **** * Return:
1189:Generated_Source\PSoC4/TIMER.c **** *  None
1190:Generated_Source\PSoC4/TIMER.c **** *
1191:Generated_Source\PSoC4/TIMER.c **** *******************************************************************************/
1192:Generated_Source\PSoC4/TIMER.c **** void TIMER_SetStopMode(uint32 triggerMode)
1193:Generated_Source\PSoC4/TIMER.c **** {
 1513              		.loc 1 1193 0
 1514              		.cfi_startproc
 1515 0000 90B5     		push	{r4, r7, lr}
 1516              		.cfi_def_cfa_offset 12
 1517              		.cfi_offset 4, -12
 1518              		.cfi_offset 7, -8
 1519              		.cfi_offset 14, -4
 1520 0002 85B0     		sub	sp, sp, #20
 1521              		.cfi_def_cfa_offset 32
 1522 0004 00AF     		add	r7, sp, #0
 1523              		.cfi_def_cfa_register 7
 1524 0006 7860     		str	r0, [r7, #4]
1194:Generated_Source\PSoC4/TIMER.c ****     uint8 enableInterrupts;
1195:Generated_Source\PSoC4/TIMER.c **** 
1196:Generated_Source\PSoC4/TIMER.c ****     enableInterrupts = CyEnterCriticalSection();
 1525              		.loc 1 1196 0
 1526 0008 0F23     		mov	r3, #15
 1527 000a FC18     		add	r4, r7, r3
 1528 000c FFF7FEFF 		bl	CyEnterCriticalSection
 1529 0010 031C     		mov	r3, r0
 1530 0012 2370     		strb	r3, [r4]
1197:Generated_Source\PSoC4/TIMER.c **** 
1198:Generated_Source\PSoC4/TIMER.c ****     TIMER_TRIG_CONTROL1_REG &= (uint32)~TIMER_STOP_MASK;
 1531              		.loc 1 1198 0
 1532 0014 0A4B     		ldr	r3, .L103
 1533 0016 0A4A     		ldr	r2, .L103
 1534 0018 1268     		ldr	r2, [r2]
 1535 001a C021     		mov	r1, #192
 1536 001c 8A43     		bic	r2, r1
 1537 001e 1A60     		str	r2, [r3]
1199:Generated_Source\PSoC4/TIMER.c ****     TIMER_TRIG_CONTROL1_REG |= ((uint32)(triggerMode << TIMER_STOP_SHIFT));
ARM GAS  C:\Users\ilya\AppData\Local\Temp\ccVU2AIc.s 			page 49


 1538              		.loc 1 1199 0
 1539 0020 074B     		ldr	r3, .L103
 1540 0022 074A     		ldr	r2, .L103
 1541 0024 1168     		ldr	r1, [r2]
 1542 0026 7A68     		ldr	r2, [r7, #4]
 1543 0028 9201     		lsl	r2, r2, #6
 1544 002a 0A43     		orr	r2, r1
 1545 002c 1A60     		str	r2, [r3]
1200:Generated_Source\PSoC4/TIMER.c **** 
1201:Generated_Source\PSoC4/TIMER.c ****     CyExitCriticalSection(enableInterrupts);
 1546              		.loc 1 1201 0
 1547 002e 0F23     		mov	r3, #15
 1548 0030 FB18     		add	r3, r7, r3
 1549 0032 1B78     		ldrb	r3, [r3]
 1550 0034 181C     		mov	r0, r3
 1551 0036 FFF7FEFF 		bl	CyExitCriticalSection
1202:Generated_Source\PSoC4/TIMER.c **** }
 1552              		.loc 1 1202 0
 1553 003a BD46     		mov	sp, r7
 1554 003c 05B0     		add	sp, sp, #20
 1555              		@ sp needed
 1556 003e 90BD     		pop	{r4, r7, pc}
 1557              	.L104:
 1558              		.align	2
 1559              	.L103:
 1560 0040 64012040 		.word	1075839332
 1561              		.cfi_endproc
 1562              	.LFE32:
 1563              		.size	TIMER_SetStopMode, .-TIMER_SetStopMode
 1564              		.section	.text.TIMER_SetCountMode,"ax",%progbits
 1565              		.align	2
 1566              		.global	TIMER_SetCountMode
 1567              		.code	16
 1568              		.thumb_func
 1569              		.type	TIMER_SetCountMode, %function
 1570              	TIMER_SetCountMode:
 1571              	.LFB33:
1203:Generated_Source\PSoC4/TIMER.c **** 
1204:Generated_Source\PSoC4/TIMER.c **** 
1205:Generated_Source\PSoC4/TIMER.c **** /*******************************************************************************
1206:Generated_Source\PSoC4/TIMER.c **** * Function Name: TIMER_SetCountMode
1207:Generated_Source\PSoC4/TIMER.c **** ********************************************************************************
1208:Generated_Source\PSoC4/TIMER.c **** *
1209:Generated_Source\PSoC4/TIMER.c **** * Summary:
1210:Generated_Source\PSoC4/TIMER.c **** *  Sets the count trigger mode. For Quadrature Decoder mode this is the phiA
1211:Generated_Source\PSoC4/TIMER.c **** *  input.
1212:Generated_Source\PSoC4/TIMER.c **** *
1213:Generated_Source\PSoC4/TIMER.c **** * Parameters:
1214:Generated_Source\PSoC4/TIMER.c **** *  triggerMode: Enumerated trigger mode value
1215:Generated_Source\PSoC4/TIMER.c **** *   Values:
1216:Generated_Source\PSoC4/TIMER.c **** *     - TIMER_TRIG_LEVEL     - Level
1217:Generated_Source\PSoC4/TIMER.c **** *     - TIMER_TRIG_RISING    - Rising edge
1218:Generated_Source\PSoC4/TIMER.c **** *     - TIMER_TRIG_FALLING   - Falling edge
1219:Generated_Source\PSoC4/TIMER.c **** *     - TIMER_TRIG_BOTH      - Both rising and falling edge
1220:Generated_Source\PSoC4/TIMER.c **** *
1221:Generated_Source\PSoC4/TIMER.c **** * Return:
1222:Generated_Source\PSoC4/TIMER.c **** *  None
ARM GAS  C:\Users\ilya\AppData\Local\Temp\ccVU2AIc.s 			page 50


1223:Generated_Source\PSoC4/TIMER.c **** *
1224:Generated_Source\PSoC4/TIMER.c **** *******************************************************************************/
1225:Generated_Source\PSoC4/TIMER.c **** void TIMER_SetCountMode(uint32 triggerMode)
1226:Generated_Source\PSoC4/TIMER.c **** {
 1572              		.loc 1 1226 0
 1573              		.cfi_startproc
 1574 0000 90B5     		push	{r4, r7, lr}
 1575              		.cfi_def_cfa_offset 12
 1576              		.cfi_offset 4, -12
 1577              		.cfi_offset 7, -8
 1578              		.cfi_offset 14, -4
 1579 0002 85B0     		sub	sp, sp, #20
 1580              		.cfi_def_cfa_offset 32
 1581 0004 00AF     		add	r7, sp, #0
 1582              		.cfi_def_cfa_register 7
 1583 0006 7860     		str	r0, [r7, #4]
1227:Generated_Source\PSoC4/TIMER.c ****     uint8 enableInterrupts;
1228:Generated_Source\PSoC4/TIMER.c **** 
1229:Generated_Source\PSoC4/TIMER.c ****     enableInterrupts = CyEnterCriticalSection();
 1584              		.loc 1 1229 0
 1585 0008 0F23     		mov	r3, #15
 1586 000a FC18     		add	r4, r7, r3
 1587 000c FFF7FEFF 		bl	CyEnterCriticalSection
 1588 0010 031C     		mov	r3, r0
 1589 0012 2370     		strb	r3, [r4]
1230:Generated_Source\PSoC4/TIMER.c **** 
1231:Generated_Source\PSoC4/TIMER.c ****     TIMER_TRIG_CONTROL1_REG &= (uint32)~TIMER_COUNT_MASK;
 1590              		.loc 1 1231 0
 1591 0014 0A4B     		ldr	r3, .L106
 1592 0016 0A4A     		ldr	r2, .L106
 1593 0018 1268     		ldr	r2, [r2]
 1594 001a 0C21     		mov	r1, #12
 1595 001c 8A43     		bic	r2, r1
 1596 001e 1A60     		str	r2, [r3]
1232:Generated_Source\PSoC4/TIMER.c ****     TIMER_TRIG_CONTROL1_REG |= ((uint32)(triggerMode << TIMER_COUNT_SHIFT));
 1597              		.loc 1 1232 0
 1598 0020 074B     		ldr	r3, .L106
 1599 0022 074A     		ldr	r2, .L106
 1600 0024 1168     		ldr	r1, [r2]
 1601 0026 7A68     		ldr	r2, [r7, #4]
 1602 0028 9200     		lsl	r2, r2, #2
 1603 002a 0A43     		orr	r2, r1
 1604 002c 1A60     		str	r2, [r3]
1233:Generated_Source\PSoC4/TIMER.c **** 
1234:Generated_Source\PSoC4/TIMER.c ****     CyExitCriticalSection(enableInterrupts);
 1605              		.loc 1 1234 0
 1606 002e 0F23     		mov	r3, #15
 1607 0030 FB18     		add	r3, r7, r3
 1608 0032 1B78     		ldrb	r3, [r3]
 1609 0034 181C     		mov	r0, r3
 1610 0036 FFF7FEFF 		bl	CyExitCriticalSection
1235:Generated_Source\PSoC4/TIMER.c **** }
 1611              		.loc 1 1235 0
 1612 003a BD46     		mov	sp, r7
 1613 003c 05B0     		add	sp, sp, #20
 1614              		@ sp needed
 1615 003e 90BD     		pop	{r4, r7, pc}
ARM GAS  C:\Users\ilya\AppData\Local\Temp\ccVU2AIc.s 			page 51


 1616              	.L107:
 1617              		.align	2
 1618              	.L106:
 1619 0040 64012040 		.word	1075839332
 1620              		.cfi_endproc
 1621              	.LFE33:
 1622              		.size	TIMER_SetCountMode, .-TIMER_SetCountMode
 1623              		.section	.text.TIMER_TriggerCommand,"ax",%progbits
 1624              		.align	2
 1625              		.global	TIMER_TriggerCommand
 1626              		.code	16
 1627              		.thumb_func
 1628              		.type	TIMER_TriggerCommand, %function
 1629              	TIMER_TriggerCommand:
 1630              	.LFB34:
1236:Generated_Source\PSoC4/TIMER.c **** 
1237:Generated_Source\PSoC4/TIMER.c **** 
1238:Generated_Source\PSoC4/TIMER.c **** /*******************************************************************************
1239:Generated_Source\PSoC4/TIMER.c **** * Function Name: TIMER_TriggerCommand
1240:Generated_Source\PSoC4/TIMER.c **** ********************************************************************************
1241:Generated_Source\PSoC4/TIMER.c **** *
1242:Generated_Source\PSoC4/TIMER.c **** * Summary:
1243:Generated_Source\PSoC4/TIMER.c **** *  Triggers the designated command to occur on the designated TCPWM instances.
1244:Generated_Source\PSoC4/TIMER.c **** *  The mask can be used to apply this command simultaneously to more than one
1245:Generated_Source\PSoC4/TIMER.c **** *  instance.  This allows multiple TCPWM instances to be synchronized.
1246:Generated_Source\PSoC4/TIMER.c **** *
1247:Generated_Source\PSoC4/TIMER.c **** * Parameters:
1248:Generated_Source\PSoC4/TIMER.c **** *  mask: A combination of mask bits for each instance of the TCPWM that the
1249:Generated_Source\PSoC4/TIMER.c **** *        command should apply to.  This function from one instance can be used
1250:Generated_Source\PSoC4/TIMER.c **** *        to apply the command to any of the instances in the design.
1251:Generated_Source\PSoC4/TIMER.c **** *        The mask value for a specific instance is available with the MASK
1252:Generated_Source\PSoC4/TIMER.c **** *        define.
1253:Generated_Source\PSoC4/TIMER.c **** *  command: Enumerated command values. Capture command only applicable for
1254:Generated_Source\PSoC4/TIMER.c **** *           Timer/Counter with Capture and PWM modes.
1255:Generated_Source\PSoC4/TIMER.c **** *   Values:
1256:Generated_Source\PSoC4/TIMER.c **** *     - TIMER_CMD_CAPTURE    - Trigger Capture/Switch command
1257:Generated_Source\PSoC4/TIMER.c **** *     - TIMER_CMD_RELOAD     - Trigger Reload/Index command
1258:Generated_Source\PSoC4/TIMER.c **** *     - TIMER_CMD_STOP       - Trigger Stop/Kill command
1259:Generated_Source\PSoC4/TIMER.c **** *     - TIMER_CMD_START      - Trigger Start/phiB command
1260:Generated_Source\PSoC4/TIMER.c **** *
1261:Generated_Source\PSoC4/TIMER.c **** * Return:
1262:Generated_Source\PSoC4/TIMER.c **** *  None
1263:Generated_Source\PSoC4/TIMER.c **** *
1264:Generated_Source\PSoC4/TIMER.c **** *******************************************************************************/
1265:Generated_Source\PSoC4/TIMER.c **** void TIMER_TriggerCommand(uint32 mask, uint32 command)
1266:Generated_Source\PSoC4/TIMER.c **** {
 1631              		.loc 1 1266 0
 1632              		.cfi_startproc
 1633 0000 90B5     		push	{r4, r7, lr}
 1634              		.cfi_def_cfa_offset 12
 1635              		.cfi_offset 4, -12
 1636              		.cfi_offset 7, -8
 1637              		.cfi_offset 14, -4
 1638 0002 85B0     		sub	sp, sp, #20
 1639              		.cfi_def_cfa_offset 32
 1640 0004 00AF     		add	r7, sp, #0
 1641              		.cfi_def_cfa_register 7
ARM GAS  C:\Users\ilya\AppData\Local\Temp\ccVU2AIc.s 			page 52


 1642 0006 7860     		str	r0, [r7, #4]
 1643 0008 3960     		str	r1, [r7]
1267:Generated_Source\PSoC4/TIMER.c ****     uint8 enableInterrupts;
1268:Generated_Source\PSoC4/TIMER.c **** 
1269:Generated_Source\PSoC4/TIMER.c ****     enableInterrupts = CyEnterCriticalSection();
 1644              		.loc 1 1269 0
 1645 000a 0F23     		mov	r3, #15
 1646 000c FC18     		add	r4, r7, r3
 1647 000e FFF7FEFF 		bl	CyEnterCriticalSection
 1648 0012 031C     		mov	r3, r0
 1649 0014 2370     		strb	r3, [r4]
1270:Generated_Source\PSoC4/TIMER.c **** 
1271:Generated_Source\PSoC4/TIMER.c ****     TIMER_COMMAND_REG = ((uint32)(mask << command));
 1650              		.loc 1 1271 0
 1651 0016 074B     		ldr	r3, .L109
 1652 0018 3A68     		ldr	r2, [r7]
 1653 001a 7968     		ldr	r1, [r7, #4]
 1654 001c 9140     		lsl	r1, r1, r2
 1655 001e 0A1C     		mov	r2, r1
 1656 0020 1A60     		str	r2, [r3]
1272:Generated_Source\PSoC4/TIMER.c **** 
1273:Generated_Source\PSoC4/TIMER.c ****     CyExitCriticalSection(enableInterrupts);
 1657              		.loc 1 1273 0
 1658 0022 0F23     		mov	r3, #15
 1659 0024 FB18     		add	r3, r7, r3
 1660 0026 1B78     		ldrb	r3, [r3]
 1661 0028 181C     		mov	r0, r3
 1662 002a FFF7FEFF 		bl	CyExitCriticalSection
1274:Generated_Source\PSoC4/TIMER.c **** }
 1663              		.loc 1 1274 0
 1664 002e BD46     		mov	sp, r7
 1665 0030 05B0     		add	sp, sp, #20
 1666              		@ sp needed
 1667 0032 90BD     		pop	{r4, r7, pc}
 1668              	.L110:
 1669              		.align	2
 1670              	.L109:
 1671 0034 08002040 		.word	1075838984
 1672              		.cfi_endproc
 1673              	.LFE34:
 1674              		.size	TIMER_TriggerCommand, .-TIMER_TriggerCommand
 1675              		.section	.text.TIMER_ReadStatus,"ax",%progbits
 1676              		.align	2
 1677              		.global	TIMER_ReadStatus
 1678              		.code	16
 1679              		.thumb_func
 1680              		.type	TIMER_ReadStatus, %function
 1681              	TIMER_ReadStatus:
 1682              	.LFB35:
1275:Generated_Source\PSoC4/TIMER.c **** 
1276:Generated_Source\PSoC4/TIMER.c **** 
1277:Generated_Source\PSoC4/TIMER.c **** /*******************************************************************************
1278:Generated_Source\PSoC4/TIMER.c **** * Function Name: TIMER_ReadStatus
1279:Generated_Source\PSoC4/TIMER.c **** ********************************************************************************
1280:Generated_Source\PSoC4/TIMER.c **** *
1281:Generated_Source\PSoC4/TIMER.c **** * Summary:
1282:Generated_Source\PSoC4/TIMER.c **** *  Reads the status of the TIMER.
ARM GAS  C:\Users\ilya\AppData\Local\Temp\ccVU2AIc.s 			page 53


1283:Generated_Source\PSoC4/TIMER.c **** *
1284:Generated_Source\PSoC4/TIMER.c **** * Parameters:
1285:Generated_Source\PSoC4/TIMER.c **** *  None
1286:Generated_Source\PSoC4/TIMER.c **** *
1287:Generated_Source\PSoC4/TIMER.c **** * Return:
1288:Generated_Source\PSoC4/TIMER.c **** *  Status
1289:Generated_Source\PSoC4/TIMER.c **** *   Values:
1290:Generated_Source\PSoC4/TIMER.c **** *     - TIMER_STATUS_DOWN    - Set if counting down
1291:Generated_Source\PSoC4/TIMER.c **** *     - TIMER_STATUS_RUNNING - Set if counter is running
1292:Generated_Source\PSoC4/TIMER.c **** *
1293:Generated_Source\PSoC4/TIMER.c **** *******************************************************************************/
1294:Generated_Source\PSoC4/TIMER.c **** uint32 TIMER_ReadStatus(void)
1295:Generated_Source\PSoC4/TIMER.c **** {
 1683              		.loc 1 1295 0
 1684              		.cfi_startproc
 1685 0000 80B5     		push	{r7, lr}
 1686              		.cfi_def_cfa_offset 8
 1687              		.cfi_offset 7, -8
 1688              		.cfi_offset 14, -4
 1689 0002 00AF     		add	r7, sp, #0
 1690              		.cfi_def_cfa_register 7
1296:Generated_Source\PSoC4/TIMER.c ****     return ((TIMER_STATUS_REG >> TIMER_RUNNING_STATUS_SHIFT) |
 1691              		.loc 1 1296 0
 1692 0004 054B     		ldr	r3, .L113
 1693 0006 1B68     		ldr	r3, [r3]
 1694 0008 9A0F     		lsr	r2, r3, #30
1297:Generated_Source\PSoC4/TIMER.c ****             (TIMER_STATUS_REG & TIMER_STATUS_DOWN));
 1695              		.loc 1 1297 0
 1696 000a 044B     		ldr	r3, .L113
 1697 000c 1B68     		ldr	r3, [r3]
 1698 000e 0121     		mov	r1, #1
 1699 0010 0B40     		and	r3, r1
1296:Generated_Source\PSoC4/TIMER.c ****     return ((TIMER_STATUS_REG >> TIMER_RUNNING_STATUS_SHIFT) |
 1700              		.loc 1 1296 0
 1701 0012 1343     		orr	r3, r2
1298:Generated_Source\PSoC4/TIMER.c **** }
 1702              		.loc 1 1298 0
 1703 0014 181C     		mov	r0, r3
 1704 0016 BD46     		mov	sp, r7
 1705              		@ sp needed
 1706 0018 80BD     		pop	{r7, pc}
 1707              	.L114:
 1708 001a C046     		.align	2
 1709              	.L113:
 1710 001c 44012040 		.word	1075839300
 1711              		.cfi_endproc
 1712              	.LFE35:
 1713              		.size	TIMER_ReadStatus, .-TIMER_ReadStatus
 1714              		.section	.text.TIMER_SetInterruptMode,"ax",%progbits
 1715              		.align	2
 1716              		.global	TIMER_SetInterruptMode
 1717              		.code	16
 1718              		.thumb_func
 1719              		.type	TIMER_SetInterruptMode, %function
 1720              	TIMER_SetInterruptMode:
 1721              	.LFB36:
1299:Generated_Source\PSoC4/TIMER.c **** 
ARM GAS  C:\Users\ilya\AppData\Local\Temp\ccVU2AIc.s 			page 54


1300:Generated_Source\PSoC4/TIMER.c **** 
1301:Generated_Source\PSoC4/TIMER.c **** /*******************************************************************************
1302:Generated_Source\PSoC4/TIMER.c **** * Function Name: TIMER_SetInterruptMode
1303:Generated_Source\PSoC4/TIMER.c **** ********************************************************************************
1304:Generated_Source\PSoC4/TIMER.c **** *
1305:Generated_Source\PSoC4/TIMER.c **** * Summary:
1306:Generated_Source\PSoC4/TIMER.c **** *  Sets the interrupt mask to control which interrupt
1307:Generated_Source\PSoC4/TIMER.c **** *  requests generate the interrupt signal.
1308:Generated_Source\PSoC4/TIMER.c **** *
1309:Generated_Source\PSoC4/TIMER.c **** * Parameters:
1310:Generated_Source\PSoC4/TIMER.c **** *   interruptMask: Mask of bits to be enabled
1311:Generated_Source\PSoC4/TIMER.c **** *   Values:
1312:Generated_Source\PSoC4/TIMER.c **** *     - TIMER_INTR_MASK_TC       - Terminal count mask
1313:Generated_Source\PSoC4/TIMER.c **** *     - TIMER_INTR_MASK_CC_MATCH - Compare count / capture mask
1314:Generated_Source\PSoC4/TIMER.c **** *
1315:Generated_Source\PSoC4/TIMER.c **** * Return:
1316:Generated_Source\PSoC4/TIMER.c **** *  None
1317:Generated_Source\PSoC4/TIMER.c **** *
1318:Generated_Source\PSoC4/TIMER.c **** *******************************************************************************/
1319:Generated_Source\PSoC4/TIMER.c **** void TIMER_SetInterruptMode(uint32 interruptMask)
1320:Generated_Source\PSoC4/TIMER.c **** {
 1722              		.loc 1 1320 0
 1723              		.cfi_startproc
 1724 0000 80B5     		push	{r7, lr}
 1725              		.cfi_def_cfa_offset 8
 1726              		.cfi_offset 7, -8
 1727              		.cfi_offset 14, -4
 1728 0002 82B0     		sub	sp, sp, #8
 1729              		.cfi_def_cfa_offset 16
 1730 0004 00AF     		add	r7, sp, #0
 1731              		.cfi_def_cfa_register 7
 1732 0006 7860     		str	r0, [r7, #4]
1321:Generated_Source\PSoC4/TIMER.c ****     TIMER_INTERRUPT_MASK_REG =  interruptMask;
 1733              		.loc 1 1321 0
 1734 0008 024B     		ldr	r3, .L116
 1735 000a 7A68     		ldr	r2, [r7, #4]
 1736 000c 1A60     		str	r2, [r3]
1322:Generated_Source\PSoC4/TIMER.c **** }
 1737              		.loc 1 1322 0
 1738 000e BD46     		mov	sp, r7
 1739 0010 02B0     		add	sp, sp, #8
 1740              		@ sp needed
 1741 0012 80BD     		pop	{r7, pc}
 1742              	.L117:
 1743              		.align	2
 1744              	.L116:
 1745 0014 78012040 		.word	1075839352
 1746              		.cfi_endproc
 1747              	.LFE36:
 1748              		.size	TIMER_SetInterruptMode, .-TIMER_SetInterruptMode
 1749              		.section	.text.TIMER_GetInterruptSourceMasked,"ax",%progbits
 1750              		.align	2
 1751              		.global	TIMER_GetInterruptSourceMasked
 1752              		.code	16
 1753              		.thumb_func
 1754              		.type	TIMER_GetInterruptSourceMasked, %function
 1755              	TIMER_GetInterruptSourceMasked:
ARM GAS  C:\Users\ilya\AppData\Local\Temp\ccVU2AIc.s 			page 55


 1756              	.LFB37:
1323:Generated_Source\PSoC4/TIMER.c **** 
1324:Generated_Source\PSoC4/TIMER.c **** 
1325:Generated_Source\PSoC4/TIMER.c **** /*******************************************************************************
1326:Generated_Source\PSoC4/TIMER.c **** * Function Name: TIMER_GetInterruptSourceMasked
1327:Generated_Source\PSoC4/TIMER.c **** ********************************************************************************
1328:Generated_Source\PSoC4/TIMER.c **** *
1329:Generated_Source\PSoC4/TIMER.c **** * Summary:
1330:Generated_Source\PSoC4/TIMER.c **** *  Gets the interrupt requests masked by the interrupt mask.
1331:Generated_Source\PSoC4/TIMER.c **** *
1332:Generated_Source\PSoC4/TIMER.c **** * Parameters:
1333:Generated_Source\PSoC4/TIMER.c **** *   None
1334:Generated_Source\PSoC4/TIMER.c **** *
1335:Generated_Source\PSoC4/TIMER.c **** * Return:
1336:Generated_Source\PSoC4/TIMER.c **** *  Masked interrupt source
1337:Generated_Source\PSoC4/TIMER.c **** *   Values:
1338:Generated_Source\PSoC4/TIMER.c **** *     - TIMER_INTR_MASK_TC       - Terminal count mask
1339:Generated_Source\PSoC4/TIMER.c **** *     - TIMER_INTR_MASK_CC_MATCH - Compare count / capture mask
1340:Generated_Source\PSoC4/TIMER.c **** *
1341:Generated_Source\PSoC4/TIMER.c **** *******************************************************************************/
1342:Generated_Source\PSoC4/TIMER.c **** uint32 TIMER_GetInterruptSourceMasked(void)
1343:Generated_Source\PSoC4/TIMER.c **** {
 1757              		.loc 1 1343 0
 1758              		.cfi_startproc
 1759 0000 80B5     		push	{r7, lr}
 1760              		.cfi_def_cfa_offset 8
 1761              		.cfi_offset 7, -8
 1762              		.cfi_offset 14, -4
 1763 0002 00AF     		add	r7, sp, #0
 1764              		.cfi_def_cfa_register 7
1344:Generated_Source\PSoC4/TIMER.c ****     return (TIMER_INTERRUPT_MASKED_REG);
 1765              		.loc 1 1344 0
 1766 0004 024B     		ldr	r3, .L120
 1767 0006 1B68     		ldr	r3, [r3]
1345:Generated_Source\PSoC4/TIMER.c **** }
 1768              		.loc 1 1345 0
 1769 0008 181C     		mov	r0, r3
 1770 000a BD46     		mov	sp, r7
 1771              		@ sp needed
 1772 000c 80BD     		pop	{r7, pc}
 1773              	.L121:
 1774 000e C046     		.align	2
 1775              	.L120:
 1776 0010 7C012040 		.word	1075839356
 1777              		.cfi_endproc
 1778              	.LFE37:
 1779              		.size	TIMER_GetInterruptSourceMasked, .-TIMER_GetInterruptSourceMasked
 1780              		.section	.text.TIMER_GetInterruptSource,"ax",%progbits
 1781              		.align	2
 1782              		.global	TIMER_GetInterruptSource
 1783              		.code	16
 1784              		.thumb_func
 1785              		.type	TIMER_GetInterruptSource, %function
 1786              	TIMER_GetInterruptSource:
 1787              	.LFB38:
1346:Generated_Source\PSoC4/TIMER.c **** 
1347:Generated_Source\PSoC4/TIMER.c **** 
ARM GAS  C:\Users\ilya\AppData\Local\Temp\ccVU2AIc.s 			page 56


1348:Generated_Source\PSoC4/TIMER.c **** /*******************************************************************************
1349:Generated_Source\PSoC4/TIMER.c **** * Function Name: TIMER_GetInterruptSource
1350:Generated_Source\PSoC4/TIMER.c **** ********************************************************************************
1351:Generated_Source\PSoC4/TIMER.c **** *
1352:Generated_Source\PSoC4/TIMER.c **** * Summary:
1353:Generated_Source\PSoC4/TIMER.c **** *  Gets the interrupt requests (without masking).
1354:Generated_Source\PSoC4/TIMER.c **** *
1355:Generated_Source\PSoC4/TIMER.c **** * Parameters:
1356:Generated_Source\PSoC4/TIMER.c **** *  None
1357:Generated_Source\PSoC4/TIMER.c **** *
1358:Generated_Source\PSoC4/TIMER.c **** * Return:
1359:Generated_Source\PSoC4/TIMER.c **** *  Interrupt request value
1360:Generated_Source\PSoC4/TIMER.c **** *   Values:
1361:Generated_Source\PSoC4/TIMER.c **** *     - TIMER_INTR_MASK_TC       - Terminal count mask
1362:Generated_Source\PSoC4/TIMER.c **** *     - TIMER_INTR_MASK_CC_MATCH - Compare count / capture mask
1363:Generated_Source\PSoC4/TIMER.c **** *
1364:Generated_Source\PSoC4/TIMER.c **** *******************************************************************************/
1365:Generated_Source\PSoC4/TIMER.c **** uint32 TIMER_GetInterruptSource(void)
1366:Generated_Source\PSoC4/TIMER.c **** {
 1788              		.loc 1 1366 0
 1789              		.cfi_startproc
 1790 0000 80B5     		push	{r7, lr}
 1791              		.cfi_def_cfa_offset 8
 1792              		.cfi_offset 7, -8
 1793              		.cfi_offset 14, -4
 1794 0002 00AF     		add	r7, sp, #0
 1795              		.cfi_def_cfa_register 7
1367:Generated_Source\PSoC4/TIMER.c ****     return (TIMER_INTERRUPT_REQ_REG);
 1796              		.loc 1 1367 0
 1797 0004 024B     		ldr	r3, .L124
 1798 0006 1B68     		ldr	r3, [r3]
1368:Generated_Source\PSoC4/TIMER.c **** }
 1799              		.loc 1 1368 0
 1800 0008 181C     		mov	r0, r3
 1801 000a BD46     		mov	sp, r7
 1802              		@ sp needed
 1803 000c 80BD     		pop	{r7, pc}
 1804              	.L125:
 1805 000e C046     		.align	2
 1806              	.L124:
 1807 0010 70012040 		.word	1075839344
 1808              		.cfi_endproc
 1809              	.LFE38:
 1810              		.size	TIMER_GetInterruptSource, .-TIMER_GetInterruptSource
 1811              		.section	.text.TIMER_ClearInterrupt,"ax",%progbits
 1812              		.align	2
 1813              		.global	TIMER_ClearInterrupt
 1814              		.code	16
 1815              		.thumb_func
 1816              		.type	TIMER_ClearInterrupt, %function
 1817              	TIMER_ClearInterrupt:
 1818              	.LFB39:
1369:Generated_Source\PSoC4/TIMER.c **** 
1370:Generated_Source\PSoC4/TIMER.c **** 
1371:Generated_Source\PSoC4/TIMER.c **** /*******************************************************************************
1372:Generated_Source\PSoC4/TIMER.c **** * Function Name: TIMER_ClearInterrupt
1373:Generated_Source\PSoC4/TIMER.c **** ********************************************************************************
ARM GAS  C:\Users\ilya\AppData\Local\Temp\ccVU2AIc.s 			page 57


1374:Generated_Source\PSoC4/TIMER.c **** *
1375:Generated_Source\PSoC4/TIMER.c **** * Summary:
1376:Generated_Source\PSoC4/TIMER.c **** *  Clears the interrupt request.
1377:Generated_Source\PSoC4/TIMER.c **** *
1378:Generated_Source\PSoC4/TIMER.c **** * Parameters:
1379:Generated_Source\PSoC4/TIMER.c **** *   interruptMask: Mask of interrupts to clear
1380:Generated_Source\PSoC4/TIMER.c **** *   Values:
1381:Generated_Source\PSoC4/TIMER.c **** *     - TIMER_INTR_MASK_TC       - Terminal count mask
1382:Generated_Source\PSoC4/TIMER.c **** *     - TIMER_INTR_MASK_CC_MATCH - Compare count / capture mask
1383:Generated_Source\PSoC4/TIMER.c **** *
1384:Generated_Source\PSoC4/TIMER.c **** * Return:
1385:Generated_Source\PSoC4/TIMER.c **** *  None
1386:Generated_Source\PSoC4/TIMER.c **** *
1387:Generated_Source\PSoC4/TIMER.c **** *******************************************************************************/
1388:Generated_Source\PSoC4/TIMER.c **** void TIMER_ClearInterrupt(uint32 interruptMask)
1389:Generated_Source\PSoC4/TIMER.c **** {
 1819              		.loc 1 1389 0
 1820              		.cfi_startproc
 1821 0000 80B5     		push	{r7, lr}
 1822              		.cfi_def_cfa_offset 8
 1823              		.cfi_offset 7, -8
 1824              		.cfi_offset 14, -4
 1825 0002 82B0     		sub	sp, sp, #8
 1826              		.cfi_def_cfa_offset 16
 1827 0004 00AF     		add	r7, sp, #0
 1828              		.cfi_def_cfa_register 7
 1829 0006 7860     		str	r0, [r7, #4]
1390:Generated_Source\PSoC4/TIMER.c ****     TIMER_INTERRUPT_REQ_REG = interruptMask;
 1830              		.loc 1 1390 0
 1831 0008 024B     		ldr	r3, .L127
 1832 000a 7A68     		ldr	r2, [r7, #4]
 1833 000c 1A60     		str	r2, [r3]
1391:Generated_Source\PSoC4/TIMER.c **** }
 1834              		.loc 1 1391 0
 1835 000e BD46     		mov	sp, r7
 1836 0010 02B0     		add	sp, sp, #8
 1837              		@ sp needed
 1838 0012 80BD     		pop	{r7, pc}
 1839              	.L128:
 1840              		.align	2
 1841              	.L127:
 1842 0014 70012040 		.word	1075839344
 1843              		.cfi_endproc
 1844              	.LFE39:
 1845              		.size	TIMER_ClearInterrupt, .-TIMER_ClearInterrupt
 1846              		.section	.text.TIMER_SetInterrupt,"ax",%progbits
 1847              		.align	2
 1848              		.global	TIMER_SetInterrupt
 1849              		.code	16
 1850              		.thumb_func
 1851              		.type	TIMER_SetInterrupt, %function
 1852              	TIMER_SetInterrupt:
 1853              	.LFB40:
1392:Generated_Source\PSoC4/TIMER.c **** 
1393:Generated_Source\PSoC4/TIMER.c **** 
1394:Generated_Source\PSoC4/TIMER.c **** /*******************************************************************************
1395:Generated_Source\PSoC4/TIMER.c **** * Function Name: TIMER_SetInterrupt
ARM GAS  C:\Users\ilya\AppData\Local\Temp\ccVU2AIc.s 			page 58


1396:Generated_Source\PSoC4/TIMER.c **** ********************************************************************************
1397:Generated_Source\PSoC4/TIMER.c **** *
1398:Generated_Source\PSoC4/TIMER.c **** * Summary:
1399:Generated_Source\PSoC4/TIMER.c **** *  Sets a software interrupt request.
1400:Generated_Source\PSoC4/TIMER.c **** *
1401:Generated_Source\PSoC4/TIMER.c **** * Parameters:
1402:Generated_Source\PSoC4/TIMER.c **** *   interruptMask: Mask of interrupts to set
1403:Generated_Source\PSoC4/TIMER.c **** *   Values:
1404:Generated_Source\PSoC4/TIMER.c **** *     - TIMER_INTR_MASK_TC       - Terminal count mask
1405:Generated_Source\PSoC4/TIMER.c **** *     - TIMER_INTR_MASK_CC_MATCH - Compare count / capture mask
1406:Generated_Source\PSoC4/TIMER.c **** *
1407:Generated_Source\PSoC4/TIMER.c **** * Return:
1408:Generated_Source\PSoC4/TIMER.c **** *  None
1409:Generated_Source\PSoC4/TIMER.c **** *
1410:Generated_Source\PSoC4/TIMER.c **** *******************************************************************************/
1411:Generated_Source\PSoC4/TIMER.c **** void TIMER_SetInterrupt(uint32 interruptMask)
1412:Generated_Source\PSoC4/TIMER.c **** {
 1854              		.loc 1 1412 0
 1855              		.cfi_startproc
 1856 0000 80B5     		push	{r7, lr}
 1857              		.cfi_def_cfa_offset 8
 1858              		.cfi_offset 7, -8
 1859              		.cfi_offset 14, -4
 1860 0002 82B0     		sub	sp, sp, #8
 1861              		.cfi_def_cfa_offset 16
 1862 0004 00AF     		add	r7, sp, #0
 1863              		.cfi_def_cfa_register 7
 1864 0006 7860     		str	r0, [r7, #4]
1413:Generated_Source\PSoC4/TIMER.c ****     TIMER_INTERRUPT_SET_REG = interruptMask;
 1865              		.loc 1 1413 0
 1866 0008 024B     		ldr	r3, .L130
 1867 000a 7A68     		ldr	r2, [r7, #4]
 1868 000c 1A60     		str	r2, [r3]
1414:Generated_Source\PSoC4/TIMER.c **** }
 1869              		.loc 1 1414 0
 1870 000e BD46     		mov	sp, r7
 1871 0010 02B0     		add	sp, sp, #8
 1872              		@ sp needed
 1873 0012 80BD     		pop	{r7, pc}
 1874              	.L131:
 1875              		.align	2
 1876              	.L130:
 1877 0014 74012040 		.word	1075839348
 1878              		.cfi_endproc
 1879              	.LFE40:
 1880              		.size	TIMER_SetInterrupt, .-TIMER_SetInterrupt
 1881              		.text
 1882              	.Letext0:
 1883              		.file 2 "Generated_Source\\PSoC4\\cytypes.h"
 1884              		.section	.debug_info,"",%progbits
 1885              	.Ldebug_info0:
 1886 0000 F0060000 		.4byte	0x6f0
 1887 0004 0400     		.2byte	0x4
 1888 0006 00000000 		.4byte	.Ldebug_abbrev0
 1889 000a 04       		.byte	0x4
 1890 000b 01       		.uleb128 0x1
 1891 000c A6040000 		.4byte	.LASF76
ARM GAS  C:\Users\ilya\AppData\Local\Temp\ccVU2AIc.s 			page 59


 1892 0010 01       		.byte	0x1
 1893 0011 98000000 		.4byte	.LASF77
 1894 0015 11000000 		.4byte	.LASF78
 1895 0019 00000000 		.4byte	.Ldebug_ranges0+0
 1896 001d 00000000 		.4byte	0
 1897 0021 00000000 		.4byte	.Ldebug_line0
 1898 0025 02       		.uleb128 0x2
 1899 0026 01       		.byte	0x1
 1900 0027 06       		.byte	0x6
 1901 0028 CC000000 		.4byte	.LASF0
 1902 002c 02       		.uleb128 0x2
 1903 002d 01       		.byte	0x1
 1904 002e 08       		.byte	0x8
 1905 002f 10030000 		.4byte	.LASF1
 1906 0033 02       		.uleb128 0x2
 1907 0034 02       		.byte	0x2
 1908 0035 05       		.byte	0x5
 1909 0036 42030000 		.4byte	.LASF2
 1910 003a 02       		.uleb128 0x2
 1911 003b 02       		.byte	0x2
 1912 003c 07       		.byte	0x7
 1913 003d FF010000 		.4byte	.LASF3
 1914 0041 02       		.uleb128 0x2
 1915 0042 04       		.byte	0x4
 1916 0043 05       		.byte	0x5
 1917 0044 17010000 		.4byte	.LASF4
 1918 0048 02       		.uleb128 0x2
 1919 0049 04       		.byte	0x4
 1920 004a 07       		.byte	0x7
 1921 004b E4010000 		.4byte	.LASF5
 1922 004f 02       		.uleb128 0x2
 1923 0050 08       		.byte	0x8
 1924 0051 05       		.byte	0x5
 1925 0052 BE000000 		.4byte	.LASF6
 1926 0056 02       		.uleb128 0x2
 1927 0057 08       		.byte	0x8
 1928 0058 07       		.byte	0x7
 1929 0059 81000000 		.4byte	.LASF7
 1930 005d 03       		.uleb128 0x3
 1931 005e 04       		.byte	0x4
 1932 005f 05       		.byte	0x5
 1933 0060 696E7400 		.ascii	"int\000"
 1934 0064 02       		.uleb128 0x2
 1935 0065 04       		.byte	0x4
 1936 0066 07       		.byte	0x7
 1937 0067 CF010000 		.4byte	.LASF8
 1938 006b 04       		.uleb128 0x4
 1939 006c 32010000 		.4byte	.LASF9
 1940 0070 02       		.byte	0x2
 1941 0071 B901     		.2byte	0x1b9
 1942 0073 2C000000 		.4byte	0x2c
 1943 0077 04       		.uleb128 0x4
 1944 0078 55010000 		.4byte	.LASF10
 1945 007c 02       		.byte	0x2
 1946 007d BB01     		.2byte	0x1bb
 1947 007f 48000000 		.4byte	0x48
 1948 0083 02       		.uleb128 0x2
ARM GAS  C:\Users\ilya\AppData\Local\Temp\ccVU2AIc.s 			page 60


 1949 0084 04       		.byte	0x4
 1950 0085 04       		.byte	0x4
 1951 0086 E1020000 		.4byte	.LASF11
 1952 008a 02       		.uleb128 0x2
 1953 008b 08       		.byte	0x8
 1954 008c 04       		.byte	0x4
 1955 008d 4E010000 		.4byte	.LASF12
 1956 0091 02       		.uleb128 0x2
 1957 0092 01       		.byte	0x1
 1958 0093 08       		.byte	0x8
 1959 0094 CE030000 		.4byte	.LASF13
 1960 0098 04       		.uleb128 0x4
 1961 0099 71020000 		.4byte	.LASF14
 1962 009d 02       		.byte	0x2
 1963 009e 6502     		.2byte	0x265
 1964 00a0 A4000000 		.4byte	0xa4
 1965 00a4 05       		.uleb128 0x5
 1966 00a5 77000000 		.4byte	0x77
 1967 00a9 02       		.uleb128 0x2
 1968 00aa 04       		.byte	0x4
 1969 00ab 07       		.byte	0x7
 1970 00ac 84020000 		.4byte	.LASF15
 1971 00b0 06       		.uleb128 0x6
 1972 00b1 43020000 		.4byte	.LASF16
 1973 00b5 01       		.byte	0x1
 1974 00b6 26       		.byte	0x26
 1975 00b7 00000000 		.4byte	.LFB1
 1976 00bb 38000000 		.4byte	.LFE1-.LFB1
 1977 00bf 01       		.uleb128 0x1
 1978 00c0 9C       		.byte	0x9c
 1979 00c1 07       		.uleb128 0x7
 1980 00c2 77020000 		.4byte	.LASF18
 1981 00c6 01       		.byte	0x1
 1982 00c7 B1       		.byte	0xb1
 1983 00c8 00000000 		.4byte	.LFB2
 1984 00cc 38000000 		.4byte	.LFE2-.LFB2
 1985 00d0 01       		.uleb128 0x1
 1986 00d1 9C       		.byte	0x9c
 1987 00d2 E5000000 		.4byte	0xe5
 1988 00d6 08       		.uleb128 0x8
 1989 00d7 72040000 		.4byte	.LASF20
 1990 00db 01       		.byte	0x1
 1991 00dc B3       		.byte	0xb3
 1992 00dd 6B000000 		.4byte	0x6b
 1993 00e1 02       		.uleb128 0x2
 1994 00e2 91       		.byte	0x91
 1995 00e3 6F       		.sleb128 -17
 1996 00e4 00       		.byte	0
 1997 00e5 06       		.uleb128 0x6
 1998 00e6 C2030000 		.4byte	.LASF17
 1999 00ea 01       		.byte	0x1
 2000 00eb E6       		.byte	0xe6
 2001 00ec 00000000 		.4byte	.LFB3
 2002 00f0 24000000 		.4byte	.LFE3-.LFB3
 2003 00f4 01       		.uleb128 0x1
 2004 00f5 9C       		.byte	0x9c
 2005 00f6 09       		.uleb128 0x9
ARM GAS  C:\Users\ilya\AppData\Local\Temp\ccVU2AIc.s 			page 61


 2006 00f7 06000000 		.4byte	.LASF19
 2007 00fb 01       		.byte	0x1
 2008 00fc 0001     		.2byte	0x100
 2009 00fe 00000000 		.4byte	.LFB4
 2010 0102 30000000 		.4byte	.LFE4-.LFB4
 2011 0106 01       		.uleb128 0x1
 2012 0107 9C       		.byte	0x9c
 2013 0108 1C010000 		.4byte	0x11c
 2014 010c 0A       		.uleb128 0xa
 2015 010d 72040000 		.4byte	.LASF20
 2016 0111 01       		.byte	0x1
 2017 0112 0201     		.2byte	0x102
 2018 0114 6B000000 		.4byte	0x6b
 2019 0118 02       		.uleb128 0x2
 2020 0119 91       		.byte	0x91
 2021 011a 6F       		.sleb128 -17
 2022 011b 00       		.byte	0
 2023 011c 09       		.uleb128 0x9
 2024 011d 64040000 		.4byte	.LASF21
 2025 0121 01       		.byte	0x1
 2026 0122 2501     		.2byte	0x125
 2027 0124 00000000 		.4byte	.LFB5
 2028 0128 48000000 		.4byte	.LFE5-.LFB5
 2029 012c 01       		.uleb128 0x1
 2030 012d 9C       		.byte	0x9c
 2031 012e 51010000 		.4byte	0x151
 2032 0132 0B       		.uleb128 0xb
 2033 0133 D3030000 		.4byte	.LASF23
 2034 0137 01       		.byte	0x1
 2035 0138 2501     		.2byte	0x125
 2036 013a 77000000 		.4byte	0x77
 2037 013e 02       		.uleb128 0x2
 2038 013f 91       		.byte	0x91
 2039 0140 64       		.sleb128 -28
 2040 0141 0A       		.uleb128 0xa
 2041 0142 72040000 		.4byte	.LASF20
 2042 0146 01       		.byte	0x1
 2043 0147 2701     		.2byte	0x127
 2044 0149 6B000000 		.4byte	0x6b
 2045 014d 02       		.uleb128 0x2
 2046 014e 91       		.byte	0x91
 2047 014f 6F       		.sleb128 -17
 2048 0150 00       		.byte	0
 2049 0151 09       		.uleb128 0x9
 2050 0152 12020000 		.4byte	.LASF22
 2051 0156 01       		.byte	0x1
 2052 0157 4601     		.2byte	0x146
 2053 0159 00000000 		.4byte	.LFB6
 2054 015d 48000000 		.4byte	.LFE6-.LFB6
 2055 0161 01       		.uleb128 0x1
 2056 0162 9C       		.byte	0x9c
 2057 0163 86010000 		.4byte	0x186
 2058 0167 0B       		.uleb128 0xb
 2059 0168 B7000000 		.4byte	.LASF24
 2060 016c 01       		.byte	0x1
 2061 016d 4601     		.2byte	0x146
 2062 016f 77000000 		.4byte	0x77
ARM GAS  C:\Users\ilya\AppData\Local\Temp\ccVU2AIc.s 			page 62


 2063 0173 02       		.uleb128 0x2
 2064 0174 91       		.byte	0x91
 2065 0175 64       		.sleb128 -28
 2066 0176 0A       		.uleb128 0xa
 2067 0177 72040000 		.4byte	.LASF20
 2068 017b 01       		.byte	0x1
 2069 017c 4801     		.2byte	0x148
 2070 017e 6B000000 		.4byte	0x6b
 2071 0182 02       		.uleb128 0x2
 2072 0183 91       		.byte	0x91
 2073 0184 6F       		.sleb128 -17
 2074 0185 00       		.byte	0
 2075 0186 09       		.uleb128 0x9
 2076 0187 46040000 		.4byte	.LASF25
 2077 018b 01       		.byte	0x1
 2078 018c 6B01     		.2byte	0x16b
 2079 018e 00000000 		.4byte	.LFB7
 2080 0192 48000000 		.4byte	.LFE7-.LFB7
 2081 0196 01       		.uleb128 0x1
 2082 0197 9C       		.byte	0x9c
 2083 0198 BB010000 		.4byte	0x1bb
 2084 019c 0B       		.uleb128 0xb
 2085 019d F5020000 		.4byte	.LASF26
 2086 01a1 01       		.byte	0x1
 2087 01a2 6B01     		.2byte	0x16b
 2088 01a4 77000000 		.4byte	0x77
 2089 01a8 02       		.uleb128 0x2
 2090 01a9 91       		.byte	0x91
 2091 01aa 64       		.sleb128 -28
 2092 01ab 0A       		.uleb128 0xa
 2093 01ac 72040000 		.4byte	.LASF20
 2094 01b0 01       		.byte	0x1
 2095 01b1 6D01     		.2byte	0x16d
 2096 01b3 6B000000 		.4byte	0x6b
 2097 01b7 02       		.uleb128 0x2
 2098 01b8 91       		.byte	0x91
 2099 01b9 6F       		.sleb128 -17
 2100 01ba 00       		.byte	0
 2101 01bb 09       		.uleb128 0x9
 2102 01bc FF020000 		.4byte	.LASF27
 2103 01c0 01       		.byte	0x1
 2104 01c1 8B01     		.2byte	0x18b
 2105 01c3 00000000 		.4byte	.LFB8
 2106 01c7 4C000000 		.4byte	.LFE8-.LFB8
 2107 01cb 01       		.uleb128 0x1
 2108 01cc 9C       		.byte	0x9c
 2109 01cd F0010000 		.4byte	0x1f0
 2110 01d1 0B       		.uleb128 0xb
 2111 01d2 4E020000 		.4byte	.LASF28
 2112 01d6 01       		.byte	0x1
 2113 01d7 8B01     		.2byte	0x18b
 2114 01d9 77000000 		.4byte	0x77
 2115 01dd 02       		.uleb128 0x2
 2116 01de 91       		.byte	0x91
 2117 01df 64       		.sleb128 -28
 2118 01e0 0A       		.uleb128 0xa
 2119 01e1 72040000 		.4byte	.LASF20
ARM GAS  C:\Users\ilya\AppData\Local\Temp\ccVU2AIc.s 			page 63


 2120 01e5 01       		.byte	0x1
 2121 01e6 8D01     		.2byte	0x18d
 2122 01e8 6B000000 		.4byte	0x6b
 2123 01ec 02       		.uleb128 0x2
 2124 01ed 91       		.byte	0x91
 2125 01ee 6F       		.sleb128 -17
 2126 01ef 00       		.byte	0
 2127 01f0 0C       		.uleb128 0xc
 2128 01f1 42000000 		.4byte	.LASF29
 2129 01f5 01       		.byte	0x1
 2130 01f6 C101     		.2byte	0x1c1
 2131 01f8 00000000 		.4byte	.LFB9
 2132 01fc 1C000000 		.4byte	.LFE9-.LFB9
 2133 0200 01       		.uleb128 0x1
 2134 0201 9C       		.byte	0x9c
 2135 0202 16020000 		.4byte	0x216
 2136 0206 0B       		.uleb128 0xb
 2137 0207 F6010000 		.4byte	.LASF30
 2138 020b 01       		.byte	0x1
 2139 020c C101     		.2byte	0x1c1
 2140 020e 77000000 		.4byte	0x77
 2141 0212 02       		.uleb128 0x2
 2142 0213 91       		.byte	0x91
 2143 0214 74       		.sleb128 -12
 2144 0215 00       		.byte	0
 2145 0216 09       		.uleb128 0x9
 2146 0217 4C030000 		.4byte	.LASF31
 2147 021b 01       		.byte	0x1
 2148 021c E501     		.2byte	0x1e5
 2149 021e 00000000 		.4byte	.LFB10
 2150 0222 48000000 		.4byte	.LFE10-.LFB10
 2151 0226 01       		.uleb128 0x1
 2152 0227 9C       		.byte	0x9c
 2153 0228 4B020000 		.4byte	0x24b
 2154 022c 0B       		.uleb128 0xb
 2155 022d 8D020000 		.4byte	.LASF32
 2156 0231 01       		.byte	0x1
 2157 0232 E501     		.2byte	0x1e5
 2158 0234 77000000 		.4byte	0x77
 2159 0238 02       		.uleb128 0x2
 2160 0239 91       		.byte	0x91
 2161 023a 64       		.sleb128 -28
 2162 023b 0A       		.uleb128 0xa
 2163 023c 72040000 		.4byte	.LASF20
 2164 0240 01       		.byte	0x1
 2165 0241 E701     		.2byte	0x1e7
 2166 0243 6B000000 		.4byte	0x6b
 2167 0247 02       		.uleb128 0x2
 2168 0248 91       		.byte	0x91
 2169 0249 6F       		.sleb128 -17
 2170 024a 00       		.byte	0
 2171 024b 09       		.uleb128 0x9
 2172 024c D8000000 		.4byte	.LASF33
 2173 0250 01       		.byte	0x1
 2174 0251 0702     		.2byte	0x207
 2175 0253 00000000 		.4byte	.LFB11
 2176 0257 48000000 		.4byte	.LFE11-.LFB11
ARM GAS  C:\Users\ilya\AppData\Local\Temp\ccVU2AIc.s 			page 64


 2177 025b 01       		.uleb128 0x1
 2178 025c 9C       		.byte	0x9c
 2179 025d 80020000 		.4byte	0x280
 2180 0261 0B       		.uleb128 0xb
 2181 0262 1E030000 		.4byte	.LASF34
 2182 0266 01       		.byte	0x1
 2183 0267 0702     		.2byte	0x207
 2184 0269 77000000 		.4byte	0x77
 2185 026d 02       		.uleb128 0x2
 2186 026e 91       		.byte	0x91
 2187 026f 64       		.sleb128 -28
 2188 0270 0A       		.uleb128 0xa
 2189 0271 72040000 		.4byte	.LASF20
 2190 0275 01       		.byte	0x1
 2191 0276 0902     		.2byte	0x209
 2192 0278 6B000000 		.4byte	0x6b
 2193 027c 02       		.uleb128 0x2
 2194 027d 91       		.byte	0x91
 2195 027e 6F       		.sleb128 -17
 2196 027f 00       		.byte	0
 2197 0280 09       		.uleb128 0x9
 2198 0281 48050000 		.4byte	.LASF35
 2199 0285 01       		.byte	0x1
 2200 0286 2802     		.2byte	0x228
 2201 0288 00000000 		.4byte	.LFB12
 2202 028c 4C000000 		.4byte	.LFE12-.LFB12
 2203 0290 01       		.uleb128 0x1
 2204 0291 9C       		.byte	0x9c
 2205 0292 B5020000 		.4byte	0x2b5
 2206 0296 0B       		.uleb128 0xb
 2207 0297 7F010000 		.4byte	.LASF36
 2208 029b 01       		.byte	0x1
 2209 029c 2802     		.2byte	0x228
 2210 029e 77000000 		.4byte	0x77
 2211 02a2 02       		.uleb128 0x2
 2212 02a3 91       		.byte	0x91
 2213 02a4 64       		.sleb128 -28
 2214 02a5 0A       		.uleb128 0xa
 2215 02a6 72040000 		.4byte	.LASF20
 2216 02aa 01       		.byte	0x1
 2217 02ab 2A02     		.2byte	0x22a
 2218 02ad 6B000000 		.4byte	0x6b
 2219 02b1 02       		.uleb128 0x2
 2220 02b2 91       		.byte	0x91
 2221 02b3 6F       		.sleb128 -17
 2222 02b4 00       		.byte	0
 2223 02b5 09       		.uleb128 0x9
 2224 02b6 2F030000 		.4byte	.LASF37
 2225 02ba 01       		.byte	0x1
 2226 02bb 4902     		.2byte	0x249
 2227 02bd 00000000 		.4byte	.LFB13
 2228 02c1 48000000 		.4byte	.LFE13-.LFB13
 2229 02c5 01       		.uleb128 0x1
 2230 02c6 9C       		.byte	0x9c
 2231 02c7 EA020000 		.4byte	0x2ea
 2232 02cb 0B       		.uleb128 0xb
 2233 02cc 68010000 		.4byte	.LASF38
ARM GAS  C:\Users\ilya\AppData\Local\Temp\ccVU2AIc.s 			page 65


 2234 02d0 01       		.byte	0x1
 2235 02d1 4902     		.2byte	0x249
 2236 02d3 77000000 		.4byte	0x77
 2237 02d7 02       		.uleb128 0x2
 2238 02d8 91       		.byte	0x91
 2239 02d9 64       		.sleb128 -28
 2240 02da 0A       		.uleb128 0xa
 2241 02db 72040000 		.4byte	.LASF20
 2242 02df 01       		.byte	0x1
 2243 02e0 4B02     		.2byte	0x24b
 2244 02e2 6B000000 		.4byte	0x6b
 2245 02e6 02       		.uleb128 0x2
 2246 02e7 91       		.byte	0x91
 2247 02e8 6F       		.sleb128 -17
 2248 02e9 00       		.byte	0
 2249 02ea 0C       		.uleb128 0xc
 2250 02eb 9C020000 		.4byte	.LASF39
 2251 02ef 01       		.byte	0x1
 2252 02f0 6702     		.2byte	0x267
 2253 02f2 00000000 		.4byte	.LFB14
 2254 02f6 1C000000 		.4byte	.LFE14-.LFB14
 2255 02fa 01       		.uleb128 0x1
 2256 02fb 9C       		.byte	0x9c
 2257 02fc 10030000 		.4byte	0x310
 2258 0300 0B       		.uleb128 0xb
 2259 0301 00000000 		.4byte	.LASF40
 2260 0305 01       		.byte	0x1
 2261 0306 6702     		.2byte	0x267
 2262 0308 77000000 		.4byte	0x77
 2263 030c 02       		.uleb128 0x2
 2264 030d 91       		.byte	0x91
 2265 030e 74       		.sleb128 -12
 2266 030f 00       		.byte	0
 2267 0310 0D       		.uleb128 0xd
 2268 0311 B0030000 		.4byte	.LASF45
 2269 0315 01       		.byte	0x1
 2270 0316 7B02     		.2byte	0x27b
 2271 0318 77000000 		.4byte	0x77
 2272 031c 00000000 		.4byte	.LFB15
 2273 0320 18000000 		.4byte	.LFE15-.LFB15
 2274 0324 01       		.uleb128 0x1
 2275 0325 9C       		.byte	0x9c
 2276 0326 09       		.uleb128 0x9
 2277 0327 BA010000 		.4byte	.LASF41
 2278 032b 01       		.byte	0x1
 2279 032c 9802     		.2byte	0x298
 2280 032e 00000000 		.4byte	.LFB16
 2281 0332 48000000 		.4byte	.LFE16-.LFB16
 2282 0336 01       		.uleb128 0x1
 2283 0337 9C       		.byte	0x9c
 2284 0338 5B030000 		.4byte	0x35b
 2285 033c 0B       		.uleb128 0xb
 2286 033d 16040000 		.4byte	.LASF42
 2287 0341 01       		.byte	0x1
 2288 0342 9802     		.2byte	0x298
 2289 0344 77000000 		.4byte	0x77
 2290 0348 02       		.uleb128 0x2
ARM GAS  C:\Users\ilya\AppData\Local\Temp\ccVU2AIc.s 			page 66


 2291 0349 91       		.byte	0x91
 2292 034a 64       		.sleb128 -28
 2293 034b 0A       		.uleb128 0xa
 2294 034c 72040000 		.4byte	.LASF20
 2295 0350 01       		.byte	0x1
 2296 0351 9A02     		.2byte	0x29a
 2297 0353 6B000000 		.4byte	0x6b
 2298 0357 02       		.uleb128 0x2
 2299 0358 91       		.byte	0x91
 2300 0359 6F       		.sleb128 -17
 2301 035a 00       		.byte	0
 2302 035b 0C       		.uleb128 0xc
 2303 035c 53000000 		.4byte	.LASF43
 2304 0360 01       		.byte	0x1
 2305 0361 B502     		.2byte	0x2b5
 2306 0363 00000000 		.4byte	.LFB17
 2307 0367 1C000000 		.4byte	.LFE17-.LFB17
 2308 036b 01       		.uleb128 0x1
 2309 036c 9C       		.byte	0x9c
 2310 036d 81030000 		.4byte	0x381
 2311 0371 0B       		.uleb128 0xb
 2312 0372 65000000 		.4byte	.LASF44
 2313 0376 01       		.byte	0x1
 2314 0377 B502     		.2byte	0x2b5
 2315 0379 77000000 		.4byte	0x77
 2316 037d 02       		.uleb128 0x2
 2317 037e 91       		.byte	0x91
 2318 037f 74       		.sleb128 -12
 2319 0380 00       		.byte	0
 2320 0381 0D       		.uleb128 0xd
 2321 0382 83040000 		.4byte	.LASF46
 2322 0386 01       		.byte	0x1
 2323 0387 C902     		.2byte	0x2c9
 2324 0389 77000000 		.4byte	0x77
 2325 038d 00000000 		.4byte	.LFB18
 2326 0391 18000000 		.4byte	.LFE18-.LFB18
 2327 0395 01       		.uleb128 0x1
 2328 0396 9C       		.byte	0x9c
 2329 0397 09       		.uleb128 0x9
 2330 0398 CC020000 		.4byte	.LASF47
 2331 039c 01       		.byte	0x1
 2332 039d E302     		.2byte	0x2e3
 2333 039f 00000000 		.4byte	.LFB19
 2334 03a3 48000000 		.4byte	.LFE19-.LFB19
 2335 03a7 01       		.uleb128 0x1
 2336 03a8 9C       		.byte	0x9c
 2337 03a9 CC030000 		.4byte	0x3cc
 2338 03ad 0B       		.uleb128 0xb
 2339 03ae 22040000 		.4byte	.LASF48
 2340 03b2 01       		.byte	0x1
 2341 03b3 E302     		.2byte	0x2e3
 2342 03b5 77000000 		.4byte	0x77
 2343 03b9 02       		.uleb128 0x2
 2344 03ba 91       		.byte	0x91
 2345 03bb 64       		.sleb128 -28
 2346 03bc 0A       		.uleb128 0xa
 2347 03bd 72040000 		.4byte	.LASF20
ARM GAS  C:\Users\ilya\AppData\Local\Temp\ccVU2AIc.s 			page 67


 2348 03c1 01       		.byte	0x1
 2349 03c2 E502     		.2byte	0x2e5
 2350 03c4 6B000000 		.4byte	0x6b
 2351 03c8 02       		.uleb128 0x2
 2352 03c9 91       		.byte	0x91
 2353 03ca 6F       		.sleb128 -17
 2354 03cb 00       		.byte	0
 2355 03cc 0C       		.uleb128 0xc
 2356 03cd 6C000000 		.4byte	.LASF49
 2357 03d1 01       		.byte	0x1
 2358 03d2 FE02     		.2byte	0x2fe
 2359 03d4 00000000 		.4byte	.LFB20
 2360 03d8 1C000000 		.4byte	.LFE20-.LFB20
 2361 03dc 01       		.uleb128 0x1
 2362 03dd 9C       		.byte	0x9c
 2363 03de F2030000 		.4byte	0x3f2
 2364 03e2 0B       		.uleb128 0xb
 2365 03e3 5D050000 		.4byte	.LASF50
 2366 03e7 01       		.byte	0x1
 2367 03e8 FE02     		.2byte	0x2fe
 2368 03ea 77000000 		.4byte	0x77
 2369 03ee 02       		.uleb128 0x2
 2370 03ef 91       		.byte	0x91
 2371 03f0 74       		.sleb128 -12
 2372 03f1 00       		.byte	0
 2373 03f2 0D       		.uleb128 0xd
 2374 03f3 9C030000 		.4byte	.LASF51
 2375 03f7 01       		.byte	0x1
 2376 03f8 1203     		.2byte	0x312
 2377 03fa 77000000 		.4byte	0x77
 2378 03fe 00000000 		.4byte	.LFB21
 2379 0402 18000000 		.4byte	.LFE21-.LFB21
 2380 0406 01       		.uleb128 0x1
 2381 0407 9C       		.byte	0x9c
 2382 0408 09       		.uleb128 0x9
 2383 0409 ED030000 		.4byte	.LASF52
 2384 040d 01       		.byte	0x1
 2385 040e 2C03     		.2byte	0x32c
 2386 0410 00000000 		.4byte	.LFB22
 2387 0414 48000000 		.4byte	.LFE22-.LFB22
 2388 0418 01       		.uleb128 0x1
 2389 0419 9C       		.byte	0x9c
 2390 041a 3D040000 		.4byte	0x43d
 2391 041e 0B       		.uleb128 0xb
 2392 041f 22040000 		.4byte	.LASF48
 2393 0423 01       		.byte	0x1
 2394 0424 2C03     		.2byte	0x32c
 2395 0426 77000000 		.4byte	0x77
 2396 042a 02       		.uleb128 0x2
 2397 042b 91       		.byte	0x91
 2398 042c 64       		.sleb128 -28
 2399 042d 0A       		.uleb128 0xa
 2400 042e 72040000 		.4byte	.LASF20
 2401 0432 01       		.byte	0x1
 2402 0433 2E03     		.2byte	0x32e
 2403 0435 6B000000 		.4byte	0x6b
 2404 0439 02       		.uleb128 0x2
ARM GAS  C:\Users\ilya\AppData\Local\Temp\ccVU2AIc.s 			page 68


 2405 043a 91       		.byte	0x91
 2406 043b 6F       		.sleb128 -17
 2407 043c 00       		.byte	0
 2408 043d 0C       		.uleb128 0xc
 2409 043e 22020000 		.4byte	.LASF53
 2410 0442 01       		.byte	0x1
 2411 0443 5103     		.2byte	0x351
 2412 0445 00000000 		.4byte	.LFB23
 2413 0449 1C000000 		.4byte	.LFE23-.LFB23
 2414 044d 01       		.uleb128 0x1
 2415 044e 9C       		.byte	0x9c
 2416 044f 63040000 		.4byte	0x463
 2417 0453 0B       		.uleb128 0xb
 2418 0454 AF020000 		.4byte	.LASF54
 2419 0458 01       		.byte	0x1
 2420 0459 5103     		.2byte	0x351
 2421 045b 77000000 		.4byte	0x77
 2422 045f 02       		.uleb128 0x2
 2423 0460 91       		.byte	0x91
 2424 0461 74       		.sleb128 -12
 2425 0462 00       		.byte	0
 2426 0463 0D       		.uleb128 0xd
 2427 0464 6D010000 		.4byte	.LASF55
 2428 0468 01       		.byte	0x1
 2429 0469 8403     		.2byte	0x384
 2430 046b 77000000 		.4byte	0x77
 2431 046f 00000000 		.4byte	.LFB24
 2432 0473 18000000 		.4byte	.LFE24-.LFB24
 2433 0477 01       		.uleb128 0x1
 2434 0478 9C       		.byte	0x9c
 2435 0479 0C       		.uleb128 0xc
 2436 047a 38010000 		.4byte	.LASF56
 2437 047e 01       		.byte	0x1
 2438 047f BA03     		.2byte	0x3ba
 2439 0481 00000000 		.4byte	.LFB25
 2440 0485 1C000000 		.4byte	.LFE25-.LFB25
 2441 0489 01       		.uleb128 0x1
 2442 048a 9C       		.byte	0x9c
 2443 048b 9F040000 		.4byte	0x49f
 2444 048f 0B       		.uleb128 0xb
 2445 0490 59040000 		.4byte	.LASF57
 2446 0494 01       		.byte	0x1
 2447 0495 BA03     		.2byte	0x3ba
 2448 0497 77000000 		.4byte	0x77
 2449 049b 02       		.uleb128 0x2
 2450 049c 91       		.byte	0x91
 2451 049d 74       		.sleb128 -12
 2452 049e 00       		.byte	0
 2453 049f 0D       		.uleb128 0xd
 2454 04a0 B7020000 		.4byte	.LASF58
 2455 04a4 01       		.byte	0x1
 2456 04a5 E803     		.2byte	0x3e8
 2457 04a7 77000000 		.4byte	0x77
 2458 04ab 00000000 		.4byte	.LFB26
 2459 04af 18000000 		.4byte	.LFE26-.LFB26
 2460 04b3 01       		.uleb128 0x1
 2461 04b4 9C       		.byte	0x9c
ARM GAS  C:\Users\ilya\AppData\Local\Temp\ccVU2AIc.s 			page 69


 2462 04b5 0D       		.uleb128 0xd
 2463 04b6 20010000 		.4byte	.LASF59
 2464 04ba 01       		.byte	0x1
 2465 04bb 1604     		.2byte	0x416
 2466 04bd 77000000 		.4byte	0x77
 2467 04c1 00000000 		.4byte	.LFB27
 2468 04c5 18000000 		.4byte	.LFE27-.LFB27
 2469 04c9 01       		.uleb128 0x1
 2470 04ca 9C       		.byte	0x9c
 2471 04cb 0D       		.uleb128 0xd
 2472 04cc 02010000 		.4byte	.LASF60
 2473 04d0 01       		.byte	0x1
 2474 04d1 2B04     		.2byte	0x42b
 2475 04d3 77000000 		.4byte	0x77
 2476 04d7 00000000 		.4byte	.LFB28
 2477 04db 18000000 		.4byte	.LFE28-.LFB28
 2478 04df 01       		.uleb128 0x1
 2479 04e0 9C       		.byte	0x9c
 2480 04e1 09       		.uleb128 0x9
 2481 04e2 5C020000 		.4byte	.LASF61
 2482 04e6 01       		.byte	0x1
 2483 04e7 4604     		.2byte	0x446
 2484 04e9 00000000 		.4byte	.LFB29
 2485 04ed 44000000 		.4byte	.LFE29-.LFB29
 2486 04f1 01       		.uleb128 0x1
 2487 04f2 9C       		.byte	0x9c
 2488 04f3 16050000 		.4byte	0x516
 2489 04f7 0B       		.uleb128 0xb
 2490 04f8 5C010000 		.4byte	.LASF62
 2491 04fc 01       		.byte	0x1
 2492 04fd 4604     		.2byte	0x446
 2493 04ff 77000000 		.4byte	0x77
 2494 0503 02       		.uleb128 0x2
 2495 0504 91       		.byte	0x91
 2496 0505 64       		.sleb128 -28
 2497 0506 0A       		.uleb128 0xa
 2498 0507 72040000 		.4byte	.LASF20
 2499 050b 01       		.byte	0x1
 2500 050c 4804     		.2byte	0x448
 2501 050e 6B000000 		.4byte	0x6b
 2502 0512 02       		.uleb128 0x2
 2503 0513 91       		.byte	0x91
 2504 0514 6F       		.sleb128 -17
 2505 0515 00       		.byte	0
 2506 0516 09       		.uleb128 0x9
 2507 0517 34050000 		.4byte	.LASF63
 2508 051b 01       		.byte	0x1
 2509 051c 6704     		.2byte	0x467
 2510 051e 00000000 		.4byte	.LFB30
 2511 0522 44000000 		.4byte	.LFE30-.LFB30
 2512 0526 01       		.uleb128 0x1
 2513 0527 9C       		.byte	0x9c
 2514 0528 4B050000 		.4byte	0x54b
 2515 052c 0B       		.uleb128 0xb
 2516 052d 5C010000 		.4byte	.LASF62
 2517 0531 01       		.byte	0x1
 2518 0532 6704     		.2byte	0x467
ARM GAS  C:\Users\ilya\AppData\Local\Temp\ccVU2AIc.s 			page 70


 2519 0534 77000000 		.4byte	0x77
 2520 0538 02       		.uleb128 0x2
 2521 0539 91       		.byte	0x91
 2522 053a 64       		.sleb128 -28
 2523 053b 0A       		.uleb128 0xa
 2524 053c 72040000 		.4byte	.LASF20
 2525 0540 01       		.byte	0x1
 2526 0541 6904     		.2byte	0x469
 2527 0543 6B000000 		.4byte	0x6b
 2528 0547 02       		.uleb128 0x2
 2529 0548 91       		.byte	0x91
 2530 0549 6F       		.sleb128 -17
 2531 054a 00       		.byte	0
 2532 054b 09       		.uleb128 0x9
 2533 054c 72030000 		.4byte	.LASF64
 2534 0550 01       		.byte	0x1
 2535 0551 8804     		.2byte	0x488
 2536 0553 00000000 		.4byte	.LFB31
 2537 0557 48000000 		.4byte	.LFE31-.LFB31
 2538 055b 01       		.uleb128 0x1
 2539 055c 9C       		.byte	0x9c
 2540 055d 80050000 		.4byte	0x580
 2541 0561 0B       		.uleb128 0xb
 2542 0562 5C010000 		.4byte	.LASF62
 2543 0566 01       		.byte	0x1
 2544 0567 8804     		.2byte	0x488
 2545 0569 77000000 		.4byte	0x77
 2546 056d 02       		.uleb128 0x2
 2547 056e 91       		.byte	0x91
 2548 056f 64       		.sleb128 -28
 2549 0570 0A       		.uleb128 0xa
 2550 0571 72040000 		.4byte	.LASF20
 2551 0575 01       		.byte	0x1
 2552 0576 8A04     		.2byte	0x48a
 2553 0578 6B000000 		.4byte	0x6b
 2554 057c 02       		.uleb128 0x2
 2555 057d 91       		.byte	0x91
 2556 057e 6F       		.sleb128 -17
 2557 057f 00       		.byte	0
 2558 0580 09       		.uleb128 0x9
 2559 0581 94040000 		.4byte	.LASF65
 2560 0585 01       		.byte	0x1
 2561 0586 A804     		.2byte	0x4a8
 2562 0588 00000000 		.4byte	.LFB32
 2563 058c 44000000 		.4byte	.LFE32-.LFB32
 2564 0590 01       		.uleb128 0x1
 2565 0591 9C       		.byte	0x9c
 2566 0592 B5050000 		.4byte	0x5b5
 2567 0596 0B       		.uleb128 0xb
 2568 0597 5C010000 		.4byte	.LASF62
 2569 059b 01       		.byte	0x1
 2570 059c A804     		.2byte	0x4a8
 2571 059e 77000000 		.4byte	0x77
 2572 05a2 02       		.uleb128 0x2
 2573 05a3 91       		.byte	0x91
 2574 05a4 64       		.sleb128 -28
 2575 05a5 0A       		.uleb128 0xa
ARM GAS  C:\Users\ilya\AppData\Local\Temp\ccVU2AIc.s 			page 71


 2576 05a6 72040000 		.4byte	.LASF20
 2577 05aa 01       		.byte	0x1
 2578 05ab AA04     		.2byte	0x4aa
 2579 05ad 6B000000 		.4byte	0x6b
 2580 05b1 02       		.uleb128 0x2
 2581 05b2 91       		.byte	0x91
 2582 05b3 6F       		.sleb128 -17
 2583 05b4 00       		.byte	0
 2584 05b5 09       		.uleb128 0x9
 2585 05b6 88010000 		.4byte	.LASF66
 2586 05ba 01       		.byte	0x1
 2587 05bb C904     		.2byte	0x4c9
 2588 05bd 00000000 		.4byte	.LFB33
 2589 05c1 44000000 		.4byte	.LFE33-.LFB33
 2590 05c5 01       		.uleb128 0x1
 2591 05c6 9C       		.byte	0x9c
 2592 05c7 EA050000 		.4byte	0x5ea
 2593 05cb 0B       		.uleb128 0xb
 2594 05cc 5C010000 		.4byte	.LASF62
 2595 05d0 01       		.byte	0x1
 2596 05d1 C904     		.2byte	0x4c9
 2597 05d3 77000000 		.4byte	0x77
 2598 05d7 02       		.uleb128 0x2
 2599 05d8 91       		.byte	0x91
 2600 05d9 64       		.sleb128 -28
 2601 05da 0A       		.uleb128 0xa
 2602 05db 72040000 		.4byte	.LASF20
 2603 05df 01       		.byte	0x1
 2604 05e0 CB04     		.2byte	0x4cb
 2605 05e2 6B000000 		.4byte	0x6b
 2606 05e6 02       		.uleb128 0x2
 2607 05e7 91       		.byte	0x91
 2608 05e8 6F       		.sleb128 -17
 2609 05e9 00       		.byte	0
 2610 05ea 09       		.uleb128 0x9
 2611 05eb D8030000 		.4byte	.LASF67
 2612 05ef 01       		.byte	0x1
 2613 05f0 F104     		.2byte	0x4f1
 2614 05f2 00000000 		.4byte	.LFB34
 2615 05f6 38000000 		.4byte	.LFE34-.LFB34
 2616 05fa 01       		.uleb128 0x1
 2617 05fb 9C       		.byte	0x9c
 2618 05fc 2E060000 		.4byte	0x62e
 2619 0600 0B       		.uleb128 0xb
 2620 0601 68010000 		.4byte	.LASF38
 2621 0605 01       		.byte	0x1
 2622 0606 F104     		.2byte	0x4f1
 2623 0608 77000000 		.4byte	0x77
 2624 060c 02       		.uleb128 0x2
 2625 060d 91       		.byte	0x91
 2626 060e 64       		.sleb128 -28
 2627 060f 0B       		.uleb128 0xb
 2628 0610 DC010000 		.4byte	.LASF68
 2629 0614 01       		.byte	0x1
 2630 0615 F104     		.2byte	0x4f1
 2631 0617 77000000 		.4byte	0x77
 2632 061b 02       		.uleb128 0x2
ARM GAS  C:\Users\ilya\AppData\Local\Temp\ccVU2AIc.s 			page 72


 2633 061c 91       		.byte	0x91
 2634 061d 60       		.sleb128 -32
 2635 061e 0A       		.uleb128 0xa
 2636 061f 72040000 		.4byte	.LASF20
 2637 0623 01       		.byte	0x1
 2638 0624 F304     		.2byte	0x4f3
 2639 0626 6B000000 		.4byte	0x6b
 2640 062a 02       		.uleb128 0x2
 2641 062b 91       		.byte	0x91
 2642 062c 6F       		.sleb128 -17
 2643 062d 00       		.byte	0
 2644 062e 0D       		.uleb128 0xd
 2645 062f 61030000 		.4byte	.LASF69
 2646 0633 01       		.byte	0x1
 2647 0634 0E05     		.2byte	0x50e
 2648 0636 77000000 		.4byte	0x77
 2649 063a 00000000 		.4byte	.LFB35
 2650 063e 20000000 		.4byte	.LFE35-.LFB35
 2651 0642 01       		.uleb128 0x1
 2652 0643 9C       		.byte	0x9c
 2653 0644 0C       		.uleb128 0xc
 2654 0645 85030000 		.4byte	.LASF70
 2655 0649 01       		.byte	0x1
 2656 064a 2705     		.2byte	0x527
 2657 064c 00000000 		.4byte	.LFB36
 2658 0650 18000000 		.4byte	.LFE36-.LFB36
 2659 0654 01       		.uleb128 0x1
 2660 0655 9C       		.byte	0x9c
 2661 0656 6A060000 		.4byte	0x66a
 2662 065a 0B       		.uleb128 0xb
 2663 065b E7020000 		.4byte	.LASF71
 2664 065f 01       		.byte	0x1
 2665 0660 2705     		.2byte	0x527
 2666 0662 77000000 		.4byte	0x77
 2667 0666 02       		.uleb128 0x2
 2668 0667 91       		.byte	0x91
 2669 0668 74       		.sleb128 -12
 2670 0669 00       		.byte	0
 2671 066a 0D       		.uleb128 0xd
 2672 066b 9B010000 		.4byte	.LASF72
 2673 066f 01       		.byte	0x1
 2674 0670 3E05     		.2byte	0x53e
 2675 0672 77000000 		.4byte	0x77
 2676 0676 00000000 		.4byte	.LFB37
 2677 067a 14000000 		.4byte	.LFE37-.LFB37
 2678 067e 01       		.uleb128 0x1
 2679 067f 9C       		.byte	0x9c
 2680 0680 0D       		.uleb128 0xd
 2681 0681 2D040000 		.4byte	.LASF73
 2682 0685 01       		.byte	0x1
 2683 0686 5505     		.2byte	0x555
 2684 0688 77000000 		.4byte	0x77
 2685 068c 00000000 		.4byte	.LFB38
 2686 0690 14000000 		.4byte	.LFE38-.LFB38
 2687 0694 01       		.uleb128 0x1
 2688 0695 9C       		.byte	0x9c
 2689 0696 0C       		.uleb128 0xc
ARM GAS  C:\Users\ilya\AppData\Local\Temp\ccVU2AIc.s 			page 73


 2690 0697 01040000 		.4byte	.LASF74
 2691 069b 01       		.byte	0x1
 2692 069c 6C05     		.2byte	0x56c
 2693 069e 00000000 		.4byte	.LFB39
 2694 06a2 18000000 		.4byte	.LFE39-.LFB39
 2695 06a6 01       		.uleb128 0x1
 2696 06a7 9C       		.byte	0x9c
 2697 06a8 BC060000 		.4byte	0x6bc
 2698 06ac 0B       		.uleb128 0xb
 2699 06ad E7020000 		.4byte	.LASF71
 2700 06b1 01       		.byte	0x1
 2701 06b2 6C05     		.2byte	0x56c
 2702 06b4 77000000 		.4byte	0x77
 2703 06b8 02       		.uleb128 0x2
 2704 06b9 91       		.byte	0x91
 2705 06ba 74       		.sleb128 -12
 2706 06bb 00       		.byte	0
 2707 06bc 0C       		.uleb128 0xc
 2708 06bd EF000000 		.4byte	.LASF75
 2709 06c1 01       		.byte	0x1
 2710 06c2 8305     		.2byte	0x583
 2711 06c4 00000000 		.4byte	.LFB40
 2712 06c8 18000000 		.4byte	.LFE40-.LFB40
 2713 06cc 01       		.uleb128 0x1
 2714 06cd 9C       		.byte	0x9c
 2715 06ce E2060000 		.4byte	0x6e2
 2716 06d2 0B       		.uleb128 0xb
 2717 06d3 E7020000 		.4byte	.LASF71
 2718 06d7 01       		.byte	0x1
 2719 06d8 8305     		.2byte	0x583
 2720 06da 77000000 		.4byte	0x77
 2721 06de 02       		.uleb128 0x2
 2722 06df 91       		.byte	0x91
 2723 06e0 74       		.sleb128 -12
 2724 06e1 00       		.byte	0
 2725 06e2 0E       		.uleb128 0xe
 2726 06e3 35020000 		.4byte	.LASF79
 2727 06e7 01       		.byte	0x1
 2728 06e8 15       		.byte	0x15
 2729 06e9 6B000000 		.4byte	0x6b
 2730 06ed 05       		.uleb128 0x5
 2731 06ee 03       		.byte	0x3
 2732 06ef 00000000 		.4byte	TIMER_initVar
 2733 06f3 00       		.byte	0
 2734              		.section	.debug_abbrev,"",%progbits
 2735              	.Ldebug_abbrev0:
 2736 0000 01       		.uleb128 0x1
 2737 0001 11       		.uleb128 0x11
 2738 0002 01       		.byte	0x1
 2739 0003 25       		.uleb128 0x25
 2740 0004 0E       		.uleb128 0xe
 2741 0005 13       		.uleb128 0x13
 2742 0006 0B       		.uleb128 0xb
 2743 0007 03       		.uleb128 0x3
 2744 0008 0E       		.uleb128 0xe
 2745 0009 1B       		.uleb128 0x1b
 2746 000a 0E       		.uleb128 0xe
ARM GAS  C:\Users\ilya\AppData\Local\Temp\ccVU2AIc.s 			page 74


 2747 000b 55       		.uleb128 0x55
 2748 000c 17       		.uleb128 0x17
 2749 000d 11       		.uleb128 0x11
 2750 000e 01       		.uleb128 0x1
 2751 000f 10       		.uleb128 0x10
 2752 0010 17       		.uleb128 0x17
 2753 0011 00       		.byte	0
 2754 0012 00       		.byte	0
 2755 0013 02       		.uleb128 0x2
 2756 0014 24       		.uleb128 0x24
 2757 0015 00       		.byte	0
 2758 0016 0B       		.uleb128 0xb
 2759 0017 0B       		.uleb128 0xb
 2760 0018 3E       		.uleb128 0x3e
 2761 0019 0B       		.uleb128 0xb
 2762 001a 03       		.uleb128 0x3
 2763 001b 0E       		.uleb128 0xe
 2764 001c 00       		.byte	0
 2765 001d 00       		.byte	0
 2766 001e 03       		.uleb128 0x3
 2767 001f 24       		.uleb128 0x24
 2768 0020 00       		.byte	0
 2769 0021 0B       		.uleb128 0xb
 2770 0022 0B       		.uleb128 0xb
 2771 0023 3E       		.uleb128 0x3e
 2772 0024 0B       		.uleb128 0xb
 2773 0025 03       		.uleb128 0x3
 2774 0026 08       		.uleb128 0x8
 2775 0027 00       		.byte	0
 2776 0028 00       		.byte	0
 2777 0029 04       		.uleb128 0x4
 2778 002a 16       		.uleb128 0x16
 2779 002b 00       		.byte	0
 2780 002c 03       		.uleb128 0x3
 2781 002d 0E       		.uleb128 0xe
 2782 002e 3A       		.uleb128 0x3a
 2783 002f 0B       		.uleb128 0xb
 2784 0030 3B       		.uleb128 0x3b
 2785 0031 05       		.uleb128 0x5
 2786 0032 49       		.uleb128 0x49
 2787 0033 13       		.uleb128 0x13
 2788 0034 00       		.byte	0
 2789 0035 00       		.byte	0
 2790 0036 05       		.uleb128 0x5
 2791 0037 35       		.uleb128 0x35
 2792 0038 00       		.byte	0
 2793 0039 49       		.uleb128 0x49
 2794 003a 13       		.uleb128 0x13
 2795 003b 00       		.byte	0
 2796 003c 00       		.byte	0
 2797 003d 06       		.uleb128 0x6
 2798 003e 2E       		.uleb128 0x2e
 2799 003f 00       		.byte	0
 2800 0040 3F       		.uleb128 0x3f
 2801 0041 19       		.uleb128 0x19
 2802 0042 03       		.uleb128 0x3
 2803 0043 0E       		.uleb128 0xe
ARM GAS  C:\Users\ilya\AppData\Local\Temp\ccVU2AIc.s 			page 75


 2804 0044 3A       		.uleb128 0x3a
 2805 0045 0B       		.uleb128 0xb
 2806 0046 3B       		.uleb128 0x3b
 2807 0047 0B       		.uleb128 0xb
 2808 0048 27       		.uleb128 0x27
 2809 0049 19       		.uleb128 0x19
 2810 004a 11       		.uleb128 0x11
 2811 004b 01       		.uleb128 0x1
 2812 004c 12       		.uleb128 0x12
 2813 004d 06       		.uleb128 0x6
 2814 004e 40       		.uleb128 0x40
 2815 004f 18       		.uleb128 0x18
 2816 0050 9642     		.uleb128 0x2116
 2817 0052 19       		.uleb128 0x19
 2818 0053 00       		.byte	0
 2819 0054 00       		.byte	0
 2820 0055 07       		.uleb128 0x7
 2821 0056 2E       		.uleb128 0x2e
 2822 0057 01       		.byte	0x1
 2823 0058 3F       		.uleb128 0x3f
 2824 0059 19       		.uleb128 0x19
 2825 005a 03       		.uleb128 0x3
 2826 005b 0E       		.uleb128 0xe
 2827 005c 3A       		.uleb128 0x3a
 2828 005d 0B       		.uleb128 0xb
 2829 005e 3B       		.uleb128 0x3b
 2830 005f 0B       		.uleb128 0xb
 2831 0060 27       		.uleb128 0x27
 2832 0061 19       		.uleb128 0x19
 2833 0062 11       		.uleb128 0x11
 2834 0063 01       		.uleb128 0x1
 2835 0064 12       		.uleb128 0x12
 2836 0065 06       		.uleb128 0x6
 2837 0066 40       		.uleb128 0x40
 2838 0067 18       		.uleb128 0x18
 2839 0068 9642     		.uleb128 0x2116
 2840 006a 19       		.uleb128 0x19
 2841 006b 01       		.uleb128 0x1
 2842 006c 13       		.uleb128 0x13
 2843 006d 00       		.byte	0
 2844 006e 00       		.byte	0
 2845 006f 08       		.uleb128 0x8
 2846 0070 34       		.uleb128 0x34
 2847 0071 00       		.byte	0
 2848 0072 03       		.uleb128 0x3
 2849 0073 0E       		.uleb128 0xe
 2850 0074 3A       		.uleb128 0x3a
 2851 0075 0B       		.uleb128 0xb
 2852 0076 3B       		.uleb128 0x3b
 2853 0077 0B       		.uleb128 0xb
 2854 0078 49       		.uleb128 0x49
 2855 0079 13       		.uleb128 0x13
 2856 007a 02       		.uleb128 0x2
 2857 007b 18       		.uleb128 0x18
 2858 007c 00       		.byte	0
 2859 007d 00       		.byte	0
 2860 007e 09       		.uleb128 0x9
ARM GAS  C:\Users\ilya\AppData\Local\Temp\ccVU2AIc.s 			page 76


 2861 007f 2E       		.uleb128 0x2e
 2862 0080 01       		.byte	0x1
 2863 0081 3F       		.uleb128 0x3f
 2864 0082 19       		.uleb128 0x19
 2865 0083 03       		.uleb128 0x3
 2866 0084 0E       		.uleb128 0xe
 2867 0085 3A       		.uleb128 0x3a
 2868 0086 0B       		.uleb128 0xb
 2869 0087 3B       		.uleb128 0x3b
 2870 0088 05       		.uleb128 0x5
 2871 0089 27       		.uleb128 0x27
 2872 008a 19       		.uleb128 0x19
 2873 008b 11       		.uleb128 0x11
 2874 008c 01       		.uleb128 0x1
 2875 008d 12       		.uleb128 0x12
 2876 008e 06       		.uleb128 0x6
 2877 008f 40       		.uleb128 0x40
 2878 0090 18       		.uleb128 0x18
 2879 0091 9642     		.uleb128 0x2116
 2880 0093 19       		.uleb128 0x19
 2881 0094 01       		.uleb128 0x1
 2882 0095 13       		.uleb128 0x13
 2883 0096 00       		.byte	0
 2884 0097 00       		.byte	0
 2885 0098 0A       		.uleb128 0xa
 2886 0099 34       		.uleb128 0x34
 2887 009a 00       		.byte	0
 2888 009b 03       		.uleb128 0x3
 2889 009c 0E       		.uleb128 0xe
 2890 009d 3A       		.uleb128 0x3a
 2891 009e 0B       		.uleb128 0xb
 2892 009f 3B       		.uleb128 0x3b
 2893 00a0 05       		.uleb128 0x5
 2894 00a1 49       		.uleb128 0x49
 2895 00a2 13       		.uleb128 0x13
 2896 00a3 02       		.uleb128 0x2
 2897 00a4 18       		.uleb128 0x18
 2898 00a5 00       		.byte	0
 2899 00a6 00       		.byte	0
 2900 00a7 0B       		.uleb128 0xb
 2901 00a8 05       		.uleb128 0x5
 2902 00a9 00       		.byte	0
 2903 00aa 03       		.uleb128 0x3
 2904 00ab 0E       		.uleb128 0xe
 2905 00ac 3A       		.uleb128 0x3a
 2906 00ad 0B       		.uleb128 0xb
 2907 00ae 3B       		.uleb128 0x3b
 2908 00af 05       		.uleb128 0x5
 2909 00b0 49       		.uleb128 0x49
 2910 00b1 13       		.uleb128 0x13
 2911 00b2 02       		.uleb128 0x2
 2912 00b3 18       		.uleb128 0x18
 2913 00b4 00       		.byte	0
 2914 00b5 00       		.byte	0
 2915 00b6 0C       		.uleb128 0xc
 2916 00b7 2E       		.uleb128 0x2e
 2917 00b8 01       		.byte	0x1
ARM GAS  C:\Users\ilya\AppData\Local\Temp\ccVU2AIc.s 			page 77


 2918 00b9 3F       		.uleb128 0x3f
 2919 00ba 19       		.uleb128 0x19
 2920 00bb 03       		.uleb128 0x3
 2921 00bc 0E       		.uleb128 0xe
 2922 00bd 3A       		.uleb128 0x3a
 2923 00be 0B       		.uleb128 0xb
 2924 00bf 3B       		.uleb128 0x3b
 2925 00c0 05       		.uleb128 0x5
 2926 00c1 27       		.uleb128 0x27
 2927 00c2 19       		.uleb128 0x19
 2928 00c3 11       		.uleb128 0x11
 2929 00c4 01       		.uleb128 0x1
 2930 00c5 12       		.uleb128 0x12
 2931 00c6 06       		.uleb128 0x6
 2932 00c7 40       		.uleb128 0x40
 2933 00c8 18       		.uleb128 0x18
 2934 00c9 9742     		.uleb128 0x2117
 2935 00cb 19       		.uleb128 0x19
 2936 00cc 01       		.uleb128 0x1
 2937 00cd 13       		.uleb128 0x13
 2938 00ce 00       		.byte	0
 2939 00cf 00       		.byte	0
 2940 00d0 0D       		.uleb128 0xd
 2941 00d1 2E       		.uleb128 0x2e
 2942 00d2 00       		.byte	0
 2943 00d3 3F       		.uleb128 0x3f
 2944 00d4 19       		.uleb128 0x19
 2945 00d5 03       		.uleb128 0x3
 2946 00d6 0E       		.uleb128 0xe
 2947 00d7 3A       		.uleb128 0x3a
 2948 00d8 0B       		.uleb128 0xb
 2949 00d9 3B       		.uleb128 0x3b
 2950 00da 05       		.uleb128 0x5
 2951 00db 27       		.uleb128 0x27
 2952 00dc 19       		.uleb128 0x19
 2953 00dd 49       		.uleb128 0x49
 2954 00de 13       		.uleb128 0x13
 2955 00df 11       		.uleb128 0x11
 2956 00e0 01       		.uleb128 0x1
 2957 00e1 12       		.uleb128 0x12
 2958 00e2 06       		.uleb128 0x6
 2959 00e3 40       		.uleb128 0x40
 2960 00e4 18       		.uleb128 0x18
 2961 00e5 9742     		.uleb128 0x2117
 2962 00e7 19       		.uleb128 0x19
 2963 00e8 00       		.byte	0
 2964 00e9 00       		.byte	0
 2965 00ea 0E       		.uleb128 0xe
 2966 00eb 34       		.uleb128 0x34
 2967 00ec 00       		.byte	0
 2968 00ed 03       		.uleb128 0x3
 2969 00ee 0E       		.uleb128 0xe
 2970 00ef 3A       		.uleb128 0x3a
 2971 00f0 0B       		.uleb128 0xb
 2972 00f1 3B       		.uleb128 0x3b
 2973 00f2 0B       		.uleb128 0xb
 2974 00f3 49       		.uleb128 0x49
ARM GAS  C:\Users\ilya\AppData\Local\Temp\ccVU2AIc.s 			page 78


 2975 00f4 13       		.uleb128 0x13
 2976 00f5 3F       		.uleb128 0x3f
 2977 00f6 19       		.uleb128 0x19
 2978 00f7 02       		.uleb128 0x2
 2979 00f8 18       		.uleb128 0x18
 2980 00f9 00       		.byte	0
 2981 00fa 00       		.byte	0
 2982 00fb 00       		.byte	0
 2983              		.section	.debug_aranges,"",%progbits
 2984 0000 54010000 		.4byte	0x154
 2985 0004 0200     		.2byte	0x2
 2986 0006 00000000 		.4byte	.Ldebug_info0
 2987 000a 04       		.byte	0x4
 2988 000b 00       		.byte	0
 2989 000c 0000     		.2byte	0
 2990 000e 0000     		.2byte	0
 2991 0010 00000000 		.4byte	.LFB1
 2992 0014 38000000 		.4byte	.LFE1-.LFB1
 2993 0018 00000000 		.4byte	.LFB2
 2994 001c 38000000 		.4byte	.LFE2-.LFB2
 2995 0020 00000000 		.4byte	.LFB3
 2996 0024 24000000 		.4byte	.LFE3-.LFB3
 2997 0028 00000000 		.4byte	.LFB4
 2998 002c 30000000 		.4byte	.LFE4-.LFB4
 2999 0030 00000000 		.4byte	.LFB5
 3000 0034 48000000 		.4byte	.LFE5-.LFB5
 3001 0038 00000000 		.4byte	.LFB6
 3002 003c 48000000 		.4byte	.LFE6-.LFB6
 3003 0040 00000000 		.4byte	.LFB7
 3004 0044 48000000 		.4byte	.LFE7-.LFB7
 3005 0048 00000000 		.4byte	.LFB8
 3006 004c 4C000000 		.4byte	.LFE8-.LFB8
 3007 0050 00000000 		.4byte	.LFB9
 3008 0054 1C000000 		.4byte	.LFE9-.LFB9
 3009 0058 00000000 		.4byte	.LFB10
 3010 005c 48000000 		.4byte	.LFE10-.LFB10
 3011 0060 00000000 		.4byte	.LFB11
 3012 0064 48000000 		.4byte	.LFE11-.LFB11
 3013 0068 00000000 		.4byte	.LFB12
 3014 006c 4C000000 		.4byte	.LFE12-.LFB12
 3015 0070 00000000 		.4byte	.LFB13
 3016 0074 48000000 		.4byte	.LFE13-.LFB13
 3017 0078 00000000 		.4byte	.LFB14
 3018 007c 1C000000 		.4byte	.LFE14-.LFB14
 3019 0080 00000000 		.4byte	.LFB15
 3020 0084 18000000 		.4byte	.LFE15-.LFB15
 3021 0088 00000000 		.4byte	.LFB16
 3022 008c 48000000 		.4byte	.LFE16-.LFB16
 3023 0090 00000000 		.4byte	.LFB17
 3024 0094 1C000000 		.4byte	.LFE17-.LFB17
 3025 0098 00000000 		.4byte	.LFB18
 3026 009c 18000000 		.4byte	.LFE18-.LFB18
 3027 00a0 00000000 		.4byte	.LFB19
 3028 00a4 48000000 		.4byte	.LFE19-.LFB19
 3029 00a8 00000000 		.4byte	.LFB20
 3030 00ac 1C000000 		.4byte	.LFE20-.LFB20
 3031 00b0 00000000 		.4byte	.LFB21
ARM GAS  C:\Users\ilya\AppData\Local\Temp\ccVU2AIc.s 			page 79


 3032 00b4 18000000 		.4byte	.LFE21-.LFB21
 3033 00b8 00000000 		.4byte	.LFB22
 3034 00bc 48000000 		.4byte	.LFE22-.LFB22
 3035 00c0 00000000 		.4byte	.LFB23
 3036 00c4 1C000000 		.4byte	.LFE23-.LFB23
 3037 00c8 00000000 		.4byte	.LFB24
 3038 00cc 18000000 		.4byte	.LFE24-.LFB24
 3039 00d0 00000000 		.4byte	.LFB25
 3040 00d4 1C000000 		.4byte	.LFE25-.LFB25
 3041 00d8 00000000 		.4byte	.LFB26
 3042 00dc 18000000 		.4byte	.LFE26-.LFB26
 3043 00e0 00000000 		.4byte	.LFB27
 3044 00e4 18000000 		.4byte	.LFE27-.LFB27
 3045 00e8 00000000 		.4byte	.LFB28
 3046 00ec 18000000 		.4byte	.LFE28-.LFB28
 3047 00f0 00000000 		.4byte	.LFB29
 3048 00f4 44000000 		.4byte	.LFE29-.LFB29
 3049 00f8 00000000 		.4byte	.LFB30
 3050 00fc 44000000 		.4byte	.LFE30-.LFB30
 3051 0100 00000000 		.4byte	.LFB31
 3052 0104 48000000 		.4byte	.LFE31-.LFB31
 3053 0108 00000000 		.4byte	.LFB32
 3054 010c 44000000 		.4byte	.LFE32-.LFB32
 3055 0110 00000000 		.4byte	.LFB33
 3056 0114 44000000 		.4byte	.LFE33-.LFB33
 3057 0118 00000000 		.4byte	.LFB34
 3058 011c 38000000 		.4byte	.LFE34-.LFB34
 3059 0120 00000000 		.4byte	.LFB35
 3060 0124 20000000 		.4byte	.LFE35-.LFB35
 3061 0128 00000000 		.4byte	.LFB36
 3062 012c 18000000 		.4byte	.LFE36-.LFB36
 3063 0130 00000000 		.4byte	.LFB37
 3064 0134 14000000 		.4byte	.LFE37-.LFB37
 3065 0138 00000000 		.4byte	.LFB38
 3066 013c 14000000 		.4byte	.LFE38-.LFB38
 3067 0140 00000000 		.4byte	.LFB39
 3068 0144 18000000 		.4byte	.LFE39-.LFB39
 3069 0148 00000000 		.4byte	.LFB40
 3070 014c 18000000 		.4byte	.LFE40-.LFB40
 3071 0150 00000000 		.4byte	0
 3072 0154 00000000 		.4byte	0
 3073              		.section	.debug_ranges,"",%progbits
 3074              	.Ldebug_ranges0:
 3075 0000 00000000 		.4byte	.LFB1
 3076 0004 38000000 		.4byte	.LFE1
 3077 0008 00000000 		.4byte	.LFB2
 3078 000c 38000000 		.4byte	.LFE2
 3079 0010 00000000 		.4byte	.LFB3
 3080 0014 24000000 		.4byte	.LFE3
 3081 0018 00000000 		.4byte	.LFB4
 3082 001c 30000000 		.4byte	.LFE4
 3083 0020 00000000 		.4byte	.LFB5
 3084 0024 48000000 		.4byte	.LFE5
 3085 0028 00000000 		.4byte	.LFB6
 3086 002c 48000000 		.4byte	.LFE6
 3087 0030 00000000 		.4byte	.LFB7
 3088 0034 48000000 		.4byte	.LFE7
ARM GAS  C:\Users\ilya\AppData\Local\Temp\ccVU2AIc.s 			page 80


 3089 0038 00000000 		.4byte	.LFB8
 3090 003c 4C000000 		.4byte	.LFE8
 3091 0040 00000000 		.4byte	.LFB9
 3092 0044 1C000000 		.4byte	.LFE9
 3093 0048 00000000 		.4byte	.LFB10
 3094 004c 48000000 		.4byte	.LFE10
 3095 0050 00000000 		.4byte	.LFB11
 3096 0054 48000000 		.4byte	.LFE11
 3097 0058 00000000 		.4byte	.LFB12
 3098 005c 4C000000 		.4byte	.LFE12
 3099 0060 00000000 		.4byte	.LFB13
 3100 0064 48000000 		.4byte	.LFE13
 3101 0068 00000000 		.4byte	.LFB14
 3102 006c 1C000000 		.4byte	.LFE14
 3103 0070 00000000 		.4byte	.LFB15
 3104 0074 18000000 		.4byte	.LFE15
 3105 0078 00000000 		.4byte	.LFB16
 3106 007c 48000000 		.4byte	.LFE16
 3107 0080 00000000 		.4byte	.LFB17
 3108 0084 1C000000 		.4byte	.LFE17
 3109 0088 00000000 		.4byte	.LFB18
 3110 008c 18000000 		.4byte	.LFE18
 3111 0090 00000000 		.4byte	.LFB19
 3112 0094 48000000 		.4byte	.LFE19
 3113 0098 00000000 		.4byte	.LFB20
 3114 009c 1C000000 		.4byte	.LFE20
 3115 00a0 00000000 		.4byte	.LFB21
 3116 00a4 18000000 		.4byte	.LFE21
 3117 00a8 00000000 		.4byte	.LFB22
 3118 00ac 48000000 		.4byte	.LFE22
 3119 00b0 00000000 		.4byte	.LFB23
 3120 00b4 1C000000 		.4byte	.LFE23
 3121 00b8 00000000 		.4byte	.LFB24
 3122 00bc 18000000 		.4byte	.LFE24
 3123 00c0 00000000 		.4byte	.LFB25
 3124 00c4 1C000000 		.4byte	.LFE25
 3125 00c8 00000000 		.4byte	.LFB26
 3126 00cc 18000000 		.4byte	.LFE26
 3127 00d0 00000000 		.4byte	.LFB27
 3128 00d4 18000000 		.4byte	.LFE27
 3129 00d8 00000000 		.4byte	.LFB28
 3130 00dc 18000000 		.4byte	.LFE28
 3131 00e0 00000000 		.4byte	.LFB29
 3132 00e4 44000000 		.4byte	.LFE29
 3133 00e8 00000000 		.4byte	.LFB30
 3134 00ec 44000000 		.4byte	.LFE30
 3135 00f0 00000000 		.4byte	.LFB31
 3136 00f4 48000000 		.4byte	.LFE31
 3137 00f8 00000000 		.4byte	.LFB32
 3138 00fc 44000000 		.4byte	.LFE32
 3139 0100 00000000 		.4byte	.LFB33
 3140 0104 44000000 		.4byte	.LFE33
 3141 0108 00000000 		.4byte	.LFB34
 3142 010c 38000000 		.4byte	.LFE34
 3143 0110 00000000 		.4byte	.LFB35
 3144 0114 20000000 		.4byte	.LFE35
 3145 0118 00000000 		.4byte	.LFB36
ARM GAS  C:\Users\ilya\AppData\Local\Temp\ccVU2AIc.s 			page 81


 3146 011c 18000000 		.4byte	.LFE36
 3147 0120 00000000 		.4byte	.LFB37
 3148 0124 14000000 		.4byte	.LFE37
 3149 0128 00000000 		.4byte	.LFB38
 3150 012c 14000000 		.4byte	.LFE38
 3151 0130 00000000 		.4byte	.LFB39
 3152 0134 18000000 		.4byte	.LFE39
 3153 0138 00000000 		.4byte	.LFB40
 3154 013c 18000000 		.4byte	.LFE40
 3155 0140 00000000 		.4byte	0
 3156 0144 00000000 		.4byte	0
 3157              		.section	.debug_line,"",%progbits
 3158              	.Ldebug_line0:
 3159 0000 6A030000 		.section	.debug_str,"MS",%progbits,1
 3159      02004200 
 3159      00000201 
 3159      FB0E0D00 
 3159      01010101 
 3160              	.LASF40:
 3161 0000 636F756E 		.ascii	"count\000"
 3161      7400
 3162              	.LASF19:
 3163 0006 54494D45 		.ascii	"TIMER_Stop\000"
 3163      525F5374 
 3163      6F7000
 3164              	.LASF78:
 3165 0011 433A5C70 		.ascii	"C:\\psoc\\chamonix\\camera\\Workspace01\\camera.cyd"
 3165      736F635C 
 3165      6368616D 
 3165      6F6E6978 
 3165      5C63616D 
 3166 003f 736E00   		.ascii	"sn\000"
 3167              	.LASF29:
 3168 0042 54494D45 		.ascii	"TIMER_SetPWMMode\000"
 3168      525F5365 
 3168      7450574D 
 3168      4D6F6465 
 3168      00
 3169              	.LASF43:
 3170 0053 54494D45 		.ascii	"TIMER_WritePeriod\000"
 3170      525F5772 
 3170      69746550 
 3170      6572696F 
 3170      6400
 3171              	.LASF44:
 3172 0065 70657269 		.ascii	"period\000"
 3172      6F6400
 3173              	.LASF49:
 3174 006c 54494D45 		.ascii	"TIMER_WritePeriodBuf\000"
 3174      525F5772 
 3174      69746550 
 3174      6572696F 
 3174      64427566 
 3175              	.LASF7:
 3176 0081 6C6F6E67 		.ascii	"long long unsigned int\000"
 3176      206C6F6E 
 3176      6720756E 
ARM GAS  C:\Users\ilya\AppData\Local\Temp\ccVU2AIc.s 			page 82


 3176      7369676E 
 3176      65642069 
 3177              	.LASF77:
 3178 0098 47656E65 		.ascii	"Generated_Source\\PSoC4\\TIMER.c\000"
 3178      72617465 
 3178      645F536F 
 3178      75726365 
 3178      5C50536F 
 3179              	.LASF24:
 3180 00b7 71644D6F 		.ascii	"qdMode\000"
 3180      646500
 3181              	.LASF6:
 3182 00be 6C6F6E67 		.ascii	"long long int\000"
 3182      206C6F6E 
 3182      6720696E 
 3182      7400
 3183              	.LASF0:
 3184 00cc 7369676E 		.ascii	"signed char\000"
 3184      65642063 
 3184      68617200 
 3185              	.LASF33:
 3186 00d8 54494D45 		.ascii	"TIMER_SetPWMStopOnKill\000"
 3186      525F5365 
 3186      7450574D 
 3186      53746F70 
 3186      4F6E4B69 
 3187              	.LASF75:
 3188 00ef 54494D45 		.ascii	"TIMER_SetInterrupt\000"
 3188      525F5365 
 3188      74496E74 
 3188      65727275 
 3188      707400
 3189              	.LASF60:
 3190 0102 54494D45 		.ascii	"TIMER_ReadCaptureBuf\000"
 3190      525F5265 
 3190      61644361 
 3190      70747572 
 3190      65427566 
 3191              	.LASF4:
 3192 0117 6C6F6E67 		.ascii	"long int\000"
 3192      20696E74 
 3192      00
 3193              	.LASF59:
 3194 0120 54494D45 		.ascii	"TIMER_ReadCapture\000"
 3194      525F5265 
 3194      61644361 
 3194      70747572 
 3194      6500
 3195              	.LASF9:
 3196 0132 75696E74 		.ascii	"uint8\000"
 3196      3800
 3197              	.LASF56:
 3198 0138 54494D45 		.ascii	"TIMER_WriteCompareBuf\000"
 3198      525F5772 
 3198      69746543 
 3198      6F6D7061 
 3198      72654275 
ARM GAS  C:\Users\ilya\AppData\Local\Temp\ccVU2AIc.s 			page 83


 3199              	.LASF12:
 3200 014e 646F7562 		.ascii	"double\000"
 3200      6C6500
 3201              	.LASF10:
 3202 0155 75696E74 		.ascii	"uint32\000"
 3202      333200
 3203              	.LASF62:
 3204 015c 74726967 		.ascii	"triggerMode\000"
 3204      6765724D 
 3204      6F646500 
 3205              	.LASF38:
 3206 0168 6D61736B 		.ascii	"mask\000"
 3206      00
 3207              	.LASF55:
 3208 016d 54494D45 		.ascii	"TIMER_ReadCompare\000"
 3208      525F5265 
 3208      6164436F 
 3208      6D706172 
 3208      6500
 3209              	.LASF36:
 3210 017f 64656164 		.ascii	"deadTime\000"
 3210      54696D65 
 3210      00
 3211              	.LASF66:
 3212 0188 54494D45 		.ascii	"TIMER_SetCountMode\000"
 3212      525F5365 
 3212      74436F75 
 3212      6E744D6F 
 3212      646500
 3213              	.LASF72:
 3214 019b 54494D45 		.ascii	"TIMER_GetInterruptSourceMasked\000"
 3214      525F4765 
 3214      74496E74 
 3214      65727275 
 3214      7074536F 
 3215              	.LASF41:
 3216 01ba 54494D45 		.ascii	"TIMER_SetCounterMode\000"
 3216      525F5365 
 3216      74436F75 
 3216      6E746572 
 3216      4D6F6465 
 3217              	.LASF8:
 3218 01cf 756E7369 		.ascii	"unsigned int\000"
 3218      676E6564 
 3218      20696E74 
 3218      00
 3219              	.LASF68:
 3220 01dc 636F6D6D 		.ascii	"command\000"
 3220      616E6400 
 3221              	.LASF5:
 3222 01e4 6C6F6E67 		.ascii	"long unsigned int\000"
 3222      20756E73 
 3222      69676E65 
 3222      6420696E 
 3222      7400
 3223              	.LASF30:
 3224 01f6 6D6F6465 		.ascii	"modeMask\000"
ARM GAS  C:\Users\ilya\AppData\Local\Temp\ccVU2AIc.s 			page 84


 3224      4D61736B 
 3224      00
 3225              	.LASF3:
 3226 01ff 73686F72 		.ascii	"short unsigned int\000"
 3226      7420756E 
 3226      7369676E 
 3226      65642069 
 3226      6E7400
 3227              	.LASF22:
 3228 0212 54494D45 		.ascii	"TIMER_SetQDMode\000"
 3228      525F5365 
 3228      7451444D 
 3228      6F646500 
 3229              	.LASF53:
 3230 0222 54494D45 		.ascii	"TIMER_WriteCompare\000"
 3230      525F5772 
 3230      69746543 
 3230      6F6D7061 
 3230      726500
 3231              	.LASF79:
 3232 0235 54494D45 		.ascii	"TIMER_initVar\000"
 3232      525F696E 
 3232      69745661 
 3232      7200
 3233              	.LASF16:
 3234 0243 54494D45 		.ascii	"TIMER_Init\000"
 3234      525F496E 
 3234      697400
 3235              	.LASF28:
 3236 024e 6F6E6553 		.ascii	"oneShotEnable\000"
 3236      686F7445 
 3236      6E61626C 
 3236      6500
 3237              	.LASF61:
 3238 025c 54494D45 		.ascii	"TIMER_SetCaptureMode\000"
 3238      525F5365 
 3238      74436170 
 3238      74757265 
 3238      4D6F6465 
 3239              	.LASF14:
 3240 0271 72656733 		.ascii	"reg32\000"
 3240      3200
 3241              	.LASF18:
 3242 0277 54494D45 		.ascii	"TIMER_Enable\000"
 3242      525F456E 
 3242      61626C65 
 3242      00
 3243              	.LASF15:
 3244 0284 73697A65 		.ascii	"sizetype\000"
 3244      74797065 
 3244      00
 3245              	.LASF32:
 3246 028d 73796E63 		.ascii	"syncKillEnable\000"
 3246      4B696C6C 
 3246      456E6162 
 3246      6C6500
 3247              	.LASF39:
ARM GAS  C:\Users\ilya\AppData\Local\Temp\ccVU2AIc.s 			page 85


 3248 029c 54494D45 		.ascii	"TIMER_WriteCounter\000"
 3248      525F5772 
 3248      69746543 
 3248      6F756E74 
 3248      657200
 3249              	.LASF54:
 3250 02af 636F6D70 		.ascii	"compare\000"
 3250      61726500 
 3251              	.LASF58:
 3252 02b7 54494D45 		.ascii	"TIMER_ReadCompareBuf\000"
 3252      525F5265 
 3252      6164436F 
 3252      6D706172 
 3252      65427566 
 3253              	.LASF47:
 3254 02cc 54494D45 		.ascii	"TIMER_SetCompareSwap\000"
 3254      525F5365 
 3254      74436F6D 
 3254      70617265 
 3254      53776170 
 3255              	.LASF11:
 3256 02e1 666C6F61 		.ascii	"float\000"
 3256      7400
 3257              	.LASF71:
 3258 02e7 696E7465 		.ascii	"interruptMask\000"
 3258      72727570 
 3258      744D6173 
 3258      6B00
 3259              	.LASF26:
 3260 02f5 70726573 		.ascii	"prescaler\000"
 3260      63616C65 
 3260      7200
 3261              	.LASF27:
 3262 02ff 54494D45 		.ascii	"TIMER_SetOneShot\000"
 3262      525F5365 
 3262      744F6E65 
 3262      53686F74 
 3262      00
 3263              	.LASF1:
 3264 0310 756E7369 		.ascii	"unsigned char\000"
 3264      676E6564 
 3264      20636861 
 3264      7200
 3265              	.LASF34:
 3266 031e 73746F70 		.ascii	"stopOnKillEnable\000"
 3266      4F6E4B69 
 3266      6C6C456E 
 3266      61626C65 
 3266      00
 3267              	.LASF37:
 3268 032f 54494D45 		.ascii	"TIMER_SetPWMInvert\000"
 3268      525F5365 
 3268      7450574D 
 3268      496E7665 
 3268      727400
 3269              	.LASF2:
 3270 0342 73686F72 		.ascii	"short int\000"
ARM GAS  C:\Users\ilya\AppData\Local\Temp\ccVU2AIc.s 			page 86


 3270      7420696E 
 3270      7400
 3271              	.LASF31:
 3272 034c 54494D45 		.ascii	"TIMER_SetPWMSyncKill\000"
 3272      525F5365 
 3272      7450574D 
 3272      53796E63 
 3272      4B696C6C 
 3273              	.LASF69:
 3274 0361 54494D45 		.ascii	"TIMER_ReadStatus\000"
 3274      525F5265 
 3274      61645374 
 3274      61747573 
 3274      00
 3275              	.LASF64:
 3276 0372 54494D45 		.ascii	"TIMER_SetStartMode\000"
 3276      525F5365 
 3276      74537461 
 3276      72744D6F 
 3276      646500
 3277              	.LASF70:
 3278 0385 54494D45 		.ascii	"TIMER_SetInterruptMode\000"
 3278      525F5365 
 3278      74496E74 
 3278      65727275 
 3278      70744D6F 
 3279              	.LASF51:
 3280 039c 54494D45 		.ascii	"TIMER_ReadPeriodBuf\000"
 3280      525F5265 
 3280      61645065 
 3280      72696F64 
 3280      42756600 
 3281              	.LASF45:
 3282 03b0 54494D45 		.ascii	"TIMER_ReadCounter\000"
 3282      525F5265 
 3282      6164436F 
 3282      756E7465 
 3282      7200
 3283              	.LASF17:
 3284 03c2 54494D45 		.ascii	"TIMER_Start\000"
 3284      525F5374 
 3284      61727400 
 3285              	.LASF13:
 3286 03ce 63686172 		.ascii	"char\000"
 3286      00
 3287              	.LASF23:
 3288 03d3 6D6F6465 		.ascii	"mode\000"
 3288      00
 3289              	.LASF67:
 3290 03d8 54494D45 		.ascii	"TIMER_TriggerCommand\000"
 3290      525F5472 
 3290      69676765 
 3290      72436F6D 
 3290      6D616E64 
 3291              	.LASF52:
 3292 03ed 54494D45 		.ascii	"TIMER_SetPeriodSwap\000"
 3292      525F5365 
ARM GAS  C:\Users\ilya\AppData\Local\Temp\ccVU2AIc.s 			page 87


 3292      74506572 
 3292      696F6453 
 3292      77617000 
 3293              	.LASF74:
 3294 0401 54494D45 		.ascii	"TIMER_ClearInterrupt\000"
 3294      525F436C 
 3294      65617249 
 3294      6E746572 
 3294      72757074 
 3295              	.LASF42:
 3296 0416 636F756E 		.ascii	"counterMode\000"
 3296      7465724D 
 3296      6F646500 
 3297              	.LASF48:
 3298 0422 73776170 		.ascii	"swapEnable\000"
 3298      456E6162 
 3298      6C6500
 3299              	.LASF73:
 3300 042d 54494D45 		.ascii	"TIMER_GetInterruptSource\000"
 3300      525F4765 
 3300      74496E74 
 3300      65727275 
 3300      7074536F 
 3301              	.LASF25:
 3302 0446 54494D45 		.ascii	"TIMER_SetPrescaler\000"
 3302      525F5365 
 3302      74507265 
 3302      7363616C 
 3302      657200
 3303              	.LASF57:
 3304 0459 636F6D70 		.ascii	"compareBuf\000"
 3304      61726542 
 3304      756600
 3305              	.LASF21:
 3306 0464 54494D45 		.ascii	"TIMER_SetMode\000"
 3306      525F5365 
 3306      744D6F64 
 3306      6500
 3307              	.LASF20:
 3308 0472 656E6162 		.ascii	"enableInterrupts\000"
 3308      6C65496E 
 3308      74657272 
 3308      75707473 
 3308      00
 3309              	.LASF46:
 3310 0483 54494D45 		.ascii	"TIMER_ReadPeriod\000"
 3310      525F5265 
 3310      61645065 
 3310      72696F64 
 3310      00
 3311              	.LASF65:
 3312 0494 54494D45 		.ascii	"TIMER_SetStopMode\000"
 3312      525F5365 
 3312      7453746F 
 3312      704D6F64 
 3312      6500
 3313              	.LASF76:
ARM GAS  C:\Users\ilya\AppData\Local\Temp\ccVU2AIc.s 			page 88


 3314 04a6 474E5520 		.ascii	"GNU C 4.9.3 20150303 (release) [ARM/embedded-4_9-br"
 3314      4320342E 
 3314      392E3320 
 3314      32303135 
 3314      30333033 
 3315 04d9 616E6368 		.ascii	"anch revision 221220] -mcpu=cortex-m0 -mthumb -g -O"
 3315      20726576 
 3315      6973696F 
 3315      6E203232 
 3315      31323230 
 3316 050c 30202D66 		.ascii	"0 -ffunction-sections -ffat-lto-objects\000"
 3316      66756E63 
 3316      74696F6E 
 3316      2D736563 
 3316      74696F6E 
 3317              	.LASF63:
 3318 0534 54494D45 		.ascii	"TIMER_SetReloadMode\000"
 3318      525F5365 
 3318      7452656C 
 3318      6F61644D 
 3318      6F646500 
 3319              	.LASF35:
 3320 0548 54494D45 		.ascii	"TIMER_SetPWMDeadTime\000"
 3320      525F5365 
 3320      7450574D 
 3320      44656164 
 3320      54696D65 
 3321              	.LASF50:
 3322 055d 70657269 		.ascii	"periodBuf\000"
 3322      6F644275 
 3322      6600
 3323              		.ident	"GCC: (GNU Tools for ARM Embedded Processors) 4.9.3 20150303 (release) [ARM/embedded-4_9-br
