ARM GAS  C:\Users\ilya\AppData\Local\Temp\ccyVgDjv.s 			page 1


   1              		.syntax unified
   2              		.cpu cortex-m3
   3              		.fpu softvfp
   4              		.eabi_attribute 20, 1
   5              		.eabi_attribute 21, 1
   6              		.eabi_attribute 23, 3
   7              		.eabi_attribute 24, 1
   8              		.eabi_attribute 25, 1
   9              		.eabi_attribute 26, 1
  10              		.eabi_attribute 30, 6
  11              		.eabi_attribute 34, 1
  12              		.eabi_attribute 18, 4
  13              		.thumb
  14              		.syntax unified
  15              		.file	"EZI2Cs.c"
  16              		.text
  17              	.Ltext0:
  18              		.cfi_sections	.debug_frame
  19              		.global	EZI2Cs_initVar
  20              		.bss
  21              		.type	EZI2Cs_initVar, %object
  22              		.size	EZI2Cs_initVar, 1
  23              	EZI2Cs_initVar:
  24 0000 00       		.space	1
  25              		.comm	EZI2Cs_curStatus,1,1
  26              		.comm	EZI2Cs_curState,1,1
  27              		.comm	EZI2Cs_dataPtrS1,4,4
  28              		.comm	EZI2Cs_bufSizeS1,2,2
  29              		.comm	EZI2Cs_wrProtectS1,2,2
  30              		.comm	EZI2Cs_rwOffsetS1,2,2
  31              		.comm	EZI2Cs_rwIndexS1,2,2
  32              		.section	.text.EZI2Cs_Init,"ax",%progbits
  33              		.align	2
  34              		.global	EZI2Cs_Init
  35              		.thumb
  36              		.thumb_func
  37              		.type	EZI2Cs_Init, %function
  38              	EZI2Cs_Init:
  39              	.LFB0:
  40              		.file 1 "Generated_Source\\PSoC5\\EZI2Cs.c"
   1:Generated_Source\PSoC5/EZI2Cs.c **** /*******************************************************************************
   2:Generated_Source\PSoC5/EZI2Cs.c **** * File Name: EZI2Cs.c
   3:Generated_Source\PSoC5/EZI2Cs.c **** * Version 2.0
   4:Generated_Source\PSoC5/EZI2Cs.c **** *
   5:Generated_Source\PSoC5/EZI2Cs.c **** * Description:
   6:Generated_Source\PSoC5/EZI2Cs.c **** *  This file contains the setup, control and status commands for the EZI2C
   7:Generated_Source\PSoC5/EZI2Cs.c **** *  component. The actual protocol and operation code resides in the interrupt
   8:Generated_Source\PSoC5/EZI2Cs.c **** *  service routine file.
   9:Generated_Source\PSoC5/EZI2Cs.c **** *
  10:Generated_Source\PSoC5/EZI2Cs.c **** ********************************************************************************
  11:Generated_Source\PSoC5/EZI2Cs.c **** * Copyright 2008-2015, Cypress Semiconductor Corporation.  All rights reserved.
  12:Generated_Source\PSoC5/EZI2Cs.c **** * You may use this file only in accordance with the license, terms, conditions,
  13:Generated_Source\PSoC5/EZI2Cs.c **** * disclaimers, and limitations in the end user license agreement accompanying
  14:Generated_Source\PSoC5/EZI2Cs.c **** * the software package with which this file was provided.
  15:Generated_Source\PSoC5/EZI2Cs.c **** *******************************************************************************/
  16:Generated_Source\PSoC5/EZI2Cs.c **** 
  17:Generated_Source\PSoC5/EZI2Cs.c **** #include "EZI2Cs_PVT.h"
ARM GAS  C:\Users\ilya\AppData\Local\Temp\ccyVgDjv.s 			page 2


  18:Generated_Source\PSoC5/EZI2Cs.c **** 
  19:Generated_Source\PSoC5/EZI2Cs.c **** /**********************************
  20:Generated_Source\PSoC5/EZI2Cs.c **** *      System variables
  21:Generated_Source\PSoC5/EZI2Cs.c **** **********************************/
  22:Generated_Source\PSoC5/EZI2Cs.c **** 
  23:Generated_Source\PSoC5/EZI2Cs.c **** uint8 EZI2Cs_initVar = 0u; /* Defines if component was initialized */
  24:Generated_Source\PSoC5/EZI2Cs.c **** 
  25:Generated_Source\PSoC5/EZI2Cs.c **** /* Status and state variables */
  26:Generated_Source\PSoC5/EZI2Cs.c **** volatile uint8 EZI2Cs_curStatus; /* Current status of the component */
  27:Generated_Source\PSoC5/EZI2Cs.c **** volatile uint8 EZI2Cs_curState;  /* Current state of state machine */
  28:Generated_Source\PSoC5/EZI2Cs.c **** 
  29:Generated_Source\PSoC5/EZI2Cs.c **** /* Primary slave address variables */
  30:Generated_Source\PSoC5/EZI2Cs.c **** volatile uint8* EZI2Cs_dataPtrS1; /* Pointer to data buffer 1 */
  31:Generated_Source\PSoC5/EZI2Cs.c **** volatile uint16 EZI2Cs_bufSizeS1; /* Size of buffer 1 in bytes */
  32:Generated_Source\PSoC5/EZI2Cs.c **** volatile uint16 EZI2Cs_wrProtectS1; /* Start index of write protected area in buffer 1 */
  33:Generated_Source\PSoC5/EZI2Cs.c **** volatile uint16  EZI2Cs_rwOffsetS1; /* Current offset within buffer 1 */
  34:Generated_Source\PSoC5/EZI2Cs.c **** volatile uint16  EZI2Cs_rwIndexS1;  /* Current index within buffer 1 */
  35:Generated_Source\PSoC5/EZI2Cs.c **** 
  36:Generated_Source\PSoC5/EZI2Cs.c **** /* Secondary slave address variables */
  37:Generated_Source\PSoC5/EZI2Cs.c **** #if(EZI2Cs_ADDRESSES == EZI2Cs_TWO_ADDRESSES)
  38:Generated_Source\PSoC5/EZI2Cs.c ****     volatile uint8  EZI2Cs_addrS1; /* Primary slave address: software comparison */
  39:Generated_Source\PSoC5/EZI2Cs.c ****     volatile uint8  EZI2Cs_addrS2; /* Secondary slave address: software comparison */
  40:Generated_Source\PSoC5/EZI2Cs.c ****     volatile uint8* EZI2Cs_dataPtrS2; /* Pointer to data buffer 1 */
  41:Generated_Source\PSoC5/EZI2Cs.c ****     volatile uint16 EZI2Cs_bufSizeS2; /* Size of buffer 2 in bytes */
  42:Generated_Source\PSoC5/EZI2Cs.c ****     volatile uint16 EZI2Cs_wrProtectS2; /* Start index of write protected area in buffer 2 */
  43:Generated_Source\PSoC5/EZI2Cs.c ****     volatile uint16 EZI2Cs_rwOffsetS2; /* Current offset within buffer 2 */
  44:Generated_Source\PSoC5/EZI2Cs.c ****     volatile uint16 EZI2Cs_rwIndexS2;  /* Current index within buffer 2 */
  45:Generated_Source\PSoC5/EZI2Cs.c **** #endif  /* (EZI2Cs_ADDRESSES == EZI2Cs_TWO_ADDRESSES) */
  46:Generated_Source\PSoC5/EZI2Cs.c **** 
  47:Generated_Source\PSoC5/EZI2Cs.c **** 
  48:Generated_Source\PSoC5/EZI2Cs.c **** /*******************************************************************************
  49:Generated_Source\PSoC5/EZI2Cs.c **** * Function Name: EZI2Cs_Init
  50:Generated_Source\PSoC5/EZI2Cs.c **** ********************************************************************************
  51:Generated_Source\PSoC5/EZI2Cs.c **** *
  52:Generated_Source\PSoC5/EZI2Cs.c **** * Summary:
  53:Generated_Source\PSoC5/EZI2Cs.c **** *  Initializes or restores the component according to the Configure dialog
  54:Generated_Source\PSoC5/EZI2Cs.c **** *  settings. It is not necessary to call EZI2C_Init() because the EZI2C_Start()
  55:Generated_Source\PSoC5/EZI2Cs.c **** *  API calls this function, which is the preferred method to begin component
  56:Generated_Source\PSoC5/EZI2Cs.c **** *  operation.
  57:Generated_Source\PSoC5/EZI2Cs.c **** *
  58:Generated_Source\PSoC5/EZI2Cs.c **** * Parameters:
  59:Generated_Source\PSoC5/EZI2Cs.c **** *  None.
  60:Generated_Source\PSoC5/EZI2Cs.c **** *
  61:Generated_Source\PSoC5/EZI2Cs.c **** * Return:
  62:Generated_Source\PSoC5/EZI2Cs.c **** *  None.
  63:Generated_Source\PSoC5/EZI2Cs.c **** *
  64:Generated_Source\PSoC5/EZI2Cs.c **** * Global variables:
  65:Generated_Source\PSoC5/EZI2Cs.c **** *  EZI2Cs_initVar - It is used to indicate the initial configuration
  66:Generated_Source\PSoC5/EZI2Cs.c **** *  of this component.  The variable is initialized to zero and set to 1
  67:Generated_Source\PSoC5/EZI2Cs.c **** *  the first time EZI2Cs_Start() is called. This allows component  !
  68:Generated_Source\PSoC5/EZI2Cs.c **** *  initialization without re-initialization in all subsequent calls
  69:Generated_Source\PSoC5/EZI2Cs.c **** *  to the EZI2Cs_Start() routine.
  70:Generated_Source\PSoC5/EZI2Cs.c **** *
  71:Generated_Source\PSoC5/EZI2Cs.c **** *  EZI2Cs_curStatus - Stores the current status of the component.
  72:Generated_Source\PSoC5/EZI2Cs.c **** *
  73:Generated_Source\PSoC5/EZI2Cs.c **** *  EZI2Cs_curState- Stores the current state of an I2C state machine.
  74:Generated_Source\PSoC5/EZI2Cs.c **** *
ARM GAS  C:\Users\ilya\AppData\Local\Temp\ccyVgDjv.s 			page 3


  75:Generated_Source\PSoC5/EZI2Cs.c **** *  EZI2Cs_rwOffsetS1 - The global variable which stores an offset for read
  76:Generated_Source\PSoC5/EZI2Cs.c **** *  and write operations, is set at each write sequence of the first slave
  77:Generated_Source\PSoC5/EZI2Cs.c **** *  address is reset if EZI2Cs_initVar is 0, by
  78:Generated_Source\PSoC5/EZI2Cs.c **** *  EZI2Cs_initVar function call.
  79:Generated_Source\PSoC5/EZI2Cs.c **** *
  80:Generated_Source\PSoC5/EZI2Cs.c **** *  EZI2Cs_rwIndexS1 - The global variable which stores a pointer to the
  81:Generated_Source\PSoC5/EZI2Cs.c **** *  next value to be read or written for the first slave address is reset if
  82:Generated_Source\PSoC5/EZI2Cs.c **** *  EZI2Cs_initVar is 0, by EZI2Cs_initVar function call.
  83:Generated_Source\PSoC5/EZI2Cs.c **** *
  84:Generated_Source\PSoC5/EZI2Cs.c **** * EZI2Cs_wrProtectS1 - The global variable which stores an offset where data
  85:Generated_Source\PSoC5/EZI2Cs.c **** *  is read only for the first slave address is reset if
  86:Generated_Source\PSoC5/EZI2Cs.c **** *  EZI2Cs_initVar is 0, by EZI2Cs_initVar function call.
  87:Generated_Source\PSoC5/EZI2Cs.c **** *
  88:Generated_Source\PSoC5/EZI2Cs.c **** *  EZI2Cs_rwOffsetS2 - The global variable, which stores an offset for read
  89:Generated_Source\PSoC5/EZI2Cs.c **** *  and write operations, is set at each write sequence of the second slave
  90:Generated_Source\PSoC5/EZI2Cs.c **** *  device is reset if EZI2Cs_initVar is 0, by EZI2Cs_initVar
  91:Generated_Source\PSoC5/EZI2Cs.c **** *  function call.
  92:Generated_Source\PSoC5/EZI2Cs.c **** *
  93:Generated_Source\PSoC5/EZI2Cs.c **** *  EZI2Cs_rwIndexS2 - The global variable which stores a pointer to the
  94:Generated_Source\PSoC5/EZI2Cs.c **** *  next value to be read or written for the second slave address is reset if
  95:Generated_Source\PSoC5/EZI2Cs.c **** *  EZI2Cs_initVar is 0, by EZI2Cs_initVar function call.
  96:Generated_Source\PSoC5/EZI2Cs.c **** *
  97:Generated_Source\PSoC5/EZI2Cs.c **** * EZI2Cs_wrProtectS2 - The global variable which stores an offset where data
  98:Generated_Source\PSoC5/EZI2Cs.c **** *  is read only for the second slave address is reset if
  99:Generated_Source\PSoC5/EZI2Cs.c **** *  EZI2Cs_initVar is 0, by EZI2Cs_initVar function call.
 100:Generated_Source\PSoC5/EZI2Cs.c **** *
 101:Generated_Source\PSoC5/EZI2Cs.c **** * Reentrant:
 102:Generated_Source\PSoC5/EZI2Cs.c **** *  No.
 103:Generated_Source\PSoC5/EZI2Cs.c **** *
 104:Generated_Source\PSoC5/EZI2Cs.c **** *******************************************************************************/
 105:Generated_Source\PSoC5/EZI2Cs.c **** void EZI2Cs_Init(void) 
 106:Generated_Source\PSoC5/EZI2Cs.c **** {
  41              		.loc 1 106 0
  42              		.cfi_startproc
  43              		@ args = 0, pretend = 0, frame = 0
  44              		@ frame_needed = 1, uses_anonymous_args = 0
  45 0000 80B5     		push	{r7, lr}
  46              		.cfi_def_cfa_offset 8
  47              		.cfi_offset 7, -8
  48              		.cfi_offset 14, -4
  49 0002 00AF     		add	r7, sp, #0
  50              		.cfi_def_cfa_register 7
 107:Generated_Source\PSoC5/EZI2Cs.c ****     /* Configure fixed function block */
 108:Generated_Source\PSoC5/EZI2Cs.c ****     EZI2Cs_CFG_REG  = EZI2Cs_DEFAULT_CFG;
  51              		.loc 1 108 0
  52 0004 154B     		ldr	r3, .L2
  53 0006 0122     		movs	r2, #1
  54 0008 1A70     		strb	r2, [r3]
 109:Generated_Source\PSoC5/EZI2Cs.c ****     EZI2Cs_XCFG_REG = EZI2Cs_DEFAULT_XCFG;
  55              		.loc 1 109 0
  56 000a 154B     		ldr	r3, .L2+4
  57 000c 8122     		movs	r2, #129
  58 000e 1A70     		strb	r2, [r3]
 110:Generated_Source\PSoC5/EZI2Cs.c ****     EZI2Cs_ADDR_REG = EZI2Cs_DEFAULT_ADDR;
  59              		.loc 1 110 0
  60 0010 144B     		ldr	r3, .L2+8
  61 0012 3822     		movs	r2, #56
ARM GAS  C:\Users\ilya\AppData\Local\Temp\ccyVgDjv.s 			page 4


  62 0014 1A70     		strb	r2, [r3]
 111:Generated_Source\PSoC5/EZI2Cs.c ****     EZI2Cs_CLKDIV1_REG = EZI2Cs_DEFAULT_CLKDIV1;
  63              		.loc 1 111 0
  64 0016 144B     		ldr	r3, .L2+12
  65 0018 0722     		movs	r2, #7
  66 001a 1A70     		strb	r2, [r3]
 112:Generated_Source\PSoC5/EZI2Cs.c ****     EZI2Cs_CLKDIV2_REG = EZI2Cs_DEFAULT_CLKDIV2;
  67              		.loc 1 112 0
  68 001c 134B     		ldr	r3, .L2+16
  69 001e 0022     		movs	r2, #0
  70 0020 1A70     		strb	r2, [r3]
 113:Generated_Source\PSoC5/EZI2Cs.c **** 
 114:Generated_Source\PSoC5/EZI2Cs.c **** #if (EZI2Cs_TWO_ADDRESSES == EZI2Cs_ADDRESSES)
 115:Generated_Source\PSoC5/EZI2Cs.c ****     /* Set address variables */
 116:Generated_Source\PSoC5/EZI2Cs.c ****     EZI2Cs_SetAddress1(EZI2Cs_DEFAULT_ADDR1);
 117:Generated_Source\PSoC5/EZI2Cs.c ****     EZI2Cs_SetAddress2(EZI2Cs_DEFAULT_ADDR2);
 118:Generated_Source\PSoC5/EZI2Cs.c **** #endif /* #if (EZI2Cs_TWO_ADDRESSES == EZI2Cs_ADDRESSES) */
 119:Generated_Source\PSoC5/EZI2Cs.c **** 
 120:Generated_Source\PSoC5/EZI2Cs.c ****     /* Configure interrupt */
 121:Generated_Source\PSoC5/EZI2Cs.c ****     CyIntDisable         (EZI2Cs_ISR_NUMBER);
  71              		.loc 1 121 0
  72 0022 134B     		ldr	r3, .L2+20
  73 0024 4FF40042 		mov	r2, #32768
  74 0028 1A60     		str	r2, [r3]
 122:Generated_Source\PSoC5/EZI2Cs.c ****     CyIntSetPriority     (EZI2Cs_ISR_NUMBER, EZI2Cs_ISR_PRIORITY);
  75              		.loc 1 122 0
  76 002a 0721     		movs	r1, #7
  77 002c 0F20     		movs	r0, #15
  78 002e FFF7FEFF 		bl	CyIntSetPriority
 123:Generated_Source\PSoC5/EZI2Cs.c ****     (void) CyIntSetVector(EZI2Cs_ISR_NUMBER, &EZI2Cs_ISR);
  79              		.loc 1 123 0
  80 0032 1049     		ldr	r1, .L2+24
  81 0034 0F20     		movs	r0, #15
  82 0036 FFF7FEFF 		bl	CyIntSetVector
 124:Generated_Source\PSoC5/EZI2Cs.c **** 
 125:Generated_Source\PSoC5/EZI2Cs.c ****      /* Reset state and status to default */
 126:Generated_Source\PSoC5/EZI2Cs.c ****     EZI2Cs_curState  = EZI2Cs_SM_IDLE;
  83              		.loc 1 126 0
  84 003a 0F4B     		ldr	r3, .L2+28
  85 003c 0022     		movs	r2, #0
  86 003e 1A70     		strb	r2, [r3]
 127:Generated_Source\PSoC5/EZI2Cs.c ****     EZI2Cs_curStatus = 0u;
  87              		.loc 1 127 0
  88 0040 0E4B     		ldr	r3, .L2+32
  89 0042 0022     		movs	r2, #0
  90 0044 1A70     		strb	r2, [r3]
 128:Generated_Source\PSoC5/EZI2Cs.c **** 
 129:Generated_Source\PSoC5/EZI2Cs.c ****     /* Reset all buffer 1 indexes (primary address) */
 130:Generated_Source\PSoC5/EZI2Cs.c ****     EZI2Cs_rwOffsetS1  = 0u;
  91              		.loc 1 130 0
  92 0046 0E4B     		ldr	r3, .L2+36
  93 0048 0022     		movs	r2, #0
  94 004a 1A80     		strh	r2, [r3]	@ movhi
 131:Generated_Source\PSoC5/EZI2Cs.c ****     EZI2Cs_rwIndexS1   = 0u;
  95              		.loc 1 131 0
  96 004c 0D4B     		ldr	r3, .L2+40
  97 004e 0022     		movs	r2, #0
ARM GAS  C:\Users\ilya\AppData\Local\Temp\ccyVgDjv.s 			page 5


  98 0050 1A80     		strh	r2, [r3]	@ movhi
 132:Generated_Source\PSoC5/EZI2Cs.c ****     EZI2Cs_wrProtectS1 = 0u;
  99              		.loc 1 132 0
 100 0052 0D4B     		ldr	r3, .L2+44
 101 0054 0022     		movs	r2, #0
 102 0056 1A80     		strh	r2, [r3]	@ movhi
 133:Generated_Source\PSoC5/EZI2Cs.c **** 
 134:Generated_Source\PSoC5/EZI2Cs.c **** #if (EZI2Cs_ADDRESSES == EZI2Cs_TWO_ADDRESSES)
 135:Generated_Source\PSoC5/EZI2Cs.c ****     /* Reset all buffer 2 indexes (secondary address) */
 136:Generated_Source\PSoC5/EZI2Cs.c ****     EZI2Cs_rwOffsetS2  = 0u;
 137:Generated_Source\PSoC5/EZI2Cs.c ****     EZI2Cs_rwIndexS2   = 0u;
 138:Generated_Source\PSoC5/EZI2Cs.c ****     EZI2Cs_wrProtectS2 = 0u;
 139:Generated_Source\PSoC5/EZI2Cs.c **** #endif  /* (EZI2Cs_ADDRESSES == EZI2Cs_TWO_ADDRESSES) */
 140:Generated_Source\PSoC5/EZI2Cs.c **** }
 103              		.loc 1 140 0
 104 0058 00BF     		nop
 105 005a 80BD     		pop	{r7, pc}
 106              	.L3:
 107              		.align	2
 108              	.L2:
 109 005c D6490040 		.word	1073760726
 110 0060 C8490040 		.word	1073760712
 111 0064 CA490040 		.word	1073760714
 112 0068 DB490040 		.word	1073760731
 113 006c DC490040 		.word	1073760732
 114 0070 80E100E0 		.word	-536813184
 115 0074 00000000 		.word	EZI2Cs_ISR
 116 0078 00000000 		.word	EZI2Cs_curState
 117 007c 00000000 		.word	EZI2Cs_curStatus
 118 0080 00000000 		.word	EZI2Cs_rwOffsetS1
 119 0084 00000000 		.word	EZI2Cs_rwIndexS1
 120 0088 00000000 		.word	EZI2Cs_wrProtectS1
 121              		.cfi_endproc
 122              	.LFE0:
 123              		.size	EZI2Cs_Init, .-EZI2Cs_Init
 124              		.section	.text.EZI2Cs_Enable,"ax",%progbits
 125              		.align	2
 126              		.global	EZI2Cs_Enable
 127              		.thumb
 128              		.thumb_func
 129              		.type	EZI2Cs_Enable, %function
 130              	EZI2Cs_Enable:
 131              	.LFB1:
 141:Generated_Source\PSoC5/EZI2Cs.c **** 
 142:Generated_Source\PSoC5/EZI2Cs.c **** 
 143:Generated_Source\PSoC5/EZI2Cs.c **** /*******************************************************************************
 144:Generated_Source\PSoC5/EZI2Cs.c **** * Function Name: EZI2Cs_Enable
 145:Generated_Source\PSoC5/EZI2Cs.c **** ********************************************************************************
 146:Generated_Source\PSoC5/EZI2Cs.c **** *
 147:Generated_Source\PSoC5/EZI2Cs.c **** * Summary:
 148:Generated_Source\PSoC5/EZI2Cs.c **** *  Activates the hardware and begins component operation.Calls EZI2C_EnableInt()
 149:Generated_Source\PSoC5/EZI2Cs.c **** *  to enable the I2C component interrupt. It is not necessary to call
 150:Generated_Source\PSoC5/EZI2Cs.c **** *  EZI2C_Enable() because the EZI2C_Start() API calls this function, which is
 151:Generated_Source\PSoC5/EZI2Cs.c **** *  the preferred method to begin component operation.
 152:Generated_Source\PSoC5/EZI2Cs.c **** *
 153:Generated_Source\PSoC5/EZI2Cs.c **** * Parameters:
 154:Generated_Source\PSoC5/EZI2Cs.c **** *  None.
ARM GAS  C:\Users\ilya\AppData\Local\Temp\ccyVgDjv.s 			page 6


 155:Generated_Source\PSoC5/EZI2Cs.c **** *
 156:Generated_Source\PSoC5/EZI2Cs.c **** * Return:
 157:Generated_Source\PSoC5/EZI2Cs.c **** *  None.
 158:Generated_Source\PSoC5/EZI2Cs.c **** *
 159:Generated_Source\PSoC5/EZI2Cs.c **** *******************************************************************************/
 160:Generated_Source\PSoC5/EZI2Cs.c **** void EZI2Cs_Enable(void) 
 161:Generated_Source\PSoC5/EZI2Cs.c **** {
 132              		.loc 1 161 0
 133              		.cfi_startproc
 134              		@ args = 0, pretend = 0, frame = 8
 135              		@ frame_needed = 1, uses_anonymous_args = 0
 136 0000 80B5     		push	{r7, lr}
 137              		.cfi_def_cfa_offset 8
 138              		.cfi_offset 7, -8
 139              		.cfi_offset 14, -4
 140 0002 82B0     		sub	sp, sp, #8
 141              		.cfi_def_cfa_offset 16
 142 0004 00AF     		add	r7, sp, #0
 143              		.cfi_def_cfa_register 7
 162:Generated_Source\PSoC5/EZI2Cs.c ****     uint8 intState;
 163:Generated_Source\PSoC5/EZI2Cs.c **** 
 164:Generated_Source\PSoC5/EZI2Cs.c ****     /* Enable power to block */
 165:Generated_Source\PSoC5/EZI2Cs.c ****     intState = CyEnterCriticalSection();
 144              		.loc 1 165 0
 145 0006 FFF7FEFF 		bl	CyEnterCriticalSection
 146 000a 0346     		mov	r3, r0
 147 000c FB71     		strb	r3, [r7, #7]
 166:Generated_Source\PSoC5/EZI2Cs.c ****     EZI2Cs_PM_ACT_CFG_REG  |= EZI2Cs_ACT_PWR_EN;
 148              		.loc 1 166 0
 149 000e 0E4A     		ldr	r2, .L5
 150 0010 0D4B     		ldr	r3, .L5
 151 0012 1B78     		ldrb	r3, [r3]
 152 0014 DBB2     		uxtb	r3, r3
 153 0016 43F00403 		orr	r3, r3, #4
 154 001a DBB2     		uxtb	r3, r3
 155 001c 1370     		strb	r3, [r2]
 167:Generated_Source\PSoC5/EZI2Cs.c ****     EZI2Cs_PM_STBY_CFG_REG |= EZI2Cs_STBY_PWR_EN;
 156              		.loc 1 167 0
 157 001e 0B4A     		ldr	r2, .L5+4
 158 0020 0A4B     		ldr	r3, .L5+4
 159 0022 1B78     		ldrb	r3, [r3]
 160 0024 DBB2     		uxtb	r3, r3
 161 0026 43F00403 		orr	r3, r3, #4
 162 002a DBB2     		uxtb	r3, r3
 163 002c 1370     		strb	r3, [r2]
 168:Generated_Source\PSoC5/EZI2Cs.c ****     CyExitCriticalSection(intState);
 164              		.loc 1 168 0
 165 002e FB79     		ldrb	r3, [r7, #7]	@ zero_extendqisi2
 166 0030 1846     		mov	r0, r3
 167 0032 FFF7FEFF 		bl	CyExitCriticalSection
 169:Generated_Source\PSoC5/EZI2Cs.c **** 
 170:Generated_Source\PSoC5/EZI2Cs.c ****     /* Enable interrupt to start operation */
 171:Generated_Source\PSoC5/EZI2Cs.c ****     EZI2Cs_EnableInt();
 168              		.loc 1 171 0
 169 0036 064B     		ldr	r3, .L5+8
 170 0038 4FF40042 		mov	r2, #32768
 171 003c 1A60     		str	r2, [r3]
ARM GAS  C:\Users\ilya\AppData\Local\Temp\ccyVgDjv.s 			page 7


 172:Generated_Source\PSoC5/EZI2Cs.c **** }
 172              		.loc 1 172 0
 173 003e 00BF     		nop
 174 0040 0837     		adds	r7, r7, #8
 175              		.cfi_def_cfa_offset 8
 176 0042 BD46     		mov	sp, r7
 177              		.cfi_def_cfa_register 13
 178              		@ sp needed
 179 0044 80BD     		pop	{r7, pc}
 180              	.L6:
 181 0046 00BF     		.align	2
 182              	.L5:
 183 0048 A5430040 		.word	1073759141
 184 004c B5430040 		.word	1073759157
 185 0050 00E100E0 		.word	-536813312
 186              		.cfi_endproc
 187              	.LFE1:
 188              		.size	EZI2Cs_Enable, .-EZI2Cs_Enable
 189              		.section	.text.EZI2Cs_Start,"ax",%progbits
 190              		.align	2
 191              		.global	EZI2Cs_Start
 192              		.thumb
 193              		.thumb_func
 194              		.type	EZI2Cs_Start, %function
 195              	EZI2Cs_Start:
 196              	.LFB2:
 173:Generated_Source\PSoC5/EZI2Cs.c **** 
 174:Generated_Source\PSoC5/EZI2Cs.c **** 
 175:Generated_Source\PSoC5/EZI2Cs.c **** /*******************************************************************************
 176:Generated_Source\PSoC5/EZI2Cs.c **** * Function Name: EZI2Cs_Start
 177:Generated_Source\PSoC5/EZI2Cs.c **** ********************************************************************************
 178:Generated_Source\PSoC5/EZI2Cs.c **** *
 179:Generated_Source\PSoC5/EZI2Cs.c **** * Summary:
 180:Generated_Source\PSoC5/EZI2Cs.c **** *  This is the preferred method to begin component operation. EZI2C_Start(),
 181:Generated_Source\PSoC5/EZI2Cs.c **** *  calls the EZI2C_Init() function, and then calls the EZI2C_Enable() function.
 182:Generated_Source\PSoC5/EZI2Cs.c **** *  It must be executed before I2C bus operation.
 183:Generated_Source\PSoC5/EZI2Cs.c **** *  This function enables the component interrupt because interrupt is required
 184:Generated_Source\PSoC5/EZI2Cs.c **** *  for most component operations.
 185:Generated_Source\PSoC5/EZI2Cs.c **** *
 186:Generated_Source\PSoC5/EZI2Cs.c **** * Parameters:
 187:Generated_Source\PSoC5/EZI2Cs.c **** *  None.
 188:Generated_Source\PSoC5/EZI2Cs.c **** *
 189:Generated_Source\PSoC5/EZI2Cs.c **** * Return:
 190:Generated_Source\PSoC5/EZI2Cs.c **** *  None.
 191:Generated_Source\PSoC5/EZI2Cs.c **** *
 192:Generated_Source\PSoC5/EZI2Cs.c **** * Reentrant:
 193:Generated_Source\PSoC5/EZI2Cs.c **** *  No.
 194:Generated_Source\PSoC5/EZI2Cs.c **** *
 195:Generated_Source\PSoC5/EZI2Cs.c **** *******************************************************************************/
 196:Generated_Source\PSoC5/EZI2Cs.c **** void EZI2Cs_Start(void) 
 197:Generated_Source\PSoC5/EZI2Cs.c **** {
 197              		.loc 1 197 0
 198              		.cfi_startproc
 199              		@ args = 0, pretend = 0, frame = 0
 200              		@ frame_needed = 1, uses_anonymous_args = 0
 201 0000 80B5     		push	{r7, lr}
 202              		.cfi_def_cfa_offset 8
ARM GAS  C:\Users\ilya\AppData\Local\Temp\ccyVgDjv.s 			page 8


 203              		.cfi_offset 7, -8
 204              		.cfi_offset 14, -4
 205 0002 00AF     		add	r7, sp, #0
 206              		.cfi_def_cfa_register 7
 198:Generated_Source\PSoC5/EZI2Cs.c ****     if (0u == EZI2Cs_initVar)
 207              		.loc 1 198 0
 208 0004 064B     		ldr	r3, .L9
 209 0006 1B78     		ldrb	r3, [r3]	@ zero_extendqisi2
 210 0008 002B     		cmp	r3, #0
 211 000a 04D1     		bne	.L8
 199:Generated_Source\PSoC5/EZI2Cs.c ****     {
 200:Generated_Source\PSoC5/EZI2Cs.c ****         EZI2Cs_Init();
 212              		.loc 1 200 0
 213 000c FFF7FEFF 		bl	EZI2Cs_Init
 201:Generated_Source\PSoC5/EZI2Cs.c ****         EZI2Cs_initVar = 1u; /* Component initialized */
 214              		.loc 1 201 0
 215 0010 034B     		ldr	r3, .L9
 216 0012 0122     		movs	r2, #1
 217 0014 1A70     		strb	r2, [r3]
 218              	.L8:
 202:Generated_Source\PSoC5/EZI2Cs.c ****     }
 203:Generated_Source\PSoC5/EZI2Cs.c **** 
 204:Generated_Source\PSoC5/EZI2Cs.c ****     EZI2Cs_Enable();
 219              		.loc 1 204 0
 220 0016 FFF7FEFF 		bl	EZI2Cs_Enable
 205:Generated_Source\PSoC5/EZI2Cs.c **** }
 221              		.loc 1 205 0
 222 001a 00BF     		nop
 223 001c 80BD     		pop	{r7, pc}
 224              	.L10:
 225 001e 00BF     		.align	2
 226              	.L9:
 227 0020 00000000 		.word	EZI2Cs_initVar
 228              		.cfi_endproc
 229              	.LFE2:
 230              		.size	EZI2Cs_Start, .-EZI2Cs_Start
 231              		.section	.text.EZI2Cs_Stop,"ax",%progbits
 232              		.align	2
 233              		.global	EZI2Cs_Stop
 234              		.thumb
 235              		.thumb_func
 236              		.type	EZI2Cs_Stop, %function
 237              	EZI2Cs_Stop:
 238              	.LFB3:
 206:Generated_Source\PSoC5/EZI2Cs.c **** 
 207:Generated_Source\PSoC5/EZI2Cs.c **** 
 208:Generated_Source\PSoC5/EZI2Cs.c **** /*******************************************************************************
 209:Generated_Source\PSoC5/EZI2Cs.c **** * Function Name: EZI2Cs_Stop
 210:Generated_Source\PSoC5/EZI2Cs.c **** ********************************************************************************
 211:Generated_Source\PSoC5/EZI2Cs.c **** *
 212:Generated_Source\PSoC5/EZI2Cs.c **** * Summary:
 213:Generated_Source\PSoC5/EZI2Cs.c **** *  Disables I2C hardware and component interrupt. The I2C bus is released if it
 214:Generated_Source\PSoC5/EZI2Cs.c **** *  was locked up by the component.
 215:Generated_Source\PSoC5/EZI2Cs.c **** *
 216:Generated_Source\PSoC5/EZI2Cs.c **** * Parameters:
 217:Generated_Source\PSoC5/EZI2Cs.c **** *  None.
 218:Generated_Source\PSoC5/EZI2Cs.c **** *
ARM GAS  C:\Users\ilya\AppData\Local\Temp\ccyVgDjv.s 			page 9


 219:Generated_Source\PSoC5/EZI2Cs.c **** * Return:
 220:Generated_Source\PSoC5/EZI2Cs.c **** *  None.
 221:Generated_Source\PSoC5/EZI2Cs.c **** *
 222:Generated_Source\PSoC5/EZI2Cs.c **** *******************************************************************************/
 223:Generated_Source\PSoC5/EZI2Cs.c **** void EZI2Cs_Stop(void) 
 224:Generated_Source\PSoC5/EZI2Cs.c **** {
 239              		.loc 1 224 0
 240              		.cfi_startproc
 241              		@ args = 0, pretend = 0, frame = 8
 242              		@ frame_needed = 1, uses_anonymous_args = 0
 243 0000 80B5     		push	{r7, lr}
 244              		.cfi_def_cfa_offset 8
 245              		.cfi_offset 7, -8
 246              		.cfi_offset 14, -4
 247 0002 82B0     		sub	sp, sp, #8
 248              		.cfi_def_cfa_offset 16
 249 0004 00AF     		add	r7, sp, #0
 250              		.cfi_def_cfa_register 7
 225:Generated_Source\PSoC5/EZI2Cs.c ****     uint8  intState;
 226:Generated_Source\PSoC5/EZI2Cs.c ****     uint16 blockResetCycles;
 227:Generated_Source\PSoC5/EZI2Cs.c **** 
 228:Generated_Source\PSoC5/EZI2Cs.c ****     EZI2Cs_DisableInt();
 251              		.loc 1 228 0
 252 0006 354B     		ldr	r3, .L12
 253 0008 4FF40042 		mov	r2, #32768
 254 000c 1A60     		str	r2, [r3]
 229:Generated_Source\PSoC5/EZI2Cs.c **** 
 230:Generated_Source\PSoC5/EZI2Cs.c ****     /* Store registers effected by block disable */
 231:Generated_Source\PSoC5/EZI2Cs.c ****     EZI2Cs_backup.adr     = EZI2Cs_ADDR_REG;
 255              		.loc 1 231 0
 256 000e 344B     		ldr	r3, .L12+4
 257 0010 1B78     		ldrb	r3, [r3]
 258 0012 DAB2     		uxtb	r2, r3
 259 0014 334B     		ldr	r3, .L12+8
 260 0016 9A70     		strb	r2, [r3, #2]
 232:Generated_Source\PSoC5/EZI2Cs.c ****     EZI2Cs_backup.clkDiv1 = EZI2Cs_CLKDIV1_REG;
 261              		.loc 1 232 0
 262 0018 334B     		ldr	r3, .L12+12
 263 001a 1B78     		ldrb	r3, [r3]
 264 001c DAB2     		uxtb	r2, r3
 265 001e 314B     		ldr	r3, .L12+8
 266 0020 1A71     		strb	r2, [r3, #4]
 233:Generated_Source\PSoC5/EZI2Cs.c ****     EZI2Cs_backup.clkDiv2 = EZI2Cs_CLKDIV2_REG;
 267              		.loc 1 233 0
 268 0022 324B     		ldr	r3, .L12+16
 269 0024 1B78     		ldrb	r3, [r3]
 270 0026 DAB2     		uxtb	r2, r3
 271 0028 2E4B     		ldr	r3, .L12+8
 272 002a 5A71     		strb	r2, [r3, #5]
 234:Generated_Source\PSoC5/EZI2Cs.c **** 
 235:Generated_Source\PSoC5/EZI2Cs.c ****     /* Calculate number of cycles to reset block */
 236:Generated_Source\PSoC5/EZI2Cs.c ****     blockResetCycles = ((uint16) ((uint16) EZI2Cs_CLKDIV2_REG << 8u) | EZI2Cs_CLKDIV1_REG) + 1u;
 273              		.loc 1 236 0
 274 002c 2F4B     		ldr	r3, .L12+16
 275 002e 1B78     		ldrb	r3, [r3]
 276 0030 DBB2     		uxtb	r3, r3
 277 0032 9BB2     		uxth	r3, r3
ARM GAS  C:\Users\ilya\AppData\Local\Temp\ccyVgDjv.s 			page 10


 278 0034 1B02     		lsls	r3, r3, #8
 279 0036 9AB2     		uxth	r2, r3
 280 0038 2B4B     		ldr	r3, .L12+12
 281 003a 1B78     		ldrb	r3, [r3]
 282 003c DBB2     		uxtb	r3, r3
 283 003e 9BB2     		uxth	r3, r3
 284 0040 1343     		orrs	r3, r3, r2
 285 0042 9BB2     		uxth	r3, r3
 286 0044 0133     		adds	r3, r3, #1
 287 0046 FB80     		strh	r3, [r7, #6]	@ movhi
 237:Generated_Source\PSoC5/EZI2Cs.c **** 
 238:Generated_Source\PSoC5/EZI2Cs.c ****     /* Disable block */
 239:Generated_Source\PSoC5/EZI2Cs.c ****     EZI2Cs_CFG_REG &= (uint8) ~EZI2Cs_CFG_EN_SLAVE;
 288              		.loc 1 239 0
 289 0048 294A     		ldr	r2, .L12+20
 290 004a 294B     		ldr	r3, .L12+20
 291 004c 1B78     		ldrb	r3, [r3]
 292 004e DBB2     		uxtb	r3, r3
 293 0050 23F00103 		bic	r3, r3, #1
 294 0054 DBB2     		uxtb	r3, r3
 295 0056 1370     		strb	r3, [r2]
 240:Generated_Source\PSoC5/EZI2Cs.c ****     /* Wait for block reset before disable power */
 241:Generated_Source\PSoC5/EZI2Cs.c ****     CyDelayCycles((uint32) blockResetCycles);
 296              		.loc 1 241 0
 297 0058 FB88     		ldrh	r3, [r7, #6]
 298 005a 1846     		mov	r0, r3
 299 005c FFF7FEFF 		bl	CyDelayCycles
 242:Generated_Source\PSoC5/EZI2Cs.c **** 
 243:Generated_Source\PSoC5/EZI2Cs.c ****     /* Disable power to block */
 244:Generated_Source\PSoC5/EZI2Cs.c ****     intState = CyEnterCriticalSection();
 300              		.loc 1 244 0
 301 0060 FFF7FEFF 		bl	CyEnterCriticalSection
 302 0064 0346     		mov	r3, r0
 303 0066 7B71     		strb	r3, [r7, #5]
 245:Generated_Source\PSoC5/EZI2Cs.c ****     EZI2Cs_PM_ACT_CFG_REG  &= (uint8) ~EZI2Cs_ACT_PWR_EN;
 304              		.loc 1 245 0
 305 0068 224A     		ldr	r2, .L12+24
 306 006a 224B     		ldr	r3, .L12+24
 307 006c 1B78     		ldrb	r3, [r3]
 308 006e DBB2     		uxtb	r3, r3
 309 0070 23F00403 		bic	r3, r3, #4
 310 0074 DBB2     		uxtb	r3, r3
 311 0076 1370     		strb	r3, [r2]
 246:Generated_Source\PSoC5/EZI2Cs.c ****     EZI2Cs_PM_STBY_CFG_REG &= (uint8) ~EZI2Cs_STBY_PWR_EN;
 312              		.loc 1 246 0
 313 0078 1F4A     		ldr	r2, .L12+28
 314 007a 1F4B     		ldr	r3, .L12+28
 315 007c 1B78     		ldrb	r3, [r3]
 316 007e DBB2     		uxtb	r3, r3
 317 0080 23F00403 		bic	r3, r3, #4
 318 0084 DBB2     		uxtb	r3, r3
 319 0086 1370     		strb	r3, [r2]
 247:Generated_Source\PSoC5/EZI2Cs.c ****     CyExitCriticalSection(intState);
 320              		.loc 1 247 0
 321 0088 7B79     		ldrb	r3, [r7, #5]	@ zero_extendqisi2
 322 008a 1846     		mov	r0, r3
 323 008c FFF7FEFF 		bl	CyExitCriticalSection
ARM GAS  C:\Users\ilya\AppData\Local\Temp\ccyVgDjv.s 			page 11


 248:Generated_Source\PSoC5/EZI2Cs.c **** 
 249:Generated_Source\PSoC5/EZI2Cs.c ****     /* Enable block */
 250:Generated_Source\PSoC5/EZI2Cs.c ****     EZI2Cs_CFG_REG |= (uint8) EZI2Cs_CFG_EN_SLAVE;
 324              		.loc 1 250 0
 325 0090 174A     		ldr	r2, .L12+20
 326 0092 174B     		ldr	r3, .L12+20
 327 0094 1B78     		ldrb	r3, [r3]
 328 0096 DBB2     		uxtb	r3, r3
 329 0098 43F00103 		orr	r3, r3, #1
 330 009c DBB2     		uxtb	r3, r3
 331 009e 1370     		strb	r3, [r2]
 251:Generated_Source\PSoC5/EZI2Cs.c **** 
 252:Generated_Source\PSoC5/EZI2Cs.c ****     /* Restore registers effected by block disable. Ticket ID#198004 */
 253:Generated_Source\PSoC5/EZI2Cs.c ****     EZI2Cs_ADDR_REG    = EZI2Cs_backup.adr;
 332              		.loc 1 253 0
 333 00a0 0F4B     		ldr	r3, .L12+4
 334 00a2 104A     		ldr	r2, .L12+8
 335 00a4 9278     		ldrb	r2, [r2, #2]	@ zero_extendqisi2
 336 00a6 1A70     		strb	r2, [r3]
 254:Generated_Source\PSoC5/EZI2Cs.c ****     EZI2Cs_ADDR_REG    = EZI2Cs_backup.adr;
 337              		.loc 1 254 0
 338 00a8 0D4B     		ldr	r3, .L12+4
 339 00aa 0E4A     		ldr	r2, .L12+8
 340 00ac 9278     		ldrb	r2, [r2, #2]	@ zero_extendqisi2
 341 00ae 1A70     		strb	r2, [r3]
 255:Generated_Source\PSoC5/EZI2Cs.c ****     EZI2Cs_CLKDIV1_REG = EZI2Cs_backup.clkDiv1;
 342              		.loc 1 255 0
 343 00b0 0D4B     		ldr	r3, .L12+12
 344 00b2 0C4A     		ldr	r2, .L12+8
 345 00b4 1279     		ldrb	r2, [r2, #4]	@ zero_extendqisi2
 346 00b6 1A70     		strb	r2, [r3]
 256:Generated_Source\PSoC5/EZI2Cs.c ****     EZI2Cs_CLKDIV2_REG = EZI2Cs_backup.clkDiv2;
 347              		.loc 1 256 0
 348 00b8 0C4B     		ldr	r3, .L12+16
 349 00ba 0A4A     		ldr	r2, .L12+8
 350 00bc 5279     		ldrb	r2, [r2, #5]	@ zero_extendqisi2
 351 00be 1A70     		strb	r2, [r3]
 257:Generated_Source\PSoC5/EZI2Cs.c **** 
 258:Generated_Source\PSoC5/EZI2Cs.c ****     EZI2Cs_ClearPendingInt();
 352              		.loc 1 258 0
 353 00c0 0E4B     		ldr	r3, .L12+32
 354 00c2 4FF40042 		mov	r2, #32768
 355 00c6 1A60     		str	r2, [r3]
 259:Generated_Source\PSoC5/EZI2Cs.c **** 
 260:Generated_Source\PSoC5/EZI2Cs.c ****     /* Reset state and status to default */
 261:Generated_Source\PSoC5/EZI2Cs.c ****     EZI2Cs_curState  = EZI2Cs_SM_IDLE;
 356              		.loc 1 261 0
 357 00c8 0D4B     		ldr	r3, .L12+36
 358 00ca 0022     		movs	r2, #0
 359 00cc 1A70     		strb	r2, [r3]
 262:Generated_Source\PSoC5/EZI2Cs.c ****     EZI2Cs_curStatus = 0u;
 360              		.loc 1 262 0
 361 00ce 0D4B     		ldr	r3, .L12+40
 362 00d0 0022     		movs	r2, #0
 363 00d2 1A70     		strb	r2, [r3]
 263:Generated_Source\PSoC5/EZI2Cs.c **** }
 364              		.loc 1 263 0
ARM GAS  C:\Users\ilya\AppData\Local\Temp\ccyVgDjv.s 			page 12


 365 00d4 00BF     		nop
 366 00d6 0837     		adds	r7, r7, #8
 367              		.cfi_def_cfa_offset 8
 368 00d8 BD46     		mov	sp, r7
 369              		.cfi_def_cfa_register 13
 370              		@ sp needed
 371 00da 80BD     		pop	{r7, pc}
 372              	.L13:
 373              		.align	2
 374              	.L12:
 375 00dc 80E100E0 		.word	-536813184
 376 00e0 CA490040 		.word	1073760714
 377 00e4 00000000 		.word	EZI2Cs_backup
 378 00e8 DB490040 		.word	1073760731
 379 00ec DC490040 		.word	1073760732
 380 00f0 D6490040 		.word	1073760726
 381 00f4 A5430040 		.word	1073759141
 382 00f8 B5430040 		.word	1073759157
 383 00fc 80E200E0 		.word	-536812928
 384 0100 00000000 		.word	EZI2Cs_curState
 385 0104 00000000 		.word	EZI2Cs_curStatus
 386              		.cfi_endproc
 387              	.LFE3:
 388              		.size	EZI2Cs_Stop, .-EZI2Cs_Stop
 389              		.section	.text.EZI2Cs_SetAddress1,"ax",%progbits
 390              		.align	2
 391              		.global	EZI2Cs_SetAddress1
 392              		.thumb
 393              		.thumb_func
 394              		.type	EZI2Cs_SetAddress1, %function
 395              	EZI2Cs_SetAddress1:
 396              	.LFB4:
 264:Generated_Source\PSoC5/EZI2Cs.c **** 
 265:Generated_Source\PSoC5/EZI2Cs.c **** 
 266:Generated_Source\PSoC5/EZI2Cs.c **** /*******************************************************************************
 267:Generated_Source\PSoC5/EZI2Cs.c **** * Function Name: EZI2Cs_SetAddress1
 268:Generated_Source\PSoC5/EZI2Cs.c **** ********************************************************************************
 269:Generated_Source\PSoC5/EZI2Cs.c **** *
 270:Generated_Source\PSoC5/EZI2Cs.c **** * Summary:
 271:Generated_Source\PSoC5/EZI2Cs.c **** *  Sets the primary I2C slave address. This address is used by the master to
 272:Generated_Source\PSoC5/EZI2Cs.c **** *  access the primary data buffer.
 273:Generated_Source\PSoC5/EZI2Cs.c **** *
 274:Generated_Source\PSoC5/EZI2Cs.c **** * Parameters:
 275:Generated_Source\PSoC5/EZI2Cs.c **** *  address: Primary I2C slave address.
 276:Generated_Source\PSoC5/EZI2Cs.c **** *           This address is the 7-bit right-justified slave address and does not
 277:Generated_Source\PSoC5/EZI2Cs.c **** *           include the R/W bit.
 278:Generated_Source\PSoC5/EZI2Cs.c **** *           This value can be any address between 0 and 127 (0x00 to 0x7F).
 279:Generated_Source\PSoC5/EZI2Cs.c **** *
 280:Generated_Source\PSoC5/EZI2Cs.c **** * Return:
 281:Generated_Source\PSoC5/EZI2Cs.c **** *  None.
 282:Generated_Source\PSoC5/EZI2Cs.c **** *
 283:Generated_Source\PSoC5/EZI2Cs.c **** * Global variables:
 284:Generated_Source\PSoC5/EZI2Cs.c **** *  EZI2Cs_addrS1 - A new slave address for the first slave device is
 285:Generated_Source\PSoC5/EZI2Cs.c **** *  saved in it, if the component is configured to act as two slave devices.
 286:Generated_Source\PSoC5/EZI2Cs.c **** *
 287:Generated_Source\PSoC5/EZI2Cs.c **** * Reentrant:
 288:Generated_Source\PSoC5/EZI2Cs.c **** *  No, if two addresses are used.
ARM GAS  C:\Users\ilya\AppData\Local\Temp\ccyVgDjv.s 			page 13


 289:Generated_Source\PSoC5/EZI2Cs.c **** *
 290:Generated_Source\PSoC5/EZI2Cs.c **** *******************************************************************************/
 291:Generated_Source\PSoC5/EZI2Cs.c **** void EZI2Cs_SetAddress1(uint8 address) 
 292:Generated_Source\PSoC5/EZI2Cs.c **** {
 397              		.loc 1 292 0
 398              		.cfi_startproc
 399              		@ args = 0, pretend = 0, frame = 8
 400              		@ frame_needed = 1, uses_anonymous_args = 0
 401              		@ link register save eliminated.
 402 0000 80B4     		push	{r7}
 403              		.cfi_def_cfa_offset 4
 404              		.cfi_offset 7, -4
 405 0002 83B0     		sub	sp, sp, #12
 406              		.cfi_def_cfa_offset 16
 407 0004 00AF     		add	r7, sp, #0
 408              		.cfi_def_cfa_register 7
 409 0006 0346     		mov	r3, r0
 410 0008 FB71     		strb	r3, [r7, #7]
 293:Generated_Source\PSoC5/EZI2Cs.c **** #if (EZI2Cs_ONE_ADDRESS == EZI2Cs_ADDRESSES)
 294:Generated_Source\PSoC5/EZI2Cs.c ****     EZI2Cs_ADDR_REG = (address & EZI2Cs_SADDR_MASK);
 411              		.loc 1 294 0
 412 000a 054A     		ldr	r2, .L15
 413 000c FB79     		ldrb	r3, [r7, #7]
 414 000e 03F07F03 		and	r3, r3, #127
 415 0012 DBB2     		uxtb	r3, r3
 416 0014 1370     		strb	r3, [r2]
 295:Generated_Source\PSoC5/EZI2Cs.c **** #else
 296:Generated_Source\PSoC5/EZI2Cs.c ****     EZI2Cs_addrS1   = (address & EZI2Cs_SADDR_MASK);
 297:Generated_Source\PSoC5/EZI2Cs.c **** #endif /* (EZI2Cs_ONE_ADDRESS == EZI2Cs_ADDRESSES) */
 298:Generated_Source\PSoC5/EZI2Cs.c **** }
 417              		.loc 1 298 0
 418 0016 00BF     		nop
 419 0018 0C37     		adds	r7, r7, #12
 420              		.cfi_def_cfa_offset 4
 421 001a BD46     		mov	sp, r7
 422              		.cfi_def_cfa_register 13
 423              		@ sp needed
 424 001c 80BC     		pop	{r7}
 425              		.cfi_restore 7
 426              		.cfi_def_cfa_offset 0
 427 001e 7047     		bx	lr
 428              	.L16:
 429              		.align	2
 430              	.L15:
 431 0020 CA490040 		.word	1073760714
 432              		.cfi_endproc
 433              	.LFE4:
 434              		.size	EZI2Cs_SetAddress1, .-EZI2Cs_SetAddress1
 435              		.section	.text.EZI2Cs_GetAddress1,"ax",%progbits
 436              		.align	2
 437              		.global	EZI2Cs_GetAddress1
 438              		.thumb
 439              		.thumb_func
 440              		.type	EZI2Cs_GetAddress1, %function
 441              	EZI2Cs_GetAddress1:
 442              	.LFB5:
 299:Generated_Source\PSoC5/EZI2Cs.c **** 
ARM GAS  C:\Users\ilya\AppData\Local\Temp\ccyVgDjv.s 			page 14


 300:Generated_Source\PSoC5/EZI2Cs.c **** 
 301:Generated_Source\PSoC5/EZI2Cs.c **** /*******************************************************************************
 302:Generated_Source\PSoC5/EZI2Cs.c **** * Function Name: EZI2Cs_GetAddress1
 303:Generated_Source\PSoC5/EZI2Cs.c **** ********************************************************************************
 304:Generated_Source\PSoC5/EZI2Cs.c **** *
 305:Generated_Source\PSoC5/EZI2Cs.c **** * Summary:
 306:Generated_Source\PSoC5/EZI2Cs.c **** *  Returns the primary I2C slave address.
 307:Generated_Source\PSoC5/EZI2Cs.c **** *  This address is the 7-bit right-justified slave address and does not include
 308:Generated_Source\PSoC5/EZI2Cs.c **** *  the R/W bit.
 309:Generated_Source\PSoC5/EZI2Cs.c **** *
 310:Generated_Source\PSoC5/EZI2Cs.c **** * Parameters:
 311:Generated_Source\PSoC5/EZI2Cs.c **** *  None.
 312:Generated_Source\PSoC5/EZI2Cs.c **** *
 313:Generated_Source\PSoC5/EZI2Cs.c **** * Return:
 314:Generated_Source\PSoC5/EZI2Cs.c **** *  Primary I2C slave address.
 315:Generated_Source\PSoC5/EZI2Cs.c **** *
 316:Generated_Source\PSoC5/EZI2Cs.c **** * Global variables:
 317:Generated_Source\PSoC5/EZI2Cs.c **** *  EZI2Cs_addrS1 - If component is configured to has two slave
 318:Generated_Source\PSoC5/EZI2Cs.c **** *  addresses than the primary address is saved here, otherwise the address is written to
 319:Generated_Source\PSoC5/EZI2Cs.c **** *  the register.
 320:Generated_Source\PSoC5/EZI2Cs.c **** *
 321:Generated_Source\PSoC5/EZI2Cs.c **** * Reentrant:
 322:Generated_Source\PSoC5/EZI2Cs.c **** *  No.
 323:Generated_Source\PSoC5/EZI2Cs.c **** *
 324:Generated_Source\PSoC5/EZI2Cs.c **** *******************************************************************************/
 325:Generated_Source\PSoC5/EZI2Cs.c **** uint8 EZI2Cs_GetAddress1(void) 
 326:Generated_Source\PSoC5/EZI2Cs.c **** {
 443              		.loc 1 326 0
 444              		.cfi_startproc
 445              		@ args = 0, pretend = 0, frame = 0
 446              		@ frame_needed = 1, uses_anonymous_args = 0
 447              		@ link register save eliminated.
 448 0000 80B4     		push	{r7}
 449              		.cfi_def_cfa_offset 4
 450              		.cfi_offset 7, -4
 451 0002 00AF     		add	r7, sp, #0
 452              		.cfi_def_cfa_register 7
 327:Generated_Source\PSoC5/EZI2Cs.c **** #if (EZI2Cs_ONE_ADDRESS == EZI2Cs_ADDRESSES)
 328:Generated_Source\PSoC5/EZI2Cs.c ****     return (EZI2Cs_ADDR_REG);
 453              		.loc 1 328 0
 454 0004 034B     		ldr	r3, .L19
 455 0006 1B78     		ldrb	r3, [r3]
 456 0008 DBB2     		uxtb	r3, r3
 329:Generated_Source\PSoC5/EZI2Cs.c **** #else
 330:Generated_Source\PSoC5/EZI2Cs.c ****     return (EZI2Cs_addrS1);
 331:Generated_Source\PSoC5/EZI2Cs.c **** #endif /* (EZI2Cs_ONE_ADDRESS == EZI2Cs_ADDRESSES) */
 332:Generated_Source\PSoC5/EZI2Cs.c **** }
 457              		.loc 1 332 0
 458 000a 1846     		mov	r0, r3
 459 000c BD46     		mov	sp, r7
 460              		.cfi_def_cfa_register 13
 461              		@ sp needed
 462 000e 80BC     		pop	{r7}
 463              		.cfi_restore 7
 464              		.cfi_def_cfa_offset 0
 465 0010 7047     		bx	lr
 466              	.L20:
ARM GAS  C:\Users\ilya\AppData\Local\Temp\ccyVgDjv.s 			page 15


 467 0012 00BF     		.align	2
 468              	.L19:
 469 0014 CA490040 		.word	1073760714
 470              		.cfi_endproc
 471              	.LFE5:
 472              		.size	EZI2Cs_GetAddress1, .-EZI2Cs_GetAddress1
 473              		.section	.text.EZI2Cs_GetActivity,"ax",%progbits
 474              		.align	2
 475              		.global	EZI2Cs_GetActivity
 476              		.thumb
 477              		.thumb_func
 478              		.type	EZI2Cs_GetActivity, %function
 479              	EZI2Cs_GetActivity:
 480              	.LFB6:
 333:Generated_Source\PSoC5/EZI2Cs.c **** 
 334:Generated_Source\PSoC5/EZI2Cs.c **** 
 335:Generated_Source\PSoC5/EZI2Cs.c **** /*******************************************************************************
 336:Generated_Source\PSoC5/EZI2Cs.c **** * Function Name: EZI2Cs_GetActivity
 337:Generated_Source\PSoC5/EZI2Cs.c **** ********************************************************************************
 338:Generated_Source\PSoC5/EZI2Cs.c **** *
 339:Generated_Source\PSoC5/EZI2Cs.c **** * Summary:
 340:Generated_Source\PSoC5/EZI2Cs.c **** *  Returns a non-zero value if an I2C read or write cycle has occurred since
 341:Generated_Source\PSoC5/EZI2Cs.c **** *  the last time this function was called. The activity flag resets to zero at
 342:Generated_Source\PSoC5/EZI2Cs.c **** *  the end of this function call.
 343:Generated_Source\PSoC5/EZI2Cs.c **** *  The Read and Write busy flags are cleared when read, but the “BUSY” flag is
 344:Generated_Source\PSoC5/EZI2Cs.c **** *  only cleared when slave is free (i.e master finishes communication with
 345:Generated_Source\PSoC5/EZI2Cs.c **** *  slave generating Stop or repeated Start condition).
 346:Generated_Source\PSoC5/EZI2Cs.c **** *
 347:Generated_Source\PSoC5/EZI2Cs.c **** * Parameters:
 348:Generated_Source\PSoC5/EZI2Cs.c **** *  None
 349:Generated_Source\PSoC5/EZI2Cs.c **** *
 350:Generated_Source\PSoC5/EZI2Cs.c **** * Return:
 351:Generated_Source\PSoC5/EZI2Cs.c **** *  Status of I2C activity.
 352:Generated_Source\PSoC5/EZI2Cs.c **** *
 353:Generated_Source\PSoC5/EZI2Cs.c **** *   EZI2Cs_STATUS_READ1   Set if a Read sequence is detected for the first
 354:Generated_Source\PSoC5/EZI2Cs.c **** *                                   address. Cleared when the status is read.
 355:Generated_Source\PSoC5/EZI2Cs.c **** *
 356:Generated_Source\PSoC5/EZI2Cs.c **** *   EZI2Cs_STATUS_WRITE1  Set if a Write sequence is detected for the first
 357:Generated_Source\PSoC5/EZI2Cs.c **** *                                   address. Cleared when the status is  read.
 358:Generated_Source\PSoC5/EZI2Cs.c **** *
 359:Generated_Source\PSoC5/EZI2Cs.c **** *   EZI2Cs_STATUS_READ2   Set if a Read sequence is detected for the second
 360:Generated_Source\PSoC5/EZI2Cs.c **** *                                   address (if enabled). Cleared when the status
 361:Generated_Source\PSoC5/EZI2Cs.c **** *                                   read.
 362:Generated_Source\PSoC5/EZI2Cs.c **** *
 363:Generated_Source\PSoC5/EZI2Cs.c **** *   EZI2Cs_STATUS_WRITE2  Set if a Write sequence is detected for the second
 364:Generated_Source\PSoC5/EZI2Cs.c **** *                                   address (if enabled). Cleared when the status is
 365:Generated_Source\PSoC5/EZI2Cs.c **** *                                   read.
 366:Generated_Source\PSoC5/EZI2Cs.c **** *
 367:Generated_Source\PSoC5/EZI2Cs.c **** *   EZI2Cs_STATUS_BUSY    Set when the master starts communication with
 368:Generated_Source\PSoC5/EZI2Cs.c **** *                                   the slave (the slave is addressed with Start or
 369:Generated_Source\PSoC5/EZI2Cs.c **** *                                   repeated Start) and cleared when the master
 370:Generated_Source\PSoC5/EZI2Cs.c **** *                                   finishes communication (a Stop or repeated
 371:Generated_Source\PSoC5/EZI2Cs.c **** *                                   Start condition is generated).
 372:Generated_Source\PSoC5/EZI2Cs.c **** *
 373:Generated_Source\PSoC5/EZI2Cs.c **** *   EZI2Cs_STATUS_ERR     Set when the I2C hardware is detected, cleared
 374:Generated_Source\PSoC5/EZI2Cs.c **** *                                   when the status is read.
 375:Generated_Source\PSoC5/EZI2Cs.c **** *
ARM GAS  C:\Users\ilya\AppData\Local\Temp\ccyVgDjv.s 			page 16


 376:Generated_Source\PSoC5/EZI2Cs.c **** * Global variables:
 377:Generated_Source\PSoC5/EZI2Cs.c **** *  EZI2Cs_curStatus - The global variable which stores the current
 378:Generated_Source\PSoC5/EZI2Cs.c **** *  component status.
 379:Generated_Source\PSoC5/EZI2Cs.c **** *
 380:Generated_Source\PSoC5/EZI2Cs.c **** * Reentrant:
 381:Generated_Source\PSoC5/EZI2Cs.c **** *  No.
 382:Generated_Source\PSoC5/EZI2Cs.c **** *
 383:Generated_Source\PSoC5/EZI2Cs.c **** *******************************************************************************/
 384:Generated_Source\PSoC5/EZI2Cs.c **** uint8 EZI2Cs_GetActivity(void) 
 385:Generated_Source\PSoC5/EZI2Cs.c **** {
 481              		.loc 1 385 0
 482              		.cfi_startproc
 483              		@ args = 0, pretend = 0, frame = 8
 484              		@ frame_needed = 1, uses_anonymous_args = 0
 485              		@ link register save eliminated.
 486 0000 80B4     		push	{r7}
 487              		.cfi_def_cfa_offset 4
 488              		.cfi_offset 7, -4
 489 0002 83B0     		sub	sp, sp, #12
 490              		.cfi_def_cfa_offset 16
 491 0004 00AF     		add	r7, sp, #0
 492              		.cfi_def_cfa_register 7
 386:Generated_Source\PSoC5/EZI2Cs.c ****     uint8 tmpStatus;
 387:Generated_Source\PSoC5/EZI2Cs.c **** 
 388:Generated_Source\PSoC5/EZI2Cs.c ****     EZI2Cs_DisableInt(); /* Lock from component interrupt */
 493              		.loc 1 388 0
 494 0006 0C4B     		ldr	r3, .L23
 495 0008 4FF40042 		mov	r2, #32768
 496 000c 1A60     		str	r2, [r3]
 389:Generated_Source\PSoC5/EZI2Cs.c **** 
 390:Generated_Source\PSoC5/EZI2Cs.c ****     tmpStatus = EZI2Cs_curStatus;
 497              		.loc 1 390 0
 498 000e 0B4B     		ldr	r3, .L23+4
 499 0010 1B78     		ldrb	r3, [r3]
 500 0012 FB71     		strb	r3, [r7, #7]
 391:Generated_Source\PSoC5/EZI2Cs.c ****     /* Clear status bits. Do not touch busy status */
 392:Generated_Source\PSoC5/EZI2Cs.c ****     EZI2Cs_curStatus &= EZI2Cs_STATUS_BUSY;
 501              		.loc 1 392 0
 502 0014 094B     		ldr	r3, .L23+4
 503 0016 1B78     		ldrb	r3, [r3]
 504 0018 DBB2     		uxtb	r3, r3
 505 001a 03F01003 		and	r3, r3, #16
 506 001e DAB2     		uxtb	r2, r3
 507 0020 064B     		ldr	r3, .L23+4
 508 0022 1A70     		strb	r2, [r3]
 393:Generated_Source\PSoC5/EZI2Cs.c **** 
 394:Generated_Source\PSoC5/EZI2Cs.c ****     EZI2Cs_EnableInt(); /* Release lock */
 509              		.loc 1 394 0
 510 0024 064B     		ldr	r3, .L23+8
 511 0026 4FF40042 		mov	r2, #32768
 512 002a 1A60     		str	r2, [r3]
 395:Generated_Source\PSoC5/EZI2Cs.c **** 
 396:Generated_Source\PSoC5/EZI2Cs.c ****     return (tmpStatus);
 513              		.loc 1 396 0
 514 002c FB79     		ldrb	r3, [r7, #7]	@ zero_extendqisi2
 397:Generated_Source\PSoC5/EZI2Cs.c **** }
 515              		.loc 1 397 0
ARM GAS  C:\Users\ilya\AppData\Local\Temp\ccyVgDjv.s 			page 17


 516 002e 1846     		mov	r0, r3
 517 0030 0C37     		adds	r7, r7, #12
 518              		.cfi_def_cfa_offset 4
 519 0032 BD46     		mov	sp, r7
 520              		.cfi_def_cfa_register 13
 521              		@ sp needed
 522 0034 80BC     		pop	{r7}
 523              		.cfi_restore 7
 524              		.cfi_def_cfa_offset 0
 525 0036 7047     		bx	lr
 526              	.L24:
 527              		.align	2
 528              	.L23:
 529 0038 80E100E0 		.word	-536813184
 530 003c 00000000 		.word	EZI2Cs_curStatus
 531 0040 00E100E0 		.word	-536813312
 532              		.cfi_endproc
 533              	.LFE6:
 534              		.size	EZI2Cs_GetActivity, .-EZI2Cs_GetActivity
 535              		.section	.text.EZI2Cs_SetBuffer1,"ax",%progbits
 536              		.align	2
 537              		.global	EZI2Cs_SetBuffer1
 538              		.thumb
 539              		.thumb_func
 540              		.type	EZI2Cs_SetBuffer1, %function
 541              	EZI2Cs_SetBuffer1:
 542              	.LFB7:
 398:Generated_Source\PSoC5/EZI2Cs.c **** 
 399:Generated_Source\PSoC5/EZI2Cs.c **** 
 400:Generated_Source\PSoC5/EZI2Cs.c **** /*******************************************************************************
 401:Generated_Source\PSoC5/EZI2Cs.c **** * Function Name: EZI2Cs_SetBuffer1
 402:Generated_Source\PSoC5/EZI2Cs.c **** ********************************************************************************
 403:Generated_Source\PSoC5/EZI2Cs.c **** *
 404:Generated_Source\PSoC5/EZI2Cs.c **** * Summary:
 405:Generated_Source\PSoC5/EZI2Cs.c **** *  Sets up the data buffer to be exposed to the master on a primary slave
 406:Generated_Source\PSoC5/EZI2Cs.c **** *  address request.
 407:Generated_Source\PSoC5/EZI2Cs.c **** *
 408:Generated_Source\PSoC5/EZI2Cs.c **** * Parameters:
 409:Generated_Source\PSoC5/EZI2Cs.c **** *  bufSize:    Size of the buffer in bytes.
 410:Generated_Source\PSoC5/EZI2Cs.c **** *  rwBoundary: Number of data bytes starting from the beginning of the buffer
 411:Generated_Source\PSoC5/EZI2Cs.c **** *              with read and write access. Data bytes located at offset
 412:Generated_Source\PSoC5/EZI2Cs.c **** *              rwBoundary or greater are read only.
 413:Generated_Source\PSoC5/EZI2Cs.c **** *              This value must be less than or equal to the buffer size.
 414:Generated_Source\PSoC5/EZI2Cs.c **** *  dataPtr:    Pointer to the data buffer.
 415:Generated_Source\PSoC5/EZI2Cs.c **** *
 416:Generated_Source\PSoC5/EZI2Cs.c **** * Return:
 417:Generated_Source\PSoC5/EZI2Cs.c **** *  None.
 418:Generated_Source\PSoC5/EZI2Cs.c **** *
 419:Generated_Source\PSoC5/EZI2Cs.c **** * Global variables:
 420:Generated_Source\PSoC5/EZI2Cs.c **** *  EZI2Cs_dataPtrS1 - Stores the pointer to the data exposed to an I2C
 421:Generated_Source\PSoC5/EZI2Cs.c **** *  master for the first slave address, is modified with the the new pointer to    the    ?? no sens
 422:Generated_Source\PSoC5/EZI2Cs.c **** *  data passed by the function parameter.
 423:Generated_Source\PSoC5/EZI2Cs.c **** *
 424:Generated_Source\PSoC5/EZI2Cs.c **** *  EZI2Cs_rwOffsetS1 - Stores an offset for read and write operations, is
 425:Generated_Source\PSoC5/EZI2Cs.c **** *  modified at each write sequence of the first slave address is?? reset.   ?
 426:Generated_Source\PSoC5/EZI2Cs.c **** *
 427:Generated_Source\PSoC5/EZI2Cs.c **** *  EZI2Cs_rwIndexS1 - Stores the pointer to the next value to be read or
ARM GAS  C:\Users\ilya\AppData\Local\Temp\ccyVgDjv.s 			page 18


 428:Generated_Source\PSoC5/EZI2Cs.c **** *  written for the first slave address is?? set to 0.  ??
 429:Generated_Source\PSoC5/EZI2Cs.c **** *
 430:Generated_Source\PSoC5/EZI2Cs.c **** * Reentrant:
 431:Generated_Source\PSoC5/EZI2Cs.c **** *  No.
 432:Generated_Source\PSoC5/EZI2Cs.c **** *
 433:Generated_Source\PSoC5/EZI2Cs.c **** *******************************************************************************/
 434:Generated_Source\PSoC5/EZI2Cs.c **** void EZI2Cs_SetBuffer1(uint16 bufSize, uint16 rwBoundary, volatile uint8 * dataPtr) 
 435:Generated_Source\PSoC5/EZI2Cs.c **** {
 543              		.loc 1 435 0
 544              		.cfi_startproc
 545              		@ args = 0, pretend = 0, frame = 8
 546              		@ frame_needed = 1, uses_anonymous_args = 0
 547              		@ link register save eliminated.
 548 0000 80B4     		push	{r7}
 549              		.cfi_def_cfa_offset 4
 550              		.cfi_offset 7, -4
 551 0002 83B0     		sub	sp, sp, #12
 552              		.cfi_def_cfa_offset 16
 553 0004 00AF     		add	r7, sp, #0
 554              		.cfi_def_cfa_register 7
 555 0006 0346     		mov	r3, r0
 556 0008 3A60     		str	r2, [r7]
 557 000a FB80     		strh	r3, [r7, #6]	@ movhi
 558 000c 0B46     		mov	r3, r1	@ movhi
 559 000e BB80     		strh	r3, [r7, #4]	@ movhi
 436:Generated_Source\PSoC5/EZI2Cs.c ****     EZI2Cs_DisableInt(); /* Lock from component interrupt */
 560              		.loc 1 436 0
 561 0010 0F4B     		ldr	r3, .L27
 562 0012 4FF40042 		mov	r2, #32768
 563 0016 1A60     		str	r2, [r3]
 437:Generated_Source\PSoC5/EZI2Cs.c **** 
 438:Generated_Source\PSoC5/EZI2Cs.c ****     if (NULL != dataPtr)
 564              		.loc 1 438 0
 565 0018 3B68     		ldr	r3, [r7]
 566 001a 002B     		cmp	r3, #0
 567 001c 08D0     		beq	.L26
 439:Generated_Source\PSoC5/EZI2Cs.c ****     {
 440:Generated_Source\PSoC5/EZI2Cs.c ****         /* Configure buffer 1 */
 441:Generated_Source\PSoC5/EZI2Cs.c ****         EZI2Cs_dataPtrS1   = dataPtr;
 568              		.loc 1 441 0
 569 001e 0D4A     		ldr	r2, .L27+4
 570 0020 3B68     		ldr	r3, [r7]
 571 0022 1360     		str	r3, [r2]
 442:Generated_Source\PSoC5/EZI2Cs.c ****         EZI2Cs_bufSizeS1   = bufSize;
 572              		.loc 1 442 0
 573 0024 0C4A     		ldr	r2, .L27+8
 574 0026 FB88     		ldrh	r3, [r7, #6]	@ movhi
 575 0028 1380     		strh	r3, [r2]	@ movhi
 443:Generated_Source\PSoC5/EZI2Cs.c ****         EZI2Cs_wrProtectS1 = rwBoundary;
 576              		.loc 1 443 0
 577 002a 0C4A     		ldr	r2, .L27+12
 578 002c BB88     		ldrh	r3, [r7, #4]	@ movhi
 579 002e 1380     		strh	r3, [r2]	@ movhi
 580              	.L26:
 444:Generated_Source\PSoC5/EZI2Cs.c ****     }
 445:Generated_Source\PSoC5/EZI2Cs.c **** 
 446:Generated_Source\PSoC5/EZI2Cs.c ****     /* Clear buffer offset and index */
ARM GAS  C:\Users\ilya\AppData\Local\Temp\ccyVgDjv.s 			page 19


 447:Generated_Source\PSoC5/EZI2Cs.c ****     EZI2Cs_rwOffsetS1 = 0u;
 581              		.loc 1 447 0
 582 0030 0B4B     		ldr	r3, .L27+16
 583 0032 0022     		movs	r2, #0
 584 0034 1A80     		strh	r2, [r3]	@ movhi
 448:Generated_Source\PSoC5/EZI2Cs.c ****     EZI2Cs_rwIndexS1  = 0u;
 585              		.loc 1 448 0
 586 0036 0B4B     		ldr	r3, .L27+20
 587 0038 0022     		movs	r2, #0
 588 003a 1A80     		strh	r2, [r3]	@ movhi
 449:Generated_Source\PSoC5/EZI2Cs.c **** 
 450:Generated_Source\PSoC5/EZI2Cs.c ****     EZI2Cs_EnableInt(); /* Release lock */
 589              		.loc 1 450 0
 590 003c 0A4B     		ldr	r3, .L27+24
 591 003e 4FF40042 		mov	r2, #32768
 592 0042 1A60     		str	r2, [r3]
 451:Generated_Source\PSoC5/EZI2Cs.c **** }
 593              		.loc 1 451 0
 594 0044 00BF     		nop
 595 0046 0C37     		adds	r7, r7, #12
 596              		.cfi_def_cfa_offset 4
 597 0048 BD46     		mov	sp, r7
 598              		.cfi_def_cfa_register 13
 599              		@ sp needed
 600 004a 80BC     		pop	{r7}
 601              		.cfi_restore 7
 602              		.cfi_def_cfa_offset 0
 603 004c 7047     		bx	lr
 604              	.L28:
 605 004e 00BF     		.align	2
 606              	.L27:
 607 0050 80E100E0 		.word	-536813184
 608 0054 00000000 		.word	EZI2Cs_dataPtrS1
 609 0058 00000000 		.word	EZI2Cs_bufSizeS1
 610 005c 00000000 		.word	EZI2Cs_wrProtectS1
 611 0060 00000000 		.word	EZI2Cs_rwOffsetS1
 612 0064 00000000 		.word	EZI2Cs_rwIndexS1
 613 0068 00E100E0 		.word	-536813312
 614              		.cfi_endproc
 615              	.LFE7:
 616              		.size	EZI2Cs_SetBuffer1, .-EZI2Cs_SetBuffer1
 617              		.text
 618              	.Letext0:
 619              		.file 2 "Generated_Source\\PSoC5\\cytypes.h"
 620              		.file 3 "Generated_Source\\PSoC5\\EZI2Cs.h"
 621              		.file 4 "Generated_Source\\PSoC5\\EZI2Cs_PVT.h"