ARM GAS  C:\Users\Rajesh\AppData\Local\Temp\cc6SH9wE.s 			page 1


   1              		.syntax unified
   2              		.cpu cortex-m3
   3              		.fpu softvfp
   4              		.eabi_attribute 20, 1
   5              		.eabi_attribute 21, 1
   6              		.eabi_attribute 23, 3
   7              		.eabi_attribute 24, 1
   8              		.eabi_attribute 25, 1
   9              		.eabi_attribute 26, 1
  10              		.eabi_attribute 30, 6
  11              		.eabi_attribute 34, 1
  12              		.eabi_attribute 18, 4
  13              		.thumb
  14              		.syntax unified
  15              		.file	"toc.c"
  16              		.text
  17              	.Ltext0:
  18              		.cfi_sections	.debug_frame
  19              		.comm	s,40,4
  20              		.comm	currentAccessType,1,1
  21              		.comm	hw_old,1,1
  22              		.comm	tp_old,1,1
  23              		.comm	tamperCR_polarity,4,4
  24              		.comm	tamper_out_polarity,4,4
  25              		.comm	card_ack,4,4
  26              		.comm	card_in_buf,4,4
  27              		.comm	osdp_timeout,4,4
  28              		.comm	tlv_ready,1,1
  29              		.comm	readerbootloading,1,1
  30              		.section	.text.ReadImageCard,"ax",%progbits
  31              		.align	2
  32              		.global	ReadImageCard
  33              		.thumb
  34              		.thumb_func
  35              		.type	ReadImageCard, %function
  36              	ReadImageCard:
  37              	.LFB63:
  38              		.file 1 "toc.c"
   1:toc.c         **** /* ========================================
   2:toc.c         ****  *
   3:toc.c         ****  * Copyright YOUR COMPANY, THE YEAR
   4:toc.c         ****  * All Rights Reserved
   5:toc.c         ****  * UNPUBLISHED, LICENSED SOFTWARE.
   6:toc.c         ****  *
   7:toc.c         ****  * CONFIDENTIAL AND PROPRIETARY INFORMATION
   8:toc.c         ****  * WHICH IS THE PROPERTY OF your company.
   9:toc.c         ****  *
  10:toc.c         ****  * ========================================
  11:toc.c         **** */
  12:toc.c         **** #include <project.h>
  13:toc.c         **** #include "toc.h"
  14:toc.c         **** #include "osdp.h"
  15:toc.c         **** #include "wavelynx.h"
  16:toc.c         **** 
  17:toc.c         **** uint8 tlv_ready;
  18:toc.c         **** uint8 readerbootloading;
  19:toc.c         **** 
ARM GAS  C:\Users\Rajesh\AppData\Local\Temp\cc6SH9wE.s 			page 2


  20:toc.c         **** 
  21:toc.c         **** 
  22:toc.c         **** 
  23:toc.c         **** void ReadImageCard()
  24:toc.c         **** {
  39              		.loc 1 24 0
  40              		.cfi_startproc
  41              		@ args = 0, pretend = 0, frame = 8
  42              		@ frame_needed = 1, uses_anonymous_args = 0
  43 0000 80B5     		push	{r7, lr}
  44              		.cfi_def_cfa_offset 8
  45              		.cfi_offset 7, -8
  46              		.cfi_offset 14, -4
  47 0002 82B0     		sub	sp, sp, #8
  48              		.cfi_def_cfa_offset 16
  49 0004 00AF     		add	r7, sp, #0
  50              		.cfi_def_cfa_register 7
  25:toc.c         ****     int k;
  26:toc.c         ****     if(tlv_ready == 1)
  51              		.loc 1 26 0
  52 0006 304B     		ldr	r3, .L8
  53 0008 1B78     		ldrb	r3, [r3]	@ zero_extendqisi2
  54 000a 012B     		cmp	r3, #1
  55 000c 58D1     		bne	.L1
  27:toc.c         ****     {
  28:toc.c         ****         tlv_ready = 0;
  56              		.loc 1 28 0
  57 000e 2E4B     		ldr	r3, .L8
  58 0010 0022     		movs	r2, #0
  59 0012 1A70     		strb	r2, [r3]
  29:toc.c         ****         if (rxi == 0) return; //wrong size
  60              		.loc 1 29 0
  61 0014 2D4B     		ldr	r3, .L8+4
  62 0016 1B68     		ldr	r3, [r3]
  63 0018 002B     		cmp	r3, #0
  64 001a 50D0     		beq	.L7
  30:toc.c         ****         if (rxi <= IMAGE_TEMP_SIZE )
  65              		.loc 1 30 0
  66 001c 2B4B     		ldr	r3, .L8+4
  67 001e 1B68     		ldr	r3, [r3]
  68 0020 41F2F442 		movw	r2, #5364
  69 0024 9342     		cmp	r3, r2
  70 0026 46DC     		bgt	.L4
  31:toc.c         ****         {
  32:toc.c         ****             for (k=0; k<rxi; k++)
  71              		.loc 1 32 0
  72 0028 0023     		movs	r3, #0
  73 002a 7B60     		str	r3, [r7, #4]
  74 002c 10E0     		b	.L5
  75              	.L6:
  33:toc.c         ****             {
  34:toc.c         ****                 MyI2C_Regs.buffer[k] = ReaderRxBuffer[k];
  76              		.loc 1 34 0 discriminator 3
  77 002e 284A     		ldr	r2, .L8+8
  78 0030 7B68     		ldr	r3, [r7, #4]
  79 0032 1344     		add	r3, r3, r2
  80 0034 1978     		ldrb	r1, [r3]	@ zero_extendqisi2
ARM GAS  C:\Users\Rajesh\AppData\Local\Temp\cc6SH9wE.s 			page 3


  81 0036 274A     		ldr	r2, .L8+12
  82 0038 7B68     		ldr	r3, [r7, #4]
  83 003a 1344     		add	r3, r3, r2
  84 003c 03F5B273 		add	r3, r3, #356
  85 0040 0A46     		mov	r2, r1
  86 0042 1A70     		strb	r2, [r3]
  35:toc.c         ****                 CyDelayUs(1);   //needed for Release Codes
  87              		.loc 1 35 0 discriminator 3
  88 0044 0120     		movs	r0, #1
  89 0046 FFF7FEFF 		bl	CyDelayUs
  32:toc.c         ****             {
  90              		.loc 1 32 0 discriminator 3
  91 004a 7B68     		ldr	r3, [r7, #4]
  92 004c 0133     		adds	r3, r3, #1
  93 004e 7B60     		str	r3, [r7, #4]
  94              	.L5:
  32:toc.c         ****             {
  95              		.loc 1 32 0 is_stmt 0 discriminator 1
  96 0050 1E4B     		ldr	r3, .L8+4
  97 0052 1B68     		ldr	r3, [r3]
  98 0054 7A68     		ldr	r2, [r7, #4]
  99 0056 9A42     		cmp	r2, r3
 100 0058 E9DB     		blt	.L6
  36:toc.c         ****             }
  37:toc.c         ****             rxi = 0;  //ready for next image
 101              		.loc 1 37 0 is_stmt 1
 102 005a 1C4B     		ldr	r3, .L8+4
 103 005c 0022     		movs	r2, #0
 104 005e 1A60     		str	r2, [r3]
  38:toc.c         ****             MyI2C_Regs.data_length[0]= k>>8;   //higher 8 bits
 105              		.loc 1 38 0
 106 0060 7B68     		ldr	r3, [r7, #4]
 107 0062 1B12     		asrs	r3, r3, #8
 108 0064 DAB2     		uxtb	r2, r3
 109 0066 1B4B     		ldr	r3, .L8+12
 110 0068 DA71     		strb	r2, [r3, #7]
  39:toc.c         ****             MyI2C_Regs.data_length[1]= k;        //lower 8 bits.
 111              		.loc 1 39 0
 112 006a 7B68     		ldr	r3, [r7, #4]
 113 006c DAB2     		uxtb	r2, r3
 114 006e 194B     		ldr	r3, .L8+12
 115 0070 1A72     		strb	r2, [r3, #8]
  40:toc.c         ****             MyI2C_Regs.dummy0[0]= (k>>8) & 0xFF;   //higher 8 bits
 116              		.loc 1 40 0
 117 0072 7B68     		ldr	r3, [r7, #4]
 118 0074 1B12     		asrs	r3, r3, #8
 119 0076 DAB2     		uxtb	r2, r3
 120 0078 164B     		ldr	r3, .L8+12
 121 007a 9A73     		strb	r2, [r3, #14]
  41:toc.c         ****             MyI2C_Regs.dummy0[1]= k & 0xFF;        //lower 8 bits.
 122              		.loc 1 41 0
 123 007c 7B68     		ldr	r3, [r7, #4]
 124 007e DAB2     		uxtb	r2, r3
 125 0080 144B     		ldr	r3, .L8+12
 126 0082 DA73     		strb	r2, [r3, #15]
  42:toc.c         ****             card_ack = 0;
 127              		.loc 1 42 0
ARM GAS  C:\Users\Rajesh\AppData\Local\Temp\cc6SH9wE.s 			page 4


 128 0084 144B     		ldr	r3, .L8+16
 129 0086 0022     		movs	r2, #0
 130 0088 1A60     		str	r2, [r3]
  43:toc.c         ****             card_in_buf = 1;
 131              		.loc 1 43 0
 132 008a 144B     		ldr	r3, .L8+20
 133 008c 0122     		movs	r2, #1
 134 008e 1A60     		str	r2, [r3]
  44:toc.c         ****             MyI2C_Regs.status_out |= STAT_CHANGE | STAT_CARD_IN;
 135              		.loc 1 44 0
 136 0090 104B     		ldr	r3, .L8+12
 137 0092 1B78     		ldrb	r3, [r3]	@ zero_extendqisi2
 138 0094 43F00303 		orr	r3, r3, #3
 139 0098 DAB2     		uxtb	r2, r3
 140 009a 0E4B     		ldr	r3, .L8+12
 141 009c 1A70     		strb	r2, [r3]
  45:toc.c         ****             MyI2C_Regs.cmd = CMD_NONE; //prevent to read it again
 142              		.loc 1 45 0
 143 009e 0D4B     		ldr	r3, .L8+12
 144 00a0 0022     		movs	r2, #0
 145 00a2 9A70     		strb	r2, [r3, #2]
  46:toc.c         ****             MyI2C_Regs.buffer1[10] ++;
 146              		.loc 1 46 0
 147 00a4 0B4B     		ldr	r3, .L8+12
 148 00a6 93F85330 		ldrb	r3, [r3, #83]	@ zero_extendqisi2
 149 00aa 0133     		adds	r3, r3, #1
 150 00ac DAB2     		uxtb	r2, r3
 151 00ae 094B     		ldr	r3, .L8+12
 152 00b0 83F85320 		strb	r2, [r3, #83]
 153 00b4 04E0     		b	.L1
 154              	.L4:
  47:toc.c         ****         }
  48:toc.c         ****         else
  49:toc.c         ****         {
  50:toc.c         ****             rxi = 0; //data is too big, read again
 155              		.loc 1 50 0
 156 00b6 054B     		ldr	r3, .L8+4
 157 00b8 0022     		movs	r2, #0
 158 00ba 1A60     		str	r2, [r3]
 159 00bc 00E0     		b	.L1
 160              	.L7:
  29:toc.c         ****         if (rxi <= IMAGE_TEMP_SIZE )
 161              		.loc 1 29 0
 162 00be 00BF     		nop
 163              	.L1:
  51:toc.c         ****         }
  52:toc.c         ****     } //if
  53:toc.c         **** }
 164              		.loc 1 53 0
 165 00c0 0837     		adds	r7, r7, #8
 166              		.cfi_def_cfa_offset 8
 167 00c2 BD46     		mov	sp, r7
 168              		.cfi_def_cfa_register 13
 169              		@ sp needed
 170 00c4 80BD     		pop	{r7, pc}
 171              	.L9:
 172 00c6 00BF     		.align	2
ARM GAS  C:\Users\Rajesh\AppData\Local\Temp\cc6SH9wE.s 			page 5


 173              	.L8:
 174 00c8 00000000 		.word	tlv_ready
 175 00cc 00000000 		.word	rxi
 176 00d0 00000000 		.word	ReaderRxBuffer
 177 00d4 00000000 		.word	MyI2C_Regs
 178 00d8 00000000 		.word	card_ack
 179 00dc 00000000 		.word	card_in_buf
 180              		.cfi_endproc
 181              	.LFE63:
 182              		.size	ReadImageCard, .-ReadImageCard
 183              		.section	.text.initTocReaderUART,"ax",%progbits
 184              		.align	2
 185              		.global	initTocReaderUART
 186              		.thumb
 187              		.thumb_func
 188              		.type	initTocReaderUART, %function
 189              	initTocReaderUART:
 190              	.LFB64:
  54:toc.c         **** 
  55:toc.c         **** 
  56:toc.c         **** void initTocReaderUART()
  57:toc.c         **** {
 191              		.loc 1 57 0
 192              		.cfi_startproc
 193              		@ args = 0, pretend = 0, frame = 0
 194              		@ frame_needed = 1, uses_anonymous_args = 0
 195 0000 80B5     		push	{r7, lr}
 196              		.cfi_def_cfa_offset 8
 197              		.cfi_offset 7, -8
 198              		.cfi_offset 14, -4
 199 0002 00AF     		add	r7, sp, #0
 200              		.cfi_def_cfa_register 7
  58:toc.c         ****     rxi = 0;
 201              		.loc 1 58 0
 202 0004 0D4B     		ldr	r3, .L11
 203 0006 0022     		movs	r2, #0
 204 0008 1A60     		str	r2, [r3]
  59:toc.c         ****     isr_READER_rx_SetVector(ImgRxInt);
 205              		.loc 1 59 0
 206 000a 0D48     		ldr	r0, .L11+4
 207 000c FFF7FEFF 		bl	isr_READER_rx_SetVector
  60:toc.c         ****     isr_READER_rx_StartEx(ImgRxInt);
 208              		.loc 1 60 0
 209 0010 0B48     		ldr	r0, .L11+4
 210 0012 FFF7FEFF 		bl	isr_READER_rx_StartEx
  61:toc.c         ****     SetReaderSpeed(BAUD_460800);
 211              		.loc 1 61 0
 212 0016 0620     		movs	r0, #6
 213 0018 FFF7FEFF 		bl	SetReaderSpeed
  62:toc.c         ****     UART_READER_Start();
 214              		.loc 1 62 0
 215 001c FFF7FEFF 		bl	UART_READER_Start
  63:toc.c         ****     UART_READER_LoadRxConfig();  //set to receiving mode
 216              		.loc 1 63 0
 217 0020 FFF7FEFF 		bl	UART_READER_LoadRxConfig
  64:toc.c         ****     CR_DE_Write(0);
 218              		.loc 1 64 0
ARM GAS  C:\Users\Rajesh\AppData\Local\Temp\cc6SH9wE.s 			page 6


 219 0024 0020     		movs	r0, #0
 220 0026 FFF7FEFF 		bl	CR_DE_Write
  65:toc.c         ****     Mode_Sel_CR_Write(1); //set the chip to RS485 mode
 221              		.loc 1 65 0
 222 002a 0120     		movs	r0, #1
 223 002c FFF7FEFF 		bl	Mode_Sel_CR_Write
  66:toc.c         ****     tlv_ready = 0;
 224              		.loc 1 66 0
 225 0030 044B     		ldr	r3, .L11+8
 226 0032 0022     		movs	r2, #0
 227 0034 1A70     		strb	r2, [r3]
  67:toc.c         **** }
 228              		.loc 1 67 0
 229 0036 00BF     		nop
 230 0038 80BD     		pop	{r7, pc}
 231              	.L12:
 232 003a 00BF     		.align	2
 233              	.L11:
 234 003c 00000000 		.word	rxi
 235 0040 00000000 		.word	ImgRxInt
 236 0044 00000000 		.word	tlv_ready
 237              		.cfi_endproc
 238              	.LFE64:
 239              		.size	initTocReaderUART, .-initTocReaderUART
 240              		.comm	ReaderRxBuffer,6000,4
 241              		.comm	rxi,4,4
 242              		.comm	tlv_head_len,4,4
 243              		.comm	tlv_data_len,4,4
 244              		.comm	tlv_len,4,4
 245              		.comm	multi_byte_len,1,1
 246              		.comm	tocTag,1,1
 247              		.section	.text.ImgRxInt,"ax",%progbits
 248              		.align	2
 249              		.global	ImgRxInt
 250              		.thumb
 251              		.thumb_func
 252              		.type	ImgRxInt, %function
 253              	ImgRxInt:
 254              	.LFB65:
  68:toc.c         **** 
  69:toc.c         **** unsigned char	ReaderRxBuffer[IMAGE_BUFFER_SIZE];     // Rx circular buffer to hold all incoming com
  70:toc.c         **** int rxi; //received index
  71:toc.c         **** int tlv_head_len;
  72:toc.c         **** int tlv_data_len;
  73:toc.c         **** int tlv_len;
  74:toc.c         **** unsigned char multi_byte_len;
  75:toc.c         **** unsigned char tocTag;
  76:toc.c         **** CY_ISR(ImgRxInt) //interrupt on Rx byte received
  77:toc.c         **** {   
 255              		.loc 1 77 0
 256              		.cfi_startproc
 257              		@ args = 0, pretend = 0, frame = 8
 258              		@ frame_needed = 1, uses_anonymous_args = 0
 259 0000 80B5     		push	{r7, lr}
 260              		.cfi_def_cfa_offset 8
 261              		.cfi_offset 7, -8
 262              		.cfi_offset 14, -4
ARM GAS  C:\Users\Rajesh\AppData\Local\Temp\cc6SH9wE.s 			page 7


 263 0002 82B0     		sub	sp, sp, #8
 264              		.cfi_def_cfa_offset 16
 265 0004 00AF     		add	r7, sp, #0
 266              		.cfi_def_cfa_register 7
  78:toc.c         ****     unsigned char uch;
  79:toc.c         ****     //move all available characters from Rx queue to RxBuffer
  80:toc.c         ****     while(UART_READER_ReadRxStatus() & UART_READER_RX_STS_FIFO_NOTEMPTY)
 267              		.loc 1 80 0
 268 0006 B6E0     		b	.L14
 269              	.L26:
  81:toc.c         **** 	{
  82:toc.c         ****         uch = UART_READER_ReadRxData(); //get serial port
 270              		.loc 1 82 0
 271 0008 FFF7FEFF 		bl	UART_READER_ReadRxData
 272 000c 0346     		mov	r3, r0
 273 000e FB71     		strb	r3, [r7, #7]
  83:toc.c         ****         if (rxi < IMAGE_TEMP_SIZE) ReaderRxBuffer[rxi] = uch; //put into the buffer
 274              		.loc 1 83 0
 275 0010 5F4B     		ldr	r3, .L29
 276 0012 1B68     		ldr	r3, [r3]
 277 0014 41F2F342 		movw	r2, #5363
 278 0018 9342     		cmp	r3, r2
 279 001a 04DC     		bgt	.L15
 280              		.loc 1 83 0 is_stmt 0 discriminator 1
 281 001c 5C4B     		ldr	r3, .L29
 282 001e 1B68     		ldr	r3, [r3]
 283 0020 5C49     		ldr	r1, .L29+4
 284 0022 FA79     		ldrb	r2, [r7, #7]
 285 0024 CA54     		strb	r2, [r1, r3]
 286              	.L15:
  84:toc.c         ****         if (rxi == 0){
 287              		.loc 1 84 0 is_stmt 1
 288 0026 5A4B     		ldr	r3, .L29
 289 0028 1B68     		ldr	r3, [r3]
 290 002a 002B     		cmp	r3, #0
 291 002c 17D1     		bne	.L16
  85:toc.c         ****             tocTag = ReaderRxBuffer[0];
 292              		.loc 1 85 0
 293 002e 594B     		ldr	r3, .L29+4
 294 0030 1A78     		ldrb	r2, [r3]	@ zero_extendqisi2
 295 0032 594B     		ldr	r3, .L29+8
 296 0034 1A70     		strb	r2, [r3]
  86:toc.c         ****             switch (tocTag)
 297              		.loc 1 86 0
 298 0036 584B     		ldr	r3, .L29+8
 299 0038 1B78     		ldrb	r3, [r3]	@ zero_extendqisi2
 300 003a 202B     		cmp	r3, #32
 301 003c 0ED0     		beq	.L27
 302 003e 202B     		cmp	r3, #32
 303 0040 04DC     		bgt	.L19
 304 0042 0C2B     		cmp	r3, #12
 305 0044 0AD0     		beq	.L27
 306 0046 0E2B     		cmp	r3, #14
 307 0048 08D0     		beq	.L27
  87:toc.c         ****             {
  88:toc.c         ****                 case SP_ENVELOPE:
  89:toc.c         ****                 case SP_ENVELOPE_CRC:
ARM GAS  C:\Users\Rajesh\AppData\Local\Temp\cc6SH9wE.s 			page 8


  90:toc.c         ****                 case RSP_MESSAGE:
  91:toc.c         ****                 case DATA_DEVICE_INFO:
  92:toc.c         ****                 case DATA_EYELOCK_TEMPLATE:
  93:toc.c         ****                 case DATA_PACKET:
  94:toc.c         ****                 case CMD_PING:
  95:toc.c         ****                 break;
  96:toc.c         **** //                default: return; //comment off for bad respond of bootloading
  97:toc.c         ****                 default: return;
 308              		.loc 1 97 0
 309 004a 9DE0     		b	.L28
 310              	.L19:
  86:toc.c         ****             switch (tocTag)
 311              		.loc 1 86 0
 312 004c 382B     		cmp	r3, #56
 313 004e C0F29B80 		blt	.L28
 314 0052 3A2B     		cmp	r3, #58
 315 0054 02DD     		ble	.L27
 316 0056 5C2B     		cmp	r3, #92
 317 0058 00D0     		beq	.L27
 318              		.loc 1 97 0
 319 005a 95E0     		b	.L28
 320              	.L27:
  95:toc.c         **** //                default: return; //comment off for bad respond of bootloading
 321              		.loc 1 95 0
 322 005c 00BF     		nop
 323              	.L16:
  98:toc.c         ****             }
  99:toc.c         **** 
 100:toc.c         ****         }
 101:toc.c         ****         /*  If the Length field is greater than or equal to 128 bytes, 
 102:toc.c         ****             then a multi byte format is needed to represent the Length of the Value field. 
 103:toc.c         ****             In this case the most significant bit of the first byte in the Length field
 104:toc.c         ****             is always set to 1. 
 105:toc.c         ****             Length = 8180 indicates a length of 128 (0x80) bytes
 106:toc.c         ****             Length = 820200 indicates a length of 512 (0x0200) bytes.
 107:toc.c         ****             Length = 8303C102 indicates a length of 246,018 (0x03C102) bytes  */
 108:toc.c         ****         if (rxi == 1){
 324              		.loc 1 108 0
 325 005e 4C4B     		ldr	r3, .L29
 326 0060 1B68     		ldr	r3, [r3]
 327 0062 012B     		cmp	r3, #1
 328 0064 35D1     		bne	.L21
 109:toc.c         ****             if (ReaderRxBuffer[rxi] & 0x80){ //check if the len is more than 127
 329              		.loc 1 109 0
 330 0066 4A4B     		ldr	r3, .L29
 331 0068 1B68     		ldr	r3, [r3]
 332 006a 4A4A     		ldr	r2, .L29+4
 333 006c D35C     		ldrb	r3, [r2, r3]	@ zero_extendqisi2
 334 006e 5BB2     		sxtb	r3, r3
 335 0070 002B     		cmp	r3, #0
 336 0072 18DA     		bge	.L22
 110:toc.c         ****                 multi_byte_len = 1;
 337              		.loc 1 110 0
 338 0074 494B     		ldr	r3, .L29+12
 339 0076 0122     		movs	r2, #1
 340 0078 1A70     		strb	r2, [r3]
 111:toc.c         ****                 tlv_data_len = ReaderRxBuffer[rxi] & 0x7F; //get the tlv data length
ARM GAS  C:\Users\Rajesh\AppData\Local\Temp\cc6SH9wE.s 			page 9


 341              		.loc 1 111 0
 342 007a 454B     		ldr	r3, .L29
 343 007c 1B68     		ldr	r3, [r3]
 344 007e 454A     		ldr	r2, .L29+4
 345 0080 D35C     		ldrb	r3, [r2, r3]	@ zero_extendqisi2
 346 0082 03F07F03 		and	r3, r3, #127
 347 0086 464A     		ldr	r2, .L29+16
 348 0088 1360     		str	r3, [r2]
 112:toc.c         ****                 tlv_len = 0;
 349              		.loc 1 112 0
 350 008a 464B     		ldr	r3, .L29+20
 351 008c 0022     		movs	r2, #0
 352 008e 1A60     		str	r2, [r3]
 113:toc.c         ****                 tlv_head_len = 2 + tlv_data_len; //head length = tag_id + length field length
 353              		.loc 1 113 0
 354 0090 434B     		ldr	r3, .L29+16
 355 0092 1B68     		ldr	r3, [r3]
 356 0094 0233     		adds	r3, r3, #2
 357 0096 444A     		ldr	r2, .L29+24
 358 0098 1360     		str	r3, [r2]
 114:toc.c         ****                 rxi++;
 359              		.loc 1 114 0
 360 009a 3D4B     		ldr	r3, .L29
 361 009c 1B68     		ldr	r3, [r3]
 362 009e 0133     		adds	r3, r3, #1
 363 00a0 3B4A     		ldr	r2, .L29
 364 00a2 1360     		str	r3, [r2]
 115:toc.c         ****                 return;
 365              		.loc 1 115 0
 366 00a4 71E0     		b	.L13
 367              	.L22:
 116:toc.c         ****             }else{
 117:toc.c         ****                 multi_byte_len = 0;
 368              		.loc 1 117 0
 369 00a6 3D4B     		ldr	r3, .L29+12
 370 00a8 0022     		movs	r2, #0
 371 00aa 1A70     		strb	r2, [r3]
 118:toc.c         ****                 tlv_len = ReaderRxBuffer[rxi] & 0x7F; //get the tlv data length
 372              		.loc 1 118 0
 373 00ac 384B     		ldr	r3, .L29
 374 00ae 1B68     		ldr	r3, [r3]
 375 00b0 384A     		ldr	r2, .L29+4
 376 00b2 D35C     		ldrb	r3, [r2, r3]	@ zero_extendqisi2
 377 00b4 03F07F03 		and	r3, r3, #127
 378 00b8 3A4A     		ldr	r2, .L29+20
 379 00ba 1360     		str	r3, [r2]
 119:toc.c         ****                 tlv_len = 2 + tlv_len; //length = tag_id + length field length
 380              		.loc 1 119 0
 381 00bc 394B     		ldr	r3, .L29+20
 382 00be 1B68     		ldr	r3, [r3]
 383 00c0 0233     		adds	r3, r3, #2
 384 00c2 384A     		ldr	r2, .L29+20
 385 00c4 1360     		str	r3, [r2]
 120:toc.c         ****                 rxi++;
 386              		.loc 1 120 0
 387 00c6 324B     		ldr	r3, .L29
 388 00c8 1B68     		ldr	r3, [r3]
ARM GAS  C:\Users\Rajesh\AppData\Local\Temp\cc6SH9wE.s 			page 10


 389 00ca 0133     		adds	r3, r3, #1
 390 00cc 304A     		ldr	r2, .L29
 391 00ce 1360     		str	r3, [r2]
 121:toc.c         ****                 return;
 392              		.loc 1 121 0
 393 00d0 5BE0     		b	.L13
 394              	.L21:
 122:toc.c         ****             }
 123:toc.c         ****         }
 124:toc.c         ****         if (multi_byte_len == 1 && tlv_data_len > 0 && rxi > 1){        //get the package length
 395              		.loc 1 124 0
 396 00d2 324B     		ldr	r3, .L29+12
 397 00d4 1B78     		ldrb	r3, [r3]	@ zero_extendqisi2
 398 00d6 012B     		cmp	r3, #1
 399 00d8 29D1     		bne	.L23
 400              		.loc 1 124 0 is_stmt 0 discriminator 1
 401 00da 314B     		ldr	r3, .L29+16
 402 00dc 1B68     		ldr	r3, [r3]
 403 00de 002B     		cmp	r3, #0
 404 00e0 25DD     		ble	.L23
 405              		.loc 1 124 0 discriminator 2
 406 00e2 2B4B     		ldr	r3, .L29
 407 00e4 1B68     		ldr	r3, [r3]
 408 00e6 012B     		cmp	r3, #1
 409 00e8 21DD     		ble	.L23
 125:toc.c         ****             tlv_len = (tlv_len << 8) + ReaderRxBuffer[rxi]; //2 bytes
 410              		.loc 1 125 0 is_stmt 1
 411 00ea 2E4B     		ldr	r3, .L29+20
 412 00ec 1B68     		ldr	r3, [r3]
 413 00ee 1B02     		lsls	r3, r3, #8
 414 00f0 274A     		ldr	r2, .L29
 415 00f2 1268     		ldr	r2, [r2]
 416 00f4 2749     		ldr	r1, .L29+4
 417 00f6 8A5C     		ldrb	r2, [r1, r2]	@ zero_extendqisi2
 418 00f8 1344     		add	r3, r3, r2
 419 00fa 2A4A     		ldr	r2, .L29+20
 420 00fc 1360     		str	r3, [r2]
 126:toc.c         ****             tlv_data_len--;                      //remaining counter
 421              		.loc 1 126 0
 422 00fe 284B     		ldr	r3, .L29+16
 423 0100 1B68     		ldr	r3, [r3]
 424 0102 013B     		subs	r3, r3, #1
 425 0104 264A     		ldr	r2, .L29+16
 426 0106 1360     		str	r3, [r2]
 127:toc.c         ****             if (tlv_data_len == 0){              //no more length bytes
 427              		.loc 1 127 0
 428 0108 254B     		ldr	r3, .L29+16
 429 010a 1B68     		ldr	r3, [r3]
 430 010c 002B     		cmp	r3, #0
 431 010e 0ED1     		bne	.L23
 128:toc.c         ****                 tlv_len += tlv_head_len;
 432              		.loc 1 128 0
 433 0110 244B     		ldr	r3, .L29+20
 434 0112 1A68     		ldr	r2, [r3]
 435 0114 244B     		ldr	r3, .L29+24
 436 0116 1B68     		ldr	r3, [r3]
 437 0118 1344     		add	r3, r3, r2
ARM GAS  C:\Users\Rajesh\AppData\Local\Temp\cc6SH9wE.s 			page 11


 438 011a 224A     		ldr	r2, .L29+20
 439 011c 1360     		str	r3, [r2]
 129:toc.c         ****                 if ( tlv_len == 0)             //package is too short 1
 440              		.loc 1 129 0
 441 011e 214B     		ldr	r3, .L29+20
 442 0120 1B68     		ldr	r3, [r3]
 443 0122 002B     		cmp	r3, #0
 444 0124 03D1     		bne	.L23
 130:toc.c         ****                 {
 131:toc.c         ****                     rxi = 0; //bad data, read again.
 445              		.loc 1 131 0
 446 0126 1A4B     		ldr	r3, .L29
 447 0128 0022     		movs	r2, #0
 448 012a 1A60     		str	r2, [r3]
 132:toc.c         ****                     return;
 449              		.loc 1 132 0
 450 012c 2DE0     		b	.L13
 451              	.L23:
 133:toc.c         ****                 }
 134:toc.c         ****             }
 135:toc.c         ****         }
 136:toc.c         ****         if (rxi <= tlv_len && rxi <= IMAGE_TEMP_SIZE)
 452              		.loc 1 136 0
 453 012e 184B     		ldr	r3, .L29
 454 0130 1A68     		ldr	r2, [r3]
 455 0132 1C4B     		ldr	r3, .L29+20
 456 0134 1B68     		ldr	r3, [r3]
 457 0136 9A42     		cmp	r2, r3
 458 0138 0ADC     		bgt	.L24
 459              		.loc 1 136 0 is_stmt 0 discriminator 1
 460 013a 154B     		ldr	r3, .L29
 461 013c 1B68     		ldr	r3, [r3]
 462 013e 41F2F442 		movw	r2, #5364
 463 0142 9342     		cmp	r3, r2
 464 0144 04DC     		bgt	.L24
 137:toc.c         ****         {
 138:toc.c         ****             rxi++;
 465              		.loc 1 138 0 is_stmt 1
 466 0146 124B     		ldr	r3, .L29
 467 0148 1B68     		ldr	r3, [r3]
 468 014a 0133     		adds	r3, r3, #1
 469 014c 104A     		ldr	r2, .L29
 470 014e 1360     		str	r3, [r2]
 471              	.L24:
 139:toc.c         ****         }
 140:toc.c         **** 		if (tlv_len !=0 && (rxi >= tlv_len || rxi >= IMAGE_TEMP_SIZE))
 472              		.loc 1 140 0
 473 0150 144B     		ldr	r3, .L29+20
 474 0152 1B68     		ldr	r3, [r3]
 475 0154 002B     		cmp	r3, #0
 476 0156 0ED0     		beq	.L14
 477              		.loc 1 140 0 is_stmt 0 discriminator 1
 478 0158 0D4B     		ldr	r3, .L29
 479 015a 1A68     		ldr	r2, [r3]
 480 015c 114B     		ldr	r3, .L29+20
 481 015e 1B68     		ldr	r3, [r3]
 482 0160 9A42     		cmp	r2, r3
ARM GAS  C:\Users\Rajesh\AppData\Local\Temp\cc6SH9wE.s 			page 12


 483 0162 05DA     		bge	.L25
 484              		.loc 1 140 0 discriminator 2
 485 0164 0A4B     		ldr	r3, .L29
 486 0166 1B68     		ldr	r3, [r3]
 487 0168 41F2F342 		movw	r2, #5363
 488 016c 9342     		cmp	r3, r2
 489 016e 02DD     		ble	.L14
 490              	.L25:
 141:toc.c         ****         {
 142:toc.c         ****             tlv_ready = 1;
 491              		.loc 1 142 0 is_stmt 1
 492 0170 0E4B     		ldr	r3, .L29+28
 493 0172 0122     		movs	r2, #1
 494 0174 1A70     		strb	r2, [r3]
 495              	.L14:
  80:toc.c         **** 	{
 496              		.loc 1 80 0
 497 0176 FFF7FEFF 		bl	UART_READER_ReadRxStatus
 498 017a 0346     		mov	r3, r0
 499 017c 03F02003 		and	r3, r3, #32
 500 0180 002B     		cmp	r3, #0
 501 0182 7FF441AF 		bne	.L26
 502 0186 00E0     		b	.L13
 503              	.L28:
  97:toc.c         ****             }
 504              		.loc 1 97 0
 505 0188 00BF     		nop
 506              	.L13:
 143:toc.c         ****         }
 144:toc.c         **** 	}   
 145:toc.c         **** }
 507              		.loc 1 145 0
 508 018a 0837     		adds	r7, r7, #8
 509              		.cfi_def_cfa_offset 8
 510 018c BD46     		mov	sp, r7
 511              		.cfi_def_cfa_register 13
 512              		@ sp needed
 513 018e 80BD     		pop	{r7, pc}
 514              	.L30:
 515              		.align	2
 516              	.L29:
 517 0190 00000000 		.word	rxi
 518 0194 00000000 		.word	ReaderRxBuffer
 519 0198 00000000 		.word	tocTag
 520 019c 00000000 		.word	multi_byte_len
 521 01a0 00000000 		.word	tlv_data_len
 522 01a4 00000000 		.word	tlv_len
 523 01a8 00000000 		.word	tlv_head_len
 524 01ac 00000000 		.word	tlv_ready
 525              		.cfi_endproc
 526              	.LFE65:
 527              		.size	ImgRxInt, .-ImgRxInt
 528              		.section	.text.resetImgBuf,"ax",%progbits
 529              		.align	2
 530              		.global	resetImgBuf
 531              		.thumb
 532              		.thumb_func
ARM GAS  C:\Users\Rajesh\AppData\Local\Temp\cc6SH9wE.s 			page 13


 533              		.type	resetImgBuf, %function
 534              	resetImgBuf:
 535              	.LFB66:
 146:toc.c         **** 
 147:toc.c         **** void resetImgBuf()
 148:toc.c         **** {
 536              		.loc 1 148 0
 537              		.cfi_startproc
 538              		@ args = 0, pretend = 0, frame = 0
 539              		@ frame_needed = 1, uses_anonymous_args = 0
 540              		@ link register save eliminated.
 541 0000 80B4     		push	{r7}
 542              		.cfi_def_cfa_offset 4
 543              		.cfi_offset 7, -4
 544 0002 00AF     		add	r7, sp, #0
 545              		.cfi_def_cfa_register 7
 149:toc.c         ****     rxi = 0; //clear old card after ack
 546              		.loc 1 149 0
 547 0004 074B     		ldr	r3, .L32
 548 0006 0022     		movs	r2, #0
 549 0008 1A60     		str	r2, [r3]
 150:toc.c         ****     tlv_ready = 0; //ready for new cards
 550              		.loc 1 150 0
 551 000a 074B     		ldr	r3, .L32+4
 552 000c 0022     		movs	r2, #0
 553 000e 1A70     		strb	r2, [r3]
 151:toc.c         ****     card_in_buf = 0; //release the current card
 554              		.loc 1 151 0
 555 0010 064B     		ldr	r3, .L32+8
 556 0012 0022     		movs	r2, #0
 557 0014 1A60     		str	r2, [r3]
 152:toc.c         ****     tlv_len = 0; //reset last card length
 558              		.loc 1 152 0
 559 0016 064B     		ldr	r3, .L32+12
 560 0018 0022     		movs	r2, #0
 561 001a 1A60     		str	r2, [r3]
 153:toc.c         **** }
 562              		.loc 1 153 0
 563 001c 00BF     		nop
 564 001e BD46     		mov	sp, r7
 565              		.cfi_def_cfa_register 13
 566              		@ sp needed
 567 0020 80BC     		pop	{r7}
 568              		.cfi_restore 7
 569              		.cfi_def_cfa_offset 0
 570 0022 7047     		bx	lr
 571              	.L33:
 572              		.align	2
 573              	.L32:
 574 0024 00000000 		.word	rxi
 575 0028 00000000 		.word	tlv_ready
 576 002c 00000000 		.word	card_in_buf
 577 0030 00000000 		.word	tlv_len
 578              		.cfi_endproc
 579              	.LFE66:
 580              		.size	resetImgBuf, .-resetImgBuf
 581              		.section	.text.SendWaveLynxReader,"ax",%progbits
ARM GAS  C:\Users\Rajesh\AppData\Local\Temp\cc6SH9wE.s 			page 14


 582              		.align	2
 583              		.global	SendWaveLynxReader
 584              		.thumb
 585              		.thumb_func
 586              		.type	SendWaveLynxReader, %function
 587              	SendWaveLynxReader:
 588              	.LFB67:
 154:toc.c         **** 
 155:toc.c         **** void SendWaveLynxReader(unsigned char *buffer, int len)
 156:toc.c         **** {
 589              		.loc 1 156 0
 590              		.cfi_startproc
 591              		@ args = 0, pretend = 0, frame = 8
 592              		@ frame_needed = 1, uses_anonymous_args = 0
 593 0000 80B5     		push	{r7, lr}
 594              		.cfi_def_cfa_offset 8
 595              		.cfi_offset 7, -8
 596              		.cfi_offset 14, -4
 597 0002 82B0     		sub	sp, sp, #8
 598              		.cfi_def_cfa_offset 16
 599 0004 00AF     		add	r7, sp, #0
 600              		.cfi_def_cfa_register 7
 601 0006 7860     		str	r0, [r7, #4]
 602 0008 3960     		str	r1, [r7]
 157:toc.c         **** //    CyDelay(50); //add some delay before sending 40. 
 158:toc.c         **** //    Mode_Sel_CR_Write(1); //set the SP335e chip to RS485
 159:toc.c         ****     CR_DE_Write(1);
 603              		.loc 1 159 0
 604 000a 0120     		movs	r0, #1
 605 000c FFF7FEFF 		bl	CR_DE_Write
 160:toc.c         ****     UART_READER_ClearTxBuffer();
 606              		.loc 1 160 0
 607 0010 FFF7FEFF 		bl	UART_READER_ClearTxBuffer
 161:toc.c         ****     UART_READER_LoadTxConfig();
 608              		.loc 1 161 0
 609 0014 FFF7FEFF 		bl	UART_READER_LoadTxConfig
 162:toc.c         ****     CyDelayUs(20); //20us Driver Output Enable Time, do not reduce. 
 610              		.loc 1 162 0
 611 0018 1420     		movs	r0, #20
 612 001a FFF7FEFF 		bl	CyDelayUs
 163:toc.c         ****     UART_READER_PutArray(buffer,len); 
 613              		.loc 1 163 0
 614 001e 3B68     		ldr	r3, [r7]
 615 0020 DBB2     		uxtb	r3, r3
 616 0022 1946     		mov	r1, r3
 617 0024 7868     		ldr	r0, [r7, #4]
 618 0026 FFF7FEFF 		bl	UART_READER_PutArray
 164:toc.c         ****     CyDelayUs(120); //minmum 4ms 120us
 619              		.loc 1 164 0
 620 002a 7820     		movs	r0, #120
 621 002c FFF7FEFF 		bl	CyDelayUs
 165:toc.c         ****     UART_READER_LoadRxConfig();  //set to receiving mode
 622              		.loc 1 165 0
 623 0030 FFF7FEFF 		bl	UART_READER_LoadRxConfig
 166:toc.c         ****     CR_DE_Write(0);
 624              		.loc 1 166 0
 625 0034 0020     		movs	r0, #0
ARM GAS  C:\Users\Rajesh\AppData\Local\Temp\cc6SH9wE.s 			page 15


 626 0036 FFF7FEFF 		bl	CR_DE_Write
 167:toc.c         **** //    Mode_Sel_CR_Write(1); //set the chip to RS485 mode
 168:toc.c         ****     resetImgBuf();  //clear everything before receive the reply
 627              		.loc 1 168 0
 628 003a FFF7FEFF 		bl	resetImgBuf
 169:toc.c         ****     UART_READER_ClearRxBuffer();
 629              		.loc 1 169 0
 630 003e FFF7FEFF 		bl	UART_READER_ClearRxBuffer
 170:toc.c         **** }
 631              		.loc 1 170 0
 632 0042 00BF     		nop
 633 0044 0837     		adds	r7, r7, #8
 634              		.cfi_def_cfa_offset 8
 635 0046 BD46     		mov	sp, r7
 636              		.cfi_def_cfa_register 13
 637              		@ sp needed
 638 0048 80BD     		pop	{r7, pc}
 639              		.cfi_endproc
 640              	.LFE67:
 641              		.size	SendWaveLynxReader, .-SendWaveLynxReader
 642 004a 00BF     		.section	.text.CalculateCrc16,"ax",%progbits
 643              		.align	2
 644              		.global	CalculateCrc16
 645              		.thumb
 646              		.thumb_func
 647              		.type	CalculateCrc16, %function
 648              	CalculateCrc16:
 649              	.LFB68:
 171:toc.c         **** 
 172:toc.c         **** /**********************************************************************
 173:toc.c         **** *
 174:toc.c         **** *  Function Name: CalculateCrc16
 175:toc.c         **** *
 176:toc.c         **** *  Inputs:
 177:toc.c         **** *    pData – Points to the data to perform the CRC on
 178:toc.c         **** *    numBytes – Number of valid bytes in pData[].
 179:toc.c         **** *    startValue – Initialization value (always 0x6363)
 180:toc.c         **** *
 181:toc.c         **** *  Outputs
 182:toc.c         **** *    None
 183:toc.c         **** *
 184:toc.c         **** *  Return Values
 185:toc.c         **** *    The 16 bit value representing the CCITT CRC resulting from 
 186:toc.c         **** *    performing the algorithm on the data in pData[].
 187:toc.c         **** *
 188:toc.c         **** *  Description:  This function performs a 16 bit CCITT CRC on the data 
 189:toc.c         **** *                pointed to by pData.
 190:toc.c         **** *
 191:toc.c         **** **********************************************************************/
 192:toc.c         **** uint16_t CalculateCrc16(uint8_t *pData, uint16_t numBytes, uint16_t startValue)
 193:toc.c         **** {
 650              		.loc 1 193 0
 651              		.cfi_startproc
 652              		@ args = 0, pretend = 0, frame = 16
 653              		@ frame_needed = 1, uses_anonymous_args = 0
 654 0000 80B5     		push	{r7, lr}
 655              		.cfi_def_cfa_offset 8
ARM GAS  C:\Users\Rajesh\AppData\Local\Temp\cc6SH9wE.s 			page 16


 656              		.cfi_offset 7, -8
 657              		.cfi_offset 14, -4
 658 0002 84B0     		sub	sp, sp, #16
 659              		.cfi_def_cfa_offset 24
 660 0004 00AF     		add	r7, sp, #0
 661              		.cfi_def_cfa_register 7
 662 0006 7860     		str	r0, [r7, #4]
 663 0008 0B46     		mov	r3, r1
 664 000a 7B80     		strh	r3, [r7, #2]	@ movhi
 665 000c 1346     		mov	r3, r2	@ movhi
 666 000e 3B80     		strh	r3, [r7]	@ movhi
 194:toc.c         **** uint16_t i;
 195:toc.c         **** 	uint16_t crcVal;
 196:toc.c         **** 
 197:toc.c         ****     	crcVal = startValue;
 667              		.loc 1 197 0
 668 0010 3B88     		ldrh	r3, [r7]	@ movhi
 669 0012 BB81     		strh	r3, [r7, #12]	@ movhi
 198:toc.c         **** 	for (i=0; i<numBytes; i++)
 670              		.loc 1 198 0
 671 0014 0023     		movs	r3, #0
 672 0016 FB81     		strh	r3, [r7, #14]	@ movhi
 673 0018 0DE0     		b	.L36
 674              	.L37:
 199:toc.c         **** 	{
 200:toc.c         ****         crcVal = UpdateCrc16Ccitt(crcVal, pData[i]);
 675              		.loc 1 200 0 discriminator 3
 676 001a FB89     		ldrh	r3, [r7, #14]
 677 001c 7A68     		ldr	r2, [r7, #4]
 678 001e 1344     		add	r3, r3, r2
 679 0020 1A78     		ldrb	r2, [r3]	@ zero_extendqisi2
 680 0022 BB89     		ldrh	r3, [r7, #12]
 681 0024 1146     		mov	r1, r2
 682 0026 1846     		mov	r0, r3
 683 0028 FFF7FEFF 		bl	UpdateCrc16Ccitt
 684 002c 0346     		mov	r3, r0
 685 002e BB81     		strh	r3, [r7, #12]	@ movhi
 198:toc.c         **** 	for (i=0; i<numBytes; i++)
 686              		.loc 1 198 0 discriminator 3
 687 0030 FB89     		ldrh	r3, [r7, #14]
 688 0032 0133     		adds	r3, r3, #1
 689 0034 FB81     		strh	r3, [r7, #14]	@ movhi
 690              	.L36:
 198:toc.c         **** 	for (i=0; i<numBytes; i++)
 691              		.loc 1 198 0 is_stmt 0 discriminator 1
 692 0036 FA89     		ldrh	r2, [r7, #14]
 693 0038 7B88     		ldrh	r3, [r7, #2]
 694 003a 9A42     		cmp	r2, r3
 695 003c EDD3     		bcc	.L37
 201:toc.c         **** 	}
 202:toc.c         **** 	return (crcVal);
 696              		.loc 1 202 0 is_stmt 1
 697 003e BB89     		ldrh	r3, [r7, #12]
 203:toc.c         **** }
 698              		.loc 1 203 0
 699 0040 1846     		mov	r0, r3
 700 0042 1037     		adds	r7, r7, #16
ARM GAS  C:\Users\Rajesh\AppData\Local\Temp\cc6SH9wE.s 			page 17


 701              		.cfi_def_cfa_offset 8
 702 0044 BD46     		mov	sp, r7
 703              		.cfi_def_cfa_register 13
 704              		@ sp needed
 705 0046 80BD     		pop	{r7, pc}
 706              		.cfi_endproc
 707              	.LFE68:
 708              		.size	CalculateCrc16, .-CalculateCrc16
 709              		.section	.text.UpdateCrc16Ccitt,"ax",%progbits
 710              		.align	2
 711              		.global	UpdateCrc16Ccitt
 712              		.thumb
 713              		.thumb_func
 714              		.type	UpdateCrc16Ccitt, %function
 715              	UpdateCrc16Ccitt:
 716              	.LFB69:
 204:toc.c         **** 
 205:toc.c         **** uint16_t UpdateCrc16Ccitt (uint16_t crc, uint8_t data)
 206:toc.c         **** {
 717              		.loc 1 206 0
 718              		.cfi_startproc
 719              		@ args = 0, pretend = 0, frame = 8
 720              		@ frame_needed = 1, uses_anonymous_args = 0
 721              		@ link register save eliminated.
 722 0000 80B4     		push	{r7}
 723              		.cfi_def_cfa_offset 4
 724              		.cfi_offset 7, -4
 725 0002 83B0     		sub	sp, sp, #12
 726              		.cfi_def_cfa_offset 16
 727 0004 00AF     		add	r7, sp, #0
 728              		.cfi_def_cfa_register 7
 729 0006 0346     		mov	r3, r0
 730 0008 0A46     		mov	r2, r1
 731 000a FB80     		strh	r3, [r7, #6]	@ movhi
 732 000c 1346     		mov	r3, r2
 733 000e 7B71     		strb	r3, [r7, #5]
 207:toc.c         ****     data ^= (crc & 0xFF);
 734              		.loc 1 207 0
 735 0010 FB88     		ldrh	r3, [r7, #6]	@ movhi
 736 0012 5AB2     		sxtb	r2, r3
 737 0014 97F90530 		ldrsb	r3, [r7, #5]
 738 0018 5340     		eors	r3, r3, r2
 739 001a 5BB2     		sxtb	r3, r3
 740 001c 7B71     		strb	r3, [r7, #5]
 208:toc.c         ****     data ^= data << 4;
 741              		.loc 1 208 0
 742 001e 7B79     		ldrb	r3, [r7, #5]	@ zero_extendqisi2
 743 0020 1B01     		lsls	r3, r3, #4
 744 0022 5AB2     		sxtb	r2, r3
 745 0024 97F90530 		ldrsb	r3, [r7, #5]
 746 0028 5340     		eors	r3, r3, r2
 747 002a 5BB2     		sxtb	r3, r3
 748 002c 7B71     		strb	r3, [r7, #5]
 209:toc.c         **** 
 210:toc.c         ****     return ((((uint16_t)data << 8) | ((crc >> 8) & 0xFF )) ^ (uint8_t)(data >> 4) 
 749              		.loc 1 210 0
 750 002e 7B79     		ldrb	r3, [r7, #5]	@ zero_extendqisi2
ARM GAS  C:\Users\Rajesh\AppData\Local\Temp\cc6SH9wE.s 			page 18


 751 0030 1B02     		lsls	r3, r3, #8
 752 0032 1AB2     		sxth	r2, r3
 753 0034 FB88     		ldrh	r3, [r7, #6]
 754 0036 1B0A     		lsrs	r3, r3, #8
 755 0038 9BB2     		uxth	r3, r3
 756 003a 1BB2     		sxth	r3, r3
 757 003c 1343     		orrs	r3, r3, r2
 758 003e 1AB2     		sxth	r2, r3
 759 0040 7B79     		ldrb	r3, [r7, #5]	@ zero_extendqisi2
 760 0042 1B09     		lsrs	r3, r3, #4
 761 0044 DBB2     		uxtb	r3, r3
 762 0046 1BB2     		sxth	r3, r3
 763 0048 5340     		eors	r3, r3, r2
 764 004a 1AB2     		sxth	r2, r3
 211:toc.c         ****           ^ ((uint16_t)data << 3));
 765              		.loc 1 211 0
 766 004c 7B79     		ldrb	r3, [r7, #5]	@ zero_extendqisi2
 767 004e DB00     		lsls	r3, r3, #3
 210:toc.c         ****           ^ ((uint16_t)data << 3));
 768              		.loc 1 210 0
 769 0050 1BB2     		sxth	r3, r3
 770 0052 5340     		eors	r3, r3, r2
 771 0054 1BB2     		sxth	r3, r3
 772 0056 9BB2     		uxth	r3, r3
 212:toc.c         **** }
 773              		.loc 1 212 0
 774 0058 1846     		mov	r0, r3
 775 005a 0C37     		adds	r7, r7, #12
 776              		.cfi_def_cfa_offset 4
 777 005c BD46     		mov	sp, r7
 778              		.cfi_def_cfa_register 13
 779              		@ sp needed
 780 005e 80BC     		pop	{r7}
 781              		.cfi_restore 7
 782              		.cfi_def_cfa_offset 0
 783 0060 7047     		bx	lr
 784              		.cfi_endproc
 785              	.LFE69:
 786              		.size	UpdateCrc16Ccitt, .-UpdateCrc16Ccitt
 787 0062 00BF     		.text
 788              	.Letext0:
 789              		.file 2 "c:\\program files (x86)\\cypress\\psoc creator\\4.2\\psoc creator\\import\\gnu\\arm\\5.4.
 790              		.file 3 "c:\\program files (x86)\\cypress\\psoc creator\\4.2\\psoc creator\\import\\gnu\\arm\\5.4.
 791              		.file 4 "Generated_Source\\PSoC5/cytypes.h"
 792              		.file 5 "softuart.h"
 793              		.file 6 "system.h"
 794              		.file 7 "Generated_Source\\PSoC5/core_cm3.h"
 795              		.file 8 "osdp.h"