ARM GAS  C:\Users\Rajesh\AppData\Local\Temp\ccob29Cm.s 			page 1


   1              		.syntax unified
   2              		.cpu cortex-m3
   3              		.fpu softvfp
   4              		.eabi_attribute 20, 1
   5              		.eabi_attribute 21, 1
   6              		.eabi_attribute 23, 3
   7              		.eabi_attribute 24, 1
   8              		.eabi_attribute 25, 1
   9              		.eabi_attribute 26, 1
  10              		.eabi_attribute 30, 6
  11              		.eabi_attribute 34, 1
  12              		.eabi_attribute 18, 4
  13              		.thumb
  14              		.syntax unified
  15              		.file	"wiegand.c"
  16              		.text
  17              	.Ltext0:
  18              		.cfi_sections	.debug_frame
  19              		.comm	s,40,4
  20              		.comm	currentAccessType,1,1
  21              		.comm	hw_old,1,1
  22              		.comm	tp_old,1,1
  23              		.comm	tamperCR_polarity,4,4
  24              		.comm	tamper_out_polarity,4,4
  25              		.comm	card_ack,4,4
  26              		.comm	card_in_buf,4,4
  27              		.section	.text.initWiegand,"ax",%progbits
  28              		.align	2
  29              		.global	initWiegand
  30              		.thumb
  31              		.thumb_func
  32              		.type	initWiegand, %function
  33              	initWiegand:
  34              	.LFB63:
  35              		.file 1 "wiegand.c"
   1:wiegand.c     **** /* ========================================
   2:wiegand.c     ****  *
   3:wiegand.c     ****  * Copyright YOUR COMPANY, THE YEAR
   4:wiegand.c     ****  * All Rights Reserved
   5:wiegand.c     ****  * UNPUBLISHED, LICENSED SOFTWARE.
   6:wiegand.c     ****  *
   7:wiegand.c     ****  * CONFIDENTIAL AND PROPRIETARY INFORMATION
   8:wiegand.c     ****  * WHICH IS THE PROPERTY OF your company.
   9:wiegand.c     ****  *
  10:wiegand.c     ****  * ========================================
  11:wiegand.c     **** */
  12:wiegand.c     **** 
  13:wiegand.c     **** // GRI 2-2-15: Modified ReadWiegand.
  14:wiegand.c     **** 
  15:wiegand.c     **** #include <project.h>
  16:wiegand.c     **** #include "system.h"
  17:wiegand.c     **** #include "wiegand.h"
  18:wiegand.c     **** #include "Pulse_50us.h"
  19:wiegand.c     **** 
  20:wiegand.c     **** 
  21:wiegand.c     **** void initWiegand(){
  36              		.loc 1 21 0
ARM GAS  C:\Users\Rajesh\AppData\Local\Temp\ccob29Cm.s 			page 2


  37              		.cfi_startproc
  38              		@ args = 0, pretend = 0, frame = 0
  39              		@ frame_needed = 1, uses_anonymous_args = 0
  40 0000 80B5     		push	{r7, lr}
  41              		.cfi_def_cfa_offset 8
  42              		.cfi_offset 7, -8
  43              		.cfi_offset 14, -4
  44 0002 00AF     		add	r7, sp, #0
  45              		.cfi_def_cfa_register 7
  22:wiegand.c     ****       /*Wiegand*/
  23:wiegand.c     ****     Pulse_50us_Init();
  46              		.loc 1 23 0
  47 0004 FFF7FEFF 		bl	Pulse_50us_Init
  24:wiegand.c     ****     isr_50us_StartEx(Pin_50us_Reset);
  48              		.loc 1 24 0
  49 0008 0248     		ldr	r0, .L2
  50 000a FFF7FEFF 		bl	isr_50us_StartEx
  25:wiegand.c     **** }
  51              		.loc 1 25 0
  52 000e 00BF     		nop
  53 0010 80BD     		pop	{r7, pc}
  54              	.L3:
  55 0012 00BF     		.align	2
  56              	.L2:
  57 0014 00000000 		.word	Pin_50us_Reset
  58              		.cfi_endproc
  59              	.LFE63:
  60              		.size	initWiegand, .-initWiegand
  61              		.section	.text.Pin_50us_Reset,"ax",%progbits
  62              		.align	2
  63              		.global	Pin_50us_Reset
  64              		.thumb
  65              		.thumb_func
  66              		.type	Pin_50us_Reset, %function
  67              	Pin_50us_Reset:
  68              	.LFB64:
  26:wiegand.c     **** 
  27:wiegand.c     **** CY_ISR(Pin_50us_Reset)
  28:wiegand.c     **** {
  69              		.loc 1 28 0
  70              		.cfi_startproc
  71              		@ args = 0, pretend = 0, frame = 0
  72              		@ frame_needed = 1, uses_anonymous_args = 0
  73 0000 80B5     		push	{r7, lr}
  74              		.cfi_def_cfa_offset 8
  75              		.cfi_offset 7, -8
  76              		.cfi_offset 14, -4
  77 0002 00AF     		add	r7, sp, #0
  78              		.cfi_def_cfa_register 7
  29:wiegand.c     ****     OptSelect_Write(2);
  79              		.loc 1 29 0
  80 0004 0220     		movs	r0, #2
  81 0006 FFF7FEFF 		bl	OptSelect_Write
  30:wiegand.c     **** 	PS_D1_Write(0);
  82              		.loc 1 30 0
  83 000a 0020     		movs	r0, #0
  84 000c FFF7FEFF 		bl	PS_D1_Write
ARM GAS  C:\Users\Rajesh\AppData\Local\Temp\ccob29Cm.s 			page 3


  31:wiegand.c     ****     isr_50us_GetState();
  85              		.loc 1 31 0
  86 0010 FFF7FEFF 		bl	isr_50us_GetState
  32:wiegand.c     ****     Pulse_50us_ReadStatusRegister();
  87              		.loc 1 32 0
  88 0014 FFF7FEFF 		bl	Pulse_50us_ReadStatusRegister
  33:wiegand.c     ****     Pulse_50us_RestoreConfig();
  89              		.loc 1 33 0
  90 0018 FFF7FEFF 		bl	Pulse_50us_RestoreConfig
  34:wiegand.c     ****     Pulse_50us_Init();
  91              		.loc 1 34 0
  92 001c FFF7FEFF 		bl	Pulse_50us_Init
  35:wiegand.c     **** }
  93              		.loc 1 35 0
  94 0020 00BF     		nop
  95 0022 80BD     		pop	{r7, pc}
  96              		.cfi_endproc
  97              	.LFE64:
  98              		.size	Pin_50us_Reset, .-Pin_50us_Reset
  99              		.section	.text.send_D0_50us_pulse,"ax",%progbits
 100              		.align	2
 101              		.global	send_D0_50us_pulse
 102              		.thumb
 103              		.thumb_func
 104              		.type	send_D0_50us_pulse, %function
 105              	send_D0_50us_pulse:
 106              	.LFB65:
  36:wiegand.c     **** void send_D0_50us_pulse()
  37:wiegand.c     **** {
 107              		.loc 1 37 0
 108              		.cfi_startproc
 109              		@ args = 0, pretend = 0, frame = 0
 110              		@ frame_needed = 1, uses_anonymous_args = 0
 111 0000 80B5     		push	{r7, lr}
 112              		.cfi_def_cfa_offset 8
 113              		.cfi_offset 7, -8
 114              		.cfi_offset 14, -4
 115 0002 00AF     		add	r7, sp, #0
 116              		.cfi_def_cfa_register 7
  38:wiegand.c     ****     OptSelect_Write(3); 
 117              		.loc 1 38 0
 118 0004 0320     		movs	r0, #3
 119 0006 FFF7FEFF 		bl	OptSelect_Write
  39:wiegand.c     ****     Pulse_50us_Enable();
 120              		.loc 1 39 0
 121 000a FFF7FEFF 		bl	Pulse_50us_Enable
  40:wiegand.c     **** }
 122              		.loc 1 40 0
 123 000e 00BF     		nop
 124 0010 80BD     		pop	{r7, pc}
 125              		.cfi_endproc
 126              	.LFE65:
 127              		.size	send_D0_50us_pulse, .-send_D0_50us_pulse
 128 0012 00BF     		.section	.text.send_D1_50us_pulse,"ax",%progbits
 129              		.align	2
 130              		.global	send_D1_50us_pulse
 131              		.thumb
ARM GAS  C:\Users\Rajesh\AppData\Local\Temp\ccob29Cm.s 			page 4


 132              		.thumb_func
 133              		.type	send_D1_50us_pulse, %function
 134              	send_D1_50us_pulse:
 135              	.LFB66:
  41:wiegand.c     **** void send_D1_50us_pulse()
  42:wiegand.c     **** {
 136              		.loc 1 42 0
 137              		.cfi_startproc
 138              		@ args = 0, pretend = 0, frame = 0
 139              		@ frame_needed = 1, uses_anonymous_args = 0
 140 0000 80B5     		push	{r7, lr}
 141              		.cfi_def_cfa_offset 8
 142              		.cfi_offset 7, -8
 143              		.cfi_offset 14, -4
 144 0002 00AF     		add	r7, sp, #0
 145              		.cfi_def_cfa_register 7
  43:wiegand.c     ****     PS_D1_Write(1);
 146              		.loc 1 43 0
 147 0004 0120     		movs	r0, #1
 148 0006 FFF7FEFF 		bl	PS_D1_Write
  44:wiegand.c     ****     Pulse_50us_Enable();
 149              		.loc 1 44 0
 150 000a FFF7FEFF 		bl	Pulse_50us_Enable
  45:wiegand.c     **** }
 151              		.loc 1 45 0
 152 000e 00BF     		nop
 153 0010 80BD     		pop	{r7, pc}
 154              		.cfi_endproc
 155              	.LFE66:
 156              		.size	send_D1_50us_pulse, .-send_D1_50us_pulse
 157 0012 00BF     		.section	.text.clearWiegandBuffer,"ax",%progbits
 158              		.align	2
 159              		.global	clearWiegandBuffer
 160              		.thumb
 161              		.thumb_func
 162              		.type	clearWiegandBuffer, %function
 163              	clearWiegandBuffer:
 164              	.LFB67:
  46:wiegand.c     **** 
  47:wiegand.c     **** void clearWiegandBuffer(){
 165              		.loc 1 47 0
 166              		.cfi_startproc
 167              		@ args = 0, pretend = 0, frame = 8
 168              		@ frame_needed = 1, uses_anonymous_args = 0
 169              		@ link register save eliminated.
 170 0000 80B4     		push	{r7}
 171              		.cfi_def_cfa_offset 4
 172              		.cfi_offset 7, -4
 173 0002 83B0     		sub	sp, sp, #12
 174              		.cfi_def_cfa_offset 16
 175 0004 00AF     		add	r7, sp, #0
 176              		.cfi_def_cfa_register 7
 177              	.LBB2:
  48:wiegand.c     ****     for(int i = 0; i < WIEGAND_BUFFER_LENGTH; i++){
 178              		.loc 1 48 0
 179 0006 0023     		movs	r3, #0
 180 0008 7B60     		str	r3, [r7, #4]
ARM GAS  C:\Users\Rajesh\AppData\Local\Temp\ccob29Cm.s 			page 5


 181 000a 07E0     		b	.L8
 182              	.L9:
  49:wiegand.c     ****         wiegandBuffer[i] = 0;
 183              		.loc 1 49 0 discriminator 3
 184 000c 074A     		ldr	r2, .L10
 185 000e 7B68     		ldr	r3, [r7, #4]
 186 0010 1344     		add	r3, r3, r2
 187 0012 0022     		movs	r2, #0
 188 0014 1A70     		strb	r2, [r3]
  48:wiegand.c     ****     for(int i = 0; i < WIEGAND_BUFFER_LENGTH; i++){
 189              		.loc 1 48 0 discriminator 3
 190 0016 7B68     		ldr	r3, [r7, #4]
 191 0018 0133     		adds	r3, r3, #1
 192 001a 7B60     		str	r3, [r7, #4]
 193              	.L8:
  48:wiegand.c     ****     for(int i = 0; i < WIEGAND_BUFFER_LENGTH; i++){
 194              		.loc 1 48 0 is_stmt 0 discriminator 1
 195 001c 7B68     		ldr	r3, [r7, #4]
 196 001e 1D2B     		cmp	r3, #29
 197 0020 F4DD     		ble	.L9
 198              	.LBE2:
  50:wiegand.c     ****     }
  51:wiegand.c     **** }
 199              		.loc 1 51 0 is_stmt 1
 200 0022 00BF     		nop
 201 0024 0C37     		adds	r7, r7, #12
 202              		.cfi_def_cfa_offset 4
 203 0026 BD46     		mov	sp, r7
 204              		.cfi_def_cfa_register 13
 205              		@ sp needed
 206 0028 80BC     		pop	{r7}
 207              		.cfi_restore 7
 208              		.cfi_def_cfa_offset 0
 209 002a 7047     		bx	lr
 210              	.L11:
 211              		.align	2
 212              	.L10:
 213 002c 00000000 		.word	wiegandBuffer
 214              		.cfi_endproc
 215              	.LFE67:
 216              		.size	clearWiegandBuffer, .-clearWiegandBuffer
 217              		.section	.text.SendWeigand,"ax",%progbits
 218              		.align	2
 219              		.global	SendWeigand
 220              		.thumb
 221              		.thumb_func
 222              		.type	SendWeigand, %function
 223              	SendWeigand:
 224              	.LFB68:
  52:wiegand.c     **** 
  53:wiegand.c     **** void SendWeigand(unsigned char *bufp, int nBits)  //Function to send Wiegand Data
  54:wiegand.c     **** {
 225              		.loc 1 54 0
 226              		.cfi_startproc
 227              		@ args = 0, pretend = 0, frame = 24
 228              		@ frame_needed = 1, uses_anonymous_args = 0
 229 0000 80B5     		push	{r7, lr}
ARM GAS  C:\Users\Rajesh\AppData\Local\Temp\ccob29Cm.s 			page 6


 230              		.cfi_def_cfa_offset 8
 231              		.cfi_offset 7, -8
 232              		.cfi_offset 14, -4
 233 0002 86B0     		sub	sp, sp, #24
 234              		.cfi_def_cfa_offset 32
 235 0004 00AF     		add	r7, sp, #0
 236              		.cfi_def_cfa_register 7
 237 0006 7860     		str	r0, [r7, #4]
 238 0008 3960     		str	r1, [r7]
  55:wiegand.c     **** 	int x,y;
  56:wiegand.c     **** 	char  d1;
  57:wiegand.c     ****     char count = 0;
 239              		.loc 1 57 0
 240 000a 0023     		movs	r3, #0
 241 000c BB73     		strb	r3, [r7, #14]
  58:wiegand.c     ****     
  59:wiegand.c     **** 	/*                        Wiegand protocol
  60:wiegand.c     **** 	    A pulse width of 50us to define data
  61:wiegand.c     **** 	    A wait period of 2ms after transmitting the above defined pulse
  62:wiegand.c     ****     */
  63:wiegand.c     ****     if (nBits > (WIEGAND_BUFFER_LENGTH << 3)) return; //garbage in
 242              		.loc 1 63 0
 243 000e 3B68     		ldr	r3, [r7]
 244 0010 F02B     		cmp	r3, #240
 245 0012 3EDC     		bgt	.L22
  64:wiegand.c     ****     OptSelect_Write(2); //0, both output high
 246              		.loc 1 64 0
 247 0014 0220     		movs	r0, #2
 248 0016 FFF7FEFF 		bl	OptSelect_Write
  65:wiegand.c     ****     PS_D1_Write(0);
 249              		.loc 1 65 0
 250 001a 0020     		movs	r0, #0
 251 001c FFF7FEFF 		bl	PS_D1_Write
  66:wiegand.c     ****     CyDelay(5);
 252              		.loc 1 66 0
 253 0020 0520     		movs	r0, #5
 254 0022 FFF7FEFF 		bl	CyDelay
  67:wiegand.c     **** 	for (x=0; x< WIEGAND_BUFFER_LENGTH; x++) // Loop over data written from the OMAP
 255              		.loc 1 67 0
 256 0026 0023     		movs	r3, #0
 257 0028 7B61     		str	r3, [r7, #20]
 258 002a 2EE0     		b	.L15
 259              	.L21:
  68:wiegand.c     **** 	{
  69:wiegand.c     ****         d1 = bufp[x];
 260              		.loc 1 69 0
 261 002c 7B69     		ldr	r3, [r7, #20]
 262 002e 7A68     		ldr	r2, [r7, #4]
 263 0030 1344     		add	r3, r3, r2
 264 0032 1B78     		ldrb	r3, [r3]
 265 0034 FB73     		strb	r3, [r7, #15]
  70:wiegand.c     **** 		for (y=0; y <8; y++)  //Transmit each bit at a time
 266              		.loc 1 70 0
 267 0036 0023     		movs	r3, #0
 268 0038 3B61     		str	r3, [r7, #16]
 269 003a 20E0     		b	.L16
 270              	.L20:
ARM GAS  C:\Users\Rajesh\AppData\Local\Temp\ccob29Cm.s 			page 7


  71:wiegand.c     **** 		{	
  72:wiegand.c     **** 			count++;
 271              		.loc 1 72 0
 272 003c BB7B     		ldrb	r3, [r7, #14]	@ zero_extendqisi2
 273 003e 0133     		adds	r3, r3, #1
 274 0040 BB73     		strb	r3, [r7, #14]
  73:wiegand.c     ****             if (count > nBits)
 275              		.loc 1 73 0
 276 0042 BA7B     		ldrb	r2, [r7, #14]	@ zero_extendqisi2
 277 0044 3B68     		ldr	r3, [r7]
 278 0046 9A42     		cmp	r2, r3
 279 0048 06DD     		ble	.L17
  74:wiegand.c     **** 			{
  75:wiegand.c     ****                 OptSelect_Write(2); //0, both output high
 280              		.loc 1 75 0
 281 004a 0220     		movs	r0, #2
 282 004c FFF7FEFF 		bl	OptSelect_Write
  76:wiegand.c     ****                 PS_D1_Write(0);
 283              		.loc 1 76 0
 284 0050 0020     		movs	r0, #0
 285 0052 FFF7FEFF 		bl	PS_D1_Write
  77:wiegand.c     ****     
  78:wiegand.c     ****                 return;
 286              		.loc 1 78 0
 287 0056 1DE0     		b	.L12
 288              	.L17:
  79:wiegand.c     **** 			}
  80:wiegand.c     **** 
  81:wiegand.c     **** 		    if (d1&0x80) // Check if it a 1 or a 0
 289              		.loc 1 81 0
 290 0058 97F90F30 		ldrsb	r3, [r7, #15]
 291 005c 002B     		cmp	r3, #0
 292 005e 02DA     		bge	.L18
  82:wiegand.c     **** 			{
  83:wiegand.c     ****                 send_D1_50us_pulse();
 293              		.loc 1 83 0
 294 0060 FFF7FEFF 		bl	send_D1_50us_pulse
 295 0064 01E0     		b	.L19
 296              	.L18:
  84:wiegand.c     **** 			}
  85:wiegand.c     **** 			else
  86:wiegand.c     **** 			{
  87:wiegand.c     ****                 send_D0_50us_pulse();
 297              		.loc 1 87 0
 298 0066 FFF7FEFF 		bl	send_D0_50us_pulse
 299              	.L19:
  88:wiegand.c     **** 			}			    
  89:wiegand.c     **** 			d1=d1<<1;
 300              		.loc 1 89 0 discriminator 2
 301 006a FB7B     		ldrb	r3, [r7, #15]
 302 006c 5B00     		lsls	r3, r3, #1
 303 006e FB73     		strb	r3, [r7, #15]
  90:wiegand.c     ****             CyDelayUs(1030); //1030 = 2ms
 304              		.loc 1 90 0 discriminator 2
 305 0070 40F20640 		movw	r0, #1030
 306 0074 FFF7FEFF 		bl	CyDelayUs
  70:wiegand.c     **** 		{	
ARM GAS  C:\Users\Rajesh\AppData\Local\Temp\ccob29Cm.s 			page 8


 307              		.loc 1 70 0 discriminator 2
 308 0078 3B69     		ldr	r3, [r7, #16]
 309 007a 0133     		adds	r3, r3, #1
 310 007c 3B61     		str	r3, [r7, #16]
 311              	.L16:
  70:wiegand.c     **** 		{	
 312              		.loc 1 70 0 is_stmt 0 discriminator 1
 313 007e 3B69     		ldr	r3, [r7, #16]
 314 0080 072B     		cmp	r3, #7
 315 0082 DBDD     		ble	.L20
  67:wiegand.c     **** 	{
 316              		.loc 1 67 0 is_stmt 1 discriminator 2
 317 0084 7B69     		ldr	r3, [r7, #20]
 318 0086 0133     		adds	r3, r3, #1
 319 0088 7B61     		str	r3, [r7, #20]
 320              	.L15:
  67:wiegand.c     **** 	{
 321              		.loc 1 67 0 is_stmt 0 discriminator 1
 322 008a 7B69     		ldr	r3, [r7, #20]
 323 008c 1D2B     		cmp	r3, #29
 324 008e CDDD     		ble	.L21
 325 0090 00E0     		b	.L12
 326              	.L22:
  63:wiegand.c     ****     OptSelect_Write(2); //0, both output high
 327              		.loc 1 63 0 is_stmt 1
 328 0092 00BF     		nop
 329              	.L12:
  91:wiegand.c     **** 		}
  92:wiegand.c     **** 	}
  93:wiegand.c     **** 
  94:wiegand.c     **** }
 330              		.loc 1 94 0
 331 0094 1837     		adds	r7, r7, #24
 332              		.cfi_def_cfa_offset 8
 333 0096 BD46     		mov	sp, r7
 334              		.cfi_def_cfa_register 13
 335              		@ sp needed
 336 0098 80BD     		pop	{r7, pc}
 337              		.cfi_endproc
 338              	.LFE68:
 339              		.size	SendWeigand, .-SendWeigand
 340 009a 00BF     		.section	.text.ReadWeigand,"ax",%progbits
 341              		.align	2
 342              		.global	ReadWeigand
 343              		.thumb
 344              		.thumb_func
 345              		.type	ReadWeigand, %function
 346              	ReadWeigand:
 347              	.LFB69:
  95:wiegand.c     **** 
  96:wiegand.c     **** int ReadWeigand(int nBits, int passmode)
  97:wiegand.c     **** {
 348              		.loc 1 97 0
 349              		.cfi_startproc
 350              		@ args = 0, pretend = 0, frame = 16
 351              		@ frame_needed = 1, uses_anonymous_args = 0
 352 0000 80B5     		push	{r7, lr}
ARM GAS  C:\Users\Rajesh\AppData\Local\Temp\ccob29Cm.s 			page 9


 353              		.cfi_def_cfa_offset 8
 354              		.cfi_offset 7, -8
 355              		.cfi_offset 14, -4
 356 0002 84B0     		sub	sp, sp, #16
 357              		.cfi_def_cfa_offset 24
 358 0004 00AF     		add	r7, sp, #0
 359              		.cfi_def_cfa_register 7
 360 0006 7860     		str	r0, [r7, #4]
 361 0008 3960     		str	r1, [r7]
  98:wiegand.c     ****     
  99:wiegand.c     ****     if(isWiegandDataReady){
 362              		.loc 1 99 0
 363 000a 424B     		ldr	r3, .L31
 364 000c 1B78     		ldrb	r3, [r3]	@ zero_extendqisi2
 365 000e 002B     		cmp	r3, #0
 366 0010 7BD0     		beq	.L24
 100:wiegand.c     ****         
 101:wiegand.c     ****         isr_WD_SYNC_Disable();
 367              		.loc 1 101 0
 368 0012 FFF7FEFF 		bl	isr_WD_SYNC_Disable
 102:wiegand.c     ****             MyI2C_Regs.buffer1[9] = (wiegandBitCount>>8) & 0xFF;
 369              		.loc 1 102 0
 370 0016 404B     		ldr	r3, .L31+4
 371 0018 1B68     		ldr	r3, [r3]
 372 001a 1B12     		asrs	r3, r3, #8
 373 001c DAB2     		uxtb	r2, r3
 374 001e 3F4B     		ldr	r3, .L31+8
 375 0020 83F85220 		strb	r2, [r3, #82]
 103:wiegand.c     ****             MyI2C_Regs.buffer1[10] = wiegandBitCount & 0xFF;
 376              		.loc 1 103 0
 377 0024 3C4B     		ldr	r3, .L31+4
 378 0026 1B68     		ldr	r3, [r3]
 379 0028 DAB2     		uxtb	r2, r3
 380 002a 3C4B     		ldr	r3, .L31+8
 381 002c 83F85320 		strb	r2, [r3, #83]
 104:wiegand.c     **** 
 105:wiegand.c     ****         if(wiegandBitCount){//== nBits){
 382              		.loc 1 105 0
 383 0030 394B     		ldr	r3, .L31+4
 384 0032 1B68     		ldr	r3, [r3]
 385 0034 002B     		cmp	r3, #0
 386 0036 56D0     		beq	.L25
 106:wiegand.c     ****            
 107:wiegand.c     ****  //           MyI2C_Regs.data_length[0] = (nBits>>8) & 0xFF;
 108:wiegand.c     ****  //           MyI2C_Regs.data_length[1] = nBits & 0xFF;
 109:wiegand.c     ****            
 110:wiegand.c     ****             if(passmode || ((run_mode == MODE_WIEGAND + PIN_PASS) && (wiegandBitCount == 8 || wiega
 387              		.loc 1 110 0
 388 0038 3B68     		ldr	r3, [r7]
 389 003a 002B     		cmp	r3, #0
 390 003c 0BD1     		bne	.L26
 391              		.loc 1 110 0 is_stmt 0 discriminator 1
 392 003e 384B     		ldr	r3, .L31+12
 393 0040 1B78     		ldrb	r3, [r3]	@ zero_extendqisi2
 394 0042 9C2B     		cmp	r3, #156
 395 0044 0ED1     		bne	.L27
 396              		.loc 1 110 0 discriminator 2
ARM GAS  C:\Users\Rajesh\AppData\Local\Temp\ccob29Cm.s 			page 10


 397 0046 344B     		ldr	r3, .L31+4
 398 0048 1B68     		ldr	r3, [r3]
 399 004a 082B     		cmp	r3, #8
 400 004c 03D0     		beq	.L26
 401              		.loc 1 110 0 discriminator 3
 402 004e 324B     		ldr	r3, .L31+4
 403 0050 1B68     		ldr	r3, [r3]
 404 0052 042B     		cmp	r3, #4
 405 0054 06D1     		bne	.L27
 406              	.L26:
 111:wiegand.c     ****             {
 112:wiegand.c     ****                 SendWeigand(wiegandBuffer, wiegandBitCount);//nBits);
 407              		.loc 1 112 0 is_stmt 1
 408 0056 304B     		ldr	r3, .L31+4
 409 0058 1B68     		ldr	r3, [r3]
 410 005a 1946     		mov	r1, r3
 411 005c 3148     		ldr	r0, .L31+16
 412 005e FFF7FEFF 		bl	SendWeigand
 413 0062 40E0     		b	.L25
 414              	.L27:
 113:wiegand.c     ****             }
 114:wiegand.c     ****             else
 115:wiegand.c     ****             {
 116:wiegand.c     ****              MyI2C_Regs.bits = wiegandBitCount;                
 415              		.loc 1 116 0
 416 0064 2C4B     		ldr	r3, .L31+4
 417 0066 1B68     		ldr	r3, [r3]
 418 0068 DAB2     		uxtb	r2, r3
 419 006a 2C4B     		ldr	r3, .L31+8
 420 006c 5A72     		strb	r2, [r3, #9]
 117:wiegand.c     ****              MyI2C_Regs.data_length[0] = (wiegandBitCount>>8) & 0xFF;
 421              		.loc 1 117 0
 422 006e 2A4B     		ldr	r3, .L31+4
 423 0070 1B68     		ldr	r3, [r3]
 424 0072 1B12     		asrs	r3, r3, #8
 425 0074 DAB2     		uxtb	r2, r3
 426 0076 294B     		ldr	r3, .L31+8
 427 0078 DA71     		strb	r2, [r3, #7]
 118:wiegand.c     ****              MyI2C_Regs.data_length[1] = wiegandBitCount & 0xFF;
 428              		.loc 1 118 0
 429 007a 274B     		ldr	r3, .L31+4
 430 007c 1B68     		ldr	r3, [r3]
 431 007e DAB2     		uxtb	r2, r3
 432 0080 264B     		ldr	r3, .L31+8
 433 0082 1A72     		strb	r2, [r3, #8]
 434              	.LBB3:
 119:wiegand.c     ****                 for (int i = 0; i <= wiegandByteCount; i ++)
 435              		.loc 1 119 0
 436 0084 0023     		movs	r3, #0
 437 0086 FB60     		str	r3, [r7, #12]
 438 0088 10E0     		b	.L28
 439              	.L29:
 120:wiegand.c     ****                 {
 121:wiegand.c     ****                     MyI2C_Regs.buffer[i] = wiegandBuffer[i];
 440              		.loc 1 121 0 discriminator 3
 441 008a 264A     		ldr	r2, .L31+16
 442 008c FB68     		ldr	r3, [r7, #12]
ARM GAS  C:\Users\Rajesh\AppData\Local\Temp\ccob29Cm.s 			page 11


 443 008e 1344     		add	r3, r3, r2
 444 0090 1978     		ldrb	r1, [r3]	@ zero_extendqisi2
 445 0092 224A     		ldr	r2, .L31+8
 446 0094 FB68     		ldr	r3, [r7, #12]
 447 0096 1344     		add	r3, r3, r2
 448 0098 03F5B273 		add	r3, r3, #356
 449 009c 0A46     		mov	r2, r1
 450 009e 1A70     		strb	r2, [r3]
 122:wiegand.c     ****                     CyDelayUs(1u);  //add some delay for I2C  ??????
 451              		.loc 1 122 0 discriminator 3
 452 00a0 0120     		movs	r0, #1
 453 00a2 FFF7FEFF 		bl	CyDelayUs
 119:wiegand.c     ****                 for (int i = 0; i <= wiegandByteCount; i ++)
 454              		.loc 1 119 0 discriminator 3
 455 00a6 FB68     		ldr	r3, [r7, #12]
 456 00a8 0133     		adds	r3, r3, #1
 457 00aa FB60     		str	r3, [r7, #12]
 458              	.L28:
 119:wiegand.c     ****                 for (int i = 0; i <= wiegandByteCount; i ++)
 459              		.loc 1 119 0 is_stmt 0 discriminator 1
 460 00ac 1E4B     		ldr	r3, .L31+20
 461 00ae 1B68     		ldr	r3, [r3]
 462 00b0 FA68     		ldr	r2, [r7, #12]
 463 00b2 9A42     		cmp	r2, r3
 464 00b4 E9DD     		ble	.L29
 465              	.LBE3:
 123:wiegand.c     ****                 }
 124:wiegand.c     ****                 card_ack = 0;
 466              		.loc 1 124 0 is_stmt 1
 467 00b6 1D4B     		ldr	r3, .L31+24
 468 00b8 0022     		movs	r2, #0
 469 00ba 1A60     		str	r2, [r3]
 125:wiegand.c     ****                 card_in_buf = 1;
 470              		.loc 1 125 0
 471 00bc 1C4B     		ldr	r3, .L31+28
 472 00be 0122     		movs	r2, #1
 473 00c0 1A60     		str	r2, [r3]
 126:wiegand.c     ****                 MyI2C_Regs.status_out |= STAT_CHANGE | STAT_CARD_IN ;
 474              		.loc 1 126 0
 475 00c2 164B     		ldr	r3, .L31+8
 476 00c4 1B78     		ldrb	r3, [r3]	@ zero_extendqisi2
 477 00c6 43F00303 		orr	r3, r3, #3
 478 00ca DAB2     		uxtb	r2, r3
 479 00cc 134B     		ldr	r3, .L31+8
 480 00ce 1A70     		strb	r2, [r3]
 127:wiegand.c     ****                 MyI2C_Regs.cmd = CMD_NONE;
 481              		.loc 1 127 0
 482 00d0 124B     		ldr	r3, .L31+8
 483 00d2 0022     		movs	r2, #0
 484 00d4 9A70     		strb	r2, [r3, #2]
 128:wiegand.c     ****                 MyI2C_Regs.buffer1[12]++;
 485              		.loc 1 128 0
 486 00d6 114B     		ldr	r3, .L31+8
 487 00d8 93F85530 		ldrb	r3, [r3, #85]	@ zero_extendqisi2
 488 00dc 0133     		adds	r3, r3, #1
 489 00de DAB2     		uxtb	r2, r3
 490 00e0 0E4B     		ldr	r3, .L31+8
ARM GAS  C:\Users\Rajesh\AppData\Local\Temp\ccob29Cm.s 			page 12


 491 00e2 83F85520 		strb	r2, [r3, #85]
 492              	.L25:
 129:wiegand.c     ****             
 130:wiegand.c     ****             }
 131:wiegand.c     ****         }
 132:wiegand.c     **** 	    isWiegandDataReady = 0;
 493              		.loc 1 132 0
 494 00e6 0B4B     		ldr	r3, .L31
 495 00e8 0022     		movs	r2, #0
 496 00ea 1A70     		strb	r2, [r3]
 133:wiegand.c     ****         testBitCount = 0;
 497              		.loc 1 133 0
 498 00ec 114B     		ldr	r3, .L31+32
 499 00ee 0022     		movs	r2, #0
 500 00f0 1A60     		str	r2, [r3]
 134:wiegand.c     ****         wiegandByteCount = 0;
 501              		.loc 1 134 0
 502 00f2 0D4B     		ldr	r3, .L31+20
 503 00f4 0022     		movs	r2, #0
 504 00f6 1A60     		str	r2, [r3]
 135:wiegand.c     ****         wiegandBitCount = 0;
 505              		.loc 1 135 0
 506 00f8 074B     		ldr	r3, .L31+4
 507 00fa 0022     		movs	r2, #0
 508 00fc 1A60     		str	r2, [r3]
 136:wiegand.c     ****     	clearWiegandBuffer();
 509              		.loc 1 136 0
 510 00fe FFF7FEFF 		bl	clearWiegandBuffer
 137:wiegand.c     ****         isr_WD_SYNC_Enable();
 511              		.loc 1 137 0
 512 0102 FFF7FEFF 		bl	isr_WD_SYNC_Enable
 138:wiegand.c     ****         return 1;
 513              		.loc 1 138 0
 514 0106 0123     		movs	r3, #1
 515 0108 00E0     		b	.L30
 516              	.L24:
 139:wiegand.c     ****     }
 140:wiegand.c     ****     return 0;
 517              		.loc 1 140 0
 518 010a 0023     		movs	r3, #0
 519              	.L30:
 141:wiegand.c     **** }
 520              		.loc 1 141 0
 521 010c 1846     		mov	r0, r3
 522 010e 1037     		adds	r7, r7, #16
 523              		.cfi_def_cfa_offset 8
 524 0110 BD46     		mov	sp, r7
 525              		.cfi_def_cfa_register 13
 526              		@ sp needed
 527 0112 80BD     		pop	{r7, pc}
 528              	.L32:
 529              		.align	2
 530              	.L31:
 531 0114 00000000 		.word	isWiegandDataReady
 532 0118 00000000 		.word	wiegandBitCount
 533 011c 00000000 		.word	MyI2C_Regs
 534 0120 00000000 		.word	run_mode
ARM GAS  C:\Users\Rajesh\AppData\Local\Temp\ccob29Cm.s 			page 13


 535 0124 00000000 		.word	wiegandBuffer
 536 0128 00000000 		.word	wiegandByteCount
 537 012c 00000000 		.word	card_ack
 538 0130 00000000 		.word	card_in_buf
 539 0134 00000000 		.word	testBitCount
 540              		.cfi_endproc
 541              	.LFE69:
 542              		.size	ReadWeigand, .-ReadWeigand
 543              		.text
 544              	.Letext0:
 545              		.file 2 "c:\\program files (x86)\\cypress\\psoc creator\\4.2\\psoc creator\\import\\gnu\\arm\\5.4.
 546              		.file 3 "c:\\program files (x86)\\cypress\\psoc creator\\4.2\\psoc creator\\import\\gnu\\arm\\5.4.
 547              		.file 4 "softuart.h"
 548              		.file 5 "system.h"
 549              		.file 6 "Generated_Source\\PSoC5/core_cm3.h"