ARM GAS  C:\Users\Rajesh\AppData\Local\Temp\ccFGpIV0.s 			page 1


   1              		.syntax unified
   2              		.cpu cortex-m0
   3              		.fpu softvfp
   4              		.eabi_attribute 20, 1
   5              		.eabi_attribute 21, 1
   6              		.eabi_attribute 23, 3
   7              		.eabi_attribute 24, 1
   8              		.eabi_attribute 25, 1
   9              		.eabi_attribute 26, 1
  10              		.eabi_attribute 30, 1
  11              		.eabi_attribute 34, 0
  12              		.eabi_attribute 18, 4
  13              		.thumb
  14              		.syntax unified
  15              		.file	"Comp_ISENSE.c"
  16              		.text
  17              	.Ltext0:
  18              		.cfi_sections	.debug_frame
  19              		.section	.text.Comp_ISENSE_Init,"ax",%progbits
  20              		.align	2
  21              		.global	Comp_ISENSE_Init
  22              		.code	16
  23              		.thumb_func
  24              		.type	Comp_ISENSE_Init, %function
  25              	Comp_ISENSE_Init:
  26              	.LFB0:
  27              		.file 1 "Generated_Source\\PSoC4\\Comp_ISENSE.c"
   1:Generated_Source\PSoC4/Comp_ISENSE.c **** /*******************************************************************************
   2:Generated_Source\PSoC4/Comp_ISENSE.c **** * File Name: Comp_ISENSE.c
   3:Generated_Source\PSoC4/Comp_ISENSE.c **** * Version 1.20
   4:Generated_Source\PSoC4/Comp_ISENSE.c **** *
   5:Generated_Source\PSoC4/Comp_ISENSE.c **** * Description:
   6:Generated_Source\PSoC4/Comp_ISENSE.c **** *  This file provides the source code to the API for the Comparator component
   7:Generated_Source\PSoC4/Comp_ISENSE.c **** *
   8:Generated_Source\PSoC4/Comp_ISENSE.c **** * Note:
   9:Generated_Source\PSoC4/Comp_ISENSE.c **** *  None
  10:Generated_Source\PSoC4/Comp_ISENSE.c **** *
  11:Generated_Source\PSoC4/Comp_ISENSE.c **** ********************************************************************************
  12:Generated_Source\PSoC4/Comp_ISENSE.c **** * Copyright 2013-2015, Cypress Semiconductor Corporation.  All rights reserved.
  13:Generated_Source\PSoC4/Comp_ISENSE.c **** * You may use this file only in accordance with the license, terms, conditions,
  14:Generated_Source\PSoC4/Comp_ISENSE.c **** * disclaimers, and limitations in the end user license agreement accompanying
  15:Generated_Source\PSoC4/Comp_ISENSE.c **** * the software package with which this file was provided.
  16:Generated_Source\PSoC4/Comp_ISENSE.c **** *******************************************************************************/
  17:Generated_Source\PSoC4/Comp_ISENSE.c **** 
  18:Generated_Source\PSoC4/Comp_ISENSE.c **** #include "Comp_ISENSE.h"
  19:Generated_Source\PSoC4/Comp_ISENSE.c **** 
  20:Generated_Source\PSoC4/Comp_ISENSE.c **** uint8 Comp_ISENSE_initVar = 0u; /* Defines if component was initialized */
  21:Generated_Source\PSoC4/Comp_ISENSE.c **** static uint32 Comp_ISENSE_internalSpeed = 0u; /* Defines component Speed value */
  22:Generated_Source\PSoC4/Comp_ISENSE.c **** 
  23:Generated_Source\PSoC4/Comp_ISENSE.c **** 
  24:Generated_Source\PSoC4/Comp_ISENSE.c **** /*******************************************************************************
  25:Generated_Source\PSoC4/Comp_ISENSE.c **** * Function Name: Comp_ISENSE_Init
  26:Generated_Source\PSoC4/Comp_ISENSE.c **** ********************************************************************************
  27:Generated_Source\PSoC4/Comp_ISENSE.c **** *
  28:Generated_Source\PSoC4/Comp_ISENSE.c **** * Summary:
  29:Generated_Source\PSoC4/Comp_ISENSE.c **** *  Initializes or restores the component according to the customizer Configure 
  30:Generated_Source\PSoC4/Comp_ISENSE.c **** *  dialog settings. It is not necessary to call Init() because the Start() API 
ARM GAS  C:\Users\Rajesh\AppData\Local\Temp\ccFGpIV0.s 			page 2


  31:Generated_Source\PSoC4/Comp_ISENSE.c **** *  calls this function and is the preferred method to begin the component operation.
  32:Generated_Source\PSoC4/Comp_ISENSE.c **** *
  33:Generated_Source\PSoC4/Comp_ISENSE.c **** * Parameters:
  34:Generated_Source\PSoC4/Comp_ISENSE.c **** *  None
  35:Generated_Source\PSoC4/Comp_ISENSE.c **** *
  36:Generated_Source\PSoC4/Comp_ISENSE.c **** * Return:
  37:Generated_Source\PSoC4/Comp_ISENSE.c **** *  None
  38:Generated_Source\PSoC4/Comp_ISENSE.c **** *
  39:Generated_Source\PSoC4/Comp_ISENSE.c **** *******************************************************************************/
  40:Generated_Source\PSoC4/Comp_ISENSE.c **** void Comp_ISENSE_Init(void)
  41:Generated_Source\PSoC4/Comp_ISENSE.c **** {
  28              		.loc 1 41 0
  29              		.cfi_startproc
  30              		@ args = 0, pretend = 0, frame = 0
  31              		@ frame_needed = 0, uses_anonymous_args = 0
  32 0000 10B5     		push	{r4, lr}
  33              		.cfi_def_cfa_offset 8
  34              		.cfi_offset 4, -8
  35              		.cfi_offset 14, -4
  42:Generated_Source\PSoC4/Comp_ISENSE.c ****     uint8 enableInterrupts;
  43:Generated_Source\PSoC4/Comp_ISENSE.c ****     
  44:Generated_Source\PSoC4/Comp_ISENSE.c ****     Comp_ISENSE_internalSpeed = Comp_ISENSE_POWER;
  36              		.loc 1 44 0
  37 0002 0222     		movs	r2, #2
  38 0004 084B     		ldr	r3, .L2
  39 0006 1A60     		str	r2, [r3]
  45:Generated_Source\PSoC4/Comp_ISENSE.c ****     Comp_ISENSE_CTB_CTRL_REG = Comp_ISENSE_DEFAULT_CTB_CTRL;
  40              		.loc 1 45 0
  41 0008 8022     		movs	r2, #128
  42 000a 1206     		lsls	r2, r2, #24
  43 000c 074B     		ldr	r3, .L2+4
  44 000e 1A60     		str	r2, [r3]
  46:Generated_Source\PSoC4/Comp_ISENSE.c ****     Comp_ISENSE_OA_RES_CTRL_REG = Comp_ISENSE_DEFAULT_OA_RES_CTRL;
  45              		.loc 1 46 0
  46 0010 A822     		movs	r2, #168
  47 0012 5200     		lsls	r2, r2, #1
  48 0014 064B     		ldr	r3, .L2+8
  49 0016 1A60     		str	r2, [r3]
  47:Generated_Source\PSoC4/Comp_ISENSE.c ****     
  48:Generated_Source\PSoC4/Comp_ISENSE.c ****     enableInterrupts = CyEnterCriticalSection();
  50              		.loc 1 48 0
  51 0018 FFF7FEFF 		bl	CyEnterCriticalSection
  52              	.LVL0:
  49:Generated_Source\PSoC4/Comp_ISENSE.c ****     Comp_ISENSE_INTR_MASK_REG |= Comp_ISENSE_INTR_MASK_REG_DEFAULT;
  53              		.loc 1 49 0
  54 001c 054B     		ldr	r3, .L2+12
  55 001e 1A68     		ldr	r2, [r3]
  56 0020 1A60     		str	r2, [r3]
  50:Generated_Source\PSoC4/Comp_ISENSE.c ****     CyExitCriticalSection(enableInterrupts);
  57              		.loc 1 50 0
  58 0022 FFF7FEFF 		bl	CyExitCriticalSection
  59              	.LVL1:
  51:Generated_Source\PSoC4/Comp_ISENSE.c **** }
  60              		.loc 1 51 0
  61              		@ sp needed
  62 0026 10BD     		pop	{r4, pc}
  63              	.L3:
ARM GAS  C:\Users\Rajesh\AppData\Local\Temp\ccFGpIV0.s 			page 3


  64              		.align	2
  65              	.L2:
  66 0028 00000000 		.word	.LANCHOR0
  67 002c 00001040 		.word	1074790400
  68 0030 04001040 		.word	1074790404
  69 0034 28001040 		.word	1074790440
  70              		.cfi_endproc
  71              	.LFE0:
  72              		.size	Comp_ISENSE_Init, .-Comp_ISENSE_Init
  73              		.section	.text.Comp_ISENSE_Enable,"ax",%progbits
  74              		.align	2
  75              		.global	Comp_ISENSE_Enable
  76              		.code	16
  77              		.thumb_func
  78              		.type	Comp_ISENSE_Enable, %function
  79              	Comp_ISENSE_Enable:
  80              	.LFB1:
  52:Generated_Source\PSoC4/Comp_ISENSE.c **** 
  53:Generated_Source\PSoC4/Comp_ISENSE.c **** 
  54:Generated_Source\PSoC4/Comp_ISENSE.c **** /*******************************************************************************
  55:Generated_Source\PSoC4/Comp_ISENSE.c **** * Function Name: Comp_ISENSE_Enable
  56:Generated_Source\PSoC4/Comp_ISENSE.c **** ********************************************************************************
  57:Generated_Source\PSoC4/Comp_ISENSE.c **** *
  58:Generated_Source\PSoC4/Comp_ISENSE.c **** * Summary:
  59:Generated_Source\PSoC4/Comp_ISENSE.c **** *  Activates the hardware and begins the component operation. It is not necessary to 
  60:Generated_Source\PSoC4/Comp_ISENSE.c **** *  call Enable() because the Start() API calls this function, which is the 
  61:Generated_Source\PSoC4/Comp_ISENSE.c **** *  preferred method to begin the component operation.
  62:Generated_Source\PSoC4/Comp_ISENSE.c **** *
  63:Generated_Source\PSoC4/Comp_ISENSE.c **** * Parameters:
  64:Generated_Source\PSoC4/Comp_ISENSE.c **** *  None
  65:Generated_Source\PSoC4/Comp_ISENSE.c **** *
  66:Generated_Source\PSoC4/Comp_ISENSE.c **** * Return:
  67:Generated_Source\PSoC4/Comp_ISENSE.c **** *  None
  68:Generated_Source\PSoC4/Comp_ISENSE.c **** *
  69:Generated_Source\PSoC4/Comp_ISENSE.c **** *******************************************************************************/
  70:Generated_Source\PSoC4/Comp_ISENSE.c **** void Comp_ISENSE_Enable(void)
  71:Generated_Source\PSoC4/Comp_ISENSE.c **** {
  81              		.loc 1 71 0
  82              		.cfi_startproc
  83              		@ args = 0, pretend = 0, frame = 0
  84              		@ frame_needed = 0, uses_anonymous_args = 0
  85              		@ link register save eliminated.
  72:Generated_Source\PSoC4/Comp_ISENSE.c ****     Comp_ISENSE_OA_RES_CTRL_REG |= Comp_ISENSE_internalSpeed | \
  86              		.loc 1 72 0
  87 0000 044A     		ldr	r2, .L5
  88 0002 1168     		ldr	r1, [r2]
  89 0004 044B     		ldr	r3, .L5+4
  90 0006 1B68     		ldr	r3, [r3]
  91 0008 0B43     		orrs	r3, r1
  92 000a 8021     		movs	r1, #128
  93 000c 0901     		lsls	r1, r1, #4
  94 000e 0B43     		orrs	r3, r1
  95 0010 1360     		str	r3, [r2]
  73:Generated_Source\PSoC4/Comp_ISENSE.c ****                                         Comp_ISENSE_OA_PUMP_EN;
  74:Generated_Source\PSoC4/Comp_ISENSE.c **** }
  96              		.loc 1 74 0
  97              		@ sp needed
ARM GAS  C:\Users\Rajesh\AppData\Local\Temp\ccFGpIV0.s 			page 4


  98 0012 7047     		bx	lr
  99              	.L6:
 100              		.align	2
 101              	.L5:
 102 0014 04001040 		.word	1074790404
 103 0018 00000000 		.word	.LANCHOR0
 104              		.cfi_endproc
 105              	.LFE1:
 106              		.size	Comp_ISENSE_Enable, .-Comp_ISENSE_Enable
 107              		.section	.text.Comp_ISENSE_Start,"ax",%progbits
 108              		.align	2
 109              		.global	Comp_ISENSE_Start
 110              		.code	16
 111              		.thumb_func
 112              		.type	Comp_ISENSE_Start, %function
 113              	Comp_ISENSE_Start:
 114              	.LFB2:
  75:Generated_Source\PSoC4/Comp_ISENSE.c **** 
  76:Generated_Source\PSoC4/Comp_ISENSE.c **** 
  77:Generated_Source\PSoC4/Comp_ISENSE.c **** /*******************************************************************************
  78:Generated_Source\PSoC4/Comp_ISENSE.c **** * Function Name: Comp_ISENSE_Start
  79:Generated_Source\PSoC4/Comp_ISENSE.c **** ********************************************************************************
  80:Generated_Source\PSoC4/Comp_ISENSE.c **** *
  81:Generated_Source\PSoC4/Comp_ISENSE.c **** * Summary:
  82:Generated_Source\PSoC4/Comp_ISENSE.c **** *  Performs all of the required initialization for the component and enables 
  83:Generated_Source\PSoC4/Comp_ISENSE.c **** *  power to the block. The first time the routine is executed, the speed/power 
  84:Generated_Source\PSoC4/Comp_ISENSE.c **** *  level, and hysteresis are set. When called to restart the comparator 
  85:Generated_Source\PSoC4/Comp_ISENSE.c **** *  following a Stop() call, the current component parameter settings are retained.
  86:Generated_Source\PSoC4/Comp_ISENSE.c **** *
  87:Generated_Source\PSoC4/Comp_ISENSE.c **** * Parameters:
  88:Generated_Source\PSoC4/Comp_ISENSE.c **** *  None
  89:Generated_Source\PSoC4/Comp_ISENSE.c **** *
  90:Generated_Source\PSoC4/Comp_ISENSE.c **** * Return:
  91:Generated_Source\PSoC4/Comp_ISENSE.c **** *  None
  92:Generated_Source\PSoC4/Comp_ISENSE.c **** *
  93:Generated_Source\PSoC4/Comp_ISENSE.c **** * Global variables:
  94:Generated_Source\PSoC4/Comp_ISENSE.c **** *  Comp_ISENSE_initVar: Is modified when this function is called for the
  95:Generated_Source\PSoC4/Comp_ISENSE.c **** *   first time. Is used to ensure that initialization happens only once.
  96:Generated_Source\PSoC4/Comp_ISENSE.c **** *
  97:Generated_Source\PSoC4/Comp_ISENSE.c **** *******************************************************************************/
  98:Generated_Source\PSoC4/Comp_ISENSE.c **** void Comp_ISENSE_Start(void)
  99:Generated_Source\PSoC4/Comp_ISENSE.c **** {
 115              		.loc 1 99 0
 116              		.cfi_startproc
 117              		@ args = 0, pretend = 0, frame = 0
 118              		@ frame_needed = 0, uses_anonymous_args = 0
 119 0000 10B5     		push	{r4, lr}
 120              		.cfi_def_cfa_offset 8
 121              		.cfi_offset 4, -8
 122              		.cfi_offset 14, -4
 100:Generated_Source\PSoC4/Comp_ISENSE.c ****     if( 0u == Comp_ISENSE_initVar)
 123              		.loc 1 100 0
 124 0002 064B     		ldr	r3, .L9
 125 0004 1B79     		ldrb	r3, [r3, #4]
 126 0006 002B     		cmp	r3, #0
 127 0008 04D1     		bne	.L8
 101:Generated_Source\PSoC4/Comp_ISENSE.c ****     {
ARM GAS  C:\Users\Rajesh\AppData\Local\Temp\ccFGpIV0.s 			page 5


 102:Generated_Source\PSoC4/Comp_ISENSE.c ****         Comp_ISENSE_Init();
 128              		.loc 1 102 0
 129 000a FFF7FEFF 		bl	Comp_ISENSE_Init
 130              	.LVL2:
 103:Generated_Source\PSoC4/Comp_ISENSE.c ****         Comp_ISENSE_initVar = 1u;
 131              		.loc 1 103 0
 132 000e 0122     		movs	r2, #1
 133 0010 024B     		ldr	r3, .L9
 134 0012 1A71     		strb	r2, [r3, #4]
 135              	.L8:
 104:Generated_Source\PSoC4/Comp_ISENSE.c ****     }
 105:Generated_Source\PSoC4/Comp_ISENSE.c ****     Comp_ISENSE_Enable();
 136              		.loc 1 105 0
 137 0014 FFF7FEFF 		bl	Comp_ISENSE_Enable
 138              	.LVL3:
 106:Generated_Source\PSoC4/Comp_ISENSE.c **** }
 139              		.loc 1 106 0
 140              		@ sp needed
 141 0018 10BD     		pop	{r4, pc}
 142              	.L10:
 143 001a C046     		.align	2
 144              	.L9:
 145 001c 00000000 		.word	.LANCHOR0
 146              		.cfi_endproc
 147              	.LFE2:
 148              		.size	Comp_ISENSE_Start, .-Comp_ISENSE_Start
 149              		.section	.text.Comp_ISENSE_Stop,"ax",%progbits
 150              		.align	2
 151              		.global	Comp_ISENSE_Stop
 152              		.code	16
 153              		.thumb_func
 154              		.type	Comp_ISENSE_Stop, %function
 155              	Comp_ISENSE_Stop:
 156              	.LFB3:
 107:Generated_Source\PSoC4/Comp_ISENSE.c **** 
 108:Generated_Source\PSoC4/Comp_ISENSE.c **** 
 109:Generated_Source\PSoC4/Comp_ISENSE.c **** /*******************************************************************************
 110:Generated_Source\PSoC4/Comp_ISENSE.c **** * Function Name: Comp_ISENSE_Stop
 111:Generated_Source\PSoC4/Comp_ISENSE.c **** ********************************************************************************
 112:Generated_Source\PSoC4/Comp_ISENSE.c **** *
 113:Generated_Source\PSoC4/Comp_ISENSE.c **** * Summary:
 114:Generated_Source\PSoC4/Comp_ISENSE.c **** *  Turns off the comparator block.
 115:Generated_Source\PSoC4/Comp_ISENSE.c **** *
 116:Generated_Source\PSoC4/Comp_ISENSE.c **** * Parameters:
 117:Generated_Source\PSoC4/Comp_ISENSE.c **** *  None
 118:Generated_Source\PSoC4/Comp_ISENSE.c **** *
 119:Generated_Source\PSoC4/Comp_ISENSE.c **** * Return:
 120:Generated_Source\PSoC4/Comp_ISENSE.c **** *  None
 121:Generated_Source\PSoC4/Comp_ISENSE.c **** *
 122:Generated_Source\PSoC4/Comp_ISENSE.c **** * Side Effects:
 123:Generated_Source\PSoC4/Comp_ISENSE.c **** *  Does not affect the comparator speed settings.
 124:Generated_Source\PSoC4/Comp_ISENSE.c **** *
 125:Generated_Source\PSoC4/Comp_ISENSE.c **** *******************************************************************************/
 126:Generated_Source\PSoC4/Comp_ISENSE.c **** void Comp_ISENSE_Stop(void)
 127:Generated_Source\PSoC4/Comp_ISENSE.c **** {
 157              		.loc 1 127 0
 158              		.cfi_startproc
ARM GAS  C:\Users\Rajesh\AppData\Local\Temp\ccFGpIV0.s 			page 6


 159              		@ args = 0, pretend = 0, frame = 0
 160              		@ frame_needed = 0, uses_anonymous_args = 0
 161              		@ link register save eliminated.
 128:Generated_Source\PSoC4/Comp_ISENSE.c ****     Comp_ISENSE_OA_CTRL_REG &= ((uint32)~(Comp_ISENSE_OA_PWR_MODE_MASK | \
 162              		.loc 1 128 0
 163 0000 024A     		ldr	r2, .L12
 164 0002 1168     		ldr	r1, [r2]
 165 0004 024B     		ldr	r3, .L12+4
 166 0006 0B40     		ands	r3, r1
 167 0008 1360     		str	r3, [r2]
 129:Generated_Source\PSoC4/Comp_ISENSE.c ****                                                Comp_ISENSE_OA_PUMP_EN));
 130:Generated_Source\PSoC4/Comp_ISENSE.c **** }
 168              		.loc 1 130 0
 169              		@ sp needed
 170 000a 7047     		bx	lr
 171              	.L13:
 172              		.align	2
 173              	.L12:
 174 000c 04001040 		.word	1074790404
 175 0010 FCF7FFFF 		.word	-2052
 176              		.cfi_endproc
 177              	.LFE3:
 178              		.size	Comp_ISENSE_Stop, .-Comp_ISENSE_Stop
 179              		.section	.text.Comp_ISENSE_SetSpeed,"ax",%progbits
 180              		.align	2
 181              		.global	Comp_ISENSE_SetSpeed
 182              		.code	16
 183              		.thumb_func
 184              		.type	Comp_ISENSE_SetSpeed, %function
 185              	Comp_ISENSE_SetSpeed:
 186              	.LFB4:
 131:Generated_Source\PSoC4/Comp_ISENSE.c **** 
 132:Generated_Source\PSoC4/Comp_ISENSE.c **** 
 133:Generated_Source\PSoC4/Comp_ISENSE.c **** /*******************************************************************************
 134:Generated_Source\PSoC4/Comp_ISENSE.c **** * Function Name: Comp_ISENSE_SetSpeed
 135:Generated_Source\PSoC4/Comp_ISENSE.c **** ********************************************************************************
 136:Generated_Source\PSoC4/Comp_ISENSE.c **** *
 137:Generated_Source\PSoC4/Comp_ISENSE.c **** * Summary:
 138:Generated_Source\PSoC4/Comp_ISENSE.c **** *  Sets the speed to one of three settings: slow, medium, or fast.
 139:Generated_Source\PSoC4/Comp_ISENSE.c **** *
 140:Generated_Source\PSoC4/Comp_ISENSE.c **** * Parameters:
 141:Generated_Source\PSoC4/Comp_ISENSE.c **** *  speed: Enumerated speed mode value.
 142:Generated_Source\PSoC4/Comp_ISENSE.c **** *   Comp_ISENSE_SLOW_SPEED  - Slow speed
 143:Generated_Source\PSoC4/Comp_ISENSE.c **** *   Comp_ISENSE_MED_SPEED   - Medium speed
 144:Generated_Source\PSoC4/Comp_ISENSE.c **** *   Comp_ISENSE_FAST_SPEED  - Fast speed
 145:Generated_Source\PSoC4/Comp_ISENSE.c **** *
 146:Generated_Source\PSoC4/Comp_ISENSE.c **** * Return:
 147:Generated_Source\PSoC4/Comp_ISENSE.c **** *  None
 148:Generated_Source\PSoC4/Comp_ISENSE.c **** *
 149:Generated_Source\PSoC4/Comp_ISENSE.c **** *******************************************************************************/
 150:Generated_Source\PSoC4/Comp_ISENSE.c **** void Comp_ISENSE_SetSpeed(uint32 speed)
 151:Generated_Source\PSoC4/Comp_ISENSE.c **** {
 187              		.loc 1 151 0
 188              		.cfi_startproc
 189              		@ args = 0, pretend = 0, frame = 0
 190              		@ frame_needed = 0, uses_anonymous_args = 0
 191              		@ link register save eliminated.
ARM GAS  C:\Users\Rajesh\AppData\Local\Temp\ccFGpIV0.s 			page 7


 192              	.LVL4:
 152:Generated_Source\PSoC4/Comp_ISENSE.c ****     uint32 tmp;
 153:Generated_Source\PSoC4/Comp_ISENSE.c ****     
 154:Generated_Source\PSoC4/Comp_ISENSE.c ****     Comp_ISENSE_internalSpeed = Comp_ISENSE_GET_OA_PWR_MODE(speed);
 193              		.loc 1 154 0
 194 0000 0321     		movs	r1, #3
 195 0002 0840     		ands	r0, r1
 196              	.LVL5:
 197 0004 034B     		ldr	r3, .L15
 198 0006 1860     		str	r0, [r3]
 155:Generated_Source\PSoC4/Comp_ISENSE.c ****     tmp = Comp_ISENSE_OA_RES_CTRL_REG & \
 199              		.loc 1 155 0
 200 0008 034A     		ldr	r2, .L15+4
 201 000a 1368     		ldr	r3, [r2]
 202 000c 8B43     		bics	r3, r1
 203              	.LVL6:
 156:Generated_Source\PSoC4/Comp_ISENSE.c ****            (uint32)~Comp_ISENSE_OA_PWR_MODE_MASK;
 157:Generated_Source\PSoC4/Comp_ISENSE.c ****     Comp_ISENSE_OA_RES_CTRL_REG = tmp | Comp_ISENSE_internalSpeed;
 204              		.loc 1 157 0
 205 000e 1843     		orrs	r0, r3
 206 0010 1060     		str	r0, [r2]
 158:Generated_Source\PSoC4/Comp_ISENSE.c **** }
 207              		.loc 1 158 0
 208              		@ sp needed
 209 0012 7047     		bx	lr
 210              	.L16:
 211              		.align	2
 212              	.L15:
 213 0014 00000000 		.word	.LANCHOR0
 214 0018 04001040 		.word	1074790404
 215              		.cfi_endproc
 216              	.LFE4:
 217              		.size	Comp_ISENSE_SetSpeed, .-Comp_ISENSE_SetSpeed
 218              		.section	.text.Comp_ISENSE_LoadTrim,"ax",%progbits
 219              		.align	2
 220              		.global	Comp_ISENSE_LoadTrim
 221              		.code	16
 222              		.thumb_func
 223              		.type	Comp_ISENSE_LoadTrim, %function
 224              	Comp_ISENSE_LoadTrim:
 225              	.LFB6:
 159:Generated_Source\PSoC4/Comp_ISENSE.c **** 
 160:Generated_Source\PSoC4/Comp_ISENSE.c **** 
 161:Generated_Source\PSoC4/Comp_ISENSE.c **** /*******************************************************************************
 162:Generated_Source\PSoC4/Comp_ISENSE.c **** * Function Name: Comp_ISENSE_ZeroCal
 163:Generated_Source\PSoC4/Comp_ISENSE.c **** ********************************************************************************
 164:Generated_Source\PSoC4/Comp_ISENSE.c **** *
 165:Generated_Source\PSoC4/Comp_ISENSE.c **** * Summary:
 166:Generated_Source\PSoC4/Comp_ISENSE.c **** *  Performs custom calibration of the input offset to minimize the error for a 
 167:Generated_Source\PSoC4/Comp_ISENSE.c **** *  specific set of conditions: the comparator reference voltage, supply voltage, 
 168:Generated_Source\PSoC4/Comp_ISENSE.c **** *  and operating temperature. A reference voltage in the range at which the 
 169:Generated_Source\PSoC4/Comp_ISENSE.c **** *  comparator will be used must be applied to the Negative and Positive inputs 
 170:Generated_Source\PSoC4/Comp_ISENSE.c **** *  of the comparator while the offset calibration is performed. This can be done 
 171:Generated_Source\PSoC4/Comp_ISENSE.c **** *  external to the device or by using an internal analog mux on the positive input 
 172:Generated_Source\PSoC4/Comp_ISENSE.c **** *  that selects between the positive input signal for normal operation and the 
 173:Generated_Source\PSoC4/Comp_ISENSE.c **** *  negative input signal for calibration.
 174:Generated_Source\PSoC4/Comp_ISENSE.c **** *
ARM GAS  C:\Users\Rajesh\AppData\Local\Temp\ccFGpIV0.s 			page 8


 175:Generated_Source\PSoC4/Comp_ISENSE.c **** * Parameters:
 176:Generated_Source\PSoC4/Comp_ISENSE.c **** *  None
 177:Generated_Source\PSoC4/Comp_ISENSE.c **** *
 178:Generated_Source\PSoC4/Comp_ISENSE.c **** * Return:
 179:Generated_Source\PSoC4/Comp_ISENSE.c **** *  (uint32): The value from the comparator trim register after the offset 
 180:Generated_Source\PSoC4/Comp_ISENSE.c **** *  calibration is complete. This value has the same format as the input parameter 
 181:Generated_Source\PSoC4/Comp_ISENSE.c **** *  for the LoadTrim() API routine.
 182:Generated_Source\PSoC4/Comp_ISENSE.c **** *
 183:Generated_Source\PSoC4/Comp_ISENSE.c **** *
 184:Generated_Source\PSoC4/Comp_ISENSE.c **** * Side Effects:
 185:Generated_Source\PSoC4/Comp_ISENSE.c **** *  During the calibration procedure, the comparator output may behave erratically. 
 186:Generated_Source\PSoC4/Comp_ISENSE.c **** *  The comparator output should be ignored during calibration.
 187:Generated_Source\PSoC4/Comp_ISENSE.c **** *
 188:Generated_Source\PSoC4/Comp_ISENSE.c **** *******************************************************************************/
 189:Generated_Source\PSoC4/Comp_ISENSE.c **** uint32 Comp_ISENSE_ZeroCal(void)
 190:Generated_Source\PSoC4/Comp_ISENSE.c **** {
 191:Generated_Source\PSoC4/Comp_ISENSE.c ****     uint32 cmpOut;
 192:Generated_Source\PSoC4/Comp_ISENSE.c ****     uint32 i;
 193:Generated_Source\PSoC4/Comp_ISENSE.c ****     
 194:Generated_Source\PSoC4/Comp_ISENSE.c ****     /* Clear trim registers before trimming */
 195:Generated_Source\PSoC4/Comp_ISENSE.c ****     Comp_ISENSE_OA_OFFSET_TRIM_REG       = 0u;
 196:Generated_Source\PSoC4/Comp_ISENSE.c ****     Comp_ISENSE_OA_SLOPE_OFFSET_TRIM_REG = 0u;
 197:Generated_Source\PSoC4/Comp_ISENSE.c ****     
 198:Generated_Source\PSoC4/Comp_ISENSE.c ****     /* Check comparator's output state */
 199:Generated_Source\PSoC4/Comp_ISENSE.c ****     cmpOut = Comp_ISENSE_GetCompare();
 200:Generated_Source\PSoC4/Comp_ISENSE.c ****     
 201:Generated_Source\PSoC4/Comp_ISENSE.c ****     /* Connect the outputs of trim IDACs to the positive
 202:Generated_Source\PSoC4/Comp_ISENSE.c ****     * output leg of the folded cascade 
 203:Generated_Source\PSoC4/Comp_ISENSE.c ****     */
 204:Generated_Source\PSoC4/Comp_ISENSE.c ****     if(cmpOut == 0u)
 205:Generated_Source\PSoC4/Comp_ISENSE.c ****     {
 206:Generated_Source\PSoC4/Comp_ISENSE.c ****         Comp_ISENSE_OA_OFFSET_TRIM_REG       = ((uint32) 1u << Comp_ISENSE_COMP_TRIM_SIGN_SHIFT);
 207:Generated_Source\PSoC4/Comp_ISENSE.c ****         Comp_ISENSE_OA_SLOPE_OFFSET_TRIM_REG = ((uint32) 1u << Comp_ISENSE_COMP_TRIM_SIGN_SHIFT);
 208:Generated_Source\PSoC4/Comp_ISENSE.c ****     }
 209:Generated_Source\PSoC4/Comp_ISENSE.c ****         
 210:Generated_Source\PSoC4/Comp_ISENSE.c ****     /* Searching offset trim setting, 
 211:Generated_Source\PSoC4/Comp_ISENSE.c ****     * that flips comparator output 
 212:Generated_Source\PSoC4/Comp_ISENSE.c ****     */
 213:Generated_Source\PSoC4/Comp_ISENSE.c ****     for(i = Comp_ISENSE_COMP_TRIM_MAX_VALUE; i != 0u; i--)
 214:Generated_Source\PSoC4/Comp_ISENSE.c ****     {
 215:Generated_Source\PSoC4/Comp_ISENSE.c ****         Comp_ISENSE_OA_OFFSET_TRIM_REG++;
 216:Generated_Source\PSoC4/Comp_ISENSE.c ****         CyDelayUs(Comp_ISENSE_COMP_CALIBRATION_DELAY);
 217:Generated_Source\PSoC4/Comp_ISENSE.c ****         if(cmpOut != Comp_ISENSE_GetCompare())
 218:Generated_Source\PSoC4/Comp_ISENSE.c ****         {
 219:Generated_Source\PSoC4/Comp_ISENSE.c ****             break;
 220:Generated_Source\PSoC4/Comp_ISENSE.c ****         }
 221:Generated_Source\PSoC4/Comp_ISENSE.c ****     }
 222:Generated_Source\PSoC4/Comp_ISENSE.c ****     
 223:Generated_Source\PSoC4/Comp_ISENSE.c ****     /* Returns offset trim value */
 224:Generated_Source\PSoC4/Comp_ISENSE.c ****     return (Comp_ISENSE_OA_OFFSET_TRIM_REG);
 225:Generated_Source\PSoC4/Comp_ISENSE.c **** }
 226:Generated_Source\PSoC4/Comp_ISENSE.c **** 
 227:Generated_Source\PSoC4/Comp_ISENSE.c **** 
 228:Generated_Source\PSoC4/Comp_ISENSE.c **** /*******************************************************************************
 229:Generated_Source\PSoC4/Comp_ISENSE.c **** * Function Name: Comp_ISENSE_LoadTrim
 230:Generated_Source\PSoC4/Comp_ISENSE.c **** ********************************************************************************
 231:Generated_Source\PSoC4/Comp_ISENSE.c **** *
ARM GAS  C:\Users\Rajesh\AppData\Local\Temp\ccFGpIV0.s 			page 9


 232:Generated_Source\PSoC4/Comp_ISENSE.c **** * Summary:
 233:Generated_Source\PSoC4/Comp_ISENSE.c **** *  This function writes a value into the comparator offset trim register.
 234:Generated_Source\PSoC4/Comp_ISENSE.c **** *
 235:Generated_Source\PSoC4/Comp_ISENSE.c **** * Parameters:
 236:Generated_Source\PSoC4/Comp_ISENSE.c **** *  uint32 trimVal: Value to be stored in the comparator offset trim register. 
 237:Generated_Source\PSoC4/Comp_ISENSE.c **** *  This value has the same format as the parameter returned by the ZeroCal() 
 238:Generated_Source\PSoC4/Comp_ISENSE.c **** *  routine.
 239:Generated_Source\PSoC4/Comp_ISENSE.c **** *
 240:Generated_Source\PSoC4/Comp_ISENSE.c **** * Return:
 241:Generated_Source\PSoC4/Comp_ISENSE.c **** *  None
 242:Generated_Source\PSoC4/Comp_ISENSE.c **** *
 243:Generated_Source\PSoC4/Comp_ISENSE.c **** *******************************************************************************/
 244:Generated_Source\PSoC4/Comp_ISENSE.c **** void Comp_ISENSE_LoadTrim(uint32 trimVal)
 245:Generated_Source\PSoC4/Comp_ISENSE.c **** {
 226              		.loc 1 245 0
 227              		.cfi_startproc
 228              		@ args = 0, pretend = 0, frame = 0
 229              		@ frame_needed = 0, uses_anonymous_args = 0
 230              		@ link register save eliminated.
 231              	.LVL7:
 246:Generated_Source\PSoC4/Comp_ISENSE.c ****     Comp_ISENSE_OA_OFFSET_TRIM_REG = trimVal;
 232              		.loc 1 246 0
 233 0000 014B     		ldr	r3, .L18
 234 0002 1860     		str	r0, [r3]
 247:Generated_Source\PSoC4/Comp_ISENSE.c **** }
 235              		.loc 1 247 0
 236              		@ sp needed
 237 0004 7047     		bx	lr
 238              	.L19:
 239 0006 C046     		.align	2
 240              	.L18:
 241 0008 000F1040 		.word	1074794240
 242              		.cfi_endproc
 243              	.LFE6:
 244              		.size	Comp_ISENSE_LoadTrim, .-Comp_ISENSE_LoadTrim
 245              		.section	.text.Comp_ISENSE_GetCompare,"ax",%progbits
 246              		.align	2
 247              		.global	Comp_ISENSE_GetCompare
 248              		.code	16
 249              		.thumb_func
 250              		.type	Comp_ISENSE_GetCompare, %function
 251              	Comp_ISENSE_GetCompare:
 252              	.LFB7:
 248:Generated_Source\PSoC4/Comp_ISENSE.c **** 
 249:Generated_Source\PSoC4/Comp_ISENSE.c **** 
 250:Generated_Source\PSoC4/Comp_ISENSE.c **** /*******************************************************************************
 251:Generated_Source\PSoC4/Comp_ISENSE.c **** * Function Name: Comp_ISENSE_GetCompare
 252:Generated_Source\PSoC4/Comp_ISENSE.c **** ********************************************************************************
 253:Generated_Source\PSoC4/Comp_ISENSE.c **** *
 254:Generated_Source\PSoC4/Comp_ISENSE.c **** * Summary:
 255:Generated_Source\PSoC4/Comp_ISENSE.c **** *  This function returns a non-zero value when the voltage connected to the positive 
 256:Generated_Source\PSoC4/Comp_ISENSE.c **** *  input is greater than the negative input voltage. This value is not affected by 
 257:Generated_Source\PSoC4/Comp_ISENSE.c **** *  the Polarity parameter. This value always reflects a non-inverted state 
 258:Generated_Source\PSoC4/Comp_ISENSE.c **** *  configuration.
 259:Generated_Source\PSoC4/Comp_ISENSE.c **** *  This function reads the direct (unflopped) comparator output which can also be 
 260:Generated_Source\PSoC4/Comp_ISENSE.c **** *  metastable (since it may result in incorrect data).
 261:Generated_Source\PSoC4/Comp_ISENSE.c **** *
ARM GAS  C:\Users\Rajesh\AppData\Local\Temp\ccFGpIV0.s 			page 10


 262:Generated_Source\PSoC4/Comp_ISENSE.c **** * Parameters:
 263:Generated_Source\PSoC4/Comp_ISENSE.c **** *   None
 264:Generated_Source\PSoC4/Comp_ISENSE.c **** *
 265:Generated_Source\PSoC4/Comp_ISENSE.c **** * Return:
 266:Generated_Source\PSoC4/Comp_ISENSE.c **** *  The comparator output state. A non-zero value when the positive input voltage is 
 267:Generated_Source\PSoC4/Comp_ISENSE.c **** *  greater than the negative input voltage; otherwise, the return value is zero.
 268:Generated_Source\PSoC4/Comp_ISENSE.c **** *
 269:Generated_Source\PSoC4/Comp_ISENSE.c **** *******************************************************************************/
 270:Generated_Source\PSoC4/Comp_ISENSE.c **** uint32 Comp_ISENSE_GetCompare(void)
 271:Generated_Source\PSoC4/Comp_ISENSE.c **** {
 253              		.loc 1 271 0
 254              		.cfi_startproc
 255              		@ args = 0, pretend = 0, frame = 0
 256              		@ frame_needed = 0, uses_anonymous_args = 0
 257              		@ link register save eliminated.
 272:Generated_Source\PSoC4/Comp_ISENSE.c ****     return ((uint32)(Comp_ISENSE_OA_COMP_STAT_REG >> Comp_ISENSE_OA_COMP_SHIFT) & 1u);
 258              		.loc 1 272 0
 259 0000 024B     		ldr	r3, .L21
 260 0002 1B68     		ldr	r3, [r3]
 261 0004 0120     		movs	r0, #1
 262 0006 1840     		ands	r0, r3
 273:Generated_Source\PSoC4/Comp_ISENSE.c **** }
 263              		.loc 1 273 0
 264              		@ sp needed
 265 0008 7047     		bx	lr
 266              	.L22:
 267 000a C046     		.align	2
 268              	.L21:
 269 000c 0C001040 		.word	1074790412
 270              		.cfi_endproc
 271              	.LFE7:
 272              		.size	Comp_ISENSE_GetCompare, .-Comp_ISENSE_GetCompare
 273              		.section	.text.Comp_ISENSE_ZeroCal,"ax",%progbits
 274              		.align	2
 275              		.global	Comp_ISENSE_ZeroCal
 276              		.code	16
 277              		.thumb_func
 278              		.type	Comp_ISENSE_ZeroCal, %function
 279              	Comp_ISENSE_ZeroCal:
 280              	.LFB5:
 190:Generated_Source\PSoC4/Comp_ISENSE.c ****     uint32 cmpOut;
 281              		.loc 1 190 0
 282              		.cfi_startproc
 283              		@ args = 0, pretend = 0, frame = 0
 284              		@ frame_needed = 0, uses_anonymous_args = 0
 285 0000 70B5     		push	{r4, r5, r6, lr}
 286              		.cfi_def_cfa_offset 16
 287              		.cfi_offset 4, -16
 288              		.cfi_offset 5, -12
 289              		.cfi_offset 6, -8
 290              		.cfi_offset 14, -4
 195:Generated_Source\PSoC4/Comp_ISENSE.c ****     Comp_ISENSE_OA_SLOPE_OFFSET_TRIM_REG = 0u;
 291              		.loc 1 195 0
 292 0002 0023     		movs	r3, #0
 293 0004 0F4A     		ldr	r2, .L28
 294 0006 1360     		str	r3, [r2]
 196:Generated_Source\PSoC4/Comp_ISENSE.c ****     
ARM GAS  C:\Users\Rajesh\AppData\Local\Temp\ccFGpIV0.s 			page 11


 295              		.loc 1 196 0
 296 0008 0F4A     		ldr	r2, .L28+4
 297 000a 1360     		str	r3, [r2]
 199:Generated_Source\PSoC4/Comp_ISENSE.c ****     
 298              		.loc 1 199 0
 299 000c FFF7FEFF 		bl	Comp_ISENSE_GetCompare
 300              	.LVL8:
 301 0010 051E     		subs	r5, r0, #0
 302              	.LVL9:
 204:Generated_Source\PSoC4/Comp_ISENSE.c ****     {
 303              		.loc 1 204 0
 304 0012 04D1     		bne	.L24
 206:Generated_Source\PSoC4/Comp_ISENSE.c ****         Comp_ISENSE_OA_SLOPE_OFFSET_TRIM_REG = ((uint32) 1u << Comp_ISENSE_COMP_TRIM_SIGN_SHIFT);
 305              		.loc 1 206 0
 306 0014 2023     		movs	r3, #32
 307 0016 0B4A     		ldr	r2, .L28
 308 0018 1360     		str	r3, [r2]
 207:Generated_Source\PSoC4/Comp_ISENSE.c ****     }
 309              		.loc 1 207 0
 310 001a 0B4A     		ldr	r2, .L28+4
 311 001c 1360     		str	r3, [r2]
 312              	.L24:
 190:Generated_Source\PSoC4/Comp_ISENSE.c ****     uint32 cmpOut;
 313              		.loc 1 190 0 discriminator 1
 314 001e 2024     		movs	r4, #32
 315 0020 0BE0     		b	.L25
 316              	.LVL10:
 317              	.L27:
 215:Generated_Source\PSoC4/Comp_ISENSE.c ****         CyDelayUs(Comp_ISENSE_COMP_CALIBRATION_DELAY);
 318              		.loc 1 215 0
 319 0022 084A     		ldr	r2, .L28
 320 0024 1368     		ldr	r3, [r2]
 321 0026 0133     		adds	r3, r3, #1
 322 0028 1360     		str	r3, [r2]
 216:Generated_Source\PSoC4/Comp_ISENSE.c ****         if(cmpOut != Comp_ISENSE_GetCompare())
 323              		.loc 1 216 0
 324 002a 0A20     		movs	r0, #10
 325 002c FFF7FEFF 		bl	CyDelayUs
 326              	.LVL11:
 217:Generated_Source\PSoC4/Comp_ISENSE.c ****         {
 327              		.loc 1 217 0
 328 0030 FFF7FEFF 		bl	Comp_ISENSE_GetCompare
 329              	.LVL12:
 330 0034 8542     		cmp	r5, r0
 331 0036 02D1     		bne	.L26
 213:Generated_Source\PSoC4/Comp_ISENSE.c ****     {
 332              		.loc 1 213 0 discriminator 2
 333 0038 013C     		subs	r4, r4, #1
 334              	.LVL13:
 335              	.L25:
 213:Generated_Source\PSoC4/Comp_ISENSE.c ****     {
 336              		.loc 1 213 0 is_stmt 0 discriminator 1
 337 003a 002C     		cmp	r4, #0
 338 003c F1D1     		bne	.L27
 339              	.L26:
 224:Generated_Source\PSoC4/Comp_ISENSE.c **** }
 340              		.loc 1 224 0 is_stmt 1
ARM GAS  C:\Users\Rajesh\AppData\Local\Temp\ccFGpIV0.s 			page 12


 341 003e 014B     		ldr	r3, .L28
 342 0040 1868     		ldr	r0, [r3]
 225:Generated_Source\PSoC4/Comp_ISENSE.c **** 
 343              		.loc 1 225 0
 344              		@ sp needed
 345              	.LVL14:
 346              	.LVL15:
 347 0042 70BD     		pop	{r4, r5, r6, pc}
 348              	.L29:
 349              		.align	2
 350              	.L28:
 351 0044 000F1040 		.word	1074794240
 352 0048 040F1040 		.word	1074794244
 353              		.cfi_endproc
 354              	.LFE5:
 355              		.size	Comp_ISENSE_ZeroCal, .-Comp_ISENSE_ZeroCal
 356              		.section	.text.Comp_ISENSE_GetInterruptSource,"ax",%progbits
 357              		.align	2
 358              		.global	Comp_ISENSE_GetInterruptSource
 359              		.code	16
 360              		.thumb_func
 361              		.type	Comp_ISENSE_GetInterruptSource, %function
 362              	Comp_ISENSE_GetInterruptSource:
 363              	.LFB8:
 274:Generated_Source\PSoC4/Comp_ISENSE.c **** 
 275:Generated_Source\PSoC4/Comp_ISENSE.c **** 
 276:Generated_Source\PSoC4/Comp_ISENSE.c **** /*******************************************************************************
 277:Generated_Source\PSoC4/Comp_ISENSE.c **** * Function Name: Comp_ISENSE_GetInterruptSource
 278:Generated_Source\PSoC4/Comp_ISENSE.c **** ********************************************************************************
 279:Generated_Source\PSoC4/Comp_ISENSE.c **** *
 280:Generated_Source\PSoC4/Comp_ISENSE.c **** * Summary:
 281:Generated_Source\PSoC4/Comp_ISENSE.c **** *  Gets the interrupt requests. This function is for use when using the combined
 282:Generated_Source\PSoC4/Comp_ISENSE.c **** *  interrupt signal from the global signal reference. This function from either
 283:Generated_Source\PSoC4/Comp_ISENSE.c **** *  component instance can be used to determine the interrupt source for all the
 284:Generated_Source\PSoC4/Comp_ISENSE.c **** *  comparator interrupts combined.
 285:Generated_Source\PSoC4/Comp_ISENSE.c **** *
 286:Generated_Source\PSoC4/Comp_ISENSE.c **** * Parameters:
 287:Generated_Source\PSoC4/Comp_ISENSE.c **** *  None
 288:Generated_Source\PSoC4/Comp_ISENSE.c **** *
 289:Generated_Source\PSoC4/Comp_ISENSE.c **** * Return:
 290:Generated_Source\PSoC4/Comp_ISENSE.c **** *  uint32: Interrupt source. Each component instance has a mask value:
 291:Generated_Source\PSoC4/Comp_ISENSE.c **** *  Comp_ISENSE_INTR.
 292:Generated_Source\PSoC4/Comp_ISENSE.c **** *
 293:Generated_Source\PSoC4/Comp_ISENSE.c **** *******************************************************************************/
 294:Generated_Source\PSoC4/Comp_ISENSE.c **** uint32 Comp_ISENSE_GetInterruptSource(void)
 295:Generated_Source\PSoC4/Comp_ISENSE.c **** {
 364              		.loc 1 295 0
 365              		.cfi_startproc
 366              		@ args = 0, pretend = 0, frame = 0
 367              		@ frame_needed = 0, uses_anonymous_args = 0
 368              		@ link register save eliminated.
 296:Generated_Source\PSoC4/Comp_ISENSE.c ****     return (Comp_ISENSE_INTR_REG); 
 369              		.loc 1 296 0
 370 0000 014B     		ldr	r3, .L31
 371 0002 1868     		ldr	r0, [r3]
 297:Generated_Source\PSoC4/Comp_ISENSE.c **** }
 372              		.loc 1 297 0
ARM GAS  C:\Users\Rajesh\AppData\Local\Temp\ccFGpIV0.s 			page 13


 373              		@ sp needed
 374 0004 7047     		bx	lr
 375              	.L32:
 376 0006 C046     		.align	2
 377              	.L31:
 378 0008 20001040 		.word	1074790432
 379              		.cfi_endproc
 380              	.LFE8:
 381              		.size	Comp_ISENSE_GetInterruptSource, .-Comp_ISENSE_GetInterruptSource
 382              		.section	.text.Comp_ISENSE_ClearInterrupt,"ax",%progbits
 383              		.align	2
 384              		.global	Comp_ISENSE_ClearInterrupt
 385              		.code	16
 386              		.thumb_func
 387              		.type	Comp_ISENSE_ClearInterrupt, %function
 388              	Comp_ISENSE_ClearInterrupt:
 389              	.LFB9:
 298:Generated_Source\PSoC4/Comp_ISENSE.c **** 
 299:Generated_Source\PSoC4/Comp_ISENSE.c **** 
 300:Generated_Source\PSoC4/Comp_ISENSE.c **** /*******************************************************************************
 301:Generated_Source\PSoC4/Comp_ISENSE.c **** * Function Name: Comp_ISENSE_ClearInterrupt
 302:Generated_Source\PSoC4/Comp_ISENSE.c **** ********************************************************************************
 303:Generated_Source\PSoC4/Comp_ISENSE.c **** *
 304:Generated_Source\PSoC4/Comp_ISENSE.c **** * Summary:
 305:Generated_Source\PSoC4/Comp_ISENSE.c **** *  Clears the interrupt request. This function is for use when using the
 306:Generated_Source\PSoC4/Comp_ISENSE.c **** *  combined interrupt signal from the global signal reference. This function
 307:Generated_Source\PSoC4/Comp_ISENSE.c **** *  from either component instance can be used to clear either or both
 308:Generated_Source\PSoC4/Comp_ISENSE.c **** *  interrupts.
 309:Generated_Source\PSoC4/Comp_ISENSE.c **** *
 310:Generated_Source\PSoC4/Comp_ISENSE.c **** * Parameters:
 311:Generated_Source\PSoC4/Comp_ISENSE.c **** *  uint32 interruptMask: Mask of interrupts to clear. Each component instance
 312:Generated_Source\PSoC4/Comp_ISENSE.c **** *  has a mask value: Comp_ISENSE_INTR.
 313:Generated_Source\PSoC4/Comp_ISENSE.c **** *
 314:Generated_Source\PSoC4/Comp_ISENSE.c **** * Return:
 315:Generated_Source\PSoC4/Comp_ISENSE.c **** *  None
 316:Generated_Source\PSoC4/Comp_ISENSE.c **** *
 317:Generated_Source\PSoC4/Comp_ISENSE.c **** *******************************************************************************/
 318:Generated_Source\PSoC4/Comp_ISENSE.c **** void Comp_ISENSE_ClearInterrupt(uint32 interruptMask)
 319:Generated_Source\PSoC4/Comp_ISENSE.c **** {   
 390              		.loc 1 319 0
 391              		.cfi_startproc
 392              		@ args = 0, pretend = 0, frame = 0
 393              		@ frame_needed = 0, uses_anonymous_args = 0
 394              		@ link register save eliminated.
 395              	.LVL16:
 320:Generated_Source\PSoC4/Comp_ISENSE.c ****     Comp_ISENSE_INTR_REG = interruptMask;
 396              		.loc 1 320 0
 397 0000 014B     		ldr	r3, .L34
 398 0002 1860     		str	r0, [r3]
 321:Generated_Source\PSoC4/Comp_ISENSE.c **** }
 399              		.loc 1 321 0
 400              		@ sp needed
 401 0004 7047     		bx	lr
 402              	.L35:
 403 0006 C046     		.align	2
 404              	.L34:
 405 0008 20001040 		.word	1074790432
ARM GAS  C:\Users\Rajesh\AppData\Local\Temp\ccFGpIV0.s 			page 14


 406              		.cfi_endproc
 407              	.LFE9:
 408              		.size	Comp_ISENSE_ClearInterrupt, .-Comp_ISENSE_ClearInterrupt
 409              		.section	.text.Comp_ISENSE_SetInterrupt,"ax",%progbits
 410              		.align	2
 411              		.global	Comp_ISENSE_SetInterrupt
 412              		.code	16
 413              		.thumb_func
 414              		.type	Comp_ISENSE_SetInterrupt, %function
 415              	Comp_ISENSE_SetInterrupt:
 416              	.LFB10:
 322:Generated_Source\PSoC4/Comp_ISENSE.c **** 
 323:Generated_Source\PSoC4/Comp_ISENSE.c **** 
 324:Generated_Source\PSoC4/Comp_ISENSE.c **** /*******************************************************************************
 325:Generated_Source\PSoC4/Comp_ISENSE.c **** * Function Name: Comp_ISENSE_SetInterrupt
 326:Generated_Source\PSoC4/Comp_ISENSE.c **** ********************************************************************************
 327:Generated_Source\PSoC4/Comp_ISENSE.c **** *
 328:Generated_Source\PSoC4/Comp_ISENSE.c **** * Summary:
 329:Generated_Source\PSoC4/Comp_ISENSE.c **** *  Sets a software interrupt request. This function is for use when using the
 330:Generated_Source\PSoC4/Comp_ISENSE.c **** *  combined interrupt signal from the global signal reference. This function
 331:Generated_Source\PSoC4/Comp_ISENSE.c **** *  from either component instance can be used to trigger either or both software
 332:Generated_Source\PSoC4/Comp_ISENSE.c **** *  interrupts.
 333:Generated_Source\PSoC4/Comp_ISENSE.c **** *
 334:Generated_Source\PSoC4/Comp_ISENSE.c **** * Parameters:
 335:Generated_Source\PSoC4/Comp_ISENSE.c **** *  uint32 interruptMask: Mask of interrupts to set. Each component instance has
 336:Generated_Source\PSoC4/Comp_ISENSE.c **** *  a mask value: Comp_ISENSE_INTR_SET.
 337:Generated_Source\PSoC4/Comp_ISENSE.c **** *
 338:Generated_Source\PSoC4/Comp_ISENSE.c **** * Return:
 339:Generated_Source\PSoC4/Comp_ISENSE.c **** *  None
 340:Generated_Source\PSoC4/Comp_ISENSE.c **** *
 341:Generated_Source\PSoC4/Comp_ISENSE.c **** *******************************************************************************/
 342:Generated_Source\PSoC4/Comp_ISENSE.c **** void Comp_ISENSE_SetInterrupt(uint32 interruptMask)
 343:Generated_Source\PSoC4/Comp_ISENSE.c **** {
 417              		.loc 1 343 0
 418              		.cfi_startproc
 419              		@ args = 0, pretend = 0, frame = 0
 420              		@ frame_needed = 0, uses_anonymous_args = 0
 421              	.LVL17:
 422 0000 10B5     		push	{r4, lr}
 423              		.cfi_def_cfa_offset 8
 424              		.cfi_offset 4, -8
 425              		.cfi_offset 14, -4
 426 0002 0400     		movs	r4, r0
 344:Generated_Source\PSoC4/Comp_ISENSE.c ****     uint8 enableInterrupts;
 345:Generated_Source\PSoC4/Comp_ISENSE.c ****     
 346:Generated_Source\PSoC4/Comp_ISENSE.c ****     enableInterrupts = CyEnterCriticalSection();
 427              		.loc 1 346 0
 428 0004 FFF7FEFF 		bl	CyEnterCriticalSection
 429              	.LVL18:
 347:Generated_Source\PSoC4/Comp_ISENSE.c ****     Comp_ISENSE_INTR_SET_REG |= interruptMask;
 430              		.loc 1 347 0
 431 0008 034B     		ldr	r3, .L37
 432 000a 1A68     		ldr	r2, [r3]
 433 000c 1443     		orrs	r4, r2
 434              	.LVL19:
 435 000e 1C60     		str	r4, [r3]
 348:Generated_Source\PSoC4/Comp_ISENSE.c ****     CyExitCriticalSection(enableInterrupts);
ARM GAS  C:\Users\Rajesh\AppData\Local\Temp\ccFGpIV0.s 			page 15


 436              		.loc 1 348 0
 437 0010 FFF7FEFF 		bl	CyExitCriticalSection
 438              	.LVL20:
 349:Generated_Source\PSoC4/Comp_ISENSE.c **** }
 439              		.loc 1 349 0
 440              		@ sp needed
 441 0014 10BD     		pop	{r4, pc}
 442              	.L38:
 443 0016 C046     		.align	2
 444              	.L37:
 445 0018 24001040 		.word	1074790436
 446              		.cfi_endproc
 447              	.LFE10:
 448              		.size	Comp_ISENSE_SetInterrupt, .-Comp_ISENSE_SetInterrupt
 449              		.section	.text.Comp_ISENSE_SetInterruptMask,"ax",%progbits
 450              		.align	2
 451              		.global	Comp_ISENSE_SetInterruptMask
 452              		.code	16
 453              		.thumb_func
 454              		.type	Comp_ISENSE_SetInterruptMask, %function
 455              	Comp_ISENSE_SetInterruptMask:
 456              	.LFB11:
 350:Generated_Source\PSoC4/Comp_ISENSE.c **** 
 351:Generated_Source\PSoC4/Comp_ISENSE.c **** 
 352:Generated_Source\PSoC4/Comp_ISENSE.c **** /*******************************************************************************
 353:Generated_Source\PSoC4/Comp_ISENSE.c **** * Function Name: Comp_ISENSE_SetInterruptMask
 354:Generated_Source\PSoC4/Comp_ISENSE.c **** ********************************************************************************
 355:Generated_Source\PSoC4/Comp_ISENSE.c **** *
 356:Generated_Source\PSoC4/Comp_ISENSE.c **** * Summary:
 357:Generated_Source\PSoC4/Comp_ISENSE.c **** *  Configures the interrupt mask for all comparators in the system.
 358:Generated_Source\PSoC4/Comp_ISENSE.c **** *
 359:Generated_Source\PSoC4/Comp_ISENSE.c **** * Parameters:
 360:Generated_Source\PSoC4/Comp_ISENSE.c **** *  uint32 interruptMask: Bit-mask of interrupt sources to be enabled. Each 
 361:Generated_Source\PSoC4/Comp_ISENSE.c **** *  component instance has a mask value: Comp_ISENSE_INTR_MASK.
 362:Generated_Source\PSoC4/Comp_ISENSE.c **** *
 363:Generated_Source\PSoC4/Comp_ISENSE.c **** * Return:
 364:Generated_Source\PSoC4/Comp_ISENSE.c **** *  None
 365:Generated_Source\PSoC4/Comp_ISENSE.c **** *
 366:Generated_Source\PSoC4/Comp_ISENSE.c **** *******************************************************************************/
 367:Generated_Source\PSoC4/Comp_ISENSE.c **** void Comp_ISENSE_SetInterruptMask(uint32 interruptMask)
 368:Generated_Source\PSoC4/Comp_ISENSE.c **** {
 457              		.loc 1 368 0
 458              		.cfi_startproc
 459              		@ args = 0, pretend = 0, frame = 0
 460              		@ frame_needed = 0, uses_anonymous_args = 0
 461              		@ link register save eliminated.
 462              	.LVL21:
 369:Generated_Source\PSoC4/Comp_ISENSE.c ****     Comp_ISENSE_INTR_MASK_REG = interruptMask;
 463              		.loc 1 369 0
 464 0000 014B     		ldr	r3, .L40
 465 0002 1860     		str	r0, [r3]
 370:Generated_Source\PSoC4/Comp_ISENSE.c **** }
 466              		.loc 1 370 0
 467              		@ sp needed
 468 0004 7047     		bx	lr
 469              	.L41:
 470 0006 C046     		.align	2
ARM GAS  C:\Users\Rajesh\AppData\Local\Temp\ccFGpIV0.s 			page 16


 471              	.L40:
 472 0008 28001040 		.word	1074790440
 473              		.cfi_endproc
 474              	.LFE11:
 475              		.size	Comp_ISENSE_SetInterruptMask, .-Comp_ISENSE_SetInterruptMask
 476              		.section	.text.Comp_ISENSE_GetInterruptMask,"ax",%progbits
 477              		.align	2
 478              		.global	Comp_ISENSE_GetInterruptMask
 479              		.code	16
 480              		.thumb_func
 481              		.type	Comp_ISENSE_GetInterruptMask, %function
 482              	Comp_ISENSE_GetInterruptMask:
 483              	.LFB12:
 371:Generated_Source\PSoC4/Comp_ISENSE.c **** 
 372:Generated_Source\PSoC4/Comp_ISENSE.c **** 
 373:Generated_Source\PSoC4/Comp_ISENSE.c **** /*******************************************************************************
 374:Generated_Source\PSoC4/Comp_ISENSE.c **** * Function Name: Comp_ISENSE_GetInterruptMask
 375:Generated_Source\PSoC4/Comp_ISENSE.c **** ********************************************************************************
 376:Generated_Source\PSoC4/Comp_ISENSE.c **** *
 377:Generated_Source\PSoC4/Comp_ISENSE.c **** * Summary:
 378:Generated_Source\PSoC4/Comp_ISENSE.c **** *  Returns interrupt mask for all comparators.
 379:Generated_Source\PSoC4/Comp_ISENSE.c **** *
 380:Generated_Source\PSoC4/Comp_ISENSE.c **** * Parameters:
 381:Generated_Source\PSoC4/Comp_ISENSE.c **** *  None
 382:Generated_Source\PSoC4/Comp_ISENSE.c **** *
 383:Generated_Source\PSoC4/Comp_ISENSE.c **** * Return:
 384:Generated_Source\PSoC4/Comp_ISENSE.c **** *  uint32:  Mask of enabled interrupt source. Each component instance 
 385:Generated_Source\PSoC4/Comp_ISENSE.c **** *  has a mask value: Comp_ISENSE_INTR_MASK.
 386:Generated_Source\PSoC4/Comp_ISENSE.c **** *
 387:Generated_Source\PSoC4/Comp_ISENSE.c **** *******************************************************************************/
 388:Generated_Source\PSoC4/Comp_ISENSE.c **** uint32 Comp_ISENSE_GetInterruptMask(void)
 389:Generated_Source\PSoC4/Comp_ISENSE.c **** {
 484              		.loc 1 389 0
 485              		.cfi_startproc
 486              		@ args = 0, pretend = 0, frame = 0
 487              		@ frame_needed = 0, uses_anonymous_args = 0
 488              		@ link register save eliminated.
 390:Generated_Source\PSoC4/Comp_ISENSE.c ****     return (Comp_ISENSE_INTR_MASK_REG);
 489              		.loc 1 390 0
 490 0000 014B     		ldr	r3, .L43
 491 0002 1868     		ldr	r0, [r3]
 391:Generated_Source\PSoC4/Comp_ISENSE.c **** }
 492              		.loc 1 391 0
 493              		@ sp needed
 494 0004 7047     		bx	lr
 495              	.L44:
 496 0006 C046     		.align	2
 497              	.L43:
 498 0008 28001040 		.word	1074790440
 499              		.cfi_endproc
 500              	.LFE12:
 501              		.size	Comp_ISENSE_GetInterruptMask, .-Comp_ISENSE_GetInterruptMask
 502              		.section	.text.Comp_ISENSE_GetInterruptSourceMasked,"ax",%progbits
 503              		.align	2
 504              		.global	Comp_ISENSE_GetInterruptSourceMasked
 505              		.code	16
 506              		.thumb_func
ARM GAS  C:\Users\Rajesh\AppData\Local\Temp\ccFGpIV0.s 			page 17


 507              		.type	Comp_ISENSE_GetInterruptSourceMasked, %function
 508              	Comp_ISENSE_GetInterruptSourceMasked:
 509              	.LFB13:
 392:Generated_Source\PSoC4/Comp_ISENSE.c **** 
 393:Generated_Source\PSoC4/Comp_ISENSE.c **** 
 394:Generated_Source\PSoC4/Comp_ISENSE.c **** /*******************************************************************************
 395:Generated_Source\PSoC4/Comp_ISENSE.c **** * Function Name: Comp_ISENSE_GetInterruptSourceMasked
 396:Generated_Source\PSoC4/Comp_ISENSE.c **** ********************************************************************************
 397:Generated_Source\PSoC4/Comp_ISENSE.c **** *
 398:Generated_Source\PSoC4/Comp_ISENSE.c **** * Summary:
 399:Generated_Source\PSoC4/Comp_ISENSE.c **** *  Returns interrupt request register masked by interrupt mask for all comparators. 
 400:Generated_Source\PSoC4/Comp_ISENSE.c **** *  Returns the result of bitwise AND operation between corresponding interrupt 
 401:Generated_Source\PSoC4/Comp_ISENSE.c **** *  request and mask bits.
 402:Generated_Source\PSoC4/Comp_ISENSE.c **** *
 403:Generated_Source\PSoC4/Comp_ISENSE.c **** * Parameters:
 404:Generated_Source\PSoC4/Comp_ISENSE.c **** *  None
 405:Generated_Source\PSoC4/Comp_ISENSE.c **** *
 406:Generated_Source\PSoC4/Comp_ISENSE.c **** * Return:
 407:Generated_Source\PSoC4/Comp_ISENSE.c **** *  uint32: Status of enabled interrupt source. Each component instance 
 408:Generated_Source\PSoC4/Comp_ISENSE.c **** *  has a mask value: Comp_ISENSE_INTR_MASKED.
 409:Generated_Source\PSoC4/Comp_ISENSE.c **** *
 410:Generated_Source\PSoC4/Comp_ISENSE.c **** *******************************************************************************/
 411:Generated_Source\PSoC4/Comp_ISENSE.c **** uint32 Comp_ISENSE_GetInterruptSourceMasked(void)
 412:Generated_Source\PSoC4/Comp_ISENSE.c **** {
 510              		.loc 1 412 0
 511              		.cfi_startproc
 512              		@ args = 0, pretend = 0, frame = 0
 513              		@ frame_needed = 0, uses_anonymous_args = 0
 514              		@ link register save eliminated.
 413:Generated_Source\PSoC4/Comp_ISENSE.c ****     return (Comp_ISENSE_INTR_MASKED_REG);
 515              		.loc 1 413 0
 516 0000 014B     		ldr	r3, .L46
 517 0002 1868     		ldr	r0, [r3]
 414:Generated_Source\PSoC4/Comp_ISENSE.c **** }
 518              		.loc 1 414 0
 519              		@ sp needed
 520 0004 7047     		bx	lr
 521              	.L47:
 522 0006 C046     		.align	2
 523              	.L46:
 524 0008 2C001040 		.word	1074790444
 525              		.cfi_endproc
 526              	.LFE13:
 527              		.size	Comp_ISENSE_GetInterruptSourceMasked, .-Comp_ISENSE_GetInterruptSourceMasked
 528              		.section	.text.Comp_ISENSE_SetInterruptMode,"ax",%progbits
 529              		.align	2
 530              		.global	Comp_ISENSE_SetInterruptMode
 531              		.code	16
 532              		.thumb_func
 533              		.type	Comp_ISENSE_SetInterruptMode, %function
 534              	Comp_ISENSE_SetInterruptMode:
 535              	.LFB14:
 415:Generated_Source\PSoC4/Comp_ISENSE.c **** 
 416:Generated_Source\PSoC4/Comp_ISENSE.c **** /*******************************************************************************
 417:Generated_Source\PSoC4/Comp_ISENSE.c **** * Function Name: Comp_ISENSE_SetInterruptMode
 418:Generated_Source\PSoC4/Comp_ISENSE.c **** ********************************************************************************
 419:Generated_Source\PSoC4/Comp_ISENSE.c **** *
ARM GAS  C:\Users\Rajesh\AppData\Local\Temp\ccFGpIV0.s 			page 18


 420:Generated_Source\PSoC4/Comp_ISENSE.c **** * Summary:
 421:Generated_Source\PSoC4/Comp_ISENSE.c **** *  Sets the interrupt edge detect mode.
 422:Generated_Source\PSoC4/Comp_ISENSE.c **** *
 423:Generated_Source\PSoC4/Comp_ISENSE.c **** * Parameters:
 424:Generated_Source\PSoC4/Comp_ISENSE.c **** *  uint32 mode: Enumerated edge detect mode value:
 425:Generated_Source\PSoC4/Comp_ISENSE.c **** *  Comp_ISENSE_INTR_DISABLE - Disable
 426:Generated_Source\PSoC4/Comp_ISENSE.c **** *  Comp_ISENSE_INTR_RISING  - Rising edge detect
 427:Generated_Source\PSoC4/Comp_ISENSE.c **** *  Comp_ISENSE_INTR_FALLING - Falling edge detect
 428:Generated_Source\PSoC4/Comp_ISENSE.c **** *  Comp_ISENSE_INTR_BOTH    - Detect both edges
 429:Generated_Source\PSoC4/Comp_ISENSE.c **** *
 430:Generated_Source\PSoC4/Comp_ISENSE.c **** * Return:
 431:Generated_Source\PSoC4/Comp_ISENSE.c **** *  None
 432:Generated_Source\PSoC4/Comp_ISENSE.c **** *
 433:Generated_Source\PSoC4/Comp_ISENSE.c **** *******************************************************************************/
 434:Generated_Source\PSoC4/Comp_ISENSE.c **** void Comp_ISENSE_SetInterruptMode(uint32 mode)
 435:Generated_Source\PSoC4/Comp_ISENSE.c **** {
 536              		.loc 1 435 0
 537              		.cfi_startproc
 538              		@ args = 0, pretend = 0, frame = 0
 539              		@ frame_needed = 0, uses_anonymous_args = 0
 540              		@ link register save eliminated.
 541              	.LVL22:
 436:Generated_Source\PSoC4/Comp_ISENSE.c ****     uint32 tmp;
 437:Generated_Source\PSoC4/Comp_ISENSE.c **** 
 438:Generated_Source\PSoC4/Comp_ISENSE.c ****     tmp = Comp_ISENSE_OA_RES_CTRL_REG & (uint32)~Comp_ISENSE_OA_COMPINT_MASK;
 542              		.loc 1 438 0
 543 0000 0549     		ldr	r1, .L49
 544 0002 0A68     		ldr	r2, [r1]
 545 0004 054B     		ldr	r3, .L49+4
 546 0006 1A40     		ands	r2, r3
 547              	.LVL23:
 439:Generated_Source\PSoC4/Comp_ISENSE.c ****     Comp_ISENSE_OA_RES_CTRL_REG = tmp | Comp_ISENSE_GET_OA_COMPINT(mode);
 548              		.loc 1 439 0
 549 0008 0002     		lsls	r0, r0, #8
 550              	.LVL24:
 551 000a C023     		movs	r3, #192
 552 000c 9B00     		lsls	r3, r3, #2
 553 000e 1840     		ands	r0, r3
 554 0010 1043     		orrs	r0, r2
 555 0012 0860     		str	r0, [r1]
 440:Generated_Source\PSoC4/Comp_ISENSE.c **** }
 556              		.loc 1 440 0
 557              		@ sp needed
 558 0014 7047     		bx	lr
 559              	.L50:
 560 0016 C046     		.align	2
 561              	.L49:
 562 0018 04001040 		.word	1074790404
 563 001c FFFCFFFF 		.word	-769
 564              		.cfi_endproc
 565              	.LFE14:
 566              		.size	Comp_ISENSE_SetInterruptMode, .-Comp_ISENSE_SetInterruptMode
 567              		.section	.text.Comp_ISENSE_DisableInterruptOutput,"ax",%progbits
 568              		.align	2
 569              		.global	Comp_ISENSE_DisableInterruptOutput
 570              		.code	16
 571              		.thumb_func
ARM GAS  C:\Users\Rajesh\AppData\Local\Temp\ccFGpIV0.s 			page 19


 572              		.type	Comp_ISENSE_DisableInterruptOutput, %function
 573              	Comp_ISENSE_DisableInterruptOutput:
 574              	.LFB15:
 441:Generated_Source\PSoC4/Comp_ISENSE.c **** 
 442:Generated_Source\PSoC4/Comp_ISENSE.c **** /*******************************************************************************
 443:Generated_Source\PSoC4/Comp_ISENSE.c **** * Function Name: Comp_ISENSE_DisableInterruptOutput
 444:Generated_Source\PSoC4/Comp_ISENSE.c **** ********************************************************************************
 445:Generated_Source\PSoC4/Comp_ISENSE.c **** *
 446:Generated_Source\PSoC4/Comp_ISENSE.c **** * Summary:
 447:Generated_Source\PSoC4/Comp_ISENSE.c **** *  Disables the interrupt output so that it will not be ORed to the global 
 448:Generated_Source\PSoC4/Comp_ISENSE.c **** *  Signal CTBmInt with the other comparator interrupt outputs.  
 449:Generated_Source\PSoC4/Comp_ISENSE.c **** *
 450:Generated_Source\PSoC4/Comp_ISENSE.c **** * Parameters:
 451:Generated_Source\PSoC4/Comp_ISENSE.c **** *  None
 452:Generated_Source\PSoC4/Comp_ISENSE.c **** *
 453:Generated_Source\PSoC4/Comp_ISENSE.c **** * Return:
 454:Generated_Source\PSoC4/Comp_ISENSE.c **** *  None
 455:Generated_Source\PSoC4/Comp_ISENSE.c **** *
 456:Generated_Source\PSoC4/Comp_ISENSE.c **** *******************************************************************************/
 457:Generated_Source\PSoC4/Comp_ISENSE.c **** void Comp_ISENSE_DisableInterruptOutput(void)
 458:Generated_Source\PSoC4/Comp_ISENSE.c **** {
 575              		.loc 1 458 0
 576              		.cfi_startproc
 577              		@ args = 0, pretend = 0, frame = 0
 578              		@ frame_needed = 0, uses_anonymous_args = 0
 579 0000 10B5     		push	{r4, lr}
 580              		.cfi_def_cfa_offset 8
 581              		.cfi_offset 4, -8
 582              		.cfi_offset 14, -4
 459:Generated_Source\PSoC4/Comp_ISENSE.c ****     uint8 enableInterrupts;
 460:Generated_Source\PSoC4/Comp_ISENSE.c **** 
 461:Generated_Source\PSoC4/Comp_ISENSE.c ****     enableInterrupts = CyEnterCriticalSection();
 583              		.loc 1 461 0
 584 0002 FFF7FEFF 		bl	CyEnterCriticalSection
 585              	.LVL25:
 462:Generated_Source\PSoC4/Comp_ISENSE.c ****     Comp_ISENSE_INTR_MASK_REG &= ~Comp_ISENSE_INTR_MASK;
 586              		.loc 1 462 0
 587 0006 044A     		ldr	r2, .L52
 588 0008 1368     		ldr	r3, [r2]
 589 000a 0121     		movs	r1, #1
 590 000c 8B43     		bics	r3, r1
 591 000e 1360     		str	r3, [r2]
 463:Generated_Source\PSoC4/Comp_ISENSE.c ****     CyExitCriticalSection(enableInterrupts);
 592              		.loc 1 463 0
 593 0010 FFF7FEFF 		bl	CyExitCriticalSection
 594              	.LVL26:
 464:Generated_Source\PSoC4/Comp_ISENSE.c **** }
 595              		.loc 1 464 0
 596              		@ sp needed
 597 0014 10BD     		pop	{r4, pc}
 598              	.L53:
 599 0016 C046     		.align	2
 600              	.L52:
 601 0018 28001040 		.word	1074790440
 602              		.cfi_endproc
 603              	.LFE15:
 604              		.size	Comp_ISENSE_DisableInterruptOutput, .-Comp_ISENSE_DisableInterruptOutput
ARM GAS  C:\Users\Rajesh\AppData\Local\Temp\ccFGpIV0.s 			page 20


 605              		.global	Comp_ISENSE_initVar
 606              		.bss
 607              		.align	2
 608              		.set	.LANCHOR0,. + 0
 609              		.type	Comp_ISENSE_internalSpeed, %object
 610              		.size	Comp_ISENSE_internalSpeed, 4
 611              	Comp_ISENSE_internalSpeed:
 612 0000 00000000 		.space	4
 613              		.type	Comp_ISENSE_initVar, %object
 614              		.size	Comp_ISENSE_initVar, 1
 615              	Comp_ISENSE_initVar:
 616 0004 00       		.space	1
 617              		.text
 618              	.Letext0:
 619              		.file 2 "Generated_Source\\PSoC4\\cytypes.h"
 620              		.file 3 "Generated_Source\\PSoC4\\CyLib.h"