ARM GAS  C:\Users\Rajesh\AppData\Local\Temp\ccS5NWmg.s 			page 1


   1              		.syntax unified
   2              		.cpu cortex-m0
   3              		.fpu softvfp
   4              		.eabi_attribute 20, 1
   5              		.eabi_attribute 21, 1
   6              		.eabi_attribute 23, 3
   7              		.eabi_attribute 24, 1
   8              		.eabi_attribute 25, 1
   9              		.eabi_attribute 26, 1
  10              		.eabi_attribute 30, 1
  11              		.eabi_attribute 34, 0
  12              		.eabi_attribute 18, 4
  13              		.thumb
  14              		.syntax unified
  15              		.file	"main.c"
  16              		.text
  17              	.Ltext0:
  18              		.cfi_sections	.debug_frame
  19              		.section	.text.LedRegWrite,"ax",%progbits
  20              		.align	2
  21              		.global	LedRegWrite
  22              		.code	16
  23              		.thumb_func
  24              		.type	LedRegWrite, %function
  25              	LedRegWrite:
  26              	.LFB34:
  27              		.file 1 "main.c"
   1:main.c        **** /* ========================================
   2:main.c        ****  *
   3:main.c        ****  * Copyright YOUR COMPANY, THE YEAR
   4:main.c        ****  * All Rights Reserved
   5:main.c        ****  * UNPUBLISHED, LICENSED SOFTWARE.
   6:main.c        ****  *
   7:main.c        ****  * CONFIDENTIAL AND PROPRIETARY INFORMATION
   8:main.c        ****  * WHICH IS THE PROPERTY OF your company.
   9:main.c        ****  *
  10:main.c        ****  * ========================================
  11:main.c        **** */
  12:main.c        **** #include "project.h"
  13:main.c        **** #include "motor.h"
  14:main.c        **** #include "settings.h"
  15:main.c        **** #define IC_ADDR 0x60
  16:main.c        **** #define IC_ADDR2 0x61
  17:main.c        **** 
  18:main.c        **** #define EN_LED0 1
  19:main.c        **** #define EN_LED1 1
  20:main.c        **** void LedRegWrite(uint8 addr, uint8 reg, uint8 val)
  21:main.c        **** {
  28              		.loc 1 21 0
  29              		.cfi_startproc
  30              		@ args = 0, pretend = 0, frame = 0
  31              		@ frame_needed = 0, uses_anonymous_args = 0
  32              	.LVL0:
  33 0000 70B5     		push	{r4, r5, r6, lr}
  34              		.cfi_def_cfa_offset 16
  35              		.cfi_offset 4, -16
  36              		.cfi_offset 5, -12
ARM GAS  C:\Users\Rajesh\AppData\Local\Temp\ccS5NWmg.s 			page 2


  37              		.cfi_offset 6, -8
  38              		.cfi_offset 14, -4
  39 0002 0D00     		movs	r5, r1
  40 0004 1400     		movs	r4, r2
  22:main.c        ****     uint8 r;
  23:main.c        ****     r=I2C_LED_I2CMasterSendStart(addr,0);
  41              		.loc 1 23 0
  42 0006 0021     		movs	r1, #0
  43              	.LVL1:
  44 0008 FFF7FEFF 		bl	I2C_LED_I2CMasterSendStart
  45              	.LVL2:
  46 000c C0B2     		uxtb	r0, r0
  47              	.LVL3:
  24:main.c        ****     if(r!=0)
  48              		.loc 1 24 0
  49 000e 0028     		cmp	r0, #0
  50 0010 07D1     		bne	.L1
  25:main.c        ****     {
  26:main.c        ****     //     I2C_LED_I2CMasterSendStop();
  27:main.c        ****         return;
  28:main.c        **** }
  29:main.c        ****     I2C_LED_I2CMasterWriteByte(reg);
  51              		.loc 1 29 0
  52 0012 2800     		movs	r0, r5
  53              	.LVL4:
  54 0014 FFF7FEFF 		bl	I2C_LED_I2CMasterWriteByte
  55              	.LVL5:
  30:main.c        ****     I2C_LED_I2CMasterWriteByte(val);
  56              		.loc 1 30 0
  57 0018 2000     		movs	r0, r4
  58 001a FFF7FEFF 		bl	I2C_LED_I2CMasterWriteByte
  59              	.LVL6:
  31:main.c        ****     I2C_LED_I2CMasterSendStop();
  60              		.loc 1 31 0
  61 001e FFF7FEFF 		bl	I2C_LED_I2CMasterSendStop
  62              	.LVL7:
  63              	.L1:
  32:main.c        ****     
  33:main.c        **** }
  64              		.loc 1 33 0
  65              		@ sp needed
  66 0022 70BD     		pop	{r4, r5, r6, pc}
  67              		.cfi_endproc
  68              	.LFE34:
  69              		.size	LedRegWrite, .-LedRegWrite
  70              		.section	.text.LedInitRegs,"ax",%progbits
  71              		.align	2
  72              		.global	LedInitRegs
  73              		.code	16
  74              		.thumb_func
  75              		.type	LedInitRegs, %function
  76              	LedInitRegs:
  77              	.LFB35:
  34:main.c        **** 
  35:main.c        **** void LedInitRegs(uint8 addr)
  36:main.c        **** {
  78              		.loc 1 36 0
ARM GAS  C:\Users\Rajesh\AppData\Local\Temp\ccS5NWmg.s 			page 3


  79              		.cfi_startproc
  80              		@ args = 0, pretend = 0, frame = 0
  81              		@ frame_needed = 0, uses_anonymous_args = 0
  82              	.LVL8:
  83 0000 10B5     		push	{r4, lr}
  84              		.cfi_def_cfa_offset 8
  85              		.cfi_offset 4, -8
  86              		.cfi_offset 14, -4
  87 0002 0400     		movs	r4, r0
  37:main.c        ****     // set all leds to be pwm 
  38:main.c        ****     // and write to MODE 1
  39:main.c        ****        LedRegWrite(addr,0x14,0xaa);
  88              		.loc 1 39 0
  89 0004 AA22     		movs	r2, #170
  90 0006 1421     		movs	r1, #20
  91 0008 FFF7FEFF 		bl	LedRegWrite
  92              	.LVL9:
  40:main.c        ****        LedRegWrite(addr,0x15,0xaa);
  93              		.loc 1 40 0
  94 000c AA22     		movs	r2, #170
  95 000e 1521     		movs	r1, #21
  96 0010 2000     		movs	r0, r4
  97 0012 FFF7FEFF 		bl	LedRegWrite
  98              	.LVL10:
  41:main.c        ****        LedRegWrite(addr,0x16,0xaa);
  99              		.loc 1 41 0
 100 0016 AA22     		movs	r2, #170
 101 0018 1621     		movs	r1, #22
 102 001a 2000     		movs	r0, r4
 103 001c FFF7FEFF 		bl	LedRegWrite
 104              	.LVL11:
  42:main.c        ****        LedRegWrite(addr,0x17,0xaa);
 105              		.loc 1 42 0
 106 0020 AA22     		movs	r2, #170
 107 0022 1721     		movs	r1, #23
 108 0024 2000     		movs	r0, r4
 109 0026 FFF7FEFF 		bl	LedRegWrite
 110              	.LVL12:
  43:main.c        ****        LedRegWrite(addr, 0,0x0);
 111              		.loc 1 43 0
 112 002a 0022     		movs	r2, #0
 113 002c 0021     		movs	r1, #0
 114 002e 2000     		movs	r0, r4
 115 0030 FFF7FEFF 		bl	LedRegWrite
 116              	.LVL13:
  44:main.c        ****  }
 117              		.loc 1 44 0
 118              		@ sp needed
 119 0034 10BD     		pop	{r4, pc}
 120              		.cfi_endproc
 121              	.LFE35:
 122              		.size	LedInitRegs, .-LedInitRegs
 123 0036 C046     		.section	.text.LedSetRGB,"ax",%progbits
 124              		.align	2
 125              		.global	LedSetRGB
 126              		.code	16
 127              		.thumb_func
ARM GAS  C:\Users\Rajesh\AppData\Local\Temp\ccS5NWmg.s 			page 4


 128              		.type	LedSetRGB, %function
 129              	LedSetRGB:
 130              	.LFB36:
  45:main.c        **** void LedSetRGB(uint8 addr,uint8 chan, uint8 r, uint8 g , uint8 b)
  46:main.c        **** {
 131              		.loc 1 46 0
 132              		.cfi_startproc
 133              		@ args = 4, pretend = 0, frame = 8
 134              		@ frame_needed = 0, uses_anonymous_args = 0
 135              	.LVL14:
 136 0000 F0B5     		push	{r4, r5, r6, r7, lr}
 137              		.cfi_def_cfa_offset 20
 138              		.cfi_offset 4, -20
 139              		.cfi_offset 5, -16
 140              		.cfi_offset 6, -12
 141              		.cfi_offset 7, -8
 142              		.cfi_offset 14, -4
 143 0002 83B0     		sub	sp, sp, #12
 144              		.cfi_def_cfa_offset 32
 145 0004 0500     		movs	r5, r0
 146 0006 0E00     		movs	r6, r1
 147 0008 0193     		str	r3, [sp, #4]
 148 000a 08AB     		add	r3, sp, #32
 149              	.LVL15:
 150 000c 1F78     		ldrb	r7, [r3]
  47:main.c        ****     //if (addr==IC_ADDR)
  48:main.c        ****     //  return;
  49:main.c        ****     LedRegWrite(addr,2+chan*3+2,r);
 151              		.loc 1 49 0
 152 000e 4C00     		lsls	r4, r1, #1
 153 0010 0C19     		adds	r4, r1, r4
 154 0012 E4B2     		uxtb	r4, r4
 155 0014 211D     		adds	r1, r4, #4
 156              	.LVL16:
 157 0016 C9B2     		uxtb	r1, r1
 158 0018 FFF7FEFF 		bl	LedRegWrite
 159              	.LVL17:
  50:main.c        ****     LedRegWrite(addr,2+chan*3+1,g);
 160              		.loc 1 50 0
 161 001c 0136     		adds	r6, r6, #1
 162 001e 7100     		lsls	r1, r6, #1
 163 0020 7618     		adds	r6, r6, r1
 164 0022 F1B2     		uxtb	r1, r6
 165 0024 019A     		ldr	r2, [sp, #4]
 166 0026 2800     		movs	r0, r5
 167 0028 FFF7FEFF 		bl	LedRegWrite
 168              	.LVL18:
  51:main.c        ****     LedRegWrite(addr,2+chan*3,b);
 169              		.loc 1 51 0
 170 002c 0234     		adds	r4, r4, #2
 171 002e E1B2     		uxtb	r1, r4
 172 0030 3A00     		movs	r2, r7
 173 0032 2800     		movs	r0, r5
 174 0034 FFF7FEFF 		bl	LedRegWrite
 175              	.LVL19:
  52:main.c        ****    // CyDelay(100);
  53:main.c        **** }
ARM GAS  C:\Users\Rajesh\AppData\Local\Temp\ccS5NWmg.s 			page 5


 176              		.loc 1 53 0
 177 0038 03B0     		add	sp, sp, #12
 178              		@ sp needed
 179 003a F0BD     		pop	{r4, r5, r6, r7, pc}
 180              		.cfi_endproc
 181              	.LFE36:
 182              		.size	LedSetRGB, .-LedSetRGB
 183              		.section	.text.DoLedUpdate,"ax",%progbits
 184              		.align	2
 185              		.global	DoLedUpdate
 186              		.code	16
 187              		.thumb_func
 188              		.type	DoLedUpdate, %function
 189              	DoLedUpdate:
 190              	.LFB37:
  54:main.c        **** 
  55:main.c        **** volatile SETTINGS set;
  56:main.c        **** 
  57:main.c        **** #define ACTION_LED 1
  58:main.c        **** #define ACTION_MOT_HOME 2
  59:main.c        **** #define ACTION_MOT_ABS 3
  60:main.c        **** #define ACTION_MOT_REL 4
  61:main.c        **** #define ACTION_AUDIO_SET 5
  62:main.c        **** void DoLedUpdate(void)
  63:main.c        **** {
 191              		.loc 1 63 0
 192              		.cfi_startproc
 193              		@ args = 0, pretend = 0, frame = 0
 194              		@ frame_needed = 0, uses_anonymous_args = 0
 195 0000 70B5     		push	{r4, r5, r6, lr}
 196              		.cfi_def_cfa_offset 16
 197              		.cfi_offset 4, -16
 198              		.cfi_offset 5, -12
 199              		.cfi_offset 6, -8
 200              		.cfi_offset 14, -4
 201 0002 82B0     		sub	sp, sp, #8
 202              		.cfi_def_cfa_offset 24
 203              	.LVL20:
  64:main.c        ****     int x;
  65:main.c        ****     
  66:main.c        ****     for(x=0;x<5;x++)
 204              		.loc 1 66 0
 205 0004 0024     		movs	r4, #0
 206 0006 1EE0     		b	.L6
 207              	.LVL21:
 208              	.L8:
  67:main.c        ****         {
  68:main.c        ****         if (set.chA&(1<<x)) 
 209              		.loc 1 68 0
 210 0008 114B     		ldr	r3, .L9
 211 000a 5B78     		ldrb	r3, [r3, #1]
 212 000c DBB2     		uxtb	r3, r3
 213 000e 2341     		asrs	r3, r3, r4
 214 0010 DB07     		lsls	r3, r3, #31
 215 0012 17D5     		bpl	.L7
  69:main.c        ****             {
  70:main.c        ****             if (EN_LED0) 
ARM GAS  C:\Users\Rajesh\AppData\Local\Temp\ccS5NWmg.s 			page 6


  71:main.c        ****                 LedSetRGB(IC_ADDR,x,set.r,set.g,set.b);
 216              		.loc 1 71 0
 217 0014 E6B2     		uxtb	r6, r4
 218 0016 0E4D     		ldr	r5, .L9
 219 0018 EA78     		ldrb	r2, [r5, #3]
 220 001a D2B2     		uxtb	r2, r2
 221 001c 2B79     		ldrb	r3, [r5, #4]
 222 001e DBB2     		uxtb	r3, r3
 223 0020 6979     		ldrb	r1, [r5, #5]
 224 0022 0091     		str	r1, [sp]
 225 0024 3100     		movs	r1, r6
 226 0026 6020     		movs	r0, #96
 227 0028 FFF7FEFF 		bl	LedSetRGB
 228              	.LVL22:
  72:main.c        ****             if (EN_LED1) 
  73:main.c        ****                 LedSetRGB(IC_ADDR2,4-x,set.r,set.g,set.b);
 229              		.loc 1 73 0
 230 002c EA78     		ldrb	r2, [r5, #3]
 231 002e D2B2     		uxtb	r2, r2
 232 0030 2B79     		ldrb	r3, [r5, #4]
 233 0032 DBB2     		uxtb	r3, r3
 234 0034 6879     		ldrb	r0, [r5, #5]
 235 0036 0421     		movs	r1, #4
 236 0038 891B     		subs	r1, r1, r6
 237 003a C9B2     		uxtb	r1, r1
 238 003c 0090     		str	r0, [sp]
 239 003e 6120     		movs	r0, #97
 240 0040 FFF7FEFF 		bl	LedSetRGB
 241              	.LVL23:
 242              	.L7:
  66:main.c        ****         {
 243              		.loc 1 66 0 discriminator 2
 244 0044 0134     		adds	r4, r4, #1
 245              	.LVL24:
 246              	.L6:
  66:main.c        ****         {
 247              		.loc 1 66 0 is_stmt 0 discriminator 1
 248 0046 042C     		cmp	r4, #4
 249 0048 DEDD     		ble	.L8
  74:main.c        ****             }
  75:main.c        ****         }
  76:main.c        ****  }
 250              		.loc 1 76 0 is_stmt 1
 251 004a 02B0     		add	sp, sp, #8
 252              		@ sp needed
 253              	.LVL25:
 254 004c 70BD     		pop	{r4, r5, r6, pc}
 255              	.L10:
 256 004e C046     		.align	2
 257              	.L9:
 258 0050 00000000 		.word	set
 259              		.cfi_endproc
 260              	.LFE37:
 261              		.size	DoLedUpdate, .-DoLedUpdate
 262              		.section	.text.I2C_WaitComplete,"ax",%progbits
 263              		.align	2
 264              		.global	I2C_WaitComplete
ARM GAS  C:\Users\Rajesh\AppData\Local\Temp\ccS5NWmg.s 			page 7


 265              		.code	16
 266              		.thumb_func
 267              		.type	I2C_WaitComplete, %function
 268              	I2C_WaitComplete:
 269              	.LFB38:
  77:main.c        **** 
  78:main.c        **** int tof_init();
  79:main.c        **** int tof_measure(void);
  80:main.c        **** 
  81:main.c        **** 
  82:main.c        **** 
  83:main.c        **** #define MAG_ADDR 0x1e
  84:main.c        **** 
  85:main.c        **** void I2C_WaitComplete( int stat)
  86:main.c        **** {
 270              		.loc 1 86 0
 271              		.cfi_startproc
 272              		@ args = 0, pretend = 0, frame = 0
 273              		@ frame_needed = 0, uses_anonymous_args = 0
 274              	.LVL26:
 275 0000 10B5     		push	{r4, lr}
 276              		.cfi_def_cfa_offset 8
 277              		.cfi_offset 4, -8
 278              		.cfi_offset 14, -4
 279 0002 0400     		movs	r4, r0
 280              	.LVL27:
 281              	.L13:
  87:main.c        ****     while(1)
  88:main.c        ****     {     
  89:main.c        ****         if ((I2C_MAG_Process() & stat))
 282              		.loc 1 89 0
 283 0004 FFF7FEFF 		bl	I2C_MAG_Process
 284              	.LVL28:
 285 0008 2042     		tst	r0, r4
 286 000a 03D1     		bne	.L11
  90:main.c        ****            break;           
  91:main.c        ****          CyDelayUs(5);
 287              		.loc 1 91 0
 288 000c 0520     		movs	r0, #5
 289 000e FFF7FEFF 		bl	CyDelayUs
 290              	.LVL29:
  92:main.c        ****     }
 291              		.loc 1 92 0
 292 0012 F7E7     		b	.L13
 293              	.L11:
  93:main.c        **** 
  94:main.c        **** }
 294              		.loc 1 94 0
 295              		@ sp needed
 296              	.LVL30:
 297 0014 10BD     		pop	{r4, pc}
 298              		.cfi_endproc
 299              	.LFE38:
 300              		.size	I2C_WaitComplete, .-I2C_WaitComplete
 301 0016 C046     		.section	.text.LISwriteReg,"ax",%progbits
 302              		.align	2
 303              		.global	LISwriteReg
ARM GAS  C:\Users\Rajesh\AppData\Local\Temp\ccS5NWmg.s 			page 8


 304              		.code	16
 305              		.thumb_func
 306              		.type	LISwriteReg, %function
 307              	LISwriteReg:
 308              	.LFB39:
  95:main.c        **** void LISwriteReg(uint8 offset, uint8 dataToWrite)
  96:main.c        **** {
 309              		.loc 1 96 0
 310              		.cfi_startproc
 311              		@ args = 0, pretend = 0, frame = 8
 312              		@ frame_needed = 0, uses_anonymous_args = 0
 313              	.LVL31:
 314 0000 10B5     		push	{r4, lr}
 315              		.cfi_def_cfa_offset 8
 316              		.cfi_offset 4, -8
 317              		.cfi_offset 14, -4
 318 0002 82B0     		sub	sp, sp, #8
 319              		.cfi_def_cfa_offset 16
  97:main.c        **** 
  98:main.c        ****     int status;
  99:main.c        ****     uint8 s_data[2];
 100:main.c        ****     s_data[0] = offset;
 320              		.loc 1 100 0
 321 0004 01AC     		add	r4, sp, #4
 322 0006 2070     		strb	r0, [r4]
 101:main.c        ****     s_data[1]=dataToWrite;
 323              		.loc 1 101 0
 324 0008 6170     		strb	r1, [r4, #1]
 102:main.c        ****     
 103:main.c        ****     I2C_MAG_WriteBuf(MAG_ADDR, s_data, 2, I2C_MAG_MODE_COMPLETE_XFER);
 325              		.loc 1 103 0
 326 000a 0023     		movs	r3, #0
 327 000c 0222     		movs	r2, #2
 328 000e 2100     		movs	r1, r4
 329              	.LVL32:
 330 0010 1E20     		movs	r0, #30
 331              	.LVL33:
 332 0012 FFF7FEFF 		bl	I2C_MAG_WriteBuf
 333              	.LVL34:
 104:main.c        ****     I2C_WaitComplete(I2C_MAG_MSTAT_WR_CMPLT);
 334              		.loc 1 104 0
 335 0016 0220     		movs	r0, #2
 336 0018 FFF7FEFF 		bl	I2C_WaitComplete
 337              	.LVL35:
 105:main.c        ****      //I2C_MAG_WriteBuf(MAG_ADDR, &dataToWrite, 1, I2C_MAG_MODE_COMPLETE_XFER);
 106:main.c        ****      //I2C_WaitComplete(I2C_MAG_MSTAT_WR_CMPLT);
 107:main.c        ****   
 108:main.c        **** }
 338              		.loc 1 108 0
 339 001c 02B0     		add	sp, sp, #8
 340              		@ sp needed
 341 001e 10BD     		pop	{r4, pc}
 342              		.cfi_endproc
 343              	.LFE39:
 344              		.size	LISwriteReg, .-LISwriteReg
 345              		.section	.text.LISreadReg,"ax",%progbits
 346              		.align	2
ARM GAS  C:\Users\Rajesh\AppData\Local\Temp\ccS5NWmg.s 			page 9


 347              		.global	LISreadReg
 348              		.code	16
 349              		.thumb_func
 350              		.type	LISreadReg, %function
 351              	LISreadReg:
 352              	.LFB40:
 109:main.c        **** 
 110:main.c        **** // Reads a mag register
 111:main.c        **** uint8 LISreadReg( uint8 reg)
 112:main.c        **** {
 353              		.loc 1 112 0
 354              		.cfi_startproc
 355              		@ args = 0, pretend = 0, frame = 16
 356              		@ frame_needed = 0, uses_anonymous_args = 0
 357              	.LVL36:
 358 0000 10B5     		push	{r4, lr}
 359              		.cfi_def_cfa_offset 8
 360              		.cfi_offset 4, -8
 361              		.cfi_offset 14, -4
 362 0002 84B0     		sub	sp, sp, #16
 363              		.cfi_def_cfa_offset 24
 364 0004 6B46     		mov	r3, sp
 365 0006 D91D     		adds	r1, r3, #7
 366 0008 0870     		strb	r0, [r1]
 113:main.c        **** 
 114:main.c        ****    unsigned char rxData[2];
 115:main.c        ****    rxData[0]=0;
 367              		.loc 1 115 0
 368 000a 03AC     		add	r4, sp, #12
 369 000c 0023     		movs	r3, #0
 370 000e 2370     		strb	r3, [r4]
 116:main.c        ****    I2C_MAG_WriteBuf(MAG_ADDR, &reg, 1, I2C_MAG_MODE_COMPLETE_XFER);
 371              		.loc 1 116 0
 372 0010 0122     		movs	r2, #1
 373 0012 1E20     		movs	r0, #30
 374              	.LVL37:
 375 0014 FFF7FEFF 		bl	I2C_MAG_WriteBuf
 376              	.LVL38:
 117:main.c        ****    I2C_WaitComplete(I2C_MAG_MSTAT_WR_CMPLT);
 377              		.loc 1 117 0
 378 0018 0220     		movs	r0, #2
 379 001a FFF7FEFF 		bl	I2C_WaitComplete
 380              	.LVL39:
 118:main.c        ****    I2C_MAG_ReadBuf(MAG_ADDR, rxData, 1, I2C_MAG_MODE_COMPLETE_XFER);
 381              		.loc 1 118 0
 382 001e 0023     		movs	r3, #0
 383 0020 0122     		movs	r2, #1
 384 0022 2100     		movs	r1, r4
 385 0024 1E20     		movs	r0, #30
 386 0026 FFF7FEFF 		bl	I2C_MAG_ReadBuf
 387              	.LVL40:
 119:main.c        ****    I2C_WaitComplete(I2C_MAG_MSTAT_RD_CMPLT);
 388              		.loc 1 119 0
 389 002a 0120     		movs	r0, #1
 390 002c FFF7FEFF 		bl	I2C_WaitComplete
 391              	.LVL41:
 120:main.c        ****    return rxData[0];
ARM GAS  C:\Users\Rajesh\AppData\Local\Temp\ccS5NWmg.s 			page 10


 392              		.loc 1 120 0
 393 0030 2078     		ldrb	r0, [r4]
 121:main.c        **** 
 122:main.c        **** }
 394              		.loc 1 122 0
 395 0032 04B0     		add	sp, sp, #16
 396              	.LVL42:
 397              		@ sp needed
 398 0034 10BD     		pop	{r4, pc}
 399              		.cfi_endproc
 400              	.LFE40:
 401              		.size	LISreadReg, .-LISreadReg
 402 0036 C046     		.section	.text.LISreadBuff,"ax",%progbits
 403              		.align	2
 404              		.global	LISreadBuff
 405              		.code	16
 406              		.thumb_func
 407              		.type	LISreadBuff, %function
 408              	LISreadBuff:
 409              	.LFB41:
 123:main.c        **** 
 124:main.c        **** uint8 LISreadBuff( uint8 reg, uint8 * buff, int len)
 125:main.c        **** {
 410              		.loc 1 125 0
 411              		.cfi_startproc
 412              		@ args = 0, pretend = 0, frame = 8
 413              		@ frame_needed = 0, uses_anonymous_args = 0
 414              	.LVL43:
 415 0000 30B5     		push	{r4, r5, lr}
 416              		.cfi_def_cfa_offset 12
 417              		.cfi_offset 4, -12
 418              		.cfi_offset 5, -8
 419              		.cfi_offset 14, -4
 420 0002 83B0     		sub	sp, sp, #12
 421              		.cfi_def_cfa_offset 24
 422 0004 0C00     		movs	r4, r1
 423 0006 1500     		movs	r5, r2
 424 0008 6B46     		mov	r3, sp
 425 000a D91D     		adds	r1, r3, #7
 426              	.LVL44:
 126:main.c        **** 
 127:main.c        ****    unsigned char rxData[2];
 128:main.c        ****    rxData[0]=0;
 129:main.c        ****     reg|= 0x80; // auto inc
 427              		.loc 1 129 0
 428 000c 8023     		movs	r3, #128
 429 000e 5B42     		rsbs	r3, r3, #0
 430 0010 1843     		orrs	r0, r3
 431              	.LVL45:
 432 0012 0870     		strb	r0, [r1]
 130:main.c        ****    I2C_MAG_WriteBuf(MAG_ADDR, &reg, 1, I2C_MAG_MODE_COMPLETE_XFER);
 433              		.loc 1 130 0
 434 0014 0023     		movs	r3, #0
 435 0016 0122     		movs	r2, #1
 436              	.LVL46:
 437 0018 1E20     		movs	r0, #30
 438 001a FFF7FEFF 		bl	I2C_MAG_WriteBuf
ARM GAS  C:\Users\Rajesh\AppData\Local\Temp\ccS5NWmg.s 			page 11


 439              	.LVL47:
 131:main.c        ****    I2C_WaitComplete(I2C_MAG_MSTAT_WR_CMPLT);
 440              		.loc 1 131 0
 441 001e 0220     		movs	r0, #2
 442 0020 FFF7FEFF 		bl	I2C_WaitComplete
 443              	.LVL48:
 132:main.c        ****    I2C_MAG_ReadBuf(MAG_ADDR , buff, len, I2C_MAG_MODE_COMPLETE_XFER);
 444              		.loc 1 132 0
 445 0024 0023     		movs	r3, #0
 446 0026 2A00     		movs	r2, r5
 447 0028 2100     		movs	r1, r4
 448 002a 1E20     		movs	r0, #30
 449 002c FFF7FEFF 		bl	I2C_MAG_ReadBuf
 450              	.LVL49:
 133:main.c        ****    I2C_WaitComplete(I2C_MAG_MSTAT_RD_CMPLT);
 451              		.loc 1 133 0
 452 0030 0120     		movs	r0, #1
 453 0032 FFF7FEFF 		bl	I2C_WaitComplete
 454              	.LVL50:
 134:main.c        ****    return rxData[0];
 135:main.c        **** 
 136:main.c        **** }
 455              		.loc 1 136 0
 456 0036 0020     		movs	r0, #0
 457 0038 03B0     		add	sp, sp, #12
 458              		@ sp needed
 459              	.LVL51:
 460              	.LVL52:
 461 003a 30BD     		pop	{r4, r5, pc}
 462              		.cfi_endproc
 463              	.LFE41:
 464              		.size	LISreadBuff, .-LISreadBuff
 465              		.section	.text.LISInit,"ax",%progbits
 466              		.align	2
 467              		.global	LISInit
 468              		.code	16
 469              		.thumb_func
 470              		.type	LISInit, %function
 471              	LISInit:
 472              	.LFB42:
 137:main.c        **** // register addresses
 138:main.c        **** //Magnetometer Registers
 139:main.c        **** #define LIS3MDL_ADDRESS      0x1C
 140:main.c        **** #define LIS3MDL_WHO_AM_I     0x0F  // should return 0x3D
 141:main.c        **** #define LIS3MDL_CTRL_REG1    0x20
 142:main.c        **** #define LIS3MDL_CTRL_REG2    0x21
 143:main.c        **** #define LIS3MDL_CTRL_REG3    0x22
 144:main.c        **** #define LIS3MDL_CTRL_REG4    0x23
 145:main.c        **** #define LIS3MDL_CTRL_REG5    0x24
 146:main.c        **** #define LIS3MDL_STATUS_REG   0x27   
 147:main.c        **** #define LIS3MDL_OUT_X_L	     0x28  // data
 148:main.c        **** #define LIS3MDL_OUT_X_H	     0x29
 149:main.c        **** #define LIS3MDL_OUT_Y_L	     0x2A
 150:main.c        **** #define LIS3MDL_OUT_Y_H	     0x2B
 151:main.c        **** #define LIS3MDL_OUT_Z_L	     0x2C
 152:main.c        **** #define LIS3MDL_OUT_Z_H	     0x2D
 153:main.c        **** #define LIS3MDL_TEMP_OUT_L   0x2E
ARM GAS  C:\Users\Rajesh\AppData\Local\Temp\ccS5NWmg.s 			page 12


 154:main.c        **** #define LIS3MDL_TEMP_OUT_H   0x2F  // data
 155:main.c        **** #define LIS3MDL_INT_CFG	     0x30
 156:main.c        **** #define LIS3MDL_INT_SRC	     0x31
 157:main.c        **** #define LIS3MDL_INT_THS_L    0x32
 158:main.c        **** #define LIS3MDL_INT_THS_H    0x33
 159:main.c        **** 
 160:main.c        **** void LISInit()
 161:main.c        **** {
 473              		.loc 1 161 0
 474              		.cfi_startproc
 475              		@ args = 0, pretend = 0, frame = 0
 476              		@ frame_needed = 0, uses_anonymous_args = 0
 477 0000 10B5     		push	{r4, lr}
 478              		.cfi_def_cfa_offset 8
 479              		.cfi_offset 4, -8
 480              		.cfi_offset 14, -4
 162:main.c        ****     LISwriteReg(LIS3MDL_CTRL_REG1,0xec);// high perf 5hz
 481              		.loc 1 162 0
 482 0002 EC21     		movs	r1, #236
 483 0004 2020     		movs	r0, #32
 484 0006 FFF7FEFF 		bl	LISwriteReg
 485              	.LVL53:
 163:main.c        ****     LISwriteReg(LIS3MDL_CTRL_REG2,0x60); //16 gauss mode
 486              		.loc 1 163 0
 487 000a 6021     		movs	r1, #96
 488 000c 2120     		movs	r0, #33
 489 000e FFF7FEFF 		bl	LISwriteReg
 490              	.LVL54:
 164:main.c        ****     LISwriteReg(LIS3MDL_CTRL_REG3,0x0); // enable
 491              		.loc 1 164 0
 492 0012 0021     		movs	r1, #0
 493 0014 2220     		movs	r0, #34
 494 0016 FFF7FEFF 		bl	LISwriteReg
 495              	.LVL55:
 165:main.c        **** }
 496              		.loc 1 165 0
 497              		@ sp needed
 498 001a 10BD     		pop	{r4, pc}
 499              		.cfi_endproc
 500              	.LFE42:
 501              		.size	LISInit, .-LISInit
 502              		.section	.text.LISRead,"ax",%progbits
 503              		.align	2
 504              		.global	LISRead
 505              		.code	16
 506              		.thumb_func
 507              		.type	LISRead, %function
 508              	LISRead:
 509              	.LFB43:
 166:main.c        **** void LISRead(short *vals)
 167:main.c        **** {
 510              		.loc 1 167 0
 511              		.cfi_startproc
 512              		@ args = 0, pretend = 0, frame = 8
 513              		@ frame_needed = 0, uses_anonymous_args = 0
 514              	.LVL56:
 515 0000 10B5     		push	{r4, lr}
ARM GAS  C:\Users\Rajesh\AppData\Local\Temp\ccS5NWmg.s 			page 13


 516              		.cfi_def_cfa_offset 8
 517              		.cfi_offset 4, -8
 518              		.cfi_offset 14, -4
 519 0002 82B0     		sub	sp, sp, #8
 520              		.cfi_def_cfa_offset 16
 521 0004 0400     		movs	r4, r0
 168:main.c        ****     uint8 buff[8];
 169:main.c        ****     //short vals[3];
 170:main.c        ****     
 171:main.c        ****     LISreadBuff( 0x20, buff, 6);
 522              		.loc 1 171 0
 523 0006 0622     		movs	r2, #6
 524 0008 6946     		mov	r1, sp
 525 000a 2020     		movs	r0, #32
 526              	.LVL57:
 527 000c FFF7FEFF 		bl	LISreadBuff
 528              	.LVL58:
 172:main.c        ****     LISreadBuff( 0x28, buff, 6);
 529              		.loc 1 172 0
 530 0010 0622     		movs	r2, #6
 531 0012 6946     		mov	r1, sp
 532 0014 2820     		movs	r0, #40
 533 0016 FFF7FEFF 		bl	LISreadBuff
 534              	.LVL59:
 173:main.c        ****     vals[0] = buff[0] | (buff[1]<<8);
 535              		.loc 1 173 0
 536 001a 6B46     		mov	r3, sp
 537 001c 1A78     		ldrb	r2, [r3]
 538 001e 5B78     		ldrb	r3, [r3, #1]
 539 0020 1B02     		lsls	r3, r3, #8
 540 0022 1343     		orrs	r3, r2
 541 0024 2380     		strh	r3, [r4]
 174:main.c        ****     vals[1] = buff[2] | (buff[3]<<8);
 542              		.loc 1 174 0
 543 0026 6B46     		mov	r3, sp
 544 0028 9A78     		ldrb	r2, [r3, #2]
 545 002a DB78     		ldrb	r3, [r3, #3]
 546 002c 1B02     		lsls	r3, r3, #8
 547 002e 1343     		orrs	r3, r2
 548 0030 6380     		strh	r3, [r4, #2]
 175:main.c        ****     vals[2] = buff[4] | (buff[5]<<8);
 549              		.loc 1 175 0
 550 0032 6B46     		mov	r3, sp
 551 0034 1A79     		ldrb	r2, [r3, #4]
 552 0036 5B79     		ldrb	r3, [r3, #5]
 553 0038 1B02     		lsls	r3, r3, #8
 554 003a 1343     		orrs	r3, r2
 555 003c A380     		strh	r3, [r4, #4]
 176:main.c        ****     
 177:main.c        ****     
 178:main.c        ****     
 179:main.c        **** }
 556              		.loc 1 179 0
 557 003e 02B0     		add	sp, sp, #8
 558              		@ sp needed
 559              	.LVL60:
 560 0040 10BD     		pop	{r4, pc}
ARM GAS  C:\Users\Rajesh\AppData\Local\Temp\ccS5NWmg.s 			page 14


 561              		.cfi_endproc
 562              	.LFE43:
 563              		.size	LISRead, .-LISRead
 564 0042 C046     		.section	.text.SetTamper,"ax",%progbits
 565              		.align	2
 566              		.global	SetTamper
 567              		.code	16
 568              		.thumb_func
 569              		.type	SetTamper, %function
 570              	SetTamper:
 571              	.LFB44:
 180:main.c        **** 
 181:main.c        **** void SetTamper()
 182:main.c        **** {
 572              		.loc 1 182 0
 573              		.cfi_startproc
 574              		@ args = 0, pretend = 0, frame = 0
 575              		@ frame_needed = 0, uses_anonymous_args = 0
 576 0000 70B5     		push	{r4, r5, r6, lr}
 577              		.cfi_def_cfa_offset 16
 578              		.cfi_offset 4, -16
 579              		.cfi_offset 5, -12
 580              		.cfi_offset 6, -8
 581              		.cfi_offset 14, -4
 582 0002 82B0     		sub	sp, sp, #8
 583              		.cfi_def_cfa_offset 24
 584              	.LVL61:
 183:main.c        ****     int x;
 184:main.c        ****        for(x=0;x<5;x++)
 585              		.loc 1 184 0
 586 0004 0024     		movs	r4, #0
 587 0006 10E0     		b	.L20
 588              	.LVL62:
 589              	.L21:
 185:main.c        ****     {
 186:main.c        ****         if (EN_LED0)    
 187:main.c        ****          LedSetRGB(IC_ADDR,x,60,0,60);
 590              		.loc 1 187 0
 591 0008 E5B2     		uxtb	r5, r4
 592 000a 3C26     		movs	r6, #60
 593 000c 0096     		str	r6, [sp]
 594 000e 0023     		movs	r3, #0
 595 0010 3C22     		movs	r2, #60
 596 0012 2900     		movs	r1, r5
 597 0014 6020     		movs	r0, #96
 598 0016 FFF7FEFF 		bl	LedSetRGB
 599              	.LVL63:
 188:main.c        ****         if (EN_LED1)    
 189:main.c        ****             LedSetRGB(IC_ADDR2,x,60,0,60);
 600              		.loc 1 189 0
 601 001a 0096     		str	r6, [sp]
 602 001c 0023     		movs	r3, #0
 603 001e 3C22     		movs	r2, #60
 604 0020 2900     		movs	r1, r5
 605 0022 6120     		movs	r0, #97
 606 0024 FFF7FEFF 		bl	LedSetRGB
 607              	.LVL64:
ARM GAS  C:\Users\Rajesh\AppData\Local\Temp\ccS5NWmg.s 			page 15


 184:main.c        ****     {
 608              		.loc 1 184 0
 609 0028 0134     		adds	r4, r4, #1
 610              	.LVL65:
 611              	.L20:
 184:main.c        ****     {
 612              		.loc 1 184 0 is_stmt 0 discriminator 1
 613 002a 042C     		cmp	r4, #4
 614 002c ECDD     		ble	.L21
 190:main.c        ****     }
 191:main.c        **** }
 615              		.loc 1 191 0 is_stmt 1
 616 002e 02B0     		add	sp, sp, #8
 617              		@ sp needed
 618              	.LVL66:
 619 0030 70BD     		pop	{r4, r5, r6, pc}
 620              		.cfi_endproc
 621              	.LFE44:
 622              		.size	SetTamper, .-SetTamper
 623              		.global	__aeabi_idiv
 624 0032 C046     		.section	.text.main,"ax",%progbits
 625              		.align	2
 626              		.global	main
 627              		.code	16
 628              		.thumb_func
 629              		.type	main, %function
 630              	main:
 631              	.LFB45:
 192:main.c        **** 
 193:main.c        **** #define VERSION 5
 194:main.c        **** #define TAMPER_DIV 200000
 195:main.c        **** int main(void)
 196:main.c        **** {
 632              		.loc 1 196 0
 633              		.cfi_startproc
 634              		@ args = 0, pretend = 0, frame = 8
 635              		@ frame_needed = 0, uses_anonymous_args = 0
 636 0000 F0B5     		push	{r4, r5, r6, r7, lr}
 637              		.cfi_def_cfa_offset 20
 638              		.cfi_offset 4, -20
 639              		.cfi_offset 5, -16
 640              		.cfi_offset 6, -12
 641              		.cfi_offset 7, -8
 642              		.cfi_offset 14, -4
 643 0002 85B0     		sub	sp, sp, #20
 644              		.cfi_def_cfa_offset 40
 645              	.LVL67:
 197:main.c        ****     int x,q,p;
 198:main.c        ****     int tamper_time = TAMPER_DIV;
 199:main.c        ****     CyGlobalIntEnable; /* Enable global interrupts. */
 646              		.loc 1 199 0
 647              		.syntax divided
 648              	@ 199 "main.c" 1
 649 0004 62B6     		CPSIE   i
 650              	@ 0 "" 2
 200:main.c        ****    CyDelay(150);
 651              		.loc 1 200 0
ARM GAS  C:\Users\Rajesh\AppData\Local\Temp\ccS5NWmg.s 			page 16


 652              		.thumb
 653              		.syntax unified
 654 0006 9620     		movs	r0, #150
 655 0008 FFF7FEFF 		bl	CyDelay
 656              	.LVL68:
 201:main.c        ****     /* Place your initialization/startup code here (e.g. MyInst_Start()) */
 202:main.c        ****     I2C_LED_Start();
 657              		.loc 1 202 0
 658 000c FFF7FEFF 		bl	I2C_LED_Start
 659              	.LVL69:
 203:main.c        ****     EZI2C_CAM_EzI2CSetBuffer1(32, 16, &set.action);
 660              		.loc 1 203 0
 661 0010 844C     		ldr	r4, .L40
 662 0012 2200     		movs	r2, r4
 663 0014 1021     		movs	r1, #16
 664 0016 2020     		movs	r0, #32
 665 0018 FFF7FEFF 		bl	EZI2C_CAM_EzI2CSetBuffer1
 666              	.LVL70:
 204:main.c        ****     EZI2C_CAM_Start();
 667              		.loc 1 204 0
 668 001c FFF7FEFF 		bl	EZI2C_CAM_Start
 669              	.LVL71:
 205:main.c        ****     EZI2C_CAM_EzI2CSetBuffer1(32, 16, &set.action);
 670              		.loc 1 205 0
 671 0020 2200     		movs	r2, r4
 672 0022 1021     		movs	r1, #16
 673 0024 2020     		movs	r0, #32
 674 0026 FFF7FEFF 		bl	EZI2C_CAM_EzI2CSetBuffer1
 675              	.LVL72:
 206:main.c        **** 
 207:main.c        ****    
 208:main.c        ****     STEP_COUNT_Start();
 676              		.loc 1 208 0
 677 002a FFF7FEFF 		bl	STEP_COUNT_Start
 678              	.LVL73:
 209:main.c        ****     IDAC_1_Start();
 679              		.loc 1 209 0
 680 002e FFF7FEFF 		bl	IDAC_1_Start
 681              	.LVL74:
 210:main.c        ****     IDAC_1_SetValue(120);
 682              		.loc 1 210 0
 683 0032 7820     		movs	r0, #120
 684 0034 FFF7FEFF 		bl	IDAC_1_SetValue
 685              	.LVL75:
 211:main.c        ****     IDAC_2_Start();
 686              		.loc 1 211 0
 687 0038 FFF7FEFF 		bl	IDAC_2_Start
 688              	.LVL76:
 212:main.c        ****     IDAC_2_SetValue(0);
 689              		.loc 1 212 0
 690 003c 0020     		movs	r0, #0
 691 003e FFF7FEFF 		bl	IDAC_2_SetValue
 692              	.LVL77:
 213:main.c        ****     Comp_ISENSE_Start();
 693              		.loc 1 213 0
 694 0042 FFF7FEFF 		bl	Comp_ISENSE_Start
 695              	.LVL78:
ARM GAS  C:\Users\Rajesh\AppData\Local\Temp\ccS5NWmg.s 			page 17


 214:main.c        ****     
 215:main.c        ****     
 216:main.c        ****     
 217:main.c        ****     PWM_M_Start();
 696              		.loc 1 217 0
 697 0046 FFF7FEFF 		bl	PWM_M_Start
 698              	.LVL79:
 218:main.c        **** 
 219:main.c        ****     PWM_1_Start();
 699              		.loc 1 219 0
 700 004a FFF7FEFF 		bl	PWM_1_Start
 701              	.LVL80:
 220:main.c        **** 
 221:main.c        ****     PWM_M_WriteCompare1(0);
 702              		.loc 1 221 0
 703 004e 0020     		movs	r0, #0
 704 0050 FFF7FEFF 		bl	PWM_M_WriteCompare1
 705              	.LVL81:
 222:main.c        ****     Control_PWM_Write(0);
 706              		.loc 1 222 0
 707 0054 0020     		movs	r0, #0
 708 0056 FFF7FEFF 		bl	Control_PWM_Write
 709              	.LVL82:
 223:main.c        ****     
 224:main.c        ****     AUD_SD_Write(0);
 710              		.loc 1 224 0
 711 005a 0020     		movs	r0, #0
 712 005c FFF7FEFF 		bl	AUD_SD_Write
 713              	.LVL83:
 225:main.c        ****     AUD_GAIN1_Write(0);
 714              		.loc 1 225 0
 715 0060 0020     		movs	r0, #0
 716 0062 FFF7FEFF 		bl	AUD_GAIN1_Write
 717              	.LVL84:
 226:main.c        ****     AUD_GAIN0_Write(1);
 718              		.loc 1 226 0
 719 0066 0120     		movs	r0, #1
 720 0068 FFF7FEFF 		bl	AUD_GAIN0_Write
 721              	.LVL85:
 227:main.c        ****     LISInit();
 722              		.loc 1 227 0
 723 006c FFF7FEFF 		bl	LISInit
 724              	.LVL86:
 228:main.c        ****    // while(1)
 229:main.c        ****    //      LISRead();
 230:main.c        ****      LISreadReg( 0xf);
 725              		.loc 1 230 0
 726 0070 0F20     		movs	r0, #15
 727 0072 FFF7FEFF 		bl	LISreadReg
 728              	.LVL87:
 231:main.c        ****     
 232:main.c        ****            
 233:main.c        **** //    AUDIO_DAC_Start();
 234:main.c        ****     //I2C_LED_sda_SetDriveMode(I2C_LED_sda_DM_STRONG);
 235:main.c        ****     
 236:main.c        ****     set.version=VERSION;
 729              		.loc 1 236 0
ARM GAS  C:\Users\Rajesh\AppData\Local\Temp\ccS5NWmg.s 			page 18


 730 0076 0523     		movs	r3, #5
 731 0078 A372     		strb	r3, [r4, #10]
 237:main.c        ****     set.mot_min_speed_a=100;
 732              		.loc 1 237 0
 733 007a 5F33     		adds	r3, r3, #95
 734 007c 2373     		strb	r3, [r4, #12]
 238:main.c        ****     set.mot_min_speed_d=50;
 735              		.loc 1 238 0
 736 007e 323B     		subs	r3, r3, #50
 737 0080 6373     		strb	r3, [r4, #13]
 239:main.c        ****     set.mot_accel=50;
 738              		.loc 1 239 0
 739 0082 A373     		strb	r3, [r4, #14]
 240:main.c        **** 
 241:main.c        ****     
 242:main.c        ****     
 243:main.c        ****     
 244:main.c        ****     
 245:main.c        ****     while (0)
 246:main.c        ****     {
 247:main.c        ****      I2C_LED_sda_Write(0);
 248:main.c        ****      I2C_LED_sda_Write(1);
 249:main.c        ****      I2C_LED_scl_Write(0);
 250:main.c        ****      I2C_LED_scl_Write(1);
 251:main.c        ****     
 252:main.c        ****     }
 253:main.c        ****    // while(1)
 254:main.c        ****      if (EN_LED1)    
 255:main.c        ****       LedInitRegs(IC_ADDR2);
 740              		.loc 1 255 0
 741 0084 6120     		movs	r0, #97
 742 0086 FFF7FEFF 		bl	LedInitRegs
 743              	.LVL88:
 256:main.c        ****     if (EN_LED0)    
 257:main.c        ****         LedInitRegs(IC_ADDR);
 744              		.loc 1 257 0
 745 008a 6020     		movs	r0, #96
 746 008c FFF7FEFF 		bl	LedInitRegs
 747              	.LVL89:
 258:main.c        **** 
 259:main.c        ****     for(x=0;x<5;x++)
 748              		.loc 1 259 0
 749 0090 0024     		movs	r4, #0
 750 0092 1AE0     		b	.L23
 751              	.LVL90:
 752              	.L24:
 260:main.c        ****     {
 261:main.c        ****         if (EN_LED0)    
 262:main.c        ****          LedSetRGB(IC_ADDR,x,60,60,60);
 753              		.loc 1 262 0
 754 0094 E5B2     		uxtb	r5, r4
 755 0096 3C26     		movs	r6, #60
 756 0098 0096     		str	r6, [sp]
 757 009a 3C23     		movs	r3, #60
 758 009c 3C22     		movs	r2, #60
 759 009e 2900     		movs	r1, r5
 760 00a0 6020     		movs	r0, #96
ARM GAS  C:\Users\Rajesh\AppData\Local\Temp\ccS5NWmg.s 			page 19


 761 00a2 FFF7FEFF 		bl	LedSetRGB
 762              	.LVL91:
 263:main.c        ****         if (EN_LED1)    
 264:main.c        ****             LedSetRGB(IC_ADDR2,x,60,60,60);
 763              		.loc 1 264 0
 764 00a6 0096     		str	r6, [sp]
 765 00a8 3C23     		movs	r3, #60
 766 00aa 3C22     		movs	r2, #60
 767 00ac 2900     		movs	r1, r5
 768 00ae 6120     		movs	r0, #97
 769 00b0 FFF7FEFF 		bl	LedSetRGB
 770              	.LVL92:
 265:main.c        ****         CyDelayUs(50000);
 771              		.loc 1 265 0
 772 00b4 5C4D     		ldr	r5, .L40+4
 773 00b6 2800     		movs	r0, r5
 774 00b8 FFF7FEFF 		bl	CyDelayUs
 775              	.LVL93:
 266:main.c        ****         CyDelayUs(50000);
 776              		.loc 1 266 0
 777 00bc 2800     		movs	r0, r5
 778 00be FFF7FEFF 		bl	CyDelayUs
 779              	.LVL94:
 267:main.c        ****         CyDelayUs(50000);
 780              		.loc 1 267 0
 781 00c2 2800     		movs	r0, r5
 782 00c4 FFF7FEFF 		bl	CyDelayUs
 783              	.LVL95:
 259:main.c        ****     {
 784              		.loc 1 259 0
 785 00c8 0134     		adds	r4, r4, #1
 786              	.LVL96:
 787              	.L23:
 259:main.c        ****     {
 788              		.loc 1 259 0 is_stmt 0 discriminator 1
 789 00ca 042C     		cmp	r4, #4
 790 00cc E2DD     		ble	.L24
 791 00ce 0027     		movs	r7, #0
 792 00d0 18E0     		b	.L25
 793              	.LVL97:
 794              	.L26:
 268:main.c        ****     }
 269:main.c        ****     for(q=0;q<50;q++)
 270:main.c        ****     {
 271:main.c        ****       //  for(x=0;x<5;x++)
 272:main.c        ****         for(x=0;x<5;x++)
 273:main.c        ****             {
 274:main.c        ****             if (EN_LED0)    
 275:main.c        ****                 LedSetRGB(IC_ADDR,x,q,q,q);
 795              		.loc 1 275 0 is_stmt 1
 796 00d2 EEB2     		uxtb	r6, r5
 797 00d4 FCB2     		uxtb	r4, r7
 798 00d6 0094     		str	r4, [sp]
 799 00d8 2300     		movs	r3, r4
 800 00da 2200     		movs	r2, r4
 801 00dc 3100     		movs	r1, r6
 802 00de 6020     		movs	r0, #96
ARM GAS  C:\Users\Rajesh\AppData\Local\Temp\ccS5NWmg.s 			page 20


 803 00e0 FFF7FEFF 		bl	LedSetRGB
 804              	.LVL98:
 276:main.c        ****             if (EN_LED1)    
 277:main.c        ****                 LedSetRGB(IC_ADDR2,x,q,q,q);
 805              		.loc 1 277 0
 806 00e4 0094     		str	r4, [sp]
 807 00e6 2300     		movs	r3, r4
 808 00e8 2200     		movs	r2, r4
 809 00ea 3100     		movs	r1, r6
 810 00ec 6120     		movs	r0, #97
 811 00ee FFF7FEFF 		bl	LedSetRGB
 812              	.LVL99:
 272:main.c        ****             {
 813              		.loc 1 272 0
 814 00f2 0135     		adds	r5, r5, #1
 815              	.LVL100:
 816 00f4 00E0     		b	.L27
 817              	.LVL101:
 818              	.L38:
 819 00f6 0025     		movs	r5, #0
 820              	.L27:
 821              	.LVL102:
 272:main.c        ****             {
 822              		.loc 1 272 0 is_stmt 0 discriminator 1
 823 00f8 042D     		cmp	r5, #4
 824 00fa EADD     		ble	.L26
 278:main.c        ****             }
 279:main.c        ****          CyDelayUs(10000);
 825              		.loc 1 279 0 is_stmt 1 discriminator 2
 826 00fc 4B48     		ldr	r0, .L40+8
 827 00fe FFF7FEFF 		bl	CyDelayUs
 828              	.LVL103:
 269:main.c        ****     {
 829              		.loc 1 269 0 discriminator 2
 830 0102 0137     		adds	r7, r7, #1
 831              	.LVL104:
 832              	.L25:
 269:main.c        ****     {
 833              		.loc 1 269 0 is_stmt 0 discriminator 1
 834 0104 312F     		cmp	r7, #49
 835 0106 F6DD     		ble	.L38
 836 0108 494C     		ldr	r4, .L40+12
 837              	.LVL105:
 838              	.L37:
 280:main.c        ****     }
 281:main.c        ****     if(0)
 282:main.c        ****     for(x=0;x<5;x++)
 283:main.c        ****         {
 284:main.c        ****             int v= 100;
 285:main.c        ****         if (EN_LED0) 
 286:main.c        ****             LedSetRGB(IC_ADDR,x,v,v,v);
 287:main.c        ****         if (EN_LED1) 
 288:main.c        ****             LedSetRGB(IC_ADDR2,x,v,v,v);
 289:main.c        ****         }
 290:main.c        ****    //tof_init();
 291:main.c        ****     
 292:main.c        ****  // while(1)
ARM GAS  C:\Users\Rajesh\AppData\Local\Temp\ccS5NWmg.s 			page 21


 293:main.c        ****    //   x=tof_measure();
 294:main.c        ****  #define PLATE_DETECT 1000000
 295:main.c        ****     while (1)
 296:main.c        ****     {
 297:main.c        ****         if (set.action==0 && mot_active ==0 && (tamper_time++>TAMPER_DIV))
 839              		.loc 1 297 0 is_stmt 1
 840 010a 464B     		ldr	r3, .L40
 841 010c 1B78     		ldrb	r3, [r3]
 842 010e 002B     		cmp	r3, #0
 843 0110 33D1     		bne	.L28
 844              		.loc 1 297 0 is_stmt 0 discriminator 1
 845 0112 484B     		ldr	r3, .L40+16
 846 0114 1B78     		ldrb	r3, [r3]
 847 0116 002B     		cmp	r3, #0
 848 0118 2FD1     		bne	.L28
 849              		.loc 1 297 0 discriminator 2
 850 011a 621C     		adds	r2, r4, #1
 851              	.LVL106:
 852 011c 444B     		ldr	r3, .L40+12
 853 011e 9C42     		cmp	r4, r3
 854 0120 2ADD     		ble	.L39
 855              	.LBB2:
 298:main.c        ****            {
 299:main.c        ****             short vals[3];
 300:main.c        ****             int mag;
 301:main.c        ****             LISRead(vals);
 856              		.loc 1 301 0 is_stmt 1
 857 0122 02AC     		add	r4, sp, #8
 858 0124 2000     		movs	r0, r4
 859 0126 FFF7FEFF 		bl	LISRead
 860              	.LVL107:
 302:main.c        ****             mag = vals[0]*vals[0]/10+vals[1]*vals[1]/10+vals[2]*vals[2]/10;
 861              		.loc 1 302 0
 862 012a 0023     		movs	r3, #0
 863 012c E05E     		ldrsh	r0, [r4, r3]
 864 012e 4043     		muls	r0, r0
 865 0130 0A21     		movs	r1, #10
 866 0132 FFF7FEFF 		bl	__aeabi_idiv
 867              	.LVL108:
 868 0136 0500     		movs	r5, r0
 869 0138 0223     		movs	r3, #2
 870 013a E05E     		ldrsh	r0, [r4, r3]
 871 013c 4043     		muls	r0, r0
 872 013e 0A21     		movs	r1, #10
 873 0140 FFF7FEFF 		bl	__aeabi_idiv
 874              	.LVL109:
 875 0144 2D18     		adds	r5, r5, r0
 876 0146 0423     		movs	r3, #4
 877 0148 E05E     		ldrsh	r0, [r4, r3]
 878 014a 4043     		muls	r0, r0
 879 014c 0A21     		movs	r1, #10
 880 014e FFF7FEFF 		bl	__aeabi_idiv
 881              	.LVL110:
 882 0152 2818     		adds	r0, r5, r0
 883              	.LVL111:
 303:main.c        ****             if (mag > PLATE_DETECT)
 884              		.loc 1 303 0
ARM GAS  C:\Users\Rajesh\AppData\Local\Temp\ccS5NWmg.s 			page 22


 885 0154 384B     		ldr	r3, .L40+20
 886 0156 9842     		cmp	r0, r3
 887 0158 03DD     		ble	.L29
 304:main.c        ****                set.plate_detect=1;
 888              		.loc 1 304 0
 889 015a 0122     		movs	r2, #1
 890 015c 314B     		ldr	r3, .L40
 891 015e DA72     		strb	r2, [r3, #11]
 892 0160 08E0     		b	.L30
 893              	.L29:
 305:main.c        ****             else
 306:main.c        ****                 {
 307:main.c        ****                 if (set.plate_detect)
 894              		.loc 1 307 0
 895 0162 304B     		ldr	r3, .L40
 896 0164 DB7A     		ldrb	r3, [r3, #11]
 897 0166 002B     		cmp	r3, #0
 898 0168 01D0     		beq	.L31
 308:main.c        ****                     SetTamper();
 899              		.loc 1 308 0
 900 016a FFF7FEFF 		bl	SetTamper
 901              	.LVL112:
 902              	.L31:
 309:main.c        ****                 set.plate_detect=0;
 903              		.loc 1 309 0
 904 016e 0022     		movs	r2, #0
 905 0170 2C4B     		ldr	r3, .L40
 906 0172 DA72     		strb	r2, [r3, #11]
 907              	.L30:
 908              	.LVL113:
 310:main.c        ****                 }
 311:main.c        ****             tamper_time=0;
 909              		.loc 1 311 0
 910 0174 0024     		movs	r4, #0
 911 0176 00E0     		b	.L28
 912              	.LVL114:
 913              	.L39:
 914              	.LBE2:
 297:main.c        ****            {
 915              		.loc 1 297 0
 916 0178 1400     		movs	r4, r2
 917              	.LVL115:
 918              	.L28:
 312:main.c        ****            }
 313:main.c        ****         if (set.action==ACTION_LED)
 919              		.loc 1 313 0
 920 017a 2A4B     		ldr	r3, .L40
 921 017c 1B78     		ldrb	r3, [r3]
 922 017e 012B     		cmp	r3, #1
 923 0180 04D1     		bne	.L32
 314:main.c        ****            {
 315:main.c        ****             DoLedUpdate();
 924              		.loc 1 315 0
 925 0182 FFF7FEFF 		bl	DoLedUpdate
 926              	.LVL116:
 316:main.c        ****             set.action=0;
 927              		.loc 1 316 0
ARM GAS  C:\Users\Rajesh\AppData\Local\Temp\ccS5NWmg.s 			page 23


 928 0186 0022     		movs	r2, #0
 929 0188 264B     		ldr	r3, .L40
 930 018a 1A70     		strb	r2, [r3]
 931              	.L32:
 317:main.c        ****            }
 318:main.c        ****        if (set.action==ACTION_MOT_HOME)
 932              		.loc 1 318 0
 933 018c 254B     		ldr	r3, .L40
 934 018e 1B78     		ldrb	r3, [r3]
 935 0190 022B     		cmp	r3, #2
 936 0192 04D1     		bne	.L33
 319:main.c        ****         {
 320:main.c        ****             MotHome();
 937              		.loc 1 320 0
 938 0194 FFF7FEFF 		bl	MotHome
 939              	.LVL117:
 321:main.c        ****             set.action=0;
 940              		.loc 1 321 0
 941 0198 0022     		movs	r2, #0
 942 019a 224B     		ldr	r3, .L40
 943 019c 1A70     		strb	r2, [r3]
 944              	.L33:
 322:main.c        ****         }
 323:main.c        ****        if (set.action==ACTION_MOT_ABS)
 945              		.loc 1 323 0
 946 019e 214B     		ldr	r3, .L40
 947 01a0 1B78     		ldrb	r3, [r3]
 948 01a2 032B     		cmp	r3, #3
 949 01a4 0FD1     		bne	.L34
 950              	.LBB3:
 324:main.c        ****         {
 325:main.c        ****             short move_pos= (set.mot_pos_hi<<8) +set.mot_pos_lo;
 951              		.loc 1 325 0
 952 01a6 1F4B     		ldr	r3, .L40
 953 01a8 DD79     		ldrb	r5, [r3, #7]
 954 01aa 9879     		ldrb	r0, [r3, #6]
 955 01ac 2D02     		lsls	r5, r5, #8
 956 01ae 4519     		adds	r5, r0, r5
 957 01b0 2DB2     		sxth	r5, r5
 958              	.LVL118:
 326:main.c        ****             if (MotMoveRel(move_pos-MotGetPos()))
 959              		.loc 1 326 0
 960 01b2 FFF7FEFF 		bl	MotGetPos
 961              	.LVL119:
 962 01b6 281A     		subs	r0, r5, r0
 963 01b8 FFF7FEFF 		bl	MotMoveRel
 964              	.LVL120:
 965 01bc 0028     		cmp	r0, #0
 966 01be 02D0     		beq	.L34
 327:main.c        ****                set.action=0;
 967              		.loc 1 327 0
 968 01c0 0022     		movs	r2, #0
 969 01c2 184B     		ldr	r3, .L40
 970 01c4 1A70     		strb	r2, [r3]
 971              	.LVL121:
 972              	.L34:
 973              	.LBE3:
ARM GAS  C:\Users\Rajesh\AppData\Local\Temp\ccS5NWmg.s 			page 24


 328:main.c        ****             
 329:main.c        ****         }
 330:main.c        ****        if (set.action==ACTION_MOT_REL)
 974              		.loc 1 330 0
 975 01c6 174B     		ldr	r3, .L40
 976 01c8 1B78     		ldrb	r3, [r3]
 977 01ca 042B     		cmp	r3, #4
 978 01cc 0CD1     		bne	.L35
 979              	.LBB4:
 331:main.c        ****         {
 332:main.c        ****             short move_pos= (set.mot_pos_hi<<8) +set.mot_pos_lo;
 980              		.loc 1 332 0
 981 01ce 154B     		ldr	r3, .L40
 982 01d0 D879     		ldrb	r0, [r3, #7]
 983 01d2 9B79     		ldrb	r3, [r3, #6]
 984 01d4 0002     		lsls	r0, r0, #8
 985 01d6 1818     		adds	r0, r3, r0
 986 01d8 00B2     		sxth	r0, r0
 987              	.LVL122:
 333:main.c        ****             if (MotMoveRel(move_pos))
 988              		.loc 1 333 0
 989 01da FFF7FEFF 		bl	MotMoveRel
 990              	.LVL123:
 991 01de 0028     		cmp	r0, #0
 992 01e0 02D0     		beq	.L35
 334:main.c        ****                set.action=0;
 993              		.loc 1 334 0
 994 01e2 0022     		movs	r2, #0
 995 01e4 0F4B     		ldr	r3, .L40
 996 01e6 1A70     		strb	r2, [r3]
 997              	.L35:
 998              	.LBE4:
 335:main.c        ****             
 336:main.c        ****         }
 337:main.c        ****        if (set.action==ACTION_AUDIO_SET)
 999              		.loc 1 337 0
 1000 01e8 0E4B     		ldr	r3, .L40
 1001 01ea 1B78     		ldrb	r3, [r3]
 1002 01ec 052B     		cmp	r3, #5
 1003 01ee 11D1     		bne	.L36
 338:main.c        ****         {
 339:main.c        ****             AUD_SD_Write((set.aud_set&1)?1:0);
 1004              		.loc 1 339 0
 1005 01f0 0C4D     		ldr	r5, .L40
 1006 01f2 687A     		ldrb	r0, [r5, #9]
 1007 01f4 0126     		movs	r6, #1
 1008 01f6 3040     		ands	r0, r6
 1009 01f8 FFF7FEFF 		bl	AUD_SD_Write
 1010              	.LVL124:
 340:main.c        ****             AUD_GAIN1_Write((set.aud_set&2)?1:0);
 1011              		.loc 1 340 0
 1012 01fc 687A     		ldrb	r0, [r5, #9]
 1013 01fe 4008     		lsrs	r0, r0, #1
 1014 0200 3040     		ands	r0, r6
 1015 0202 FFF7FEFF 		bl	AUD_GAIN1_Write
 1016              	.LVL125:
 341:main.c        ****             AUD_GAIN0_Write((set.aud_set&4)?1:0);
ARM GAS  C:\Users\Rajesh\AppData\Local\Temp\ccS5NWmg.s 			page 25


 1017              		.loc 1 341 0
 1018 0206 687A     		ldrb	r0, [r5, #9]
 1019 0208 8008     		lsrs	r0, r0, #2
 1020 020a 3040     		ands	r0, r6
 1021 020c FFF7FEFF 		bl	AUD_GAIN0_Write
 1022              	.LVL126:
 342:main.c        ****             set.action=0;
 1023              		.loc 1 342 0
 1024 0210 0023     		movs	r3, #0
 1025 0212 2B70     		strb	r3, [r5]
 1026              	.L36:
 343:main.c        ****         }
 344:main.c        ****      MotTask();
 1027              		.loc 1 344 0
 1028 0214 FFF7FEFF 		bl	MotTask
 1029              	.LVL127:
 345:main.c        ****     set.mot_stat=mot_active;
 1030              		.loc 1 345 0
 1031 0218 064B     		ldr	r3, .L40+16
 1032 021a 1A78     		ldrb	r2, [r3]
 1033 021c 014B     		ldr	r3, .L40
 1034 021e 1A72     		strb	r2, [r3, #8]
 346:main.c        ****     }
 1035              		.loc 1 346 0
 1036 0220 73E7     		b	.L37
 1037              	.L41:
 1038 0222 C046     		.align	2
 1039              	.L40:
 1040 0224 00000000 		.word	set
 1041 0228 50C30000 		.word	50000
 1042 022c 10270000 		.word	10000
 1043 0230 400D0300 		.word	200000
 1044 0234 00000000 		.word	mot_active
 1045 0238 40420F00 		.word	1000000
 1046              		.cfi_endproc
 1047              	.LFE45:
 1048              		.size	main, .-main
 1049              		.comm	set,35,4
 1050              		.text
 1051              	.Letext0:
 1052              		.file 2 "Generated_Source\\PSoC4/cytypes.h"
 1053              		.file 3 "settings.h"
 1054              		.file 4 "Generated_Source\\PSoC4/I2C_LED_I2C.h"
 1055              		.file 5 "Generated_Source\\PSoC4/I2C_MAG.h"
 1056              		.file 6 "Generated_Source\\PSoC4/CyLib.h"
 1057              		.file 7 "motor.h"
 1058              		.file 8 "Generated_Source\\PSoC4/I2C_LED.h"
 1059              		.file 9 "Generated_Source\\PSoC4/EZI2C_CAM_EZI2C.h"
 1060              		.file 10 "Generated_Source\\PSoC4/EZI2C_CAM.h"
 1061              		.file 11 "Generated_Source\\PSoC4/STEP_COUNT.h"
 1062              		.file 12 "Generated_Source\\PSoC4/IDAC_1.h"
 1063              		.file 13 "Generated_Source\\PSoC4/IDAC_2.h"
 1064              		.file 14 "Generated_Source\\PSoC4/Comp_ISENSE.h"
 1065              		.file 15 "Generated_Source\\PSoC4/PWM_M.h"
 1066              		.file 16 "Generated_Source\\PSoC4/PWM_1.h"
 1067              		.file 17 "Generated_Source\\PSoC4/Control_PWM.h"
 1068              		.file 18 "Generated_Source\\PSoC4/AUD_SD.h"
ARM GAS  C:\Users\Rajesh\AppData\Local\Temp\ccS5NWmg.s 			page 26


 1069              		.file 19 "Generated_Source\\PSoC4/AUD_GAIN1.h"
 1070              		.file 20 "Generated_Source\\PSoC4/AUD_GAIN0.h"