ARM GAS  C:\Users\Rajesh\AppData\Local\Temp\ccPtdt9Z.s 			page 1


   1              		.syntax unified
   2              		.cpu cortex-m0
   3              		.fpu softvfp
   4              		.eabi_attribute 20, 1
   5              		.eabi_attribute 21, 1
   6              		.eabi_attribute 23, 3
   7              		.eabi_attribute 24, 1
   8              		.eabi_attribute 25, 1
   9              		.eabi_attribute 26, 1
  10              		.eabi_attribute 30, 1
  11              		.eabi_attribute 34, 0
  12              		.eabi_attribute 18, 4
  13              		.thumb
  14              		.syntax unified
  15              		.file	"tof_coms.c"
  16              		.text
  17              	.Ltext0:
  18              		.cfi_sections	.debug_frame
  19              		.section	.text.myprintf,"ax",%progbits
  20              		.align	2
  21              		.global	myprintf
  22              		.code	16
  23              		.thumb_func
  24              		.type	myprintf, %function
  25              	myprintf:
  26              	.LFB35:
  27              		.file 1 "tof_coms.c"
   1:tof_coms.c    **** /* ========================================
   2:tof_coms.c    ****  *
   3:tof_coms.c    ****  * Copyright YOUR COMPANY, THE YEAR
   4:tof_coms.c    ****  * All Rights Reserved
   5:tof_coms.c    ****  * UNPUBLISHED, LICENSED SOFTWARE.
   6:tof_coms.c    ****  *
   7:tof_coms.c    ****  * CONFIDENTIAL AND PROPRIETARY INFORMATION
   8:tof_coms.c    ****  * WHICH IS THE PROPERTY OF your company.
   9:tof_coms.c    ****  *
  10:tof_coms.c    ****  * ========================================
  11:tof_coms.c    **** */
  12:tof_coms.c    **** /*
  13:tof_coms.c    ****  * COPYRIGHT (C) STMicroelectronics 2015. All rights reserved.
  14:tof_coms.c    ****  *
  15:tof_coms.c    ****  * This software is the confidential and proprietary information of
  16:tof_coms.c    ****  * STMicroelectronics ("Confidential Information").  You shall not
  17:tof_coms.c    ****  * disclose such Confidential Information and shall use it only in
  18:tof_coms.c    ****  * accordance with the terms of the license agreement you entered into
  19:tof_coms.c    ****  * with STMicroelectronics
  20:tof_coms.c    ****  *
  21:tof_coms.c    ****  * Programming Golden Rule: Keep it Simple!
  22:tof_coms.c    ****  *
  23:tof_coms.c    ****  */
  24:tof_coms.c    **** 
  25:tof_coms.c    **** /*!
  26:tof_coms.c    ****  * \file   VL53L0X_platform.c
  27:tof_coms.c    ****  * \brief  Code function defintions for Doppler Testchip Platform Layer
  28:tof_coms.c    ****  *
  29:tof_coms.c    ****  */
  30:tof_coms.c    **** 
ARM GAS  C:\Users\Rajesh\AppData\Local\Temp\ccPtdt9Z.s 			page 2


  31:tof_coms.c    **** 
  32:tof_coms.c    **** #include <stdio.h>    // sprintf(), vsnprintf(), printf()
  33:tof_coms.c    **** 
  34:tof_coms.c    **** #ifdef _MSC_VER
  35:tof_coms.c    **** #define snprintf _snprintf
  36:tof_coms.c    **** #endif
  37:tof_coms.c    **** 
  38:tof_coms.c    **** #include "vl53l0x_i2c_platform.h"
  39:tof_coms.c    **** #include "vl53l0x_def.h"
  40:tof_coms.c    **** 
  41:tof_coms.c    **** #include <stdio.h>
  42:tof_coms.c    **** #include <stdlib.h>
  43:tof_coms.c    **** #include <project.h>
  44:tof_coms.c    **** 
  45:tof_coms.c    **** #define DWORD int
  46:tof_coms.c    **** #define TOF_BASE I2C_OPENCORES_0_BASE
  47:tof_coms.c    **** //#include "comms_platform.h"
  48:tof_coms.c    **** 
  49:tof_coms.c    **** #include "vl53l0x_platform_log.h"
  50:tof_coms.c    **** 
  51:tof_coms.c    **** #ifdef VL53L0X_LOG_ENABLE
  52:tof_coms.c    **** #define trace_print(level, ...) trace_print_module_function(TRACE_MODULE_PLATFORM, level, TRACE_FUN
  53:tof_coms.c    **** #define trace_i2c(...) trace_print_module_function(TRACE_MODULE_NONE, TRACE_LEVEL_NONE, TRACE_FUNCT
  54:tof_coms.c    **** #endif
  55:tof_coms.c    **** 
  56:tof_coms.c    **** 
  57:tof_coms.c    **** #define printf myprintf
  58:tof_coms.c    **** 
  59:tof_coms.c    **** 
  60:tof_coms.c    **** void myprintf(const char *fmt, ...)
  61:tof_coms.c    **** 	{
  28              		.loc 1 61 0
  29              		.cfi_startproc
  30              		@ args = 4, pretend = 16, frame = 0
  31              		@ frame_needed = 0, uses_anonymous_args = 1
  32              		@ link register save eliminated.
  33              	.LVL0:
  34 0000 0FB4     		push	{r0, r1, r2, r3}
  35              		.cfi_def_cfa_offset 16
  62:tof_coms.c    **** 	}
  36              		.loc 1 62 0
  37              		@ sp needed
  38 0002 04B0     		add	sp, sp, #16
  39 0004 7047     		bx	lr
  40              		.cfi_endproc
  41              	.LFE35:
  42              		.size	myprintf, .-myprintf
  43 0006 C046     		.section	.text._check_min_version,"ax",%progbits
  44              		.align	2
  45              		.global	_check_min_version
  46              		.code	16
  47              		.thumb_func
  48              		.type	_check_min_version, %function
  49              	_check_min_version:
  50              	.LFB36:
  63:tof_coms.c    **** char  debug_string[VL53L0X_MAX_STRING_LENGTH_PLT];
  64:tof_coms.c    **** 
ARM GAS  C:\Users\Rajesh\AppData\Local\Temp\ccPtdt9Z.s 			page 3


  65:tof_coms.c    **** uint8_t cached_page = 0;
  66:tof_coms.c    **** 
  67:tof_coms.c    **** #define MIN_COMMS_VERSION_MAJOR     1
  68:tof_coms.c    **** #define MIN_COMMS_VERSION_MINOR     8
  69:tof_coms.c    **** #define MIN_COMMS_VERSION_BUILD     1
  70:tof_coms.c    **** #define MIN_COMMS_VERSION_REVISION  0
  71:tof_coms.c    **** 
  72:tof_coms.c    **** 
  73:tof_coms.c    **** #define MAX_STR_SIZE 255
  74:tof_coms.c    **** #define MAX_MSG_SIZE 100
  75:tof_coms.c    **** #define MAX_DEVICES 4
  76:tof_coms.c    **** #define STATUS_OK              0x00
  77:tof_coms.c    **** #define STATUS_FAIL            0x01
  78:tof_coms.c    **** 
  79:tof_coms.c    **** static unsigned char _dataBytes[MAX_MSG_SIZE];
  80:tof_coms.c    **** 
  81:tof_coms.c    **** bool_t _check_min_version(void)
  82:tof_coms.c    **** {
  51              		.loc 1 82 0
  52              		.cfi_startproc
  53              		@ args = 0, pretend = 0, frame = 0
  54              		@ frame_needed = 0, uses_anonymous_args = 0
  55              		@ link register save eliminated.
  83:tof_coms.c    ****     return 1;
  84:tof_coms.c    **** }
  56              		.loc 1 84 0
  57 0000 0120     		movs	r0, #1
  58              		@ sp needed
  59 0002 7047     		bx	lr
  60              		.cfi_endproc
  61              	.LFE36:
  62              		.size	_check_min_version, .-_check_min_version
  63              		.section	.text.VL53L0X_i2c_init,"ax",%progbits
  64              		.align	2
  65              		.global	VL53L0X_i2c_init
  66              		.code	16
  67              		.thumb_func
  68              		.type	VL53L0X_i2c_init, %function
  69              	VL53L0X_i2c_init:
  70              	.LFB37:
  85:tof_coms.c    **** 
  86:tof_coms.c    **** int VL53L0X_i2c_init(char *comPortStr, unsigned int baudRate) // mja
  87:tof_coms.c    **** {
  71              		.loc 1 87 0
  72              		.cfi_startproc
  73              		@ args = 0, pretend = 0, frame = 0
  74              		@ frame_needed = 0, uses_anonymous_args = 0
  75              		@ link register save eliminated.
  76              	.LVL1:
  88:tof_coms.c    ****    
  89:tof_coms.c    ****     return STATUS_OK;
  90:tof_coms.c    **** }
  77              		.loc 1 90 0
  78 0000 0020     		movs	r0, #0
  79              	.LVL2:
  80              		@ sp needed
  81 0002 7047     		bx	lr
ARM GAS  C:\Users\Rajesh\AppData\Local\Temp\ccPtdt9Z.s 			page 4


  82              		.cfi_endproc
  83              	.LFE37:
  84              		.size	VL53L0X_i2c_init, .-VL53L0X_i2c_init
  85              		.section	.text.VL53L0X_comms_close,"ax",%progbits
  86              		.align	2
  87              		.global	VL53L0X_comms_close
  88              		.code	16
  89              		.thumb_func
  90              		.type	VL53L0X_comms_close, %function
  91              	VL53L0X_comms_close:
  92              	.LFB38:
  91:tof_coms.c    **** int32_t VL53L0X_comms_close(void)
  92:tof_coms.c    **** {
  93              		.loc 1 92 0
  94              		.cfi_startproc
  95              		@ args = 0, pretend = 0, frame = 0
  96              		@ frame_needed = 0, uses_anonymous_args = 0
  97              		@ link register save eliminated.
  93:tof_coms.c    ****     return STATUS_OK;
  94:tof_coms.c    **** }
  98              		.loc 1 94 0
  99 0000 0020     		movs	r0, #0
 100              		@ sp needed
 101 0002 7047     		bx	lr
 102              		.cfi_endproc
 103              	.LFE38:
 104              		.size	VL53L0X_comms_close, .-VL53L0X_comms_close
 105              		.section	.text.VL53L0X_write_multi,"ax",%progbits
 106              		.align	2
 107              		.global	VL53L0X_write_multi
 108              		.code	16
 109              		.thumb_func
 110              		.type	VL53L0X_write_multi, %function
 111              	VL53L0X_write_multi:
 112              	.LFB39:
  95:tof_coms.c    **** 
  96:tof_coms.c    **** int32_t VL53L0X_write_multi(uint8_t address, uint8_t reg, uint8_t *pdata, int32_t count)
  97:tof_coms.c    **** {
 113              		.loc 1 97 0
 114              		.cfi_startproc
 115              		@ args = 0, pretend = 0, frame = 0
 116              		@ frame_needed = 0, uses_anonymous_args = 0
 117              	.LVL3:
 118 0000 F8B5     		push	{r3, r4, r5, r6, r7, lr}
 119              		.cfi_def_cfa_offset 24
 120              		.cfi_offset 3, -24
 121              		.cfi_offset 4, -20
 122              		.cfi_offset 5, -16
 123              		.cfi_offset 6, -12
 124              		.cfi_offset 7, -8
 125              		.cfi_offset 14, -4
 126 0002 0D00     		movs	r5, r1
 127 0004 1400     		movs	r4, r2
 128 0006 1F00     		movs	r7, r3
 129              	.LVL4:
  98:tof_coms.c    ****     int32_t status = STATUS_OK;
  99:tof_coms.c    ****     int c;
ARM GAS  C:\Users\Rajesh\AppData\Local\Temp\ccPtdt9Z.s 			page 5


 100:tof_coms.c    **** 
 101:tof_coms.c    ****     unsigned int retries = 3;
 102:tof_coms.c    ****     uint8_t *pWriteData    = pdata;
 103:tof_coms.c    ****     uint8_t writeDataCount = count;
 104:tof_coms.c    ****     uint8_t writeReg       = reg;
 105:tof_coms.c    ****     int r;
 106:tof_coms.c    **** 
 107:tof_coms.c    ****     
 108:tof_coms.c    ****     r=I2C_LED_I2CMasterSendStart(address,0);
 130              		.loc 1 108 0
 131 0008 0021     		movs	r1, #0
 132              	.LVL5:
 133 000a FFF7FEFF 		bl	I2C_LED_I2CMasterSendStart
 134              	.LVL6:
 109:tof_coms.c    ****     if(r!=0)
 135              		.loc 1 109 0
 136 000e 0028     		cmp	r0, #0
 137 0010 10D1     		bne	.L9
 110:tof_coms.c    ****         return 1;
 111:tof_coms.c    ****     
 112:tof_coms.c    ****     I2C_LED_I2CMasterWriteByte(reg);
 138              		.loc 1 112 0
 139 0012 2800     		movs	r0, r5
 140              	.LVL7:
 141 0014 FFF7FEFF 		bl	I2C_LED_I2CMasterWriteByte
 142              	.LVL8:
 113:tof_coms.c    ****     for (c=0;c<count;c++)
 143              		.loc 1 113 0
 144 0018 0025     		movs	r5, #0
 145              	.LVL9:
 146 001a 05E0     		b	.L7
 147              	.LVL10:
 148              	.L8:
 114:tof_coms.c    ****          I2C_LED_I2CMasterWriteByte(*pdata++);
 149              		.loc 1 114 0 discriminator 3
 150 001c 661C     		adds	r6, r4, #1
 151              	.LVL11:
 152 001e 2078     		ldrb	r0, [r4]
 153 0020 FFF7FEFF 		bl	I2C_LED_I2CMasterWriteByte
 154              	.LVL12:
 113:tof_coms.c    ****     for (c=0;c<count;c++)
 155              		.loc 1 113 0 discriminator 3
 156 0024 0135     		adds	r5, r5, #1
 157              	.LVL13:
 158              		.loc 1 114 0 discriminator 3
 159 0026 3400     		movs	r4, r6
 160              	.LVL14:
 161              	.L7:
 113:tof_coms.c    ****     for (c=0;c<count;c++)
 162              		.loc 1 113 0 discriminator 1
 163 0028 BD42     		cmp	r5, r7
 164 002a F7DB     		blt	.L8
 115:tof_coms.c    ****     
 116:tof_coms.c    ****     I2C_LED_I2CMasterSendStop();
 165              		.loc 1 116 0
 166 002c FFF7FEFF 		bl	I2C_LED_I2CMasterSendStop
 167              	.LVL15:
ARM GAS  C:\Users\Rajesh\AppData\Local\Temp\ccPtdt9Z.s 			page 6


 117:tof_coms.c    ****     
 118:tof_coms.c    ****     return STATUS_OK;
 168              		.loc 1 118 0
 169 0030 0020     		movs	r0, #0
 170 0032 00E0     		b	.L6
 171              	.LVL16:
 172              	.L9:
 110:tof_coms.c    ****     
 173              		.loc 1 110 0
 174 0034 0120     		movs	r0, #1
 175              	.LVL17:
 176              	.L6:
 119:tof_coms.c    **** }
 177              		.loc 1 119 0
 178              		@ sp needed
 179              	.LVL18:
 180              	.LVL19:
 181 0036 F8BD     		pop	{r3, r4, r5, r6, r7, pc}
 182              		.cfi_endproc
 183              	.LFE39:
 184              		.size	VL53L0X_write_multi, .-VL53L0X_write_multi
 185              		.section	.text.VL53L0X_read_multi,"ax",%progbits
 186              		.align	2
 187              		.global	VL53L0X_read_multi
 188              		.code	16
 189              		.thumb_func
 190              		.type	VL53L0X_read_multi, %function
 191              	VL53L0X_read_multi:
 192              	.LFB40:
 120:tof_coms.c    **** 
 121:tof_coms.c    **** int32_t VL53L0X_read_multi(uint8_t address, uint8_t index, uint8_t *pdata, int32_t count)
 122:tof_coms.c    **** {
 193              		.loc 1 122 0
 194              		.cfi_startproc
 195              		@ args = 0, pretend = 0, frame = 0
 196              		@ frame_needed = 0, uses_anonymous_args = 0
 197              	.LVL20:
 198 0000 F8B5     		push	{r3, r4, r5, r6, r7, lr}
 199              		.cfi_def_cfa_offset 24
 200              		.cfi_offset 3, -24
 201              		.cfi_offset 4, -20
 202              		.cfi_offset 5, -16
 203              		.cfi_offset 6, -12
 204              		.cfi_offset 7, -8
 205              		.cfi_offset 14, -4
 206 0002 0500     		movs	r5, r0
 207 0004 0E00     		movs	r6, r1
 208 0006 1400     		movs	r4, r2
 209 0008 1F00     		movs	r7, r3
 123:tof_coms.c    ****     int c;
 124:tof_coms.c    ****     int r;
 125:tof_coms.c    ****    
 126:tof_coms.c    ****         
 127:tof_coms.c    ****         
 128:tof_coms.c    ****     r=I2C_LED_I2CMasterSendStart(address,0);
 210              		.loc 1 128 0
 211 000a 0021     		movs	r1, #0
ARM GAS  C:\Users\Rajesh\AppData\Local\Temp\ccPtdt9Z.s 			page 7


 212              	.LVL21:
 213 000c FFF7FEFF 		bl	I2C_LED_I2CMasterSendStart
 214              	.LVL22:
 129:tof_coms.c    ****     if(r!=0)
 215              		.loc 1 129 0
 216 0010 0028     		cmp	r0, #0
 217 0012 15D1     		bne	.L14
 130:tof_coms.c    ****         return 1;
 131:tof_coms.c    ****     
 132:tof_coms.c    ****     I2C_LED_I2CMasterWriteByte(index);
 218              		.loc 1 132 0
 219 0014 3000     		movs	r0, r6
 220              	.LVL23:
 221 0016 FFF7FEFF 		bl	I2C_LED_I2CMasterWriteByte
 222              	.LVL24:
 133:tof_coms.c    ****     I2C_LED_I2CMasterSendRestart(address,1);
 223              		.loc 1 133 0
 224 001a 0121     		movs	r1, #1
 225 001c 2800     		movs	r0, r5
 226 001e FFF7FEFF 		bl	I2C_LED_I2CMasterSendRestart
 227              	.LVL25:
 134:tof_coms.c    ****     for (c=0;c<count;c++)
 228              		.loc 1 134 0
 229 0022 0025     		movs	r5, #0
 230 0024 06E0     		b	.L12
 231              	.LVL26:
 232              	.L13:
 135:tof_coms.c    ****           *pdata++=I2C_LED_I2CMasterReadByte( I2C_LED_I2C_ACK_DATA);
 233              		.loc 1 135 0 discriminator 3
 234 0026 661C     		adds	r6, r4, #1
 235              	.LVL27:
 236 0028 0020     		movs	r0, #0
 237 002a FFF7FEFF 		bl	I2C_LED_I2CMasterReadByte
 238              	.LVL28:
 239 002e 2070     		strb	r0, [r4]
 134:tof_coms.c    ****     for (c=0;c<count;c++)
 240              		.loc 1 134 0 discriminator 3
 241 0030 0135     		adds	r5, r5, #1
 242              	.LVL29:
 243              		.loc 1 135 0 discriminator 3
 244 0032 3400     		movs	r4, r6
 245              	.LVL30:
 246              	.L12:
 134:tof_coms.c    ****     for (c=0;c<count;c++)
 247              		.loc 1 134 0 discriminator 1
 248 0034 BD42     		cmp	r5, r7
 249 0036 F6DB     		blt	.L13
 136:tof_coms.c    ****     
 137:tof_coms.c    ****     I2C_LED_I2CMasterSendStop();
 250              		.loc 1 137 0
 251 0038 FFF7FEFF 		bl	I2C_LED_I2CMasterSendStop
 252              	.LVL31:
 138:tof_coms.c    ****     
 139:tof_coms.c    ****     return STATUS_OK;
 253              		.loc 1 139 0
 254 003c 0020     		movs	r0, #0
 255 003e 00E0     		b	.L11
ARM GAS  C:\Users\Rajesh\AppData\Local\Temp\ccPtdt9Z.s 			page 8


 256              	.LVL32:
 257              	.L14:
 130:tof_coms.c    ****     
 258              		.loc 1 130 0
 259 0040 0120     		movs	r0, #1
 260              	.LVL33:
 261              	.L11:
 140:tof_coms.c    **** }
 262              		.loc 1 140 0
 263              		@ sp needed
 264              	.LVL34:
 265              	.LVL35:
 266 0042 F8BD     		pop	{r3, r4, r5, r6, r7, pc}
 267              		.cfi_endproc
 268              	.LFE40:
 269              		.size	VL53L0X_read_multi, .-VL53L0X_read_multi
 270              		.section	.text.VL53L0X_write_byte,"ax",%progbits
 271              		.align	2
 272              		.global	VL53L0X_write_byte
 273              		.code	16
 274              		.thumb_func
 275              		.type	VL53L0X_write_byte, %function
 276              	VL53L0X_write_byte:
 277              	.LFB41:
 141:tof_coms.c    **** 
 142:tof_coms.c    **** 
 143:tof_coms.c    **** int32_t VL53L0X_write_byte(uint8_t address, uint8_t index, uint8_t data)
 144:tof_coms.c    **** {
 278              		.loc 1 144 0
 279              		.cfi_startproc
 280              		@ args = 0, pretend = 0, frame = 8
 281              		@ frame_needed = 0, uses_anonymous_args = 0
 282              	.LVL36:
 283 0000 00B5     		push	{lr}
 284              		.cfi_def_cfa_offset 4
 285              		.cfi_offset 14, -4
 286 0002 83B0     		sub	sp, sp, #12
 287              		.cfi_def_cfa_offset 16
 288 0004 1300     		movs	r3, r2
 289 0006 6A46     		mov	r2, sp
 290              	.LVL37:
 291 0008 0732     		adds	r2, r2, #7
 292 000a 1370     		strb	r3, [r2]
 293              	.LVL38:
 145:tof_coms.c    ****     int32_t status = STATUS_OK;
 146:tof_coms.c    ****     const int32_t cbyte_count = 1;
 147:tof_coms.c    **** 
 148:tof_coms.c    **** #ifdef VL53L0X_LOG_ENABLE
 149:tof_coms.c    ****     trace_print(TRACE_LEVEL_INFO,"Write reg : 0x%02X, Val : 0x%02X\n", index, data);
 150:tof_coms.c    **** #endif
 151:tof_coms.c    **** 
 152:tof_coms.c    ****     status = VL53L0X_write_multi(address, index, &data, cbyte_count);
 294              		.loc 1 152 0
 295 000c 0123     		movs	r3, #1
 296 000e FFF7FEFF 		bl	VL53L0X_write_multi
 297              	.LVL39:
 153:tof_coms.c    **** 
ARM GAS  C:\Users\Rajesh\AppData\Local\Temp\ccPtdt9Z.s 			page 9


 154:tof_coms.c    ****     return status;
 155:tof_coms.c    **** 
 156:tof_coms.c    **** }
 298              		.loc 1 156 0
 299 0012 03B0     		add	sp, sp, #12
 300              		@ sp needed
 301 0014 00BD     		pop	{pc}
 302              		.cfi_endproc
 303              	.LFE41:
 304              		.size	VL53L0X_write_byte, .-VL53L0X_write_byte
 305 0016 C046     		.section	.text.VL53L0X_write_word,"ax",%progbits
 306              		.align	2
 307              		.global	VL53L0X_write_word
 308              		.code	16
 309              		.thumb_func
 310              		.type	VL53L0X_write_word, %function
 311              	VL53L0X_write_word:
 312              	.LFB42:
 157:tof_coms.c    **** 
 158:tof_coms.c    **** 
 159:tof_coms.c    **** int32_t VL53L0X_write_word(uint8_t address, uint8_t index, uint16_t data)
 160:tof_coms.c    **** {
 313              		.loc 1 160 0
 314              		.cfi_startproc
 315              		@ args = 0, pretend = 0, frame = 8
 316              		@ frame_needed = 0, uses_anonymous_args = 0
 317              	.LVL40:
 318 0000 30B5     		push	{r4, r5, lr}
 319              		.cfi_def_cfa_offset 12
 320              		.cfi_offset 4, -12
 321              		.cfi_offset 5, -8
 322              		.cfi_offset 14, -4
 323 0002 83B0     		sub	sp, sp, #12
 324              		.cfi_def_cfa_offset 24
 325 0004 0500     		movs	r5, r0
 326 0006 0C00     		movs	r4, r1
 327              	.LVL41:
 161:tof_coms.c    ****     int32_t status = STATUS_OK;
 162:tof_coms.c    **** 
 163:tof_coms.c    ****     uint8_t  buffer[BYTES_PER_WORD];
 164:tof_coms.c    **** 
 165:tof_coms.c    ****     // Split 16-bit word into MS and LS uint8_t
 166:tof_coms.c    ****     buffer[0] = (uint8_t)(data >> 8);
 328              		.loc 1 166 0
 329 0008 110A     		lsrs	r1, r2, #8
 330              	.LVL42:
 331 000a 01AB     		add	r3, sp, #4
 332 000c 1970     		strb	r1, [r3]
 167:tof_coms.c    ****     buffer[1] = (uint8_t)(data &  0x00FF);
 333              		.loc 1 167 0
 334 000e 5A70     		strb	r2, [r3, #1]
 168:tof_coms.c    **** 
 169:tof_coms.c    ****     if(index%2 == 1)
 335              		.loc 1 169 0
 336 0010 E307     		lsls	r3, r4, #31
 337 0012 0DD5     		bpl	.L17
 170:tof_coms.c    ****     {
ARM GAS  C:\Users\Rajesh\AppData\Local\Temp\ccPtdt9Z.s 			page 10


 171:tof_coms.c    ****         status = VL53L0X_write_multi(address, index, &buffer[0], 1);
 338              		.loc 1 171 0
 339 0014 0123     		movs	r3, #1
 340 0016 01AA     		add	r2, sp, #4
 341              	.LVL43:
 342 0018 2100     		movs	r1, r4
 343 001a FFF7FEFF 		bl	VL53L0X_write_multi
 344              	.LVL44:
 172:tof_coms.c    ****         status = VL53L0X_write_multi(address, index + 1, &buffer[1], 1);
 345              		.loc 1 172 0
 346 001e 0134     		adds	r4, r4, #1
 347 0020 E1B2     		uxtb	r1, r4
 348 0022 0123     		movs	r3, #1
 349 0024 6A46     		mov	r2, sp
 350 0026 0532     		adds	r2, r2, #5
 351 0028 2800     		movs	r0, r5
 352 002a FFF7FEFF 		bl	VL53L0X_write_multi
 353              	.LVL45:
 354 002e 04E0     		b	.L18
 355              	.LVL46:
 356              	.L17:
 173:tof_coms.c    ****         // serial comms cannot handle word writes to non 2-byte aligned registers.
 174:tof_coms.c    ****     }
 175:tof_coms.c    ****     else
 176:tof_coms.c    ****     {
 177:tof_coms.c    ****         status = VL53L0X_write_multi(address, index, buffer, BYTES_PER_WORD);
 357              		.loc 1 177 0
 358 0030 0223     		movs	r3, #2
 359 0032 01AA     		add	r2, sp, #4
 360              	.LVL47:
 361 0034 2100     		movs	r1, r4
 362 0036 FFF7FEFF 		bl	VL53L0X_write_multi
 363              	.LVL48:
 364              	.L18:
 178:tof_coms.c    ****     }
 179:tof_coms.c    **** 
 180:tof_coms.c    ****     return status;
 181:tof_coms.c    **** 
 182:tof_coms.c    **** }
 365              		.loc 1 182 0
 366 003a 03B0     		add	sp, sp, #12
 367              		@ sp needed
 368 003c 30BD     		pop	{r4, r5, pc}
 369              		.cfi_endproc
 370              	.LFE42:
 371              		.size	VL53L0X_write_word, .-VL53L0X_write_word
 372 003e C046     		.section	.text.VL53L0X_write_dword,"ax",%progbits
 373              		.align	2
 374              		.global	VL53L0X_write_dword
 375              		.code	16
 376              		.thumb_func
 377              		.type	VL53L0X_write_dword, %function
 378              	VL53L0X_write_dword:
 379              	.LFB43:
 183:tof_coms.c    **** 
 184:tof_coms.c    **** 
 185:tof_coms.c    **** int32_t VL53L0X_write_dword(uint8_t address, uint8_t index, uint32_t data)
ARM GAS  C:\Users\Rajesh\AppData\Local\Temp\ccPtdt9Z.s 			page 11


 186:tof_coms.c    **** {
 380              		.loc 1 186 0
 381              		.cfi_startproc
 382              		@ args = 0, pretend = 0, frame = 8
 383              		@ frame_needed = 0, uses_anonymous_args = 0
 384              	.LVL49:
 385 0000 10B5     		push	{r4, lr}
 386              		.cfi_def_cfa_offset 8
 387              		.cfi_offset 4, -8
 388              		.cfi_offset 14, -4
 389 0002 82B0     		sub	sp, sp, #8
 390              		.cfi_def_cfa_offset 16
 391              	.LVL50:
 187:tof_coms.c    ****     int32_t status = STATUS_OK;
 188:tof_coms.c    ****     uint8_t  buffer[BYTES_PER_DWORD];
 189:tof_coms.c    **** 
 190:tof_coms.c    ****     // Split 32-bit word into MS ... LS bytes
 191:tof_coms.c    ****     buffer[0] = (uint8_t) (data >> 24);
 392              		.loc 1 191 0
 393 0004 130E     		lsrs	r3, r2, #24
 394 0006 01AC     		add	r4, sp, #4
 395 0008 2370     		strb	r3, [r4]
 192:tof_coms.c    ****     buffer[1] = (uint8_t)((data &  0x00FF0000) >> 16);
 396              		.loc 1 192 0
 397 000a 130C     		lsrs	r3, r2, #16
 398 000c 6370     		strb	r3, [r4, #1]
 193:tof_coms.c    ****     buffer[2] = (uint8_t)((data &  0x0000FF00) >> 8);
 399              		.loc 1 193 0
 400 000e 130A     		lsrs	r3, r2, #8
 401 0010 A370     		strb	r3, [r4, #2]
 194:tof_coms.c    ****     buffer[3] = (uint8_t) (data &  0x000000FF);
 402              		.loc 1 194 0
 403 0012 E270     		strb	r2, [r4, #3]
 195:tof_coms.c    **** 
 196:tof_coms.c    ****     status = VL53L0X_write_multi(address, index, buffer, BYTES_PER_DWORD);
 404              		.loc 1 196 0
 405 0014 0423     		movs	r3, #4
 406 0016 2200     		movs	r2, r4
 407              	.LVL51:
 408 0018 FFF7FEFF 		bl	VL53L0X_write_multi
 409              	.LVL52:
 197:tof_coms.c    **** 
 198:tof_coms.c    ****     return status;
 199:tof_coms.c    **** 
 200:tof_coms.c    **** }
 410              		.loc 1 200 0
 411 001c 02B0     		add	sp, sp, #8
 412              		@ sp needed
 413 001e 10BD     		pop	{r4, pc}
 414              		.cfi_endproc
 415              	.LFE43:
 416              		.size	VL53L0X_write_dword, .-VL53L0X_write_dword
 417              		.section	.text.VL53L0X_read_byte,"ax",%progbits
 418              		.align	2
 419              		.global	VL53L0X_read_byte
 420              		.code	16
 421              		.thumb_func
ARM GAS  C:\Users\Rajesh\AppData\Local\Temp\ccPtdt9Z.s 			page 12


 422              		.type	VL53L0X_read_byte, %function
 423              	VL53L0X_read_byte:
 424              	.LFB44:
 201:tof_coms.c    **** 
 202:tof_coms.c    **** 
 203:tof_coms.c    **** int32_t VL53L0X_read_byte(uint8_t address, uint8_t index, uint8_t *pdata)
 204:tof_coms.c    **** {
 425              		.loc 1 204 0
 426              		.cfi_startproc
 427              		@ args = 0, pretend = 0, frame = 0
 428              		@ frame_needed = 0, uses_anonymous_args = 0
 429              	.LVL53:
 430 0000 10B5     		push	{r4, lr}
 431              		.cfi_def_cfa_offset 8
 432              		.cfi_offset 4, -8
 433              		.cfi_offset 14, -4
 434              	.LVL54:
 205:tof_coms.c    ****     int32_t status = STATUS_OK;
 206:tof_coms.c    ****     int32_t cbyte_count = 1;
 207:tof_coms.c    **** 
 208:tof_coms.c    ****     status = VL53L0X_read_multi(address, index, pdata, cbyte_count);
 435              		.loc 1 208 0
 436 0002 0123     		movs	r3, #1
 437 0004 FFF7FEFF 		bl	VL53L0X_read_multi
 438              	.LVL55:
 209:tof_coms.c    **** 
 210:tof_coms.c    **** #ifdef VL53L0X_LOG_ENABLE
 211:tof_coms.c    ****     trace_print(TRACE_LEVEL_INFO,"Read reg : 0x%02X, Val : 0x%02X\n", index, *pdata);
 212:tof_coms.c    **** #endif
 213:tof_coms.c    **** 
 214:tof_coms.c    ****     return status;
 215:tof_coms.c    **** 
 216:tof_coms.c    **** }
 439              		.loc 1 216 0
 440              		@ sp needed
 441 0008 10BD     		pop	{r4, pc}
 442              		.cfi_endproc
 443              	.LFE44:
 444              		.size	VL53L0X_read_byte, .-VL53L0X_read_byte
 445 000a C046     		.section	.text.VL53L0X_read_word,"ax",%progbits
 446              		.align	2
 447              		.global	VL53L0X_read_word
 448              		.code	16
 449              		.thumb_func
 450              		.type	VL53L0X_read_word, %function
 451              	VL53L0X_read_word:
 452              	.LFB45:
 217:tof_coms.c    **** 
 218:tof_coms.c    **** 
 219:tof_coms.c    **** int32_t VL53L0X_read_word(uint8_t address, uint8_t index, uint16_t *pdata)
 220:tof_coms.c    **** {
 453              		.loc 1 220 0
 454              		.cfi_startproc
 455              		@ args = 0, pretend = 0, frame = 8
 456              		@ frame_needed = 0, uses_anonymous_args = 0
 457              	.LVL56:
 458 0000 30B5     		push	{r4, r5, lr}
ARM GAS  C:\Users\Rajesh\AppData\Local\Temp\ccPtdt9Z.s 			page 13


 459              		.cfi_def_cfa_offset 12
 460              		.cfi_offset 4, -12
 461              		.cfi_offset 5, -8
 462              		.cfi_offset 14, -4
 463 0002 83B0     		sub	sp, sp, #12
 464              		.cfi_def_cfa_offset 24
 465 0004 1500     		movs	r5, r2
 466              	.LVL57:
 221:tof_coms.c    ****     int32_t  status = STATUS_OK;
 222:tof_coms.c    **** 	uint8_t  buffer[BYTES_PER_WORD];
 223:tof_coms.c    **** 
 224:tof_coms.c    ****     status = VL53L0X_read_multi(address, index, buffer, BYTES_PER_WORD);
 467              		.loc 1 224 0
 468 0006 01AC     		add	r4, sp, #4
 469 0008 0223     		movs	r3, #2
 470 000a 2200     		movs	r2, r4
 471              	.LVL58:
 472 000c FFF7FEFF 		bl	VL53L0X_read_multi
 473              	.LVL59:
 225:tof_coms.c    **** 	*pdata = ((uint16_t)buffer[0]<<8) + (uint16_t)buffer[1];
 474              		.loc 1 225 0
 475 0010 2378     		ldrb	r3, [r4]
 476 0012 6278     		ldrb	r2, [r4, #1]
 477 0014 1B02     		lsls	r3, r3, #8
 478 0016 9B18     		adds	r3, r3, r2
 479 0018 2B80     		strh	r3, [r5]
 226:tof_coms.c    **** 
 227:tof_coms.c    ****     return status;
 228:tof_coms.c    **** 
 229:tof_coms.c    **** }
 480              		.loc 1 229 0
 481 001a 03B0     		add	sp, sp, #12
 482              		@ sp needed
 483              	.LVL60:
 484 001c 30BD     		pop	{r4, r5, pc}
 485              		.cfi_endproc
 486              	.LFE45:
 487              		.size	VL53L0X_read_word, .-VL53L0X_read_word
 488 001e C046     		.section	.text.VL53L0X_read_dword,"ax",%progbits
 489              		.align	2
 490              		.global	VL53L0X_read_dword
 491              		.code	16
 492              		.thumb_func
 493              		.type	VL53L0X_read_dword, %function
 494              	VL53L0X_read_dword:
 495              	.LFB46:
 230:tof_coms.c    **** 
 231:tof_coms.c    **** int32_t VL53L0X_read_dword(uint8_t address, uint8_t index, uint32_t *pdata)
 232:tof_coms.c    **** {
 496              		.loc 1 232 0
 497              		.cfi_startproc
 498              		@ args = 0, pretend = 0, frame = 8
 499              		@ frame_needed = 0, uses_anonymous_args = 0
 500              	.LVL61:
 501 0000 30B5     		push	{r4, r5, lr}
 502              		.cfi_def_cfa_offset 12
 503              		.cfi_offset 4, -12
ARM GAS  C:\Users\Rajesh\AppData\Local\Temp\ccPtdt9Z.s 			page 14


 504              		.cfi_offset 5, -8
 505              		.cfi_offset 14, -4
 506 0002 83B0     		sub	sp, sp, #12
 507              		.cfi_def_cfa_offset 24
 508 0004 1500     		movs	r5, r2
 509              	.LVL62:
 233:tof_coms.c    ****     int32_t status = STATUS_OK;
 234:tof_coms.c    **** 	uint8_t  buffer[BYTES_PER_DWORD];
 235:tof_coms.c    **** 
 236:tof_coms.c    ****     status = VL53L0X_read_multi(address, index, buffer, BYTES_PER_DWORD);
 510              		.loc 1 236 0
 511 0006 01AC     		add	r4, sp, #4
 512 0008 0423     		movs	r3, #4
 513 000a 2200     		movs	r2, r4
 514              	.LVL63:
 515 000c FFF7FEFF 		bl	VL53L0X_read_multi
 516              	.LVL64:
 237:tof_coms.c    ****     *pdata = ((uint32_t)buffer[0]<<24) + ((uint32_t)buffer[1]<<16) + ((uint32_t)buffer[2]<<8) + (ui
 517              		.loc 1 237 0
 518 0010 2378     		ldrb	r3, [r4]
 519 0012 1A06     		lsls	r2, r3, #24
 520 0014 6378     		ldrb	r3, [r4, #1]
 521 0016 1B04     		lsls	r3, r3, #16
 522 0018 D318     		adds	r3, r2, r3
 523 001a A278     		ldrb	r2, [r4, #2]
 524 001c 1202     		lsls	r2, r2, #8
 525 001e 9B18     		adds	r3, r3, r2
 526 0020 E278     		ldrb	r2, [r4, #3]
 527 0022 9B18     		adds	r3, r3, r2
 528 0024 2B60     		str	r3, [r5]
 238:tof_coms.c    **** 
 239:tof_coms.c    ****     return status;
 240:tof_coms.c    **** 
 241:tof_coms.c    **** }
 529              		.loc 1 241 0
 530 0026 03B0     		add	sp, sp, #12
 531              		@ sp needed
 532              	.LVL65:
 533 0028 30BD     		pop	{r4, r5, pc}
 534              		.cfi_endproc
 535              	.LFE46:
 536              		.size	VL53L0X_read_dword, .-VL53L0X_read_dword
 537 002a C046     		.section	.text.VL53L0X_write_multi16,"ax",%progbits
 538              		.align	2
 539              		.global	VL53L0X_write_multi16
 540              		.code	16
 541              		.thumb_func
 542              		.type	VL53L0X_write_multi16, %function
 543              	VL53L0X_write_multi16:
 544              	.LFB47:
 242:tof_coms.c    **** 
 243:tof_coms.c    **** 
 244:tof_coms.c    **** 
 245:tof_coms.c    **** // 16 bit address functions
 246:tof_coms.c    **** 
 247:tof_coms.c    **** 
 248:tof_coms.c    **** int32_t VL53L0X_write_multi16(uint8_t address, uint16_t index, uint8_t *pdata, int32_t count)
ARM GAS  C:\Users\Rajesh\AppData\Local\Temp\ccPtdt9Z.s 			page 15


 249:tof_coms.c    **** {
 545              		.loc 1 249 0
 546              		.cfi_startproc
 547              		@ args = 0, pretend = 0, frame = 0
 548              		@ frame_needed = 0, uses_anonymous_args = 0
 549              	.LVL66:
 550 0000 F8B5     		push	{r3, r4, r5, r6, r7, lr}
 551              		.cfi_def_cfa_offset 24
 552              		.cfi_offset 3, -24
 553              		.cfi_offset 4, -20
 554              		.cfi_offset 5, -16
 555              		.cfi_offset 6, -12
 556              		.cfi_offset 7, -8
 557              		.cfi_offset 14, -4
 558 0002 0D00     		movs	r5, r1
 559 0004 1400     		movs	r4, r2
 560 0006 1F00     		movs	r7, r3
 561              	.LVL67:
 250:tof_coms.c    ****     int32_t status = STATUS_OK;
 251:tof_coms.c    ****     unsigned int retries = 3;
 252:tof_coms.c    ****     int c,r;
 253:tof_coms.c    ****     DWORD dwWaitResult;
 254:tof_coms.c    ****       r=I2C_LED_I2CMasterSendStart(address,0);
 562              		.loc 1 254 0
 563 0008 0021     		movs	r1, #0
 564              	.LVL68:
 565 000a FFF7FEFF 		bl	I2C_LED_I2CMasterSendStart
 566              	.LVL69:
 255:tof_coms.c    ****     if(r!=0)
 567              		.loc 1 255 0
 568 000e 0028     		cmp	r0, #0
 569 0010 14D1     		bne	.L27
 256:tof_coms.c    ****         return 1;
 257:tof_coms.c    ****     
 258:tof_coms.c    ****     I2C_LED_I2CMasterWriteByte(index>>8);
 570              		.loc 1 258 0
 571 0012 280A     		lsrs	r0, r5, #8
 572              	.LVL70:
 573 0014 FFF7FEFF 		bl	I2C_LED_I2CMasterWriteByte
 574              	.LVL71:
 259:tof_coms.c    ****     I2C_LED_I2CMasterWriteByte(index&0xff);
 575              		.loc 1 259 0
 576 0018 FF20     		movs	r0, #255
 577 001a 2840     		ands	r0, r5
 578 001c FFF7FEFF 		bl	I2C_LED_I2CMasterWriteByte
 579              	.LVL72:
 260:tof_coms.c    ****     for (c=0;c<count;c++)
 580              		.loc 1 260 0
 581 0020 0025     		movs	r5, #0
 582 0022 05E0     		b	.L25
 583              	.LVL73:
 584              	.L26:
 261:tof_coms.c    ****          I2C_LED_I2CMasterWriteByte(*pdata++);
 585              		.loc 1 261 0 discriminator 3
 586 0024 661C     		adds	r6, r4, #1
 587              	.LVL74:
 588 0026 2078     		ldrb	r0, [r4]
ARM GAS  C:\Users\Rajesh\AppData\Local\Temp\ccPtdt9Z.s 			page 16


 589 0028 FFF7FEFF 		bl	I2C_LED_I2CMasterWriteByte
 590              	.LVL75:
 260:tof_coms.c    ****     for (c=0;c<count;c++)
 591              		.loc 1 260 0 discriminator 3
 592 002c 0135     		adds	r5, r5, #1
 593              	.LVL76:
 594              		.loc 1 261 0 discriminator 3
 595 002e 3400     		movs	r4, r6
 596              	.LVL77:
 597              	.L25:
 260:tof_coms.c    ****     for (c=0;c<count;c++)
 598              		.loc 1 260 0 discriminator 1
 599 0030 BD42     		cmp	r5, r7
 600 0032 F7DB     		blt	.L26
 262:tof_coms.c    ****     
 263:tof_coms.c    ****     I2C_LED_I2CMasterSendStop();
 601              		.loc 1 263 0
 602 0034 FFF7FEFF 		bl	I2C_LED_I2CMasterSendStop
 603              	.LVL78:
 264:tof_coms.c    **** /*
 265:tof_coms.c    ****     I2C_start(TOF_BASE,address,0);
 266:tof_coms.c    ****     I2C_write(TOF_BASE,index>>8,0);
 267:tof_coms.c    ****     I2C_write(TOF_BASE,index,0);
 268:tof_coms.c    **** 
 269:tof_coms.c    ****        for (c=0;c<count;c++)
 270:tof_coms.c    ****    	I2C_write(TOF_BASE,*pdata++,c==count-1?1:0);
 271:tof_coms.c    **** */
 272:tof_coms.c    ****     return STATUS_OK;
 604              		.loc 1 272 0
 605 0038 0020     		movs	r0, #0
 606 003a 00E0     		b	.L24
 607              	.LVL79:
 608              	.L27:
 256:tof_coms.c    ****     
 609              		.loc 1 256 0
 610 003c 0120     		movs	r0, #1
 611              	.LVL80:
 612              	.L24:
 273:tof_coms.c    **** }
 613              		.loc 1 273 0
 614              		@ sp needed
 615              	.LVL81:
 616              	.LVL82:
 617 003e F8BD     		pop	{r3, r4, r5, r6, r7, pc}
 618              		.cfi_endproc
 619              	.LFE47:
 620              		.size	VL53L0X_write_multi16, .-VL53L0X_write_multi16
 621              		.section	.text.VL53L0X_read_multi16,"ax",%progbits
 622              		.align	2
 623              		.global	VL53L0X_read_multi16
 624              		.code	16
 625              		.thumb_func
 626              		.type	VL53L0X_read_multi16, %function
 627              	VL53L0X_read_multi16:
 628              	.LFB48:
 274:tof_coms.c    **** 
 275:tof_coms.c    **** int32_t VL53L0X_read_multi16(uint8_t address, uint16_t index, uint8_t *pdata, int32_t count)
ARM GAS  C:\Users\Rajesh\AppData\Local\Temp\ccPtdt9Z.s 			page 17


 276:tof_coms.c    **** {
 629              		.loc 1 276 0
 630              		.cfi_startproc
 631              		@ args = 0, pretend = 0, frame = 0
 632              		@ frame_needed = 0, uses_anonymous_args = 0
 633              	.LVL83:
 634 0000 F8B5     		push	{r3, r4, r5, r6, r7, lr}
 635              		.cfi_def_cfa_offset 24
 636              		.cfi_offset 3, -24
 637              		.cfi_offset 4, -20
 638              		.cfi_offset 5, -16
 639              		.cfi_offset 6, -12
 640              		.cfi_offset 7, -8
 641              		.cfi_offset 14, -4
 642 0002 0600     		movs	r6, r0
 643 0004 0D00     		movs	r5, r1
 644 0006 1400     		movs	r4, r2
 645 0008 1F00     		movs	r7, r3
 646              	.LVL84:
 277:tof_coms.c    ****     int32_t status = STATUS_OK;
 278:tof_coms.c    ****     unsigned int retries = 3;
 279:tof_coms.c    ****     int c,r;
 280:tof_coms.c    ****     DWORD dwWaitResult;
 281:tof_coms.c    ****         r=I2C_LED_I2CMasterSendStart(address,0);
 647              		.loc 1 281 0
 648 000a 0021     		movs	r1, #0
 649              	.LVL85:
 650 000c FFF7FEFF 		bl	I2C_LED_I2CMasterSendStart
 651              	.LVL86:
 282:tof_coms.c    ****     if(r!=0)
 652              		.loc 1 282 0
 653 0010 0028     		cmp	r0, #0
 654 0012 19D1     		bne	.L32
 283:tof_coms.c    ****         return 1;
 284:tof_coms.c    ****     
 285:tof_coms.c    ****     I2C_LED_I2CMasterWriteByte(index>>8);
 655              		.loc 1 285 0
 656 0014 280A     		lsrs	r0, r5, #8
 657              	.LVL87:
 658 0016 FFF7FEFF 		bl	I2C_LED_I2CMasterWriteByte
 659              	.LVL88:
 286:tof_coms.c    ****         I2C_LED_I2CMasterWriteByte(index&0xff);
 660              		.loc 1 286 0
 661 001a FF20     		movs	r0, #255
 662 001c 2840     		ands	r0, r5
 663 001e FFF7FEFF 		bl	I2C_LED_I2CMasterWriteByte
 664              	.LVL89:
 287:tof_coms.c    ****     I2C_LED_I2CMasterSendRestart(address,1);
 665              		.loc 1 287 0
 666 0022 0121     		movs	r1, #1
 667 0024 3000     		movs	r0, r6
 668 0026 FFF7FEFF 		bl	I2C_LED_I2CMasterSendRestart
 669              	.LVL90:
 288:tof_coms.c    ****     for (c=0;c<count;c++)
 670              		.loc 1 288 0
 671 002a 0025     		movs	r5, #0
 672 002c 06E0     		b	.L30
ARM GAS  C:\Users\Rajesh\AppData\Local\Temp\ccPtdt9Z.s 			page 18


 673              	.LVL91:
 674              	.L31:
 289:tof_coms.c    ****           *pdata++=I2C_LED_I2CMasterReadByte( I2C_LED_I2C_ACK_DATA);
 675              		.loc 1 289 0 discriminator 3
 676 002e 661C     		adds	r6, r4, #1
 677              	.LVL92:
 678 0030 0020     		movs	r0, #0
 679 0032 FFF7FEFF 		bl	I2C_LED_I2CMasterReadByte
 680              	.LVL93:
 681 0036 2070     		strb	r0, [r4]
 288:tof_coms.c    ****     for (c=0;c<count;c++)
 682              		.loc 1 288 0 discriminator 3
 683 0038 0135     		adds	r5, r5, #1
 684              	.LVL94:
 685              		.loc 1 289 0 discriminator 3
 686 003a 3400     		movs	r4, r6
 687              	.LVL95:
 688              	.L30:
 288:tof_coms.c    ****     for (c=0;c<count;c++)
 689              		.loc 1 288 0 discriminator 1
 690 003c BD42     		cmp	r5, r7
 691 003e F6DB     		blt	.L31
 290:tof_coms.c    ****     
 291:tof_coms.c    ****     I2C_LED_I2CMasterSendStop();
 692              		.loc 1 291 0
 693 0040 FFF7FEFF 		bl	I2C_LED_I2CMasterSendStop
 694              	.LVL96:
 292:tof_coms.c    **** /*
 293:tof_coms.c    ****     I2C_start(TOF_BASE,address,0);
 294:tof_coms.c    ****     	I2C_write(TOF_BASE,index>>8,0);  // upper 16 bits
 295:tof_coms.c    ****     	I2C_write(TOF_BASE,index&0xff,0);  // upper 16 bits
 296:tof_coms.c    ****     	I2C_start(TOF_BASE,address,1);
 297:tof_coms.c    ****     	 for (c=0;c<count;c++)
 298:tof_coms.c    ****     	     *pdata++=I2C_read(TOF_BASE,c==count-1?1:0);
 299:tof_coms.c    ****         return STATUS_OK;
 300:tof_coms.c    ****     */
 301:tof_coms.c    ****     return STATUS_OK;
 695              		.loc 1 301 0
 696 0044 0020     		movs	r0, #0
 697 0046 00E0     		b	.L29
 698              	.LVL97:
 699              	.L32:
 283:tof_coms.c    ****     
 700              		.loc 1 283 0
 701 0048 0120     		movs	r0, #1
 702              	.LVL98:
 703              	.L29:
 302:tof_coms.c    **** 
 303:tof_coms.c    **** 
 304:tof_coms.c    **** }
 704              		.loc 1 304 0
 705              		@ sp needed
 706              	.LVL99:
 707              	.LVL100:
 708 004a F8BD     		pop	{r3, r4, r5, r6, r7, pc}
 709              		.cfi_endproc
 710              	.LFE48:
ARM GAS  C:\Users\Rajesh\AppData\Local\Temp\ccPtdt9Z.s 			page 19


 711              		.size	VL53L0X_read_multi16, .-VL53L0X_read_multi16
 712              		.section	.text.VL53L0X_write_byte16,"ax",%progbits
 713              		.align	2
 714              		.global	VL53L0X_write_byte16
 715              		.code	16
 716              		.thumb_func
 717              		.type	VL53L0X_write_byte16, %function
 718              	VL53L0X_write_byte16:
 719              	.LFB49:
 305:tof_coms.c    **** 
 306:tof_coms.c    **** 
 307:tof_coms.c    **** 
 308:tof_coms.c    **** int32_t VL53L0X_write_byte16(uint8_t address, uint16_t index, uint8_t data)
 309:tof_coms.c    **** {
 720              		.loc 1 309 0
 721              		.cfi_startproc
 722              		@ args = 0, pretend = 0, frame = 8
 723              		@ frame_needed = 0, uses_anonymous_args = 0
 724              	.LVL101:
 725 0000 00B5     		push	{lr}
 726              		.cfi_def_cfa_offset 4
 727              		.cfi_offset 14, -4
 728 0002 83B0     		sub	sp, sp, #12
 729              		.cfi_def_cfa_offset 16
 730 0004 1300     		movs	r3, r2
 731 0006 6A46     		mov	r2, sp
 732              	.LVL102:
 733 0008 0732     		adds	r2, r2, #7
 734 000a 1370     		strb	r3, [r2]
 735              	.LVL103:
 310:tof_coms.c    ****     int32_t status = STATUS_OK;
 311:tof_coms.c    ****     const int32_t cbyte_count = 1;
 312:tof_coms.c    **** 
 313:tof_coms.c    **** #ifdef VL53L0X_LOG_ENABLE
 314:tof_coms.c    ****     trace_print(TRACE_LEVEL_INFO,"Write reg : 0x%02X, Val : 0x%02X\n", index, data);
 315:tof_coms.c    **** #endif
 316:tof_coms.c    **** 
 317:tof_coms.c    ****     status = VL53L0X_write_multi16(address, index, &data, cbyte_count);
 736              		.loc 1 317 0
 737 000c 0123     		movs	r3, #1
 738 000e FFF7FEFF 		bl	VL53L0X_write_multi16
 739              	.LVL104:
 318:tof_coms.c    **** 
 319:tof_coms.c    ****     return status;
 320:tof_coms.c    **** 
 321:tof_coms.c    **** }
 740              		.loc 1 321 0
 741 0012 03B0     		add	sp, sp, #12
 742              		@ sp needed
 743 0014 00BD     		pop	{pc}
 744              		.cfi_endproc
 745              	.LFE49:
 746              		.size	VL53L0X_write_byte16, .-VL53L0X_write_byte16
 747 0016 C046     		.section	.text.VL53L0X_write_word16,"ax",%progbits
 748              		.align	2
 749              		.global	VL53L0X_write_word16
 750              		.code	16
ARM GAS  C:\Users\Rajesh\AppData\Local\Temp\ccPtdt9Z.s 			page 20


 751              		.thumb_func
 752              		.type	VL53L0X_write_word16, %function
 753              	VL53L0X_write_word16:
 754              	.LFB50:
 322:tof_coms.c    **** 
 323:tof_coms.c    **** 
 324:tof_coms.c    **** int32_t VL53L0X_write_word16(uint8_t address, uint16_t index, uint16_t data)
 325:tof_coms.c    **** {
 755              		.loc 1 325 0
 756              		.cfi_startproc
 757              		@ args = 0, pretend = 0, frame = 8
 758              		@ frame_needed = 0, uses_anonymous_args = 0
 759              	.LVL105:
 760 0000 30B5     		push	{r4, r5, lr}
 761              		.cfi_def_cfa_offset 12
 762              		.cfi_offset 4, -12
 763              		.cfi_offset 5, -8
 764              		.cfi_offset 14, -4
 765 0002 83B0     		sub	sp, sp, #12
 766              		.cfi_def_cfa_offset 24
 767 0004 0500     		movs	r5, r0
 768 0006 0C00     		movs	r4, r1
 769              	.LVL106:
 326:tof_coms.c    ****     int32_t status = STATUS_OK;
 327:tof_coms.c    **** 
 328:tof_coms.c    ****     uint8_t  buffer[BYTES_PER_WORD];
 329:tof_coms.c    **** 
 330:tof_coms.c    ****     // Split 16-bit word into MS and LS uint8_t
 331:tof_coms.c    ****     buffer[0] = (uint8_t)(data >> 8);
 770              		.loc 1 331 0
 771 0008 110A     		lsrs	r1, r2, #8
 772              	.LVL107:
 773 000a 01AB     		add	r3, sp, #4
 774 000c 1970     		strb	r1, [r3]
 332:tof_coms.c    ****     buffer[1] = (uint8_t)(data &  0x00FF);
 775              		.loc 1 332 0
 776 000e 5A70     		strb	r2, [r3, #1]
 333:tof_coms.c    **** 
 334:tof_coms.c    ****     if(index%2 == 1)
 777              		.loc 1 334 0
 778 0010 E307     		lsls	r3, r4, #31
 779 0012 0DD5     		bpl	.L35
 335:tof_coms.c    ****     {
 336:tof_coms.c    ****         status = VL53L0X_write_multi16(address, index, &buffer[0], 1);
 780              		.loc 1 336 0
 781 0014 0123     		movs	r3, #1
 782 0016 01AA     		add	r2, sp, #4
 783              	.LVL108:
 784 0018 2100     		movs	r1, r4
 785 001a FFF7FEFF 		bl	VL53L0X_write_multi16
 786              	.LVL109:
 337:tof_coms.c    ****         status = VL53L0X_write_multi16(address, index + 1, &buffer[1], 1);
 787              		.loc 1 337 0
 788 001e 0134     		adds	r4, r4, #1
 789 0020 A1B2     		uxth	r1, r4
 790 0022 0123     		movs	r3, #1
 791 0024 6A46     		mov	r2, sp
ARM GAS  C:\Users\Rajesh\AppData\Local\Temp\ccPtdt9Z.s 			page 21


 792 0026 0532     		adds	r2, r2, #5
 793 0028 2800     		movs	r0, r5
 794 002a FFF7FEFF 		bl	VL53L0X_write_multi16
 795              	.LVL110:
 796 002e 04E0     		b	.L36
 797              	.LVL111:
 798              	.L35:
 338:tof_coms.c    ****         // serial comms cannot handle word writes to non 2-byte aligned registers.
 339:tof_coms.c    ****     }
 340:tof_coms.c    ****     else
 341:tof_coms.c    ****     {
 342:tof_coms.c    ****         status = VL53L0X_write_multi16(address, index, buffer, BYTES_PER_WORD);
 799              		.loc 1 342 0
 800 0030 0223     		movs	r3, #2
 801 0032 01AA     		add	r2, sp, #4
 802              	.LVL112:
 803 0034 2100     		movs	r1, r4
 804 0036 FFF7FEFF 		bl	VL53L0X_write_multi16
 805              	.LVL113:
 806              	.L36:
 343:tof_coms.c    ****     }
 344:tof_coms.c    **** 
 345:tof_coms.c    ****     return status;
 346:tof_coms.c    **** 
 347:tof_coms.c    **** }
 807              		.loc 1 347 0
 808 003a 03B0     		add	sp, sp, #12
 809              		@ sp needed
 810 003c 30BD     		pop	{r4, r5, pc}
 811              		.cfi_endproc
 812              	.LFE50:
 813              		.size	VL53L0X_write_word16, .-VL53L0X_write_word16
 814 003e C046     		.section	.text.VL53L0X_write_dword16,"ax",%progbits
 815              		.align	2
 816              		.global	VL53L0X_write_dword16
 817              		.code	16
 818              		.thumb_func
 819              		.type	VL53L0X_write_dword16, %function
 820              	VL53L0X_write_dword16:
 821              	.LFB51:
 348:tof_coms.c    **** 
 349:tof_coms.c    **** 
 350:tof_coms.c    **** int32_t VL53L0X_write_dword16(uint8_t address, uint16_t index, uint32_t data)
 351:tof_coms.c    **** {
 822              		.loc 1 351 0
 823              		.cfi_startproc
 824              		@ args = 0, pretend = 0, frame = 8
 825              		@ frame_needed = 0, uses_anonymous_args = 0
 826              	.LVL114:
 827 0000 30B5     		push	{r4, r5, lr}
 828              		.cfi_def_cfa_offset 12
 829              		.cfi_offset 4, -12
 830              		.cfi_offset 5, -8
 831              		.cfi_offset 14, -4
 832 0002 83B0     		sub	sp, sp, #12
 833              		.cfi_def_cfa_offset 24
 834              	.LVL115:
ARM GAS  C:\Users\Rajesh\AppData\Local\Temp\ccPtdt9Z.s 			page 22


 352:tof_coms.c    ****     int32_t status = STATUS_OK;
 353:tof_coms.c    ****     uint8_t  buffer[BYTES_PER_DWORD];
 354:tof_coms.c    **** 
 355:tof_coms.c    ****     // Split 32-bit word into MS ... LS bytes
 356:tof_coms.c    ****     buffer[0] = (uint8_t) (data >> 24);
 835              		.loc 1 356 0
 836 0004 130E     		lsrs	r3, r2, #24
 837 0006 01AC     		add	r4, sp, #4
 838 0008 2370     		strb	r3, [r4]
 357:tof_coms.c    ****     buffer[1] = (uint8_t)((data &  0x00FF0000) > 16);
 839              		.loc 1 357 0
 840 000a FF23     		movs	r3, #255
 841 000c 1B04     		lsls	r3, r3, #16
 842 000e 1340     		ands	r3, r2
 843 0010 1025     		movs	r5, #16
 844 0012 9D42     		cmp	r5, r3
 845 0014 9B41     		sbcs	r3, r3, r3
 846 0016 5B42     		rsbs	r3, r3, #0
 847 0018 6370     		strb	r3, [r4, #1]
 358:tof_coms.c    ****     buffer[2] = (uint8_t)((data &  0x0000FF00) > 8);
 848              		.loc 1 358 0
 849 001a FF23     		movs	r3, #255
 850 001c 1B02     		lsls	r3, r3, #8
 851 001e 1340     		ands	r3, r2
 852 0020 083D     		subs	r5, r5, #8
 853 0022 9D42     		cmp	r5, r3
 854 0024 9B41     		sbcs	r3, r3, r3
 855 0026 5B42     		rsbs	r3, r3, #0
 856 0028 A370     		strb	r3, [r4, #2]
 359:tof_coms.c    ****     buffer[3] = (uint8_t) (data &  0x000000FF);
 857              		.loc 1 359 0
 858 002a E270     		strb	r2, [r4, #3]
 360:tof_coms.c    **** 
 361:tof_coms.c    ****     status = VL53L0X_write_multi16(address, index, buffer, BYTES_PER_DWORD);
 859              		.loc 1 361 0
 860 002c 0423     		movs	r3, #4
 861 002e 2200     		movs	r2, r4
 862              	.LVL116:
 863 0030 FFF7FEFF 		bl	VL53L0X_write_multi16
 864              	.LVL117:
 362:tof_coms.c    **** 
 363:tof_coms.c    ****     return status;
 364:tof_coms.c    **** 
 365:tof_coms.c    **** }
 865              		.loc 1 365 0
 866 0034 03B0     		add	sp, sp, #12
 867              		@ sp needed
 868 0036 30BD     		pop	{r4, r5, pc}
 869              		.cfi_endproc
 870              	.LFE51:
 871              		.size	VL53L0X_write_dword16, .-VL53L0X_write_dword16
 872              		.section	.text.VL53L0X_read_byte16,"ax",%progbits
 873              		.align	2
 874              		.global	VL53L0X_read_byte16
 875              		.code	16
 876              		.thumb_func
 877              		.type	VL53L0X_read_byte16, %function
ARM GAS  C:\Users\Rajesh\AppData\Local\Temp\ccPtdt9Z.s 			page 23


 878              	VL53L0X_read_byte16:
 879              	.LFB52:
 366:tof_coms.c    **** 
 367:tof_coms.c    **** 
 368:tof_coms.c    **** int32_t VL53L0X_read_byte16(uint8_t address, uint16_t index, uint8_t *pdata)
 369:tof_coms.c    **** {
 880              		.loc 1 369 0
 881              		.cfi_startproc
 882              		@ args = 0, pretend = 0, frame = 0
 883              		@ frame_needed = 0, uses_anonymous_args = 0
 884              	.LVL118:
 885 0000 10B5     		push	{r4, lr}
 886              		.cfi_def_cfa_offset 8
 887              		.cfi_offset 4, -8
 888              		.cfi_offset 14, -4
 889              	.LVL119:
 370:tof_coms.c    ****     int32_t status = STATUS_OK;
 371:tof_coms.c    ****     int32_t cbyte_count = 1;
 372:tof_coms.c    **** 
 373:tof_coms.c    ****     status = VL53L0X_read_multi16(address, index, pdata, cbyte_count);
 890              		.loc 1 373 0
 891 0002 0123     		movs	r3, #1
 892 0004 FFF7FEFF 		bl	VL53L0X_read_multi16
 893              	.LVL120:
 374:tof_coms.c    **** 
 375:tof_coms.c    **** #ifdef VL53L0X_LOG_ENABLE
 376:tof_coms.c    ****     trace_print(TRACE_LEVEL_INFO,"Read reg : 0x%02X, Val : 0x%02X\n", index, *pdata);
 377:tof_coms.c    **** #endif
 378:tof_coms.c    **** 
 379:tof_coms.c    ****     return status;
 380:tof_coms.c    **** 
 381:tof_coms.c    **** }
 894              		.loc 1 381 0
 895              		@ sp needed
 896 0008 10BD     		pop	{r4, pc}
 897              		.cfi_endproc
 898              	.LFE52:
 899              		.size	VL53L0X_read_byte16, .-VL53L0X_read_byte16
 900 000a C046     		.section	.text.VL53L0X_read_word16,"ax",%progbits
 901              		.align	2
 902              		.global	VL53L0X_read_word16
 903              		.code	16
 904              		.thumb_func
 905              		.type	VL53L0X_read_word16, %function
 906              	VL53L0X_read_word16:
 907              	.LFB53:
 382:tof_coms.c    **** 
 383:tof_coms.c    **** 
 384:tof_coms.c    **** int32_t VL53L0X_read_word16(uint8_t address, uint16_t index, uint16_t *pdata)
 385:tof_coms.c    **** {
 908              		.loc 1 385 0
 909              		.cfi_startproc
 910              		@ args = 0, pretend = 0, frame = 8
 911              		@ frame_needed = 0, uses_anonymous_args = 0
 912              	.LVL121:
 913 0000 30B5     		push	{r4, r5, lr}
 914              		.cfi_def_cfa_offset 12
ARM GAS  C:\Users\Rajesh\AppData\Local\Temp\ccPtdt9Z.s 			page 24


 915              		.cfi_offset 4, -12
 916              		.cfi_offset 5, -8
 917              		.cfi_offset 14, -4
 918 0002 83B0     		sub	sp, sp, #12
 919              		.cfi_def_cfa_offset 24
 920 0004 1500     		movs	r5, r2
 921              	.LVL122:
 386:tof_coms.c    ****     int32_t  status = STATUS_OK;
 387:tof_coms.c    ****     uint8_t  buffer[BYTES_PER_WORD];
 388:tof_coms.c    **** 
 389:tof_coms.c    ****     status = VL53L0X_read_multi16(address, index, buffer, BYTES_PER_WORD);
 922              		.loc 1 389 0
 923 0006 01AC     		add	r4, sp, #4
 924 0008 0223     		movs	r3, #2
 925 000a 2200     		movs	r2, r4
 926              	.LVL123:
 927 000c FFF7FEFF 		bl	VL53L0X_read_multi16
 928              	.LVL124:
 390:tof_coms.c    ****     *pdata = ((uint16_t)buffer[0]<<8) + (uint16_t)buffer[1];
 929              		.loc 1 390 0
 930 0010 2378     		ldrb	r3, [r4]
 931 0012 6278     		ldrb	r2, [r4, #1]
 932 0014 1B02     		lsls	r3, r3, #8
 933 0016 9B18     		adds	r3, r3, r2
 934 0018 2B80     		strh	r3, [r5]
 391:tof_coms.c    **** 
 392:tof_coms.c    ****     return status;
 393:tof_coms.c    **** 
 394:tof_coms.c    **** }
 935              		.loc 1 394 0
 936 001a 03B0     		add	sp, sp, #12
 937              		@ sp needed
 938              	.LVL125:
 939 001c 30BD     		pop	{r4, r5, pc}
 940              		.cfi_endproc
 941              	.LFE53:
 942              		.size	VL53L0X_read_word16, .-VL53L0X_read_word16
 943 001e C046     		.section	.text.VL53L0X_read_dword16,"ax",%progbits
 944              		.align	2
 945              		.global	VL53L0X_read_dword16
 946              		.code	16
 947              		.thumb_func
 948              		.type	VL53L0X_read_dword16, %function
 949              	VL53L0X_read_dword16:
 950              	.LFB54:
 395:tof_coms.c    **** 
 396:tof_coms.c    **** int32_t VL53L0X_read_dword16(uint8_t address, uint16_t index, uint32_t *pdata)
 397:tof_coms.c    **** {
 951              		.loc 1 397 0
 952              		.cfi_startproc
 953              		@ args = 0, pretend = 0, frame = 8
 954              		@ frame_needed = 0, uses_anonymous_args = 0
 955              	.LVL126:
 956 0000 30B5     		push	{r4, r5, lr}
 957              		.cfi_def_cfa_offset 12
 958              		.cfi_offset 4, -12
 959              		.cfi_offset 5, -8
ARM GAS  C:\Users\Rajesh\AppData\Local\Temp\ccPtdt9Z.s 			page 25


 960              		.cfi_offset 14, -4
 961 0002 83B0     		sub	sp, sp, #12
 962              		.cfi_def_cfa_offset 24
 963 0004 1500     		movs	r5, r2
 964              	.LVL127:
 398:tof_coms.c    ****     int32_t status = STATUS_OK;
 399:tof_coms.c    ****     uint8_t  buffer[BYTES_PER_DWORD];
 400:tof_coms.c    **** 
 401:tof_coms.c    ****     status = VL53L0X_read_multi16(address, index, buffer, BYTES_PER_DWORD);
 965              		.loc 1 401 0
 966 0006 01AC     		add	r4, sp, #4
 967 0008 0423     		movs	r3, #4
 968 000a 2200     		movs	r2, r4
 969              	.LVL128:
 970 000c FFF7FEFF 		bl	VL53L0X_read_multi16
 971              	.LVL129:
 402:tof_coms.c    ****     *pdata = ((uint32_t)buffer[0]<<24) + ((uint32_t)buffer[1]<<16) + ((uint32_t)buffer[2]<<8) + (ui
 972              		.loc 1 402 0
 973 0010 2378     		ldrb	r3, [r4]
 974 0012 1A06     		lsls	r2, r3, #24
 975 0014 6378     		ldrb	r3, [r4, #1]
 976 0016 1B04     		lsls	r3, r3, #16
 977 0018 D318     		adds	r3, r2, r3
 978 001a A278     		ldrb	r2, [r4, #2]
 979 001c 1202     		lsls	r2, r2, #8
 980 001e 9B18     		adds	r3, r3, r2
 981 0020 E278     		ldrb	r2, [r4, #3]
 982 0022 9B18     		adds	r3, r3, r2
 983 0024 2B60     		str	r3, [r5]
 403:tof_coms.c    **** 
 404:tof_coms.c    ****     return status;
 405:tof_coms.c    **** 
 406:tof_coms.c    **** }
 984              		.loc 1 406 0
 985 0026 03B0     		add	sp, sp, #12
 986              		@ sp needed
 987              	.LVL130:
 988 0028 30BD     		pop	{r4, r5, pc}
 989              		.cfi_endproc
 990              	.LFE54:
 991              		.size	VL53L0X_read_dword16, .-VL53L0X_read_dword16
 992 002a C046     		.section	.text.VL53L0X_platform_wait_us,"ax",%progbits
 993              		.align	2
 994              		.global	VL53L0X_platform_wait_us
 995              		.code	16
 996              		.thumb_func
 997              		.type	VL53L0X_platform_wait_us, %function
 998              	VL53L0X_platform_wait_us:
 999              	.LFB55:
 407:tof_coms.c    **** 
 408:tof_coms.c    **** 
 409:tof_coms.c    **** 
 410:tof_coms.c    **** 
 411:tof_coms.c    **** int32_t VL53L0X_platform_wait_us(int32_t wait_us)
 412:tof_coms.c    **** {
 1000              		.loc 1 412 0
 1001              		.cfi_startproc
ARM GAS  C:\Users\Rajesh\AppData\Local\Temp\ccPtdt9Z.s 			page 26


 1002              		@ args = 0, pretend = 0, frame = 0
 1003              		@ frame_needed = 0, uses_anonymous_args = 0
 1004              		@ link register save eliminated.
 1005              	.LVL131:
 413:tof_coms.c    ****     int32_t status = STATUS_OK;
 414:tof_coms.c    ****     float wait_ms = (float)wait_us/1000.0f;
 415:tof_coms.c    **** 
 416:tof_coms.c    **** 
 417:tof_coms.c    **** 
 418:tof_coms.c    **** #ifdef VL53L0X_LOG_ENABLE
 419:tof_coms.c    ****     trace_i2c("Wait us : %6d\n", wait_us);
 420:tof_coms.c    **** #endif
 421:tof_coms.c    **** 
 422:tof_coms.c    ****     return status;
 423:tof_coms.c    **** 
 424:tof_coms.c    **** }
 1006              		.loc 1 424 0
 1007 0000 0020     		movs	r0, #0
 1008              	.LVL132:
 1009              		@ sp needed
 1010 0002 7047     		bx	lr
 1011              		.cfi_endproc
 1012              	.LFE55:
 1013              		.size	VL53L0X_platform_wait_us, .-VL53L0X_platform_wait_us
 1014              		.section	.text.VL53L0X_wait_ms,"ax",%progbits
 1015              		.align	2
 1016              		.global	VL53L0X_wait_ms
 1017              		.code	16
 1018              		.thumb_func
 1019              		.type	VL53L0X_wait_ms, %function
 1020              	VL53L0X_wait_ms:
 1021              	.LFB56:
 425:tof_coms.c    **** 
 426:tof_coms.c    **** 
 427:tof_coms.c    **** int32_t VL53L0X_wait_ms(int32_t wait_ms)
 428:tof_coms.c    **** {
 1022              		.loc 1 428 0
 1023              		.cfi_startproc
 1024              		@ args = 0, pretend = 0, frame = 0
 1025              		@ frame_needed = 0, uses_anonymous_args = 0
 1026              		@ link register save eliminated.
 1027              	.LVL133:
 429:tof_coms.c    ****     int32_t status = STATUS_OK;
 430:tof_coms.c    **** 
 431:tof_coms.c    **** 
 432:tof_coms.c    **** 
 433:tof_coms.c    **** #ifdef VL53L0X_LOG_ENABLE
 434:tof_coms.c    ****     trace_i2c("Wait ms : %6d\n", wait_ms);
 435:tof_coms.c    **** #endif
 436:tof_coms.c    **** 
 437:tof_coms.c    ****     return status;
 438:tof_coms.c    **** 
 439:tof_coms.c    **** }
 1028              		.loc 1 439 0
 1029 0000 0020     		movs	r0, #0
 1030              	.LVL134:
 1031              		@ sp needed
ARM GAS  C:\Users\Rajesh\AppData\Local\Temp\ccPtdt9Z.s 			page 27


 1032 0002 7047     		bx	lr
 1033              		.cfi_endproc
 1034              	.LFE56:
 1035              		.size	VL53L0X_wait_ms, .-VL53L0X_wait_ms
 1036              		.section	.text.VL53L0X_set_gpio,"ax",%progbits
 1037              		.align	2
 1038              		.global	VL53L0X_set_gpio
 1039              		.code	16
 1040              		.thumb_func
 1041              		.type	VL53L0X_set_gpio, %function
 1042              	VL53L0X_set_gpio:
 1043              	.LFB57:
 440:tof_coms.c    **** 
 441:tof_coms.c    **** 
 442:tof_coms.c    **** int32_t VL53L0X_set_gpio(uint8_t level)
 443:tof_coms.c    **** {
 1044              		.loc 1 443 0
 1045              		.cfi_startproc
 1046              		@ args = 0, pretend = 0, frame = 0
 1047              		@ frame_needed = 0, uses_anonymous_args = 0
 1048              		@ link register save eliminated.
 1049              	.LVL135:
 444:tof_coms.c    ****     int32_t status = STATUS_OK;
 445:tof_coms.c    ****     //status = VL53L0X_set_gpio_sv(level);
 446:tof_coms.c    **** #ifdef VL53L0X_LOG_ENABLE
 447:tof_coms.c    ****     trace_i2c("// Set GPIO = %d;\n", level);
 448:tof_coms.c    **** #endif
 449:tof_coms.c    ****     return status;
 450:tof_coms.c    **** 
 451:tof_coms.c    **** }
 1050              		.loc 1 451 0
 1051 0000 0020     		movs	r0, #0
 1052              	.LVL136:
 1053              		@ sp needed
 1054 0002 7047     		bx	lr
 1055              		.cfi_endproc
 1056              	.LFE57:
 1057              		.size	VL53L0X_set_gpio, .-VL53L0X_set_gpio
 1058              		.section	.text.VL53L0X_get_gpio,"ax",%progbits
 1059              		.align	2
 1060              		.global	VL53L0X_get_gpio
 1061              		.code	16
 1062              		.thumb_func
 1063              		.type	VL53L0X_get_gpio, %function
 1064              	VL53L0X_get_gpio:
 1065              	.LFB58:
 452:tof_coms.c    **** 
 453:tof_coms.c    **** 
 454:tof_coms.c    **** int32_t VL53L0X_get_gpio(uint8_t *plevel)
 455:tof_coms.c    **** {
 1066              		.loc 1 455 0
 1067              		.cfi_startproc
 1068              		@ args = 0, pretend = 0, frame = 0
 1069              		@ frame_needed = 0, uses_anonymous_args = 0
 1070              		@ link register save eliminated.
 1071              	.LVL137:
 456:tof_coms.c    ****     int32_t status = STATUS_OK;
ARM GAS  C:\Users\Rajesh\AppData\Local\Temp\ccPtdt9Z.s 			page 28


 457:tof_coms.c    **** #ifdef VL53L0X_LOG_ENABLE
 458:tof_coms.c    ****     trace_i2c("// Get GPIO = %d;\n", *plevel);
 459:tof_coms.c    **** #endif
 460:tof_coms.c    ****     return status;
 461:tof_coms.c    **** }
 1072              		.loc 1 461 0
 1073 0000 0020     		movs	r0, #0
 1074              	.LVL138:
 1075              		@ sp needed
 1076 0002 7047     		bx	lr
 1077              		.cfi_endproc
 1078              	.LFE58:
 1079              		.size	VL53L0X_get_gpio, .-VL53L0X_get_gpio
 1080              		.section	.text.VL53L0X_release_gpio,"ax",%progbits
 1081              		.align	2
 1082              		.global	VL53L0X_release_gpio
 1083              		.code	16
 1084              		.thumb_func
 1085              		.type	VL53L0X_release_gpio, %function
 1086              	VL53L0X_release_gpio:
 1087              	.LFB59:
 462:tof_coms.c    **** 
 463:tof_coms.c    **** 
 464:tof_coms.c    **** int32_t VL53L0X_release_gpio(void)
 465:tof_coms.c    **** {
 1088              		.loc 1 465 0
 1089              		.cfi_startproc
 1090              		@ args = 0, pretend = 0, frame = 0
 1091              		@ frame_needed = 0, uses_anonymous_args = 0
 1092              		@ link register save eliminated.
 1093              	.LVL139:
 466:tof_coms.c    ****     int32_t status = STATUS_OK;
 467:tof_coms.c    **** #ifdef VL53L0X_LOG_ENABLE
 468:tof_coms.c    ****     trace_i2c("// Releasing force on GPIO\n");
 469:tof_coms.c    **** #endif
 470:tof_coms.c    ****     return status;
 471:tof_coms.c    **** 
 472:tof_coms.c    **** }
 1094              		.loc 1 472 0
 1095 0000 0020     		movs	r0, #0
 1096              		@ sp needed
 1097 0002 7047     		bx	lr
 1098              		.cfi_endproc
 1099              	.LFE59:
 1100              		.size	VL53L0X_release_gpio, .-VL53L0X_release_gpio
 1101              		.section	.text.VL53L0X_cycle_power,"ax",%progbits
 1102              		.align	2
 1103              		.global	VL53L0X_cycle_power
 1104              		.code	16
 1105              		.thumb_func
 1106              		.type	VL53L0X_cycle_power, %function
 1107              	VL53L0X_cycle_power:
 1108              	.LFB60:
 473:tof_coms.c    **** 
 474:tof_coms.c    **** int32_t VL53L0X_cycle_power(void)
 475:tof_coms.c    **** {
 1109              		.loc 1 475 0
ARM GAS  C:\Users\Rajesh\AppData\Local\Temp\ccPtdt9Z.s 			page 29


 1110              		.cfi_startproc
 1111              		@ args = 0, pretend = 0, frame = 0
 1112              		@ frame_needed = 0, uses_anonymous_args = 0
 1113              		@ link register save eliminated.
 1114              	.LVL140:
 476:tof_coms.c    ****     int32_t status = STATUS_OK;
 477:tof_coms.c    **** #ifdef VL53L0X_LOG_ENABLE
 478:tof_coms.c    ****     trace_i2c("// cycle sensor power\n");
 479:tof_coms.c    **** #endif
 480:tof_coms.c    **** 	return status;
 481:tof_coms.c    **** }
 1115              		.loc 1 481 0
 1116 0000 0020     		movs	r0, #0
 1117              		@ sp needed
 1118 0002 7047     		bx	lr
 1119              		.cfi_endproc
 1120              	.LFE60:
 1121              		.size	VL53L0X_cycle_power, .-VL53L0X_cycle_power
 1122              		.section	.text.VL53L0X_get_timer_frequency,"ax",%progbits
 1123              		.align	2
 1124              		.global	VL53L0X_get_timer_frequency
 1125              		.code	16
 1126              		.thumb_func
 1127              		.type	VL53L0X_get_timer_frequency, %function
 1128              	VL53L0X_get_timer_frequency:
 1129              	.LFB61:
 482:tof_coms.c    **** 
 483:tof_coms.c    **** 
 484:tof_coms.c    **** int32_t VL53L0X_get_timer_frequency(int32_t *ptimer_freq_hz)
 485:tof_coms.c    **** {
 1130              		.loc 1 485 0
 1131              		.cfi_startproc
 1132              		@ args = 0, pretend = 0, frame = 0
 1133              		@ frame_needed = 0, uses_anonymous_args = 0
 1134              		@ link register save eliminated.
 1135              	.LVL141:
 486:tof_coms.c    ****        *ptimer_freq_hz = 0;
 1136              		.loc 1 486 0
 1137 0000 0023     		movs	r3, #0
 1138 0002 0360     		str	r3, [r0]
 487:tof_coms.c    ****        return STATUS_FAIL;
 488:tof_coms.c    **** }
 1139              		.loc 1 488 0
 1140 0004 0120     		movs	r0, #1
 1141              	.LVL142:
 1142              		@ sp needed
 1143 0006 7047     		bx	lr
 1144              		.cfi_endproc
 1145              	.LFE61:
 1146              		.size	VL53L0X_get_timer_frequency, .-VL53L0X_get_timer_frequency
 1147              		.section	.text.VL53L0X_get_timer_value,"ax",%progbits
 1148              		.align	2
 1149              		.global	VL53L0X_get_timer_value
 1150              		.code	16
 1151              		.thumb_func
 1152              		.type	VL53L0X_get_timer_value, %function
 1153              	VL53L0X_get_timer_value:
ARM GAS  C:\Users\Rajesh\AppData\Local\Temp\ccPtdt9Z.s 			page 30


 1154              	.LFB62:
 489:tof_coms.c    **** 
 490:tof_coms.c    **** 
 491:tof_coms.c    **** int32_t VL53L0X_get_timer_value(int32_t *ptimer_count)
 492:tof_coms.c    **** {
 1155              		.loc 1 492 0
 1156              		.cfi_startproc
 1157              		@ args = 0, pretend = 0, frame = 0
 1158              		@ frame_needed = 0, uses_anonymous_args = 0
 1159              		@ link register save eliminated.
 1160              	.LVL143:
 493:tof_coms.c    ****        *ptimer_count = 0;
 1161              		.loc 1 493 0
 1162 0000 0023     		movs	r3, #0
 1163 0002 0360     		str	r3, [r0]
 494:tof_coms.c    ****        return STATUS_FAIL;
 495:tof_coms.c    **** }
 1164              		.loc 1 495 0
 1165 0004 0120     		movs	r0, #1
 1166              	.LVL144:
 1167              		@ sp needed
 1168 0006 7047     		bx	lr
 1169              		.cfi_endproc
 1170              	.LFE62:
 1171              		.size	VL53L0X_get_timer_value, .-VL53L0X_get_timer_value
 1172              		.section	.text.print_pal_error,"ax",%progbits
 1173              		.align	2
 1174              		.global	print_pal_error
 1175              		.code	16
 1176              		.thumb_func
 1177              		.type	print_pal_error, %function
 1178              	print_pal_error:
 1179              	.LFB63:
 496:tof_coms.c    **** 
 497:tof_coms.c    **** 
 498:tof_coms.c    **** /*
 499:tof_coms.c    ****  * tof.c
 500:tof_coms.c    ****  *
 501:tof_coms.c    ****  *  Created on: Mar 16, 2018
 502:tof_coms.c    ****  *      Author: PTG
 503:tof_coms.c    ****  */
 504:tof_coms.c    **** #include "vl53l0x_api.h"
 505:tof_coms.c    **** #include "vl53l0x_platform.h"
 506:tof_coms.c    **** //#include "required_version.h"
 507:tof_coms.c    **** //#include "get_nucleo_serial_comm.h"
 508:tof_coms.c    **** //#include <malloc.h>
 509:tof_coms.c    **** 
 510:tof_coms.c    **** 
 511:tof_coms.c    **** void print_pal_error(VL53L0X_Error Status){
 1180              		.loc 1 511 0
 1181              		.cfi_startproc
 1182              		@ args = 0, pretend = 0, frame = 32
 1183              		@ frame_needed = 0, uses_anonymous_args = 0
 1184              	.LVL145:
 1185 0000 00B5     		push	{lr}
 1186              		.cfi_def_cfa_offset 4
 1187              		.cfi_offset 14, -4
ARM GAS  C:\Users\Rajesh\AppData\Local\Temp\ccPtdt9Z.s 			page 31


 1188 0002 89B0     		sub	sp, sp, #36
 1189              		.cfi_def_cfa_offset 40
 512:tof_coms.c    ****     char buf[VL53L0X_MAX_STRING_LENGTH];
 513:tof_coms.c    ****     VL53L0X_GetPalErrorString(Status, buf);
 1190              		.loc 1 513 0
 1191 0004 6946     		mov	r1, sp
 1192 0006 FFF7FEFF 		bl	VL53L0X_GetPalErrorString
 1193              	.LVL146:
 514:tof_coms.c    ****     printf("API Status: %i : %s\n", Status, buf);
 515:tof_coms.c    **** }
 1194              		.loc 1 515 0
 1195 000a 09B0     		add	sp, sp, #36
 1196              		@ sp needed
 1197 000c 00BD     		pop	{pc}
 1198              		.cfi_endproc
 1199              	.LFE63:
 1200              		.size	print_pal_error, .-print_pal_error
 1201 000e C046     		.section	.text.print_range_status,"ax",%progbits
 1202              		.align	2
 1203              		.global	print_range_status
 1204              		.code	16
 1205              		.thumb_func
 1206              		.type	print_range_status, %function
 1207              	print_range_status:
 1208              	.LFB64:
 516:tof_coms.c    **** 
 517:tof_coms.c    **** void print_range_status(VL53L0X_RangingMeasurementData_t* pRangingMeasurementData){
 1209              		.loc 1 517 0
 1210              		.cfi_startproc
 1211              		@ args = 0, pretend = 0, frame = 32
 1212              		@ frame_needed = 0, uses_anonymous_args = 0
 1213              	.LVL147:
 1214 0000 00B5     		push	{lr}
 1215              		.cfi_def_cfa_offset 4
 1216              		.cfi_offset 14, -4
 1217 0002 89B0     		sub	sp, sp, #36
 1218              		.cfi_def_cfa_offset 40
 518:tof_coms.c    ****     char buf[VL53L0X_MAX_STRING_LENGTH];
 519:tof_coms.c    ****     uint8_t RangeStatus;
 520:tof_coms.c    **** 
 521:tof_coms.c    ****     /*
 522:tof_coms.c    ****      * New Range Status: data is valid when pRangingMeasurementData->RangeStatus = 0
 523:tof_coms.c    ****      */
 524:tof_coms.c    **** 
 525:tof_coms.c    ****     RangeStatus = pRangingMeasurementData->RangeStatus;
 1219              		.loc 1 525 0
 1220 0004 007E     		ldrb	r0, [r0, #24]
 1221              	.LVL148:
 526:tof_coms.c    **** 
 527:tof_coms.c    ****     VL53L0X_GetRangeStatusString(RangeStatus, buf);
 1222              		.loc 1 527 0
 1223 0006 6946     		mov	r1, sp
 1224 0008 FFF7FEFF 		bl	VL53L0X_GetRangeStatusString
 1225              	.LVL149:
 528:tof_coms.c    ****     printf("Range Status: %i : %s\n", RangeStatus, buf);
 529:tof_coms.c    **** 
 530:tof_coms.c    **** }
ARM GAS  C:\Users\Rajesh\AppData\Local\Temp\ccPtdt9Z.s 			page 32


 1226              		.loc 1 530 0
 1227 000c 09B0     		add	sp, sp, #36
 1228              		@ sp needed
 1229 000e 00BD     		pop	{pc}
 1230              		.cfi_endproc
 1231              	.LFE64:
 1232              		.size	print_range_status, .-print_range_status
 1233              		.section	.text.rangingTest,"ax",%progbits
 1234              		.align	2
 1235              		.global	rangingTest
 1236              		.code	16
 1237              		.thumb_func
 1238              		.type	rangingTest, %function
 1239              	rangingTest:
 1240              	.LFB65:
 531:tof_coms.c    **** 
 532:tof_coms.c    **** 
 533:tof_coms.c    **** VL53L0X_Error rangingTest(VL53L0X_Dev_t *pMyDevice)
 534:tof_coms.c    **** {
 1241              		.loc 1 534 0
 1242              		.cfi_startproc
 1243              		@ args = 0, pretend = 0, frame = 40
 1244              		@ frame_needed = 0, uses_anonymous_args = 0
 1245              	.LVL150:
 1246 0000 70B5     		push	{r4, r5, r6, lr}
 1247              		.cfi_def_cfa_offset 16
 1248              		.cfi_offset 4, -16
 1249              		.cfi_offset 5, -12
 1250              		.cfi_offset 6, -8
 1251              		.cfi_offset 14, -4
 1252 0002 8AB0     		sub	sp, sp, #40
 1253              		.cfi_def_cfa_offset 56
 1254 0004 0500     		movs	r5, r0
 1255              	.LVL151:
 535:tof_coms.c    ****     VL53L0X_Error Status = VL53L0X_ERROR_NONE;
 536:tof_coms.c    ****     VL53L0X_RangingMeasurementData_t    RangingMeasurementData;
 537:tof_coms.c    ****     int i;
 538:tof_coms.c    ****     FixPoint1616_t LimitCheckCurrent;
 539:tof_coms.c    ****     uint32_t refSpadCount;
 540:tof_coms.c    ****     uint8_t isApertureSpads;
 541:tof_coms.c    ****     uint8_t VhvSettings;
 542:tof_coms.c    ****     uint8_t PhaseCal;
 543:tof_coms.c    **** 
 544:tof_coms.c    ****     if(Status == VL53L0X_ERROR_NONE)
 545:tof_coms.c    ****     {
 546:tof_coms.c    ****         printf ("Call of VL53L0X_StaticInit\n");
 547:tof_coms.c    ****         Status = VL53L0X_StaticInit(pMyDevice); // Device Initialization
 1256              		.loc 1 547 0
 1257 0006 FFF7FEFF 		bl	VL53L0X_StaticInit
 1258              	.LVL152:
 1259 000a 0400     		movs	r4, r0
 1260              	.LVL153:
 548:tof_coms.c    ****         print_pal_error(Status);
 1261              		.loc 1 548 0
 1262 000c FFF7FEFF 		bl	print_pal_error
 1263              	.LVL154:
 549:tof_coms.c    ****     }
ARM GAS  C:\Users\Rajesh\AppData\Local\Temp\ccPtdt9Z.s 			page 33


 550:tof_coms.c    **** 
 551:tof_coms.c    ****     if(Status == VL53L0X_ERROR_NONE)
 1264              		.loc 1 551 0
 1265 0010 002C     		cmp	r4, #0
 1266 0012 08D1     		bne	.L52
 552:tof_coms.c    ****     {
 553:tof_coms.c    ****         printf ("Call of VL53L0X_PerformRefCalibration\n");
 554:tof_coms.c    ****         Status = VL53L0X_PerformRefCalibration(pMyDevice,
 1267              		.loc 1 554 0
 1268 0014 6B46     		mov	r3, sp
 1269 0016 5A1C     		adds	r2, r3, #1
 1270 0018 991C     		adds	r1, r3, #2
 1271 001a 2800     		movs	r0, r5
 1272 001c FFF7FEFF 		bl	VL53L0X_PerformRefCalibration
 1273              	.LVL155:
 1274 0020 0400     		movs	r4, r0
 1275              	.LVL156:
 555:tof_coms.c    ****         		&VhvSettings, &PhaseCal); // Device Initialization
 556:tof_coms.c    ****         print_pal_error(Status);
 1276              		.loc 1 556 0
 1277 0022 FFF7FEFF 		bl	print_pal_error
 1278              	.LVL157:
 1279              	.L52:
 557:tof_coms.c    ****     }
 558:tof_coms.c    **** 
 559:tof_coms.c    ****     if(Status == VL53L0X_ERROR_NONE)
 1280              		.loc 1 559 0
 1281 0026 002C     		cmp	r4, #0
 1282 0028 08D1     		bne	.L53
 560:tof_coms.c    ****     {
 561:tof_coms.c    ****         printf ("Call of VL53L0X_PerformRefSpadManagement\n");
 562:tof_coms.c    ****         Status = VL53L0X_PerformRefSpadManagement(pMyDevice,
 1283              		.loc 1 562 0
 1284 002a 6B46     		mov	r3, sp
 1285 002c DA1C     		adds	r2, r3, #3
 1286 002e 01A9     		add	r1, sp, #4
 1287 0030 2800     		movs	r0, r5
 1288 0032 FFF7FEFF 		bl	VL53L0X_PerformRefSpadManagement
 1289              	.LVL158:
 1290 0036 0400     		movs	r4, r0
 1291              	.LVL159:
 563:tof_coms.c    ****         		&refSpadCount, &isApertureSpads); // Device Initialization
 564:tof_coms.c    ****         printf ("refSpadCount = %d, isApertureSpads = %d\n", refSpadCount, isApertureSpads);
 565:tof_coms.c    ****         print_pal_error(Status);
 1292              		.loc 1 565 0
 1293 0038 FFF7FEFF 		bl	print_pal_error
 1294              	.LVL160:
 1295              	.L53:
 566:tof_coms.c    ****     }
 567:tof_coms.c    **** 
 568:tof_coms.c    ****     if(Status == VL53L0X_ERROR_NONE)
 1296              		.loc 1 568 0
 1297 003c 002C     		cmp	r4, #0
 1298 003e 06D1     		bne	.L54
 569:tof_coms.c    ****     {
 570:tof_coms.c    **** 
 571:tof_coms.c    ****         // no need to do this when we use VL53L0X_PerformSingleRangingMeasurement
ARM GAS  C:\Users\Rajesh\AppData\Local\Temp\ccPtdt9Z.s 			page 34


 572:tof_coms.c    ****         printf ("Call of VL53L0X_SetDeviceMode\n");
 573:tof_coms.c    ****         Status = VL53L0X_SetDeviceMode(pMyDevice, VL53L0X_DEVICEMODE_SINGLE_RANGING); // Setup in s
 1299              		.loc 1 573 0
 1300 0040 0021     		movs	r1, #0
 1301 0042 2800     		movs	r0, r5
 1302 0044 FFF7FEFF 		bl	VL53L0X_SetDeviceMode
 1303              	.LVL161:
 1304 0048 0400     		movs	r4, r0
 1305              	.LVL162:
 574:tof_coms.c    ****         print_pal_error(Status);
 1306              		.loc 1 574 0
 1307 004a FFF7FEFF 		bl	print_pal_error
 1308              	.LVL163:
 1309              	.L54:
 575:tof_coms.c    ****     }
 576:tof_coms.c    **** 
 577:tof_coms.c    **** 
 578:tof_coms.c    **** //#define LONGRANGE
 579:tof_coms.c    **** #ifdef LONGRANGE
 580:tof_coms.c    ****     if (Status == VL53L0X_ERROR_NONE) {
 581:tof_coms.c    ****           Status = VL53L0X_SetLimitCheckEnable(pMyDevice,
 582:tof_coms.c    ****           		VL53L0X_CHECKENABLE_SIGMA_FINAL_RANGE, 1);
 583:tof_coms.c    ****       }
 584:tof_coms.c    ****       if (Status == VL53L0X_ERROR_NONE) {
 585:tof_coms.c    ****           Status = VL53L0X_SetLimitCheckEnable(pMyDevice,
 586:tof_coms.c    ****           		VL53L0X_CHECKENABLE_SIGNAL_RATE_FINAL_RANGE, 1);
 587:tof_coms.c    ****       }
 588:tof_coms.c    **** 
 589:tof_coms.c    ****       if (Status == VL53L0X_ERROR_NONE) {
 590:tof_coms.c    ****           Status = VL53L0X_SetLimitCheckValue(pMyDevice,
 591:tof_coms.c    ****           		VL53L0X_CHECKENABLE_SIGNAL_RATE_FINAL_RANGE,
 592:tof_coms.c    ****           		(FixPoint1616_t)(0.1*65536));
 593:tof_coms.c    ****   	}
 594:tof_coms.c    ****       if (Status == VL53L0X_ERROR_NONE) {
 595:tof_coms.c    ****           Status = VL53L0X_SetLimitCheckValue(pMyDevice,
 596:tof_coms.c    ****           		VL53L0X_CHECKENABLE_SIGMA_FINAL_RANGE,
 597:tof_coms.c    ****           		(FixPoint1616_t)(60*65536));
 598:tof_coms.c    ****       }
 599:tof_coms.c    ****       if (Status == VL53L0X_ERROR_NONE) {
 600:tof_coms.c    ****           Status = VL53L0X_SetMeasurementTimingBudgetMicroSeconds(pMyDevice,
 601:tof_coms.c    ****           		33000);
 602:tof_coms.c    ****   	}
 603:tof_coms.c    **** 
 604:tof_coms.c    ****       if (Status == VL53L0X_ERROR_NONE) {
 605:tof_coms.c    ****           Status = VL53L0X_SetVcselPulsePeriod(pMyDevice,
 606:tof_coms.c    ****   		        VL53L0X_VCSEL_PERIOD_PRE_RANGE, 18);
 607:tof_coms.c    ****       }
 608:tof_coms.c    ****       if (Status == VL53L0X_ERROR_NONE) {
 609:tof_coms.c    ****           Status = VL53L0X_SetVcselPulsePeriod(pMyDevice,
 610:tof_coms.c    ****   		        VL53L0X_VCSEL_PERIOD_FINAL_RANGE, 14);
 611:tof_coms.c    ****       }
 612:tof_coms.c    **** 
 613:tof_coms.c    **** 
 614:tof_coms.c    **** 
 615:tof_coms.c    **** 
 616:tof_coms.c    **** 
 617:tof_coms.c    **** #else
ARM GAS  C:\Users\Rajesh\AppData\Local\Temp\ccPtdt9Z.s 			page 35


 618:tof_coms.c    **** 
 619:tof_coms.c    ****     // Enable/Disable Sigma and Signal check
 620:tof_coms.c    ****     if (Status == VL53L0X_ERROR_NONE) {
 1310              		.loc 1 620 0
 1311 004e 002C     		cmp	r4, #0
 1312 0050 05D1     		bne	.L55
 621:tof_coms.c    ****         Status = VL53L0X_SetLimitCheckEnable(pMyDevice,
 1313              		.loc 1 621 0
 1314 0052 0122     		movs	r2, #1
 1315 0054 0021     		movs	r1, #0
 1316 0056 2800     		movs	r0, r5
 1317 0058 FFF7FEFF 		bl	VL53L0X_SetLimitCheckEnable
 1318              	.LVL164:
 1319 005c 0400     		movs	r4, r0
 1320              	.LVL165:
 1321              	.L55:
 622:tof_coms.c    ****         		VL53L0X_CHECKENABLE_SIGMA_FINAL_RANGE, 1);
 623:tof_coms.c    ****     }
 624:tof_coms.c    ****     if (Status == VL53L0X_ERROR_NONE) {
 1322              		.loc 1 624 0
 1323 005e 002C     		cmp	r4, #0
 1324 0060 05D1     		bne	.L56
 625:tof_coms.c    ****         Status = VL53L0X_SetLimitCheckEnable(pMyDevice,
 1325              		.loc 1 625 0
 1326 0062 0122     		movs	r2, #1
 1327 0064 0121     		movs	r1, #1
 1328 0066 2800     		movs	r0, r5
 1329 0068 FFF7FEFF 		bl	VL53L0X_SetLimitCheckEnable
 1330              	.LVL166:
 1331 006c 0400     		movs	r4, r0
 1332              	.LVL167:
 1333              	.L56:
 626:tof_coms.c    ****         		VL53L0X_CHECKENABLE_SIGNAL_RATE_FINAL_RANGE, 1);
 627:tof_coms.c    ****     }
 628:tof_coms.c    **** 
 629:tof_coms.c    ****     if (Status == VL53L0X_ERROR_NONE) {
 1334              		.loc 1 629 0
 1335 006e 002C     		cmp	r4, #0
 1336 0070 05D1     		bne	.L57
 630:tof_coms.c    ****         Status = VL53L0X_SetLimitCheckEnable(pMyDevice,
 1337              		.loc 1 630 0
 1338 0072 0122     		movs	r2, #1
 1339 0074 0321     		movs	r1, #3
 1340 0076 2800     		movs	r0, r5
 1341 0078 FFF7FEFF 		bl	VL53L0X_SetLimitCheckEnable
 1342              	.LVL168:
 1343 007c 0400     		movs	r4, r0
 1344              	.LVL169:
 1345              	.L57:
 631:tof_coms.c    ****         		VL53L0X_CHECKENABLE_RANGE_IGNORE_THRESHOLD, 1);
 632:tof_coms.c    ****     }
 633:tof_coms.c    **** 
 634:tof_coms.c    ****     if (Status == VL53L0X_ERROR_NONE) {
 1346              		.loc 1 634 0
 1347 007e 002C     		cmp	r4, #0
 1348 0080 05D1     		bne	.L58
 635:tof_coms.c    ****         Status = VL53L0X_SetLimitCheckValue(pMyDevice,
ARM GAS  C:\Users\Rajesh\AppData\Local\Temp\ccPtdt9Z.s 			page 36


 1349              		.loc 1 635 0
 1350 0082 114A     		ldr	r2, .L63
 1351 0084 0321     		movs	r1, #3
 1352 0086 2800     		movs	r0, r5
 1353 0088 FFF7FEFF 		bl	VL53L0X_SetLimitCheckValue
 1354              	.LVL170:
 1355 008c 0400     		movs	r4, r0
 1356              	.LVL171:
 1357              	.L58:
 636:tof_coms.c    ****         		VL53L0X_CHECKENABLE_RANGE_IGNORE_THRESHOLD,
 637:tof_coms.c    ****         		(FixPoint1616_t)(1.5*0.023*65536));
 638:tof_coms.c    ****     }
 639:tof_coms.c    **** #endif
 640:tof_coms.c    **** 
 641:tof_coms.c    ****     /*
 642:tof_coms.c    ****      *  Step  4 : Test ranging mode
 643:tof_coms.c    ****      */
 644:tof_coms.c    **** 
 645:tof_coms.c    ****     if(Status == VL53L0X_ERROR_NONE)
 1358              		.loc 1 645 0
 1359 008e 002C     		cmp	r4, #0
 1360 0090 13D0     		beq	.L62
 1361 0092 15E0     		b	.L60
 1362              	.LVL172:
 1363              	.L61:
 646:tof_coms.c    ****     {
 647:tof_coms.c    ****         for(i=0;i<10;i++){
 648:tof_coms.c    ****             printf ("Call of VL53L0X_PerformSingleRangingMeasurement\n");
 649:tof_coms.c    ****             Status = VL53L0X_PerformSingleRangingMeasurement(pMyDevice,
 1364              		.loc 1 649 0
 1365 0094 03A9     		add	r1, sp, #12
 1366 0096 2800     		movs	r0, r5
 1367 0098 FFF7FEFF 		bl	VL53L0X_PerformSingleRangingMeasurement
 1368              	.LVL173:
 1369 009c 0400     		movs	r4, r0
 1370              	.LVL174:
 650:tof_coms.c    ****             		&RangingMeasurementData);
 651:tof_coms.c    **** 
 652:tof_coms.c    ****             print_pal_error(Status);
 1371              		.loc 1 652 0
 1372 009e FFF7FEFF 		bl	print_pal_error
 1373              	.LVL175:
 653:tof_coms.c    ****             print_range_status(&RangingMeasurementData);
 1374              		.loc 1 653 0
 1375 00a2 03A8     		add	r0, sp, #12
 1376 00a4 FFF7FEFF 		bl	print_range_status
 1377              	.LVL176:
 654:tof_coms.c    **** 
 655:tof_coms.c    ****             VL53L0X_GetLimitCheckCurrent(pMyDevice,
 1378              		.loc 1 655 0
 1379 00a8 02AA     		add	r2, sp, #8
 1380 00aa 0321     		movs	r1, #3
 1381 00ac 2800     		movs	r0, r5
 1382 00ae FFF7FEFF 		bl	VL53L0X_GetLimitCheckCurrent
 1383              	.LVL177:
 656:tof_coms.c    ****             		VL53L0X_CHECKENABLE_RANGE_IGNORE_THRESHOLD, &LimitCheckCurrent);
 657:tof_coms.c    **** 
ARM GAS  C:\Users\Rajesh\AppData\Local\Temp\ccPtdt9Z.s 			page 37


 658:tof_coms.c    ****             printf("RANGE IGNORE THRESHOLD: %f\n\n", (float)LimitCheckCurrent/65536.0);
 659:tof_coms.c    **** 
 660:tof_coms.c    **** 
 661:tof_coms.c    ****             if (Status != VL53L0X_ERROR_NONE) break;
 1384              		.loc 1 661 0
 1385 00b2 002C     		cmp	r4, #0
 1386 00b4 04D1     		bne	.L60
 647:tof_coms.c    ****             printf ("Call of VL53L0X_PerformSingleRangingMeasurement\n");
 1387              		.loc 1 647 0 discriminator 2
 1388 00b6 0136     		adds	r6, r6, #1
 1389              	.LVL178:
 1390 00b8 00E0     		b	.L59
 1391              	.LVL179:
 1392              	.L62:
 1393 00ba 0026     		movs	r6, #0
 1394              	.LVL180:
 1395              	.L59:
 647:tof_coms.c    ****             printf ("Call of VL53L0X_PerformSingleRangingMeasurement\n");
 1396              		.loc 1 647 0 is_stmt 0 discriminator 1
 1397 00bc 092E     		cmp	r6, #9
 1398 00be E9DD     		ble	.L61
 1399              	.LVL181:
 1400              	.L60:
 662:tof_coms.c    **** 
 663:tof_coms.c    ****             printf("Measured distance: %i\n\n", RangingMeasurementData.RangeMilliMeter);
 664:tof_coms.c    **** 
 665:tof_coms.c    **** 
 666:tof_coms.c    ****         }
 667:tof_coms.c    ****     }
 668:tof_coms.c    ****     return Status;
 669:tof_coms.c    **** }
 1401              		.loc 1 669 0 is_stmt 1
 1402 00c0 2000     		movs	r0, r4
 1403 00c2 0AB0     		add	sp, sp, #40
 1404              		@ sp needed
 1405              	.LVL182:
 1406              	.LVL183:
 1407 00c4 70BD     		pop	{r4, r5, r6, pc}
 1408              	.L64:
 1409 00c6 C046     		.align	2
 1410              	.L63:
 1411 00c8 D4080000 		.word	2260
 1412              		.cfi_endproc
 1413              	.LFE65:
 1414              		.size	rangingTest, .-rangingTest
 1415              		.section	.text.tof_init,"ax",%progbits
 1416              		.align	2
 1417              		.global	tof_init
 1418              		.code	16
 1419              		.thumb_func
 1420              		.type	tof_init, %function
 1421              	tof_init:
 1422              	.LFB66:
 670:tof_coms.c    **** VL53L0X_Dev_t MyDevice;
 671:tof_coms.c    **** VL53L0X_Dev_t *pMyDevice = &MyDevice;
 672:tof_coms.c    **** int tof_init()
 673:tof_coms.c    **** {
ARM GAS  C:\Users\Rajesh\AppData\Local\Temp\ccPtdt9Z.s 			page 38


 1423              		.loc 1 673 0
 1424              		.cfi_startproc
 1425              		@ args = 0, pretend = 0, frame = 112
 1426              		@ frame_needed = 0, uses_anonymous_args = 0
 1427 0000 10B5     		push	{r4, lr}
 1428              		.cfi_def_cfa_offset 8
 1429              		.cfi_offset 4, -8
 1430              		.cfi_offset 14, -4
 1431 0002 9CB0     		sub	sp, sp, #112
 1432              		.cfi_def_cfa_offset 120
 1433              	.LVL184:
 674:tof_coms.c    ****     VL53L0X_Error Status = VL53L0X_ERROR_NONE;
 675:tof_coms.c    **** 
 676:tof_coms.c    ****     VL53L0X_Version_t                   Version;
 677:tof_coms.c    ****     VL53L0X_Version_t                  *pVersion   = &Version;
 678:tof_coms.c    ****     VL53L0X_DeviceInfo_t                DeviceInfo;
 679:tof_coms.c    **** 
 680:tof_coms.c    ****     int32_t status_int;
 681:tof_coms.c    ****     int32_t init_done = 0;
 682:tof_coms.c    ****     int NecleoComStatus = 0;
 683:tof_coms.c    ****     int NecleoAutoCom = 1;
 684:tof_coms.c    **** 
 685:tof_coms.c    **** 
 686:tof_coms.c    ****     memset(&MyDevice,0,sizeof(MyDevice));
 1434              		.loc 1 686 0
 1435 0004 B022     		movs	r2, #176
 1436 0006 5200     		lsls	r2, r2, #1
 1437 0008 0021     		movs	r1, #0
 1438 000a 2648     		ldr	r0, .L75
 1439 000c FFF7FEFF 		bl	memset
 1440              	.LVL185:
 687:tof_coms.c    ****     // Initialize Comms
 688:tof_coms.c    ****     pMyDevice->I2cDevAddr      = 0x52/2;
 1441              		.loc 1 688 0
 1442 0010 254B     		ldr	r3, .L75+4
 1443 0012 1B68     		ldr	r3, [r3]
 1444 0014 2921     		movs	r1, #41
 1445 0016 AE22     		movs	r2, #174
 1446 0018 5200     		lsls	r2, r2, #1
 1447 001a 9954     		strb	r1, [r3, r2]
 689:tof_coms.c    ****     pMyDevice->comms_type      =  1;
 1448              		.loc 1 689 0
 1449 001c 2839     		subs	r1, r1, #40
 1450 001e 5E22     		movs	r2, #94
 1451 0020 FF32     		adds	r2, r2, #255
 1452 0022 9954     		strb	r1, [r3, r2]
 690:tof_coms.c    ****     pMyDevice->comms_speed_khz =  400;
 1453              		.loc 1 690 0
 1454 0024 9031     		adds	r1, r1, #144
 1455 0026 FF31     		adds	r1, r1, #255
 1456 0028 0132     		adds	r2, r2, #1
 1457 002a 9952     		strh	r1, [r3, r2]
 691:tof_coms.c    **** 
 692:tof_coms.c    ****     Status = VL53L0X_i2c_init("", 460800);
 1458              		.loc 1 692 0
 1459 002c E121     		movs	r1, #225
 1460 002e C902     		lsls	r1, r1, #11
ARM GAS  C:\Users\Rajesh\AppData\Local\Temp\ccPtdt9Z.s 			page 39


 1461 0030 1E48     		ldr	r0, .L75+8
 1462 0032 FFF7FEFF 		bl	VL53L0X_i2c_init
 1463              	.LVL186:
 1464 0036 44B2     		sxtb	r4, r0
 1465              	.LVL187:
 693:tof_coms.c    ****     if (Status != VL53L0X_ERROR_NONE) {
 1466              		.loc 1 693 0
 1467 0038 002C     		cmp	r4, #0
 1468 003a 01D0     		beq	.L66
 694:tof_coms.c    ****         Status = VL53L0X_ERROR_CONTROL_INTERFACE;
 1469              		.loc 1 694 0
 1470 003c 1424     		movs	r4, #20
 1471              	.LVL188:
 1472 003e 6442     		rsbs	r4, r4, #0
 1473              	.L66:
 1474              	.LVL189:
 695:tof_coms.c    ****         init_done = 1;
 696:tof_coms.c    ****     } //else
 697:tof_coms.c    ****        // printf ("Init Comms\n");
 698:tof_coms.c    **** 
 699:tof_coms.c    ****     /*
 700:tof_coms.c    ****      * Disable VL53L0X API logging if you want to run at full speed
 701:tof_coms.c    ****      */
 702:tof_coms.c    **** #ifdef VL53L0X_LOG_ENABLE
 703:tof_coms.c    ****     VL53L0X_trace_config("test.log", TRACE_MODULE_ALL, TRACE_LEVEL_ALL, TRACE_FUNCTION_ALL);
 704:tof_coms.c    **** #endif
 705:tof_coms.c    **** 
 706:tof_coms.c    ****     /*
 707:tof_coms.c    ****      *  Get the version of the VL53L0X API running in the firmware
 708:tof_coms.c    ****      */
 709:tof_coms.c    **** 
 710:tof_coms.c    ****     if(Status == VL53L0X_ERROR_NONE)
 1475              		.loc 1 710 0
 1476 0040 002C     		cmp	r4, #0
 1477 0042 05D1     		bne	.L67
 711:tof_coms.c    ****     {
 712:tof_coms.c    ****         status_int = VL53L0X_GetVersion(pVersion);
 1478              		.loc 1 712 0
 1479 0044 1AA8     		add	r0, sp, #104
 1480              	.LVL190:
 1481 0046 FFF7FEFF 		bl	VL53L0X_GetVersion
 1482              	.LVL191:
 713:tof_coms.c    ****         if (status_int != 0)
 1483              		.loc 1 713 0
 1484 004a 0028     		cmp	r0, #0
 1485 004c 00D0     		beq	.L67
 714:tof_coms.c    ****             Status = VL53L0X_ERROR_CONTROL_INTERFACE;
 1486              		.loc 1 714 0
 1487 004e 143C     		subs	r4, r4, #20
 1488              	.LVL192:
 1489              	.L67:
 715:tof_coms.c    ****     }
 716:tof_coms.c    **** 
 717:tof_coms.c    ****     /*
 718:tof_coms.c    ****      *  Verify the version of the VL53L0X API running in the firmware
 719:tof_coms.c    ****      */
 720:tof_coms.c    **** 
ARM GAS  C:\Users\Rajesh\AppData\Local\Temp\ccPtdt9Z.s 			page 40


 721:tof_coms.c    ****     if(Status == VL53L0X_ERROR_NONE)
 722:tof_coms.c    ****     {
 723:tof_coms.c    **** 
 724:tof_coms.c    ****     }
 725:tof_coms.c    **** 
 726:tof_coms.c    **** 
 727:tof_coms.c    ****     if(Status == VL53L0X_ERROR_NONE)
 1490              		.loc 1 727 0
 1491 0050 002C     		cmp	r4, #0
 1492 0052 05D1     		bne	.L68
 728:tof_coms.c    ****     {
 729:tof_coms.c    ****        // printf ("Call of VL53L0X_DataInit\n");
 730:tof_coms.c    ****         Status = VL53L0X_DataInit(&MyDevice); // Data initialization
 1493              		.loc 1 730 0
 1494 0054 1348     		ldr	r0, .L75
 1495 0056 FFF7FEFF 		bl	VL53L0X_DataInit
 1496              	.LVL193:
 1497 005a 0400     		movs	r4, r0
 1498              	.LVL194:
 731:tof_coms.c    ****         print_pal_error(Status);
 1499              		.loc 1 731 0
 1500 005c FFF7FEFF 		bl	print_pal_error
 1501              	.LVL195:
 1502              	.L68:
 732:tof_coms.c    ****     }
 733:tof_coms.c    **** if(1)
 734:tof_coms.c    ****     if(Status == VL53L0X_ERROR_NONE)
 1503              		.loc 1 734 0
 1504 0060 002C     		cmp	r4, #0
 1505 0062 0ED1     		bne	.L69
 735:tof_coms.c    ****     {
 736:tof_coms.c    ****         Status = VL53L0X_GetDeviceInfo(&MyDevice, &DeviceInfo);
 1506              		.loc 1 736 0
 1507 0064 01A9     		add	r1, sp, #4
 1508 0066 0F48     		ldr	r0, .L75
 1509 0068 FFF7FEFF 		bl	VL53L0X_GetDeviceInfo
 1510              	.LVL196:
 1511 006c 041E     		subs	r4, r0, #0
 1512              	.LVL197:
 737:tof_coms.c    ****         if(Status == VL53L0X_ERROR_NONE)
 1513              		.loc 1 737 0
 1514 006e 05D1     		bne	.L70
 738:tof_coms.c    ****         {
 739:tof_coms.c    ****             #if 0
 740:tof_coms.c    ****             printf("VL53L0X_GetDeviceInfo:\n");
 741:tof_coms.c    ****             printf("Device Name : %s\n", DeviceInfo.Name);
 742:tof_coms.c    ****             printf("Device Type : %s\n", DeviceInfo.Type);
 743:tof_coms.c    ****             printf("Device ID : %s\n", DeviceInfo.ProductId);
 744:tof_coms.c    ****             printf("ProductRevisionMajor : %d\n", DeviceInfo.ProductRevisionMajor);
 745:tof_coms.c    ****         printf("ProductRevisionMinor : %d\n", DeviceInfo.ProductRevisionMinor);
 746:tof_coms.c    **** #endif
 747:tof_coms.c    ****         if ((DeviceInfo.ProductRevisionMinor != 1) && (DeviceInfo.ProductRevisionMinor != 1)) {
 1515              		.loc 1 747 0
 1516 0070 6223     		movs	r3, #98
 1517 0072 01AA     		add	r2, sp, #4
 1518 0074 D35C     		ldrb	r3, [r2, r3]
 1519 0076 012B     		cmp	r3, #1
ARM GAS  C:\Users\Rajesh\AppData\Local\Temp\ccPtdt9Z.s 			page 41


 1520 0078 00D0     		beq	.L70
 748:tof_coms.c    ****         	//printf("Error expected cut 1.1 but found cut %d.%d\n",
 749:tof_coms.c    ****            //            DeviceInfo.ProductRevisionMajor, DeviceInfo.ProductRevisionMinor);
 750:tof_coms.c    ****                 Status = VL53L0X_ERROR_NOT_SUPPORTED;
 1521              		.loc 1 750 0
 1522 007a 053C     		subs	r4, r4, #5
 1523              	.L70:
 1524              	.LVL198:
 751:tof_coms.c    ****             
 752:tof_coms.c    ****             }
 753:tof_coms.c    ****         }
 754:tof_coms.c    ****         print_pal_error(Status);
 1525              		.loc 1 754 0
 1526 007c 2000     		movs	r0, r4
 1527 007e FFF7FEFF 		bl	print_pal_error
 1528              	.LVL199:
 1529              	.L69:
 755:tof_coms.c    ****     }
 756:tof_coms.c    **** 
 757:tof_coms.c    ****     if(Status == VL53L0X_ERROR_NONE)
 1530              		.loc 1 757 0
 1531 0082 002C     		cmp	r4, #0
 1532 0084 04D1     		bne	.L71
 758:tof_coms.c    ****     {
 759:tof_coms.c    ****         Status = rangingTest(pMyDevice);
 1533              		.loc 1 759 0
 1534 0086 084B     		ldr	r3, .L75+4
 1535 0088 1868     		ldr	r0, [r3]
 1536 008a FFF7FEFF 		bl	rangingTest
 1537              	.LVL200:
 1538 008e 0400     		movs	r4, r0
 1539              	.LVL201:
 1540              	.L71:
 760:tof_coms.c    ****     }
 761:tof_coms.c    **** 
 762:tof_coms.c    ****     print_pal_error(Status);
 1541              		.loc 1 762 0
 1542 0090 2000     		movs	r0, r4
 1543 0092 FFF7FEFF 		bl	print_pal_error
 1544              	.LVL202:
 763:tof_coms.c    **** 
 764:tof_coms.c    **** 
 765:tof_coms.c    **** 
 766:tof_coms.c    ****     print_pal_error(Status);
 1545              		.loc 1 766 0
 1546 0096 2000     		movs	r0, r4
 1547 0098 FFF7FEFF 		bl	print_pal_error
 1548              	.LVL203:
 767:tof_coms.c    **** 
 768:tof_coms.c    **** //    printf ("\nPress a Key to continue!");
 769:tof_coms.c    **** //    getchar();
 770:tof_coms.c    **** 
 771:tof_coms.c    ****     return (0);
 772:tof_coms.c    **** }
 1549              		.loc 1 772 0
 1550 009c 0020     		movs	r0, #0
 1551 009e 1CB0     		add	sp, sp, #112
ARM GAS  C:\Users\Rajesh\AppData\Local\Temp\ccPtdt9Z.s 			page 42


 1552              		@ sp needed
 1553              	.LVL204:
 1554 00a0 10BD     		pop	{r4, pc}
 1555              	.L76:
 1556 00a2 C046     		.align	2
 1557              	.L75:
 1558 00a4 00000000 		.word	MyDevice
 1559 00a8 00000000 		.word	.LANCHOR0
 1560 00ac 00000000 		.word	.LC2
 1561              		.cfi_endproc
 1562              	.LFE66:
 1563              		.size	tof_init, .-tof_init
 1564              		.section	.text.tof_measure,"ax",%progbits
 1565              		.align	2
 1566              		.global	tof_measure
 1567              		.code	16
 1568              		.thumb_func
 1569              		.type	tof_measure, %function
 1570              	tof_measure:
 1571              	.LFB67:
 773:tof_coms.c    **** 
 774:tof_coms.c    **** 
 775:tof_coms.c    **** int tof_measure(void)
 776:tof_coms.c    ****     {
 1572              		.loc 1 776 0
 1573              		.cfi_startproc
 1574              		@ args = 0, pretend = 0, frame = 32
 1575              		@ frame_needed = 0, uses_anonymous_args = 0
 1576 0000 10B5     		push	{r4, lr}
 1577              		.cfi_def_cfa_offset 8
 1578              		.cfi_offset 4, -8
 1579              		.cfi_offset 14, -4
 1580 0002 88B0     		sub	sp, sp, #32
 1581              		.cfi_def_cfa_offset 40
 1582              	.LVL205:
 777:tof_coms.c    ****     VL53L0X_Error Status = VL53L0X_ERROR_NONE;
 778:tof_coms.c    ****     VL53L0X_RangingMeasurementData_t    RangingMeasurementData;
 779:tof_coms.c    ****     Status = VL53L0X_PerformSingleRangingMeasurement(pMyDevice,
 1583              		.loc 1 779 0
 1584 0004 044B     		ldr	r3, .L78
 1585 0006 1868     		ldr	r0, [r3]
 1586 0008 01AC     		add	r4, sp, #4
 1587 000a 2100     		movs	r1, r4
 1588 000c FFF7FEFF 		bl	VL53L0X_PerformSingleRangingMeasurement
 1589              	.LVL206:
 780:tof_coms.c    ****               		&RangingMeasurementData);
 781:tof_coms.c    **** 
 782:tof_coms.c    **** 
 783:tof_coms.c    ****   //  printf("Measured distance: %i\n\n", RangingMeasurementData.RangeMilliMeter);
 784:tof_coms.c    **** 
 785:tof_coms.c    ****     return RangingMeasurementData.RangeMilliMeter;
 1590              		.loc 1 785 0
 1591 0010 2089     		ldrh	r0, [r4, #8]
 786:tof_coms.c    ****     }
 1592              		.loc 1 786 0
 1593 0012 08B0     		add	sp, sp, #32
 1594              		@ sp needed
ARM GAS  C:\Users\Rajesh\AppData\Local\Temp\ccPtdt9Z.s 			page 43


 1595 0014 10BD     		pop	{r4, pc}
 1596              	.L79:
 1597 0016 C046     		.align	2
 1598              	.L78:
 1599 0018 00000000 		.word	.LANCHOR0
 1600              		.cfi_endproc
 1601              	.LFE67:
 1602              		.size	tof_measure, .-tof_measure
 1603              		.global	pMyDevice
 1604              		.comm	MyDevice,352,4
 1605              		.global	cached_page
 1606              		.comm	debug_string,256,4
 1607              		.data
 1608              		.align	2
 1609              		.set	.LANCHOR0,. + 0
 1610              		.type	pMyDevice, %object
 1611              		.size	pMyDevice, 4
 1612              	pMyDevice:
 1613 0000 00000000 		.word	MyDevice
 1614              		.section	.rodata.str1.4,"aMS",%progbits,1
 1615              		.align	2
 1616              	.LC2:
 1617 0000 00       		.ascii	"\000"
 1618              		.bss
 1619              		.type	cached_page, %object
 1620              		.size	cached_page, 1
 1621              	cached_page:
 1622 0000 00       		.space	1
 1623              		.text
 1624              	.Letext0:
 1625              		.file 2 "c:\\program files (x86)\\cypress\\psoc creator\\4.2\\psoc creator\\import\\gnu\\arm\\5.4.
 1626              		.file 3 "c:\\program files (x86)\\cypress\\psoc creator\\4.2\\psoc creator\\import\\gnu\\arm\\5.4.
 1627              		.file 4 ".\\Api\\platform\\inc/vl53l0x_types.h"
 1628              		.file 5 ".\\Api\\core\\inc/vl53l0x_device.h"
 1629              		.file 6 ".\\Api\\core\\inc/vl53l0x_def.h"
 1630              		.file 7 ".\\Api\\platform\\inc/vl53l0x_i2c_platform.h"
 1631              		.file 8 ".\\Api\\platform\\inc/vl53l0x_platform.h"
 1632              		.file 9 "Generated_Source\\PSoC4/I2C_LED_I2C.h"
 1633              		.file 10 ".\\Api\\core\\inc/vl53l0x_api.h"