ARM GAS  C:\Users\Rajesh\AppData\Local\Temp\cc8CcU56.s 			page 1


   1              		.syntax unified
   2              		.cpu cortex-m0
   3              		.fpu softvfp
   4              		.eabi_attribute 20, 1
   5              		.eabi_attribute 21, 1
   6              		.eabi_attribute 23, 3
   7              		.eabi_attribute 24, 1
   8              		.eabi_attribute 25, 1
   9              		.eabi_attribute 26, 1
  10              		.eabi_attribute 30, 1
  11              		.eabi_attribute 34, 0
  12              		.eabi_attribute 18, 4
  13              		.thumb
  14              		.syntax unified
  15              		.file	"vl53l0x_api.c"
  16              		.text
  17              	.Ltext0:
  18              		.cfi_sections	.debug_frame
  19              		.section	.text.VL53L0X_GetVersion,"ax",%progbits
  20              		.align	2
  21              		.global	VL53L0X_GetVersion
  22              		.code	16
  23              		.thumb_func
  24              		.type	VL53L0X_GetVersion, %function
  25              	VL53L0X_GetVersion:
  26              	.LFB1:
  27              		.file 1 "Api\\core\\src\\vl53l0x_api.c"
   1:Api\core\src/vl53l0x_api.c **** /*******************************************************************************
   2:Api\core\src/vl53l0x_api.c ****  Copyright © 2016, STMicroelectronics International N.V.
   3:Api\core\src/vl53l0x_api.c ****  All rights reserved.
   4:Api\core\src/vl53l0x_api.c **** 
   5:Api\core\src/vl53l0x_api.c ****  Redistribution and use in source and binary forms, with or without
   6:Api\core\src/vl53l0x_api.c ****  modification, are permitted provided that the following conditions are met:
   7:Api\core\src/vl53l0x_api.c ****  * Redistributions of source code must retain the above copyright
   8:Api\core\src/vl53l0x_api.c ****  notice, this list of conditions and the following disclaimer.
   9:Api\core\src/vl53l0x_api.c ****  * Redistributions in binary form must reproduce the above copyright
  10:Api\core\src/vl53l0x_api.c ****  notice, this list of conditions and the following disclaimer in the
  11:Api\core\src/vl53l0x_api.c ****  documentation and/or other materials provided with the distribution.
  12:Api\core\src/vl53l0x_api.c ****  * Neither the name of STMicroelectronics nor the
  13:Api\core\src/vl53l0x_api.c ****  names of its contributors may be used to endorse or promote products
  14:Api\core\src/vl53l0x_api.c ****  derived from this software without specific prior written permission.
  15:Api\core\src/vl53l0x_api.c **** 
  16:Api\core\src/vl53l0x_api.c ****  THIS SOFTWARE IS PROVIDED BY THE COPYRIGHT HOLDERS AND CONTRIBUTORS "AS IS" AND
  17:Api\core\src/vl53l0x_api.c ****  ANY EXPRESS OR IMPLIED WARRANTIES, INCLUDING, BUT NOT LIMITED TO, THE IMPLIED
  18:Api\core\src/vl53l0x_api.c ****  WARRANTIES OF MERCHANTABILITY, FITNESS FOR A PARTICULAR PURPOSE, AND
  19:Api\core\src/vl53l0x_api.c ****  NON-INFRINGEMENT OF INTELLECTUAL PROPERTY RIGHTS ARE DISCLAIMED.
  20:Api\core\src/vl53l0x_api.c ****  IN NO EVENT SHALL STMICROELECTRONICS INTERNATIONAL N.V. BE LIABLE FOR ANY
  21:Api\core\src/vl53l0x_api.c ****  DIRECT, INDIRECT, INCIDENTAL, SPECIAL, EXEMPLARY, OR CONSEQUENTIAL DAMAGES
  22:Api\core\src/vl53l0x_api.c ****  (INCLUDING, BUT NOT LIMITED TO, PROCUREMENT OF SUBSTITUTE GOODS OR SERVICES;
  23:Api\core\src/vl53l0x_api.c ****  LOSS OF USE, DATA, OR PROFITS; OR BUSINESS INTERRUPTION) HOWEVER CAUSED AND
  24:Api\core\src/vl53l0x_api.c ****  ON ANY THEORY OF LIABILITY, WHETHER IN CONTRACT, STRICT LIABILITY, OR TORT
  25:Api\core\src/vl53l0x_api.c ****  (INCLUDING NEGLIGENCE OR OTHERWISE) ARISING IN ANY WAY OUT OF THE USE OF THIS
  26:Api\core\src/vl53l0x_api.c ****  SOFTWARE, EVEN IF ADVISED OF THE POSSIBILITY OF SUCH DAMAGE.
  27:Api\core\src/vl53l0x_api.c ****  ******************************************************************************/
  28:Api\core\src/vl53l0x_api.c **** 
  29:Api\core\src/vl53l0x_api.c **** #include "vl53l0x_api.h"
  30:Api\core\src/vl53l0x_api.c **** #include "vl53l0x_tuning.h"
ARM GAS  C:\Users\Rajesh\AppData\Local\Temp\cc8CcU56.s 			page 2


  31:Api\core\src/vl53l0x_api.c **** #include "vl53l0x_interrupt_threshold_settings.h"
  32:Api\core\src/vl53l0x_api.c **** #include "vl53l0x_api_core.h"
  33:Api\core\src/vl53l0x_api.c **** #include "vl53l0x_api_calibration.h"
  34:Api\core\src/vl53l0x_api.c **** #include "vl53l0x_api_strings.h"
  35:Api\core\src/vl53l0x_api.c **** 
  36:Api\core\src/vl53l0x_api.c **** #ifndef __KERNEL__
  37:Api\core\src/vl53l0x_api.c **** #include <stdlib.h>
  38:Api\core\src/vl53l0x_api.c **** #endif
  39:Api\core\src/vl53l0x_api.c **** #define LOG_FUNCTION_START(fmt, ...) \
  40:Api\core\src/vl53l0x_api.c **** 	_LOG_FUNCTION_START(TRACE_MODULE_API, fmt, ##__VA_ARGS__)
  41:Api\core\src/vl53l0x_api.c **** #define LOG_FUNCTION_END(status, ...) \
  42:Api\core\src/vl53l0x_api.c **** 	_LOG_FUNCTION_END(TRACE_MODULE_API, status, ##__VA_ARGS__)
  43:Api\core\src/vl53l0x_api.c **** #define LOG_FUNCTION_END_FMT(status, fmt, ...) \
  44:Api\core\src/vl53l0x_api.c **** 	_LOG_FUNCTION_END_FMT(TRACE_MODULE_API, status, fmt, ##__VA_ARGS__)
  45:Api\core\src/vl53l0x_api.c **** 
  46:Api\core\src/vl53l0x_api.c **** #ifdef VL53L0X_LOG_ENABLE
  47:Api\core\src/vl53l0x_api.c **** #define trace_print(level, ...) trace_print_module_function(TRACE_MODULE_API, \
  48:Api\core\src/vl53l0x_api.c **** 	level, TRACE_FUNCTION_NONE, ##__VA_ARGS__)
  49:Api\core\src/vl53l0x_api.c **** #endif
  50:Api\core\src/vl53l0x_api.c **** 
  51:Api\core\src/vl53l0x_api.c **** /* Group PAL General Functions */
  52:Api\core\src/vl53l0x_api.c **** 
  53:Api\core\src/vl53l0x_api.c **** VL53L0X_Error VL53L0X_GetVersion(VL53L0X_Version_t *pVersion)
  54:Api\core\src/vl53l0x_api.c **** {
  28              		.loc 1 54 0
  29              		.cfi_startproc
  30              		@ args = 0, pretend = 0, frame = 0
  31              		@ frame_needed = 0, uses_anonymous_args = 0
  32              		@ link register save eliminated.
  33              	.LVL0:
  55:Api\core\src/vl53l0x_api.c **** 	VL53L0X_Error Status = VL53L0X_ERROR_NONE;
  56:Api\core\src/vl53l0x_api.c **** 	LOG_FUNCTION_START("");
  57:Api\core\src/vl53l0x_api.c **** 
  58:Api\core\src/vl53l0x_api.c **** 	pVersion->major = VL53L0X_IMPLEMENTATION_VER_MAJOR;
  34              		.loc 1 58 0
  35 0000 0123     		movs	r3, #1
  36 0002 0371     		strb	r3, [r0, #4]
  59:Api\core\src/vl53l0x_api.c **** 	pVersion->minor = VL53L0X_IMPLEMENTATION_VER_MINOR;
  37              		.loc 1 59 0
  38 0004 0023     		movs	r3, #0
  39 0006 4371     		strb	r3, [r0, #5]
  60:Api\core\src/vl53l0x_api.c **** 	pVersion->build = VL53L0X_IMPLEMENTATION_VER_SUB;
  40              		.loc 1 60 0
  41 0008 0233     		adds	r3, r3, #2
  42 000a 8371     		strb	r3, [r0, #6]
  61:Api\core\src/vl53l0x_api.c **** 
  62:Api\core\src/vl53l0x_api.c **** 	pVersion->revision = VL53L0X_IMPLEMENTATION_VER_REVISION;
  43              		.loc 1 62 0
  44 000c 014B     		ldr	r3, .L2
  45 000e 0360     		str	r3, [r0]
  63:Api\core\src/vl53l0x_api.c **** 
  64:Api\core\src/vl53l0x_api.c **** 	LOG_FUNCTION_END(Status);
  65:Api\core\src/vl53l0x_api.c **** 	return Status;
  66:Api\core\src/vl53l0x_api.c **** }
  46              		.loc 1 66 0
  47 0010 0020     		movs	r0, #0
  48              	.LVL1:
ARM GAS  C:\Users\Rajesh\AppData\Local\Temp\cc8CcU56.s 			page 3


  49              		@ sp needed
  50 0012 7047     		bx	lr
  51              	.L3:
  52              		.align	2
  53              	.L2:
  54 0014 D7120000 		.word	4823
  55              		.cfi_endproc
  56              	.LFE1:
  57              		.size	VL53L0X_GetVersion, .-VL53L0X_GetVersion
  58              		.section	.text.VL53L0X_GetPalSpecVersion,"ax",%progbits
  59              		.align	2
  60              		.global	VL53L0X_GetPalSpecVersion
  61              		.code	16
  62              		.thumb_func
  63              		.type	VL53L0X_GetPalSpecVersion, %function
  64              	VL53L0X_GetPalSpecVersion:
  65              	.LFB2:
  67:Api\core\src/vl53l0x_api.c **** 
  68:Api\core\src/vl53l0x_api.c **** VL53L0X_Error VL53L0X_GetPalSpecVersion(VL53L0X_Version_t *pPalSpecVersion)
  69:Api\core\src/vl53l0x_api.c **** {
  66              		.loc 1 69 0
  67              		.cfi_startproc
  68              		@ args = 0, pretend = 0, frame = 0
  69              		@ frame_needed = 0, uses_anonymous_args = 0
  70              		@ link register save eliminated.
  71              	.LVL2:
  70:Api\core\src/vl53l0x_api.c **** 	VL53L0X_Error Status = VL53L0X_ERROR_NONE;
  71:Api\core\src/vl53l0x_api.c **** 
  72:Api\core\src/vl53l0x_api.c **** 	LOG_FUNCTION_START("");
  73:Api\core\src/vl53l0x_api.c **** 
  74:Api\core\src/vl53l0x_api.c **** 	pPalSpecVersion->major = VL53L0X_SPECIFICATION_VER_MAJOR;
  72              		.loc 1 74 0
  73 0000 0123     		movs	r3, #1
  74 0002 0371     		strb	r3, [r0, #4]
  75:Api\core\src/vl53l0x_api.c **** 	pPalSpecVersion->minor = VL53L0X_SPECIFICATION_VER_MINOR;
  75              		.loc 1 75 0
  76 0004 0133     		adds	r3, r3, #1
  77 0006 4371     		strb	r3, [r0, #5]
  76:Api\core\src/vl53l0x_api.c **** 	pPalSpecVersion->build = VL53L0X_SPECIFICATION_VER_SUB;
  78              		.loc 1 76 0
  79 0008 0533     		adds	r3, r3, #5
  80 000a 8371     		strb	r3, [r0, #6]
  77:Api\core\src/vl53l0x_api.c **** 
  78:Api\core\src/vl53l0x_api.c **** 	pPalSpecVersion->revision = VL53L0X_SPECIFICATION_VER_REVISION;
  81              		.loc 1 78 0
  82 000c B423     		movs	r3, #180
  83 000e DB00     		lsls	r3, r3, #3
  84 0010 0360     		str	r3, [r0]
  79:Api\core\src/vl53l0x_api.c **** 
  80:Api\core\src/vl53l0x_api.c **** 	LOG_FUNCTION_END(Status);
  81:Api\core\src/vl53l0x_api.c **** 	return Status;
  82:Api\core\src/vl53l0x_api.c **** }
  85              		.loc 1 82 0
  86 0012 0020     		movs	r0, #0
  87              	.LVL3:
  88              		@ sp needed
  89 0014 7047     		bx	lr
ARM GAS  C:\Users\Rajesh\AppData\Local\Temp\cc8CcU56.s 			page 4


  90              		.cfi_endproc
  91              	.LFE2:
  92              		.size	VL53L0X_GetPalSpecVersion, .-VL53L0X_GetPalSpecVersion
  93 0016 C046     		.section	.text.VL53L0X_GetProductRevision,"ax",%progbits
  94              		.align	2
  95              		.global	VL53L0X_GetProductRevision
  96              		.code	16
  97              		.thumb_func
  98              		.type	VL53L0X_GetProductRevision, %function
  99              	VL53L0X_GetProductRevision:
 100              	.LFB3:
  83:Api\core\src/vl53l0x_api.c **** 
  84:Api\core\src/vl53l0x_api.c **** VL53L0X_Error VL53L0X_GetProductRevision(VL53L0X_DEV Dev,
  85:Api\core\src/vl53l0x_api.c **** 	uint8_t *pProductRevisionMajor, uint8_t *pProductRevisionMinor)
  86:Api\core\src/vl53l0x_api.c **** {
 101              		.loc 1 86 0
 102              		.cfi_startproc
 103              		@ args = 0, pretend = 0, frame = 8
 104              		@ frame_needed = 0, uses_anonymous_args = 0
 105              	.LVL4:
 106 0000 70B5     		push	{r4, r5, r6, lr}
 107              		.cfi_def_cfa_offset 16
 108              		.cfi_offset 4, -16
 109              		.cfi_offset 5, -12
 110              		.cfi_offset 6, -8
 111              		.cfi_offset 14, -4
 112 0002 82B0     		sub	sp, sp, #8
 113              		.cfi_def_cfa_offset 24
 114 0004 0E00     		movs	r6, r1
 115 0006 1500     		movs	r5, r2
 116              	.LVL5:
  87:Api\core\src/vl53l0x_api.c **** 	VL53L0X_Error Status = VL53L0X_ERROR_NONE;
  88:Api\core\src/vl53l0x_api.c **** 	uint8_t revision_id;
  89:Api\core\src/vl53l0x_api.c **** 
  90:Api\core\src/vl53l0x_api.c **** 	LOG_FUNCTION_START("");
  91:Api\core\src/vl53l0x_api.c **** 
  92:Api\core\src/vl53l0x_api.c **** 	Status = VL53L0X_RdByte(Dev, VL53L0X_REG_IDENTIFICATION_REVISION_ID,
 117              		.loc 1 92 0
 118 0008 6B46     		mov	r3, sp
 119 000a DC1D     		adds	r4, r3, #7
 120 000c 2200     		movs	r2, r4
 121              	.LVL6:
 122 000e C221     		movs	r1, #194
 123              	.LVL7:
 124 0010 FFF7FEFF 		bl	VL53L0X_RdByte
 125              	.LVL8:
  93:Api\core\src/vl53l0x_api.c **** 		&revision_id);
  94:Api\core\src/vl53l0x_api.c **** 	*pProductRevisionMajor = 1;
 126              		.loc 1 94 0
 127 0014 0123     		movs	r3, #1
 128 0016 3370     		strb	r3, [r6]
  95:Api\core\src/vl53l0x_api.c **** 	*pProductRevisionMinor = (revision_id & 0xF0) >> 4;
 129              		.loc 1 95 0
 130 0018 2378     		ldrb	r3, [r4]
 131 001a 1B09     		lsrs	r3, r3, #4
 132 001c 2B70     		strb	r3, [r5]
  96:Api\core\src/vl53l0x_api.c **** 
ARM GAS  C:\Users\Rajesh\AppData\Local\Temp\cc8CcU56.s 			page 5


  97:Api\core\src/vl53l0x_api.c **** 	LOG_FUNCTION_END(Status);
  98:Api\core\src/vl53l0x_api.c **** 	return Status;
  99:Api\core\src/vl53l0x_api.c **** 
 100:Api\core\src/vl53l0x_api.c **** }
 133              		.loc 1 100 0
 134 001e 02B0     		add	sp, sp, #8
 135              		@ sp needed
 136              	.LVL9:
 137              	.LVL10:
 138 0020 70BD     		pop	{r4, r5, r6, pc}
 139              		.cfi_endproc
 140              	.LFE3:
 141              		.size	VL53L0X_GetProductRevision, .-VL53L0X_GetProductRevision
 142 0022 C046     		.section	.text.VL53L0X_GetDeviceInfo,"ax",%progbits
 143              		.align	2
 144              		.global	VL53L0X_GetDeviceInfo
 145              		.code	16
 146              		.thumb_func
 147              		.type	VL53L0X_GetDeviceInfo, %function
 148              	VL53L0X_GetDeviceInfo:
 149              	.LFB4:
 101:Api\core\src/vl53l0x_api.c **** 
 102:Api\core\src/vl53l0x_api.c **** VL53L0X_Error VL53L0X_GetDeviceInfo(VL53L0X_DEV Dev,
 103:Api\core\src/vl53l0x_api.c **** 	VL53L0X_DeviceInfo_t *pVL53L0X_DeviceInfo)
 104:Api\core\src/vl53l0x_api.c **** {
 150              		.loc 1 104 0
 151              		.cfi_startproc
 152              		@ args = 0, pretend = 0, frame = 0
 153              		@ frame_needed = 0, uses_anonymous_args = 0
 154              	.LVL11:
 155 0000 10B5     		push	{r4, lr}
 156              		.cfi_def_cfa_offset 8
 157              		.cfi_offset 4, -8
 158              		.cfi_offset 14, -4
 159              	.LVL12:
 105:Api\core\src/vl53l0x_api.c **** 	VL53L0X_Error Status = VL53L0X_ERROR_NONE;
 106:Api\core\src/vl53l0x_api.c **** 	LOG_FUNCTION_START("");
 107:Api\core\src/vl53l0x_api.c **** 
 108:Api\core\src/vl53l0x_api.c **** 	Status = VL53L0X_get_device_info(Dev, pVL53L0X_DeviceInfo);
 160              		.loc 1 108 0
 161 0002 FFF7FEFF 		bl	VL53L0X_get_device_info
 162              	.LVL13:
 109:Api\core\src/vl53l0x_api.c **** 
 110:Api\core\src/vl53l0x_api.c **** 	LOG_FUNCTION_END(Status);
 111:Api\core\src/vl53l0x_api.c **** 	return Status;
 112:Api\core\src/vl53l0x_api.c **** }
 163              		.loc 1 112 0
 164              		@ sp needed
 165 0006 10BD     		pop	{r4, pc}
 166              		.cfi_endproc
 167              	.LFE4:
 168              		.size	VL53L0X_GetDeviceInfo, .-VL53L0X_GetDeviceInfo
 169              		.section	.text.VL53L0X_GetDeviceErrorStatus,"ax",%progbits
 170              		.align	2
 171              		.global	VL53L0X_GetDeviceErrorStatus
 172              		.code	16
 173              		.thumb_func
ARM GAS  C:\Users\Rajesh\AppData\Local\Temp\cc8CcU56.s 			page 6


 174              		.type	VL53L0X_GetDeviceErrorStatus, %function
 175              	VL53L0X_GetDeviceErrorStatus:
 176              	.LFB5:
 113:Api\core\src/vl53l0x_api.c **** 
 114:Api\core\src/vl53l0x_api.c **** VL53L0X_Error VL53L0X_GetDeviceErrorStatus(VL53L0X_DEV Dev,
 115:Api\core\src/vl53l0x_api.c **** 	VL53L0X_DeviceError *pDeviceErrorStatus)
 116:Api\core\src/vl53l0x_api.c **** {
 177              		.loc 1 116 0
 178              		.cfi_startproc
 179              		@ args = 0, pretend = 0, frame = 8
 180              		@ frame_needed = 0, uses_anonymous_args = 0
 181              	.LVL14:
 182 0000 30B5     		push	{r4, r5, lr}
 183              		.cfi_def_cfa_offset 12
 184              		.cfi_offset 4, -12
 185              		.cfi_offset 5, -8
 186              		.cfi_offset 14, -4
 187 0002 83B0     		sub	sp, sp, #12
 188              		.cfi_def_cfa_offset 24
 189 0004 0D00     		movs	r5, r1
 190              	.LVL15:
 117:Api\core\src/vl53l0x_api.c **** 	VL53L0X_Error Status = VL53L0X_ERROR_NONE;
 118:Api\core\src/vl53l0x_api.c **** 	uint8_t RangeStatus;
 119:Api\core\src/vl53l0x_api.c **** 
 120:Api\core\src/vl53l0x_api.c **** 	LOG_FUNCTION_START("");
 121:Api\core\src/vl53l0x_api.c **** 
 122:Api\core\src/vl53l0x_api.c **** 	Status = VL53L0X_RdByte(Dev, VL53L0X_REG_RESULT_RANGE_STATUS,
 191              		.loc 1 122 0
 192 0006 6B46     		mov	r3, sp
 193 0008 DC1D     		adds	r4, r3, #7
 194 000a 2200     		movs	r2, r4
 195 000c 1421     		movs	r1, #20
 196              	.LVL16:
 197 000e FFF7FEFF 		bl	VL53L0X_RdByte
 198              	.LVL17:
 123:Api\core\src/vl53l0x_api.c **** 		&RangeStatus);
 124:Api\core\src/vl53l0x_api.c **** 
 125:Api\core\src/vl53l0x_api.c **** 	*pDeviceErrorStatus = (VL53L0X_DeviceError)((RangeStatus & 0x78) >> 3);
 199              		.loc 1 125 0
 200 0012 2378     		ldrb	r3, [r4]
 201 0014 DB10     		asrs	r3, r3, #3
 202 0016 0F22     		movs	r2, #15
 203 0018 1340     		ands	r3, r2
 204 001a 2B70     		strb	r3, [r5]
 126:Api\core\src/vl53l0x_api.c **** 
 127:Api\core\src/vl53l0x_api.c **** 	LOG_FUNCTION_END(Status);
 128:Api\core\src/vl53l0x_api.c **** 	return Status;
 129:Api\core\src/vl53l0x_api.c **** }
 205              		.loc 1 129 0
 206 001c 03B0     		add	sp, sp, #12
 207              		@ sp needed
 208              	.LVL18:
 209 001e 30BD     		pop	{r4, r5, pc}
 210              		.cfi_endproc
 211              	.LFE5:
 212              		.size	VL53L0X_GetDeviceErrorStatus, .-VL53L0X_GetDeviceErrorStatus
 213              		.section	.text.VL53L0X_GetDeviceErrorString,"ax",%progbits
ARM GAS  C:\Users\Rajesh\AppData\Local\Temp\cc8CcU56.s 			page 7


 214              		.align	2
 215              		.global	VL53L0X_GetDeviceErrorString
 216              		.code	16
 217              		.thumb_func
 218              		.type	VL53L0X_GetDeviceErrorString, %function
 219              	VL53L0X_GetDeviceErrorString:
 220              	.LFB6:
 130:Api\core\src/vl53l0x_api.c **** 
 131:Api\core\src/vl53l0x_api.c **** 
 132:Api\core\src/vl53l0x_api.c **** VL53L0X_Error VL53L0X_GetDeviceErrorString(VL53L0X_DeviceError ErrorCode,
 133:Api\core\src/vl53l0x_api.c **** 	char *pDeviceErrorString)
 134:Api\core\src/vl53l0x_api.c **** {
 221              		.loc 1 134 0
 222              		.cfi_startproc
 223              		@ args = 0, pretend = 0, frame = 0
 224              		@ frame_needed = 0, uses_anonymous_args = 0
 225              	.LVL19:
 226 0000 10B5     		push	{r4, lr}
 227              		.cfi_def_cfa_offset 8
 228              		.cfi_offset 4, -8
 229              		.cfi_offset 14, -4
 230              	.LVL20:
 135:Api\core\src/vl53l0x_api.c **** 	VL53L0X_Error Status = VL53L0X_ERROR_NONE;
 136:Api\core\src/vl53l0x_api.c **** 
 137:Api\core\src/vl53l0x_api.c **** 	LOG_FUNCTION_START("");
 138:Api\core\src/vl53l0x_api.c **** 
 139:Api\core\src/vl53l0x_api.c **** 	Status = VL53L0X_get_device_error_string(ErrorCode, pDeviceErrorString);
 231              		.loc 1 139 0
 232 0002 FFF7FEFF 		bl	VL53L0X_get_device_error_string
 233              	.LVL21:
 140:Api\core\src/vl53l0x_api.c **** 
 141:Api\core\src/vl53l0x_api.c **** 	LOG_FUNCTION_END(Status);
 142:Api\core\src/vl53l0x_api.c **** 	return Status;
 143:Api\core\src/vl53l0x_api.c **** }
 234              		.loc 1 143 0
 235              		@ sp needed
 236 0006 10BD     		pop	{r4, pc}
 237              		.cfi_endproc
 238              	.LFE6:
 239              		.size	VL53L0X_GetDeviceErrorString, .-VL53L0X_GetDeviceErrorString
 240              		.section	.text.VL53L0X_GetRangeStatusString,"ax",%progbits
 241              		.align	2
 242              		.global	VL53L0X_GetRangeStatusString
 243              		.code	16
 244              		.thumb_func
 245              		.type	VL53L0X_GetRangeStatusString, %function
 246              	VL53L0X_GetRangeStatusString:
 247              	.LFB7:
 144:Api\core\src/vl53l0x_api.c **** 
 145:Api\core\src/vl53l0x_api.c **** VL53L0X_Error VL53L0X_GetRangeStatusString(uint8_t RangeStatus,
 146:Api\core\src/vl53l0x_api.c **** 	char *pRangeStatusString)
 147:Api\core\src/vl53l0x_api.c **** {
 248              		.loc 1 147 0
 249              		.cfi_startproc
 250              		@ args = 0, pretend = 0, frame = 0
 251              		@ frame_needed = 0, uses_anonymous_args = 0
 252              	.LVL22:
ARM GAS  C:\Users\Rajesh\AppData\Local\Temp\cc8CcU56.s 			page 8


 253 0000 10B5     		push	{r4, lr}
 254              		.cfi_def_cfa_offset 8
 255              		.cfi_offset 4, -8
 256              		.cfi_offset 14, -4
 257              	.LVL23:
 148:Api\core\src/vl53l0x_api.c **** 	VL53L0X_Error Status = VL53L0X_ERROR_NONE;
 149:Api\core\src/vl53l0x_api.c **** 	LOG_FUNCTION_START("");
 150:Api\core\src/vl53l0x_api.c **** 
 151:Api\core\src/vl53l0x_api.c **** 	Status = VL53L0X_get_range_status_string(RangeStatus,
 258              		.loc 1 151 0
 259 0002 FFF7FEFF 		bl	VL53L0X_get_range_status_string
 260              	.LVL24:
 152:Api\core\src/vl53l0x_api.c **** 		pRangeStatusString);
 153:Api\core\src/vl53l0x_api.c **** 
 154:Api\core\src/vl53l0x_api.c **** 	LOG_FUNCTION_END(Status);
 155:Api\core\src/vl53l0x_api.c **** 	return Status;
 156:Api\core\src/vl53l0x_api.c **** }
 261              		.loc 1 156 0
 262              		@ sp needed
 263 0006 10BD     		pop	{r4, pc}
 264              		.cfi_endproc
 265              	.LFE7:
 266              		.size	VL53L0X_GetRangeStatusString, .-VL53L0X_GetRangeStatusString
 267              		.section	.text.VL53L0X_GetPalErrorString,"ax",%progbits
 268              		.align	2
 269              		.global	VL53L0X_GetPalErrorString
 270              		.code	16
 271              		.thumb_func
 272              		.type	VL53L0X_GetPalErrorString, %function
 273              	VL53L0X_GetPalErrorString:
 274              	.LFB8:
 157:Api\core\src/vl53l0x_api.c **** 
 158:Api\core\src/vl53l0x_api.c **** VL53L0X_Error VL53L0X_GetPalErrorString(VL53L0X_Error PalErrorCode,
 159:Api\core\src/vl53l0x_api.c **** 	char *pPalErrorString)
 160:Api\core\src/vl53l0x_api.c **** {
 275              		.loc 1 160 0
 276              		.cfi_startproc
 277              		@ args = 0, pretend = 0, frame = 0
 278              		@ frame_needed = 0, uses_anonymous_args = 0
 279              	.LVL25:
 280 0000 10B5     		push	{r4, lr}
 281              		.cfi_def_cfa_offset 8
 282              		.cfi_offset 4, -8
 283              		.cfi_offset 14, -4
 284              	.LVL26:
 161:Api\core\src/vl53l0x_api.c **** 	VL53L0X_Error Status = VL53L0X_ERROR_NONE;
 162:Api\core\src/vl53l0x_api.c **** 	LOG_FUNCTION_START("");
 163:Api\core\src/vl53l0x_api.c **** 
 164:Api\core\src/vl53l0x_api.c **** 	Status = VL53L0X_get_pal_error_string(PalErrorCode, pPalErrorString);
 285              		.loc 1 164 0
 286 0002 FFF7FEFF 		bl	VL53L0X_get_pal_error_string
 287              	.LVL27:
 165:Api\core\src/vl53l0x_api.c **** 
 166:Api\core\src/vl53l0x_api.c **** 	LOG_FUNCTION_END(Status);
 167:Api\core\src/vl53l0x_api.c **** 	return Status;
 168:Api\core\src/vl53l0x_api.c **** }
 288              		.loc 1 168 0
ARM GAS  C:\Users\Rajesh\AppData\Local\Temp\cc8CcU56.s 			page 9


 289              		@ sp needed
 290 0006 10BD     		pop	{r4, pc}
 291              		.cfi_endproc
 292              	.LFE8:
 293              		.size	VL53L0X_GetPalErrorString, .-VL53L0X_GetPalErrorString
 294              		.section	.text.VL53L0X_GetPalStateString,"ax",%progbits
 295              		.align	2
 296              		.global	VL53L0X_GetPalStateString
 297              		.code	16
 298              		.thumb_func
 299              		.type	VL53L0X_GetPalStateString, %function
 300              	VL53L0X_GetPalStateString:
 301              	.LFB9:
 169:Api\core\src/vl53l0x_api.c **** 
 170:Api\core\src/vl53l0x_api.c **** VL53L0X_Error VL53L0X_GetPalStateString(VL53L0X_State PalStateCode,
 171:Api\core\src/vl53l0x_api.c **** 	char *pPalStateString)
 172:Api\core\src/vl53l0x_api.c **** {
 302              		.loc 1 172 0
 303              		.cfi_startproc
 304              		@ args = 0, pretend = 0, frame = 0
 305              		@ frame_needed = 0, uses_anonymous_args = 0
 306              	.LVL28:
 307 0000 10B5     		push	{r4, lr}
 308              		.cfi_def_cfa_offset 8
 309              		.cfi_offset 4, -8
 310              		.cfi_offset 14, -4
 311              	.LVL29:
 173:Api\core\src/vl53l0x_api.c **** 	VL53L0X_Error Status = VL53L0X_ERROR_NONE;
 174:Api\core\src/vl53l0x_api.c **** 	LOG_FUNCTION_START("");
 175:Api\core\src/vl53l0x_api.c **** 
 176:Api\core\src/vl53l0x_api.c **** 	Status = VL53L0X_get_pal_state_string(PalStateCode, pPalStateString);
 312              		.loc 1 176 0
 313 0002 FFF7FEFF 		bl	VL53L0X_get_pal_state_string
 314              	.LVL30:
 177:Api\core\src/vl53l0x_api.c **** 
 178:Api\core\src/vl53l0x_api.c **** 	LOG_FUNCTION_END(Status);
 179:Api\core\src/vl53l0x_api.c **** 	return Status;
 180:Api\core\src/vl53l0x_api.c **** }
 315              		.loc 1 180 0
 316              		@ sp needed
 317 0006 10BD     		pop	{r4, pc}
 318              		.cfi_endproc
 319              	.LFE9:
 320              		.size	VL53L0X_GetPalStateString, .-VL53L0X_GetPalStateString
 321              		.section	.text.VL53L0X_GetPalState,"ax",%progbits
 322              		.align	2
 323              		.global	VL53L0X_GetPalState
 324              		.code	16
 325              		.thumb_func
 326              		.type	VL53L0X_GetPalState, %function
 327              	VL53L0X_GetPalState:
 328              	.LFB10:
 181:Api\core\src/vl53l0x_api.c **** 
 182:Api\core\src/vl53l0x_api.c **** VL53L0X_Error VL53L0X_GetPalState(VL53L0X_DEV Dev, VL53L0X_State *pPalState)
 183:Api\core\src/vl53l0x_api.c **** {
 329              		.loc 1 183 0
 330              		.cfi_startproc
ARM GAS  C:\Users\Rajesh\AppData\Local\Temp\cc8CcU56.s 			page 10


 331              		@ args = 0, pretend = 0, frame = 0
 332              		@ frame_needed = 0, uses_anonymous_args = 0
 333              		@ link register save eliminated.
 334              	.LVL31:
 184:Api\core\src/vl53l0x_api.c **** 	VL53L0X_Error Status = VL53L0X_ERROR_NONE;
 185:Api\core\src/vl53l0x_api.c **** 	LOG_FUNCTION_START("");
 186:Api\core\src/vl53l0x_api.c **** 
 187:Api\core\src/vl53l0x_api.c **** 	*pPalState = PALDevDataGet(Dev, PalState);
 335              		.loc 1 187 0
 336 0000 9923     		movs	r3, #153
 337 0002 5B00     		lsls	r3, r3, #1
 338 0004 C35C     		ldrb	r3, [r0, r3]
 339 0006 0B70     		strb	r3, [r1]
 188:Api\core\src/vl53l0x_api.c **** 
 189:Api\core\src/vl53l0x_api.c **** 	LOG_FUNCTION_END(Status);
 190:Api\core\src/vl53l0x_api.c **** 	return Status;
 191:Api\core\src/vl53l0x_api.c **** }
 340              		.loc 1 191 0
 341 0008 0020     		movs	r0, #0
 342              	.LVL32:
 343              		@ sp needed
 344 000a 7047     		bx	lr
 345              		.cfi_endproc
 346              	.LFE10:
 347              		.size	VL53L0X_GetPalState, .-VL53L0X_GetPalState
 348              		.section	.text.VL53L0X_GetPowerMode,"ax",%progbits
 349              		.align	2
 350              		.global	VL53L0X_GetPowerMode
 351              		.code	16
 352              		.thumb_func
 353              		.type	VL53L0X_GetPowerMode, %function
 354              	VL53L0X_GetPowerMode:
 355              	.LFB12:
 192:Api\core\src/vl53l0x_api.c **** 
 193:Api\core\src/vl53l0x_api.c **** VL53L0X_Error VL53L0X_SetPowerMode(VL53L0X_DEV Dev, VL53L0X_PowerModes PowerMode)
 194:Api\core\src/vl53l0x_api.c **** {
 195:Api\core\src/vl53l0x_api.c **** 	VL53L0X_Error Status = VL53L0X_ERROR_NONE;
 196:Api\core\src/vl53l0x_api.c **** 	LOG_FUNCTION_START("");
 197:Api\core\src/vl53l0x_api.c **** 
 198:Api\core\src/vl53l0x_api.c **** 	/* Only level1 of Power mode exists */
 199:Api\core\src/vl53l0x_api.c **** 	if ((PowerMode != VL53L0X_POWERMODE_STANDBY_LEVEL1)
 200:Api\core\src/vl53l0x_api.c **** 		&& (PowerMode != VL53L0X_POWERMODE_IDLE_LEVEL1)) {
 201:Api\core\src/vl53l0x_api.c **** 		Status = VL53L0X_ERROR_MODE_NOT_SUPPORTED;
 202:Api\core\src/vl53l0x_api.c **** 	} else if (PowerMode == VL53L0X_POWERMODE_STANDBY_LEVEL1) {
 203:Api\core\src/vl53l0x_api.c **** 		/* set the standby level1 of power mode */
 204:Api\core\src/vl53l0x_api.c **** 		Status = VL53L0X_WrByte(Dev, 0x80, 0x00);
 205:Api\core\src/vl53l0x_api.c **** 		if (Status == VL53L0X_ERROR_NONE) {
 206:Api\core\src/vl53l0x_api.c **** 			/* Set PAL State to standby */
 207:Api\core\src/vl53l0x_api.c **** 			PALDevDataSet(Dev, PalState, VL53L0X_STATE_STANDBY);
 208:Api\core\src/vl53l0x_api.c **** 			PALDevDataSet(Dev, PowerMode,
 209:Api\core\src/vl53l0x_api.c **** 				VL53L0X_POWERMODE_STANDBY_LEVEL1);
 210:Api\core\src/vl53l0x_api.c **** 		}
 211:Api\core\src/vl53l0x_api.c **** 
 212:Api\core\src/vl53l0x_api.c **** 	} else {
 213:Api\core\src/vl53l0x_api.c **** 		/* VL53L0X_POWERMODE_IDLE_LEVEL1 */
 214:Api\core\src/vl53l0x_api.c **** 		Status = VL53L0X_WrByte(Dev, 0x80, 0x00);
 215:Api\core\src/vl53l0x_api.c **** 		if (Status == VL53L0X_ERROR_NONE)
ARM GAS  C:\Users\Rajesh\AppData\Local\Temp\cc8CcU56.s 			page 11


 216:Api\core\src/vl53l0x_api.c **** 			Status = VL53L0X_StaticInit(Dev);
 217:Api\core\src/vl53l0x_api.c **** 
 218:Api\core\src/vl53l0x_api.c **** 		if (Status == VL53L0X_ERROR_NONE)
 219:Api\core\src/vl53l0x_api.c **** 			PALDevDataSet(Dev, PowerMode,
 220:Api\core\src/vl53l0x_api.c **** 				VL53L0X_POWERMODE_IDLE_LEVEL1);
 221:Api\core\src/vl53l0x_api.c **** 
 222:Api\core\src/vl53l0x_api.c **** 	}
 223:Api\core\src/vl53l0x_api.c **** 
 224:Api\core\src/vl53l0x_api.c **** 	LOG_FUNCTION_END(Status);
 225:Api\core\src/vl53l0x_api.c **** 	return Status;
 226:Api\core\src/vl53l0x_api.c **** }
 227:Api\core\src/vl53l0x_api.c **** 
 228:Api\core\src/vl53l0x_api.c **** VL53L0X_Error VL53L0X_GetPowerMode(VL53L0X_DEV Dev, VL53L0X_PowerModes *pPowerMode)
 229:Api\core\src/vl53l0x_api.c **** {
 356              		.loc 1 229 0
 357              		.cfi_startproc
 358              		@ args = 0, pretend = 0, frame = 8
 359              		@ frame_needed = 0, uses_anonymous_args = 0
 360              	.LVL33:
 361 0000 10B5     		push	{r4, lr}
 362              		.cfi_def_cfa_offset 8
 363              		.cfi_offset 4, -8
 364              		.cfi_offset 14, -4
 365 0002 82B0     		sub	sp, sp, #8
 366              		.cfi_def_cfa_offset 16
 367 0004 0400     		movs	r4, r0
 368              	.LVL34:
 230:Api\core\src/vl53l0x_api.c **** 	VL53L0X_Error Status = VL53L0X_ERROR_NONE;
 231:Api\core\src/vl53l0x_api.c **** 	uint8_t Byte;
 232:Api\core\src/vl53l0x_api.c **** 	LOG_FUNCTION_START("");
 233:Api\core\src/vl53l0x_api.c **** 
 234:Api\core\src/vl53l0x_api.c **** 	/* Only level1 of Power mode exists */
 235:Api\core\src/vl53l0x_api.c **** 	Status = VL53L0X_RdByte(Dev, 0x80, &Byte);
 369              		.loc 1 235 0
 370 0006 6B46     		mov	r3, sp
 371 0008 DA1D     		adds	r2, r3, #7
 372 000a 8021     		movs	r1, #128
 373              	.LVL35:
 374 000c FFF7FEFF 		bl	VL53L0X_RdByte
 375              	.LVL36:
 236:Api\core\src/vl53l0x_api.c **** 
 237:Api\core\src/vl53l0x_api.c **** 	if (Status == VL53L0X_ERROR_NONE) {
 376              		.loc 1 237 0
 377 0010 0028     		cmp	r0, #0
 378 0012 0DD1     		bne	.L14
 238:Api\core\src/vl53l0x_api.c **** 		if (Byte == 1) {
 379              		.loc 1 238 0
 380 0014 6B46     		mov	r3, sp
 381 0016 0733     		adds	r3, r3, #7
 382 0018 1B78     		ldrb	r3, [r3]
 383 001a 012B     		cmp	r3, #1
 384 001c 04D1     		bne	.L15
 239:Api\core\src/vl53l0x_api.c **** 			PALDevDataSet(Dev, PowerMode,
 385              		.loc 1 239 0
 386 001e 0222     		movs	r2, #2
 387 0020 3423     		movs	r3, #52
 388 0022 FF33     		adds	r3, r3, #255
ARM GAS  C:\Users\Rajesh\AppData\Local\Temp\cc8CcU56.s 			page 12


 389 0024 E254     		strb	r2, [r4, r3]
 390 0026 03E0     		b	.L14
 391              	.L15:
 240:Api\core\src/vl53l0x_api.c **** 				VL53L0X_POWERMODE_IDLE_LEVEL1);
 241:Api\core\src/vl53l0x_api.c **** 		} else {
 242:Api\core\src/vl53l0x_api.c **** 			PALDevDataSet(Dev, PowerMode,
 392              		.loc 1 242 0
 393 0028 0022     		movs	r2, #0
 394 002a 3423     		movs	r3, #52
 395 002c FF33     		adds	r3, r3, #255
 396 002e E254     		strb	r2, [r4, r3]
 397              	.L14:
 243:Api\core\src/vl53l0x_api.c **** 				VL53L0X_POWERMODE_STANDBY_LEVEL1);
 244:Api\core\src/vl53l0x_api.c **** 		}
 245:Api\core\src/vl53l0x_api.c **** 	}
 246:Api\core\src/vl53l0x_api.c **** 
 247:Api\core\src/vl53l0x_api.c **** 	LOG_FUNCTION_END(Status);
 248:Api\core\src/vl53l0x_api.c **** 	return Status;
 249:Api\core\src/vl53l0x_api.c **** }
 398              		.loc 1 249 0
 399 0030 02B0     		add	sp, sp, #8
 400              		@ sp needed
 401              	.LVL37:
 402 0032 10BD     		pop	{r4, pc}
 403              		.cfi_endproc
 404              	.LFE12:
 405              		.size	VL53L0X_GetPowerMode, .-VL53L0X_GetPowerMode
 406              		.section	.text.VL53L0X_SetOffsetCalibrationDataMicroMeter,"ax",%progbits
 407              		.align	2
 408              		.global	VL53L0X_SetOffsetCalibrationDataMicroMeter
 409              		.code	16
 410              		.thumb_func
 411              		.type	VL53L0X_SetOffsetCalibrationDataMicroMeter, %function
 412              	VL53L0X_SetOffsetCalibrationDataMicroMeter:
 413              	.LFB13:
 250:Api\core\src/vl53l0x_api.c **** 
 251:Api\core\src/vl53l0x_api.c **** VL53L0X_Error VL53L0X_SetOffsetCalibrationDataMicroMeter(VL53L0X_DEV Dev,
 252:Api\core\src/vl53l0x_api.c **** 	int32_t OffsetCalibrationDataMicroMeter)
 253:Api\core\src/vl53l0x_api.c **** {
 414              		.loc 1 253 0
 415              		.cfi_startproc
 416              		@ args = 0, pretend = 0, frame = 0
 417              		@ frame_needed = 0, uses_anonymous_args = 0
 418              	.LVL38:
 419 0000 10B5     		push	{r4, lr}
 420              		.cfi_def_cfa_offset 8
 421              		.cfi_offset 4, -8
 422              		.cfi_offset 14, -4
 423              	.LVL39:
 254:Api\core\src/vl53l0x_api.c **** 	VL53L0X_Error Status = VL53L0X_ERROR_NONE;
 255:Api\core\src/vl53l0x_api.c **** 	LOG_FUNCTION_START("");
 256:Api\core\src/vl53l0x_api.c **** 
 257:Api\core\src/vl53l0x_api.c **** 	Status = VL53L0X_set_offset_calibration_data_micro_meter(Dev,
 424              		.loc 1 257 0
 425 0002 FFF7FEFF 		bl	VL53L0X_set_offset_calibration_data_micro_meter
 426              	.LVL40:
 258:Api\core\src/vl53l0x_api.c **** 		OffsetCalibrationDataMicroMeter);
ARM GAS  C:\Users\Rajesh\AppData\Local\Temp\cc8CcU56.s 			page 13


 259:Api\core\src/vl53l0x_api.c **** 
 260:Api\core\src/vl53l0x_api.c **** 	LOG_FUNCTION_END(Status);
 261:Api\core\src/vl53l0x_api.c **** 	return Status;
 262:Api\core\src/vl53l0x_api.c **** }
 427              		.loc 1 262 0
 428              		@ sp needed
 429 0006 10BD     		pop	{r4, pc}
 430              		.cfi_endproc
 431              	.LFE13:
 432              		.size	VL53L0X_SetOffsetCalibrationDataMicroMeter, .-VL53L0X_SetOffsetCalibrationDataMicroMeter
 433              		.section	.text.VL53L0X_GetOffsetCalibrationDataMicroMeter,"ax",%progbits
 434              		.align	2
 435              		.global	VL53L0X_GetOffsetCalibrationDataMicroMeter
 436              		.code	16
 437              		.thumb_func
 438              		.type	VL53L0X_GetOffsetCalibrationDataMicroMeter, %function
 439              	VL53L0X_GetOffsetCalibrationDataMicroMeter:
 440              	.LFB14:
 263:Api\core\src/vl53l0x_api.c **** 
 264:Api\core\src/vl53l0x_api.c **** VL53L0X_Error VL53L0X_GetOffsetCalibrationDataMicroMeter(VL53L0X_DEV Dev,
 265:Api\core\src/vl53l0x_api.c **** 	int32_t *pOffsetCalibrationDataMicroMeter)
 266:Api\core\src/vl53l0x_api.c **** {
 441              		.loc 1 266 0
 442              		.cfi_startproc
 443              		@ args = 0, pretend = 0, frame = 0
 444              		@ frame_needed = 0, uses_anonymous_args = 0
 445              	.LVL41:
 446 0000 10B5     		push	{r4, lr}
 447              		.cfi_def_cfa_offset 8
 448              		.cfi_offset 4, -8
 449              		.cfi_offset 14, -4
 450              	.LVL42:
 267:Api\core\src/vl53l0x_api.c **** 	VL53L0X_Error Status = VL53L0X_ERROR_NONE;
 268:Api\core\src/vl53l0x_api.c **** 	LOG_FUNCTION_START("");
 269:Api\core\src/vl53l0x_api.c **** 
 270:Api\core\src/vl53l0x_api.c **** 	Status = VL53L0X_get_offset_calibration_data_micro_meter(Dev,
 451              		.loc 1 270 0
 452 0002 FFF7FEFF 		bl	VL53L0X_get_offset_calibration_data_micro_meter
 453              	.LVL43:
 271:Api\core\src/vl53l0x_api.c **** 		pOffsetCalibrationDataMicroMeter);
 272:Api\core\src/vl53l0x_api.c **** 
 273:Api\core\src/vl53l0x_api.c **** 	LOG_FUNCTION_END(Status);
 274:Api\core\src/vl53l0x_api.c **** 	return Status;
 275:Api\core\src/vl53l0x_api.c **** }
 454              		.loc 1 275 0
 455              		@ sp needed
 456 0006 10BD     		pop	{r4, pc}
 457              		.cfi_endproc
 458              	.LFE14:
 459              		.size	VL53L0X_GetOffsetCalibrationDataMicroMeter, .-VL53L0X_GetOffsetCalibrationDataMicroMeter
 460              		.section	.text.VL53L0X_SetLinearityCorrectiveGain,"ax",%progbits
 461              		.align	2
 462              		.global	VL53L0X_SetLinearityCorrectiveGain
 463              		.code	16
 464              		.thumb_func
 465              		.type	VL53L0X_SetLinearityCorrectiveGain, %function
 466              	VL53L0X_SetLinearityCorrectiveGain:
ARM GAS  C:\Users\Rajesh\AppData\Local\Temp\cc8CcU56.s 			page 14


 467              	.LFB15:
 276:Api\core\src/vl53l0x_api.c **** 
 277:Api\core\src/vl53l0x_api.c **** VL53L0X_Error VL53L0X_SetLinearityCorrectiveGain(VL53L0X_DEV Dev,
 278:Api\core\src/vl53l0x_api.c **** 	int16_t LinearityCorrectiveGain)
 279:Api\core\src/vl53l0x_api.c **** {
 468              		.loc 1 279 0
 469              		.cfi_startproc
 470              		@ args = 0, pretend = 0, frame = 0
 471              		@ frame_needed = 0, uses_anonymous_args = 0
 472              	.LVL44:
 473 0000 10B5     		push	{r4, lr}
 474              		.cfi_def_cfa_offset 8
 475              		.cfi_offset 4, -8
 476              		.cfi_offset 14, -4
 477              	.LVL45:
 280:Api\core\src/vl53l0x_api.c **** 	VL53L0X_Error Status = VL53L0X_ERROR_NONE;
 281:Api\core\src/vl53l0x_api.c **** 	LOG_FUNCTION_START("");
 282:Api\core\src/vl53l0x_api.c **** 
 283:Api\core\src/vl53l0x_api.c **** 	if ((LinearityCorrectiveGain < 0) || (LinearityCorrectiveGain > 1000))
 478              		.loc 1 283 0
 479 0002 8BB2     		uxth	r3, r1
 480 0004 FA22     		movs	r2, #250
 481 0006 9200     		lsls	r2, r2, #2
 482 0008 9342     		cmp	r3, r2
 483 000a 0BD8     		bhi	.L20
 284:Api\core\src/vl53l0x_api.c **** 		Status = VL53L0X_ERROR_INVALID_PARAMS;
 285:Api\core\src/vl53l0x_api.c **** 	else {
 286:Api\core\src/vl53l0x_api.c **** 		PALDevDataSet(Dev, LinearityCorrectiveGain,
 484              		.loc 1 286 0
 485 000c A922     		movs	r2, #169
 486 000e 5200     		lsls	r2, r2, #1
 487 0010 8352     		strh	r3, [r0, r2]
 287:Api\core\src/vl53l0x_api.c **** 			LinearityCorrectiveGain);
 288:Api\core\src/vl53l0x_api.c **** 
 289:Api\core\src/vl53l0x_api.c **** 		if (LinearityCorrectiveGain != 1000) {
 488              		.loc 1 289 0
 489 0012 FA23     		movs	r3, #250
 490 0014 9B00     		lsls	r3, r3, #2
 491 0016 9942     		cmp	r1, r3
 492 0018 07D0     		beq	.L21
 290:Api\core\src/vl53l0x_api.c **** 			/* Disable FW Xtalk */
 291:Api\core\src/vl53l0x_api.c **** 			Status = VL53L0X_WrWord(Dev,
 493              		.loc 1 291 0
 494 001a 0022     		movs	r2, #0
 495 001c 2021     		movs	r1, #32
 496              	.LVL46:
 497 001e FFF7FEFF 		bl	VL53L0X_WrWord
 498              	.LVL47:
 499 0022 03E0     		b	.L19
 500              	.LVL48:
 501              	.L20:
 284:Api\core\src/vl53l0x_api.c **** 	else {
 502              		.loc 1 284 0
 503 0024 0420     		movs	r0, #4
 504              	.LVL49:
 505 0026 4042     		rsbs	r0, r0, #0
 506 0028 00E0     		b	.L19
ARM GAS  C:\Users\Rajesh\AppData\Local\Temp\cc8CcU56.s 			page 15


 507              	.LVL50:
 508              	.L21:
 280:Api\core\src/vl53l0x_api.c **** 	LOG_FUNCTION_START("");
 509              		.loc 1 280 0
 510 002a 0020     		movs	r0, #0
 511              	.LVL51:
 512              	.L19:
 292:Api\core\src/vl53l0x_api.c **** 			VL53L0X_REG_CROSSTALK_COMPENSATION_PEAK_RATE_MCPS, 0);
 293:Api\core\src/vl53l0x_api.c **** 		}
 294:Api\core\src/vl53l0x_api.c **** 	}
 295:Api\core\src/vl53l0x_api.c **** 
 296:Api\core\src/vl53l0x_api.c **** 	LOG_FUNCTION_END(Status);
 297:Api\core\src/vl53l0x_api.c **** 	return Status;
 298:Api\core\src/vl53l0x_api.c **** }
 513              		.loc 1 298 0
 514              		@ sp needed
 515 002c 10BD     		pop	{r4, pc}
 516              		.cfi_endproc
 517              	.LFE15:
 518              		.size	VL53L0X_SetLinearityCorrectiveGain, .-VL53L0X_SetLinearityCorrectiveGain
 519 002e C046     		.section	.text.VL53L0X_GetLinearityCorrectiveGain,"ax",%progbits
 520              		.align	2
 521              		.global	VL53L0X_GetLinearityCorrectiveGain
 522              		.code	16
 523              		.thumb_func
 524              		.type	VL53L0X_GetLinearityCorrectiveGain, %function
 525              	VL53L0X_GetLinearityCorrectiveGain:
 526              	.LFB16:
 299:Api\core\src/vl53l0x_api.c **** 
 300:Api\core\src/vl53l0x_api.c **** VL53L0X_Error VL53L0X_GetLinearityCorrectiveGain(VL53L0X_DEV Dev,
 301:Api\core\src/vl53l0x_api.c **** 	uint16_t *pLinearityCorrectiveGain)
 302:Api\core\src/vl53l0x_api.c **** {
 527              		.loc 1 302 0
 528              		.cfi_startproc
 529              		@ args = 0, pretend = 0, frame = 0
 530              		@ frame_needed = 0, uses_anonymous_args = 0
 531              		@ link register save eliminated.
 532              	.LVL52:
 303:Api\core\src/vl53l0x_api.c **** 	VL53L0X_Error Status = VL53L0X_ERROR_NONE;
 304:Api\core\src/vl53l0x_api.c **** 	LOG_FUNCTION_START("");
 305:Api\core\src/vl53l0x_api.c **** 
 306:Api\core\src/vl53l0x_api.c **** 	*pLinearityCorrectiveGain = PALDevDataGet(Dev, LinearityCorrectiveGain);
 533              		.loc 1 306 0
 534 0000 A923     		movs	r3, #169
 535 0002 5B00     		lsls	r3, r3, #1
 536 0004 C35A     		ldrh	r3, [r0, r3]
 537 0006 0B80     		strh	r3, [r1]
 307:Api\core\src/vl53l0x_api.c **** 
 308:Api\core\src/vl53l0x_api.c **** 	LOG_FUNCTION_END(Status);
 309:Api\core\src/vl53l0x_api.c **** 	return Status;
 310:Api\core\src/vl53l0x_api.c **** }
 538              		.loc 1 310 0
 539 0008 0020     		movs	r0, #0
 540              	.LVL53:
 541              		@ sp needed
 542 000a 7047     		bx	lr
 543              		.cfi_endproc
ARM GAS  C:\Users\Rajesh\AppData\Local\Temp\cc8CcU56.s 			page 16


 544              	.LFE16:
 545              		.size	VL53L0X_GetLinearityCorrectiveGain, .-VL53L0X_GetLinearityCorrectiveGain
 546              		.section	.text.VL53L0X_SetGroupParamHold,"ax",%progbits
 547              		.align	2
 548              		.global	VL53L0X_SetGroupParamHold
 549              		.code	16
 550              		.thumb_func
 551              		.type	VL53L0X_SetGroupParamHold, %function
 552              	VL53L0X_SetGroupParamHold:
 553              	.LFB17:
 311:Api\core\src/vl53l0x_api.c **** 
 312:Api\core\src/vl53l0x_api.c **** VL53L0X_Error VL53L0X_SetGroupParamHold(VL53L0X_DEV Dev, uint8_t GroupParamHold)
 313:Api\core\src/vl53l0x_api.c **** {
 554              		.loc 1 313 0
 555              		.cfi_startproc
 556              		@ args = 0, pretend = 0, frame = 0
 557              		@ frame_needed = 0, uses_anonymous_args = 0
 558              		@ link register save eliminated.
 559              	.LVL54:
 314:Api\core\src/vl53l0x_api.c **** 	VL53L0X_Error Status = VL53L0X_ERROR_NOT_IMPLEMENTED;
 315:Api\core\src/vl53l0x_api.c **** 	LOG_FUNCTION_START("");
 316:Api\core\src/vl53l0x_api.c **** 
 317:Api\core\src/vl53l0x_api.c **** 	/* not implemented on VL53L0X */
 318:Api\core\src/vl53l0x_api.c **** 
 319:Api\core\src/vl53l0x_api.c **** 	LOG_FUNCTION_END(Status);
 320:Api\core\src/vl53l0x_api.c **** 	return Status;
 321:Api\core\src/vl53l0x_api.c **** }
 560              		.loc 1 321 0
 561 0000 6320     		movs	r0, #99
 562              	.LVL55:
 563 0002 4042     		rsbs	r0, r0, #0
 564              		@ sp needed
 565 0004 7047     		bx	lr
 566              		.cfi_endproc
 567              	.LFE17:
 568              		.size	VL53L0X_SetGroupParamHold, .-VL53L0X_SetGroupParamHold
 569 0006 C046     		.section	.text.VL53L0X_GetUpperLimitMilliMeter,"ax",%progbits
 570              		.align	2
 571              		.global	VL53L0X_GetUpperLimitMilliMeter
 572              		.code	16
 573              		.thumb_func
 574              		.type	VL53L0X_GetUpperLimitMilliMeter, %function
 575              	VL53L0X_GetUpperLimitMilliMeter:
 576              	.LFB18:
 322:Api\core\src/vl53l0x_api.c **** 
 323:Api\core\src/vl53l0x_api.c **** VL53L0X_Error VL53L0X_GetUpperLimitMilliMeter(VL53L0X_DEV Dev,
 324:Api\core\src/vl53l0x_api.c **** 	uint16_t *pUpperLimitMilliMeter)
 325:Api\core\src/vl53l0x_api.c **** {
 577              		.loc 1 325 0
 578              		.cfi_startproc
 579              		@ args = 0, pretend = 0, frame = 0
 580              		@ frame_needed = 0, uses_anonymous_args = 0
 581              		@ link register save eliminated.
 582              	.LVL56:
 326:Api\core\src/vl53l0x_api.c **** 	VL53L0X_Error Status = VL53L0X_ERROR_NOT_IMPLEMENTED;
 327:Api\core\src/vl53l0x_api.c **** 	LOG_FUNCTION_START("");
 328:Api\core\src/vl53l0x_api.c **** 
ARM GAS  C:\Users\Rajesh\AppData\Local\Temp\cc8CcU56.s 			page 17


 329:Api\core\src/vl53l0x_api.c **** 	/* not implemented on VL53L0X */
 330:Api\core\src/vl53l0x_api.c **** 
 331:Api\core\src/vl53l0x_api.c **** 	LOG_FUNCTION_END(Status);
 332:Api\core\src/vl53l0x_api.c **** 	return Status;
 333:Api\core\src/vl53l0x_api.c **** }
 583              		.loc 1 333 0
 584 0000 6320     		movs	r0, #99
 585              	.LVL57:
 586 0002 4042     		rsbs	r0, r0, #0
 587              		@ sp needed
 588 0004 7047     		bx	lr
 589              		.cfi_endproc
 590              	.LFE18:
 591              		.size	VL53L0X_GetUpperLimitMilliMeter, .-VL53L0X_GetUpperLimitMilliMeter
 592 0006 C046     		.section	.text.VL53L0X_GetTotalSignalRate,"ax",%progbits
 593              		.align	2
 594              		.global	VL53L0X_GetTotalSignalRate
 595              		.code	16
 596              		.thumb_func
 597              		.type	VL53L0X_GetTotalSignalRate, %function
 598              	VL53L0X_GetTotalSignalRate:
 599              	.LFB19:
 334:Api\core\src/vl53l0x_api.c **** 
 335:Api\core\src/vl53l0x_api.c **** VL53L0X_Error VL53L0X_GetTotalSignalRate(VL53L0X_DEV Dev,
 336:Api\core\src/vl53l0x_api.c **** 	FixPoint1616_t *pTotalSignalRate)
 337:Api\core\src/vl53l0x_api.c **** {
 600              		.loc 1 337 0
 601              		.cfi_startproc
 602              		@ args = 0, pretend = 0, frame = 32
 603              		@ frame_needed = 0, uses_anonymous_args = 0
 604              	.LVL58:
 605 0000 F0B5     		push	{r4, r5, r6, r7, lr}
 606              		.cfi_def_cfa_offset 20
 607              		.cfi_offset 4, -20
 608              		.cfi_offset 5, -16
 609              		.cfi_offset 6, -12
 610              		.cfi_offset 7, -8
 611              		.cfi_offset 14, -4
 612 0002 89B0     		sub	sp, sp, #36
 613              		.cfi_def_cfa_offset 56
 614 0004 0A00     		movs	r2, r1
 615              	.LVL59:
 338:Api\core\src/vl53l0x_api.c **** 	VL53L0X_Error Status = VL53L0X_ERROR_NONE;
 339:Api\core\src/vl53l0x_api.c **** 	VL53L0X_RangingMeasurementData_t LastRangeDataBuffer;
 340:Api\core\src/vl53l0x_api.c **** 
 341:Api\core\src/vl53l0x_api.c **** 	LOG_FUNCTION_START("");
 342:Api\core\src/vl53l0x_api.c **** 
 343:Api\core\src/vl53l0x_api.c **** 	LastRangeDataBuffer = PALDevDataGet(Dev, LastRangeMeasure);
 616              		.loc 1 343 0
 617 0006 01A9     		add	r1, sp, #4
 618              	.LVL60:
 619 0008 0C00     		movs	r4, r1
 620 000a 0300     		movs	r3, r0
 621 000c 5033     		adds	r3, r3, #80
 622 000e E0CB     		ldmia	r3!, {r5, r6, r7}
 623 0010 E0C4     		stmia	r4!, {r5, r6, r7}
 624 0012 E0CB     		ldmia	r3!, {r5, r6, r7}
ARM GAS  C:\Users\Rajesh\AppData\Local\Temp\cc8CcU56.s 			page 18


 625 0014 E0C4     		stmia	r4!, {r5, r6, r7}
 626 0016 1B68     		ldr	r3, [r3]
 627 0018 2360     		str	r3, [r4]
 344:Api\core\src/vl53l0x_api.c **** 
 345:Api\core\src/vl53l0x_api.c **** 	Status = VL53L0X_get_total_signal_rate(
 628              		.loc 1 345 0
 629 001a FFF7FEFF 		bl	VL53L0X_get_total_signal_rate
 630              	.LVL61:
 346:Api\core\src/vl53l0x_api.c **** 		Dev, &LastRangeDataBuffer, pTotalSignalRate);
 347:Api\core\src/vl53l0x_api.c **** 
 348:Api\core\src/vl53l0x_api.c **** 	LOG_FUNCTION_END(Status);
 349:Api\core\src/vl53l0x_api.c **** 	return Status;
 350:Api\core\src/vl53l0x_api.c **** }
 631              		.loc 1 350 0
 632 001e 09B0     		add	sp, sp, #36
 633              		@ sp needed
 634 0020 F0BD     		pop	{r4, r5, r6, r7, pc}
 635              		.cfi_endproc
 636              	.LFE19:
 637              		.size	VL53L0X_GetTotalSignalRate, .-VL53L0X_GetTotalSignalRate
 638 0022 C046     		.section	.text.VL53L0X_SetDeviceAddress,"ax",%progbits
 639              		.align	2
 640              		.global	VL53L0X_SetDeviceAddress
 641              		.code	16
 642              		.thumb_func
 643              		.type	VL53L0X_SetDeviceAddress, %function
 644              	VL53L0X_SetDeviceAddress:
 645              	.LFB20:
 351:Api\core\src/vl53l0x_api.c **** 
 352:Api\core\src/vl53l0x_api.c **** /* End Group PAL General Functions */
 353:Api\core\src/vl53l0x_api.c **** 
 354:Api\core\src/vl53l0x_api.c **** /* Group PAL Init Functions */
 355:Api\core\src/vl53l0x_api.c **** VL53L0X_Error VL53L0X_SetDeviceAddress(VL53L0X_DEV Dev, uint8_t DeviceAddress)
 356:Api\core\src/vl53l0x_api.c **** {
 646              		.loc 1 356 0
 647              		.cfi_startproc
 648              		@ args = 0, pretend = 0, frame = 0
 649              		@ frame_needed = 0, uses_anonymous_args = 0
 650              	.LVL62:
 651 0000 10B5     		push	{r4, lr}
 652              		.cfi_def_cfa_offset 8
 653              		.cfi_offset 4, -8
 654              		.cfi_offset 14, -4
 655              	.LVL63:
 357:Api\core\src/vl53l0x_api.c **** 	VL53L0X_Error Status = VL53L0X_ERROR_NONE;
 358:Api\core\src/vl53l0x_api.c **** 	LOG_FUNCTION_START("");
 359:Api\core\src/vl53l0x_api.c **** 
 360:Api\core\src/vl53l0x_api.c **** 	Status = VL53L0X_WrByte(Dev, VL53L0X_REG_I2C_SLAVE_DEVICE_ADDRESS,
 656              		.loc 1 360 0
 657 0002 4A08     		lsrs	r2, r1, #1
 658 0004 8A21     		movs	r1, #138
 659              	.LVL64:
 660 0006 FFF7FEFF 		bl	VL53L0X_WrByte
 661              	.LVL65:
 361:Api\core\src/vl53l0x_api.c **** 		DeviceAddress / 2);
 362:Api\core\src/vl53l0x_api.c **** 
 363:Api\core\src/vl53l0x_api.c **** 	LOG_FUNCTION_END(Status);
ARM GAS  C:\Users\Rajesh\AppData\Local\Temp\cc8CcU56.s 			page 19


 364:Api\core\src/vl53l0x_api.c **** 	return Status;
 365:Api\core\src/vl53l0x_api.c **** }
 662              		.loc 1 365 0
 663              		@ sp needed
 664 000a 10BD     		pop	{r4, pc}
 665              		.cfi_endproc
 666              	.LFE20:
 667              		.size	VL53L0X_SetDeviceAddress, .-VL53L0X_SetDeviceAddress
 668              		.section	.text.VL53L0X_SetTuningSettingBuffer,"ax",%progbits
 669              		.align	2
 670              		.global	VL53L0X_SetTuningSettingBuffer
 671              		.code	16
 672              		.thumb_func
 673              		.type	VL53L0X_SetTuningSettingBuffer, %function
 674              	VL53L0X_SetTuningSettingBuffer:
 675              	.LFB22:
 366:Api\core\src/vl53l0x_api.c **** 
 367:Api\core\src/vl53l0x_api.c **** VL53L0X_Error VL53L0X_DataInit(VL53L0X_DEV Dev)
 368:Api\core\src/vl53l0x_api.c **** {
 369:Api\core\src/vl53l0x_api.c **** 	VL53L0X_Error Status = VL53L0X_ERROR_NONE;
 370:Api\core\src/vl53l0x_api.c **** 	VL53L0X_DeviceParameters_t CurrentParameters;
 371:Api\core\src/vl53l0x_api.c **** 	int i;
 372:Api\core\src/vl53l0x_api.c **** 	uint8_t StopVariable;
 373:Api\core\src/vl53l0x_api.c **** 
 374:Api\core\src/vl53l0x_api.c **** 	LOG_FUNCTION_START("");
 375:Api\core\src/vl53l0x_api.c **** 
 376:Api\core\src/vl53l0x_api.c **** 	/* by default the I2C is running at 1V8 if you want to change it you
 377:Api\core\src/vl53l0x_api.c **** 	 * need to include this define at compilation level. */
 378:Api\core\src/vl53l0x_api.c **** #ifdef USE_I2C_2V8
 379:Api\core\src/vl53l0x_api.c **** 	Status = VL53L0X_UpdateByte(Dev,
 380:Api\core\src/vl53l0x_api.c **** 		VL53L0X_REG_VHV_CONFIG_PAD_SCL_SDA__EXTSUP_HV,
 381:Api\core\src/vl53l0x_api.c **** 		0xFE,
 382:Api\core\src/vl53l0x_api.c **** 		0x01);
 383:Api\core\src/vl53l0x_api.c **** #endif
 384:Api\core\src/vl53l0x_api.c **** 
 385:Api\core\src/vl53l0x_api.c **** 	/* Set I2C standard mode */
 386:Api\core\src/vl53l0x_api.c **** 	if (Status == VL53L0X_ERROR_NONE)
 387:Api\core\src/vl53l0x_api.c **** 		Status = VL53L0X_WrByte(Dev, 0x88, 0x00);
 388:Api\core\src/vl53l0x_api.c **** 
 389:Api\core\src/vl53l0x_api.c **** 	VL53L0X_SETDEVICESPECIFICPARAMETER(Dev, ReadDataFromDeviceDone, 0);
 390:Api\core\src/vl53l0x_api.c **** 
 391:Api\core\src/vl53l0x_api.c **** #ifdef USE_IQC_STATION
 392:Api\core\src/vl53l0x_api.c **** 	if (Status == VL53L0X_ERROR_NONE)
 393:Api\core\src/vl53l0x_api.c **** 		Status = VL53L0X_apply_offset_adjustment(Dev);
 394:Api\core\src/vl53l0x_api.c **** #endif
 395:Api\core\src/vl53l0x_api.c **** 
 396:Api\core\src/vl53l0x_api.c **** 	/* Default value is 1000 for Linearity Corrective Gain */
 397:Api\core\src/vl53l0x_api.c **** 	PALDevDataSet(Dev, LinearityCorrectiveGain, 1000);
 398:Api\core\src/vl53l0x_api.c **** 
 399:Api\core\src/vl53l0x_api.c **** 	/* Dmax default Parameter */
 400:Api\core\src/vl53l0x_api.c **** 	PALDevDataSet(Dev, DmaxCalRangeMilliMeter, 400);
 401:Api\core\src/vl53l0x_api.c **** 	PALDevDataSet(Dev, DmaxCalSignalRateRtnMegaCps,
 402:Api\core\src/vl53l0x_api.c **** 		(FixPoint1616_t)((0x00016B85))); /* 1.42 No Cover Glass*/
 403:Api\core\src/vl53l0x_api.c **** 
 404:Api\core\src/vl53l0x_api.c **** 	/* Set Default static parameters
 405:Api\core\src/vl53l0x_api.c **** 	 *set first temporary values 9.44MHz * 65536 = 618660 */
 406:Api\core\src/vl53l0x_api.c **** 	VL53L0X_SETDEVICESPECIFICPARAMETER(Dev, OscFrequencyMHz, 618660);
ARM GAS  C:\Users\Rajesh\AppData\Local\Temp\cc8CcU56.s 			page 20


 407:Api\core\src/vl53l0x_api.c **** 
 408:Api\core\src/vl53l0x_api.c **** 	/* Set Default XTalkCompensationRateMegaCps to 0  */
 409:Api\core\src/vl53l0x_api.c **** 	VL53L0X_SETPARAMETERFIELD(Dev, XTalkCompensationRateMegaCps, 0);
 410:Api\core\src/vl53l0x_api.c **** 
 411:Api\core\src/vl53l0x_api.c **** 	/* Get default parameters */
 412:Api\core\src/vl53l0x_api.c **** 	Status = VL53L0X_GetDeviceParameters(Dev, &CurrentParameters);
 413:Api\core\src/vl53l0x_api.c **** 	if (Status == VL53L0X_ERROR_NONE) {
 414:Api\core\src/vl53l0x_api.c **** 		/* initialize PAL values */
 415:Api\core\src/vl53l0x_api.c **** 		CurrentParameters.DeviceMode = VL53L0X_DEVICEMODE_SINGLE_RANGING;
 416:Api\core\src/vl53l0x_api.c **** 		CurrentParameters.HistogramMode = VL53L0X_HISTOGRAMMODE_DISABLED;
 417:Api\core\src/vl53l0x_api.c **** 		PALDevDataSet(Dev, CurrentParameters, CurrentParameters);
 418:Api\core\src/vl53l0x_api.c **** 	}
 419:Api\core\src/vl53l0x_api.c **** 
 420:Api\core\src/vl53l0x_api.c **** 	/* Sigma estimator variable */
 421:Api\core\src/vl53l0x_api.c **** 	PALDevDataSet(Dev, SigmaEstRefArray, 100);
 422:Api\core\src/vl53l0x_api.c **** 	PALDevDataSet(Dev, SigmaEstEffPulseWidth, 900);
 423:Api\core\src/vl53l0x_api.c **** 	PALDevDataSet(Dev, SigmaEstEffAmbWidth, 500);
 424:Api\core\src/vl53l0x_api.c **** 	PALDevDataSet(Dev, targetRefRate, 0x0A00); /* 20 MCPS in 9:7 format */
 425:Api\core\src/vl53l0x_api.c **** 
 426:Api\core\src/vl53l0x_api.c **** 	/* Use internal default settings */
 427:Api\core\src/vl53l0x_api.c **** 	PALDevDataSet(Dev, UseInternalTuningSettings, 1);
 428:Api\core\src/vl53l0x_api.c **** 
 429:Api\core\src/vl53l0x_api.c **** 	Status |= VL53L0X_WrByte(Dev, 0x80, 0x01);
 430:Api\core\src/vl53l0x_api.c **** 	Status |= VL53L0X_WrByte(Dev, 0xFF, 0x01);
 431:Api\core\src/vl53l0x_api.c **** 	Status |= VL53L0X_WrByte(Dev, 0x00, 0x00);
 432:Api\core\src/vl53l0x_api.c **** 	Status |= VL53L0X_RdByte(Dev, 0x91, &StopVariable);
 433:Api\core\src/vl53l0x_api.c **** 	PALDevDataSet(Dev, StopVariable, StopVariable);
 434:Api\core\src/vl53l0x_api.c **** 	Status |= VL53L0X_WrByte(Dev, 0x00, 0x01);
 435:Api\core\src/vl53l0x_api.c **** 	Status |= VL53L0X_WrByte(Dev, 0xFF, 0x00);
 436:Api\core\src/vl53l0x_api.c **** 	Status |= VL53L0X_WrByte(Dev, 0x80, 0x00);
 437:Api\core\src/vl53l0x_api.c **** 
 438:Api\core\src/vl53l0x_api.c **** 	/* Enable all check */
 439:Api\core\src/vl53l0x_api.c **** 	for (i = 0; i < VL53L0X_CHECKENABLE_NUMBER_OF_CHECKS; i++) {
 440:Api\core\src/vl53l0x_api.c **** 		if (Status == VL53L0X_ERROR_NONE)
 441:Api\core\src/vl53l0x_api.c **** 			Status |= VL53L0X_SetLimitCheckEnable(Dev, i, 1);
 442:Api\core\src/vl53l0x_api.c **** 		else
 443:Api\core\src/vl53l0x_api.c **** 			break;
 444:Api\core\src/vl53l0x_api.c **** 
 445:Api\core\src/vl53l0x_api.c **** 	}
 446:Api\core\src/vl53l0x_api.c **** 
 447:Api\core\src/vl53l0x_api.c **** 	/* Disable the following checks */
 448:Api\core\src/vl53l0x_api.c **** 	if (Status == VL53L0X_ERROR_NONE)
 449:Api\core\src/vl53l0x_api.c **** 		Status = VL53L0X_SetLimitCheckEnable(Dev,
 450:Api\core\src/vl53l0x_api.c **** 			VL53L0X_CHECKENABLE_SIGNAL_REF_CLIP, 0);
 451:Api\core\src/vl53l0x_api.c **** 
 452:Api\core\src/vl53l0x_api.c **** 	if (Status == VL53L0X_ERROR_NONE)
 453:Api\core\src/vl53l0x_api.c **** 		Status = VL53L0X_SetLimitCheckEnable(Dev,
 454:Api\core\src/vl53l0x_api.c **** 			VL53L0X_CHECKENABLE_RANGE_IGNORE_THRESHOLD, 0);
 455:Api\core\src/vl53l0x_api.c **** 
 456:Api\core\src/vl53l0x_api.c **** 	if (Status == VL53L0X_ERROR_NONE)
 457:Api\core\src/vl53l0x_api.c **** 		Status = VL53L0X_SetLimitCheckEnable(Dev,
 458:Api\core\src/vl53l0x_api.c **** 			VL53L0X_CHECKENABLE_SIGNAL_RATE_MSRC, 0);
 459:Api\core\src/vl53l0x_api.c **** 
 460:Api\core\src/vl53l0x_api.c **** 	if (Status == VL53L0X_ERROR_NONE)
 461:Api\core\src/vl53l0x_api.c **** 		Status = VL53L0X_SetLimitCheckEnable(Dev,
 462:Api\core\src/vl53l0x_api.c **** 			VL53L0X_CHECKENABLE_SIGNAL_RATE_PRE_RANGE, 0);
 463:Api\core\src/vl53l0x_api.c **** 
ARM GAS  C:\Users\Rajesh\AppData\Local\Temp\cc8CcU56.s 			page 21


 464:Api\core\src/vl53l0x_api.c **** 	/* Limit default values */
 465:Api\core\src/vl53l0x_api.c **** 	if (Status == VL53L0X_ERROR_NONE) {
 466:Api\core\src/vl53l0x_api.c **** 		Status = VL53L0X_SetLimitCheckValue(Dev,
 467:Api\core\src/vl53l0x_api.c **** 			VL53L0X_CHECKENABLE_SIGMA_FINAL_RANGE,
 468:Api\core\src/vl53l0x_api.c **** 				(FixPoint1616_t)(18 * 65536));
 469:Api\core\src/vl53l0x_api.c **** 	}
 470:Api\core\src/vl53l0x_api.c **** 	if (Status == VL53L0X_ERROR_NONE) {
 471:Api\core\src/vl53l0x_api.c **** 		Status = VL53L0X_SetLimitCheckValue(Dev,
 472:Api\core\src/vl53l0x_api.c **** 			VL53L0X_CHECKENABLE_SIGNAL_RATE_FINAL_RANGE,
 473:Api\core\src/vl53l0x_api.c **** 				(FixPoint1616_t)(25 * 65536 / 100));
 474:Api\core\src/vl53l0x_api.c **** 				/* 0.25 * 65536 */
 475:Api\core\src/vl53l0x_api.c **** 	}
 476:Api\core\src/vl53l0x_api.c **** 
 477:Api\core\src/vl53l0x_api.c **** 	if (Status == VL53L0X_ERROR_NONE) {
 478:Api\core\src/vl53l0x_api.c **** 		Status = VL53L0X_SetLimitCheckValue(Dev,
 479:Api\core\src/vl53l0x_api.c **** 			VL53L0X_CHECKENABLE_SIGNAL_REF_CLIP,
 480:Api\core\src/vl53l0x_api.c **** 				(FixPoint1616_t)(35 * 65536));
 481:Api\core\src/vl53l0x_api.c **** 	}
 482:Api\core\src/vl53l0x_api.c **** 
 483:Api\core\src/vl53l0x_api.c **** 	if (Status == VL53L0X_ERROR_NONE) {
 484:Api\core\src/vl53l0x_api.c **** 		Status = VL53L0X_SetLimitCheckValue(Dev,
 485:Api\core\src/vl53l0x_api.c **** 			VL53L0X_CHECKENABLE_RANGE_IGNORE_THRESHOLD,
 486:Api\core\src/vl53l0x_api.c **** 				(FixPoint1616_t)(0 * 65536));
 487:Api\core\src/vl53l0x_api.c **** 	}
 488:Api\core\src/vl53l0x_api.c **** 
 489:Api\core\src/vl53l0x_api.c **** 	if (Status == VL53L0X_ERROR_NONE) {
 490:Api\core\src/vl53l0x_api.c **** 
 491:Api\core\src/vl53l0x_api.c **** 		PALDevDataSet(Dev, SequenceConfig, 0xFF);
 492:Api\core\src/vl53l0x_api.c **** 		Status = VL53L0X_WrByte(Dev, VL53L0X_REG_SYSTEM_SEQUENCE_CONFIG,
 493:Api\core\src/vl53l0x_api.c **** 			0xFF);
 494:Api\core\src/vl53l0x_api.c **** 
 495:Api\core\src/vl53l0x_api.c **** 		/* Set PAL state to tell that we are waiting for call to
 496:Api\core\src/vl53l0x_api.c **** 		 * VL53L0X_StaticInit */
 497:Api\core\src/vl53l0x_api.c **** 		PALDevDataSet(Dev, PalState, VL53L0X_STATE_WAIT_STATICINIT);
 498:Api\core\src/vl53l0x_api.c **** 	}
 499:Api\core\src/vl53l0x_api.c **** 
 500:Api\core\src/vl53l0x_api.c **** 	if (Status == VL53L0X_ERROR_NONE)
 501:Api\core\src/vl53l0x_api.c **** 		VL53L0X_SETDEVICESPECIFICPARAMETER(Dev, RefSpadsInitialised, 0);
 502:Api\core\src/vl53l0x_api.c **** 
 503:Api\core\src/vl53l0x_api.c **** 
 504:Api\core\src/vl53l0x_api.c **** 	LOG_FUNCTION_END(Status);
 505:Api\core\src/vl53l0x_api.c **** 	return Status;
 506:Api\core\src/vl53l0x_api.c **** }
 507:Api\core\src/vl53l0x_api.c **** 
 508:Api\core\src/vl53l0x_api.c **** VL53L0X_Error VL53L0X_SetTuningSettingBuffer(VL53L0X_DEV Dev,
 509:Api\core\src/vl53l0x_api.c **** 	uint8_t *pTuningSettingBuffer, uint8_t UseInternalTuningSettings)
 510:Api\core\src/vl53l0x_api.c **** {
 676              		.loc 1 510 0
 677              		.cfi_startproc
 678              		@ args = 0, pretend = 0, frame = 0
 679              		@ frame_needed = 0, uses_anonymous_args = 0
 680              		@ link register save eliminated.
 681              	.LVL66:
 511:Api\core\src/vl53l0x_api.c **** 	VL53L0X_Error Status = VL53L0X_ERROR_NONE;
 512:Api\core\src/vl53l0x_api.c **** 
 513:Api\core\src/vl53l0x_api.c **** 	LOG_FUNCTION_START("");
 514:Api\core\src/vl53l0x_api.c **** 
ARM GAS  C:\Users\Rajesh\AppData\Local\Temp\cc8CcU56.s 			page 22


 515:Api\core\src/vl53l0x_api.c **** 	if (UseInternalTuningSettings == 1) {
 682              		.loc 1 515 0
 683 0000 012A     		cmp	r2, #1
 684 0002 04D1     		bne	.L28
 516:Api\core\src/vl53l0x_api.c **** 		/* Force use internal settings */
 517:Api\core\src/vl53l0x_api.c **** 		PALDevDataSet(Dev, UseInternalTuningSettings, 1);
 685              		.loc 1 517 0
 686 0004 A823     		movs	r3, #168
 687 0006 5B00     		lsls	r3, r3, #1
 688 0008 C254     		strb	r2, [r0, r3]
 511:Api\core\src/vl53l0x_api.c **** 	VL53L0X_Error Status = VL53L0X_ERROR_NONE;
 689              		.loc 1 511 0
 690 000a 0020     		movs	r0, #0
 691              	.LVL67:
 692 000c 0CE0     		b	.L29
 693              	.LVL68:
 694              	.L28:
 518:Api\core\src/vl53l0x_api.c **** 	} else {
 519:Api\core\src/vl53l0x_api.c **** 
 520:Api\core\src/vl53l0x_api.c **** 		/* check that the first byte is not 0 */
 521:Api\core\src/vl53l0x_api.c **** 		if (*pTuningSettingBuffer != 0) {
 695              		.loc 1 521 0
 696 000e 0B78     		ldrb	r3, [r1]
 697 0010 002B     		cmp	r3, #0
 698 0012 07D0     		beq	.L30
 522:Api\core\src/vl53l0x_api.c **** 			PALDevDataSet(Dev, pTuningSettingsPointer,
 699              		.loc 1 522 0
 700 0014 A623     		movs	r3, #166
 701 0016 5B00     		lsls	r3, r3, #1
 702 0018 C150     		str	r1, [r0, r3]
 523:Api\core\src/vl53l0x_api.c **** 				pTuningSettingBuffer);
 524:Api\core\src/vl53l0x_api.c **** 			PALDevDataSet(Dev, UseInternalTuningSettings, 0);
 703              		.loc 1 524 0
 704 001a 0022     		movs	r2, #0
 705              	.LVL69:
 706 001c 0433     		adds	r3, r3, #4
 707 001e C254     		strb	r2, [r0, r3]
 511:Api\core\src/vl53l0x_api.c **** 
 708              		.loc 1 511 0
 709 0020 0020     		movs	r0, #0
 710              	.LVL70:
 711 0022 01E0     		b	.L29
 712              	.LVL71:
 713              	.L30:
 525:Api\core\src/vl53l0x_api.c **** 
 526:Api\core\src/vl53l0x_api.c **** 		} else {
 527:Api\core\src/vl53l0x_api.c **** 			Status = VL53L0X_ERROR_INVALID_PARAMS;
 714              		.loc 1 527 0
 715 0024 0420     		movs	r0, #4
 716              	.LVL72:
 717 0026 4042     		rsbs	r0, r0, #0
 718              	.LVL73:
 719              	.L29:
 528:Api\core\src/vl53l0x_api.c **** 		}
 529:Api\core\src/vl53l0x_api.c **** 	}
 530:Api\core\src/vl53l0x_api.c **** 
 531:Api\core\src/vl53l0x_api.c **** 	LOG_FUNCTION_END(Status);
ARM GAS  C:\Users\Rajesh\AppData\Local\Temp\cc8CcU56.s 			page 23


 532:Api\core\src/vl53l0x_api.c **** 	return Status;
 533:Api\core\src/vl53l0x_api.c **** }
 720              		.loc 1 533 0
 721              		@ sp needed
 722 0028 7047     		bx	lr
 723              		.cfi_endproc
 724              	.LFE22:
 725              		.size	VL53L0X_SetTuningSettingBuffer, .-VL53L0X_SetTuningSettingBuffer
 726 002a C046     		.section	.text.VL53L0X_GetTuningSettingBuffer,"ax",%progbits
 727              		.align	2
 728              		.global	VL53L0X_GetTuningSettingBuffer
 729              		.code	16
 730              		.thumb_func
 731              		.type	VL53L0X_GetTuningSettingBuffer, %function
 732              	VL53L0X_GetTuningSettingBuffer:
 733              	.LFB23:
 534:Api\core\src/vl53l0x_api.c **** 
 535:Api\core\src/vl53l0x_api.c **** VL53L0X_Error VL53L0X_GetTuningSettingBuffer(VL53L0X_DEV Dev,
 536:Api\core\src/vl53l0x_api.c **** 	uint8_t **ppTuningSettingBuffer, uint8_t *pUseInternalTuningSettings)
 537:Api\core\src/vl53l0x_api.c **** {
 734              		.loc 1 537 0
 735              		.cfi_startproc
 736              		@ args = 0, pretend = 0, frame = 0
 737              		@ frame_needed = 0, uses_anonymous_args = 0
 738              		@ link register save eliminated.
 739              	.LVL74:
 538:Api\core\src/vl53l0x_api.c **** 	VL53L0X_Error Status = VL53L0X_ERROR_NONE;
 539:Api\core\src/vl53l0x_api.c **** 
 540:Api\core\src/vl53l0x_api.c **** 	LOG_FUNCTION_START("");
 541:Api\core\src/vl53l0x_api.c **** 
 542:Api\core\src/vl53l0x_api.c **** 	*ppTuningSettingBuffer = PALDevDataGet(Dev, pTuningSettingsPointer);
 740              		.loc 1 542 0
 741 0000 A623     		movs	r3, #166
 742 0002 5B00     		lsls	r3, r3, #1
 743 0004 C358     		ldr	r3, [r0, r3]
 744 0006 0B60     		str	r3, [r1]
 543:Api\core\src/vl53l0x_api.c **** 	*pUseInternalTuningSettings = PALDevDataGet(Dev,
 745              		.loc 1 543 0
 746 0008 A823     		movs	r3, #168
 747 000a 5B00     		lsls	r3, r3, #1
 748 000c C35C     		ldrb	r3, [r0, r3]
 749 000e 1370     		strb	r3, [r2]
 544:Api\core\src/vl53l0x_api.c **** 		UseInternalTuningSettings);
 545:Api\core\src/vl53l0x_api.c **** 
 546:Api\core\src/vl53l0x_api.c **** 	LOG_FUNCTION_END(Status);
 547:Api\core\src/vl53l0x_api.c **** 	return Status;
 548:Api\core\src/vl53l0x_api.c **** }
 750              		.loc 1 548 0
 751 0010 0020     		movs	r0, #0
 752              	.LVL75:
 753              		@ sp needed
 754 0012 7047     		bx	lr
 755              		.cfi_endproc
 756              	.LFE23:
 757              		.size	VL53L0X_GetTuningSettingBuffer, .-VL53L0X_GetTuningSettingBuffer
 758              		.section	.text.VL53L0X_WaitDeviceBooted,"ax",%progbits
 759              		.align	2
ARM GAS  C:\Users\Rajesh\AppData\Local\Temp\cc8CcU56.s 			page 24


 760              		.global	VL53L0X_WaitDeviceBooted
 761              		.code	16
 762              		.thumb_func
 763              		.type	VL53L0X_WaitDeviceBooted, %function
 764              	VL53L0X_WaitDeviceBooted:
 765              	.LFB25:
 549:Api\core\src/vl53l0x_api.c **** 
 550:Api\core\src/vl53l0x_api.c **** VL53L0X_Error VL53L0X_StaticInit(VL53L0X_DEV Dev)
 551:Api\core\src/vl53l0x_api.c **** {
 552:Api\core\src/vl53l0x_api.c **** 	VL53L0X_Error Status = VL53L0X_ERROR_NONE;
 553:Api\core\src/vl53l0x_api.c **** 	VL53L0X_DeviceParameters_t CurrentParameters = {0};
 554:Api\core\src/vl53l0x_api.c **** 	uint8_t *pTuningSettingBuffer;
 555:Api\core\src/vl53l0x_api.c **** 	uint16_t tempword = 0;
 556:Api\core\src/vl53l0x_api.c **** 	uint8_t tempbyte = 0;
 557:Api\core\src/vl53l0x_api.c **** 	uint8_t UseInternalTuningSettings = 0;
 558:Api\core\src/vl53l0x_api.c **** 	uint32_t count = 0;
 559:Api\core\src/vl53l0x_api.c **** 	uint8_t isApertureSpads = 0;
 560:Api\core\src/vl53l0x_api.c **** 	uint32_t refSpadCount = 0;
 561:Api\core\src/vl53l0x_api.c **** 	uint8_t ApertureSpads = 0;
 562:Api\core\src/vl53l0x_api.c **** 	uint8_t vcselPulsePeriodPCLK;
 563:Api\core\src/vl53l0x_api.c **** 	uint32_t seqTimeoutMicroSecs;
 564:Api\core\src/vl53l0x_api.c **** 
 565:Api\core\src/vl53l0x_api.c **** 	LOG_FUNCTION_START("");
 566:Api\core\src/vl53l0x_api.c **** 
 567:Api\core\src/vl53l0x_api.c **** 	Status = VL53L0X_get_info_from_device(Dev, 1);
 568:Api\core\src/vl53l0x_api.c **** 
 569:Api\core\src/vl53l0x_api.c **** 	/* set the ref spad from NVM */
 570:Api\core\src/vl53l0x_api.c **** 	count	= (uint32_t)VL53L0X_GETDEVICESPECIFICPARAMETER(Dev,
 571:Api\core\src/vl53l0x_api.c **** 		ReferenceSpadCount);
 572:Api\core\src/vl53l0x_api.c **** 	ApertureSpads = VL53L0X_GETDEVICESPECIFICPARAMETER(Dev,
 573:Api\core\src/vl53l0x_api.c **** 		ReferenceSpadType);
 574:Api\core\src/vl53l0x_api.c **** 
 575:Api\core\src/vl53l0x_api.c **** 	/* NVM value invalid */
 576:Api\core\src/vl53l0x_api.c **** 	if ((ApertureSpads > 1) ||
 577:Api\core\src/vl53l0x_api.c **** 		((ApertureSpads == 1) && (count > 32)) ||
 578:Api\core\src/vl53l0x_api.c **** 		((ApertureSpads == 0) && (count > 12)))
 579:Api\core\src/vl53l0x_api.c **** 		Status = VL53L0X_perform_ref_spad_management(Dev, &refSpadCount,
 580:Api\core\src/vl53l0x_api.c **** 			&isApertureSpads);
 581:Api\core\src/vl53l0x_api.c **** 	else
 582:Api\core\src/vl53l0x_api.c **** 		Status = VL53L0X_set_reference_spads(Dev, count, ApertureSpads);
 583:Api\core\src/vl53l0x_api.c **** 
 584:Api\core\src/vl53l0x_api.c **** 
 585:Api\core\src/vl53l0x_api.c **** 	/* Initialize tuning settings buffer to prevent compiler warning. */
 586:Api\core\src/vl53l0x_api.c **** 	pTuningSettingBuffer = DefaultTuningSettings;
 587:Api\core\src/vl53l0x_api.c **** 
 588:Api\core\src/vl53l0x_api.c **** 	if (Status == VL53L0X_ERROR_NONE) {
 589:Api\core\src/vl53l0x_api.c **** 		UseInternalTuningSettings = PALDevDataGet(Dev,
 590:Api\core\src/vl53l0x_api.c **** 			UseInternalTuningSettings);
 591:Api\core\src/vl53l0x_api.c **** 
 592:Api\core\src/vl53l0x_api.c **** 		if (UseInternalTuningSettings == 0)
 593:Api\core\src/vl53l0x_api.c **** 			pTuningSettingBuffer = PALDevDataGet(Dev,
 594:Api\core\src/vl53l0x_api.c **** 				pTuningSettingsPointer);
 595:Api\core\src/vl53l0x_api.c **** 		else
 596:Api\core\src/vl53l0x_api.c **** 			pTuningSettingBuffer = DefaultTuningSettings;
 597:Api\core\src/vl53l0x_api.c **** 
 598:Api\core\src/vl53l0x_api.c **** 	}
 599:Api\core\src/vl53l0x_api.c **** 
ARM GAS  C:\Users\Rajesh\AppData\Local\Temp\cc8CcU56.s 			page 25


 600:Api\core\src/vl53l0x_api.c **** 	if (Status == VL53L0X_ERROR_NONE)
 601:Api\core\src/vl53l0x_api.c **** 		Status = VL53L0X_load_tuning_settings(Dev, pTuningSettingBuffer);
 602:Api\core\src/vl53l0x_api.c **** 
 603:Api\core\src/vl53l0x_api.c **** 
 604:Api\core\src/vl53l0x_api.c **** 	/* Set interrupt config to new sample ready */
 605:Api\core\src/vl53l0x_api.c **** 	if (Status == VL53L0X_ERROR_NONE) {
 606:Api\core\src/vl53l0x_api.c **** 		Status = VL53L0X_SetGpioConfig(Dev, 0, 0,
 607:Api\core\src/vl53l0x_api.c **** 		VL53L0X_REG_SYSTEM_INTERRUPT_GPIO_NEW_SAMPLE_READY,
 608:Api\core\src/vl53l0x_api.c **** 		VL53L0X_INTERRUPTPOLARITY_LOW);
 609:Api\core\src/vl53l0x_api.c **** 	}
 610:Api\core\src/vl53l0x_api.c **** 
 611:Api\core\src/vl53l0x_api.c **** 	if (Status == VL53L0X_ERROR_NONE) {
 612:Api\core\src/vl53l0x_api.c **** 		Status = VL53L0X_WrByte(Dev, 0xFF, 0x01);
 613:Api\core\src/vl53l0x_api.c **** 		Status |= VL53L0X_RdWord(Dev, 0x84, &tempword);
 614:Api\core\src/vl53l0x_api.c **** 		Status |= VL53L0X_WrByte(Dev, 0xFF, 0x00);
 615:Api\core\src/vl53l0x_api.c **** 	}
 616:Api\core\src/vl53l0x_api.c **** 
 617:Api\core\src/vl53l0x_api.c **** 	if (Status == VL53L0X_ERROR_NONE) {
 618:Api\core\src/vl53l0x_api.c **** 		VL53L0X_SETDEVICESPECIFICPARAMETER(Dev, OscFrequencyMHz,
 619:Api\core\src/vl53l0x_api.c **** 			VL53L0X_FIXPOINT412TOFIXPOINT1616(tempword));
 620:Api\core\src/vl53l0x_api.c **** 	}
 621:Api\core\src/vl53l0x_api.c **** 
 622:Api\core\src/vl53l0x_api.c **** 	/* After static init, some device parameters may be changed,
 623:Api\core\src/vl53l0x_api.c **** 	 * so update them */
 624:Api\core\src/vl53l0x_api.c **** 	if (Status == VL53L0X_ERROR_NONE)
 625:Api\core\src/vl53l0x_api.c **** 		Status = VL53L0X_GetDeviceParameters(Dev, &CurrentParameters);
 626:Api\core\src/vl53l0x_api.c **** 
 627:Api\core\src/vl53l0x_api.c **** 
 628:Api\core\src/vl53l0x_api.c **** 	if (Status == VL53L0X_ERROR_NONE) {
 629:Api\core\src/vl53l0x_api.c **** 		Status = VL53L0X_GetFractionEnable(Dev, &tempbyte);
 630:Api\core\src/vl53l0x_api.c **** 		if (Status == VL53L0X_ERROR_NONE)
 631:Api\core\src/vl53l0x_api.c **** 			PALDevDataSet(Dev, RangeFractionalEnable, tempbyte);
 632:Api\core\src/vl53l0x_api.c **** 
 633:Api\core\src/vl53l0x_api.c **** 	}
 634:Api\core\src/vl53l0x_api.c **** 
 635:Api\core\src/vl53l0x_api.c **** 	if (Status == VL53L0X_ERROR_NONE)
 636:Api\core\src/vl53l0x_api.c **** 		PALDevDataSet(Dev, CurrentParameters, CurrentParameters);
 637:Api\core\src/vl53l0x_api.c **** 
 638:Api\core\src/vl53l0x_api.c **** 
 639:Api\core\src/vl53l0x_api.c **** 	/* read the sequence config and save it */
 640:Api\core\src/vl53l0x_api.c **** 	if (Status == VL53L0X_ERROR_NONE) {
 641:Api\core\src/vl53l0x_api.c **** 		Status = VL53L0X_RdByte(Dev,
 642:Api\core\src/vl53l0x_api.c **** 		VL53L0X_REG_SYSTEM_SEQUENCE_CONFIG, &tempbyte);
 643:Api\core\src/vl53l0x_api.c **** 		if (Status == VL53L0X_ERROR_NONE)
 644:Api\core\src/vl53l0x_api.c **** 			PALDevDataSet(Dev, SequenceConfig, tempbyte);
 645:Api\core\src/vl53l0x_api.c **** 
 646:Api\core\src/vl53l0x_api.c **** 	}
 647:Api\core\src/vl53l0x_api.c **** 
 648:Api\core\src/vl53l0x_api.c **** 	/* Disable MSRC and TCC by default */
 649:Api\core\src/vl53l0x_api.c **** 	if (Status == VL53L0X_ERROR_NONE)
 650:Api\core\src/vl53l0x_api.c **** 		Status = VL53L0X_SetSequenceStepEnable(Dev,
 651:Api\core\src/vl53l0x_api.c **** 					VL53L0X_SEQUENCESTEP_TCC, 0);
 652:Api\core\src/vl53l0x_api.c **** 
 653:Api\core\src/vl53l0x_api.c **** 
 654:Api\core\src/vl53l0x_api.c **** 	if (Status == VL53L0X_ERROR_NONE)
 655:Api\core\src/vl53l0x_api.c **** 		Status = VL53L0X_SetSequenceStepEnable(Dev,
 656:Api\core\src/vl53l0x_api.c **** 		VL53L0X_SEQUENCESTEP_MSRC, 0);
ARM GAS  C:\Users\Rajesh\AppData\Local\Temp\cc8CcU56.s 			page 26


 657:Api\core\src/vl53l0x_api.c **** 
 658:Api\core\src/vl53l0x_api.c **** 
 659:Api\core\src/vl53l0x_api.c **** 	/* Set PAL State to standby */
 660:Api\core\src/vl53l0x_api.c **** 	if (Status == VL53L0X_ERROR_NONE)
 661:Api\core\src/vl53l0x_api.c **** 		PALDevDataSet(Dev, PalState, VL53L0X_STATE_IDLE);
 662:Api\core\src/vl53l0x_api.c **** 
 663:Api\core\src/vl53l0x_api.c **** 
 664:Api\core\src/vl53l0x_api.c **** 
 665:Api\core\src/vl53l0x_api.c **** 	/* Store pre-range vcsel period */
 666:Api\core\src/vl53l0x_api.c **** 	if (Status == VL53L0X_ERROR_NONE) {
 667:Api\core\src/vl53l0x_api.c **** 		Status = VL53L0X_GetVcselPulsePeriod(
 668:Api\core\src/vl53l0x_api.c **** 			Dev,
 669:Api\core\src/vl53l0x_api.c **** 			VL53L0X_VCSEL_PERIOD_PRE_RANGE,
 670:Api\core\src/vl53l0x_api.c **** 			&vcselPulsePeriodPCLK);
 671:Api\core\src/vl53l0x_api.c **** 	}
 672:Api\core\src/vl53l0x_api.c **** 
 673:Api\core\src/vl53l0x_api.c **** 	if (Status == VL53L0X_ERROR_NONE) {
 674:Api\core\src/vl53l0x_api.c **** 			VL53L0X_SETDEVICESPECIFICPARAMETER(
 675:Api\core\src/vl53l0x_api.c **** 				Dev,
 676:Api\core\src/vl53l0x_api.c **** 				PreRangeVcselPulsePeriod,
 677:Api\core\src/vl53l0x_api.c **** 				vcselPulsePeriodPCLK);
 678:Api\core\src/vl53l0x_api.c **** 	}
 679:Api\core\src/vl53l0x_api.c **** 
 680:Api\core\src/vl53l0x_api.c **** 	/* Store final-range vcsel period */
 681:Api\core\src/vl53l0x_api.c **** 	if (Status == VL53L0X_ERROR_NONE) {
 682:Api\core\src/vl53l0x_api.c **** 		Status = VL53L0X_GetVcselPulsePeriod(
 683:Api\core\src/vl53l0x_api.c **** 			Dev,
 684:Api\core\src/vl53l0x_api.c **** 			VL53L0X_VCSEL_PERIOD_FINAL_RANGE,
 685:Api\core\src/vl53l0x_api.c **** 			&vcselPulsePeriodPCLK);
 686:Api\core\src/vl53l0x_api.c **** 	}
 687:Api\core\src/vl53l0x_api.c **** 
 688:Api\core\src/vl53l0x_api.c **** 	if (Status == VL53L0X_ERROR_NONE) {
 689:Api\core\src/vl53l0x_api.c **** 			VL53L0X_SETDEVICESPECIFICPARAMETER(
 690:Api\core\src/vl53l0x_api.c **** 				Dev,
 691:Api\core\src/vl53l0x_api.c **** 				FinalRangeVcselPulsePeriod,
 692:Api\core\src/vl53l0x_api.c **** 				vcselPulsePeriodPCLK);
 693:Api\core\src/vl53l0x_api.c **** 	}
 694:Api\core\src/vl53l0x_api.c **** 
 695:Api\core\src/vl53l0x_api.c **** 	/* Store pre-range timeout */
 696:Api\core\src/vl53l0x_api.c **** 	if (Status == VL53L0X_ERROR_NONE) {
 697:Api\core\src/vl53l0x_api.c **** 		Status = get_sequence_step_timeout(
 698:Api\core\src/vl53l0x_api.c **** 			Dev,
 699:Api\core\src/vl53l0x_api.c **** 			VL53L0X_SEQUENCESTEP_PRE_RANGE,
 700:Api\core\src/vl53l0x_api.c **** 			&seqTimeoutMicroSecs);
 701:Api\core\src/vl53l0x_api.c **** 	}
 702:Api\core\src/vl53l0x_api.c **** 
 703:Api\core\src/vl53l0x_api.c **** 	if (Status == VL53L0X_ERROR_NONE) {
 704:Api\core\src/vl53l0x_api.c **** 		VL53L0X_SETDEVICESPECIFICPARAMETER(
 705:Api\core\src/vl53l0x_api.c **** 			Dev,
 706:Api\core\src/vl53l0x_api.c **** 			PreRangeTimeoutMicroSecs,
 707:Api\core\src/vl53l0x_api.c **** 			seqTimeoutMicroSecs);
 708:Api\core\src/vl53l0x_api.c **** 	}
 709:Api\core\src/vl53l0x_api.c **** 
 710:Api\core\src/vl53l0x_api.c **** 	/* Store final-range timeout */
 711:Api\core\src/vl53l0x_api.c **** 	if (Status == VL53L0X_ERROR_NONE) {
 712:Api\core\src/vl53l0x_api.c **** 		Status = get_sequence_step_timeout(
 713:Api\core\src/vl53l0x_api.c **** 			Dev,
ARM GAS  C:\Users\Rajesh\AppData\Local\Temp\cc8CcU56.s 			page 27


 714:Api\core\src/vl53l0x_api.c **** 			VL53L0X_SEQUENCESTEP_FINAL_RANGE,
 715:Api\core\src/vl53l0x_api.c **** 			&seqTimeoutMicroSecs);
 716:Api\core\src/vl53l0x_api.c **** 	}
 717:Api\core\src/vl53l0x_api.c **** 
 718:Api\core\src/vl53l0x_api.c **** 	if (Status == VL53L0X_ERROR_NONE) {
 719:Api\core\src/vl53l0x_api.c **** 		VL53L0X_SETDEVICESPECIFICPARAMETER(
 720:Api\core\src/vl53l0x_api.c **** 			Dev,
 721:Api\core\src/vl53l0x_api.c **** 			FinalRangeTimeoutMicroSecs,
 722:Api\core\src/vl53l0x_api.c **** 			seqTimeoutMicroSecs);
 723:Api\core\src/vl53l0x_api.c **** 	}
 724:Api\core\src/vl53l0x_api.c **** 
 725:Api\core\src/vl53l0x_api.c **** 	LOG_FUNCTION_END(Status);
 726:Api\core\src/vl53l0x_api.c **** 	return Status;
 727:Api\core\src/vl53l0x_api.c **** }
 728:Api\core\src/vl53l0x_api.c **** 
 729:Api\core\src/vl53l0x_api.c **** VL53L0X_Error VL53L0X_WaitDeviceBooted(VL53L0X_DEV Dev)
 730:Api\core\src/vl53l0x_api.c **** {
 766              		.loc 1 730 0
 767              		.cfi_startproc
 768              		@ args = 0, pretend = 0, frame = 0
 769              		@ frame_needed = 0, uses_anonymous_args = 0
 770              		@ link register save eliminated.
 771              	.LVL76:
 731:Api\core\src/vl53l0x_api.c **** 	VL53L0X_Error Status = VL53L0X_ERROR_NOT_IMPLEMENTED;
 732:Api\core\src/vl53l0x_api.c **** 	LOG_FUNCTION_START("");
 733:Api\core\src/vl53l0x_api.c **** 
 734:Api\core\src/vl53l0x_api.c **** 	/* not implemented on VL53L0X */
 735:Api\core\src/vl53l0x_api.c **** 
 736:Api\core\src/vl53l0x_api.c **** 	LOG_FUNCTION_END(Status);
 737:Api\core\src/vl53l0x_api.c **** 	return Status;
 738:Api\core\src/vl53l0x_api.c **** }
 772              		.loc 1 738 0
 773 0000 6320     		movs	r0, #99
 774              	.LVL77:
 775 0002 4042     		rsbs	r0, r0, #0
 776              		@ sp needed
 777 0004 7047     		bx	lr
 778              		.cfi_endproc
 779              	.LFE25:
 780              		.size	VL53L0X_WaitDeviceBooted, .-VL53L0X_WaitDeviceBooted
 781 0006 C046     		.section	.text.VL53L0X_ResetDevice,"ax",%progbits
 782              		.align	2
 783              		.global	VL53L0X_ResetDevice
 784              		.code	16
 785              		.thumb_func
 786              		.type	VL53L0X_ResetDevice, %function
 787              	VL53L0X_ResetDevice:
 788              	.LFB26:
 739:Api\core\src/vl53l0x_api.c **** 
 740:Api\core\src/vl53l0x_api.c **** VL53L0X_Error VL53L0X_ResetDevice(VL53L0X_DEV Dev)
 741:Api\core\src/vl53l0x_api.c **** {
 789              		.loc 1 741 0
 790              		.cfi_startproc
 791              		@ args = 0, pretend = 0, frame = 8
 792              		@ frame_needed = 0, uses_anonymous_args = 0
 793              	.LVL78:
 794 0000 70B5     		push	{r4, r5, r6, lr}
ARM GAS  C:\Users\Rajesh\AppData\Local\Temp\cc8CcU56.s 			page 28


 795              		.cfi_def_cfa_offset 16
 796              		.cfi_offset 4, -16
 797              		.cfi_offset 5, -12
 798              		.cfi_offset 6, -8
 799              		.cfi_offset 14, -4
 800 0002 82B0     		sub	sp, sp, #8
 801              		.cfi_def_cfa_offset 24
 802 0004 0400     		movs	r4, r0
 803              	.LVL79:
 742:Api\core\src/vl53l0x_api.c **** 	VL53L0X_Error Status = VL53L0X_ERROR_NONE;
 743:Api\core\src/vl53l0x_api.c **** 	uint8_t Byte;
 744:Api\core\src/vl53l0x_api.c **** 	LOG_FUNCTION_START("");
 745:Api\core\src/vl53l0x_api.c **** 
 746:Api\core\src/vl53l0x_api.c **** 	/* Set reset bit */
 747:Api\core\src/vl53l0x_api.c **** 	Status = VL53L0X_WrByte(Dev, VL53L0X_REG_SOFT_RESET_GO2_SOFT_RESET_N,
 804              		.loc 1 747 0
 805 0006 0022     		movs	r2, #0
 806 0008 BF21     		movs	r1, #191
 807 000a FFF7FEFF 		bl	VL53L0X_WrByte
 808              	.LVL80:
 748:Api\core\src/vl53l0x_api.c **** 		0x00);
 749:Api\core\src/vl53l0x_api.c **** 
 750:Api\core\src/vl53l0x_api.c **** 	/* Wait for some time */
 751:Api\core\src/vl53l0x_api.c **** 	if (Status == VL53L0X_ERROR_NONE) {
 809              		.loc 1 751 0
 810 000e 0028     		cmp	r0, #0
 811 0010 09D1     		bne	.L34
 812              	.LVL81:
 813              	.L35:
 752:Api\core\src/vl53l0x_api.c **** 		do {
 753:Api\core\src/vl53l0x_api.c **** 			Status = VL53L0X_RdByte(Dev,
 814              		.loc 1 753 0 discriminator 1
 815 0012 6B46     		mov	r3, sp
 816 0014 DD1D     		adds	r5, r3, #7
 817 0016 2A00     		movs	r2, r5
 818 0018 C021     		movs	r1, #192
 819 001a 2000     		movs	r0, r4
 820 001c FFF7FEFF 		bl	VL53L0X_RdByte
 821              	.LVL82:
 754:Api\core\src/vl53l0x_api.c **** 			VL53L0X_REG_IDENTIFICATION_MODEL_ID, &Byte);
 755:Api\core\src/vl53l0x_api.c **** 		} while (Byte != 0x00);
 822              		.loc 1 755 0 discriminator 1
 823 0020 2B78     		ldrb	r3, [r5]
 824 0022 002B     		cmp	r3, #0
 825 0024 F5D1     		bne	.L35
 826              	.L34:
 756:Api\core\src/vl53l0x_api.c **** 	}
 757:Api\core\src/vl53l0x_api.c **** 
 758:Api\core\src/vl53l0x_api.c **** 	VL53L0X_PollingDelay(Dev);
 827              		.loc 1 758 0
 828 0026 2000     		movs	r0, r4
 829 0028 FFF7FEFF 		bl	VL53L0X_PollingDelay
 830              	.LVL83:
 759:Api\core\src/vl53l0x_api.c **** 
 760:Api\core\src/vl53l0x_api.c **** 	/* Release reset */
 761:Api\core\src/vl53l0x_api.c **** 	Status = VL53L0X_WrByte(Dev, VL53L0X_REG_SOFT_RESET_GO2_SOFT_RESET_N,
 831              		.loc 1 761 0
ARM GAS  C:\Users\Rajesh\AppData\Local\Temp\cc8CcU56.s 			page 29


 832 002c 0122     		movs	r2, #1
 833 002e BF21     		movs	r1, #191
 834 0030 2000     		movs	r0, r4
 835 0032 FFF7FEFF 		bl	VL53L0X_WrByte
 836              	.LVL84:
 837 0036 061E     		subs	r6, r0, #0
 838              	.LVL85:
 762:Api\core\src/vl53l0x_api.c **** 		0x01);
 763:Api\core\src/vl53l0x_api.c **** 
 764:Api\core\src/vl53l0x_api.c **** 	/* Wait until correct boot-up of the device */
 765:Api\core\src/vl53l0x_api.c **** 	if (Status == VL53L0X_ERROR_NONE) {
 839              		.loc 1 765 0
 840 0038 0AD1     		bne	.L36
 841              	.LVL86:
 842              	.L37:
 766:Api\core\src/vl53l0x_api.c **** 		do {
 767:Api\core\src/vl53l0x_api.c **** 			Status = VL53L0X_RdByte(Dev,
 843              		.loc 1 767 0 discriminator 1
 844 003a 6B46     		mov	r3, sp
 845 003c DD1D     		adds	r5, r3, #7
 846 003e 2A00     		movs	r2, r5
 847 0040 C021     		movs	r1, #192
 848 0042 2000     		movs	r0, r4
 849 0044 FFF7FEFF 		bl	VL53L0X_RdByte
 850              	.LVL87:
 851 0048 0600     		movs	r6, r0
 852              	.LVL88:
 768:Api\core\src/vl53l0x_api.c **** 			VL53L0X_REG_IDENTIFICATION_MODEL_ID, &Byte);
 769:Api\core\src/vl53l0x_api.c **** 		} while (Byte == 0x00);
 853              		.loc 1 769 0 discriminator 1
 854 004a 2B78     		ldrb	r3, [r5]
 855 004c 002B     		cmp	r3, #0
 856 004e F4D0     		beq	.L37
 857              	.LVL89:
 858              	.L36:
 770:Api\core\src/vl53l0x_api.c **** 	}
 771:Api\core\src/vl53l0x_api.c **** 
 772:Api\core\src/vl53l0x_api.c **** 	VL53L0X_PollingDelay(Dev);
 859              		.loc 1 772 0
 860 0050 2000     		movs	r0, r4
 861 0052 FFF7FEFF 		bl	VL53L0X_PollingDelay
 862              	.LVL90:
 773:Api\core\src/vl53l0x_api.c **** 
 774:Api\core\src/vl53l0x_api.c **** 	/* Set PAL State to VL53L0X_STATE_POWERDOWN */
 775:Api\core\src/vl53l0x_api.c **** 	if (Status == VL53L0X_ERROR_NONE)
 863              		.loc 1 775 0
 864 0056 002E     		cmp	r6, #0
 865 0058 03D1     		bne	.L38
 776:Api\core\src/vl53l0x_api.c **** 		PALDevDataSet(Dev, PalState, VL53L0X_STATE_POWERDOWN);
 866              		.loc 1 776 0
 867 005a 0022     		movs	r2, #0
 868 005c 9923     		movs	r3, #153
 869 005e 5B00     		lsls	r3, r3, #1
 870 0060 E254     		strb	r2, [r4, r3]
 871              	.L38:
 777:Api\core\src/vl53l0x_api.c **** 
 778:Api\core\src/vl53l0x_api.c **** 
ARM GAS  C:\Users\Rajesh\AppData\Local\Temp\cc8CcU56.s 			page 30


 779:Api\core\src/vl53l0x_api.c **** 	LOG_FUNCTION_END(Status);
 780:Api\core\src/vl53l0x_api.c **** 	return Status;
 781:Api\core\src/vl53l0x_api.c **** }
 872              		.loc 1 781 0
 873 0062 3000     		movs	r0, r6
 874 0064 02B0     		add	sp, sp, #8
 875              		@ sp needed
 876              	.LVL91:
 877              	.LVL92:
 878 0066 70BD     		pop	{r4, r5, r6, pc}
 879              		.cfi_endproc
 880              	.LFE26:
 881              		.size	VL53L0X_ResetDevice, .-VL53L0X_ResetDevice
 882              		.section	.text.VL53L0X_SetDeviceMode,"ax",%progbits
 883              		.align	2
 884              		.global	VL53L0X_SetDeviceMode
 885              		.code	16
 886              		.thumb_func
 887              		.type	VL53L0X_SetDeviceMode, %function
 888              	VL53L0X_SetDeviceMode:
 889              	.LFB29:
 782:Api\core\src/vl53l0x_api.c **** /* End Group PAL Init Functions */
 783:Api\core\src/vl53l0x_api.c **** 
 784:Api\core\src/vl53l0x_api.c **** /* Group PAL Parameters Functions */
 785:Api\core\src/vl53l0x_api.c **** VL53L0X_Error VL53L0X_SetDeviceParameters(VL53L0X_DEV Dev,
 786:Api\core\src/vl53l0x_api.c **** 	const VL53L0X_DeviceParameters_t *pDeviceParameters)
 787:Api\core\src/vl53l0x_api.c **** {
 788:Api\core\src/vl53l0x_api.c **** 	VL53L0X_Error Status = VL53L0X_ERROR_NONE;
 789:Api\core\src/vl53l0x_api.c **** 	int i;
 790:Api\core\src/vl53l0x_api.c **** 	LOG_FUNCTION_START("");
 791:Api\core\src/vl53l0x_api.c **** 	Status = VL53L0X_SetDeviceMode(Dev, pDeviceParameters->DeviceMode);
 792:Api\core\src/vl53l0x_api.c **** 
 793:Api\core\src/vl53l0x_api.c **** 	if (Status == VL53L0X_ERROR_NONE)
 794:Api\core\src/vl53l0x_api.c **** 		Status = VL53L0X_SetInterMeasurementPeriodMilliSeconds(Dev,
 795:Api\core\src/vl53l0x_api.c **** 			pDeviceParameters->InterMeasurementPeriodMilliSeconds);
 796:Api\core\src/vl53l0x_api.c **** 
 797:Api\core\src/vl53l0x_api.c **** 
 798:Api\core\src/vl53l0x_api.c **** 	if (Status == VL53L0X_ERROR_NONE)
 799:Api\core\src/vl53l0x_api.c **** 		Status = VL53L0X_SetXTalkCompensationRateMegaCps(Dev,
 800:Api\core\src/vl53l0x_api.c **** 			pDeviceParameters->XTalkCompensationRateMegaCps);
 801:Api\core\src/vl53l0x_api.c **** 
 802:Api\core\src/vl53l0x_api.c **** 
 803:Api\core\src/vl53l0x_api.c **** 	if (Status == VL53L0X_ERROR_NONE)
 804:Api\core\src/vl53l0x_api.c **** 		Status = VL53L0X_SetOffsetCalibrationDataMicroMeter(Dev,
 805:Api\core\src/vl53l0x_api.c **** 			pDeviceParameters->RangeOffsetMicroMeters);
 806:Api\core\src/vl53l0x_api.c **** 
 807:Api\core\src/vl53l0x_api.c **** 
 808:Api\core\src/vl53l0x_api.c **** 	for (i = 0; i < VL53L0X_CHECKENABLE_NUMBER_OF_CHECKS; i++) {
 809:Api\core\src/vl53l0x_api.c **** 		if (Status == VL53L0X_ERROR_NONE)
 810:Api\core\src/vl53l0x_api.c **** 			Status |= VL53L0X_SetLimitCheckEnable(Dev, i,
 811:Api\core\src/vl53l0x_api.c **** 				pDeviceParameters->LimitChecksEnable[i]);
 812:Api\core\src/vl53l0x_api.c **** 		else
 813:Api\core\src/vl53l0x_api.c **** 			break;
 814:Api\core\src/vl53l0x_api.c **** 
 815:Api\core\src/vl53l0x_api.c **** 		if (Status == VL53L0X_ERROR_NONE)
 816:Api\core\src/vl53l0x_api.c **** 			Status |= VL53L0X_SetLimitCheckValue(Dev, i,
 817:Api\core\src/vl53l0x_api.c **** 				pDeviceParameters->LimitChecksValue[i]);
ARM GAS  C:\Users\Rajesh\AppData\Local\Temp\cc8CcU56.s 			page 31


 818:Api\core\src/vl53l0x_api.c **** 		else
 819:Api\core\src/vl53l0x_api.c **** 			break;
 820:Api\core\src/vl53l0x_api.c **** 
 821:Api\core\src/vl53l0x_api.c **** 	}
 822:Api\core\src/vl53l0x_api.c **** 
 823:Api\core\src/vl53l0x_api.c **** 	if (Status == VL53L0X_ERROR_NONE)
 824:Api\core\src/vl53l0x_api.c **** 		Status = VL53L0X_SetWrapAroundCheckEnable(Dev,
 825:Api\core\src/vl53l0x_api.c **** 			pDeviceParameters->WrapAroundCheckEnable);
 826:Api\core\src/vl53l0x_api.c **** 
 827:Api\core\src/vl53l0x_api.c **** 	if (Status == VL53L0X_ERROR_NONE)
 828:Api\core\src/vl53l0x_api.c **** 		Status = VL53L0X_SetMeasurementTimingBudgetMicroSeconds(Dev,
 829:Api\core\src/vl53l0x_api.c **** 			pDeviceParameters->MeasurementTimingBudgetMicroSeconds);
 830:Api\core\src/vl53l0x_api.c **** 
 831:Api\core\src/vl53l0x_api.c **** 
 832:Api\core\src/vl53l0x_api.c **** 	LOG_FUNCTION_END(Status);
 833:Api\core\src/vl53l0x_api.c **** 	return Status;
 834:Api\core\src/vl53l0x_api.c **** }
 835:Api\core\src/vl53l0x_api.c **** 
 836:Api\core\src/vl53l0x_api.c **** VL53L0X_Error VL53L0X_GetDeviceParameters(VL53L0X_DEV Dev,
 837:Api\core\src/vl53l0x_api.c **** 	VL53L0X_DeviceParameters_t *pDeviceParameters)
 838:Api\core\src/vl53l0x_api.c **** {
 839:Api\core\src/vl53l0x_api.c **** 	VL53L0X_Error Status = VL53L0X_ERROR_NONE;
 840:Api\core\src/vl53l0x_api.c **** 	int i;
 841:Api\core\src/vl53l0x_api.c **** 
 842:Api\core\src/vl53l0x_api.c **** 	LOG_FUNCTION_START("");
 843:Api\core\src/vl53l0x_api.c **** 
 844:Api\core\src/vl53l0x_api.c **** 	Status = VL53L0X_GetDeviceMode(Dev, &(pDeviceParameters->DeviceMode));
 845:Api\core\src/vl53l0x_api.c **** 
 846:Api\core\src/vl53l0x_api.c **** 	if (Status == VL53L0X_ERROR_NONE)
 847:Api\core\src/vl53l0x_api.c **** 		Status = VL53L0X_GetInterMeasurementPeriodMilliSeconds(Dev,
 848:Api\core\src/vl53l0x_api.c **** 		&(pDeviceParameters->InterMeasurementPeriodMilliSeconds));
 849:Api\core\src/vl53l0x_api.c **** 
 850:Api\core\src/vl53l0x_api.c **** 
 851:Api\core\src/vl53l0x_api.c **** 	if (Status == VL53L0X_ERROR_NONE)
 852:Api\core\src/vl53l0x_api.c **** 		pDeviceParameters->XTalkCompensationEnable = 0;
 853:Api\core\src/vl53l0x_api.c **** 
 854:Api\core\src/vl53l0x_api.c **** 	if (Status == VL53L0X_ERROR_NONE)
 855:Api\core\src/vl53l0x_api.c **** 		Status = VL53L0X_GetXTalkCompensationRateMegaCps(Dev,
 856:Api\core\src/vl53l0x_api.c **** 			&(pDeviceParameters->XTalkCompensationRateMegaCps));
 857:Api\core\src/vl53l0x_api.c **** 
 858:Api\core\src/vl53l0x_api.c **** 
 859:Api\core\src/vl53l0x_api.c **** 	if (Status == VL53L0X_ERROR_NONE)
 860:Api\core\src/vl53l0x_api.c **** 		Status = VL53L0X_GetOffsetCalibrationDataMicroMeter(Dev,
 861:Api\core\src/vl53l0x_api.c **** 			&(pDeviceParameters->RangeOffsetMicroMeters));
 862:Api\core\src/vl53l0x_api.c **** 
 863:Api\core\src/vl53l0x_api.c **** 
 864:Api\core\src/vl53l0x_api.c **** 	if (Status == VL53L0X_ERROR_NONE) {
 865:Api\core\src/vl53l0x_api.c **** 		for (i = 0; i < VL53L0X_CHECKENABLE_NUMBER_OF_CHECKS; i++) {
 866:Api\core\src/vl53l0x_api.c **** 			/* get first the values, then the enables.
 867:Api\core\src/vl53l0x_api.c **** 			 * VL53L0X_GetLimitCheckValue will modify the enable
 868:Api\core\src/vl53l0x_api.c **** 			 * flags
 869:Api\core\src/vl53l0x_api.c **** 			 */
 870:Api\core\src/vl53l0x_api.c **** 			if (Status == VL53L0X_ERROR_NONE) {
 871:Api\core\src/vl53l0x_api.c **** 				Status |= VL53L0X_GetLimitCheckValue(Dev, i,
 872:Api\core\src/vl53l0x_api.c **** 				&(pDeviceParameters->LimitChecksValue[i]));
 873:Api\core\src/vl53l0x_api.c **** 			} else {
 874:Api\core\src/vl53l0x_api.c **** 				break;
ARM GAS  C:\Users\Rajesh\AppData\Local\Temp\cc8CcU56.s 			page 32


 875:Api\core\src/vl53l0x_api.c **** 			}
 876:Api\core\src/vl53l0x_api.c **** 			if (Status == VL53L0X_ERROR_NONE) {
 877:Api\core\src/vl53l0x_api.c **** 				Status |= VL53L0X_GetLimitCheckEnable(Dev, i,
 878:Api\core\src/vl53l0x_api.c **** 				&(pDeviceParameters->LimitChecksEnable[i]));
 879:Api\core\src/vl53l0x_api.c **** 			} else {
 880:Api\core\src/vl53l0x_api.c **** 				break;
 881:Api\core\src/vl53l0x_api.c **** 			}
 882:Api\core\src/vl53l0x_api.c **** 		}
 883:Api\core\src/vl53l0x_api.c **** 	}
 884:Api\core\src/vl53l0x_api.c **** 
 885:Api\core\src/vl53l0x_api.c **** 	if (Status == VL53L0X_ERROR_NONE) {
 886:Api\core\src/vl53l0x_api.c **** 		Status = VL53L0X_GetWrapAroundCheckEnable(Dev,
 887:Api\core\src/vl53l0x_api.c **** 			&(pDeviceParameters->WrapAroundCheckEnable));
 888:Api\core\src/vl53l0x_api.c **** 	}
 889:Api\core\src/vl53l0x_api.c **** 
 890:Api\core\src/vl53l0x_api.c **** 	/* Need to be done at the end as it uses VCSELPulsePeriod */
 891:Api\core\src/vl53l0x_api.c **** 	if (Status == VL53L0X_ERROR_NONE) {
 892:Api\core\src/vl53l0x_api.c **** 		Status = VL53L0X_GetMeasurementTimingBudgetMicroSeconds(Dev,
 893:Api\core\src/vl53l0x_api.c **** 		&(pDeviceParameters->MeasurementTimingBudgetMicroSeconds));
 894:Api\core\src/vl53l0x_api.c **** 	}
 895:Api\core\src/vl53l0x_api.c **** 
 896:Api\core\src/vl53l0x_api.c **** 	LOG_FUNCTION_END(Status);
 897:Api\core\src/vl53l0x_api.c **** 	return Status;
 898:Api\core\src/vl53l0x_api.c **** }
 899:Api\core\src/vl53l0x_api.c **** 
 900:Api\core\src/vl53l0x_api.c **** VL53L0X_Error VL53L0X_SetDeviceMode(VL53L0X_DEV Dev, VL53L0X_DeviceModes DeviceMode)
 901:Api\core\src/vl53l0x_api.c **** {
 890              		.loc 1 901 0
 891              		.cfi_startproc
 892              		@ args = 0, pretend = 0, frame = 0
 893              		@ frame_needed = 0, uses_anonymous_args = 0
 894              		@ link register save eliminated.
 895              	.LVL93:
 902:Api\core\src/vl53l0x_api.c **** 	VL53L0X_Error Status = VL53L0X_ERROR_NONE;
 903:Api\core\src/vl53l0x_api.c **** 
 904:Api\core\src/vl53l0x_api.c **** 	LOG_FUNCTION_START("%d", (int)DeviceMode);
 905:Api\core\src/vl53l0x_api.c **** 
 906:Api\core\src/vl53l0x_api.c **** 	switch (DeviceMode) {
 896              		.loc 1 906 0
 897 0000 1529     		cmp	r1, #21
 898 0002 06D8     		bhi	.L43
 899 0004 8B00     		lsls	r3, r1, #2
 900 0006 044A     		ldr	r2, .L44
 901 0008 D358     		ldr	r3, [r2, r3]
 902 000a 9F46     		mov	pc, r3
 903              		.section	.rodata
 904              		.align	2
 905              	.L42:
 906 0000 0C000000 		.word	.L41
 907 0004 0C000000 		.word	.L41
 908 0008 12000000 		.word	.L43
 909 000c 0C000000 		.word	.L41
 910 0010 12000000 		.word	.L43
 911 0014 12000000 		.word	.L43
 912 0018 12000000 		.word	.L43
 913 001c 12000000 		.word	.L43
 914 0020 12000000 		.word	.L43
ARM GAS  C:\Users\Rajesh\AppData\Local\Temp\cc8CcU56.s 			page 33


 915 0024 12000000 		.word	.L43
 916 0028 12000000 		.word	.L43
 917 002c 12000000 		.word	.L43
 918 0030 12000000 		.word	.L43
 919 0034 12000000 		.word	.L43
 920 0038 12000000 		.word	.L43
 921 003c 12000000 		.word	.L43
 922 0040 12000000 		.word	.L43
 923 0044 12000000 		.word	.L43
 924 0048 12000000 		.word	.L43
 925 004c 12000000 		.word	.L43
 926 0050 0C000000 		.word	.L41
 927 0054 0C000000 		.word	.L41
 928              		.section	.text.VL53L0X_SetDeviceMode
 929              	.L41:
 907:Api\core\src/vl53l0x_api.c **** 	case VL53L0X_DEVICEMODE_SINGLE_RANGING:
 908:Api\core\src/vl53l0x_api.c **** 	case VL53L0X_DEVICEMODE_CONTINUOUS_RANGING:
 909:Api\core\src/vl53l0x_api.c **** 	case VL53L0X_DEVICEMODE_CONTINUOUS_TIMED_RANGING:
 910:Api\core\src/vl53l0x_api.c **** 	case VL53L0X_DEVICEMODE_GPIO_DRIVE:
 911:Api\core\src/vl53l0x_api.c **** 	case VL53L0X_DEVICEMODE_GPIO_OSC:
 912:Api\core\src/vl53l0x_api.c **** 		/* Supported modes */
 913:Api\core\src/vl53l0x_api.c **** 		VL53L0X_SETPARAMETERFIELD(Dev, DeviceMode, DeviceMode);
 930              		.loc 1 913 0
 931 000c 0174     		strb	r1, [r0, #16]
 902:Api\core\src/vl53l0x_api.c **** 	VL53L0X_Error Status = VL53L0X_ERROR_NONE;
 932              		.loc 1 902 0
 933 000e 0020     		movs	r0, #0
 934              	.LVL94:
 914:Api\core\src/vl53l0x_api.c **** 		break;
 935              		.loc 1 914 0
 936 0010 01E0     		b	.L40
 937              	.LVL95:
 938              	.L43:
 915:Api\core\src/vl53l0x_api.c **** 	default:
 916:Api\core\src/vl53l0x_api.c **** 		/* Unsupported mode */
 917:Api\core\src/vl53l0x_api.c **** 		Status = VL53L0X_ERROR_MODE_NOT_SUPPORTED;
 939              		.loc 1 917 0
 940 0012 0820     		movs	r0, #8
 941              	.LVL96:
 942 0014 4042     		rsbs	r0, r0, #0
 943              	.L40:
 944              	.LVL97:
 918:Api\core\src/vl53l0x_api.c **** 	}
 919:Api\core\src/vl53l0x_api.c **** 
 920:Api\core\src/vl53l0x_api.c **** 	LOG_FUNCTION_END(Status);
 921:Api\core\src/vl53l0x_api.c **** 	return Status;
 922:Api\core\src/vl53l0x_api.c **** }
 945              		.loc 1 922 0
 946              		@ sp needed
 947 0016 7047     		bx	lr
 948              	.L45:
 949              		.align	2
 950              	.L44:
 951 0018 00000000 		.word	.L42
 952              		.cfi_endproc
 953              	.LFE29:
 954              		.size	VL53L0X_SetDeviceMode, .-VL53L0X_SetDeviceMode
ARM GAS  C:\Users\Rajesh\AppData\Local\Temp\cc8CcU56.s 			page 34


 955              		.section	.text.VL53L0X_GetDeviceMode,"ax",%progbits
 956              		.align	2
 957              		.global	VL53L0X_GetDeviceMode
 958              		.code	16
 959              		.thumb_func
 960              		.type	VL53L0X_GetDeviceMode, %function
 961              	VL53L0X_GetDeviceMode:
 962              	.LFB30:
 923:Api\core\src/vl53l0x_api.c **** 
 924:Api\core\src/vl53l0x_api.c **** VL53L0X_Error VL53L0X_GetDeviceMode(VL53L0X_DEV Dev,
 925:Api\core\src/vl53l0x_api.c **** 	VL53L0X_DeviceModes *pDeviceMode)
 926:Api\core\src/vl53l0x_api.c **** {
 963              		.loc 1 926 0
 964              		.cfi_startproc
 965              		@ args = 0, pretend = 0, frame = 0
 966              		@ frame_needed = 0, uses_anonymous_args = 0
 967              		@ link register save eliminated.
 968              	.LVL98:
 927:Api\core\src/vl53l0x_api.c **** 	VL53L0X_Error Status = VL53L0X_ERROR_NONE;
 928:Api\core\src/vl53l0x_api.c **** 	LOG_FUNCTION_START("");
 929:Api\core\src/vl53l0x_api.c **** 
 930:Api\core\src/vl53l0x_api.c **** 	VL53L0X_GETPARAMETERFIELD(Dev, DeviceMode, *pDeviceMode);
 969              		.loc 1 930 0
 970 0000 037C     		ldrb	r3, [r0, #16]
 971 0002 0B70     		strb	r3, [r1]
 931:Api\core\src/vl53l0x_api.c **** 
 932:Api\core\src/vl53l0x_api.c **** 	LOG_FUNCTION_END(Status);
 933:Api\core\src/vl53l0x_api.c **** 	return Status;
 934:Api\core\src/vl53l0x_api.c **** }
 972              		.loc 1 934 0
 973 0004 0020     		movs	r0, #0
 974              	.LVL99:
 975              		@ sp needed
 976 0006 7047     		bx	lr
 977              		.cfi_endproc
 978              	.LFE30:
 979              		.size	VL53L0X_GetDeviceMode, .-VL53L0X_GetDeviceMode
 980              		.section	.text.VL53L0X_SetRangeFractionEnable,"ax",%progbits
 981              		.align	2
 982              		.global	VL53L0X_SetRangeFractionEnable
 983              		.code	16
 984              		.thumb_func
 985              		.type	VL53L0X_SetRangeFractionEnable, %function
 986              	VL53L0X_SetRangeFractionEnable:
 987              	.LFB31:
 935:Api\core\src/vl53l0x_api.c **** 
 936:Api\core\src/vl53l0x_api.c **** VL53L0X_Error VL53L0X_SetRangeFractionEnable(VL53L0X_DEV Dev,	uint8_t Enable)
 937:Api\core\src/vl53l0x_api.c **** {
 988              		.loc 1 937 0
 989              		.cfi_startproc
 990              		@ args = 0, pretend = 0, frame = 0
 991              		@ frame_needed = 0, uses_anonymous_args = 0
 992              	.LVL100:
 993 0000 70B5     		push	{r4, r5, r6, lr}
 994              		.cfi_def_cfa_offset 16
 995              		.cfi_offset 4, -16
 996              		.cfi_offset 5, -12
ARM GAS  C:\Users\Rajesh\AppData\Local\Temp\cc8CcU56.s 			page 35


 997              		.cfi_offset 6, -8
 998              		.cfi_offset 14, -4
 999 0002 0400     		movs	r4, r0
 1000 0004 0D00     		movs	r5, r1
 1001              	.LVL101:
 938:Api\core\src/vl53l0x_api.c **** 	VL53L0X_Error Status = VL53L0X_ERROR_NONE;
 939:Api\core\src/vl53l0x_api.c **** 
 940:Api\core\src/vl53l0x_api.c **** 	LOG_FUNCTION_START("%d", (int)Enable);
 941:Api\core\src/vl53l0x_api.c **** 
 942:Api\core\src/vl53l0x_api.c **** 	Status = VL53L0X_WrByte(Dev, VL53L0X_REG_SYSTEM_RANGE_CONFIG, Enable);
 1002              		.loc 1 942 0
 1003 0006 0A00     		movs	r2, r1
 1004 0008 0921     		movs	r1, #9
 1005              	.LVL102:
 1006 000a FFF7FEFF 		bl	VL53L0X_WrByte
 1007              	.LVL103:
 943:Api\core\src/vl53l0x_api.c **** 
 944:Api\core\src/vl53l0x_api.c **** 	if (Status == VL53L0X_ERROR_NONE)
 1008              		.loc 1 944 0
 1009 000e 0028     		cmp	r0, #0
 1010 0010 02D1     		bne	.L48
 945:Api\core\src/vl53l0x_api.c **** 		PALDevDataSet(Dev, RangeFractionalEnable, Enable);
 1011              		.loc 1 945 0
 1012 0012 3223     		movs	r3, #50
 1013 0014 FF33     		adds	r3, r3, #255
 1014 0016 E554     		strb	r5, [r4, r3]
 1015              	.L48:
 946:Api\core\src/vl53l0x_api.c **** 
 947:Api\core\src/vl53l0x_api.c **** 	LOG_FUNCTION_END(Status);
 948:Api\core\src/vl53l0x_api.c **** 	return Status;
 949:Api\core\src/vl53l0x_api.c **** }
 1016              		.loc 1 949 0
 1017              		@ sp needed
 1018              	.LVL104:
 1019 0018 70BD     		pop	{r4, r5, r6, pc}
 1020              		.cfi_endproc
 1021              	.LFE31:
 1022              		.size	VL53L0X_SetRangeFractionEnable, .-VL53L0X_SetRangeFractionEnable
 1023 001a C046     		.section	.text.VL53L0X_GetFractionEnable,"ax",%progbits
 1024              		.align	2
 1025              		.global	VL53L0X_GetFractionEnable
 1026              		.code	16
 1027              		.thumb_func
 1028              		.type	VL53L0X_GetFractionEnable, %function
 1029              	VL53L0X_GetFractionEnable:
 1030              	.LFB32:
 950:Api\core\src/vl53l0x_api.c **** 
 951:Api\core\src/vl53l0x_api.c **** VL53L0X_Error VL53L0X_GetFractionEnable(VL53L0X_DEV Dev, uint8_t *pEnabled)
 952:Api\core\src/vl53l0x_api.c **** {
 1031              		.loc 1 952 0
 1032              		.cfi_startproc
 1033              		@ args = 0, pretend = 0, frame = 0
 1034              		@ frame_needed = 0, uses_anonymous_args = 0
 1035              	.LVL105:
 1036 0000 10B5     		push	{r4, lr}
 1037              		.cfi_def_cfa_offset 8
 1038              		.cfi_offset 4, -8
ARM GAS  C:\Users\Rajesh\AppData\Local\Temp\cc8CcU56.s 			page 36


 1039              		.cfi_offset 14, -4
 1040 0002 0C00     		movs	r4, r1
 1041              	.LVL106:
 953:Api\core\src/vl53l0x_api.c **** 	VL53L0X_Error Status = VL53L0X_ERROR_NONE;
 954:Api\core\src/vl53l0x_api.c **** 	LOG_FUNCTION_START("");
 955:Api\core\src/vl53l0x_api.c **** 
 956:Api\core\src/vl53l0x_api.c **** 	Status = VL53L0X_RdByte(Dev, VL53L0X_REG_SYSTEM_RANGE_CONFIG, pEnabled);
 1042              		.loc 1 956 0
 1043 0004 0A00     		movs	r2, r1
 1044 0006 0921     		movs	r1, #9
 1045              	.LVL107:
 1046 0008 FFF7FEFF 		bl	VL53L0X_RdByte
 1047              	.LVL108:
 957:Api\core\src/vl53l0x_api.c **** 
 958:Api\core\src/vl53l0x_api.c **** 	if (Status == VL53L0X_ERROR_NONE)
 1048              		.loc 1 958 0
 1049 000c 0028     		cmp	r0, #0
 1050 000e 03D1     		bne	.L50
 959:Api\core\src/vl53l0x_api.c **** 		*pEnabled = (*pEnabled & 1);
 1051              		.loc 1 959 0
 1052 0010 2378     		ldrb	r3, [r4]
 1053 0012 0122     		movs	r2, #1
 1054 0014 1340     		ands	r3, r2
 1055 0016 2370     		strb	r3, [r4]
 1056              	.L50:
 960:Api\core\src/vl53l0x_api.c **** 
 961:Api\core\src/vl53l0x_api.c **** 	LOG_FUNCTION_END(Status);
 962:Api\core\src/vl53l0x_api.c **** 	return Status;
 963:Api\core\src/vl53l0x_api.c **** }
 1057              		.loc 1 963 0
 1058              		@ sp needed
 1059              	.LVL109:
 1060 0018 10BD     		pop	{r4, pc}
 1061              		.cfi_endproc
 1062              	.LFE32:
 1063              		.size	VL53L0X_GetFractionEnable, .-VL53L0X_GetFractionEnable
 1064 001a C046     		.section	.text.VL53L0X_SetHistogramMode,"ax",%progbits
 1065              		.align	2
 1066              		.global	VL53L0X_SetHistogramMode
 1067              		.code	16
 1068              		.thumb_func
 1069              		.type	VL53L0X_SetHistogramMode, %function
 1070              	VL53L0X_SetHistogramMode:
 1071              	.LFB33:
 964:Api\core\src/vl53l0x_api.c **** 
 965:Api\core\src/vl53l0x_api.c **** VL53L0X_Error VL53L0X_SetHistogramMode(VL53L0X_DEV Dev,
 966:Api\core\src/vl53l0x_api.c **** 	VL53L0X_HistogramModes HistogramMode)
 967:Api\core\src/vl53l0x_api.c **** {
 1072              		.loc 1 967 0
 1073              		.cfi_startproc
 1074              		@ args = 0, pretend = 0, frame = 0
 1075              		@ frame_needed = 0, uses_anonymous_args = 0
 1076              		@ link register save eliminated.
 1077              	.LVL110:
 968:Api\core\src/vl53l0x_api.c **** 	VL53L0X_Error Status = VL53L0X_ERROR_NOT_IMPLEMENTED;
 969:Api\core\src/vl53l0x_api.c **** 	LOG_FUNCTION_START("");
 970:Api\core\src/vl53l0x_api.c **** 
ARM GAS  C:\Users\Rajesh\AppData\Local\Temp\cc8CcU56.s 			page 37


 971:Api\core\src/vl53l0x_api.c **** 	/* not implemented on VL53L0X */
 972:Api\core\src/vl53l0x_api.c **** 
 973:Api\core\src/vl53l0x_api.c **** 	LOG_FUNCTION_END(Status);
 974:Api\core\src/vl53l0x_api.c **** 	return Status;
 975:Api\core\src/vl53l0x_api.c **** }
 1078              		.loc 1 975 0
 1079 0000 6320     		movs	r0, #99
 1080              	.LVL111:
 1081 0002 4042     		rsbs	r0, r0, #0
 1082              		@ sp needed
 1083 0004 7047     		bx	lr
 1084              		.cfi_endproc
 1085              	.LFE33:
 1086              		.size	VL53L0X_SetHistogramMode, .-VL53L0X_SetHistogramMode
 1087 0006 C046     		.section	.text.VL53L0X_GetHistogramMode,"ax",%progbits
 1088              		.align	2
 1089              		.global	VL53L0X_GetHistogramMode
 1090              		.code	16
 1091              		.thumb_func
 1092              		.type	VL53L0X_GetHistogramMode, %function
 1093              	VL53L0X_GetHistogramMode:
 1094              	.LFB34:
 976:Api\core\src/vl53l0x_api.c **** 
 977:Api\core\src/vl53l0x_api.c **** VL53L0X_Error VL53L0X_GetHistogramMode(VL53L0X_DEV Dev,
 978:Api\core\src/vl53l0x_api.c **** 	VL53L0X_HistogramModes *pHistogramMode)
 979:Api\core\src/vl53l0x_api.c **** {
 1095              		.loc 1 979 0
 1096              		.cfi_startproc
 1097              		@ args = 0, pretend = 0, frame = 0
 1098              		@ frame_needed = 0, uses_anonymous_args = 0
 1099              		@ link register save eliminated.
 1100              	.LVL112:
 980:Api\core\src/vl53l0x_api.c **** 	VL53L0X_Error Status = VL53L0X_ERROR_NOT_IMPLEMENTED;
 981:Api\core\src/vl53l0x_api.c **** 	LOG_FUNCTION_START("");
 982:Api\core\src/vl53l0x_api.c **** 
 983:Api\core\src/vl53l0x_api.c **** 	/* not implemented on VL53L0X */
 984:Api\core\src/vl53l0x_api.c **** 
 985:Api\core\src/vl53l0x_api.c **** 	LOG_FUNCTION_END(Status);
 986:Api\core\src/vl53l0x_api.c **** 	return Status;
 987:Api\core\src/vl53l0x_api.c **** }
 1101              		.loc 1 987 0
 1102 0000 6320     		movs	r0, #99
 1103              	.LVL113:
 1104 0002 4042     		rsbs	r0, r0, #0
 1105              		@ sp needed
 1106 0004 7047     		bx	lr
 1107              		.cfi_endproc
 1108              	.LFE34:
 1109              		.size	VL53L0X_GetHistogramMode, .-VL53L0X_GetHistogramMode
 1110 0006 C046     		.section	.text.VL53L0X_SetMeasurementTimingBudgetMicroSeconds,"ax",%progbits
 1111              		.align	2
 1112              		.global	VL53L0X_SetMeasurementTimingBudgetMicroSeconds
 1113              		.code	16
 1114              		.thumb_func
 1115              		.type	VL53L0X_SetMeasurementTimingBudgetMicroSeconds, %function
 1116              	VL53L0X_SetMeasurementTimingBudgetMicroSeconds:
 1117              	.LFB35:
ARM GAS  C:\Users\Rajesh\AppData\Local\Temp\cc8CcU56.s 			page 38


 988:Api\core\src/vl53l0x_api.c **** 
 989:Api\core\src/vl53l0x_api.c **** VL53L0X_Error VL53L0X_SetMeasurementTimingBudgetMicroSeconds(VL53L0X_DEV Dev,
 990:Api\core\src/vl53l0x_api.c **** 	uint32_t MeasurementTimingBudgetMicroSeconds)
 991:Api\core\src/vl53l0x_api.c **** {
 1118              		.loc 1 991 0
 1119              		.cfi_startproc
 1120              		@ args = 0, pretend = 0, frame = 0
 1121              		@ frame_needed = 0, uses_anonymous_args = 0
 1122              	.LVL114:
 1123 0000 10B5     		push	{r4, lr}
 1124              		.cfi_def_cfa_offset 8
 1125              		.cfi_offset 4, -8
 1126              		.cfi_offset 14, -4
 1127              	.LVL115:
 992:Api\core\src/vl53l0x_api.c **** 	VL53L0X_Error Status = VL53L0X_ERROR_NONE;
 993:Api\core\src/vl53l0x_api.c **** 	LOG_FUNCTION_START("");
 994:Api\core\src/vl53l0x_api.c **** 
 995:Api\core\src/vl53l0x_api.c **** 	Status = VL53L0X_set_measurement_timing_budget_micro_seconds(Dev,
 1128              		.loc 1 995 0
 1129 0002 FFF7FEFF 		bl	VL53L0X_set_measurement_timing_budget_micro_seconds
 1130              	.LVL116:
 996:Api\core\src/vl53l0x_api.c **** 		MeasurementTimingBudgetMicroSeconds);
 997:Api\core\src/vl53l0x_api.c **** 
 998:Api\core\src/vl53l0x_api.c **** 	LOG_FUNCTION_END(Status);
 999:Api\core\src/vl53l0x_api.c **** 
1000:Api\core\src/vl53l0x_api.c **** 	return Status;
1001:Api\core\src/vl53l0x_api.c **** }
 1131              		.loc 1 1001 0
 1132              		@ sp needed
 1133 0006 10BD     		pop	{r4, pc}
 1134              		.cfi_endproc
 1135              	.LFE35:
 1136              		.size	VL53L0X_SetMeasurementTimingBudgetMicroSeconds, .-VL53L0X_SetMeasurementTimingBudgetMicroSec
 1137              		.section	.text.VL53L0X_GetMeasurementTimingBudgetMicroSeconds,"ax",%progbits
 1138              		.align	2
 1139              		.global	VL53L0X_GetMeasurementTimingBudgetMicroSeconds
 1140              		.code	16
 1141              		.thumb_func
 1142              		.type	VL53L0X_GetMeasurementTimingBudgetMicroSeconds, %function
 1143              	VL53L0X_GetMeasurementTimingBudgetMicroSeconds:
 1144              	.LFB36:
1002:Api\core\src/vl53l0x_api.c **** 
1003:Api\core\src/vl53l0x_api.c **** VL53L0X_Error VL53L0X_GetMeasurementTimingBudgetMicroSeconds(VL53L0X_DEV Dev,
1004:Api\core\src/vl53l0x_api.c **** 	uint32_t *pMeasurementTimingBudgetMicroSeconds)
1005:Api\core\src/vl53l0x_api.c **** {
 1145              		.loc 1 1005 0
 1146              		.cfi_startproc
 1147              		@ args = 0, pretend = 0, frame = 0
 1148              		@ frame_needed = 0, uses_anonymous_args = 0
 1149              	.LVL117:
 1150 0000 10B5     		push	{r4, lr}
 1151              		.cfi_def_cfa_offset 8
 1152              		.cfi_offset 4, -8
 1153              		.cfi_offset 14, -4
 1154              	.LVL118:
1006:Api\core\src/vl53l0x_api.c **** 	VL53L0X_Error Status = VL53L0X_ERROR_NONE;
1007:Api\core\src/vl53l0x_api.c **** 	LOG_FUNCTION_START("");
ARM GAS  C:\Users\Rajesh\AppData\Local\Temp\cc8CcU56.s 			page 39


1008:Api\core\src/vl53l0x_api.c **** 
1009:Api\core\src/vl53l0x_api.c **** 	Status = VL53L0X_get_measurement_timing_budget_micro_seconds(Dev,
 1155              		.loc 1 1009 0
 1156 0002 FFF7FEFF 		bl	VL53L0X_get_measurement_timing_budget_micro_seconds
 1157              	.LVL119:
1010:Api\core\src/vl53l0x_api.c **** 		pMeasurementTimingBudgetMicroSeconds);
1011:Api\core\src/vl53l0x_api.c **** 
1012:Api\core\src/vl53l0x_api.c **** 	LOG_FUNCTION_END(Status);
1013:Api\core\src/vl53l0x_api.c **** 	return Status;
1014:Api\core\src/vl53l0x_api.c **** }
 1158              		.loc 1 1014 0
 1159              		@ sp needed
 1160 0006 10BD     		pop	{r4, pc}
 1161              		.cfi_endproc
 1162              	.LFE36:
 1163              		.size	VL53L0X_GetMeasurementTimingBudgetMicroSeconds, .-VL53L0X_GetMeasurementTimingBudgetMicroSec
 1164              		.section	.text.VL53L0X_SetVcselPulsePeriod,"ax",%progbits
 1165              		.align	2
 1166              		.global	VL53L0X_SetVcselPulsePeriod
 1167              		.code	16
 1168              		.thumb_func
 1169              		.type	VL53L0X_SetVcselPulsePeriod, %function
 1170              	VL53L0X_SetVcselPulsePeriod:
 1171              	.LFB37:
1015:Api\core\src/vl53l0x_api.c **** 
1016:Api\core\src/vl53l0x_api.c **** VL53L0X_Error VL53L0X_SetVcselPulsePeriod(VL53L0X_DEV Dev,
1017:Api\core\src/vl53l0x_api.c **** 	VL53L0X_VcselPeriod VcselPeriodType, uint8_t VCSELPulsePeriodPCLK)
1018:Api\core\src/vl53l0x_api.c **** {
 1172              		.loc 1 1018 0
 1173              		.cfi_startproc
 1174              		@ args = 0, pretend = 0, frame = 0
 1175              		@ frame_needed = 0, uses_anonymous_args = 0
 1176              	.LVL120:
 1177 0000 10B5     		push	{r4, lr}
 1178              		.cfi_def_cfa_offset 8
 1179              		.cfi_offset 4, -8
 1180              		.cfi_offset 14, -4
 1181              	.LVL121:
1019:Api\core\src/vl53l0x_api.c **** 	VL53L0X_Error Status = VL53L0X_ERROR_NONE;
1020:Api\core\src/vl53l0x_api.c **** 	LOG_FUNCTION_START("");
1021:Api\core\src/vl53l0x_api.c **** 
1022:Api\core\src/vl53l0x_api.c **** 	Status = VL53L0X_set_vcsel_pulse_period(Dev, VcselPeriodType,
 1182              		.loc 1 1022 0
 1183 0002 FFF7FEFF 		bl	VL53L0X_set_vcsel_pulse_period
 1184              	.LVL122:
1023:Api\core\src/vl53l0x_api.c **** 		VCSELPulsePeriodPCLK);
1024:Api\core\src/vl53l0x_api.c **** 
1025:Api\core\src/vl53l0x_api.c **** 	LOG_FUNCTION_END(Status);
1026:Api\core\src/vl53l0x_api.c **** 	return Status;
1027:Api\core\src/vl53l0x_api.c **** }
 1185              		.loc 1 1027 0
 1186              		@ sp needed
 1187 0006 10BD     		pop	{r4, pc}
 1188              		.cfi_endproc
 1189              	.LFE37:
 1190              		.size	VL53L0X_SetVcselPulsePeriod, .-VL53L0X_SetVcselPulsePeriod
 1191              		.section	.text.VL53L0X_GetVcselPulsePeriod,"ax",%progbits
ARM GAS  C:\Users\Rajesh\AppData\Local\Temp\cc8CcU56.s 			page 40


 1192              		.align	2
 1193              		.global	VL53L0X_GetVcselPulsePeriod
 1194              		.code	16
 1195              		.thumb_func
 1196              		.type	VL53L0X_GetVcselPulsePeriod, %function
 1197              	VL53L0X_GetVcselPulsePeriod:
 1198              	.LFB38:
1028:Api\core\src/vl53l0x_api.c **** 
1029:Api\core\src/vl53l0x_api.c **** VL53L0X_Error VL53L0X_GetVcselPulsePeriod(VL53L0X_DEV Dev,
1030:Api\core\src/vl53l0x_api.c **** 	VL53L0X_VcselPeriod VcselPeriodType, uint8_t *pVCSELPulsePeriodPCLK)
1031:Api\core\src/vl53l0x_api.c **** {
 1199              		.loc 1 1031 0
 1200              		.cfi_startproc
 1201              		@ args = 0, pretend = 0, frame = 0
 1202              		@ frame_needed = 0, uses_anonymous_args = 0
 1203              	.LVL123:
 1204 0000 10B5     		push	{r4, lr}
 1205              		.cfi_def_cfa_offset 8
 1206              		.cfi_offset 4, -8
 1207              		.cfi_offset 14, -4
 1208              	.LVL124:
1032:Api\core\src/vl53l0x_api.c **** 	VL53L0X_Error Status = VL53L0X_ERROR_NONE;
1033:Api\core\src/vl53l0x_api.c **** 	LOG_FUNCTION_START("");
1034:Api\core\src/vl53l0x_api.c **** 
1035:Api\core\src/vl53l0x_api.c **** 	Status = VL53L0X_get_vcsel_pulse_period(Dev, VcselPeriodType,
 1209              		.loc 1 1035 0
 1210 0002 FFF7FEFF 		bl	VL53L0X_get_vcsel_pulse_period
 1211              	.LVL125:
1036:Api\core\src/vl53l0x_api.c **** 		pVCSELPulsePeriodPCLK);
1037:Api\core\src/vl53l0x_api.c **** 
1038:Api\core\src/vl53l0x_api.c **** 	LOG_FUNCTION_END(Status);
1039:Api\core\src/vl53l0x_api.c **** 	return Status;
1040:Api\core\src/vl53l0x_api.c **** }
 1212              		.loc 1 1040 0
 1213              		@ sp needed
 1214 0006 10BD     		pop	{r4, pc}
 1215              		.cfi_endproc
 1216              	.LFE38:
 1217              		.size	VL53L0X_GetVcselPulsePeriod, .-VL53L0X_GetVcselPulsePeriod
 1218              		.section	.text.VL53L0X_SetSequenceStepEnable,"ax",%progbits
 1219              		.align	2
 1220              		.global	VL53L0X_SetSequenceStepEnable
 1221              		.code	16
 1222              		.thumb_func
 1223              		.type	VL53L0X_SetSequenceStepEnable, %function
 1224              	VL53L0X_SetSequenceStepEnable:
 1225              	.LFB39:
1041:Api\core\src/vl53l0x_api.c **** 
1042:Api\core\src/vl53l0x_api.c **** VL53L0X_Error VL53L0X_SetSequenceStepEnable(VL53L0X_DEV Dev,
1043:Api\core\src/vl53l0x_api.c **** 	VL53L0X_SequenceStepId SequenceStepId, uint8_t SequenceStepEnabled)
1044:Api\core\src/vl53l0x_api.c **** {
 1226              		.loc 1 1044 0
 1227              		.cfi_startproc
 1228              		@ args = 0, pretend = 0, frame = 16
 1229              		@ frame_needed = 0, uses_anonymous_args = 0
 1230              	.LVL126:
 1231 0000 F0B5     		push	{r4, r5, r6, r7, lr}
ARM GAS  C:\Users\Rajesh\AppData\Local\Temp\cc8CcU56.s 			page 41


 1232              		.cfi_def_cfa_offset 20
 1233              		.cfi_offset 4, -20
 1234              		.cfi_offset 5, -16
 1235              		.cfi_offset 6, -12
 1236              		.cfi_offset 7, -8
 1237              		.cfi_offset 14, -4
 1238 0002 85B0     		sub	sp, sp, #20
 1239              		.cfi_def_cfa_offset 40
 1240 0004 0600     		movs	r6, r0
 1241 0006 0F00     		movs	r7, r1
 1242 0008 0192     		str	r2, [sp, #4]
 1243              	.LVL127:
1045:Api\core\src/vl53l0x_api.c **** 	VL53L0X_Error Status = VL53L0X_ERROR_NONE;
1046:Api\core\src/vl53l0x_api.c **** 	uint8_t SequenceConfig = 0;
 1244              		.loc 1 1046 0
 1245 000a 02AB     		add	r3, sp, #8
 1246 000c DD1D     		adds	r5, r3, #7
 1247 000e 0023     		movs	r3, #0
 1248 0010 2B70     		strb	r3, [r5]
 1249              	.LVL128:
1047:Api\core\src/vl53l0x_api.c **** 	uint8_t SequenceConfigNew = 0;
1048:Api\core\src/vl53l0x_api.c **** 	uint32_t MeasurementTimingBudgetMicroSeconds;
1049:Api\core\src/vl53l0x_api.c **** 	LOG_FUNCTION_START("");
1050:Api\core\src/vl53l0x_api.c **** 
1051:Api\core\src/vl53l0x_api.c **** 	Status = VL53L0X_RdByte(Dev, VL53L0X_REG_SYSTEM_SEQUENCE_CONFIG,
 1250              		.loc 1 1051 0
 1251 0012 2A00     		movs	r2, r5
 1252              	.LVL129:
 1253 0014 0121     		movs	r1, #1
 1254              	.LVL130:
 1255 0016 FFF7FEFF 		bl	VL53L0X_RdByte
 1256              	.LVL131:
 1257 001a 0400     		movs	r4, r0
 1258              	.LVL132:
1052:Api\core\src/vl53l0x_api.c **** 		&SequenceConfig);
1053:Api\core\src/vl53l0x_api.c **** 
1054:Api\core\src/vl53l0x_api.c **** 	SequenceConfigNew = SequenceConfig;
 1259              		.loc 1 1054 0
 1260 001c 2B78     		ldrb	r3, [r5]
 1261              	.LVL133:
1055:Api\core\src/vl53l0x_api.c **** 
1056:Api\core\src/vl53l0x_api.c **** 	if (Status == VL53L0X_ERROR_NONE) {
 1262              		.loc 1 1056 0
 1263 001e 0028     		cmp	r0, #0
 1264 0020 36D1     		bne	.L75
1057:Api\core\src/vl53l0x_api.c **** 		if (SequenceStepEnabled == 1) {
 1265              		.loc 1 1057 0
 1266 0022 019A     		ldr	r2, [sp, #4]
 1267 0024 012A     		cmp	r2, #1
 1268 0026 1AD1     		bne	.L59
1058:Api\core\src/vl53l0x_api.c **** 
1059:Api\core\src/vl53l0x_api.c **** 			/* Enable requested sequence step
1060:Api\core\src/vl53l0x_api.c **** 			 */
1061:Api\core\src/vl53l0x_api.c **** 			switch (SequenceStepId) {
 1269              		.loc 1 1061 0
 1270 0028 042F     		cmp	r7, #4
 1271 002a 33D8     		bhi	.L76
ARM GAS  C:\Users\Rajesh\AppData\Local\Temp\cc8CcU56.s 			page 42


 1272 002c BA00     		lsls	r2, r7, #2
 1273 002e 2949     		ldr	r1, .L78
 1274 0030 8A58     		ldr	r2, [r1, r2]
 1275 0032 9746     		mov	pc, r2
 1276              		.section	.rodata
 1277              		.align	2
 1278              	.L61:
 1279 0058 34000000 		.word	.L60
 1280 005c 3C000000 		.word	.L62
 1281 0060 44000000 		.word	.L63
 1282 0064 4C000000 		.word	.L64
 1283 0068 54000000 		.word	.L65
 1284              		.section	.text.VL53L0X_SetSequenceStepEnable
 1285              	.L60:
1062:Api\core\src/vl53l0x_api.c **** 			case VL53L0X_SEQUENCESTEP_TCC:
1063:Api\core\src/vl53l0x_api.c **** 				SequenceConfigNew |= 0x10;
 1286              		.loc 1 1063 0
 1287 0034 1025     		movs	r5, #16
 1288 0036 1D43     		orrs	r5, r3
 1289 0038 EDB2     		uxtb	r5, r5
 1290              	.LVL134:
1064:Api\core\src/vl53l0x_api.c **** 				break;
 1291              		.loc 1 1064 0
 1292 003a 32E0     		b	.L58
 1293              	.LVL135:
 1294              	.L62:
1065:Api\core\src/vl53l0x_api.c **** 			case VL53L0X_SEQUENCESTEP_DSS:
1066:Api\core\src/vl53l0x_api.c **** 				SequenceConfigNew |= 0x28;
 1295              		.loc 1 1066 0
 1296 003c 2825     		movs	r5, #40
 1297 003e 1D43     		orrs	r5, r3
 1298 0040 EDB2     		uxtb	r5, r5
 1299              	.LVL136:
1067:Api\core\src/vl53l0x_api.c **** 				break;
 1300              		.loc 1 1067 0
 1301 0042 2EE0     		b	.L58
 1302              	.LVL137:
 1303              	.L63:
1068:Api\core\src/vl53l0x_api.c **** 			case VL53L0X_SEQUENCESTEP_MSRC:
1069:Api\core\src/vl53l0x_api.c **** 				SequenceConfigNew |= 0x04;
 1304              		.loc 1 1069 0
 1305 0044 0425     		movs	r5, #4
 1306 0046 1D43     		orrs	r5, r3
 1307 0048 EDB2     		uxtb	r5, r5
 1308              	.LVL138:
1070:Api\core\src/vl53l0x_api.c **** 				break;
 1309              		.loc 1 1070 0
 1310 004a 2AE0     		b	.L58
 1311              	.LVL139:
 1312              	.L64:
1071:Api\core\src/vl53l0x_api.c **** 			case VL53L0X_SEQUENCESTEP_PRE_RANGE:
1072:Api\core\src/vl53l0x_api.c **** 				SequenceConfigNew |= 0x40;
 1313              		.loc 1 1072 0
 1314 004c 4025     		movs	r5, #64
 1315 004e 1D43     		orrs	r5, r3
 1316 0050 EDB2     		uxtb	r5, r5
 1317              	.LVL140:
ARM GAS  C:\Users\Rajesh\AppData\Local\Temp\cc8CcU56.s 			page 43


1073:Api\core\src/vl53l0x_api.c **** 				break;
 1318              		.loc 1 1073 0
 1319 0052 26E0     		b	.L58
 1320              	.LVL141:
 1321              	.L65:
1074:Api\core\src/vl53l0x_api.c **** 			case VL53L0X_SEQUENCESTEP_FINAL_RANGE:
1075:Api\core\src/vl53l0x_api.c **** 				SequenceConfigNew |= 0x80;
 1322              		.loc 1 1075 0
 1323 0054 8025     		movs	r5, #128
 1324 0056 6D42     		rsbs	r5, r5, #0
 1325 0058 1D43     		orrs	r5, r3
 1326 005a EDB2     		uxtb	r5, r5
 1327              	.LVL142:
1076:Api\core\src/vl53l0x_api.c **** 				break;
 1328              		.loc 1 1076 0
 1329 005c 21E0     		b	.L58
 1330              	.LVL143:
 1331              	.L59:
1077:Api\core\src/vl53l0x_api.c **** 			default:
1078:Api\core\src/vl53l0x_api.c **** 				Status = VL53L0X_ERROR_INVALID_PARAMS;
1079:Api\core\src/vl53l0x_api.c **** 			}
1080:Api\core\src/vl53l0x_api.c **** 		} else {
1081:Api\core\src/vl53l0x_api.c **** 			/* Disable requested sequence step
1082:Api\core\src/vl53l0x_api.c **** 			 */
1083:Api\core\src/vl53l0x_api.c **** 			switch (SequenceStepId) {
 1332              		.loc 1 1083 0
 1333 005e 042F     		cmp	r7, #4
 1334 0060 1CD8     		bhi	.L77
 1335 0062 BA00     		lsls	r2, r7, #2
 1336 0064 1C49     		ldr	r1, .L78+4
 1337 0066 8A58     		ldr	r2, [r1, r2]
 1338 0068 9746     		mov	pc, r2
 1339              		.section	.rodata
 1340              		.align	2
 1341              	.L67:
 1342 006c 6A000000 		.word	.L66
 1343 0070 72000000 		.word	.L68
 1344 0074 7A000000 		.word	.L69
 1345 0078 82000000 		.word	.L70
 1346 007c 8A000000 		.word	.L71
 1347              		.section	.text.VL53L0X_SetSequenceStepEnable
 1348              	.L66:
1084:Api\core\src/vl53l0x_api.c **** 			case VL53L0X_SEQUENCESTEP_TCC:
1085:Api\core\src/vl53l0x_api.c **** 				SequenceConfigNew &= 0xef;
 1349              		.loc 1 1085 0
 1350 006a 1022     		movs	r2, #16
 1351 006c 1D00     		movs	r5, r3
 1352 006e 9543     		bics	r5, r2
 1353              	.LVL144:
1086:Api\core\src/vl53l0x_api.c **** 				break;
 1354              		.loc 1 1086 0
 1355 0070 17E0     		b	.L58
 1356              	.LVL145:
 1357              	.L68:
1087:Api\core\src/vl53l0x_api.c **** 			case VL53L0X_SEQUENCESTEP_DSS:
1088:Api\core\src/vl53l0x_api.c **** 				SequenceConfigNew &= 0xd7;
 1358              		.loc 1 1088 0
ARM GAS  C:\Users\Rajesh\AppData\Local\Temp\cc8CcU56.s 			page 44


 1359 0072 2822     		movs	r2, #40
 1360 0074 1D00     		movs	r5, r3
 1361 0076 9543     		bics	r5, r2
 1362              	.LVL146:
1089:Api\core\src/vl53l0x_api.c **** 				break;
 1363              		.loc 1 1089 0
 1364 0078 13E0     		b	.L58
 1365              	.LVL147:
 1366              	.L69:
1090:Api\core\src/vl53l0x_api.c **** 			case VL53L0X_SEQUENCESTEP_MSRC:
1091:Api\core\src/vl53l0x_api.c **** 				SequenceConfigNew &= 0xfb;
 1367              		.loc 1 1091 0
 1368 007a 0422     		movs	r2, #4
 1369 007c 1D00     		movs	r5, r3
 1370 007e 9543     		bics	r5, r2
 1371              	.LVL148:
1092:Api\core\src/vl53l0x_api.c **** 				break;
 1372              		.loc 1 1092 0
 1373 0080 0FE0     		b	.L58
 1374              	.LVL149:
 1375              	.L70:
1093:Api\core\src/vl53l0x_api.c **** 			case VL53L0X_SEQUENCESTEP_PRE_RANGE:
1094:Api\core\src/vl53l0x_api.c **** 				SequenceConfigNew &= 0xbf;
 1376              		.loc 1 1094 0
 1377 0082 4022     		movs	r2, #64
 1378 0084 1D00     		movs	r5, r3
 1379 0086 9543     		bics	r5, r2
 1380              	.LVL150:
1095:Api\core\src/vl53l0x_api.c **** 				break;
 1381              		.loc 1 1095 0
 1382 0088 0BE0     		b	.L58
 1383              	.LVL151:
 1384              	.L71:
1096:Api\core\src/vl53l0x_api.c **** 			case VL53L0X_SEQUENCESTEP_FINAL_RANGE:
1097:Api\core\src/vl53l0x_api.c **** 				SequenceConfigNew &= 0x7f;
 1385              		.loc 1 1097 0
 1386 008a 7F25     		movs	r5, #127
 1387 008c 1D40     		ands	r5, r3
 1388              	.LVL152:
1098:Api\core\src/vl53l0x_api.c **** 				break;
 1389              		.loc 1 1098 0
 1390 008e 08E0     		b	.L58
 1391              	.LVL153:
 1392              	.L75:
1054:Api\core\src/vl53l0x_api.c **** 
 1393              		.loc 1 1054 0
 1394 0090 1D00     		movs	r5, r3
 1395 0092 06E0     		b	.L58
 1396              	.L76:
 1397 0094 1D00     		movs	r5, r3
1078:Api\core\src/vl53l0x_api.c **** 			}
 1398              		.loc 1 1078 0
 1399 0096 0424     		movs	r4, #4
 1400 0098 6442     		rsbs	r4, r4, #0
 1401 009a 02E0     		b	.L58
 1402              	.L77:
1054:Api\core\src/vl53l0x_api.c **** 
ARM GAS  C:\Users\Rajesh\AppData\Local\Temp\cc8CcU56.s 			page 45


 1403              		.loc 1 1054 0
 1404 009c 1D00     		movs	r5, r3
1099:Api\core\src/vl53l0x_api.c **** 			default:
1100:Api\core\src/vl53l0x_api.c **** 				Status = VL53L0X_ERROR_INVALID_PARAMS;
 1405              		.loc 1 1100 0
 1406 009e 0424     		movs	r4, #4
 1407 00a0 6442     		rsbs	r4, r4, #0
 1408              	.LVL154:
 1409              	.L58:
1101:Api\core\src/vl53l0x_api.c **** 			}
1102:Api\core\src/vl53l0x_api.c **** 		}
1103:Api\core\src/vl53l0x_api.c **** 	}
1104:Api\core\src/vl53l0x_api.c **** 
1105:Api\core\src/vl53l0x_api.c **** 	if (SequenceConfigNew != SequenceConfig) {
 1410              		.loc 1 1105 0
 1411 00a2 9D42     		cmp	r5, r3
 1412 00a4 12D0     		beq	.L72
1106:Api\core\src/vl53l0x_api.c **** 		/* Apply New Setting */
1107:Api\core\src/vl53l0x_api.c **** 		if (Status == VL53L0X_ERROR_NONE) {
 1413              		.loc 1 1107 0
 1414 00a6 002C     		cmp	r4, #0
 1415 00a8 05D1     		bne	.L73
1108:Api\core\src/vl53l0x_api.c **** 			Status = VL53L0X_WrByte(Dev,
 1416              		.loc 1 1108 0
 1417 00aa 2A00     		movs	r2, r5
 1418 00ac 0121     		movs	r1, #1
 1419 00ae 3000     		movs	r0, r6
 1420 00b0 FFF7FEFF 		bl	VL53L0X_WrByte
 1421              	.LVL155:
 1422 00b4 0400     		movs	r4, r0
 1423              	.LVL156:
 1424              	.L73:
1109:Api\core\src/vl53l0x_api.c **** 			VL53L0X_REG_SYSTEM_SEQUENCE_CONFIG, SequenceConfigNew);
1110:Api\core\src/vl53l0x_api.c **** 		}
1111:Api\core\src/vl53l0x_api.c **** 		if (Status == VL53L0X_ERROR_NONE)
 1425              		.loc 1 1111 0
 1426 00b6 002C     		cmp	r4, #0
 1427 00b8 02D1     		bne	.L74
1112:Api\core\src/vl53l0x_api.c **** 			PALDevDataSet(Dev, SequenceConfig, SequenceConfigNew);
 1428              		.loc 1 1112 0
 1429 00ba 9823     		movs	r3, #152
 1430 00bc 5B00     		lsls	r3, r3, #1
 1431 00be F554     		strb	r5, [r6, r3]
 1432              	.L74:
1113:Api\core\src/vl53l0x_api.c **** 
1114:Api\core\src/vl53l0x_api.c **** 
1115:Api\core\src/vl53l0x_api.c **** 		/* Recalculate timing budget */
1116:Api\core\src/vl53l0x_api.c **** 		if (Status == VL53L0X_ERROR_NONE) {
 1433              		.loc 1 1116 0
 1434 00c0 002C     		cmp	r4, #0
 1435 00c2 03D1     		bne	.L72
 1436              	.LVL157:
1117:Api\core\src/vl53l0x_api.c **** 			VL53L0X_GETPARAMETERFIELD(Dev,
1118:Api\core\src/vl53l0x_api.c **** 				MeasurementTimingBudgetMicroSeconds,
1119:Api\core\src/vl53l0x_api.c **** 				MeasurementTimingBudgetMicroSeconds);
1120:Api\core\src/vl53l0x_api.c **** 
1121:Api\core\src/vl53l0x_api.c **** 			VL53L0X_SetMeasurementTimingBudgetMicroSeconds(Dev,
ARM GAS  C:\Users\Rajesh\AppData\Local\Temp\cc8CcU56.s 			page 46


 1437              		.loc 1 1121 0
 1438 00c4 7169     		ldr	r1, [r6, #20]
 1439 00c6 3000     		movs	r0, r6
 1440 00c8 FFF7FEFF 		bl	VL53L0X_SetMeasurementTimingBudgetMicroSeconds
 1441              	.LVL158:
 1442              	.L72:
1122:Api\core\src/vl53l0x_api.c **** 				MeasurementTimingBudgetMicroSeconds);
1123:Api\core\src/vl53l0x_api.c **** 		}
1124:Api\core\src/vl53l0x_api.c **** 	}
1125:Api\core\src/vl53l0x_api.c **** 
1126:Api\core\src/vl53l0x_api.c **** 	LOG_FUNCTION_END(Status);
1127:Api\core\src/vl53l0x_api.c **** 
1128:Api\core\src/vl53l0x_api.c **** 	return Status;
1129:Api\core\src/vl53l0x_api.c **** }
 1443              		.loc 1 1129 0
 1444 00cc 2000     		movs	r0, r4
 1445 00ce 05B0     		add	sp, sp, #20
 1446              		@ sp needed
 1447              	.LVL159:
 1448              	.LVL160:
 1449              	.LVL161:
 1450 00d0 F0BD     		pop	{r4, r5, r6, r7, pc}
 1451              	.L79:
 1452 00d2 C046     		.align	2
 1453              	.L78:
 1454 00d4 58000000 		.word	.L61
 1455 00d8 6C000000 		.word	.L67
 1456              		.cfi_endproc
 1457              	.LFE39:
 1458              		.size	VL53L0X_SetSequenceStepEnable, .-VL53L0X_SetSequenceStepEnable
 1459              		.section	.text.sequence_step_enabled,"ax",%progbits
 1460              		.align	2
 1461              		.global	sequence_step_enabled
 1462              		.code	16
 1463              		.thumb_func
 1464              		.type	sequence_step_enabled, %function
 1465              	sequence_step_enabled:
 1466              	.LFB40:
1130:Api\core\src/vl53l0x_api.c **** 
1131:Api\core\src/vl53l0x_api.c **** VL53L0X_Error sequence_step_enabled(VL53L0X_DEV Dev,
1132:Api\core\src/vl53l0x_api.c **** 	VL53L0X_SequenceStepId SequenceStepId, uint8_t SequenceConfig,
1133:Api\core\src/vl53l0x_api.c **** 	uint8_t *pSequenceStepEnabled)
1134:Api\core\src/vl53l0x_api.c **** {
 1467              		.loc 1 1134 0
 1468              		.cfi_startproc
 1469              		@ args = 0, pretend = 0, frame = 0
 1470              		@ frame_needed = 0, uses_anonymous_args = 0
 1471              		@ link register save eliminated.
 1472              	.LVL162:
1135:Api\core\src/vl53l0x_api.c **** 	VL53L0X_Error Status = VL53L0X_ERROR_NONE;
1136:Api\core\src/vl53l0x_api.c **** 	*pSequenceStepEnabled = 0;
 1473              		.loc 1 1136 0
 1474 0000 0020     		movs	r0, #0
 1475              	.LVL163:
 1476 0002 1870     		strb	r0, [r3]
1137:Api\core\src/vl53l0x_api.c **** 	LOG_FUNCTION_START("");
1138:Api\core\src/vl53l0x_api.c **** 
ARM GAS  C:\Users\Rajesh\AppData\Local\Temp\cc8CcU56.s 			page 47


1139:Api\core\src/vl53l0x_api.c **** 	switch (SequenceStepId) {
 1477              		.loc 1 1139 0
 1478 0004 0429     		cmp	r1, #4
 1479 0006 1FD8     		bhi	.L88
 1480 0008 8900     		lsls	r1, r1, #2
 1481              	.LVL164:
 1482 000a 1148     		ldr	r0, .L89
 1483 000c 4158     		ldr	r1, [r0, r1]
 1484 000e 8F46     		mov	pc, r1
 1485              		.section	.rodata
 1486              		.align	2
 1487              	.L83:
 1488 0080 10000000 		.word	.L82
 1489 0084 1C000000 		.word	.L84
 1490 0088 28000000 		.word	.L85
 1491 008c 34000000 		.word	.L86
 1492 0090 40000000 		.word	.L87
 1493              		.section	.text.sequence_step_enabled
 1494              	.L82:
1140:Api\core\src/vl53l0x_api.c **** 	case VL53L0X_SEQUENCESTEP_TCC:
1141:Api\core\src/vl53l0x_api.c **** 		*pSequenceStepEnabled = (SequenceConfig & 0x10) >> 4;
 1495              		.loc 1 1141 0
 1496 0010 1211     		asrs	r2, r2, #4
 1497              	.LVL165:
 1498 0012 0121     		movs	r1, #1
 1499 0014 0A40     		ands	r2, r1
 1500 0016 1A70     		strb	r2, [r3]
1135:Api\core\src/vl53l0x_api.c **** 	*pSequenceStepEnabled = 0;
 1501              		.loc 1 1135 0
 1502 0018 0020     		movs	r0, #0
1142:Api\core\src/vl53l0x_api.c **** 		break;
 1503              		.loc 1 1142 0
 1504 001a 17E0     		b	.L81
 1505              	.LVL166:
 1506              	.L84:
1143:Api\core\src/vl53l0x_api.c **** 	case VL53L0X_SEQUENCESTEP_DSS:
1144:Api\core\src/vl53l0x_api.c **** 		*pSequenceStepEnabled = (SequenceConfig & 0x08) >> 3;
 1507              		.loc 1 1144 0
 1508 001c D210     		asrs	r2, r2, #3
 1509              	.LVL167:
 1510 001e 0121     		movs	r1, #1
 1511 0020 0A40     		ands	r2, r1
 1512 0022 1A70     		strb	r2, [r3]
1135:Api\core\src/vl53l0x_api.c **** 	*pSequenceStepEnabled = 0;
 1513              		.loc 1 1135 0
 1514 0024 0020     		movs	r0, #0
1145:Api\core\src/vl53l0x_api.c **** 		break;
 1515              		.loc 1 1145 0
 1516 0026 11E0     		b	.L81
 1517              	.LVL168:
 1518              	.L85:
1146:Api\core\src/vl53l0x_api.c **** 	case VL53L0X_SEQUENCESTEP_MSRC:
1147:Api\core\src/vl53l0x_api.c **** 		*pSequenceStepEnabled = (SequenceConfig & 0x04) >> 2;
 1519              		.loc 1 1147 0
 1520 0028 9210     		asrs	r2, r2, #2
 1521              	.LVL169:
 1522 002a 0121     		movs	r1, #1
ARM GAS  C:\Users\Rajesh\AppData\Local\Temp\cc8CcU56.s 			page 48


 1523 002c 0A40     		ands	r2, r1
 1524 002e 1A70     		strb	r2, [r3]
1135:Api\core\src/vl53l0x_api.c **** 	*pSequenceStepEnabled = 0;
 1525              		.loc 1 1135 0
 1526 0030 0020     		movs	r0, #0
1148:Api\core\src/vl53l0x_api.c **** 		break;
 1527              		.loc 1 1148 0
 1528 0032 0BE0     		b	.L81
 1529              	.LVL170:
 1530              	.L86:
1149:Api\core\src/vl53l0x_api.c **** 	case VL53L0X_SEQUENCESTEP_PRE_RANGE:
1150:Api\core\src/vl53l0x_api.c **** 		*pSequenceStepEnabled = (SequenceConfig & 0x40) >> 6;
 1531              		.loc 1 1150 0
 1532 0034 9211     		asrs	r2, r2, #6
 1533              	.LVL171:
 1534 0036 0121     		movs	r1, #1
 1535 0038 0A40     		ands	r2, r1
 1536 003a 1A70     		strb	r2, [r3]
1135:Api\core\src/vl53l0x_api.c **** 	*pSequenceStepEnabled = 0;
 1537              		.loc 1 1135 0
 1538 003c 0020     		movs	r0, #0
1151:Api\core\src/vl53l0x_api.c **** 		break;
 1539              		.loc 1 1151 0
 1540 003e 05E0     		b	.L81
 1541              	.LVL172:
 1542              	.L87:
1152:Api\core\src/vl53l0x_api.c **** 	case VL53L0X_SEQUENCESTEP_FINAL_RANGE:
1153:Api\core\src/vl53l0x_api.c **** 		*pSequenceStepEnabled = (SequenceConfig & 0x80) >> 7;
 1543              		.loc 1 1153 0
 1544 0040 D209     		lsrs	r2, r2, #7
 1545              	.LVL173:
 1546 0042 1A70     		strb	r2, [r3]
1135:Api\core\src/vl53l0x_api.c **** 	*pSequenceStepEnabled = 0;
 1547              		.loc 1 1135 0
 1548 0044 0020     		movs	r0, #0
1154:Api\core\src/vl53l0x_api.c **** 		break;
 1549              		.loc 1 1154 0
 1550 0046 01E0     		b	.L81
 1551              	.LVL174:
 1552              	.L88:
1155:Api\core\src/vl53l0x_api.c **** 	default:
1156:Api\core\src/vl53l0x_api.c **** 		Status = VL53L0X_ERROR_INVALID_PARAMS;
 1553              		.loc 1 1156 0
 1554 0048 0420     		movs	r0, #4
 1555 004a 4042     		rsbs	r0, r0, #0
 1556              	.LVL175:
 1557              	.L81:
1157:Api\core\src/vl53l0x_api.c **** 	}
1158:Api\core\src/vl53l0x_api.c **** 
1159:Api\core\src/vl53l0x_api.c **** 	LOG_FUNCTION_END(Status);
1160:Api\core\src/vl53l0x_api.c **** 	return Status;
1161:Api\core\src/vl53l0x_api.c **** }
 1558              		.loc 1 1161 0
 1559              		@ sp needed
 1560 004c 7047     		bx	lr
 1561              	.L90:
 1562 004e C046     		.align	2
ARM GAS  C:\Users\Rajesh\AppData\Local\Temp\cc8CcU56.s 			page 49


 1563              	.L89:
 1564 0050 80000000 		.word	.L83
 1565              		.cfi_endproc
 1566              	.LFE40:
 1567              		.size	sequence_step_enabled, .-sequence_step_enabled
 1568              		.section	.text.VL53L0X_GetSequenceStepEnable,"ax",%progbits
 1569              		.align	2
 1570              		.global	VL53L0X_GetSequenceStepEnable
 1571              		.code	16
 1572              		.thumb_func
 1573              		.type	VL53L0X_GetSequenceStepEnable, %function
 1574              	VL53L0X_GetSequenceStepEnable:
 1575              	.LFB41:
1162:Api\core\src/vl53l0x_api.c **** 
1163:Api\core\src/vl53l0x_api.c **** VL53L0X_Error VL53L0X_GetSequenceStepEnable(VL53L0X_DEV Dev,
1164:Api\core\src/vl53l0x_api.c **** 	VL53L0X_SequenceStepId SequenceStepId, uint8_t *pSequenceStepEnabled)
1165:Api\core\src/vl53l0x_api.c **** {
 1576              		.loc 1 1165 0
 1577              		.cfi_startproc
 1578              		@ args = 0, pretend = 0, frame = 8
 1579              		@ frame_needed = 0, uses_anonymous_args = 0
 1580              	.LVL176:
 1581 0000 70B5     		push	{r4, r5, r6, lr}
 1582              		.cfi_def_cfa_offset 16
 1583              		.cfi_offset 4, -16
 1584              		.cfi_offset 5, -12
 1585              		.cfi_offset 6, -8
 1586              		.cfi_offset 14, -4
 1587 0002 82B0     		sub	sp, sp, #8
 1588              		.cfi_def_cfa_offset 24
 1589 0004 0400     		movs	r4, r0
 1590 0006 0D00     		movs	r5, r1
 1591 0008 1600     		movs	r6, r2
 1592              	.LVL177:
1166:Api\core\src/vl53l0x_api.c **** 	VL53L0X_Error Status = VL53L0X_ERROR_NONE;
1167:Api\core\src/vl53l0x_api.c **** 	uint8_t SequenceConfig = 0;
 1593              		.loc 1 1167 0
 1594 000a 6B46     		mov	r3, sp
 1595 000c DA1D     		adds	r2, r3, #7
 1596              	.LVL178:
 1597 000e 0023     		movs	r3, #0
 1598 0010 1370     		strb	r3, [r2]
1168:Api\core\src/vl53l0x_api.c **** 	LOG_FUNCTION_START("");
1169:Api\core\src/vl53l0x_api.c **** 
1170:Api\core\src/vl53l0x_api.c **** 	Status = VL53L0X_RdByte(Dev, VL53L0X_REG_SYSTEM_SEQUENCE_CONFIG,
 1599              		.loc 1 1170 0
 1600 0012 0121     		movs	r1, #1
 1601              	.LVL179:
 1602 0014 FFF7FEFF 		bl	VL53L0X_RdByte
 1603              	.LVL180:
1171:Api\core\src/vl53l0x_api.c **** 		&SequenceConfig);
1172:Api\core\src/vl53l0x_api.c **** 
1173:Api\core\src/vl53l0x_api.c **** 	if (Status == VL53L0X_ERROR_NONE) {
 1604              		.loc 1 1173 0
 1605 0018 0028     		cmp	r0, #0
 1606 001a 06D1     		bne	.L92
1174:Api\core\src/vl53l0x_api.c **** 		Status = sequence_step_enabled(Dev, SequenceStepId,
ARM GAS  C:\Users\Rajesh\AppData\Local\Temp\cc8CcU56.s 			page 50


 1607              		.loc 1 1174 0
 1608 001c 6B46     		mov	r3, sp
 1609 001e DA79     		ldrb	r2, [r3, #7]
 1610 0020 3300     		movs	r3, r6
 1611 0022 2900     		movs	r1, r5
 1612 0024 2000     		movs	r0, r4
 1613              	.LVL181:
 1614 0026 FFF7FEFF 		bl	sequence_step_enabled
 1615              	.LVL182:
 1616              	.L92:
1175:Api\core\src/vl53l0x_api.c **** 			SequenceConfig, pSequenceStepEnabled);
1176:Api\core\src/vl53l0x_api.c **** 	}
1177:Api\core\src/vl53l0x_api.c **** 
1178:Api\core\src/vl53l0x_api.c **** 	LOG_FUNCTION_END(Status);
1179:Api\core\src/vl53l0x_api.c **** 	return Status;
1180:Api\core\src/vl53l0x_api.c **** }
 1617              		.loc 1 1180 0
 1618 002a 02B0     		add	sp, sp, #8
 1619              		@ sp needed
 1620              	.LVL183:
 1621              	.LVL184:
 1622 002c 70BD     		pop	{r4, r5, r6, pc}
 1623              		.cfi_endproc
 1624              	.LFE41:
 1625              		.size	VL53L0X_GetSequenceStepEnable, .-VL53L0X_GetSequenceStepEnable
 1626 002e C046     		.section	.text.VL53L0X_GetSequenceStepEnables,"ax",%progbits
 1627              		.align	2
 1628              		.global	VL53L0X_GetSequenceStepEnables
 1629              		.code	16
 1630              		.thumb_func
 1631              		.type	VL53L0X_GetSequenceStepEnables, %function
 1632              	VL53L0X_GetSequenceStepEnables:
 1633              	.LFB42:
1181:Api\core\src/vl53l0x_api.c **** 
1182:Api\core\src/vl53l0x_api.c **** VL53L0X_Error VL53L0X_GetSequenceStepEnables(VL53L0X_DEV Dev,
1183:Api\core\src/vl53l0x_api.c **** 	VL53L0X_SchedulerSequenceSteps_t *pSchedulerSequenceSteps)
1184:Api\core\src/vl53l0x_api.c **** {
 1634              		.loc 1 1184 0
 1635              		.cfi_startproc
 1636              		@ args = 0, pretend = 0, frame = 8
 1637              		@ frame_needed = 0, uses_anonymous_args = 0
 1638              	.LVL185:
 1639 0000 30B5     		push	{r4, r5, lr}
 1640              		.cfi_def_cfa_offset 12
 1641              		.cfi_offset 4, -12
 1642              		.cfi_offset 5, -8
 1643              		.cfi_offset 14, -4
 1644 0002 83B0     		sub	sp, sp, #12
 1645              		.cfi_def_cfa_offset 24
 1646 0004 0400     		movs	r4, r0
 1647 0006 0D00     		movs	r5, r1
 1648              	.LVL186:
1185:Api\core\src/vl53l0x_api.c **** 	VL53L0X_Error Status = VL53L0X_ERROR_NONE;
1186:Api\core\src/vl53l0x_api.c **** 	uint8_t SequenceConfig = 0;
 1649              		.loc 1 1186 0
 1650 0008 6B46     		mov	r3, sp
 1651 000a DA1D     		adds	r2, r3, #7
ARM GAS  C:\Users\Rajesh\AppData\Local\Temp\cc8CcU56.s 			page 51


 1652 000c 0023     		movs	r3, #0
 1653 000e 1370     		strb	r3, [r2]
1187:Api\core\src/vl53l0x_api.c **** 	LOG_FUNCTION_START("");
1188:Api\core\src/vl53l0x_api.c **** 
1189:Api\core\src/vl53l0x_api.c **** 	Status = VL53L0X_RdByte(Dev, VL53L0X_REG_SYSTEM_SEQUENCE_CONFIG,
 1654              		.loc 1 1189 0
 1655 0010 0121     		movs	r1, #1
 1656              	.LVL187:
 1657 0012 FFF7FEFF 		bl	VL53L0X_RdByte
 1658              	.LVL188:
1190:Api\core\src/vl53l0x_api.c **** 		&SequenceConfig);
1191:Api\core\src/vl53l0x_api.c **** 
1192:Api\core\src/vl53l0x_api.c **** 	if (Status == VL53L0X_ERROR_NONE) {
 1659              		.loc 1 1192 0
 1660 0016 0028     		cmp	r0, #0
 1661 0018 06D1     		bne	.L94
1193:Api\core\src/vl53l0x_api.c **** 		Status = sequence_step_enabled(Dev,
 1662              		.loc 1 1193 0
 1663 001a 6B46     		mov	r3, sp
 1664 001c DA79     		ldrb	r2, [r3, #7]
 1665 001e 2B00     		movs	r3, r5
 1666 0020 0021     		movs	r1, #0
 1667 0022 2000     		movs	r0, r4
 1668              	.LVL189:
 1669 0024 FFF7FEFF 		bl	sequence_step_enabled
 1670              	.LVL190:
 1671              	.L94:
1194:Api\core\src/vl53l0x_api.c **** 		VL53L0X_SEQUENCESTEP_TCC, SequenceConfig,
1195:Api\core\src/vl53l0x_api.c **** 			&pSchedulerSequenceSteps->TccOn);
1196:Api\core\src/vl53l0x_api.c **** 	}
1197:Api\core\src/vl53l0x_api.c **** 	if (Status == VL53L0X_ERROR_NONE) {
 1672              		.loc 1 1197 0
 1673 0028 0028     		cmp	r0, #0
 1674 002a 06D1     		bne	.L95
1198:Api\core\src/vl53l0x_api.c **** 		Status = sequence_step_enabled(Dev,
 1675              		.loc 1 1198 0
 1676 002c 6B46     		mov	r3, sp
 1677 002e DA79     		ldrb	r2, [r3, #7]
 1678 0030 AB1C     		adds	r3, r5, #2
 1679 0032 0121     		movs	r1, #1
 1680 0034 2000     		movs	r0, r4
 1681              	.LVL191:
 1682 0036 FFF7FEFF 		bl	sequence_step_enabled
 1683              	.LVL192:
 1684              	.L95:
1199:Api\core\src/vl53l0x_api.c **** 		VL53L0X_SEQUENCESTEP_DSS, SequenceConfig,
1200:Api\core\src/vl53l0x_api.c **** 			&pSchedulerSequenceSteps->DssOn);
1201:Api\core\src/vl53l0x_api.c **** 	}
1202:Api\core\src/vl53l0x_api.c **** 	if (Status == VL53L0X_ERROR_NONE) {
 1685              		.loc 1 1202 0
 1686 003a 0028     		cmp	r0, #0
 1687 003c 06D1     		bne	.L96
1203:Api\core\src/vl53l0x_api.c **** 		Status = sequence_step_enabled(Dev,
 1688              		.loc 1 1203 0
 1689 003e 6B46     		mov	r3, sp
 1690 0040 DA79     		ldrb	r2, [r3, #7]
 1691 0042 6B1C     		adds	r3, r5, #1
ARM GAS  C:\Users\Rajesh\AppData\Local\Temp\cc8CcU56.s 			page 52


 1692 0044 0221     		movs	r1, #2
 1693 0046 2000     		movs	r0, r4
 1694              	.LVL193:
 1695 0048 FFF7FEFF 		bl	sequence_step_enabled
 1696              	.LVL194:
 1697              	.L96:
1204:Api\core\src/vl53l0x_api.c **** 		VL53L0X_SEQUENCESTEP_MSRC, SequenceConfig,
1205:Api\core\src/vl53l0x_api.c **** 			&pSchedulerSequenceSteps->MsrcOn);
1206:Api\core\src/vl53l0x_api.c **** 	}
1207:Api\core\src/vl53l0x_api.c **** 	if (Status == VL53L0X_ERROR_NONE) {
 1698              		.loc 1 1207 0
 1699 004c 0028     		cmp	r0, #0
 1700 004e 06D1     		bne	.L97
1208:Api\core\src/vl53l0x_api.c **** 		Status = sequence_step_enabled(Dev,
 1701              		.loc 1 1208 0
 1702 0050 6B46     		mov	r3, sp
 1703 0052 DA79     		ldrb	r2, [r3, #7]
 1704 0054 EB1C     		adds	r3, r5, #3
 1705 0056 0321     		movs	r1, #3
 1706 0058 2000     		movs	r0, r4
 1707              	.LVL195:
 1708 005a FFF7FEFF 		bl	sequence_step_enabled
 1709              	.LVL196:
 1710              	.L97:
1209:Api\core\src/vl53l0x_api.c **** 		VL53L0X_SEQUENCESTEP_PRE_RANGE, SequenceConfig,
1210:Api\core\src/vl53l0x_api.c **** 			&pSchedulerSequenceSteps->PreRangeOn);
1211:Api\core\src/vl53l0x_api.c **** 	}
1212:Api\core\src/vl53l0x_api.c **** 	if (Status == VL53L0X_ERROR_NONE) {
 1711              		.loc 1 1212 0
 1712 005e 0028     		cmp	r0, #0
 1713 0060 06D1     		bne	.L98
1213:Api\core\src/vl53l0x_api.c **** 		Status = sequence_step_enabled(Dev,
 1714              		.loc 1 1213 0
 1715 0062 6B46     		mov	r3, sp
 1716 0064 DA79     		ldrb	r2, [r3, #7]
 1717 0066 2B1D     		adds	r3, r5, #4
 1718 0068 0421     		movs	r1, #4
 1719 006a 2000     		movs	r0, r4
 1720              	.LVL197:
 1721 006c FFF7FEFF 		bl	sequence_step_enabled
 1722              	.LVL198:
 1723              	.L98:
1214:Api\core\src/vl53l0x_api.c **** 		VL53L0X_SEQUENCESTEP_FINAL_RANGE, SequenceConfig,
1215:Api\core\src/vl53l0x_api.c **** 			&pSchedulerSequenceSteps->FinalRangeOn);
1216:Api\core\src/vl53l0x_api.c **** 	}
1217:Api\core\src/vl53l0x_api.c **** 
1218:Api\core\src/vl53l0x_api.c **** 	LOG_FUNCTION_END(Status);
1219:Api\core\src/vl53l0x_api.c **** 	return Status;
1220:Api\core\src/vl53l0x_api.c **** }
 1724              		.loc 1 1220 0
 1725 0070 03B0     		add	sp, sp, #12
 1726              		@ sp needed
 1727              	.LVL199:
 1728              	.LVL200:
 1729 0072 30BD     		pop	{r4, r5, pc}
 1730              		.cfi_endproc
 1731              	.LFE42:
ARM GAS  C:\Users\Rajesh\AppData\Local\Temp\cc8CcU56.s 			page 53


 1732              		.size	VL53L0X_GetSequenceStepEnables, .-VL53L0X_GetSequenceStepEnables
 1733              		.section	.text.VL53L0X_GetNumberOfSequenceSteps,"ax",%progbits
 1734              		.align	2
 1735              		.global	VL53L0X_GetNumberOfSequenceSteps
 1736              		.code	16
 1737              		.thumb_func
 1738              		.type	VL53L0X_GetNumberOfSequenceSteps, %function
 1739              	VL53L0X_GetNumberOfSequenceSteps:
 1740              	.LFB43:
1221:Api\core\src/vl53l0x_api.c **** 
1222:Api\core\src/vl53l0x_api.c **** VL53L0X_Error VL53L0X_GetNumberOfSequenceSteps(VL53L0X_DEV Dev,
1223:Api\core\src/vl53l0x_api.c **** 	uint8_t *pNumberOfSequenceSteps)
1224:Api\core\src/vl53l0x_api.c **** {
 1741              		.loc 1 1224 0
 1742              		.cfi_startproc
 1743              		@ args = 0, pretend = 0, frame = 0
 1744              		@ frame_needed = 0, uses_anonymous_args = 0
 1745              		@ link register save eliminated.
 1746              	.LVL201:
1225:Api\core\src/vl53l0x_api.c **** 	VL53L0X_Error Status = VL53L0X_ERROR_NONE;
1226:Api\core\src/vl53l0x_api.c **** 	LOG_FUNCTION_START("");
1227:Api\core\src/vl53l0x_api.c **** 
1228:Api\core\src/vl53l0x_api.c **** 	*pNumberOfSequenceSteps = VL53L0X_SEQUENCESTEP_NUMBER_OF_CHECKS;
 1747              		.loc 1 1228 0
 1748 0000 0523     		movs	r3, #5
 1749 0002 0B70     		strb	r3, [r1]
1229:Api\core\src/vl53l0x_api.c **** 
1230:Api\core\src/vl53l0x_api.c **** 	LOG_FUNCTION_END(Status);
1231:Api\core\src/vl53l0x_api.c **** 	return Status;
1232:Api\core\src/vl53l0x_api.c **** }
 1750              		.loc 1 1232 0
 1751 0004 0020     		movs	r0, #0
 1752              	.LVL202:
 1753              		@ sp needed
 1754 0006 7047     		bx	lr
 1755              		.cfi_endproc
 1756              	.LFE43:
 1757              		.size	VL53L0X_GetNumberOfSequenceSteps, .-VL53L0X_GetNumberOfSequenceSteps
 1758              		.section	.text.VL53L0X_GetSequenceStepsInfo,"ax",%progbits
 1759              		.align	2
 1760              		.global	VL53L0X_GetSequenceStepsInfo
 1761              		.code	16
 1762              		.thumb_func
 1763              		.type	VL53L0X_GetSequenceStepsInfo, %function
 1764              	VL53L0X_GetSequenceStepsInfo:
 1765              	.LFB44:
1233:Api\core\src/vl53l0x_api.c **** 
1234:Api\core\src/vl53l0x_api.c **** VL53L0X_Error VL53L0X_GetSequenceStepsInfo(VL53L0X_SequenceStepId SequenceStepId,
1235:Api\core\src/vl53l0x_api.c **** 	char *pSequenceStepsString)
1236:Api\core\src/vl53l0x_api.c **** {
 1766              		.loc 1 1236 0
 1767              		.cfi_startproc
 1768              		@ args = 0, pretend = 0, frame = 0
 1769              		@ frame_needed = 0, uses_anonymous_args = 0
 1770              	.LVL203:
 1771 0000 10B5     		push	{r4, lr}
 1772              		.cfi_def_cfa_offset 8
ARM GAS  C:\Users\Rajesh\AppData\Local\Temp\cc8CcU56.s 			page 54


 1773              		.cfi_offset 4, -8
 1774              		.cfi_offset 14, -4
 1775              	.LVL204:
1237:Api\core\src/vl53l0x_api.c **** 	VL53L0X_Error Status = VL53L0X_ERROR_NONE;
1238:Api\core\src/vl53l0x_api.c **** 	LOG_FUNCTION_START("");
1239:Api\core\src/vl53l0x_api.c **** 
1240:Api\core\src/vl53l0x_api.c **** 	Status = VL53L0X_get_sequence_steps_info(
 1776              		.loc 1 1240 0
 1777 0002 FFF7FEFF 		bl	VL53L0X_get_sequence_steps_info
 1778              	.LVL205:
1241:Api\core\src/vl53l0x_api.c **** 			SequenceStepId,
1242:Api\core\src/vl53l0x_api.c **** 			pSequenceStepsString);
1243:Api\core\src/vl53l0x_api.c **** 
1244:Api\core\src/vl53l0x_api.c **** 	LOG_FUNCTION_END(Status);
1245:Api\core\src/vl53l0x_api.c **** 
1246:Api\core\src/vl53l0x_api.c **** 	return Status;
1247:Api\core\src/vl53l0x_api.c **** }
 1779              		.loc 1 1247 0
 1780              		@ sp needed
 1781 0006 10BD     		pop	{r4, pc}
 1782              		.cfi_endproc
 1783              	.LFE44:
 1784              		.size	VL53L0X_GetSequenceStepsInfo, .-VL53L0X_GetSequenceStepsInfo
 1785              		.section	.text.VL53L0X_SetSequenceStepTimeout,"ax",%progbits
 1786              		.align	2
 1787              		.global	VL53L0X_SetSequenceStepTimeout
 1788              		.code	16
 1789              		.thumb_func
 1790              		.type	VL53L0X_SetSequenceStepTimeout, %function
 1791              	VL53L0X_SetSequenceStepTimeout:
 1792              	.LFB45:
1248:Api\core\src/vl53l0x_api.c **** 
1249:Api\core\src/vl53l0x_api.c **** VL53L0X_Error VL53L0X_SetSequenceStepTimeout(VL53L0X_DEV Dev,
1250:Api\core\src/vl53l0x_api.c **** 	VL53L0X_SequenceStepId SequenceStepId, FixPoint1616_t TimeOutMilliSecs)
1251:Api\core\src/vl53l0x_api.c **** {
 1793              		.loc 1 1251 0
 1794              		.cfi_startproc
 1795              		@ args = 0, pretend = 0, frame = 8
 1796              		@ frame_needed = 0, uses_anonymous_args = 0
 1797              	.LVL206:
 1798 0000 70B5     		push	{r4, r5, r6, lr}
 1799              		.cfi_def_cfa_offset 16
 1800              		.cfi_offset 4, -16
 1801              		.cfi_offset 5, -12
 1802              		.cfi_offset 6, -8
 1803              		.cfi_offset 14, -4
 1804 0002 82B0     		sub	sp, sp, #8
 1805              		.cfi_def_cfa_offset 24
 1806 0004 0400     		movs	r4, r0
 1807 0006 0D00     		movs	r5, r1
 1808              	.LVL207:
1252:Api\core\src/vl53l0x_api.c **** 	VL53L0X_Error Status = VL53L0X_ERROR_NONE;
1253:Api\core\src/vl53l0x_api.c **** 	VL53L0X_Error Status1 = VL53L0X_ERROR_NONE;
1254:Api\core\src/vl53l0x_api.c **** 	uint32_t TimeoutMicroSeconds = ((TimeOutMilliSecs * 1000) + 0x8000)
 1809              		.loc 1 1254 0
 1810 0008 FA23     		movs	r3, #250
 1811 000a 9B00     		lsls	r3, r3, #2
ARM GAS  C:\Users\Rajesh\AppData\Local\Temp\cc8CcU56.s 			page 55


 1812 000c 5A43     		muls	r2, r3
 1813              	.LVL208:
 1814 000e 8023     		movs	r3, #128
 1815 0010 1B02     		lsls	r3, r3, #8
 1816 0012 9C46     		mov	ip, r3
 1817 0014 6244     		add	r2, r2, ip
 1818 0016 160C     		lsrs	r6, r2, #16
 1819              	.LVL209:
1255:Api\core\src/vl53l0x_api.c **** 		>> 16;
1256:Api\core\src/vl53l0x_api.c **** 	uint32_t MeasurementTimingBudgetMicroSeconds;
1257:Api\core\src/vl53l0x_api.c **** 	FixPoint1616_t OldTimeOutMicroSeconds;
1258:Api\core\src/vl53l0x_api.c **** 
1259:Api\core\src/vl53l0x_api.c **** 	LOG_FUNCTION_START("");
1260:Api\core\src/vl53l0x_api.c **** 
1261:Api\core\src/vl53l0x_api.c **** 	/* Read back the current value in case we need to revert back to this.
1262:Api\core\src/vl53l0x_api.c **** 	 */
1263:Api\core\src/vl53l0x_api.c **** 	Status = get_sequence_step_timeout(Dev, SequenceStepId,
 1820              		.loc 1 1263 0
 1821 0018 01AA     		add	r2, sp, #4
 1822 001a FFF7FEFF 		bl	get_sequence_step_timeout
 1823              	.LVL210:
1264:Api\core\src/vl53l0x_api.c **** 		&OldTimeOutMicroSeconds);
1265:Api\core\src/vl53l0x_api.c **** 
1266:Api\core\src/vl53l0x_api.c **** 	if (Status == VL53L0X_ERROR_NONE) {
 1824              		.loc 1 1266 0
 1825 001e 0028     		cmp	r0, #0
 1826 0020 04D1     		bne	.L102
1267:Api\core\src/vl53l0x_api.c **** 		Status = set_sequence_step_timeout(Dev, SequenceStepId,
 1827              		.loc 1 1267 0
 1828 0022 3200     		movs	r2, r6
 1829 0024 2900     		movs	r1, r5
 1830 0026 2000     		movs	r0, r4
 1831              	.LVL211:
 1832 0028 FFF7FEFF 		bl	set_sequence_step_timeout
 1833              	.LVL212:
 1834              	.L102:
1268:Api\core\src/vl53l0x_api.c **** 			TimeoutMicroSeconds);
1269:Api\core\src/vl53l0x_api.c **** 	}
1270:Api\core\src/vl53l0x_api.c **** 
1271:Api\core\src/vl53l0x_api.c **** 	if (Status == VL53L0X_ERROR_NONE) {
 1835              		.loc 1 1271 0
 1836 002c 0028     		cmp	r0, #0
 1837 002e 11D1     		bne	.L103
1272:Api\core\src/vl53l0x_api.c **** 		VL53L0X_GETPARAMETERFIELD(Dev,
 1838              		.loc 1 1272 0
 1839 0030 6669     		ldr	r6, [r4, #20]
 1840              	.LVL213:
1273:Api\core\src/vl53l0x_api.c **** 			MeasurementTimingBudgetMicroSeconds,
1274:Api\core\src/vl53l0x_api.c **** 			MeasurementTimingBudgetMicroSeconds);
1275:Api\core\src/vl53l0x_api.c **** 
1276:Api\core\src/vl53l0x_api.c **** 		/* At this point we don't know if the requested value is valid,
1277:Api\core\src/vl53l0x_api.c **** 		 therefore proceed to update the entire timing budget and
1278:Api\core\src/vl53l0x_api.c **** 		 if this fails, revert back to the previous value.
1279:Api\core\src/vl53l0x_api.c **** 		 */
1280:Api\core\src/vl53l0x_api.c **** 		Status = VL53L0X_SetMeasurementTimingBudgetMicroSeconds(Dev,
 1841              		.loc 1 1280 0
 1842 0032 3100     		movs	r1, r6
ARM GAS  C:\Users\Rajesh\AppData\Local\Temp\cc8CcU56.s 			page 56


 1843 0034 2000     		movs	r0, r4
 1844              	.LVL214:
 1845 0036 FFF7FEFF 		bl	VL53L0X_SetMeasurementTimingBudgetMicroSeconds
 1846              	.LVL215:
1281:Api\core\src/vl53l0x_api.c **** 			MeasurementTimingBudgetMicroSeconds);
1282:Api\core\src/vl53l0x_api.c **** 
1283:Api\core\src/vl53l0x_api.c **** 		if (Status != VL53L0X_ERROR_NONE) {
 1847              		.loc 1 1283 0
 1848 003a 0028     		cmp	r0, #0
 1849 003c 0AD0     		beq	.L103
1284:Api\core\src/vl53l0x_api.c **** 			Status1 = set_sequence_step_timeout(Dev, SequenceStepId,
 1850              		.loc 1 1284 0
 1851 003e 019A     		ldr	r2, [sp, #4]
 1852 0040 2900     		movs	r1, r5
 1853 0042 2000     		movs	r0, r4
 1854              	.LVL216:
 1855 0044 FFF7FEFF 		bl	set_sequence_step_timeout
 1856              	.LVL217:
1285:Api\core\src/vl53l0x_api.c **** 				OldTimeOutMicroSeconds);
1286:Api\core\src/vl53l0x_api.c **** 
1287:Api\core\src/vl53l0x_api.c **** 			if (Status1 == VL53L0X_ERROR_NONE) {
 1857              		.loc 1 1287 0
 1858 0048 0028     		cmp	r0, #0
 1859 004a 03D1     		bne	.L103
1288:Api\core\src/vl53l0x_api.c **** 				Status1 =
 1860              		.loc 1 1288 0
 1861 004c 3100     		movs	r1, r6
 1862 004e 2000     		movs	r0, r4
 1863              	.LVL218:
 1864 0050 FFF7FEFF 		bl	VL53L0X_SetMeasurementTimingBudgetMicroSeconds
 1865              	.LVL219:
 1866              	.L103:
1289:Api\core\src/vl53l0x_api.c **** 				VL53L0X_SetMeasurementTimingBudgetMicroSeconds(
1290:Api\core\src/vl53l0x_api.c **** 					Dev,
1291:Api\core\src/vl53l0x_api.c **** 					MeasurementTimingBudgetMicroSeconds);
1292:Api\core\src/vl53l0x_api.c **** 			}
1293:Api\core\src/vl53l0x_api.c **** 
1294:Api\core\src/vl53l0x_api.c **** 			Status = Status1;
1295:Api\core\src/vl53l0x_api.c **** 		}
1296:Api\core\src/vl53l0x_api.c **** 	}
1297:Api\core\src/vl53l0x_api.c **** 
1298:Api\core\src/vl53l0x_api.c **** 	LOG_FUNCTION_END(Status);
1299:Api\core\src/vl53l0x_api.c **** 
1300:Api\core\src/vl53l0x_api.c **** 	return Status;
1301:Api\core\src/vl53l0x_api.c **** }
 1867              		.loc 1 1301 0
 1868 0054 02B0     		add	sp, sp, #8
 1869              		@ sp needed
 1870              	.LVL220:
 1871 0056 70BD     		pop	{r4, r5, r6, pc}
 1872              		.cfi_endproc
 1873              	.LFE45:
 1874              		.size	VL53L0X_SetSequenceStepTimeout, .-VL53L0X_SetSequenceStepTimeout
 1875              		.global	__aeabi_uidiv
 1876              		.section	.text.VL53L0X_GetSequenceStepTimeout,"ax",%progbits
 1877              		.align	2
 1878              		.global	VL53L0X_GetSequenceStepTimeout
ARM GAS  C:\Users\Rajesh\AppData\Local\Temp\cc8CcU56.s 			page 57


 1879              		.code	16
 1880              		.thumb_func
 1881              		.type	VL53L0X_GetSequenceStepTimeout, %function
 1882              	VL53L0X_GetSequenceStepTimeout:
 1883              	.LFB46:
1302:Api\core\src/vl53l0x_api.c **** 
1303:Api\core\src/vl53l0x_api.c **** VL53L0X_Error VL53L0X_GetSequenceStepTimeout(VL53L0X_DEV Dev,
1304:Api\core\src/vl53l0x_api.c **** 	VL53L0X_SequenceStepId SequenceStepId, FixPoint1616_t *pTimeOutMilliSecs)
1305:Api\core\src/vl53l0x_api.c **** {
 1884              		.loc 1 1305 0
 1885              		.cfi_startproc
 1886              		@ args = 0, pretend = 0, frame = 8
 1887              		@ frame_needed = 0, uses_anonymous_args = 0
 1888              	.LVL221:
 1889 0000 30B5     		push	{r4, r5, lr}
 1890              		.cfi_def_cfa_offset 12
 1891              		.cfi_offset 4, -12
 1892              		.cfi_offset 5, -8
 1893              		.cfi_offset 14, -4
 1894 0002 83B0     		sub	sp, sp, #12
 1895              		.cfi_def_cfa_offset 24
 1896 0004 1500     		movs	r5, r2
 1897              	.LVL222:
1306:Api\core\src/vl53l0x_api.c **** 	VL53L0X_Error Status = VL53L0X_ERROR_NONE;
1307:Api\core\src/vl53l0x_api.c **** 	uint32_t TimeoutMicroSeconds;
1308:Api\core\src/vl53l0x_api.c **** 	LOG_FUNCTION_START("");
1309:Api\core\src/vl53l0x_api.c **** 
1310:Api\core\src/vl53l0x_api.c **** 	Status = get_sequence_step_timeout(Dev, SequenceStepId,
 1898              		.loc 1 1310 0
 1899 0006 01AA     		add	r2, sp, #4
 1900              	.LVL223:
 1901 0008 FFF7FEFF 		bl	get_sequence_step_timeout
 1902              	.LVL224:
 1903 000c 041E     		subs	r4, r0, #0
 1904              	.LVL225:
1311:Api\core\src/vl53l0x_api.c **** 		&TimeoutMicroSeconds);
1312:Api\core\src/vl53l0x_api.c **** 	if (Status == VL53L0X_ERROR_NONE) {
 1905              		.loc 1 1312 0
 1906 000e 09D1     		bne	.L105
1313:Api\core\src/vl53l0x_api.c **** 		TimeoutMicroSeconds <<= 8;
 1907              		.loc 1 1313 0
 1908 0010 019B     		ldr	r3, [sp, #4]
 1909 0012 1802     		lsls	r0, r3, #8
 1910              	.LVL226:
1314:Api\core\src/vl53l0x_api.c **** 		*pTimeOutMilliSecs = (TimeoutMicroSeconds + 500)/1000;
 1911              		.loc 1 1314 0
 1912 0014 F530     		adds	r0, r0, #245
 1913              	.LVL227:
 1914 0016 FF30     		adds	r0, r0, #255
 1915              	.LVL228:
 1916 0018 FA21     		movs	r1, #250
 1917 001a 8900     		lsls	r1, r1, #2
 1918 001c FFF7FEFF 		bl	__aeabi_uidiv
 1919              	.LVL229:
1315:Api\core\src/vl53l0x_api.c **** 		*pTimeOutMilliSecs <<= 8;
 1920              		.loc 1 1315 0
 1921 0020 0002     		lsls	r0, r0, #8
ARM GAS  C:\Users\Rajesh\AppData\Local\Temp\cc8CcU56.s 			page 58


 1922 0022 2860     		str	r0, [r5]
 1923              	.L105:
1316:Api\core\src/vl53l0x_api.c **** 	}
1317:Api\core\src/vl53l0x_api.c **** 
1318:Api\core\src/vl53l0x_api.c **** 	LOG_FUNCTION_END(Status);
1319:Api\core\src/vl53l0x_api.c **** 	return Status;
1320:Api\core\src/vl53l0x_api.c **** }
 1924              		.loc 1 1320 0
 1925 0024 2000     		movs	r0, r4
 1926 0026 03B0     		add	sp, sp, #12
 1927              		@ sp needed
 1928              	.LVL230:
 1929 0028 30BD     		pop	{r4, r5, pc}
 1930              		.cfi_endproc
 1931              	.LFE46:
 1932              		.size	VL53L0X_GetSequenceStepTimeout, .-VL53L0X_GetSequenceStepTimeout
 1933 002a C046     		.section	.text.VL53L0X_SetInterMeasurementPeriodMilliSeconds,"ax",%progbits
 1934              		.align	2
 1935              		.global	VL53L0X_SetInterMeasurementPeriodMilliSeconds
 1936              		.code	16
 1937              		.thumb_func
 1938              		.type	VL53L0X_SetInterMeasurementPeriodMilliSeconds, %function
 1939              	VL53L0X_SetInterMeasurementPeriodMilliSeconds:
 1940              	.LFB47:
1321:Api\core\src/vl53l0x_api.c **** 
1322:Api\core\src/vl53l0x_api.c **** VL53L0X_Error VL53L0X_SetInterMeasurementPeriodMilliSeconds(VL53L0X_DEV Dev,
1323:Api\core\src/vl53l0x_api.c **** 	uint32_t InterMeasurementPeriodMilliSeconds)
1324:Api\core\src/vl53l0x_api.c **** {
 1941              		.loc 1 1324 0
 1942              		.cfi_startproc
 1943              		@ args = 0, pretend = 0, frame = 8
 1944              		@ frame_needed = 0, uses_anonymous_args = 0
 1945              	.LVL231:
 1946 0000 30B5     		push	{r4, r5, lr}
 1947              		.cfi_def_cfa_offset 12
 1948              		.cfi_offset 4, -12
 1949              		.cfi_offset 5, -8
 1950              		.cfi_offset 14, -4
 1951 0002 83B0     		sub	sp, sp, #12
 1952              		.cfi_def_cfa_offset 24
 1953 0004 0400     		movs	r4, r0
 1954 0006 0D00     		movs	r5, r1
 1955              	.LVL232:
1325:Api\core\src/vl53l0x_api.c **** 	VL53L0X_Error Status = VL53L0X_ERROR_NONE;
1326:Api\core\src/vl53l0x_api.c **** 	uint16_t osc_calibrate_val;
1327:Api\core\src/vl53l0x_api.c **** 	uint32_t IMPeriodMilliSeconds;
1328:Api\core\src/vl53l0x_api.c **** 
1329:Api\core\src/vl53l0x_api.c **** 	LOG_FUNCTION_START("");
1330:Api\core\src/vl53l0x_api.c **** 
1331:Api\core\src/vl53l0x_api.c **** 	Status = VL53L0X_RdWord(Dev, VL53L0X_REG_OSC_CALIBRATE_VAL,
 1956              		.loc 1 1331 0
 1957 0008 6B46     		mov	r3, sp
 1958 000a 9A1D     		adds	r2, r3, #6
 1959 000c F821     		movs	r1, #248
 1960              	.LVL233:
 1961 000e FFF7FEFF 		bl	VL53L0X_RdWord
 1962              	.LVL234:
ARM GAS  C:\Users\Rajesh\AppData\Local\Temp\cc8CcU56.s 			page 59


1332:Api\core\src/vl53l0x_api.c **** 		&osc_calibrate_val);
1333:Api\core\src/vl53l0x_api.c **** 
1334:Api\core\src/vl53l0x_api.c **** 	if (Status == VL53L0X_ERROR_NONE) {
 1963              		.loc 1 1334 0
 1964 0012 0028     		cmp	r0, #0
 1965 0014 0AD1     		bne	.L107
1335:Api\core\src/vl53l0x_api.c **** 		if (osc_calibrate_val != 0) {
 1966              		.loc 1 1335 0
 1967 0016 6B46     		mov	r3, sp
 1968 0018 DA88     		ldrh	r2, [r3, #6]
 1969 001a 002A     		cmp	r2, #0
 1970 001c 01D0     		beq	.L110
1336:Api\core\src/vl53l0x_api.c **** 			IMPeriodMilliSeconds =
 1971              		.loc 1 1336 0
 1972 001e 6A43     		muls	r2, r5
 1973              	.LVL235:
 1974 0020 00E0     		b	.L108
 1975              	.LVL236:
 1976              	.L110:
1337:Api\core\src/vl53l0x_api.c **** 				InterMeasurementPeriodMilliSeconds
1338:Api\core\src/vl53l0x_api.c **** 					* osc_calibrate_val;
1339:Api\core\src/vl53l0x_api.c **** 		} else {
1340:Api\core\src/vl53l0x_api.c **** 			IMPeriodMilliSeconds =
 1977              		.loc 1 1340 0
 1978 0022 2A00     		movs	r2, r5
 1979              	.L108:
 1980              	.LVL237:
1341:Api\core\src/vl53l0x_api.c **** 				InterMeasurementPeriodMilliSeconds;
1342:Api\core\src/vl53l0x_api.c **** 		}
1343:Api\core\src/vl53l0x_api.c **** 		Status = VL53L0X_WrDWord(Dev,
 1981              		.loc 1 1343 0
 1982 0024 0421     		movs	r1, #4
 1983 0026 2000     		movs	r0, r4
 1984              	.LVL238:
 1985 0028 FFF7FEFF 		bl	VL53L0X_WrDWord
 1986              	.LVL239:
 1987              	.L107:
1344:Api\core\src/vl53l0x_api.c **** 		VL53L0X_REG_SYSTEM_INTERMEASUREMENT_PERIOD,
1345:Api\core\src/vl53l0x_api.c **** 			IMPeriodMilliSeconds);
1346:Api\core\src/vl53l0x_api.c **** 	}
1347:Api\core\src/vl53l0x_api.c **** 
1348:Api\core\src/vl53l0x_api.c **** 	if (Status == VL53L0X_ERROR_NONE) {
 1988              		.loc 1 1348 0
 1989 002c 0028     		cmp	r0, #0
 1990 002e 00D1     		bne	.L109
1349:Api\core\src/vl53l0x_api.c **** 		VL53L0X_SETPARAMETERFIELD(Dev,
 1991              		.loc 1 1349 0
 1992 0030 A561     		str	r5, [r4, #24]
 1993              	.L109:
1350:Api\core\src/vl53l0x_api.c **** 			InterMeasurementPeriodMilliSeconds,
1351:Api\core\src/vl53l0x_api.c **** 			InterMeasurementPeriodMilliSeconds);
1352:Api\core\src/vl53l0x_api.c **** 	}
1353:Api\core\src/vl53l0x_api.c **** 
1354:Api\core\src/vl53l0x_api.c **** 	LOG_FUNCTION_END(Status);
1355:Api\core\src/vl53l0x_api.c **** 	return Status;
1356:Api\core\src/vl53l0x_api.c **** }
 1994              		.loc 1 1356 0
ARM GAS  C:\Users\Rajesh\AppData\Local\Temp\cc8CcU56.s 			page 60


 1995 0032 03B0     		add	sp, sp, #12
 1996              		@ sp needed
 1997              	.LVL240:
 1998              	.LVL241:
 1999 0034 30BD     		pop	{r4, r5, pc}
 2000              		.cfi_endproc
 2001              	.LFE47:
 2002              		.size	VL53L0X_SetInterMeasurementPeriodMilliSeconds, .-VL53L0X_SetInterMeasurementPeriodMilliSecon
 2003 0036 C046     		.section	.text.VL53L0X_GetInterMeasurementPeriodMilliSeconds,"ax",%progbits
 2004              		.align	2
 2005              		.global	VL53L0X_GetInterMeasurementPeriodMilliSeconds
 2006              		.code	16
 2007              		.thumb_func
 2008              		.type	VL53L0X_GetInterMeasurementPeriodMilliSeconds, %function
 2009              	VL53L0X_GetInterMeasurementPeriodMilliSeconds:
 2010              	.LFB48:
1357:Api\core\src/vl53l0x_api.c **** 
1358:Api\core\src/vl53l0x_api.c **** VL53L0X_Error VL53L0X_GetInterMeasurementPeriodMilliSeconds(VL53L0X_DEV Dev,
1359:Api\core\src/vl53l0x_api.c **** 	uint32_t *pInterMeasurementPeriodMilliSeconds)
1360:Api\core\src/vl53l0x_api.c **** {
 2011              		.loc 1 1360 0
 2012              		.cfi_startproc
 2013              		@ args = 0, pretend = 0, frame = 8
 2014              		@ frame_needed = 0, uses_anonymous_args = 0
 2015              	.LVL242:
 2016 0000 70B5     		push	{r4, r5, r6, lr}
 2017              		.cfi_def_cfa_offset 16
 2018              		.cfi_offset 4, -16
 2019              		.cfi_offset 5, -12
 2020              		.cfi_offset 6, -8
 2021              		.cfi_offset 14, -4
 2022 0002 82B0     		sub	sp, sp, #8
 2023              		.cfi_def_cfa_offset 24
 2024 0004 0500     		movs	r5, r0
 2025 0006 0E00     		movs	r6, r1
 2026              	.LVL243:
1361:Api\core\src/vl53l0x_api.c **** 	VL53L0X_Error Status = VL53L0X_ERROR_NONE;
1362:Api\core\src/vl53l0x_api.c **** 	uint16_t osc_calibrate_val;
1363:Api\core\src/vl53l0x_api.c **** 	uint32_t IMPeriodMilliSeconds;
1364:Api\core\src/vl53l0x_api.c **** 
1365:Api\core\src/vl53l0x_api.c **** 	LOG_FUNCTION_START("");
1366:Api\core\src/vl53l0x_api.c **** 
1367:Api\core\src/vl53l0x_api.c **** 	Status = VL53L0X_RdWord(Dev, VL53L0X_REG_OSC_CALIBRATE_VAL,
 2027              		.loc 1 1367 0
 2028 0008 6B46     		mov	r3, sp
 2029 000a 9A1D     		adds	r2, r3, #6
 2030 000c F821     		movs	r1, #248
 2031              	.LVL244:
 2032 000e FFF7FEFF 		bl	VL53L0X_RdWord
 2033              	.LVL245:
 2034 0012 041E     		subs	r4, r0, #0
 2035              	.LVL246:
1368:Api\core\src/vl53l0x_api.c **** 		&osc_calibrate_val);
1369:Api\core\src/vl53l0x_api.c **** 
1370:Api\core\src/vl53l0x_api.c **** 	if (Status == VL53L0X_ERROR_NONE) {
 2036              		.loc 1 1370 0
 2037 0014 05D1     		bne	.L112
ARM GAS  C:\Users\Rajesh\AppData\Local\Temp\cc8CcU56.s 			page 61


1371:Api\core\src/vl53l0x_api.c **** 		Status = VL53L0X_RdDWord(Dev,
 2038              		.loc 1 1371 0
 2039 0016 6A46     		mov	r2, sp
 2040 0018 0421     		movs	r1, #4
 2041 001a 2800     		movs	r0, r5
 2042              	.LVL247:
 2043 001c FFF7FEFF 		bl	VL53L0X_RdDWord
 2044              	.LVL248:
 2045 0020 0400     		movs	r4, r0
 2046              	.LVL249:
 2047              	.L112:
1372:Api\core\src/vl53l0x_api.c **** 		VL53L0X_REG_SYSTEM_INTERMEASUREMENT_PERIOD,
1373:Api\core\src/vl53l0x_api.c **** 			&IMPeriodMilliSeconds);
1374:Api\core\src/vl53l0x_api.c **** 	}
1375:Api\core\src/vl53l0x_api.c **** 
1376:Api\core\src/vl53l0x_api.c **** 	if (Status == VL53L0X_ERROR_NONE) {
 2048              		.loc 1 1376 0
 2049 0022 002C     		cmp	r4, #0
 2050 0024 09D1     		bne	.L113
1377:Api\core\src/vl53l0x_api.c **** 		if (osc_calibrate_val != 0) {
 2051              		.loc 1 1377 0
 2052 0026 6B46     		mov	r3, sp
 2053 0028 D988     		ldrh	r1, [r3, #6]
 2054 002a 0029     		cmp	r1, #0
 2055 002c 03D0     		beq	.L114
1378:Api\core\src/vl53l0x_api.c **** 			*pInterMeasurementPeriodMilliSeconds =
1379:Api\core\src/vl53l0x_api.c **** 				IMPeriodMilliSeconds / osc_calibrate_val;
 2056              		.loc 1 1379 0
 2057 002e 0098     		ldr	r0, [sp]
 2058 0030 FFF7FEFF 		bl	__aeabi_uidiv
 2059              	.LVL250:
1378:Api\core\src/vl53l0x_api.c **** 			*pInterMeasurementPeriodMilliSeconds =
 2060              		.loc 1 1378 0
 2061 0034 3060     		str	r0, [r6]
 2062              	.L114:
1380:Api\core\src/vl53l0x_api.c **** 		}
1381:Api\core\src/vl53l0x_api.c **** 		VL53L0X_SETPARAMETERFIELD(Dev,
 2063              		.loc 1 1381 0
 2064 0036 3368     		ldr	r3, [r6]
 2065 0038 AB61     		str	r3, [r5, #24]
 2066              	.L113:
1382:Api\core\src/vl53l0x_api.c **** 			InterMeasurementPeriodMilliSeconds,
1383:Api\core\src/vl53l0x_api.c **** 			*pInterMeasurementPeriodMilliSeconds);
1384:Api\core\src/vl53l0x_api.c **** 	}
1385:Api\core\src/vl53l0x_api.c **** 
1386:Api\core\src/vl53l0x_api.c **** 	LOG_FUNCTION_END(Status);
1387:Api\core\src/vl53l0x_api.c **** 	return Status;
1388:Api\core\src/vl53l0x_api.c **** }
 2067              		.loc 1 1388 0
 2068 003a 2000     		movs	r0, r4
 2069 003c 02B0     		add	sp, sp, #8
 2070              		@ sp needed
 2071              	.LVL251:
 2072              	.LVL252:
 2073              	.LVL253:
 2074 003e 70BD     		pop	{r4, r5, r6, pc}
 2075              		.cfi_endproc
ARM GAS  C:\Users\Rajesh\AppData\Local\Temp\cc8CcU56.s 			page 62


 2076              	.LFE48:
 2077              		.size	VL53L0X_GetInterMeasurementPeriodMilliSeconds, .-VL53L0X_GetInterMeasurementPeriodMilliSecon
 2078              		.section	.text.VL53L0X_SetXTalkCompensationEnable,"ax",%progbits
 2079              		.align	2
 2080              		.global	VL53L0X_SetXTalkCompensationEnable
 2081              		.code	16
 2082              		.thumb_func
 2083              		.type	VL53L0X_SetXTalkCompensationEnable, %function
 2084              	VL53L0X_SetXTalkCompensationEnable:
 2085              	.LFB49:
1389:Api\core\src/vl53l0x_api.c **** 
1390:Api\core\src/vl53l0x_api.c **** VL53L0X_Error VL53L0X_SetXTalkCompensationEnable(VL53L0X_DEV Dev,
1391:Api\core\src/vl53l0x_api.c **** 	uint8_t XTalkCompensationEnable)
1392:Api\core\src/vl53l0x_api.c **** {
 2086              		.loc 1 1392 0
 2087              		.cfi_startproc
 2088              		@ args = 0, pretend = 0, frame = 0
 2089              		@ frame_needed = 0, uses_anonymous_args = 0
 2090              	.LVL254:
 2091 0000 70B5     		push	{r4, r5, r6, lr}
 2092              		.cfi_def_cfa_offset 16
 2093              		.cfi_offset 4, -16
 2094              		.cfi_offset 5, -12
 2095              		.cfi_offset 6, -8
 2096              		.cfi_offset 14, -4
 2097 0002 0400     		movs	r4, r0
 2098 0004 0D00     		movs	r5, r1
 2099              	.LVL255:
1393:Api\core\src/vl53l0x_api.c **** 	VL53L0X_Error Status = VL53L0X_ERROR_NONE;
1394:Api\core\src/vl53l0x_api.c **** 	FixPoint1616_t TempFix1616;
1395:Api\core\src/vl53l0x_api.c **** 	uint16_t LinearityCorrectiveGain;
1396:Api\core\src/vl53l0x_api.c **** 
1397:Api\core\src/vl53l0x_api.c **** 	LOG_FUNCTION_START("");
1398:Api\core\src/vl53l0x_api.c **** 
1399:Api\core\src/vl53l0x_api.c **** 	LinearityCorrectiveGain = PALDevDataGet(Dev, LinearityCorrectiveGain);
 2100              		.loc 1 1399 0
 2101 0006 A923     		movs	r3, #169
 2102 0008 5B00     		lsls	r3, r3, #1
 2103 000a C35A     		ldrh	r3, [r0, r3]
 2104              	.LVL256:
1400:Api\core\src/vl53l0x_api.c **** 
1401:Api\core\src/vl53l0x_api.c **** 	if ((XTalkCompensationEnable == 0)
 2105              		.loc 1 1401 0
 2106 000c 0029     		cmp	r1, #0
 2107 000e 05D0     		beq	.L119
1402:Api\core\src/vl53l0x_api.c **** 		|| (LinearityCorrectiveGain != 1000)) {
 2108              		.loc 1 1402 0
 2109 0010 FA22     		movs	r2, #250
 2110 0012 9200     		lsls	r2, r2, #2
 2111 0014 9342     		cmp	r3, r2
 2112 0016 03D1     		bne	.L120
1403:Api\core\src/vl53l0x_api.c **** 		TempFix1616 = 0;
1404:Api\core\src/vl53l0x_api.c **** 	} else {
1405:Api\core\src/vl53l0x_api.c **** 		VL53L0X_GETPARAMETERFIELD(Dev, XTalkCompensationRateMegaCps,
 2113              		.loc 1 1405 0
 2114 0018 026A     		ldr	r2, [r0, #32]
 2115              	.LVL257:
ARM GAS  C:\Users\Rajesh\AppData\Local\Temp\cc8CcU56.s 			page 63


 2116 001a 02E0     		b	.L116
 2117              	.LVL258:
 2118              	.L119:
1403:Api\core\src/vl53l0x_api.c **** 		TempFix1616 = 0;
 2119              		.loc 1 1403 0
 2120 001c 0022     		movs	r2, #0
 2121 001e 00E0     		b	.L116
 2122              	.L120:
 2123 0020 0022     		movs	r2, #0
 2124              	.L116:
 2125              	.LVL259:
1406:Api\core\src/vl53l0x_api.c **** 			TempFix1616);
1407:Api\core\src/vl53l0x_api.c **** 	}
1408:Api\core\src/vl53l0x_api.c **** 
1409:Api\core\src/vl53l0x_api.c **** 	/* the following register has a format 3.13 */
1410:Api\core\src/vl53l0x_api.c **** 	Status = VL53L0X_WrWord(Dev,
1411:Api\core\src/vl53l0x_api.c **** 	VL53L0X_REG_CROSSTALK_COMPENSATION_PEAK_RATE_MCPS,
1412:Api\core\src/vl53l0x_api.c **** 		VL53L0X_FIXPOINT1616TOFIXPOINT313(TempFix1616));
 2126              		.loc 1 1412 0
 2127 0022 D208     		lsrs	r2, r2, #3
 2128              	.LVL260:
1410:Api\core\src/vl53l0x_api.c **** 	VL53L0X_REG_CROSSTALK_COMPENSATION_PEAK_RATE_MCPS,
 2129              		.loc 1 1410 0
 2130 0024 92B2     		uxth	r2, r2
 2131 0026 2021     		movs	r1, #32
 2132              	.LVL261:
 2133 0028 2000     		movs	r0, r4
 2134              	.LVL262:
 2135 002a FFF7FEFF 		bl	VL53L0X_WrWord
 2136              	.LVL263:
1413:Api\core\src/vl53l0x_api.c **** 
1414:Api\core\src/vl53l0x_api.c **** 	if (Status == VL53L0X_ERROR_NONE) {
 2137              		.loc 1 1414 0
 2138 002e 0028     		cmp	r0, #0
 2139 0030 06D1     		bne	.L117
1415:Api\core\src/vl53l0x_api.c **** 		if (XTalkCompensationEnable == 0) {
 2140              		.loc 1 1415 0
 2141 0032 002D     		cmp	r5, #0
 2142 0034 02D1     		bne	.L118
1416:Api\core\src/vl53l0x_api.c **** 			VL53L0X_SETPARAMETERFIELD(Dev, XTalkCompensationEnable,
 2143              		.loc 1 1416 0
 2144 0036 0023     		movs	r3, #0
 2145 0038 2377     		strb	r3, [r4, #28]
 2146 003a 01E0     		b	.L117
 2147              	.L118:
1417:Api\core\src/vl53l0x_api.c **** 				0);
1418:Api\core\src/vl53l0x_api.c **** 		} else {
1419:Api\core\src/vl53l0x_api.c **** 			VL53L0X_SETPARAMETERFIELD(Dev, XTalkCompensationEnable,
 2148              		.loc 1 1419 0
 2149 003c 0123     		movs	r3, #1
 2150 003e 2377     		strb	r3, [r4, #28]
 2151              	.L117:
1420:Api\core\src/vl53l0x_api.c **** 				1);
1421:Api\core\src/vl53l0x_api.c **** 		}
1422:Api\core\src/vl53l0x_api.c **** 	}
1423:Api\core\src/vl53l0x_api.c **** 
1424:Api\core\src/vl53l0x_api.c **** 	LOG_FUNCTION_END(Status);
ARM GAS  C:\Users\Rajesh\AppData\Local\Temp\cc8CcU56.s 			page 64


1425:Api\core\src/vl53l0x_api.c **** 	return Status;
1426:Api\core\src/vl53l0x_api.c **** }
 2152              		.loc 1 1426 0
 2153              		@ sp needed
 2154              	.LVL264:
 2155 0040 70BD     		pop	{r4, r5, r6, pc}
 2156              		.cfi_endproc
 2157              	.LFE49:
 2158              		.size	VL53L0X_SetXTalkCompensationEnable, .-VL53L0X_SetXTalkCompensationEnable
 2159 0042 C046     		.section	.text.VL53L0X_GetXTalkCompensationEnable,"ax",%progbits
 2160              		.align	2
 2161              		.global	VL53L0X_GetXTalkCompensationEnable
 2162              		.code	16
 2163              		.thumb_func
 2164              		.type	VL53L0X_GetXTalkCompensationEnable, %function
 2165              	VL53L0X_GetXTalkCompensationEnable:
 2166              	.LFB50:
1427:Api\core\src/vl53l0x_api.c **** 
1428:Api\core\src/vl53l0x_api.c **** VL53L0X_Error VL53L0X_GetXTalkCompensationEnable(VL53L0X_DEV Dev,
1429:Api\core\src/vl53l0x_api.c **** 	uint8_t *pXTalkCompensationEnable)
1430:Api\core\src/vl53l0x_api.c **** {
 2167              		.loc 1 1430 0
 2168              		.cfi_startproc
 2169              		@ args = 0, pretend = 0, frame = 0
 2170              		@ frame_needed = 0, uses_anonymous_args = 0
 2171              		@ link register save eliminated.
 2172              	.LVL265:
1431:Api\core\src/vl53l0x_api.c **** 	VL53L0X_Error Status = VL53L0X_ERROR_NONE;
1432:Api\core\src/vl53l0x_api.c **** 	uint8_t Temp8;
1433:Api\core\src/vl53l0x_api.c **** 	LOG_FUNCTION_START("");
1434:Api\core\src/vl53l0x_api.c **** 
1435:Api\core\src/vl53l0x_api.c **** 	VL53L0X_GETPARAMETERFIELD(Dev, XTalkCompensationEnable, Temp8);
 2173              		.loc 1 1435 0
 2174 0000 037F     		ldrb	r3, [r0, #28]
 2175              	.LVL266:
1436:Api\core\src/vl53l0x_api.c **** 	*pXTalkCompensationEnable = Temp8;
 2176              		.loc 1 1436 0
 2177 0002 0B70     		strb	r3, [r1]
1437:Api\core\src/vl53l0x_api.c **** 
1438:Api\core\src/vl53l0x_api.c **** 	LOG_FUNCTION_END(Status);
1439:Api\core\src/vl53l0x_api.c **** 	return Status;
1440:Api\core\src/vl53l0x_api.c **** }
 2178              		.loc 1 1440 0
 2179 0004 0020     		movs	r0, #0
 2180              	.LVL267:
 2181              		@ sp needed
 2182 0006 7047     		bx	lr
 2183              		.cfi_endproc
 2184              	.LFE50:
 2185              		.size	VL53L0X_GetXTalkCompensationEnable, .-VL53L0X_GetXTalkCompensationEnable
 2186              		.section	.text.VL53L0X_SetXTalkCompensationRateMegaCps,"ax",%progbits
 2187              		.align	2
 2188              		.global	VL53L0X_SetXTalkCompensationRateMegaCps
 2189              		.code	16
 2190              		.thumb_func
 2191              		.type	VL53L0X_SetXTalkCompensationRateMegaCps, %function
 2192              	VL53L0X_SetXTalkCompensationRateMegaCps:
ARM GAS  C:\Users\Rajesh\AppData\Local\Temp\cc8CcU56.s 			page 65


 2193              	.LFB51:
1441:Api\core\src/vl53l0x_api.c **** 
1442:Api\core\src/vl53l0x_api.c **** VL53L0X_Error VL53L0X_SetXTalkCompensationRateMegaCps(VL53L0X_DEV Dev,
1443:Api\core\src/vl53l0x_api.c **** 	FixPoint1616_t XTalkCompensationRateMegaCps)
1444:Api\core\src/vl53l0x_api.c **** {
 2194              		.loc 1 1444 0
 2195              		.cfi_startproc
 2196              		@ args = 0, pretend = 0, frame = 0
 2197              		@ frame_needed = 0, uses_anonymous_args = 0
 2198              	.LVL268:
 2199 0000 70B5     		push	{r4, r5, r6, lr}
 2200              		.cfi_def_cfa_offset 16
 2201              		.cfi_offset 4, -16
 2202              		.cfi_offset 5, -12
 2203              		.cfi_offset 6, -8
 2204              		.cfi_offset 14, -4
 2205 0002 0400     		movs	r4, r0
 2206 0004 0D00     		movs	r5, r1
 2207              	.LVL269:
1445:Api\core\src/vl53l0x_api.c **** 	VL53L0X_Error Status = VL53L0X_ERROR_NONE;
1446:Api\core\src/vl53l0x_api.c **** 	uint8_t Temp8;
1447:Api\core\src/vl53l0x_api.c **** 	uint16_t LinearityCorrectiveGain;
1448:Api\core\src/vl53l0x_api.c **** 	uint16_t data;
1449:Api\core\src/vl53l0x_api.c **** 	LOG_FUNCTION_START("");
1450:Api\core\src/vl53l0x_api.c **** 
1451:Api\core\src/vl53l0x_api.c **** 	VL53L0X_GETPARAMETERFIELD(Dev, XTalkCompensationEnable, Temp8);
 2208              		.loc 1 1451 0
 2209 0006 037F     		ldrb	r3, [r0, #28]
 2210              	.LVL270:
1452:Api\core\src/vl53l0x_api.c **** 	LinearityCorrectiveGain = PALDevDataGet(Dev, LinearityCorrectiveGain);
 2211              		.loc 1 1452 0
 2212 0008 A922     		movs	r2, #169
 2213 000a 5200     		lsls	r2, r2, #1
 2214 000c 825A     		ldrh	r2, [r0, r2]
 2215              	.LVL271:
1453:Api\core\src/vl53l0x_api.c **** 
1454:Api\core\src/vl53l0x_api.c **** 	if (Temp8 == 0) { /* disabled write only internal value */
 2216              		.loc 1 1454 0
 2217 000e 002B     		cmp	r3, #0
 2218 0010 02D1     		bne	.L123
1455:Api\core\src/vl53l0x_api.c **** 		VL53L0X_SETPARAMETERFIELD(Dev, XTalkCompensationRateMegaCps,
 2219              		.loc 1 1455 0
 2220 0012 2162     		str	r1, [r4, #32]
1445:Api\core\src/vl53l0x_api.c **** 	uint8_t Temp8;
 2221              		.loc 1 1445 0
 2222 0014 0020     		movs	r0, #0
 2223              	.LVL272:
 2224 0016 0EE0     		b	.L124
 2225              	.LVL273:
 2226              	.L123:
1456:Api\core\src/vl53l0x_api.c **** 			XTalkCompensationRateMegaCps);
1457:Api\core\src/vl53l0x_api.c **** 	} else {
1458:Api\core\src/vl53l0x_api.c **** 		/* the following register has a format 3.13 */
1459:Api\core\src/vl53l0x_api.c **** 		if (LinearityCorrectiveGain == 1000) {
 2227              		.loc 1 1459 0
 2228 0018 FA23     		movs	r3, #250
 2229              	.LVL274:
ARM GAS  C:\Users\Rajesh\AppData\Local\Temp\cc8CcU56.s 			page 66


 2230 001a 9B00     		lsls	r3, r3, #2
 2231 001c 9A42     		cmp	r2, r3
 2232 001e 02D1     		bne	.L126
1460:Api\core\src/vl53l0x_api.c **** 			data = VL53L0X_FIXPOINT1616TOFIXPOINT313(
 2233              		.loc 1 1460 0
 2234 0020 CA08     		lsrs	r2, r1, #3
 2235              	.LVL275:
 2236 0022 92B2     		uxth	r2, r2
 2237              	.LVL276:
 2238 0024 00E0     		b	.L125
 2239              	.LVL277:
 2240              	.L126:
1461:Api\core\src/vl53l0x_api.c **** 				XTalkCompensationRateMegaCps);
1462:Api\core\src/vl53l0x_api.c **** 		} else {
1463:Api\core\src/vl53l0x_api.c **** 			data = 0;
 2241              		.loc 1 1463 0
 2242 0026 0022     		movs	r2, #0
 2243              	.LVL278:
 2244              	.L125:
1464:Api\core\src/vl53l0x_api.c **** 		}
1465:Api\core\src/vl53l0x_api.c **** 
1466:Api\core\src/vl53l0x_api.c **** 		Status = VL53L0X_WrWord(Dev,
 2245              		.loc 1 1466 0
 2246 0028 2021     		movs	r1, #32
 2247              	.LVL279:
 2248 002a 2000     		movs	r0, r4
 2249              	.LVL280:
 2250 002c FFF7FEFF 		bl	VL53L0X_WrWord
 2251              	.LVL281:
1467:Api\core\src/vl53l0x_api.c **** 		VL53L0X_REG_CROSSTALK_COMPENSATION_PEAK_RATE_MCPS, data);
1468:Api\core\src/vl53l0x_api.c **** 
1469:Api\core\src/vl53l0x_api.c **** 		if (Status == VL53L0X_ERROR_NONE) {
 2252              		.loc 1 1469 0
 2253 0030 0028     		cmp	r0, #0
 2254 0032 00D1     		bne	.L124
1470:Api\core\src/vl53l0x_api.c **** 			VL53L0X_SETPARAMETERFIELD(Dev,
 2255              		.loc 1 1470 0
 2256 0034 2562     		str	r5, [r4, #32]
 2257              	.LVL282:
 2258              	.L124:
1471:Api\core\src/vl53l0x_api.c **** 				XTalkCompensationRateMegaCps,
1472:Api\core\src/vl53l0x_api.c **** 				XTalkCompensationRateMegaCps);
1473:Api\core\src/vl53l0x_api.c **** 		}
1474:Api\core\src/vl53l0x_api.c **** 	}
1475:Api\core\src/vl53l0x_api.c **** 
1476:Api\core\src/vl53l0x_api.c **** 	LOG_FUNCTION_END(Status);
1477:Api\core\src/vl53l0x_api.c **** 	return Status;
1478:Api\core\src/vl53l0x_api.c **** }
 2259              		.loc 1 1478 0
 2260              		@ sp needed
 2261              	.LVL283:
 2262              	.LVL284:
 2263 0036 70BD     		pop	{r4, r5, r6, pc}
 2264              		.cfi_endproc
 2265              	.LFE51:
 2266              		.size	VL53L0X_SetXTalkCompensationRateMegaCps, .-VL53L0X_SetXTalkCompensationRateMegaCps
 2267              		.section	.text.VL53L0X_GetXTalkCompensationRateMegaCps,"ax",%progbits
ARM GAS  C:\Users\Rajesh\AppData\Local\Temp\cc8CcU56.s 			page 67


 2268              		.align	2
 2269              		.global	VL53L0X_GetXTalkCompensationRateMegaCps
 2270              		.code	16
 2271              		.thumb_func
 2272              		.type	VL53L0X_GetXTalkCompensationRateMegaCps, %function
 2273              	VL53L0X_GetXTalkCompensationRateMegaCps:
 2274              	.LFB52:
1479:Api\core\src/vl53l0x_api.c **** 
1480:Api\core\src/vl53l0x_api.c **** VL53L0X_Error VL53L0X_GetXTalkCompensationRateMegaCps(VL53L0X_DEV Dev,
1481:Api\core\src/vl53l0x_api.c **** 	FixPoint1616_t *pXTalkCompensationRateMegaCps)
1482:Api\core\src/vl53l0x_api.c **** {
 2275              		.loc 1 1482 0
 2276              		.cfi_startproc
 2277              		@ args = 0, pretend = 0, frame = 8
 2278              		@ frame_needed = 0, uses_anonymous_args = 0
 2279              	.LVL285:
 2280 0000 30B5     		push	{r4, r5, lr}
 2281              		.cfi_def_cfa_offset 12
 2282              		.cfi_offset 4, -12
 2283              		.cfi_offset 5, -8
 2284              		.cfi_offset 14, -4
 2285 0002 83B0     		sub	sp, sp, #12
 2286              		.cfi_def_cfa_offset 24
 2287 0004 0400     		movs	r4, r0
 2288 0006 0D00     		movs	r5, r1
 2289              	.LVL286:
1483:Api\core\src/vl53l0x_api.c **** 	VL53L0X_Error Status = VL53L0X_ERROR_NONE;
1484:Api\core\src/vl53l0x_api.c **** 	uint16_t Value;
1485:Api\core\src/vl53l0x_api.c **** 	FixPoint1616_t TempFix1616;
1486:Api\core\src/vl53l0x_api.c **** 
1487:Api\core\src/vl53l0x_api.c **** 	LOG_FUNCTION_START("");
1488:Api\core\src/vl53l0x_api.c **** 
1489:Api\core\src/vl53l0x_api.c **** 	Status = VL53L0X_RdWord(Dev,
 2290              		.loc 1 1489 0
 2291 0008 6B46     		mov	r3, sp
 2292 000a 9A1D     		adds	r2, r3, #6
 2293 000c 2021     		movs	r1, #32
 2294              	.LVL287:
 2295 000e FFF7FEFF 		bl	VL53L0X_RdWord
 2296              	.LVL288:
1490:Api\core\src/vl53l0x_api.c **** 	VL53L0X_REG_CROSSTALK_COMPENSATION_PEAK_RATE_MCPS, (uint16_t *)&Value);
1491:Api\core\src/vl53l0x_api.c **** 	if (Status == VL53L0X_ERROR_NONE) {
 2297              		.loc 1 1491 0
 2298 0012 0028     		cmp	r0, #0
 2299 0014 0ED1     		bne	.L128
1492:Api\core\src/vl53l0x_api.c **** 		if (Value == 0) {
 2300              		.loc 1 1492 0
 2301 0016 6B46     		mov	r3, sp
 2302 0018 0633     		adds	r3, r3, #6
 2303 001a 1B88     		ldrh	r3, [r3]
 2304 001c 002B     		cmp	r3, #0
 2305 001e 04D1     		bne	.L129
 2306              	.LVL289:
1493:Api\core\src/vl53l0x_api.c **** 			/* the Xtalk is disabled return value from memory */
1494:Api\core\src/vl53l0x_api.c **** 			VL53L0X_GETPARAMETERFIELD(Dev,
1495:Api\core\src/vl53l0x_api.c **** 				XTalkCompensationRateMegaCps, TempFix1616);
1496:Api\core\src/vl53l0x_api.c **** 			*pXTalkCompensationRateMegaCps = TempFix1616;
ARM GAS  C:\Users\Rajesh\AppData\Local\Temp\cc8CcU56.s 			page 68


 2307              		.loc 1 1496 0
 2308 0020 236A     		ldr	r3, [r4, #32]
 2309 0022 2B60     		str	r3, [r5]
 2310              	.LVL290:
1497:Api\core\src/vl53l0x_api.c **** 			VL53L0X_SETPARAMETERFIELD(Dev, XTalkCompensationEnable,
 2311              		.loc 1 1497 0
 2312 0024 0023     		movs	r3, #0
 2313              	.LVL291:
 2314 0026 2377     		strb	r3, [r4, #28]
 2315              	.LVL292:
 2316 0028 04E0     		b	.L128
 2317              	.L129:
1498:Api\core\src/vl53l0x_api.c **** 				0);
1499:Api\core\src/vl53l0x_api.c **** 		} else {
1500:Api\core\src/vl53l0x_api.c **** 			TempFix1616 = VL53L0X_FIXPOINT313TOFIXPOINT1616(Value);
 2318              		.loc 1 1500 0
 2319 002a DB00     		lsls	r3, r3, #3
 2320              	.LVL293:
1501:Api\core\src/vl53l0x_api.c **** 			*pXTalkCompensationRateMegaCps = TempFix1616;
 2321              		.loc 1 1501 0
 2322 002c 2B60     		str	r3, [r5]
1502:Api\core\src/vl53l0x_api.c **** 			VL53L0X_SETPARAMETERFIELD(Dev,
 2323              		.loc 1 1502 0
 2324 002e 2362     		str	r3, [r4, #32]
1503:Api\core\src/vl53l0x_api.c **** 				XTalkCompensationRateMegaCps, TempFix1616);
1504:Api\core\src/vl53l0x_api.c **** 			VL53L0X_SETPARAMETERFIELD(Dev, XTalkCompensationEnable,
 2325              		.loc 1 1504 0
 2326 0030 0123     		movs	r3, #1
 2327              	.LVL294:
 2328 0032 2377     		strb	r3, [r4, #28]
 2329              	.LVL295:
 2330              	.L128:
1505:Api\core\src/vl53l0x_api.c **** 				1);
1506:Api\core\src/vl53l0x_api.c **** 		}
1507:Api\core\src/vl53l0x_api.c **** 	}
1508:Api\core\src/vl53l0x_api.c **** 
1509:Api\core\src/vl53l0x_api.c **** 	LOG_FUNCTION_END(Status);
1510:Api\core\src/vl53l0x_api.c **** 	return Status;
1511:Api\core\src/vl53l0x_api.c **** }
 2331              		.loc 1 1511 0
 2332 0034 03B0     		add	sp, sp, #12
 2333              		@ sp needed
 2334              	.LVL296:
 2335              	.LVL297:
 2336 0036 30BD     		pop	{r4, r5, pc}
 2337              		.cfi_endproc
 2338              	.LFE52:
 2339              		.size	VL53L0X_GetXTalkCompensationRateMegaCps, .-VL53L0X_GetXTalkCompensationRateMegaCps
 2340              		.section	.text.VL53L0X_SetRefCalibration,"ax",%progbits
 2341              		.align	2
 2342              		.global	VL53L0X_SetRefCalibration
 2343              		.code	16
 2344              		.thumb_func
 2345              		.type	VL53L0X_SetRefCalibration, %function
 2346              	VL53L0X_SetRefCalibration:
 2347              	.LFB53:
1512:Api\core\src/vl53l0x_api.c **** 
ARM GAS  C:\Users\Rajesh\AppData\Local\Temp\cc8CcU56.s 			page 69


1513:Api\core\src/vl53l0x_api.c **** VL53L0X_Error VL53L0X_SetRefCalibration(VL53L0X_DEV Dev, uint8_t VhvSettings,
1514:Api\core\src/vl53l0x_api.c **** 	uint8_t PhaseCal)
1515:Api\core\src/vl53l0x_api.c **** {
 2348              		.loc 1 1515 0
 2349              		.cfi_startproc
 2350              		@ args = 0, pretend = 0, frame = 0
 2351              		@ frame_needed = 0, uses_anonymous_args = 0
 2352              	.LVL298:
 2353 0000 10B5     		push	{r4, lr}
 2354              		.cfi_def_cfa_offset 8
 2355              		.cfi_offset 4, -8
 2356              		.cfi_offset 14, -4
 2357              	.LVL299:
1516:Api\core\src/vl53l0x_api.c **** 	VL53L0X_Error Status = VL53L0X_ERROR_NONE;
1517:Api\core\src/vl53l0x_api.c **** 	LOG_FUNCTION_START("");
1518:Api\core\src/vl53l0x_api.c **** 
1519:Api\core\src/vl53l0x_api.c **** 	Status = VL53L0X_set_ref_calibration(Dev, VhvSettings, PhaseCal);
 2358              		.loc 1 1519 0
 2359 0002 FFF7FEFF 		bl	VL53L0X_set_ref_calibration
 2360              	.LVL300:
1520:Api\core\src/vl53l0x_api.c **** 
1521:Api\core\src/vl53l0x_api.c **** 	LOG_FUNCTION_END(Status);
1522:Api\core\src/vl53l0x_api.c **** 	return Status;
1523:Api\core\src/vl53l0x_api.c **** }
 2361              		.loc 1 1523 0
 2362              		@ sp needed
 2363 0006 10BD     		pop	{r4, pc}
 2364              		.cfi_endproc
 2365              	.LFE53:
 2366              		.size	VL53L0X_SetRefCalibration, .-VL53L0X_SetRefCalibration
 2367              		.section	.text.VL53L0X_GetRefCalibration,"ax",%progbits
 2368              		.align	2
 2369              		.global	VL53L0X_GetRefCalibration
 2370              		.code	16
 2371              		.thumb_func
 2372              		.type	VL53L0X_GetRefCalibration, %function
 2373              	VL53L0X_GetRefCalibration:
 2374              	.LFB54:
1524:Api\core\src/vl53l0x_api.c **** 
1525:Api\core\src/vl53l0x_api.c **** VL53L0X_Error VL53L0X_GetRefCalibration(VL53L0X_DEV Dev, uint8_t *pVhvSettings,
1526:Api\core\src/vl53l0x_api.c **** 	uint8_t *pPhaseCal)
1527:Api\core\src/vl53l0x_api.c **** {
 2375              		.loc 1 1527 0
 2376              		.cfi_startproc
 2377              		@ args = 0, pretend = 0, frame = 0
 2378              		@ frame_needed = 0, uses_anonymous_args = 0
 2379              	.LVL301:
 2380 0000 10B5     		push	{r4, lr}
 2381              		.cfi_def_cfa_offset 8
 2382              		.cfi_offset 4, -8
 2383              		.cfi_offset 14, -4
 2384              	.LVL302:
1528:Api\core\src/vl53l0x_api.c **** 	VL53L0X_Error Status = VL53L0X_ERROR_NONE;
1529:Api\core\src/vl53l0x_api.c **** 	LOG_FUNCTION_START("");
1530:Api\core\src/vl53l0x_api.c **** 
1531:Api\core\src/vl53l0x_api.c **** 	Status = VL53L0X_get_ref_calibration(Dev, pVhvSettings, pPhaseCal);
 2385              		.loc 1 1531 0
ARM GAS  C:\Users\Rajesh\AppData\Local\Temp\cc8CcU56.s 			page 70


 2386 0002 FFF7FEFF 		bl	VL53L0X_get_ref_calibration
 2387              	.LVL303:
1532:Api\core\src/vl53l0x_api.c **** 
1533:Api\core\src/vl53l0x_api.c **** 	LOG_FUNCTION_END(Status);
1534:Api\core\src/vl53l0x_api.c **** 	return Status;
1535:Api\core\src/vl53l0x_api.c **** }
 2388              		.loc 1 1535 0
 2389              		@ sp needed
 2390 0006 10BD     		pop	{r4, pc}
 2391              		.cfi_endproc
 2392              	.LFE54:
 2393              		.size	VL53L0X_GetRefCalibration, .-VL53L0X_GetRefCalibration
 2394              		.section	.text.VL53L0X_GetNumberOfLimitCheck,"ax",%progbits
 2395              		.align	2
 2396              		.global	VL53L0X_GetNumberOfLimitCheck
 2397              		.code	16
 2398              		.thumb_func
 2399              		.type	VL53L0X_GetNumberOfLimitCheck, %function
 2400              	VL53L0X_GetNumberOfLimitCheck:
 2401              	.LFB55:
1536:Api\core\src/vl53l0x_api.c **** 
1537:Api\core\src/vl53l0x_api.c **** /*
1538:Api\core\src/vl53l0x_api.c ****  * CHECK LIMIT FUNCTIONS
1539:Api\core\src/vl53l0x_api.c ****  */
1540:Api\core\src/vl53l0x_api.c **** 
1541:Api\core\src/vl53l0x_api.c **** VL53L0X_Error VL53L0X_GetNumberOfLimitCheck(uint16_t *pNumberOfLimitCheck)
1542:Api\core\src/vl53l0x_api.c **** {
 2402              		.loc 1 1542 0
 2403              		.cfi_startproc
 2404              		@ args = 0, pretend = 0, frame = 0
 2405              		@ frame_needed = 0, uses_anonymous_args = 0
 2406              		@ link register save eliminated.
 2407              	.LVL304:
1543:Api\core\src/vl53l0x_api.c **** 	VL53L0X_Error Status = VL53L0X_ERROR_NONE;
1544:Api\core\src/vl53l0x_api.c **** 	LOG_FUNCTION_START("");
1545:Api\core\src/vl53l0x_api.c **** 
1546:Api\core\src/vl53l0x_api.c **** 	*pNumberOfLimitCheck = VL53L0X_CHECKENABLE_NUMBER_OF_CHECKS;
 2408              		.loc 1 1546 0
 2409 0000 0623     		movs	r3, #6
 2410 0002 0380     		strh	r3, [r0]
1547:Api\core\src/vl53l0x_api.c **** 
1548:Api\core\src/vl53l0x_api.c **** 	LOG_FUNCTION_END(Status);
1549:Api\core\src/vl53l0x_api.c **** 	return Status;
1550:Api\core\src/vl53l0x_api.c **** }
 2411              		.loc 1 1550 0
 2412 0004 0020     		movs	r0, #0
 2413              	.LVL305:
 2414              		@ sp needed
 2415 0006 7047     		bx	lr
 2416              		.cfi_endproc
 2417              	.LFE55:
 2418              		.size	VL53L0X_GetNumberOfLimitCheck, .-VL53L0X_GetNumberOfLimitCheck
 2419              		.section	.text.VL53L0X_GetLimitCheckInfo,"ax",%progbits
 2420              		.align	2
 2421              		.global	VL53L0X_GetLimitCheckInfo
 2422              		.code	16
 2423              		.thumb_func
ARM GAS  C:\Users\Rajesh\AppData\Local\Temp\cc8CcU56.s 			page 71


 2424              		.type	VL53L0X_GetLimitCheckInfo, %function
 2425              	VL53L0X_GetLimitCheckInfo:
 2426              	.LFB56:
1551:Api\core\src/vl53l0x_api.c **** 
1552:Api\core\src/vl53l0x_api.c **** VL53L0X_Error VL53L0X_GetLimitCheckInfo(VL53L0X_DEV Dev, uint16_t LimitCheckId,
1553:Api\core\src/vl53l0x_api.c **** 	char *pLimitCheckString)
1554:Api\core\src/vl53l0x_api.c **** {
 2427              		.loc 1 1554 0
 2428              		.cfi_startproc
 2429              		@ args = 0, pretend = 0, frame = 0
 2430              		@ frame_needed = 0, uses_anonymous_args = 0
 2431              	.LVL306:
 2432 0000 10B5     		push	{r4, lr}
 2433              		.cfi_def_cfa_offset 8
 2434              		.cfi_offset 4, -8
 2435              		.cfi_offset 14, -4
 2436              	.LVL307:
1555:Api\core\src/vl53l0x_api.c **** 	VL53L0X_Error Status = VL53L0X_ERROR_NONE;
1556:Api\core\src/vl53l0x_api.c **** 
1557:Api\core\src/vl53l0x_api.c **** 	LOG_FUNCTION_START("");
1558:Api\core\src/vl53l0x_api.c **** 
1559:Api\core\src/vl53l0x_api.c **** 	Status = VL53L0X_get_limit_check_info(Dev, LimitCheckId,
 2437              		.loc 1 1559 0
 2438 0002 FFF7FEFF 		bl	VL53L0X_get_limit_check_info
 2439              	.LVL308:
1560:Api\core\src/vl53l0x_api.c **** 		pLimitCheckString);
1561:Api\core\src/vl53l0x_api.c **** 
1562:Api\core\src/vl53l0x_api.c **** 	LOG_FUNCTION_END(Status);
1563:Api\core\src/vl53l0x_api.c **** 	return Status;
1564:Api\core\src/vl53l0x_api.c **** }
 2440              		.loc 1 1564 0
 2441              		@ sp needed
 2442 0006 10BD     		pop	{r4, pc}
 2443              		.cfi_endproc
 2444              	.LFE56:
 2445              		.size	VL53L0X_GetLimitCheckInfo, .-VL53L0X_GetLimitCheckInfo
 2446              		.section	.text.VL53L0X_GetLimitCheckStatus,"ax",%progbits
 2447              		.align	2
 2448              		.global	VL53L0X_GetLimitCheckStatus
 2449              		.code	16
 2450              		.thumb_func
 2451              		.type	VL53L0X_GetLimitCheckStatus, %function
 2452              	VL53L0X_GetLimitCheckStatus:
 2453              	.LFB57:
1565:Api\core\src/vl53l0x_api.c **** 
1566:Api\core\src/vl53l0x_api.c **** VL53L0X_Error VL53L0X_GetLimitCheckStatus(VL53L0X_DEV Dev, uint16_t LimitCheckId,
1567:Api\core\src/vl53l0x_api.c **** 	uint8_t *pLimitCheckStatus)
1568:Api\core\src/vl53l0x_api.c **** {
 2454              		.loc 1 1568 0
 2455              		.cfi_startproc
 2456              		@ args = 0, pretend = 0, frame = 0
 2457              		@ frame_needed = 0, uses_anonymous_args = 0
 2458              		@ link register save eliminated.
 2459              	.LVL309:
1569:Api\core\src/vl53l0x_api.c **** 	VL53L0X_Error Status = VL53L0X_ERROR_NONE;
1570:Api\core\src/vl53l0x_api.c **** 	uint8_t Temp8;
1571:Api\core\src/vl53l0x_api.c **** 
ARM GAS  C:\Users\Rajesh\AppData\Local\Temp\cc8CcU56.s 			page 72


1572:Api\core\src/vl53l0x_api.c **** 	LOG_FUNCTION_START("");
1573:Api\core\src/vl53l0x_api.c **** 
1574:Api\core\src/vl53l0x_api.c **** 	if (LimitCheckId >= VL53L0X_CHECKENABLE_NUMBER_OF_CHECKS) {
 2460              		.loc 1 1574 0
 2461 0000 0529     		cmp	r1, #5
 2462 0002 05D8     		bhi	.L136
1575:Api\core\src/vl53l0x_api.c **** 		Status = VL53L0X_ERROR_INVALID_PARAMS;
1576:Api\core\src/vl53l0x_api.c **** 	} else {
1577:Api\core\src/vl53l0x_api.c **** 
1578:Api\core\src/vl53l0x_api.c **** 		VL53L0X_GETARRAYPARAMETERFIELD(Dev, LimitChecksStatus,
 2463              		.loc 1 1578 0
 2464 0004 4118     		adds	r1, r0, r1
 2465              	.LVL310:
 2466 0006 2E31     		adds	r1, r1, #46
 2467 0008 0B78     		ldrb	r3, [r1]
 2468              	.LVL311:
1579:Api\core\src/vl53l0x_api.c **** 			LimitCheckId, Temp8);
1580:Api\core\src/vl53l0x_api.c **** 
1581:Api\core\src/vl53l0x_api.c **** 		*pLimitCheckStatus = Temp8;
 2469              		.loc 1 1581 0
 2470 000a 1370     		strb	r3, [r2]
1569:Api\core\src/vl53l0x_api.c **** 	uint8_t Temp8;
 2471              		.loc 1 1569 0
 2472 000c 0020     		movs	r0, #0
 2473              	.LVL312:
 2474 000e 01E0     		b	.L135
 2475              	.LVL313:
 2476              	.L136:
1575:Api\core\src/vl53l0x_api.c **** 		Status = VL53L0X_ERROR_INVALID_PARAMS;
 2477              		.loc 1 1575 0
 2478 0010 0420     		movs	r0, #4
 2479              	.LVL314:
 2480 0012 4042     		rsbs	r0, r0, #0
 2481              	.LVL315:
 2482              	.L135:
1582:Api\core\src/vl53l0x_api.c **** 
1583:Api\core\src/vl53l0x_api.c **** 	}
1584:Api\core\src/vl53l0x_api.c **** 
1585:Api\core\src/vl53l0x_api.c **** 	LOG_FUNCTION_END(Status);
1586:Api\core\src/vl53l0x_api.c **** 	return Status;
1587:Api\core\src/vl53l0x_api.c **** }
 2483              		.loc 1 1587 0
 2484              		@ sp needed
 2485 0014 7047     		bx	lr
 2486              		.cfi_endproc
 2487              	.LFE57:
 2488              		.size	VL53L0X_GetLimitCheckStatus, .-VL53L0X_GetLimitCheckStatus
 2489 0016 C046     		.section	.text.VL53L0X_SetLimitCheckEnable,"ax",%progbits
 2490              		.align	2
 2491              		.global	VL53L0X_SetLimitCheckEnable
 2492              		.code	16
 2493              		.thumb_func
 2494              		.type	VL53L0X_SetLimitCheckEnable, %function
 2495              	VL53L0X_SetLimitCheckEnable:
 2496              	.LFB58:
1588:Api\core\src/vl53l0x_api.c **** 
1589:Api\core\src/vl53l0x_api.c **** VL53L0X_Error VL53L0X_SetLimitCheckEnable(VL53L0X_DEV Dev, uint16_t LimitCheckId,
ARM GAS  C:\Users\Rajesh\AppData\Local\Temp\cc8CcU56.s 			page 73


1590:Api\core\src/vl53l0x_api.c **** 	uint8_t LimitCheckEnable)
1591:Api\core\src/vl53l0x_api.c **** {
 2497              		.loc 1 1591 0
 2498              		.cfi_startproc
 2499              		@ args = 0, pretend = 0, frame = 0
 2500              		@ frame_needed = 0, uses_anonymous_args = 0
 2501              	.LVL316:
 2502 0000 F8B5     		push	{r3, r4, r5, r6, r7, lr}
 2503              		.cfi_def_cfa_offset 24
 2504              		.cfi_offset 3, -24
 2505              		.cfi_offset 4, -20
 2506              		.cfi_offset 5, -16
 2507              		.cfi_offset 6, -12
 2508              		.cfi_offset 7, -8
 2509              		.cfi_offset 14, -4
 2510 0002 0500     		movs	r5, r0
 2511 0004 0C00     		movs	r4, r1
 2512 0006 1600     		movs	r6, r2
 2513              	.LVL317:
1592:Api\core\src/vl53l0x_api.c **** 	VL53L0X_Error Status = VL53L0X_ERROR_NONE;
1593:Api\core\src/vl53l0x_api.c **** 	FixPoint1616_t TempFix1616 = 0;
1594:Api\core\src/vl53l0x_api.c **** 	uint8_t LimitCheckEnableInt = 0;
1595:Api\core\src/vl53l0x_api.c **** 	uint8_t LimitCheckDisable = 0;
1596:Api\core\src/vl53l0x_api.c **** 	uint8_t Temp8;
1597:Api\core\src/vl53l0x_api.c **** 
1598:Api\core\src/vl53l0x_api.c **** 	LOG_FUNCTION_START("");
1599:Api\core\src/vl53l0x_api.c **** 
1600:Api\core\src/vl53l0x_api.c **** 	if (LimitCheckId >= VL53L0X_CHECKENABLE_NUMBER_OF_CHECKS) {
 2514              		.loc 1 1600 0
 2515 0008 0529     		cmp	r1, #5
 2516 000a 35D8     		bhi	.L149
1601:Api\core\src/vl53l0x_api.c **** 		Status = VL53L0X_ERROR_INVALID_PARAMS;
1602:Api\core\src/vl53l0x_api.c **** 	} else {
1603:Api\core\src/vl53l0x_api.c **** 		if (LimitCheckEnable == 0) {
 2517              		.loc 1 1603 0
 2518 000c 002A     		cmp	r2, #0
 2519 000e 07D0     		beq	.L150
1604:Api\core\src/vl53l0x_api.c **** 			TempFix1616 = 0;
1605:Api\core\src/vl53l0x_api.c **** 			LimitCheckEnableInt = 0;
1606:Api\core\src/vl53l0x_api.c **** 			LimitCheckDisable = 1;
1607:Api\core\src/vl53l0x_api.c **** 
1608:Api\core\src/vl53l0x_api.c **** 		} else {
1609:Api\core\src/vl53l0x_api.c **** 			VL53L0X_GETARRAYPARAMETERFIELD(Dev, LimitChecksValue,
 2520              		.loc 1 1609 0
 2521 0010 0B00     		movs	r3, r1
 2522 0012 0C33     		adds	r3, r3, #12
 2523 0014 9B00     		lsls	r3, r3, #2
 2524 0016 C318     		adds	r3, r0, r3
 2525 0018 5A68     		ldr	r2, [r3, #4]
 2526              	.LVL318:
1610:Api\core\src/vl53l0x_api.c **** 				LimitCheckId, TempFix1616);
1611:Api\core\src/vl53l0x_api.c **** 			LimitCheckDisable = 0;
 2527              		.loc 1 1611 0
 2528 001a 0023     		movs	r3, #0
1612:Api\core\src/vl53l0x_api.c **** 			/* this to be sure to have either 0 or 1 */
1613:Api\core\src/vl53l0x_api.c **** 			LimitCheckEnableInt = 1;
 2529              		.loc 1 1613 0
ARM GAS  C:\Users\Rajesh\AppData\Local\Temp\cc8CcU56.s 			page 74


 2530 001c 0127     		movs	r7, #1
 2531 001e 02E0     		b	.L139
 2532              	.LVL319:
 2533              	.L150:
1606:Api\core\src/vl53l0x_api.c **** 
 2534              		.loc 1 1606 0
 2535 0020 0123     		movs	r3, #1
1605:Api\core\src/vl53l0x_api.c **** 			LimitCheckDisable = 1;
 2536              		.loc 1 1605 0
 2537 0022 0027     		movs	r7, #0
1604:Api\core\src/vl53l0x_api.c **** 			LimitCheckEnableInt = 0;
 2538              		.loc 1 1604 0
 2539 0024 0022     		movs	r2, #0
 2540              	.LVL320:
 2541              	.L139:
1614:Api\core\src/vl53l0x_api.c **** 		}
1615:Api\core\src/vl53l0x_api.c **** 
1616:Api\core\src/vl53l0x_api.c **** 		switch (LimitCheckId) {
 2542              		.loc 1 1616 0
 2543 0026 052C     		cmp	r4, #5
 2544 0028 29D8     		bhi	.L151
 2545 002a A100     		lsls	r1, r4, #2
 2546              	.LVL321:
 2547 002c 1C48     		ldr	r0, .L152
 2548              	.LVL322:
 2549 002e 4158     		ldr	r1, [r0, r1]
 2550 0030 8F46     		mov	pc, r1
 2551              		.section	.rodata
 2552              		.align	2
 2553              	.L141:
 2554 0094 32000000 		.word	.L140
 2555 0098 3A000000 		.word	.L142
 2556 009c 48000000 		.word	.L143
 2557 00a0 50000000 		.word	.L144
 2558 00a4 58000000 		.word	.L145
 2559 00a8 68000000 		.word	.L146
 2560              		.section	.text.VL53L0X_SetLimitCheckEnable
 2561              	.L140:
1617:Api\core\src/vl53l0x_api.c **** 
1618:Api\core\src/vl53l0x_api.c **** 		case VL53L0X_CHECKENABLE_SIGMA_FINAL_RANGE:
1619:Api\core\src/vl53l0x_api.c **** 			/* internal computation: */
1620:Api\core\src/vl53l0x_api.c **** 			VL53L0X_SETARRAYPARAMETERFIELD(Dev, LimitChecksEnable,
 2562              		.loc 1 1620 0
 2563 0032 2823     		movs	r3, #40
 2564              	.LVL323:
 2565 0034 EF54     		strb	r7, [r5, r3]
1592:Api\core\src/vl53l0x_api.c **** 	FixPoint1616_t TempFix1616 = 0;
 2566              		.loc 1 1592 0
 2567 0036 0020     		movs	r0, #0
1621:Api\core\src/vl53l0x_api.c **** 				VL53L0X_CHECKENABLE_SIGMA_FINAL_RANGE,
1622:Api\core\src/vl53l0x_api.c **** 				LimitCheckEnableInt);
1623:Api\core\src/vl53l0x_api.c **** 
1624:Api\core\src/vl53l0x_api.c **** 			break;
 2568              		.loc 1 1624 0
 2569 0038 23E0     		b	.L138
 2570              	.LVL324:
 2571              	.L142:
ARM GAS  C:\Users\Rajesh\AppData\Local\Temp\cc8CcU56.s 			page 75


1625:Api\core\src/vl53l0x_api.c **** 
1626:Api\core\src/vl53l0x_api.c **** 		case VL53L0X_CHECKENABLE_SIGNAL_RATE_FINAL_RANGE:
1627:Api\core\src/vl53l0x_api.c **** 
1628:Api\core\src/vl53l0x_api.c **** 			Status = VL53L0X_WrWord(Dev,
1629:Api\core\src/vl53l0x_api.c **** 			VL53L0X_REG_FINAL_RANGE_CONFIG_MIN_COUNT_RATE_RTN_LIMIT,
1630:Api\core\src/vl53l0x_api.c **** 				VL53L0X_FIXPOINT1616TOFIXPOINT97(TempFix1616));
 2572              		.loc 1 1630 0
 2573 003a 520A     		lsrs	r2, r2, #9
 2574              	.LVL325:
1628:Api\core\src/vl53l0x_api.c **** 			VL53L0X_REG_FINAL_RANGE_CONFIG_MIN_COUNT_RATE_RTN_LIMIT,
 2575              		.loc 1 1628 0
 2576 003c 92B2     		uxth	r2, r2
 2577 003e 4421     		movs	r1, #68
 2578 0040 2800     		movs	r0, r5
 2579 0042 FFF7FEFF 		bl	VL53L0X_WrWord
 2580              	.LVL326:
1631:Api\core\src/vl53l0x_api.c **** 
1632:Api\core\src/vl53l0x_api.c **** 			break;
 2581              		.loc 1 1632 0
 2582 0046 1CE0     		b	.L138
 2583              	.LVL327:
 2584              	.L143:
1633:Api\core\src/vl53l0x_api.c **** 
1634:Api\core\src/vl53l0x_api.c **** 		case VL53L0X_CHECKENABLE_SIGNAL_REF_CLIP:
1635:Api\core\src/vl53l0x_api.c **** 
1636:Api\core\src/vl53l0x_api.c **** 			/* internal computation: */
1637:Api\core\src/vl53l0x_api.c **** 			VL53L0X_SETARRAYPARAMETERFIELD(Dev, LimitChecksEnable,
 2585              		.loc 1 1637 0
 2586 0048 2A23     		movs	r3, #42
 2587              	.LVL328:
 2588 004a EF54     		strb	r7, [r5, r3]
1592:Api\core\src/vl53l0x_api.c **** 	FixPoint1616_t TempFix1616 = 0;
 2589              		.loc 1 1592 0
 2590 004c 0020     		movs	r0, #0
1638:Api\core\src/vl53l0x_api.c **** 				VL53L0X_CHECKENABLE_SIGNAL_REF_CLIP,
1639:Api\core\src/vl53l0x_api.c **** 				LimitCheckEnableInt);
1640:Api\core\src/vl53l0x_api.c **** 
1641:Api\core\src/vl53l0x_api.c **** 			break;
 2591              		.loc 1 1641 0
 2592 004e 18E0     		b	.L138
 2593              	.LVL329:
 2594              	.L144:
1642:Api\core\src/vl53l0x_api.c **** 
1643:Api\core\src/vl53l0x_api.c **** 		case VL53L0X_CHECKENABLE_RANGE_IGNORE_THRESHOLD:
1644:Api\core\src/vl53l0x_api.c **** 
1645:Api\core\src/vl53l0x_api.c **** 			/* internal computation: */
1646:Api\core\src/vl53l0x_api.c **** 			VL53L0X_SETARRAYPARAMETERFIELD(Dev, LimitChecksEnable,
 2595              		.loc 1 1646 0
 2596 0050 2B23     		movs	r3, #43
 2597              	.LVL330:
 2598 0052 EF54     		strb	r7, [r5, r3]
1592:Api\core\src/vl53l0x_api.c **** 	FixPoint1616_t TempFix1616 = 0;
 2599              		.loc 1 1592 0
 2600 0054 0020     		movs	r0, #0
1647:Api\core\src/vl53l0x_api.c **** 				VL53L0X_CHECKENABLE_RANGE_IGNORE_THRESHOLD,
1648:Api\core\src/vl53l0x_api.c **** 				LimitCheckEnableInt);
1649:Api\core\src/vl53l0x_api.c **** 
ARM GAS  C:\Users\Rajesh\AppData\Local\Temp\cc8CcU56.s 			page 76


1650:Api\core\src/vl53l0x_api.c **** 			break;
 2601              		.loc 1 1650 0
 2602 0056 14E0     		b	.L138
 2603              	.LVL331:
 2604              	.L145:
1651:Api\core\src/vl53l0x_api.c **** 
1652:Api\core\src/vl53l0x_api.c **** 		case VL53L0X_CHECKENABLE_SIGNAL_RATE_MSRC:
1653:Api\core\src/vl53l0x_api.c **** 
1654:Api\core\src/vl53l0x_api.c **** 			Temp8 = (uint8_t)(LimitCheckDisable << 1);
 2605              		.loc 1 1654 0
 2606 0058 5B00     		lsls	r3, r3, #1
 2607              	.LVL332:
 2608 005a DBB2     		uxtb	r3, r3
 2609              	.LVL333:
1655:Api\core\src/vl53l0x_api.c **** 			Status = VL53L0X_UpdateByte(Dev,
 2610              		.loc 1 1655 0
 2611 005c FE22     		movs	r2, #254
 2612              	.LVL334:
 2613 005e 6021     		movs	r1, #96
 2614 0060 2800     		movs	r0, r5
 2615 0062 FFF7FEFF 		bl	VL53L0X_UpdateByte
 2616              	.LVL335:
1656:Api\core\src/vl53l0x_api.c **** 				VL53L0X_REG_MSRC_CONFIG_CONTROL,
1657:Api\core\src/vl53l0x_api.c **** 				0xFE, Temp8);
1658:Api\core\src/vl53l0x_api.c **** 
1659:Api\core\src/vl53l0x_api.c **** 			break;
 2617              		.loc 1 1659 0
 2618 0066 0CE0     		b	.L138
 2619              	.LVL336:
 2620              	.L146:
1660:Api\core\src/vl53l0x_api.c **** 
1661:Api\core\src/vl53l0x_api.c **** 		case VL53L0X_CHECKENABLE_SIGNAL_RATE_PRE_RANGE:
1662:Api\core\src/vl53l0x_api.c **** 
1663:Api\core\src/vl53l0x_api.c **** 			Temp8 = (uint8_t)(LimitCheckDisable << 4);
 2621              		.loc 1 1663 0
 2622 0068 1B01     		lsls	r3, r3, #4
 2623              	.LVL337:
 2624 006a DBB2     		uxtb	r3, r3
 2625              	.LVL338:
1664:Api\core\src/vl53l0x_api.c **** 			Status = VL53L0X_UpdateByte(Dev,
 2626              		.loc 1 1664 0
 2627 006c EF22     		movs	r2, #239
 2628              	.LVL339:
 2629 006e 6021     		movs	r1, #96
 2630 0070 2800     		movs	r0, r5
 2631 0072 FFF7FEFF 		bl	VL53L0X_UpdateByte
 2632              	.LVL340:
1665:Api\core\src/vl53l0x_api.c **** 				VL53L0X_REG_MSRC_CONFIG_CONTROL,
1666:Api\core\src/vl53l0x_api.c **** 				0xEF, Temp8);
1667:Api\core\src/vl53l0x_api.c **** 
1668:Api\core\src/vl53l0x_api.c **** 			break;
 2633              		.loc 1 1668 0
 2634 0076 04E0     		b	.L138
 2635              	.LVL341:
 2636              	.L149:
1601:Api\core\src/vl53l0x_api.c **** 	} else {
 2637              		.loc 1 1601 0
ARM GAS  C:\Users\Rajesh\AppData\Local\Temp\cc8CcU56.s 			page 77


 2638 0078 0420     		movs	r0, #4
 2639              	.LVL342:
 2640 007a 4042     		rsbs	r0, r0, #0
 2641 007c 01E0     		b	.L138
 2642              	.LVL343:
 2643              	.L151:
1669:Api\core\src/vl53l0x_api.c **** 
1670:Api\core\src/vl53l0x_api.c **** 
1671:Api\core\src/vl53l0x_api.c **** 		default:
1672:Api\core\src/vl53l0x_api.c **** 			Status = VL53L0X_ERROR_INVALID_PARAMS;
 2644              		.loc 1 1672 0
 2645 007e 0420     		movs	r0, #4
 2646              	.LVL344:
 2647 0080 4042     		rsbs	r0, r0, #0
 2648              	.LVL345:
 2649              	.L138:
1673:Api\core\src/vl53l0x_api.c **** 
1674:Api\core\src/vl53l0x_api.c **** 		}
1675:Api\core\src/vl53l0x_api.c **** 
1676:Api\core\src/vl53l0x_api.c **** 	}
1677:Api\core\src/vl53l0x_api.c **** 
1678:Api\core\src/vl53l0x_api.c **** 	if (Status == VL53L0X_ERROR_NONE) {
 2650              		.loc 1 1678 0
 2651 0082 0028     		cmp	r0, #0
 2652 0084 0AD1     		bne	.L147
1679:Api\core\src/vl53l0x_api.c **** 		if (LimitCheckEnable == 0) {
 2653              		.loc 1 1679 0
 2654 0086 002E     		cmp	r6, #0
 2655 0088 04D1     		bne	.L148
1680:Api\core\src/vl53l0x_api.c **** 			VL53L0X_SETARRAYPARAMETERFIELD(Dev, LimitChecksEnable,
 2656              		.loc 1 1680 0
 2657 008a 2C19     		adds	r4, r5, r4
 2658 008c 2834     		adds	r4, r4, #40
 2659 008e 0023     		movs	r3, #0
 2660 0090 2370     		strb	r3, [r4]
 2661 0092 03E0     		b	.L147
 2662              	.L148:
1681:Api\core\src/vl53l0x_api.c **** 				LimitCheckId, 0);
1682:Api\core\src/vl53l0x_api.c **** 		} else {
1683:Api\core\src/vl53l0x_api.c **** 			VL53L0X_SETARRAYPARAMETERFIELD(Dev, LimitChecksEnable,
 2663              		.loc 1 1683 0
 2664 0094 2C19     		adds	r4, r5, r4
 2665 0096 2834     		adds	r4, r4, #40
 2666 0098 0123     		movs	r3, #1
 2667 009a 2370     		strb	r3, [r4]
 2668              	.L147:
1684:Api\core\src/vl53l0x_api.c **** 				LimitCheckId, 1);
1685:Api\core\src/vl53l0x_api.c **** 		}
1686:Api\core\src/vl53l0x_api.c **** 	}
1687:Api\core\src/vl53l0x_api.c **** 
1688:Api\core\src/vl53l0x_api.c **** 	LOG_FUNCTION_END(Status);
1689:Api\core\src/vl53l0x_api.c **** 	return Status;
1690:Api\core\src/vl53l0x_api.c **** }
 2669              		.loc 1 1690 0
 2670              		@ sp needed
 2671              	.LVL346:
 2672 009c F8BD     		pop	{r3, r4, r5, r6, r7, pc}
ARM GAS  C:\Users\Rajesh\AppData\Local\Temp\cc8CcU56.s 			page 78


 2673              	.L153:
 2674 009e C046     		.align	2
 2675              	.L152:
 2676 00a0 94000000 		.word	.L141
 2677              		.cfi_endproc
 2678              	.LFE58:
 2679              		.size	VL53L0X_SetLimitCheckEnable, .-VL53L0X_SetLimitCheckEnable
 2680              		.section	.text.VL53L0X_GetLimitCheckEnable,"ax",%progbits
 2681              		.align	2
 2682              		.global	VL53L0X_GetLimitCheckEnable
 2683              		.code	16
 2684              		.thumb_func
 2685              		.type	VL53L0X_GetLimitCheckEnable, %function
 2686              	VL53L0X_GetLimitCheckEnable:
 2687              	.LFB59:
1691:Api\core\src/vl53l0x_api.c **** 
1692:Api\core\src/vl53l0x_api.c **** VL53L0X_Error VL53L0X_GetLimitCheckEnable(VL53L0X_DEV Dev, uint16_t LimitCheckId,
1693:Api\core\src/vl53l0x_api.c **** 	uint8_t *pLimitCheckEnable)
1694:Api\core\src/vl53l0x_api.c **** {
 2688              		.loc 1 1694 0
 2689              		.cfi_startproc
 2690              		@ args = 0, pretend = 0, frame = 0
 2691              		@ frame_needed = 0, uses_anonymous_args = 0
 2692              		@ link register save eliminated.
 2693              	.LVL347:
1695:Api\core\src/vl53l0x_api.c **** 	VL53L0X_Error Status = VL53L0X_ERROR_NONE;
1696:Api\core\src/vl53l0x_api.c **** 	uint8_t Temp8;
1697:Api\core\src/vl53l0x_api.c **** 
1698:Api\core\src/vl53l0x_api.c **** 	LOG_FUNCTION_START("");
1699:Api\core\src/vl53l0x_api.c **** 
1700:Api\core\src/vl53l0x_api.c **** 	if (LimitCheckId >= VL53L0X_CHECKENABLE_NUMBER_OF_CHECKS) {
 2694              		.loc 1 1700 0
 2695 0000 0529     		cmp	r1, #5
 2696 0002 04D9     		bls	.L155
 2697              	.LVL348:
1701:Api\core\src/vl53l0x_api.c **** 		Status = VL53L0X_ERROR_INVALID_PARAMS;
1702:Api\core\src/vl53l0x_api.c **** 		*pLimitCheckEnable = 0;
 2698              		.loc 1 1702 0
 2699 0004 0023     		movs	r3, #0
 2700 0006 1370     		strb	r3, [r2]
1701:Api\core\src/vl53l0x_api.c **** 		Status = VL53L0X_ERROR_INVALID_PARAMS;
 2701              		.loc 1 1701 0
 2702 0008 0420     		movs	r0, #4
 2703              	.LVL349:
 2704 000a 4042     		rsbs	r0, r0, #0
 2705 000c 04E0     		b	.L156
 2706              	.LVL350:
 2707              	.L155:
1703:Api\core\src/vl53l0x_api.c **** 	} else {
1704:Api\core\src/vl53l0x_api.c **** 		VL53L0X_GETARRAYPARAMETERFIELD(Dev, LimitChecksEnable,
 2708              		.loc 1 1704 0
 2709 000e 4118     		adds	r1, r0, r1
 2710              	.LVL351:
 2711 0010 2831     		adds	r1, r1, #40
 2712 0012 0B78     		ldrb	r3, [r1]
 2713              	.LVL352:
1705:Api\core\src/vl53l0x_api.c **** 			LimitCheckId, Temp8);
ARM GAS  C:\Users\Rajesh\AppData\Local\Temp\cc8CcU56.s 			page 79


1706:Api\core\src/vl53l0x_api.c **** 		*pLimitCheckEnable = Temp8;
 2714              		.loc 1 1706 0
 2715 0014 1370     		strb	r3, [r2]
1695:Api\core\src/vl53l0x_api.c **** 	uint8_t Temp8;
 2716              		.loc 1 1695 0
 2717 0016 0020     		movs	r0, #0
 2718              	.LVL353:
 2719              	.L156:
1707:Api\core\src/vl53l0x_api.c **** 	}
1708:Api\core\src/vl53l0x_api.c **** 
1709:Api\core\src/vl53l0x_api.c **** 	LOG_FUNCTION_END(Status);
1710:Api\core\src/vl53l0x_api.c **** 	return Status;
1711:Api\core\src/vl53l0x_api.c **** }
 2720              		.loc 1 1711 0
 2721              		@ sp needed
 2722 0018 7047     		bx	lr
 2723              		.cfi_endproc
 2724              	.LFE59:
 2725              		.size	VL53L0X_GetLimitCheckEnable, .-VL53L0X_GetLimitCheckEnable
 2726 001a C046     		.section	.text.VL53L0X_SetLimitCheckValue,"ax",%progbits
 2727              		.align	2
 2728              		.global	VL53L0X_SetLimitCheckValue
 2729              		.code	16
 2730              		.thumb_func
 2731              		.type	VL53L0X_SetLimitCheckValue, %function
 2732              	VL53L0X_SetLimitCheckValue:
 2733              	.LFB60:
1712:Api\core\src/vl53l0x_api.c **** 
1713:Api\core\src/vl53l0x_api.c **** VL53L0X_Error VL53L0X_SetLimitCheckValue(VL53L0X_DEV Dev, uint16_t LimitCheckId,
1714:Api\core\src/vl53l0x_api.c **** 	FixPoint1616_t LimitCheckValue)
1715:Api\core\src/vl53l0x_api.c **** {
 2734              		.loc 1 1715 0
 2735              		.cfi_startproc
 2736              		@ args = 0, pretend = 0, frame = 0
 2737              		@ frame_needed = 0, uses_anonymous_args = 0
 2738              	.LVL354:
 2739 0000 70B5     		push	{r4, r5, r6, lr}
 2740              		.cfi_def_cfa_offset 16
 2741              		.cfi_offset 4, -16
 2742              		.cfi_offset 5, -12
 2743              		.cfi_offset 6, -8
 2744              		.cfi_offset 14, -4
 2745 0002 0500     		movs	r5, r0
 2746 0004 0C00     		movs	r4, r1
 2747 0006 1600     		movs	r6, r2
 2748              	.LVL355:
1716:Api\core\src/vl53l0x_api.c **** 	VL53L0X_Error Status = VL53L0X_ERROR_NONE;
1717:Api\core\src/vl53l0x_api.c **** 	uint8_t Temp8;
1718:Api\core\src/vl53l0x_api.c **** 
1719:Api\core\src/vl53l0x_api.c **** 	LOG_FUNCTION_START("");
1720:Api\core\src/vl53l0x_api.c **** 
1721:Api\core\src/vl53l0x_api.c **** 	VL53L0X_GETARRAYPARAMETERFIELD(Dev, LimitChecksEnable, LimitCheckId,
 2749              		.loc 1 1721 0
 2750 0008 4318     		adds	r3, r0, r1
 2751 000a 2833     		adds	r3, r3, #40
 2752 000c 1B78     		ldrb	r3, [r3]
 2753              	.LVL356:
ARM GAS  C:\Users\Rajesh\AppData\Local\Temp\cc8CcU56.s 			page 80


1722:Api\core\src/vl53l0x_api.c **** 		Temp8);
1723:Api\core\src/vl53l0x_api.c **** 
1724:Api\core\src/vl53l0x_api.c **** 	if (Temp8 == 0) { /* disabled write only internal value */
 2754              		.loc 1 1724 0
 2755 000e 002B     		cmp	r3, #0
 2756 0010 05D1     		bne	.L158
1725:Api\core\src/vl53l0x_api.c **** 		VL53L0X_SETARRAYPARAMETERFIELD(Dev, LimitChecksValue,
 2757              		.loc 1 1725 0
 2758 0012 0C34     		adds	r4, r4, #12
 2759 0014 A400     		lsls	r4, r4, #2
 2760 0016 0419     		adds	r4, r0, r4
 2761 0018 6260     		str	r2, [r4, #4]
1716:Api\core\src/vl53l0x_api.c **** 	VL53L0X_Error Status = VL53L0X_ERROR_NONE;
 2762              		.loc 1 1716 0
 2763 001a 0020     		movs	r0, #0
 2764              	.LVL357:
 2765 001c 22E0     		b	.L159
 2766              	.LVL358:
 2767              	.L158:
1726:Api\core\src/vl53l0x_api.c **** 			LimitCheckId, LimitCheckValue);
1727:Api\core\src/vl53l0x_api.c **** 	} else {
1728:Api\core\src/vl53l0x_api.c **** 
1729:Api\core\src/vl53l0x_api.c **** 		switch (LimitCheckId) {
 2768              		.loc 1 1729 0
 2769 001e 0529     		cmp	r1, #5
 2770 0020 18D8     		bhi	.L167
 2771 0022 8B00     		lsls	r3, r1, #2
 2772              	.LVL359:
 2773 0024 104A     		ldr	r2, .L168
 2774              	.LVL360:
 2775 0026 D358     		ldr	r3, [r2, r3]
 2776 0028 9F46     		mov	pc, r3
 2777              		.section	.rodata
 2778              		.align	2
 2779              	.L162:
 2780 00ac 2A000000 		.word	.L161
 2781 00b0 30000000 		.word	.L163
 2782 00b4 3C000000 		.word	.L164
 2783 00b8 42000000 		.word	.L165
 2784 00bc 48000000 		.word	.L166
 2785 00c0 48000000 		.word	.L166
 2786              		.section	.text.VL53L0X_SetLimitCheckValue
 2787              	.L161:
1730:Api\core\src/vl53l0x_api.c **** 
1731:Api\core\src/vl53l0x_api.c **** 		case VL53L0X_CHECKENABLE_SIGMA_FINAL_RANGE:
1732:Api\core\src/vl53l0x_api.c **** 			/* internal computation: */
1733:Api\core\src/vl53l0x_api.c **** 			VL53L0X_SETARRAYPARAMETERFIELD(Dev, LimitChecksValue,
 2788              		.loc 1 1733 0
 2789 002a 4663     		str	r6, [r0, #52]
 2790              	.LVL361:
1716:Api\core\src/vl53l0x_api.c **** 	uint8_t Temp8;
 2791              		.loc 1 1716 0
 2792 002c 0020     		movs	r0, #0
 2793              	.LVL362:
1734:Api\core\src/vl53l0x_api.c **** 				VL53L0X_CHECKENABLE_SIGMA_FINAL_RANGE,
1735:Api\core\src/vl53l0x_api.c **** 				LimitCheckValue);
1736:Api\core\src/vl53l0x_api.c **** 			break;
ARM GAS  C:\Users\Rajesh\AppData\Local\Temp\cc8CcU56.s 			page 81


 2794              		.loc 1 1736 0
 2795 002e 13E0     		b	.L160
 2796              	.LVL363:
 2797              	.L163:
1737:Api\core\src/vl53l0x_api.c **** 
1738:Api\core\src/vl53l0x_api.c **** 		case VL53L0X_CHECKENABLE_SIGNAL_RATE_FINAL_RANGE:
1739:Api\core\src/vl53l0x_api.c **** 
1740:Api\core\src/vl53l0x_api.c **** 			Status = VL53L0X_WrWord(Dev,
1741:Api\core\src/vl53l0x_api.c **** 			VL53L0X_REG_FINAL_RANGE_CONFIG_MIN_COUNT_RATE_RTN_LIMIT,
1742:Api\core\src/vl53l0x_api.c **** 				VL53L0X_FIXPOINT1616TOFIXPOINT97(
 2798              		.loc 1 1742 0
 2799 0030 720A     		lsrs	r2, r6, #9
1740:Api\core\src/vl53l0x_api.c **** 			VL53L0X_REG_FINAL_RANGE_CONFIG_MIN_COUNT_RATE_RTN_LIMIT,
 2800              		.loc 1 1740 0
 2801 0032 92B2     		uxth	r2, r2
 2802 0034 4421     		movs	r1, #68
 2803              	.LVL364:
 2804 0036 FFF7FEFF 		bl	VL53L0X_WrWord
 2805              	.LVL365:
1743:Api\core\src/vl53l0x_api.c **** 					LimitCheckValue));
1744:Api\core\src/vl53l0x_api.c **** 
1745:Api\core\src/vl53l0x_api.c **** 			break;
 2806              		.loc 1 1745 0
 2807 003a 0DE0     		b	.L160
 2808              	.LVL366:
 2809              	.L164:
1746:Api\core\src/vl53l0x_api.c **** 
1747:Api\core\src/vl53l0x_api.c **** 		case VL53L0X_CHECKENABLE_SIGNAL_REF_CLIP:
1748:Api\core\src/vl53l0x_api.c **** 
1749:Api\core\src/vl53l0x_api.c **** 			/* internal computation: */
1750:Api\core\src/vl53l0x_api.c **** 			VL53L0X_SETARRAYPARAMETERFIELD(Dev, LimitChecksValue,
 2810              		.loc 1 1750 0
 2811 003c C663     		str	r6, [r0, #60]
 2812              	.LVL367:
1716:Api\core\src/vl53l0x_api.c **** 	uint8_t Temp8;
 2813              		.loc 1 1716 0
 2814 003e 0020     		movs	r0, #0
 2815              	.LVL368:
1751:Api\core\src/vl53l0x_api.c **** 				VL53L0X_CHECKENABLE_SIGNAL_REF_CLIP,
1752:Api\core\src/vl53l0x_api.c **** 				LimitCheckValue);
1753:Api\core\src/vl53l0x_api.c **** 
1754:Api\core\src/vl53l0x_api.c **** 			break;
 2816              		.loc 1 1754 0
 2817 0040 0AE0     		b	.L160
 2818              	.LVL369:
 2819              	.L165:
1755:Api\core\src/vl53l0x_api.c **** 
1756:Api\core\src/vl53l0x_api.c **** 		case VL53L0X_CHECKENABLE_RANGE_IGNORE_THRESHOLD:
1757:Api\core\src/vl53l0x_api.c **** 
1758:Api\core\src/vl53l0x_api.c **** 			/* internal computation: */
1759:Api\core\src/vl53l0x_api.c **** 			VL53L0X_SETARRAYPARAMETERFIELD(Dev, LimitChecksValue,
 2820              		.loc 1 1759 0
 2821 0042 0664     		str	r6, [r0, #64]
 2822              	.LVL370:
1716:Api\core\src/vl53l0x_api.c **** 	uint8_t Temp8;
 2823              		.loc 1 1716 0
 2824 0044 0020     		movs	r0, #0
ARM GAS  C:\Users\Rajesh\AppData\Local\Temp\cc8CcU56.s 			page 82


 2825              	.LVL371:
1760:Api\core\src/vl53l0x_api.c **** 				VL53L0X_CHECKENABLE_RANGE_IGNORE_THRESHOLD,
1761:Api\core\src/vl53l0x_api.c **** 				LimitCheckValue);
1762:Api\core\src/vl53l0x_api.c **** 
1763:Api\core\src/vl53l0x_api.c **** 			break;
 2826              		.loc 1 1763 0
 2827 0046 07E0     		b	.L160
 2828              	.LVL372:
 2829              	.L166:
1764:Api\core\src/vl53l0x_api.c **** 
1765:Api\core\src/vl53l0x_api.c **** 		case VL53L0X_CHECKENABLE_SIGNAL_RATE_MSRC:
1766:Api\core\src/vl53l0x_api.c **** 		case VL53L0X_CHECKENABLE_SIGNAL_RATE_PRE_RANGE:
1767:Api\core\src/vl53l0x_api.c **** 
1768:Api\core\src/vl53l0x_api.c **** 			Status = VL53L0X_WrWord(Dev,
1769:Api\core\src/vl53l0x_api.c **** 				VL53L0X_REG_PRE_RANGE_MIN_COUNT_RATE_RTN_LIMIT,
1770:Api\core\src/vl53l0x_api.c **** 				VL53L0X_FIXPOINT1616TOFIXPOINT97(
 2830              		.loc 1 1770 0
 2831 0048 720A     		lsrs	r2, r6, #9
1768:Api\core\src/vl53l0x_api.c **** 				VL53L0X_REG_PRE_RANGE_MIN_COUNT_RATE_RTN_LIMIT,
 2832              		.loc 1 1768 0
 2833 004a 92B2     		uxth	r2, r2
 2834 004c 6421     		movs	r1, #100
 2835              	.LVL373:
 2836 004e FFF7FEFF 		bl	VL53L0X_WrWord
 2837              	.LVL374:
1771:Api\core\src/vl53l0x_api.c **** 					LimitCheckValue));
1772:Api\core\src/vl53l0x_api.c **** 
1773:Api\core\src/vl53l0x_api.c **** 			break;
 2838              		.loc 1 1773 0
 2839 0052 01E0     		b	.L160
 2840              	.LVL375:
 2841              	.L167:
1774:Api\core\src/vl53l0x_api.c **** 
1775:Api\core\src/vl53l0x_api.c **** 		default:
1776:Api\core\src/vl53l0x_api.c **** 			Status = VL53L0X_ERROR_INVALID_PARAMS;
 2842              		.loc 1 1776 0
 2843 0054 0420     		movs	r0, #4
 2844              	.LVL376:
 2845 0056 4042     		rsbs	r0, r0, #0
 2846              	.LVL377:
 2847              	.L160:
1777:Api\core\src/vl53l0x_api.c **** 
1778:Api\core\src/vl53l0x_api.c **** 		}
1779:Api\core\src/vl53l0x_api.c **** 
1780:Api\core\src/vl53l0x_api.c **** 		if (Status == VL53L0X_ERROR_NONE) {
 2848              		.loc 1 1780 0
 2849 0058 0028     		cmp	r0, #0
 2850 005a 03D1     		bne	.L159
1781:Api\core\src/vl53l0x_api.c **** 			VL53L0X_SETARRAYPARAMETERFIELD(Dev, LimitChecksValue,
 2851              		.loc 1 1781 0
 2852 005c 0C34     		adds	r4, r4, #12
 2853 005e A400     		lsls	r4, r4, #2
 2854 0060 2C19     		adds	r4, r5, r4
 2855 0062 6660     		str	r6, [r4, #4]
 2856              	.LVL378:
 2857              	.L159:
1782:Api\core\src/vl53l0x_api.c **** 				LimitCheckId, LimitCheckValue);
ARM GAS  C:\Users\Rajesh\AppData\Local\Temp\cc8CcU56.s 			page 83


1783:Api\core\src/vl53l0x_api.c **** 		}
1784:Api\core\src/vl53l0x_api.c **** 	}
1785:Api\core\src/vl53l0x_api.c **** 
1786:Api\core\src/vl53l0x_api.c **** 	LOG_FUNCTION_END(Status);
1787:Api\core\src/vl53l0x_api.c **** 	return Status;
1788:Api\core\src/vl53l0x_api.c **** }
 2858              		.loc 1 1788 0
 2859              		@ sp needed
 2860              	.LVL379:
 2861              	.LVL380:
 2862 0064 70BD     		pop	{r4, r5, r6, pc}
 2863              	.L169:
 2864 0066 C046     		.align	2
 2865              	.L168:
 2866 0068 AC000000 		.word	.L162
 2867              		.cfi_endproc
 2868              	.LFE60:
 2869              		.size	VL53L0X_SetLimitCheckValue, .-VL53L0X_SetLimitCheckValue
 2870              		.section	.text.VL53L0X_GetLimitCheckValue,"ax",%progbits
 2871              		.align	2
 2872              		.global	VL53L0X_GetLimitCheckValue
 2873              		.code	16
 2874              		.thumb_func
 2875              		.type	VL53L0X_GetLimitCheckValue, %function
 2876              	VL53L0X_GetLimitCheckValue:
 2877              	.LFB61:
1789:Api\core\src/vl53l0x_api.c **** 
1790:Api\core\src/vl53l0x_api.c **** VL53L0X_Error VL53L0X_GetLimitCheckValue(VL53L0X_DEV Dev, uint16_t LimitCheckId,
1791:Api\core\src/vl53l0x_api.c **** 	FixPoint1616_t *pLimitCheckValue)
1792:Api\core\src/vl53l0x_api.c **** {
 2878              		.loc 1 1792 0
 2879              		.cfi_startproc
 2880              		@ args = 0, pretend = 0, frame = 8
 2881              		@ frame_needed = 0, uses_anonymous_args = 0
 2882              	.LVL381:
 2883 0000 F0B5     		push	{r4, r5, r6, r7, lr}
 2884              		.cfi_def_cfa_offset 20
 2885              		.cfi_offset 4, -20
 2886              		.cfi_offset 5, -16
 2887              		.cfi_offset 6, -12
 2888              		.cfi_offset 7, -8
 2889              		.cfi_offset 14, -4
 2890 0002 83B0     		sub	sp, sp, #12
 2891              		.cfi_def_cfa_offset 32
 2892 0004 0500     		movs	r5, r0
 2893 0006 0C00     		movs	r4, r1
 2894 0008 1700     		movs	r7, r2
 2895              	.LVL382:
1793:Api\core\src/vl53l0x_api.c **** 	VL53L0X_Error Status = VL53L0X_ERROR_NONE;
1794:Api\core\src/vl53l0x_api.c **** 	uint8_t EnableZeroValue = 0;
1795:Api\core\src/vl53l0x_api.c **** 	uint16_t Temp16;
1796:Api\core\src/vl53l0x_api.c **** 	FixPoint1616_t TempFix1616;
1797:Api\core\src/vl53l0x_api.c **** 
1798:Api\core\src/vl53l0x_api.c **** 	LOG_FUNCTION_START("");
1799:Api\core\src/vl53l0x_api.c **** 
1800:Api\core\src/vl53l0x_api.c **** 	switch (LimitCheckId) {
 2896              		.loc 1 1800 0
ARM GAS  C:\Users\Rajesh\AppData\Local\Temp\cc8CcU56.s 			page 84


 2897 000a 0529     		cmp	r1, #5
 2898 000c 27D8     		bhi	.L181
 2899 000e 8B00     		lsls	r3, r1, #2
 2900 0010 264A     		ldr	r2, .L184
 2901              	.LVL383:
 2902 0012 D358     		ldr	r3, [r2, r3]
 2903 0014 9F46     		mov	pc, r3
 2904              		.section	.rodata
 2905              		.align	2
 2906              	.L173:
 2907 00c4 16000000 		.word	.L172
 2908 00c8 1E000000 		.word	.L174
 2909 00cc 36000000 		.word	.L175
 2910 00d0 3E000000 		.word	.L176
 2911 00d4 46000000 		.word	.L177
 2912 00d8 46000000 		.word	.L177
 2913              		.section	.text.VL53L0X_GetLimitCheckValue
 2914              	.L172:
1801:Api\core\src/vl53l0x_api.c **** 
1802:Api\core\src/vl53l0x_api.c **** 	case VL53L0X_CHECKENABLE_SIGMA_FINAL_RANGE:
1803:Api\core\src/vl53l0x_api.c **** 		/* internal computation: */
1804:Api\core\src/vl53l0x_api.c **** 		VL53L0X_GETARRAYPARAMETERFIELD(Dev, LimitChecksValue,
 2915              		.loc 1 1804 0
 2916 0016 466B     		ldr	r6, [r0, #52]
 2917              	.LVL384:
1805:Api\core\src/vl53l0x_api.c **** 			VL53L0X_CHECKENABLE_SIGMA_FINAL_RANGE, TempFix1616);
1806:Api\core\src/vl53l0x_api.c **** 		EnableZeroValue = 0;
 2918              		.loc 1 1806 0
 2919 0018 0023     		movs	r3, #0
1793:Api\core\src/vl53l0x_api.c **** 	uint8_t EnableZeroValue = 0;
 2920              		.loc 1 1793 0
 2921 001a 0020     		movs	r0, #0
 2922              	.LVL385:
1807:Api\core\src/vl53l0x_api.c **** 		break;
 2923              		.loc 1 1807 0
 2924 001c 26E0     		b	.L171
 2925              	.LVL386:
 2926              	.L174:
1808:Api\core\src/vl53l0x_api.c **** 
1809:Api\core\src/vl53l0x_api.c **** 	case VL53L0X_CHECKENABLE_SIGNAL_RATE_FINAL_RANGE:
1810:Api\core\src/vl53l0x_api.c **** 		Status = VL53L0X_RdWord(Dev,
 2927              		.loc 1 1810 0
 2928 001e 6B46     		mov	r3, sp
 2929 0020 9A1D     		adds	r2, r3, #6
 2930 0022 4421     		movs	r1, #68
 2931              	.LVL387:
 2932 0024 FFF7FEFF 		bl	VL53L0X_RdWord
 2933              	.LVL388:
1811:Api\core\src/vl53l0x_api.c **** 		VL53L0X_REG_FINAL_RANGE_CONFIG_MIN_COUNT_RATE_RTN_LIMIT,
1812:Api\core\src/vl53l0x_api.c **** 			&Temp16);
1813:Api\core\src/vl53l0x_api.c **** 		if (Status == VL53L0X_ERROR_NONE)
 2934              		.loc 1 1813 0
 2935 0028 0028     		cmp	r0, #0
 2936 002a 1CD1     		bne	.L182
1814:Api\core\src/vl53l0x_api.c **** 			TempFix1616 = VL53L0X_FIXPOINT97TOFIXPOINT1616(Temp16);
 2937              		.loc 1 1814 0
 2938 002c 6B46     		mov	r3, sp
ARM GAS  C:\Users\Rajesh\AppData\Local\Temp\cc8CcU56.s 			page 85


 2939 002e DE88     		ldrh	r6, [r3, #6]
 2940 0030 7602     		lsls	r6, r6, #9
 2941              	.LVL389:
1815:Api\core\src/vl53l0x_api.c **** 
1816:Api\core\src/vl53l0x_api.c **** 
1817:Api\core\src/vl53l0x_api.c **** 		EnableZeroValue = 1;
 2942              		.loc 1 1817 0
 2943 0032 0123     		movs	r3, #1
 2944 0034 1AE0     		b	.L171
 2945              	.LVL390:
 2946              	.L175:
1818:Api\core\src/vl53l0x_api.c **** 		break;
1819:Api\core\src/vl53l0x_api.c **** 
1820:Api\core\src/vl53l0x_api.c **** 	case VL53L0X_CHECKENABLE_SIGNAL_REF_CLIP:
1821:Api\core\src/vl53l0x_api.c **** 		/* internal computation: */
1822:Api\core\src/vl53l0x_api.c **** 		VL53L0X_GETARRAYPARAMETERFIELD(Dev, LimitChecksValue,
 2947              		.loc 1 1822 0
 2948 0036 C66B     		ldr	r6, [r0, #60]
 2949              	.LVL391:
1823:Api\core\src/vl53l0x_api.c **** 			VL53L0X_CHECKENABLE_SIGNAL_REF_CLIP, TempFix1616);
1824:Api\core\src/vl53l0x_api.c **** 		EnableZeroValue = 0;
 2950              		.loc 1 1824 0
 2951 0038 0023     		movs	r3, #0
1793:Api\core\src/vl53l0x_api.c **** 	uint8_t EnableZeroValue = 0;
 2952              		.loc 1 1793 0
 2953 003a 0020     		movs	r0, #0
 2954              	.LVL392:
1825:Api\core\src/vl53l0x_api.c **** 		break;
 2955              		.loc 1 1825 0
 2956 003c 16E0     		b	.L171
 2957              	.LVL393:
 2958              	.L176:
1826:Api\core\src/vl53l0x_api.c **** 
1827:Api\core\src/vl53l0x_api.c **** 	case VL53L0X_CHECKENABLE_RANGE_IGNORE_THRESHOLD:
1828:Api\core\src/vl53l0x_api.c **** 		/* internal computation: */
1829:Api\core\src/vl53l0x_api.c **** 		VL53L0X_GETARRAYPARAMETERFIELD(Dev, LimitChecksValue,
 2959              		.loc 1 1829 0
 2960 003e 066C     		ldr	r6, [r0, #64]
 2961              	.LVL394:
1830:Api\core\src/vl53l0x_api.c **** 			VL53L0X_CHECKENABLE_RANGE_IGNORE_THRESHOLD, TempFix1616);
1831:Api\core\src/vl53l0x_api.c **** 		EnableZeroValue = 0;
 2962              		.loc 1 1831 0
 2963 0040 0023     		movs	r3, #0
1793:Api\core\src/vl53l0x_api.c **** 	uint8_t EnableZeroValue = 0;
 2964              		.loc 1 1793 0
 2965 0042 0020     		movs	r0, #0
 2966              	.LVL395:
1832:Api\core\src/vl53l0x_api.c **** 		break;
 2967              		.loc 1 1832 0
 2968 0044 12E0     		b	.L171
 2969              	.LVL396:
 2970              	.L177:
1833:Api\core\src/vl53l0x_api.c **** 
1834:Api\core\src/vl53l0x_api.c **** 	case VL53L0X_CHECKENABLE_SIGNAL_RATE_MSRC:
1835:Api\core\src/vl53l0x_api.c **** 	case VL53L0X_CHECKENABLE_SIGNAL_RATE_PRE_RANGE:
1836:Api\core\src/vl53l0x_api.c **** 		Status = VL53L0X_RdWord(Dev,
 2971              		.loc 1 1836 0
ARM GAS  C:\Users\Rajesh\AppData\Local\Temp\cc8CcU56.s 			page 86


 2972 0046 6B46     		mov	r3, sp
 2973 0048 9A1D     		adds	r2, r3, #6
 2974 004a 6421     		movs	r1, #100
 2975              	.LVL397:
 2976 004c FFF7FEFF 		bl	VL53L0X_RdWord
 2977              	.LVL398:
1837:Api\core\src/vl53l0x_api.c **** 			VL53L0X_REG_PRE_RANGE_MIN_COUNT_RATE_RTN_LIMIT,
1838:Api\core\src/vl53l0x_api.c **** 			&Temp16);
1839:Api\core\src/vl53l0x_api.c **** 		if (Status == VL53L0X_ERROR_NONE)
 2978              		.loc 1 1839 0
 2979 0050 0028     		cmp	r0, #0
 2980 0052 0AD1     		bne	.L183
1840:Api\core\src/vl53l0x_api.c **** 			TempFix1616 = VL53L0X_FIXPOINT97TOFIXPOINT1616(Temp16);
 2981              		.loc 1 1840 0
 2982 0054 6B46     		mov	r3, sp
 2983 0056 DE88     		ldrh	r6, [r3, #6]
 2984 0058 7602     		lsls	r6, r6, #9
 2985              	.LVL399:
1841:Api\core\src/vl53l0x_api.c **** 
1842:Api\core\src/vl53l0x_api.c **** 
1843:Api\core\src/vl53l0x_api.c **** 		EnableZeroValue = 0;
 2986              		.loc 1 1843 0
 2987 005a 0023     		movs	r3, #0
 2988 005c 06E0     		b	.L171
 2989              	.LVL400:
 2990              	.L181:
1794:Api\core\src/vl53l0x_api.c **** 	uint16_t Temp16;
 2991              		.loc 1 1794 0
 2992 005e 0023     		movs	r3, #0
1844:Api\core\src/vl53l0x_api.c **** 		break;
1845:Api\core\src/vl53l0x_api.c **** 
1846:Api\core\src/vl53l0x_api.c **** 	default:
1847:Api\core\src/vl53l0x_api.c **** 		Status = VL53L0X_ERROR_INVALID_PARAMS;
 2993              		.loc 1 1847 0
 2994 0060 0420     		movs	r0, #4
 2995              	.LVL401:
 2996 0062 4042     		rsbs	r0, r0, #0
 2997 0064 02E0     		b	.L171
 2998              	.LVL402:
 2999              	.L182:
1817:Api\core\src/vl53l0x_api.c **** 		break;
 3000              		.loc 1 1817 0
 3001 0066 0123     		movs	r3, #1
 3002 0068 00E0     		b	.L171
 3003              	.L183:
1843:Api\core\src/vl53l0x_api.c **** 		break;
 3004              		.loc 1 1843 0
 3005 006a 0023     		movs	r3, #0
 3006              	.LVL403:
 3007              	.L171:
1848:Api\core\src/vl53l0x_api.c **** 
1849:Api\core\src/vl53l0x_api.c **** 	}
1850:Api\core\src/vl53l0x_api.c **** 
1851:Api\core\src/vl53l0x_api.c **** 	if (Status == VL53L0X_ERROR_NONE) {
 3008              		.loc 1 1851 0
 3009 006c 0028     		cmp	r0, #0
 3010 006e 1AD1     		bne	.L178
ARM GAS  C:\Users\Rajesh\AppData\Local\Temp\cc8CcU56.s 			page 87


1852:Api\core\src/vl53l0x_api.c **** 
1853:Api\core\src/vl53l0x_api.c **** 		if (EnableZeroValue == 1) {
 3011              		.loc 1 1853 0
 3012 0070 012B     		cmp	r3, #1
 3013 0072 17D1     		bne	.L179
1854:Api\core\src/vl53l0x_api.c **** 
1855:Api\core\src/vl53l0x_api.c **** 			if (TempFix1616 == 0) {
 3014              		.loc 1 1855 0
 3015 0074 002E     		cmp	r6, #0
 3016 0076 0AD1     		bne	.L180
1856:Api\core\src/vl53l0x_api.c **** 				/* disabled: return value from memory */
1857:Api\core\src/vl53l0x_api.c **** 				VL53L0X_GETARRAYPARAMETERFIELD(Dev,
 3017              		.loc 1 1857 0
 3018 0078 2300     		movs	r3, r4
 3019              	.LVL404:
 3020 007a 0C33     		adds	r3, r3, #12
 3021 007c 9B00     		lsls	r3, r3, #2
 3022 007e EB18     		adds	r3, r5, r3
 3023 0080 5B68     		ldr	r3, [r3, #4]
 3024 0082 3B60     		str	r3, [r7]
 3025              	.LVL405:
1858:Api\core\src/vl53l0x_api.c **** 					LimitChecksValue, LimitCheckId,
1859:Api\core\src/vl53l0x_api.c **** 					TempFix1616);
1860:Api\core\src/vl53l0x_api.c **** 				*pLimitCheckValue = TempFix1616;
1861:Api\core\src/vl53l0x_api.c **** 				VL53L0X_SETARRAYPARAMETERFIELD(Dev,
 3026              		.loc 1 1861 0
 3027 0084 2C19     		adds	r4, r5, r4
 3028 0086 2834     		adds	r4, r4, #40
 3029 0088 0023     		movs	r3, #0
 3030 008a 2370     		strb	r3, [r4]
 3031              	.LVL406:
 3032 008c 0BE0     		b	.L178
 3033              	.LVL407:
 3034              	.L180:
1862:Api\core\src/vl53l0x_api.c **** 					LimitChecksEnable, LimitCheckId, 0);
1863:Api\core\src/vl53l0x_api.c **** 			} else {
1864:Api\core\src/vl53l0x_api.c **** 				*pLimitCheckValue = TempFix1616;
 3035              		.loc 1 1864 0
 3036 008e 3E60     		str	r6, [r7]
1865:Api\core\src/vl53l0x_api.c **** 				VL53L0X_SETARRAYPARAMETERFIELD(Dev,
 3037              		.loc 1 1865 0
 3038 0090 2300     		movs	r3, r4
 3039              	.LVL408:
 3040 0092 0C33     		adds	r3, r3, #12
 3041 0094 9B00     		lsls	r3, r3, #2
 3042 0096 EB18     		adds	r3, r5, r3
 3043 0098 5E60     		str	r6, [r3, #4]
1866:Api\core\src/vl53l0x_api.c **** 					LimitChecksValue, LimitCheckId,
1867:Api\core\src/vl53l0x_api.c **** 					TempFix1616);
1868:Api\core\src/vl53l0x_api.c **** 				VL53L0X_SETARRAYPARAMETERFIELD(Dev,
 3044              		.loc 1 1868 0
 3045 009a 2C19     		adds	r4, r5, r4
 3046 009c 2834     		adds	r4, r4, #40
 3047 009e 0123     		movs	r3, #1
 3048 00a0 2370     		strb	r3, [r4]
 3049 00a2 00E0     		b	.L178
 3050              	.LVL409:
ARM GAS  C:\Users\Rajesh\AppData\Local\Temp\cc8CcU56.s 			page 88


 3051              	.L179:
1869:Api\core\src/vl53l0x_api.c **** 					LimitChecksEnable, LimitCheckId, 1);
1870:Api\core\src/vl53l0x_api.c **** 			}
1871:Api\core\src/vl53l0x_api.c **** 		} else {
1872:Api\core\src/vl53l0x_api.c **** 			*pLimitCheckValue = TempFix1616;
 3052              		.loc 1 1872 0
 3053 00a4 3E60     		str	r6, [r7]
 3054              	.LVL410:
 3055              	.L178:
1873:Api\core\src/vl53l0x_api.c **** 		}
1874:Api\core\src/vl53l0x_api.c **** 	}
1875:Api\core\src/vl53l0x_api.c **** 
1876:Api\core\src/vl53l0x_api.c **** 	LOG_FUNCTION_END(Status);
1877:Api\core\src/vl53l0x_api.c **** 	return Status;
1878:Api\core\src/vl53l0x_api.c **** 
1879:Api\core\src/vl53l0x_api.c **** }
 3056              		.loc 1 1879 0
 3057 00a6 03B0     		add	sp, sp, #12
 3058              		@ sp needed
 3059              	.LVL411:
 3060              	.LVL412:
 3061 00a8 F0BD     		pop	{r4, r5, r6, r7, pc}
 3062              	.L185:
 3063 00aa C046     		.align	2
 3064              	.L184:
 3065 00ac C4000000 		.word	.L173
 3066              		.cfi_endproc
 3067              	.LFE61:
 3068              		.size	VL53L0X_GetLimitCheckValue, .-VL53L0X_GetLimitCheckValue
 3069              		.section	.text.VL53L0X_GetLimitCheckCurrent,"ax",%progbits
 3070              		.align	2
 3071              		.global	VL53L0X_GetLimitCheckCurrent
 3072              		.code	16
 3073              		.thumb_func
 3074              		.type	VL53L0X_GetLimitCheckCurrent, %function
 3075              	VL53L0X_GetLimitCheckCurrent:
 3076              	.LFB62:
1880:Api\core\src/vl53l0x_api.c **** 
1881:Api\core\src/vl53l0x_api.c **** VL53L0X_Error VL53L0X_GetLimitCheckCurrent(VL53L0X_DEV Dev, uint16_t LimitCheckId,
1882:Api\core\src/vl53l0x_api.c **** 	FixPoint1616_t *pLimitCheckCurrent)
1883:Api\core\src/vl53l0x_api.c **** {
 3077              		.loc 1 1883 0
 3078              		.cfi_startproc
 3079              		@ args = 0, pretend = 0, frame = 32
 3080              		@ frame_needed = 0, uses_anonymous_args = 0
 3081              	.LVL413:
 3082 0000 70B5     		push	{r4, r5, r6, lr}
 3083              		.cfi_def_cfa_offset 16
 3084              		.cfi_offset 4, -16
 3085              		.cfi_offset 5, -12
 3086              		.cfi_offset 6, -8
 3087              		.cfi_offset 14, -4
 3088 0002 88B0     		sub	sp, sp, #32
 3089              		.cfi_def_cfa_offset 48
 3090              	.LVL414:
