ARM GAS  C:\Users\Rajesh\AppData\Local\Temp\ccDogWTk.s 			page 1


   1              		.syntax unified
   2              		.cpu cortex-m0
   3              		.fpu softvfp
   4              		.eabi_attribute 20, 1
   5              		.eabi_attribute 21, 1
   6              		.eabi_attribute 23, 3
   7              		.eabi_attribute 24, 1
   8              		.eabi_attribute 25, 1
   9              		.eabi_attribute 26, 1
  10              		.eabi_attribute 30, 2
  11              		.eabi_attribute 34, 0
  12              		.eabi_attribute 18, 4
  13              		.thumb
  14              		.syntax unified
  15              		.file	"ADC.c"
  16              		.text
  17              	.Ltext0:
  18              		.cfi_sections	.debug_frame
  19              		.section	.text.ADC_Start,"ax",%progbits
  20              		.align	2
  21              		.global	ADC_Start
  22              		.code	16
  23              		.thumb_func
  24              		.type	ADC_Start, %function
  25              	ADC_Start:
  26              	.LFB1:
  27              		.file 1 "Generated_Source\\PSoC4\\ADC.c"
   1:Generated_Source\PSoC4/ADC.c **** /*******************************************************************************
   2:Generated_Source\PSoC4/ADC.c **** * File Name: ADC.c
   3:Generated_Source\PSoC4/ADC.c **** * Version 2.50
   4:Generated_Source\PSoC4/ADC.c **** *
   5:Generated_Source\PSoC4/ADC.c **** * Description:
   6:Generated_Source\PSoC4/ADC.c **** *  This file provides the source code to the API for the Sequencing Successive
   7:Generated_Source\PSoC4/ADC.c **** *  Approximation ADC Component Component.
   8:Generated_Source\PSoC4/ADC.c **** *
   9:Generated_Source\PSoC4/ADC.c **** * Note:
  10:Generated_Source\PSoC4/ADC.c **** *
  11:Generated_Source\PSoC4/ADC.c **** ********************************************************************************
  12:Generated_Source\PSoC4/ADC.c **** * Copyright 2008-2017, Cypress Semiconductor Corporation.  All rights reserved.
  13:Generated_Source\PSoC4/ADC.c **** * You may use this file only in accordance with the license, terms, conditions,
  14:Generated_Source\PSoC4/ADC.c **** * disclaimers, and limitations in the end user license agreement accompanying
  15:Generated_Source\PSoC4/ADC.c **** * the software package with which this file was provided.
  16:Generated_Source\PSoC4/ADC.c **** *******************************************************************************/
  17:Generated_Source\PSoC4/ADC.c **** 
  18:Generated_Source\PSoC4/ADC.c **** #include "ADC.h"
  19:Generated_Source\PSoC4/ADC.c **** 
  20:Generated_Source\PSoC4/ADC.c **** 
  21:Generated_Source\PSoC4/ADC.c **** /***************************************
  22:Generated_Source\PSoC4/ADC.c **** * Global data allocation
  23:Generated_Source\PSoC4/ADC.c **** ***************************************/
  24:Generated_Source\PSoC4/ADC.c **** uint8 ADC_initVar = 0u;
  25:Generated_Source\PSoC4/ADC.c **** volatile int16 ADC_offset[ADC_TOTAL_CHANNELS_NUM];
  26:Generated_Source\PSoC4/ADC.c **** volatile int32 ADC_countsPer10Volt[ADC_TOTAL_CHANNELS_NUM];   /* Gain compensation */
  27:Generated_Source\PSoC4/ADC.c **** 
  28:Generated_Source\PSoC4/ADC.c **** 
  29:Generated_Source\PSoC4/ADC.c **** /***************************************
  30:Generated_Source\PSoC4/ADC.c **** * Local data allocation
ARM GAS  C:\Users\Rajesh\AppData\Local\Temp\ccDogWTk.s 			page 2


  31:Generated_Source\PSoC4/ADC.c **** ***************************************/
  32:Generated_Source\PSoC4/ADC.c **** /* Channels configuration generated by customiser */
  33:Generated_Source\PSoC4/ADC.c **** static const uint32 CYCODE ADC_channelsConfig[] = { 0x00000000u };
  34:Generated_Source\PSoC4/ADC.c **** 
  35:Generated_Source\PSoC4/ADC.c **** 
  36:Generated_Source\PSoC4/ADC.c **** /*******************************************************************************
  37:Generated_Source\PSoC4/ADC.c **** * Function Name: ADC_Start
  38:Generated_Source\PSoC4/ADC.c **** ********************************************************************************
  39:Generated_Source\PSoC4/ADC.c **** *
  40:Generated_Source\PSoC4/ADC.c **** * Summary:
  41:Generated_Source\PSoC4/ADC.c **** *  Performs all required initialization for this component
  42:Generated_Source\PSoC4/ADC.c **** *  and enables the power. The power will be set to the appropriate
  43:Generated_Source\PSoC4/ADC.c **** *  power based on the clock frequency.
  44:Generated_Source\PSoC4/ADC.c **** *
  45:Generated_Source\PSoC4/ADC.c **** * Parameters:
  46:Generated_Source\PSoC4/ADC.c **** *  None.
  47:Generated_Source\PSoC4/ADC.c **** *
  48:Generated_Source\PSoC4/ADC.c **** * Return:
  49:Generated_Source\PSoC4/ADC.c **** *  None.
  50:Generated_Source\PSoC4/ADC.c **** *
  51:Generated_Source\PSoC4/ADC.c **** * Global variables:
  52:Generated_Source\PSoC4/ADC.c **** *  The ADC_initVar variable is used to indicate when/if initial
  53:Generated_Source\PSoC4/ADC.c **** *  configuration of this component has happened. The variable is initialized to
  54:Generated_Source\PSoC4/ADC.c **** *  zero and set to 1 the first time ADC_Start() is called. This allows for
  55:Generated_Source\PSoC4/ADC.c **** *  component Re-Start without re-initialization in all subsequent calls to the
  56:Generated_Source\PSoC4/ADC.c **** *  ADC_Start() routine.
  57:Generated_Source\PSoC4/ADC.c **** *  If re-initialization of the component is required the variable should be set
  58:Generated_Source\PSoC4/ADC.c **** *  to zero before call of ADC_Start() routine, or the user may call
  59:Generated_Source\PSoC4/ADC.c **** *  ADC_Init() and ADC_Enable() as done in the
  60:Generated_Source\PSoC4/ADC.c **** *  ADC_Start() routine.
  61:Generated_Source\PSoC4/ADC.c **** *
  62:Generated_Source\PSoC4/ADC.c **** *******************************************************************************/
  63:Generated_Source\PSoC4/ADC.c **** void ADC_Start(void)
  64:Generated_Source\PSoC4/ADC.c **** {
  28              		.loc 1 64 0
  29              		.cfi_startproc
  30              		@ args = 0, pretend = 0, frame = 0
  31              		@ frame_needed = 0, uses_anonymous_args = 0
  32 0000 70B5     		push	{r4, r5, r6, lr}
  33              		.cfi_def_cfa_offset 16
  34              		.cfi_offset 4, -16
  35              		.cfi_offset 5, -12
  36              		.cfi_offset 6, -8
  37              		.cfi_offset 14, -4
  65:Generated_Source\PSoC4/ADC.c ****     /* If not Initialized then initialize all required hardware and software */
  66:Generated_Source\PSoC4/ADC.c ****     if(ADC_initVar == 0u)
  38              		.loc 1 66 0
  39 0002 2C4C     		ldr	r4, .L11
  40 0004 2378     		ldrb	r3, [r4]
  41 0006 002B     		cmp	r3, #0
  42 0008 11D0     		beq	.L10
  43              	.L2:
  44              	.LBB10:
  45              	.LBB11:
  67:Generated_Source\PSoC4/ADC.c ****     {
  68:Generated_Source\PSoC4/ADC.c ****         ADC_Init();
  69:Generated_Source\PSoC4/ADC.c ****         ADC_initVar = 1u;
ARM GAS  C:\Users\Rajesh\AppData\Local\Temp\ccDogWTk.s 			page 3


  70:Generated_Source\PSoC4/ADC.c ****     }
  71:Generated_Source\PSoC4/ADC.c ****     ADC_Enable();
  72:Generated_Source\PSoC4/ADC.c **** }
  73:Generated_Source\PSoC4/ADC.c **** 
  74:Generated_Source\PSoC4/ADC.c **** 
  75:Generated_Source\PSoC4/ADC.c **** /*******************************************************************************
  76:Generated_Source\PSoC4/ADC.c **** * Function Name: ADC_Init
  77:Generated_Source\PSoC4/ADC.c **** ********************************************************************************
  78:Generated_Source\PSoC4/ADC.c **** *
  79:Generated_Source\PSoC4/ADC.c **** * Summary:
  80:Generated_Source\PSoC4/ADC.c **** *  Initialize component's parameters to the parameters set by user in the
  81:Generated_Source\PSoC4/ADC.c **** *  customizer of the component placed onto schematic. Usually called in
  82:Generated_Source\PSoC4/ADC.c **** *  ADC_Start().
  83:Generated_Source\PSoC4/ADC.c **** *
  84:Generated_Source\PSoC4/ADC.c **** * Parameters:
  85:Generated_Source\PSoC4/ADC.c **** *  None.
  86:Generated_Source\PSoC4/ADC.c **** *
  87:Generated_Source\PSoC4/ADC.c **** * Return:
  88:Generated_Source\PSoC4/ADC.c **** *  None.
  89:Generated_Source\PSoC4/ADC.c **** *
  90:Generated_Source\PSoC4/ADC.c **** * Global variables:
  91:Generated_Source\PSoC4/ADC.c **** *  The ADC_offset variable is initialized.
  92:Generated_Source\PSoC4/ADC.c **** *
  93:Generated_Source\PSoC4/ADC.c **** *******************************************************************************/
  94:Generated_Source\PSoC4/ADC.c **** void ADC_Init(void)
  95:Generated_Source\PSoC4/ADC.c **** {
  96:Generated_Source\PSoC4/ADC.c ****     uint32 chNum;
  97:Generated_Source\PSoC4/ADC.c ****     uint32 tmpRegVal;
  98:Generated_Source\PSoC4/ADC.c ****     int32 counts;
  99:Generated_Source\PSoC4/ADC.c **** 
 100:Generated_Source\PSoC4/ADC.c ****     #if(ADC_TOTAL_CHANNELS_NUM > 1u)
 101:Generated_Source\PSoC4/ADC.c ****         static const uint8 CYCODE ADC_InputsPlacement[] =
 102:Generated_Source\PSoC4/ADC.c ****         {
 103:Generated_Source\PSoC4/ADC.c ****             (uint8)(ADC_cy_psoc4_sarmux_8__CH_0_PORT << 4u) |
 104:Generated_Source\PSoC4/ADC.c ****             (uint8)ADC_cy_psoc4_sarmux_8__CH_0_PIN
 105:Generated_Source\PSoC4/ADC.c ****             ,(uint8)(ADC_cy_psoc4_sarmux_8__CH_1_PORT << 4u) |
 106:Generated_Source\PSoC4/ADC.c ****              (uint8)ADC_cy_psoc4_sarmux_8__CH_1_PIN
 107:Generated_Source\PSoC4/ADC.c ****             #if(ADC_TOTAL_CHANNELS_NUM > 2u)
 108:Generated_Source\PSoC4/ADC.c ****                 ,(uint8)(ADC_cy_psoc4_sarmux_8__CH_2_PORT << 4u) |
 109:Generated_Source\PSoC4/ADC.c ****                  (uint8)ADC_cy_psoc4_sarmux_8__CH_2_PIN
 110:Generated_Source\PSoC4/ADC.c ****             #endif /* End ADC_TOTAL_CHANNELS_NUM > 2u */
 111:Generated_Source\PSoC4/ADC.c ****             #if(ADC_TOTAL_CHANNELS_NUM > 3u)
 112:Generated_Source\PSoC4/ADC.c ****                 ,(uint8)(ADC_cy_psoc4_sarmux_8__CH_3_PORT << 4u) |
 113:Generated_Source\PSoC4/ADC.c ****                  (uint8)ADC_cy_psoc4_sarmux_8__CH_3_PIN
 114:Generated_Source\PSoC4/ADC.c ****             #endif /* End ADC_TOTAL_CHANNELS_NUM > 3u */
 115:Generated_Source\PSoC4/ADC.c ****             #if(ADC_TOTAL_CHANNELS_NUM > 4u)
 116:Generated_Source\PSoC4/ADC.c ****                 ,(uint8)(ADC_cy_psoc4_sarmux_8__CH_4_PORT << 4u) |
 117:Generated_Source\PSoC4/ADC.c ****                  (uint8)ADC_cy_psoc4_sarmux_8__CH_4_PIN
 118:Generated_Source\PSoC4/ADC.c ****             #endif /* End ADC_TOTAL_CHANNELS_NUM > 4u */
 119:Generated_Source\PSoC4/ADC.c ****             #if(ADC_TOTAL_CHANNELS_NUM > 5u)
 120:Generated_Source\PSoC4/ADC.c ****                 ,(uint8)(ADC_cy_psoc4_sarmux_8__CH_5_PORT << 4u) |
 121:Generated_Source\PSoC4/ADC.c ****                  (uint8)ADC_cy_psoc4_sarmux_8__CH_5_PIN
 122:Generated_Source\PSoC4/ADC.c ****             #endif /* End ADC_TOTAL_CHANNELS_NUM > 5u */
 123:Generated_Source\PSoC4/ADC.c ****             #if(ADC_TOTAL_CHANNELS_NUM > 6u)
 124:Generated_Source\PSoC4/ADC.c ****                 ,(uint8)(ADC_cy_psoc4_sarmux_8__CH_6_PORT << 4u) |
 125:Generated_Source\PSoC4/ADC.c ****                  (uint8)ADC_cy_psoc4_sarmux_8__CH_6_PIN
 126:Generated_Source\PSoC4/ADC.c ****             #endif /* End ADC_TOTAL_CHANNELS_NUM > 6u */
ARM GAS  C:\Users\Rajesh\AppData\Local\Temp\ccDogWTk.s 			page 4


 127:Generated_Source\PSoC4/ADC.c ****             #if(ADC_TOTAL_CHANNELS_NUM > 7u)
 128:Generated_Source\PSoC4/ADC.c ****                 ,(uint8)(ADC_cy_psoc4_sarmux_8__CH_7_PORT << 4u) |
 129:Generated_Source\PSoC4/ADC.c ****                  (uint8)ADC_cy_psoc4_sarmux_8__CH_7_PIN
 130:Generated_Source\PSoC4/ADC.c ****             #endif /* End ADC_TOTAL_CHANNELS_NUM > 7u */
 131:Generated_Source\PSoC4/ADC.c ****             #if(ADC_TOTAL_CHANNELS_NUM > 8u)
 132:Generated_Source\PSoC4/ADC.c ****                 ,(uint8)(ADC_cy_psoc4_sarmux_8__CH_8_PORT << 4u) |
 133:Generated_Source\PSoC4/ADC.c ****                  (uint8)ADC_cy_psoc4_sarmux_8__CH_8_PIN
 134:Generated_Source\PSoC4/ADC.c ****             #endif /* End ADC_TOTAL_CHANNELS_NUM > 8u */
 135:Generated_Source\PSoC4/ADC.c ****             #if(ADC_TOTAL_CHANNELS_NUM > 9u)
 136:Generated_Source\PSoC4/ADC.c ****                 ,(uint8)(ADC_cy_psoc4_sarmux_8__CH_9_PORT << 4u) |
 137:Generated_Source\PSoC4/ADC.c ****                  (uint8)ADC_cy_psoc4_sarmux_8__CH_9_PIN
 138:Generated_Source\PSoC4/ADC.c ****             #endif /* End ADC_TOTAL_CHANNELS_NUM > 9u */
 139:Generated_Source\PSoC4/ADC.c ****             #if(ADC_TOTAL_CHANNELS_NUM > 10u)
 140:Generated_Source\PSoC4/ADC.c ****                 ,(uint8)(ADC_cy_psoc4_sarmux_8__CH_10_PORT << 4u) |
 141:Generated_Source\PSoC4/ADC.c ****                  (uint8)ADC_cy_psoc4_sarmux_8__CH_10_PIN
 142:Generated_Source\PSoC4/ADC.c ****             #endif /* End ADC_TOTAL_CHANNELS_NUM > 10u */
 143:Generated_Source\PSoC4/ADC.c ****             #if(ADC_TOTAL_CHANNELS_NUM > 11u)
 144:Generated_Source\PSoC4/ADC.c ****                 ,(uint8)(ADC_cy_psoc4_sarmux_8__CH_11_PORT << 4u) |
 145:Generated_Source\PSoC4/ADC.c ****                  (uint8)ADC_cy_psoc4_sarmux_8__CH_11_PIN
 146:Generated_Source\PSoC4/ADC.c ****             #endif /* End ADC_TOTAL_CHANNELS_NUM > 11u */
 147:Generated_Source\PSoC4/ADC.c ****             #if(ADC_TOTAL_CHANNELS_NUM > 12u)
 148:Generated_Source\PSoC4/ADC.c ****                 ,(uint8)(ADC_cy_psoc4_sarmux_8__CH_12_PORT << 4u) |
 149:Generated_Source\PSoC4/ADC.c ****                  (uint8)ADC_cy_psoc4_sarmux_8__CH_12_PIN
 150:Generated_Source\PSoC4/ADC.c ****             #endif /* End ADC_TOTAL_CHANNELS_NUM > 12u */
 151:Generated_Source\PSoC4/ADC.c ****             #if(ADC_TOTAL_CHANNELS_NUM > 13u)
 152:Generated_Source\PSoC4/ADC.c ****                 ,(uint8)(ADC_cy_psoc4_sarmux_8__CH_13_PORT << 4u) |
 153:Generated_Source\PSoC4/ADC.c ****                  (uint8)ADC_cy_psoc4_sarmux_8__CH_13_PIN
 154:Generated_Source\PSoC4/ADC.c ****             #endif /* End ADC_TOTAL_CHANNELS_NUM > 13u */
 155:Generated_Source\PSoC4/ADC.c ****             #if(ADC_TOTAL_CHANNELS_NUM > 14u)
 156:Generated_Source\PSoC4/ADC.c ****                 ,(uint8)(ADC_cy_psoc4_sarmux_8__CH_14_PORT << 4u) |
 157:Generated_Source\PSoC4/ADC.c ****                  (uint8)ADC_cy_psoc4_sarmux_8__CH_14_PIN
 158:Generated_Source\PSoC4/ADC.c ****             #endif /* End ADC_TOTAL_CHANNELS_NUM > 14u */
 159:Generated_Source\PSoC4/ADC.c ****             #if(ADC_TOTAL_CHANNELS_NUM > 15u)
 160:Generated_Source\PSoC4/ADC.c ****                 ,(uint8)(ADC_cy_psoc4_sarmux_8__CH_15_PORT << 4u) |
 161:Generated_Source\PSoC4/ADC.c ****                  (uint8)ADC_cy_psoc4_sarmux_8__CH_15_PIN
 162:Generated_Source\PSoC4/ADC.c ****             #endif /* End ADC_TOTAL_CHANNELS_NUM > 15u */
 163:Generated_Source\PSoC4/ADC.c ****             #if(ADC_TOTAL_CHANNELS_NUM > 16u)
 164:Generated_Source\PSoC4/ADC.c ****                 ,(uint8)(ADC_cy_psoc4_sarmux_8__CH_16_PORT << 4u) |
 165:Generated_Source\PSoC4/ADC.c ****                  (uint8)ADC_cy_psoc4_sarmux_8__CH_16_PIN
 166:Generated_Source\PSoC4/ADC.c ****             #endif /* End ADC_TOTAL_CHANNELS_NUM > 16u */
 167:Generated_Source\PSoC4/ADC.c ****         };
 168:Generated_Source\PSoC4/ADC.c ****     #endif /* End ADC_TOTAL_CHANNELS_NUM > 1u */
 169:Generated_Source\PSoC4/ADC.c **** 
 170:Generated_Source\PSoC4/ADC.c ****     #if(ADC_IRQ_REMOVE == 0u)
 171:Generated_Source\PSoC4/ADC.c ****         /* Start and set interrupt vector */
 172:Generated_Source\PSoC4/ADC.c ****         CyIntSetPriority(ADC_INTC_NUMBER, ADC_INTC_PRIOR_NUMBER);
 173:Generated_Source\PSoC4/ADC.c ****         (void)CyIntSetVector(ADC_INTC_NUMBER, &ADC_ISR);
 174:Generated_Source\PSoC4/ADC.c ****     #endif   /* End ADC_IRQ_REMOVE */
 175:Generated_Source\PSoC4/ADC.c **** 
 176:Generated_Source\PSoC4/ADC.c ****     /* Init SAR and MUX registers */
 177:Generated_Source\PSoC4/ADC.c ****     ADC_SAR_CHAN_EN_REG = ADC_DEFAULT_EN_CHANNELS;
 178:Generated_Source\PSoC4/ADC.c ****     ADC_SAR_CTRL_REG |= ADC_DEFAULT_CTRL_REG_CFG | 
 179:Generated_Source\PSoC4/ADC.c ****         /* Enable the SAR internal pump when global pump is enabled */
 180:Generated_Source\PSoC4/ADC.c ****         (((ADC_PUMP_CTRL_REG & ADC_PUMP_CTRL_ENABLED) != 0u) ? 
 181:Generated_Source\PSoC4/ADC.c ****         ADC_BOOSTPUMP_EN : 0u);
 182:Generated_Source\PSoC4/ADC.c ****     ADC_SAR_SAMPLE_CTRL_REG = ADC_DEFAULT_SAMPLE_CTRL_REG_CFG;
 183:Generated_Source\PSoC4/ADC.c ****     ADC_SAR_RANGE_THRES_REG = ADC_DEFAULT_RANGE_THRES_REG_CFG;
ARM GAS  C:\Users\Rajesh\AppData\Local\Temp\ccDogWTk.s 			page 5


 184:Generated_Source\PSoC4/ADC.c ****     ADC_SAR_RANGE_COND_REG  = ADC_COMPARE_MODE;
 185:Generated_Source\PSoC4/ADC.c ****     ADC_SAR_SAMPLE_TIME01_REG = ADC_DEFAULT_SAMPLE_TIME01_REG_CFG;
 186:Generated_Source\PSoC4/ADC.c ****     ADC_SAR_SAMPLE_TIME23_REG = ADC_DEFAULT_SAMPLE_TIME23_REG_CFG;
 187:Generated_Source\PSoC4/ADC.c ****     
 188:Generated_Source\PSoC4/ADC.c ****     /* Connect Vm to VSSA when even one channel is single-ended or multiple channels configured */
 189:Generated_Source\PSoC4/ADC.c ****     #if(ADC_DEFAULT_MUX_SWITCH0 != 0u)
 190:Generated_Source\PSoC4/ADC.c ****         ADC_MUX_SWITCH0_REG |= ADC_DEFAULT_MUX_SWITCH0;
 191:Generated_Source\PSoC4/ADC.c ****         /* Set MUX_HW_CTRL_VSSA in MUX_SWITCH_HW_CTRL when multiple channels enabled */
 192:Generated_Source\PSoC4/ADC.c ****         #if(ADC_TOTAL_CHANNELS_NUM > 1u)
 193:Generated_Source\PSoC4/ADC.c ****             ADC_MUX_SWITCH_HW_CTRL_REG |= ADC_DEFAULT_MUX_SWITCH0;
 194:Generated_Source\PSoC4/ADC.c ****         #endif /* ADC_TOTAL_CHANNELS_NUM > 1u */
 195:Generated_Source\PSoC4/ADC.c ****     #endif /*ADC_CHANNELS_MODE !=0 */
 196:Generated_Source\PSoC4/ADC.c **** 
 197:Generated_Source\PSoC4/ADC.c ****     ADC_SAR_SATURATE_INTR_MASK_REG = 0u;
 198:Generated_Source\PSoC4/ADC.c ****     ADC_SAR_RANGE_INTR_MASK_REG = 0u;
 199:Generated_Source\PSoC4/ADC.c ****     ADC_SAR_INTR_MASK_REG = ADC_SAR_INTR_MASK;
 200:Generated_Source\PSoC4/ADC.c **** 
 201:Generated_Source\PSoC4/ADC.c ****     #if(ADC_CY_SAR_IP_VER == ADC_CY_SAR_IP_VER0)
 202:Generated_Source\PSoC4/ADC.c ****         ADC_ANA_TRIM_REG = ADC_TRIM_COEF;
 203:Generated_Source\PSoC4/ADC.c ****     #endif /* (ADC_CY_SAR_IP_VER == ADC_CY_SAR_IP_VER0) */
 204:Generated_Source\PSoC4/ADC.c **** 
 205:Generated_Source\PSoC4/ADC.c ****     /* Read and modify default configuration based on characterization */
 206:Generated_Source\PSoC4/ADC.c ****     tmpRegVal = ADC_SAR_DFT_CTRL_REG;
 207:Generated_Source\PSoC4/ADC.c ****     tmpRegVal &= (uint32)~ADC_DCEN;
 208:Generated_Source\PSoC4/ADC.c ****     
 209:Generated_Source\PSoC4/ADC.c ****     #if(ADC_CY_SAR_IP_VER == ADC_CY_SAR_IP_VER0)
 210:Generated_Source\PSoC4/ADC.c ****         #if(ADC_NOMINAL_CLOCK_FREQ > (ADC_MAX_FREQUENCY / 2))
 211:Generated_Source\PSoC4/ADC.c ****             tmpRegVal |= ADC_SEL_CSEL_DFT_CHAR;
 212:Generated_Source\PSoC4/ADC.c ****         #else  /* clock speed < 9 Mhz */
 213:Generated_Source\PSoC4/ADC.c ****             tmpRegVal |= ADC_DLY_INC;
 214:Generated_Source\PSoC4/ADC.c ****         #endif /* clock speed > 9 Mhz */
 215:Generated_Source\PSoC4/ADC.c ****     #else
 216:Generated_Source\PSoC4/ADC.c ****         #if ((ADC_DEFAULT_VREF_SEL == ADC__INTERNAL1024) || \
 217:Generated_Source\PSoC4/ADC.c ****              (ADC_DEFAULT_VREF_SEL == ADC__INTERNALVREF))
 218:Generated_Source\PSoC4/ADC.c ****             tmpRegVal |= ADC_DLY_INC;
 219:Generated_Source\PSoC4/ADC.c ****         #else
 220:Generated_Source\PSoC4/ADC.c ****             tmpRegVal |= ADC_DCEN;
 221:Generated_Source\PSoC4/ADC.c ****             tmpRegVal &= (uint32)~ADC_DLY_INC;
 222:Generated_Source\PSoC4/ADC.c ****         #endif /* ((ADC_DEFAULT_VREF_SEL == ADC__INTERNAL1024) || \
 223:Generated_Source\PSoC4/ADC.c ****                    (ADC_DEFAULT_VREF_SEL == ADC__INTERNALVREF)) */
 224:Generated_Source\PSoC4/ADC.c ****     #endif /* (ADC_CY_SAR_IP_VER == ADC_CY_SAR_IP_VER0) */
 225:Generated_Source\PSoC4/ADC.c ****     
 226:Generated_Source\PSoC4/ADC.c ****     ADC_SAR_DFT_CTRL_REG = tmpRegVal;
 227:Generated_Source\PSoC4/ADC.c **** 
 228:Generated_Source\PSoC4/ADC.c ****     #if(ADC_MAX_RESOLUTION != ADC_RESOLUTION_12)
 229:Generated_Source\PSoC4/ADC.c ****         ADC_WOUNDING_REG = ADC_ALT_WOUNDING;
 230:Generated_Source\PSoC4/ADC.c ****     #endif /* ADC_MAX_RESOLUTION != ADC_RESOLUTION_12 */
 231:Generated_Source\PSoC4/ADC.c **** 
 232:Generated_Source\PSoC4/ADC.c ****     for(chNum = 0u; chNum < ADC_TOTAL_CHANNELS_NUM; chNum++)
 233:Generated_Source\PSoC4/ADC.c ****     {
 234:Generated_Source\PSoC4/ADC.c ****         tmpRegVal = (ADC_channelsConfig[chNum] & ADC_CHANNEL_CONFIG_MASK);
 235:Generated_Source\PSoC4/ADC.c ****         #if(ADC_TOTAL_CHANNELS_NUM > 1u)
 236:Generated_Source\PSoC4/ADC.c ****             tmpRegVal |= ADC_InputsPlacement[chNum];
 237:Generated_Source\PSoC4/ADC.c ****         #endif /* End ADC_TOTAL_CHANNELS_NUM > 1u */
 238:Generated_Source\PSoC4/ADC.c ****         
 239:Generated_Source\PSoC4/ADC.c ****         
 240:Generated_Source\PSoC4/ADC.c ****         /* When the part is limited to 10-bit then the SUB_RESOLUTION bit
ARM GAS  C:\Users\Rajesh\AppData\Local\Temp\ccDogWTk.s 			page 6


 241:Generated_Source\PSoC4/ADC.c ****         *  will be ignored and the RESOLUTION bit selects between 10-bit
 242:Generated_Source\PSoC4/ADC.c ****         *  (0) and 8-bit (1) resolution.
 243:Generated_Source\PSoC4/ADC.c ****         */
 244:Generated_Source\PSoC4/ADC.c ****         #if((ADC_MAX_RESOLUTION != ADC_RESOLUTION_12) && \
 245:Generated_Source\PSoC4/ADC.c ****             (ADC_ALT_WOUNDING == ADC_WOUNDING_10BIT))
 246:Generated_Source\PSoC4/ADC.c ****             tmpRegVal &= (uint32)(~ADC_ALT_RESOLUTION_ON);
 247:Generated_Source\PSoC4/ADC.c ****         #endif /* ADC_MAX_RESOLUTION != ADC_RESOLUTION_12 */
 248:Generated_Source\PSoC4/ADC.c **** 
 249:Generated_Source\PSoC4/ADC.c ****         #if(ADC_INJ_CHANNEL_ENABLED)
 250:Generated_Source\PSoC4/ADC.c ****         if(chNum < ADC_SEQUENCED_CHANNELS_NUM)
 251:Generated_Source\PSoC4/ADC.c ****         #endif /* ADC_INJ_CHANNEL_ENABLED */
 252:Generated_Source\PSoC4/ADC.c ****         {
 253:Generated_Source\PSoC4/ADC.c ****             CY_SET_REG32((reg32 *)(ADC_SAR_CHAN_CONFIG_IND + (uint32)(chNum << 2)), tmpRegVal);
 254:Generated_Source\PSoC4/ADC.c **** 
 255:Generated_Source\PSoC4/ADC.c ****             if((ADC_channelsConfig[chNum] & ADC_IS_SATURATE_EN_MASK) != 0u)
 256:Generated_Source\PSoC4/ADC.c ****             {
 257:Generated_Source\PSoC4/ADC.c ****                 ADC_SAR_SATURATE_INTR_MASK_REG |= (uint16)((uint16)1 << chNum);
 258:Generated_Source\PSoC4/ADC.c ****             }
 259:Generated_Source\PSoC4/ADC.c **** 
 260:Generated_Source\PSoC4/ADC.c ****             if((ADC_channelsConfig[chNum] & ADC_IS_RANGE_CTRL_EN_MASK) != 0u)
 261:Generated_Source\PSoC4/ADC.c ****             {
 262:Generated_Source\PSoC4/ADC.c ****                 ADC_SAR_RANGE_INTR_MASK_REG |= (uint16)((uint16)1 << chNum);
 263:Generated_Source\PSoC4/ADC.c ****             }
 264:Generated_Source\PSoC4/ADC.c ****         }
 265:Generated_Source\PSoC4/ADC.c ****         #if(ADC_INJ_CHANNEL_ENABLED)
 266:Generated_Source\PSoC4/ADC.c ****             else
 267:Generated_Source\PSoC4/ADC.c ****             {
 268:Generated_Source\PSoC4/ADC.c ****                 CY_SET_REG32(ADC_SAR_INJ_CHAN_CONFIG_PTR, tmpRegVal | ADC_INJ_TAILGATING);
 269:Generated_Source\PSoC4/ADC.c **** 
 270:Generated_Source\PSoC4/ADC.c ****                 if((ADC_channelsConfig[chNum] & ADC_IS_SATURATE_EN_MASK) != 0u)
 271:Generated_Source\PSoC4/ADC.c ****                 {
 272:Generated_Source\PSoC4/ADC.c ****                     ADC_SAR_INTR_MASK_REG |= ADC_INJ_SATURATE_MASK;
 273:Generated_Source\PSoC4/ADC.c ****                 }
 274:Generated_Source\PSoC4/ADC.c **** 
 275:Generated_Source\PSoC4/ADC.c ****                 if((ADC_channelsConfig[chNum] & ADC_IS_RANGE_CTRL_EN_MASK) != 0u)
 276:Generated_Source\PSoC4/ADC.c ****                 {
 277:Generated_Source\PSoC4/ADC.c ****                     ADC_SAR_INTR_MASK_REG |= ADC_INJ_RANGE_MASK;
 278:Generated_Source\PSoC4/ADC.c ****                 }
 279:Generated_Source\PSoC4/ADC.c ****             }
 280:Generated_Source\PSoC4/ADC.c ****         #endif /* ADC_INJ_CHANNEL_ENABLED */
 281:Generated_Source\PSoC4/ADC.c **** 
 282:Generated_Source\PSoC4/ADC.c ****         if((ADC_channelsConfig[chNum] & ADC_ALT_RESOLUTION_ON) != 0u)
 283:Generated_Source\PSoC4/ADC.c ****         {
 284:Generated_Source\PSoC4/ADC.c ****                counts = (int32)ADC_DEFAULT_MAX_WRK_ALT;
 285:Generated_Source\PSoC4/ADC.c ****         }
 286:Generated_Source\PSoC4/ADC.c ****         else
 287:Generated_Source\PSoC4/ADC.c ****         {
 288:Generated_Source\PSoC4/ADC.c ****                counts = (int32)ADC_SAR_WRK_MAX_12BIT;
 289:Generated_Source\PSoC4/ADC.c ****         }
 290:Generated_Source\PSoC4/ADC.c **** 
 291:Generated_Source\PSoC4/ADC.c ****         if((ADC_channelsConfig[chNum] & ADC_DIFFERENTIAL_EN) == 0u)
 292:Generated_Source\PSoC4/ADC.c ****         {
 293:Generated_Source\PSoC4/ADC.c ****             #if((ADC_DEFAULT_SE_RESULT_FORMAT_SEL == ADC__FSIGNED) && \
 294:Generated_Source\PSoC4/ADC.c ****                 (ADC_DEFAULT_NEG_INPUT_SEL == ADC__VREF))
 295:Generated_Source\PSoC4/ADC.c ****                 /* Set offset to the minus half scale to convert results to unsigned format */
 296:Generated_Source\PSoC4/ADC.c ****                 ADC_offset[chNum] = (int16)(counts / -2);
 297:Generated_Source\PSoC4/ADC.c ****             #else
ARM GAS  C:\Users\Rajesh\AppData\Local\Temp\ccDogWTk.s 			page 7


 298:Generated_Source\PSoC4/ADC.c ****                 ADC_offset[chNum] = 0;
 299:Generated_Source\PSoC4/ADC.c ****             #endif /* end DEFAULT_SE_RESULT_FORMAT_SEL == ADC__FSIGNED */
 300:Generated_Source\PSoC4/ADC.c ****         }
 301:Generated_Source\PSoC4/ADC.c ****         else    /* Differential channel */
 302:Generated_Source\PSoC4/ADC.c ****         {
 303:Generated_Source\PSoC4/ADC.c ****             #if(ADC_DEFAULT_DIFF_RESULT_FORMAT_SEL == ADC__FUNSIGNED)
 304:Generated_Source\PSoC4/ADC.c ****                 /* Set offset to the half scale to convert results to signed format */
 305:Generated_Source\PSoC4/ADC.c ****                 ADC_offset[chNum] = (int16)(counts / 2);
 306:Generated_Source\PSoC4/ADC.c ****             #else
 307:Generated_Source\PSoC4/ADC.c ****                 ADC_offset[chNum] = 0;
 308:Generated_Source\PSoC4/ADC.c ****             #endif /* end ADC_DEFAULT_DIFF_RESULT_FORMAT_SEL == ADC__FUNSIGNED */
 309:Generated_Source\PSoC4/ADC.c ****         }
 310:Generated_Source\PSoC4/ADC.c ****         /* Calculate gain in counts per 10 volts with rounding */
 311:Generated_Source\PSoC4/ADC.c ****         ADC_countsPer10Volt[chNum] = (int16)(((counts * ADC_10MV_COUNTS) +
 312:Generated_Source\PSoC4/ADC.c ****                             ADC_DEFAULT_VREF_MV_VALUE) / (ADC_DEFAULT_VREF_MV_VALUE * 2));
 313:Generated_Source\PSoC4/ADC.c ****     }
 314:Generated_Source\PSoC4/ADC.c **** }
 315:Generated_Source\PSoC4/ADC.c **** 
 316:Generated_Source\PSoC4/ADC.c **** /*******************************************************************************
 317:Generated_Source\PSoC4/ADC.c **** * Function Name: ADC_SAR_1_Enable
 318:Generated_Source\PSoC4/ADC.c **** ********************************************************************************
 319:Generated_Source\PSoC4/ADC.c **** *
 320:Generated_Source\PSoC4/ADC.c **** * Summary:
 321:Generated_Source\PSoC4/ADC.c **** *  Enables the clock and analog power for SAR ADC.
 322:Generated_Source\PSoC4/ADC.c **** *
 323:Generated_Source\PSoC4/ADC.c **** * Parameters:
 324:Generated_Source\PSoC4/ADC.c **** *  None.
 325:Generated_Source\PSoC4/ADC.c **** *
 326:Generated_Source\PSoC4/ADC.c **** * Return:
 327:Generated_Source\PSoC4/ADC.c **** *  None.
 328:Generated_Source\PSoC4/ADC.c **** *
 329:Generated_Source\PSoC4/ADC.c **** *******************************************************************************/
 330:Generated_Source\PSoC4/ADC.c **** void ADC_Enable(void)
 331:Generated_Source\PSoC4/ADC.c **** {
 332:Generated_Source\PSoC4/ADC.c ****     if (0u == (ADC_SAR_CTRL_REG & ADC_ENABLE))
  46              		.loc 1 332 0
  47 000a 2B4B     		ldr	r3, .L11+4
  48 000c 1B68     		ldr	r3, [r3]
  49 000e 002B     		cmp	r3, #0
  50 0010 0CDB     		blt	.L1
  51              	.LBB12:
  52              	.LBB13:
 333:Generated_Source\PSoC4/ADC.c ****     {
 334:Generated_Source\PSoC4/ADC.c ****         #if(ADC_CY_SAR_IP_VER != ADC_CY_SAR_IP_VER0)
 335:Generated_Source\PSoC4/ADC.c **** 
 336:Generated_Source\PSoC4/ADC.c ****             while (0u != (ADC_SAR_STATUS_REG & ADC_STATUS_BUSY))
  53              		.loc 1 336 0
  54 0012 2A4A     		ldr	r2, .L11+8
  55              	.L7:
  56 0014 1368     		ldr	r3, [r2]
  57 0016 002B     		cmp	r3, #0
  58 0018 FCDB     		blt	.L7
 337:Generated_Source\PSoC4/ADC.c ****             {
 338:Generated_Source\PSoC4/ADC.c ****                 /* wait for SAR to go idle to avoid deadlock */
 339:Generated_Source\PSoC4/ADC.c ****             }
 340:Generated_Source\PSoC4/ADC.c ****         #endif /* (ADC_CY_SAR_IP_VER != ADC_CY_SAR_IP_VER0) */
 341:Generated_Source\PSoC4/ADC.c ****         
ARM GAS  C:\Users\Rajesh\AppData\Local\Temp\ccDogWTk.s 			page 8


 342:Generated_Source\PSoC4/ADC.c ****         ADC_SAR_CTRL_REG |= ADC_ENABLE;
  59              		.loc 1 342 0
  60 001a 8021     		movs	r1, #128
  61 001c 264A     		ldr	r2, .L11+4
  62 001e 0906     		lsls	r1, r1, #24
  63 0020 1368     		ldr	r3, [r2]
 343:Generated_Source\PSoC4/ADC.c ****         
 344:Generated_Source\PSoC4/ADC.c ****         /* The block is ready to use 10 us after the enable signal is set high. */
 345:Generated_Source\PSoC4/ADC.c ****         CyDelayUs(ADC_10US_DELAY);         
  64              		.loc 1 345 0
  65 0022 0A20     		movs	r0, #10
 342:Generated_Source\PSoC4/ADC.c ****         
  66              		.loc 1 342 0
  67 0024 0B43     		orrs	r3, r1
  68 0026 1360     		str	r3, [r2]
  69              		.loc 1 345 0
  70 0028 FFF7FEFF 		bl	CyDelayUs
  71              	.LVL0:
  72              	.L1:
  73              	.LBE13:
  74              	.LBE12:
  75              	.LBE11:
  76              	.LBE10:
  72:Generated_Source\PSoC4/ADC.c **** 
  77              		.loc 1 72 0
  78              		@ sp needed
  79 002c 70BD     		pop	{r4, r5, r6, pc}
  80              	.L10:
  81              	.LBB14:
  82              	.LBB15:
 172:Generated_Source\PSoC4/ADC.c ****         (void)CyIntSetVector(ADC_INTC_NUMBER, &ADC_ISR);
  83              		.loc 1 172 0
  84 002e 0221     		movs	r1, #2
  85 0030 1020     		movs	r0, #16
  86 0032 FFF7FEFF 		bl	CyIntSetPriority
  87              	.LVL1:
 173:Generated_Source\PSoC4/ADC.c ****     #endif   /* End ADC_IRQ_REMOVE */
  88              		.loc 1 173 0
  89 0036 2249     		ldr	r1, .L11+12
  90 0038 1020     		movs	r0, #16
  91 003a FFF7FEFF 		bl	CyIntSetVector
  92              	.LVL2:
 177:Generated_Source\PSoC4/ADC.c ****     ADC_SAR_CTRL_REG |= ADC_DEFAULT_CTRL_REG_CFG | 
  93              		.loc 1 177 0
  94 003e 0122     		movs	r2, #1
  95 0040 204B     		ldr	r3, .L11+16
  96 0042 1A60     		str	r2, [r3]
 180:Generated_Source\PSoC4/ADC.c ****         ADC_BOOSTPUMP_EN : 0u);
  97              		.loc 1 180 0
  98 0044 204B     		ldr	r3, .L11+20
  99 0046 1B68     		ldr	r3, [r3]
 178:Generated_Source\PSoC4/ADC.c ****         /* Enable the SAR internal pump when global pump is enabled */
 100              		.loc 1 178 0
 101 0048 002B     		cmp	r3, #0
 102 004a 30DB     		blt	.L6
 103 004c 1F4B     		ldr	r3, .L11+24
 104              	.L3:
ARM GAS  C:\Users\Rajesh\AppData\Local\Temp\ccDogWTk.s 			page 9


 105 004e 1A4A     		ldr	r2, .L11+4
 190:Generated_Source\PSoC4/ADC.c ****         /* Set MUX_HW_CTRL_VSSA in MUX_SWITCH_HW_CTRL when multiple channels enabled */
 106              		.loc 1 190 0
 107 0050 8020     		movs	r0, #128
 178:Generated_Source\PSoC4/ADC.c ****         /* Enable the SAR internal pump when global pump is enabled */
 108              		.loc 1 178 0
 109 0052 1168     		ldr	r1, [r2]
 190:Generated_Source\PSoC4/ADC.c ****         /* Set MUX_HW_CTRL_VSSA in MUX_SWITCH_HW_CTRL when multiple channels enabled */
 110              		.loc 1 190 0
 111 0054 4002     		lsls	r0, r0, #9
 178:Generated_Source\PSoC4/ADC.c ****         /* Enable the SAR internal pump when global pump is enabled */
 112              		.loc 1 178 0
 113 0056 0B43     		orrs	r3, r1
 114 0058 1360     		str	r3, [r2]
 182:Generated_Source\PSoC4/ADC.c ****     ADC_SAR_RANGE_THRES_REG = ADC_DEFAULT_RANGE_THRES_REG_CFG;
 115              		.loc 1 182 0
 116 005a 1D4A     		ldr	r2, .L11+28
 117 005c 1D4B     		ldr	r3, .L11+32
 185:Generated_Source\PSoC4/ADC.c ****     ADC_SAR_SAMPLE_TIME23_REG = ADC_DEFAULT_SAMPLE_TIME23_REG_CFG;
 118              		.loc 1 185 0
 119 005e 1E49     		ldr	r1, .L11+36
 182:Generated_Source\PSoC4/ADC.c ****     ADC_SAR_RANGE_THRES_REG = ADC_DEFAULT_RANGE_THRES_REG_CFG;
 120              		.loc 1 182 0
 121 0060 1A60     		str	r2, [r3]
 183:Generated_Source\PSoC4/ADC.c ****     ADC_SAR_RANGE_COND_REG  = ADC_COMPARE_MODE;
 122              		.loc 1 183 0
 123 0062 1E4A     		ldr	r2, .L11+40
 124 0064 1E4B     		ldr	r3, .L11+44
 125 0066 1A60     		str	r2, [r3]
 184:Generated_Source\PSoC4/ADC.c ****     ADC_SAR_SAMPLE_TIME01_REG = ADC_DEFAULT_SAMPLE_TIME01_REG_CFG;
 126              		.loc 1 184 0
 127 0068 0023     		movs	r3, #0
 128 006a 1E4A     		ldr	r2, .L11+48
 129 006c 1360     		str	r3, [r2]
 185:Generated_Source\PSoC4/ADC.c ****     ADC_SAR_SAMPLE_TIME23_REG = ADC_DEFAULT_SAMPLE_TIME23_REG_CFG;
 130              		.loc 1 185 0
 131 006e 1E4A     		ldr	r2, .L11+52
 132 0070 0A60     		str	r2, [r1]
 186:Generated_Source\PSoC4/ADC.c ****     
 133              		.loc 1 186 0
 134 0072 1E49     		ldr	r1, .L11+56
 135 0074 0A60     		str	r2, [r1]
 190:Generated_Source\PSoC4/ADC.c ****         /* Set MUX_HW_CTRL_VSSA in MUX_SWITCH_HW_CTRL when multiple channels enabled */
 136              		.loc 1 190 0
 137 0076 1E49     		ldr	r1, .L11+60
 138 0078 0A68     		ldr	r2, [r1]
 139 007a 0243     		orrs	r2, r0
 140 007c 0A60     		str	r2, [r1]
 199:Generated_Source\PSoC4/ADC.c **** 
 141              		.loc 1 199 0
 142 007e 0121     		movs	r1, #1
 197:Generated_Source\PSoC4/ADC.c ****     ADC_SAR_RANGE_INTR_MASK_REG = 0u;
 143              		.loc 1 197 0
 144 0080 1C4A     		ldr	r2, .L11+64
 206:Generated_Source\PSoC4/ADC.c ****     tmpRegVal &= (uint32)~ADC_DCEN;
 145              		.loc 1 206 0
 146 0082 1D48     		ldr	r0, .L11+68
ARM GAS  C:\Users\Rajesh\AppData\Local\Temp\ccDogWTk.s 			page 10


 197:Generated_Source\PSoC4/ADC.c ****     ADC_SAR_RANGE_INTR_MASK_REG = 0u;
 147              		.loc 1 197 0
 148 0084 1360     		str	r3, [r2]
 198:Generated_Source\PSoC4/ADC.c ****     ADC_SAR_INTR_MASK_REG = ADC_SAR_INTR_MASK;
 149              		.loc 1 198 0
 150 0086 1D4A     		ldr	r2, .L11+72
 151 0088 1360     		str	r3, [r2]
 199:Generated_Source\PSoC4/ADC.c **** 
 152              		.loc 1 199 0
 153 008a 1D4A     		ldr	r2, .L11+76
 154 008c 1160     		str	r1, [r2]
 206:Generated_Source\PSoC4/ADC.c ****     tmpRegVal &= (uint32)~ADC_DCEN;
 155              		.loc 1 206 0
 156 008e 0568     		ldr	r5, [r0]
 157              	.LVL3:
 158 0090 1C4A     		ldr	r2, .L11+80
 159 0092 2A40     		ands	r2, r5
 221:Generated_Source\PSoC4/ADC.c ****         #endif /* ((ADC_DEFAULT_VREF_SEL == ADC__INTERNAL1024) || \
 160              		.loc 1 221 0
 161 0094 8025     		movs	r5, #128
 162              	.LVL4:
 163 0096 AD05     		lsls	r5, r5, #22
 164 0098 2A43     		orrs	r2, r5
 165              	.LVL5:
 226:Generated_Source\PSoC4/ADC.c **** 
 166              		.loc 1 226 0
 167 009a 0260     		str	r2, [r0]
 168              	.LVL6:
 253:Generated_Source\PSoC4/ADC.c **** 
 169              		.loc 1 253 0
 170 009c 1A4A     		ldr	r2, .L11+84
 171 009e 1360     		str	r3, [r2]
 172              	.LVL7:
 298:Generated_Source\PSoC4/ADC.c ****             #endif /* end DEFAULT_SE_RESULT_FORMAT_SEL == ADC__FSIGNED */
 173              		.loc 1 298 0
 174 00a0 1A4A     		ldr	r2, .L11+88
 175              	.LBE15:
 176              	.LBE14:
  69:Generated_Source\PSoC4/ADC.c ****     }
 177              		.loc 1 69 0
 178 00a2 2170     		strb	r1, [r4]
 179              	.LBB17:
 180              	.LBB16:
 298:Generated_Source\PSoC4/ADC.c ****             #endif /* end DEFAULT_SE_RESULT_FORMAT_SEL == ADC__FSIGNED */
 181              		.loc 1 298 0
 182 00a4 1380     		strh	r3, [r2]
 311:Generated_Source\PSoC4/ADC.c ****                             ADC_DEFAULT_VREF_MV_VALUE) / (ADC_DEFAULT_VREF_MV_VALUE * 2));
 183              		.loc 1 311 0
 184 00a6 1A4A     		ldr	r2, .L11+92
 185 00a8 1A4B     		ldr	r3, .L11+96
 186 00aa 1A60     		str	r2, [r3]
 187              	.LVL8:
 188 00ac ADE7     		b	.L2
 189              	.LVL9:
 190              	.L6:
 178:Generated_Source\PSoC4/ADC.c ****         /* Enable the SAR internal pump when global pump is enabled */
 191              		.loc 1 178 0
ARM GAS  C:\Users\Rajesh\AppData\Local\Temp\ccDogWTk.s 			page 11


 192 00ae 1A4B     		ldr	r3, .L11+100
 193 00b0 CDE7     		b	.L3
 194              	.L12:
 195 00b2 C046     		.align	2
 196              	.L11:
 197 00b4 00000000 		.word	.LANCHOR0
 198 00b8 00003A40 		.word	1077542912
 199 00bc 08023A40 		.word	1077543432
 200 00c0 00000000 		.word	ADC_ISR
 201 00c4 20003A40 		.word	1077542944
 202 00c8 80033A40 		.word	1077543808
 203 00cc 70020053 		.word	1392509552
 204 00d0 CC000080 		.word	-2147483444
 205 00d4 04003A40 		.word	1077542916
 206 00d8 10003A40 		.word	1077542928
 207 00dc 0000FF07 		.word	134152192
 208 00e0 18003A40 		.word	1077542936
 209 00e4 1C003A40 		.word	1077542940
 210 00e8 02000200 		.word	131074
 211 00ec 14003A40 		.word	1077542932
 212 00f0 00033A40 		.word	1077543680
 213 00f4 28023A40 		.word	1077543464
 214 00f8 30003A40 		.word	1077542960
 215 00fc 38023A40 		.word	1077543480
 216 0100 18023A40 		.word	1077543448
 217 0104 FEFFFFDF 		.word	-536870914
 218 0108 80003A40 		.word	1077543040
 219 010c 00000000 		.word	ADC_offset
 220 0110 3E180000 		.word	6206
 221 0114 00000000 		.word	ADC_countsPer10Volt
 222 0118 70021053 		.word	1393558128
 223              	.LBE16:
 224              	.LBE17:
 225              		.cfi_endproc
 226              	.LFE1:
 227              		.size	ADC_Start, .-ADC_Start
 228              		.section	.text.ADC_Init,"ax",%progbits
 229              		.align	2
 230              		.global	ADC_Init
 231              		.code	16
 232              		.thumb_func
 233              		.type	ADC_Init, %function
 234              	ADC_Init:
 235              	.LFB2:
  95:Generated_Source\PSoC4/ADC.c ****     uint32 chNum;
 236              		.loc 1 95 0
 237              		.cfi_startproc
 238              		@ args = 0, pretend = 0, frame = 0
 239              		@ frame_needed = 0, uses_anonymous_args = 0
 240 0000 10B5     		push	{r4, lr}
 241              		.cfi_def_cfa_offset 8
 242              		.cfi_offset 4, -8
 243              		.cfi_offset 14, -4
 172:Generated_Source\PSoC4/ADC.c ****         (void)CyIntSetVector(ADC_INTC_NUMBER, &ADC_ISR);
 244              		.loc 1 172 0
 245 0002 0221     		movs	r1, #2
 246 0004 1020     		movs	r0, #16
ARM GAS  C:\Users\Rajesh\AppData\Local\Temp\ccDogWTk.s 			page 12


 247 0006 FFF7FEFF 		bl	CyIntSetPriority
 248              	.LVL10:
 173:Generated_Source\PSoC4/ADC.c ****     #endif   /* End ADC_IRQ_REMOVE */
 249              		.loc 1 173 0
 250 000a 1E49     		ldr	r1, .L16
 251 000c 1020     		movs	r0, #16
 252 000e FFF7FEFF 		bl	CyIntSetVector
 253              	.LVL11:
 177:Generated_Source\PSoC4/ADC.c ****     ADC_SAR_CTRL_REG |= ADC_DEFAULT_CTRL_REG_CFG | 
 254              		.loc 1 177 0
 255 0012 0122     		movs	r2, #1
 256 0014 1C4B     		ldr	r3, .L16+4
 257 0016 1A60     		str	r2, [r3]
 180:Generated_Source\PSoC4/ADC.c ****         ADC_BOOSTPUMP_EN : 0u);
 258              		.loc 1 180 0
 259 0018 1C4B     		ldr	r3, .L16+8
 260 001a 1B68     		ldr	r3, [r3]
 178:Generated_Source\PSoC4/ADC.c ****         /* Enable the SAR internal pump when global pump is enabled */
 261              		.loc 1 178 0
 262 001c 002B     		cmp	r3, #0
 263 001e 2FDB     		blt	.L15
 264 0020 1B49     		ldr	r1, .L16+12
 265              	.L14:
 178:Generated_Source\PSoC4/ADC.c ****         /* Enable the SAR internal pump when global pump is enabled */
 266              		.loc 1 178 0 is_stmt 0 discriminator 4
 267 0022 1C4A     		ldr	r2, .L16+16
 190:Generated_Source\PSoC4/ADC.c ****         /* Set MUX_HW_CTRL_VSSA in MUX_SWITCH_HW_CTRL when multiple channels enabled */
 268              		.loc 1 190 0 is_stmt 1 discriminator 4
 269 0024 8020     		movs	r0, #128
 178:Generated_Source\PSoC4/ADC.c ****         /* Enable the SAR internal pump when global pump is enabled */
 270              		.loc 1 178 0 discriminator 4
 271 0026 1368     		ldr	r3, [r2]
 190:Generated_Source\PSoC4/ADC.c ****         /* Set MUX_HW_CTRL_VSSA in MUX_SWITCH_HW_CTRL when multiple channels enabled */
 272              		.loc 1 190 0 discriminator 4
 273 0028 4002     		lsls	r0, r0, #9
 178:Generated_Source\PSoC4/ADC.c ****         /* Enable the SAR internal pump when global pump is enabled */
 274              		.loc 1 178 0 discriminator 4
 275 002a 0B43     		orrs	r3, r1
 276 002c 1360     		str	r3, [r2]
 182:Generated_Source\PSoC4/ADC.c ****     ADC_SAR_RANGE_THRES_REG = ADC_DEFAULT_RANGE_THRES_REG_CFG;
 277              		.loc 1 182 0 discriminator 4
 278 002e 1A4A     		ldr	r2, .L16+20
 279 0030 1A4B     		ldr	r3, .L16+24
 185:Generated_Source\PSoC4/ADC.c ****     ADC_SAR_SAMPLE_TIME23_REG = ADC_DEFAULT_SAMPLE_TIME23_REG_CFG;
 280              		.loc 1 185 0 discriminator 4
 281 0032 1B49     		ldr	r1, .L16+28
 182:Generated_Source\PSoC4/ADC.c ****     ADC_SAR_RANGE_THRES_REG = ADC_DEFAULT_RANGE_THRES_REG_CFG;
 282              		.loc 1 182 0 discriminator 4
 283 0034 1A60     		str	r2, [r3]
 183:Generated_Source\PSoC4/ADC.c ****     ADC_SAR_RANGE_COND_REG  = ADC_COMPARE_MODE;
 284              		.loc 1 183 0 discriminator 4
 285 0036 1B4A     		ldr	r2, .L16+32
 286 0038 1B4B     		ldr	r3, .L16+36
 314:Generated_Source\PSoC4/ADC.c **** 
 287              		.loc 1 314 0 discriminator 4
 288              		@ sp needed
 183:Generated_Source\PSoC4/ADC.c ****     ADC_SAR_RANGE_COND_REG  = ADC_COMPARE_MODE;
ARM GAS  C:\Users\Rajesh\AppData\Local\Temp\ccDogWTk.s 			page 13


 289              		.loc 1 183 0 discriminator 4
 290 003a 1A60     		str	r2, [r3]
 184:Generated_Source\PSoC4/ADC.c ****     ADC_SAR_SAMPLE_TIME01_REG = ADC_DEFAULT_SAMPLE_TIME01_REG_CFG;
 291              		.loc 1 184 0 discriminator 4
 292 003c 0023     		movs	r3, #0
 293 003e 1B4A     		ldr	r2, .L16+40
 294 0040 1360     		str	r3, [r2]
 185:Generated_Source\PSoC4/ADC.c ****     ADC_SAR_SAMPLE_TIME23_REG = ADC_DEFAULT_SAMPLE_TIME23_REG_CFG;
 295              		.loc 1 185 0 discriminator 4
 296 0042 1B4A     		ldr	r2, .L16+44
 297 0044 0A60     		str	r2, [r1]
 186:Generated_Source\PSoC4/ADC.c ****     
 298              		.loc 1 186 0 discriminator 4
 299 0046 1B49     		ldr	r1, .L16+48
 300 0048 0A60     		str	r2, [r1]
 190:Generated_Source\PSoC4/ADC.c ****         /* Set MUX_HW_CTRL_VSSA in MUX_SWITCH_HW_CTRL when multiple channels enabled */
 301              		.loc 1 190 0 discriminator 4
 302 004a 1B49     		ldr	r1, .L16+52
 303 004c 0A68     		ldr	r2, [r1]
 304 004e 0243     		orrs	r2, r0
 305 0050 0A60     		str	r2, [r1]
 199:Generated_Source\PSoC4/ADC.c **** 
 306              		.loc 1 199 0 discriminator 4
 307 0052 0121     		movs	r1, #1
 197:Generated_Source\PSoC4/ADC.c ****     ADC_SAR_RANGE_INTR_MASK_REG = 0u;
 308              		.loc 1 197 0 discriminator 4
 309 0054 194A     		ldr	r2, .L16+56
 310 0056 1360     		str	r3, [r2]
 198:Generated_Source\PSoC4/ADC.c ****     ADC_SAR_INTR_MASK_REG = ADC_SAR_INTR_MASK;
 311              		.loc 1 198 0 discriminator 4
 312 0058 194A     		ldr	r2, .L16+60
 313 005a 1360     		str	r3, [r2]
 199:Generated_Source\PSoC4/ADC.c **** 
 314              		.loc 1 199 0 discriminator 4
 315 005c 194A     		ldr	r2, .L16+64
 316 005e 1160     		str	r1, [r2]
 206:Generated_Source\PSoC4/ADC.c ****     tmpRegVal &= (uint32)~ADC_DCEN;
 317              		.loc 1 206 0 discriminator 4
 318 0060 1949     		ldr	r1, .L16+68
 319 0062 1A4A     		ldr	r2, .L16+72
 320 0064 0868     		ldr	r0, [r1]
 321              	.LVL12:
 322 0066 0240     		ands	r2, r0
 221:Generated_Source\PSoC4/ADC.c ****         #endif /* ((ADC_DEFAULT_VREF_SEL == ADC__INTERNAL1024) || \
 323              		.loc 1 221 0 discriminator 4
 324 0068 8020     		movs	r0, #128
 325              	.LVL13:
 326 006a 8005     		lsls	r0, r0, #22
 327 006c 0243     		orrs	r2, r0
 328              	.LVL14:
 226:Generated_Source\PSoC4/ADC.c **** 
 329              		.loc 1 226 0 discriminator 4
 330 006e 0A60     		str	r2, [r1]
 331              	.LVL15:
 253:Generated_Source\PSoC4/ADC.c **** 
 332              		.loc 1 253 0 discriminator 4
 333 0070 174A     		ldr	r2, .L16+76
ARM GAS  C:\Users\Rajesh\AppData\Local\Temp\ccDogWTk.s 			page 14


 334 0072 1360     		str	r3, [r2]
 335              	.LVL16:
 298:Generated_Source\PSoC4/ADC.c ****             #endif /* end DEFAULT_SE_RESULT_FORMAT_SEL == ADC__FSIGNED */
 336              		.loc 1 298 0 discriminator 4
 337 0074 174A     		ldr	r2, .L16+80
 338 0076 1380     		strh	r3, [r2]
 311:Generated_Source\PSoC4/ADC.c ****                             ADC_DEFAULT_VREF_MV_VALUE) / (ADC_DEFAULT_VREF_MV_VALUE * 2));
 339              		.loc 1 311 0 discriminator 4
 340 0078 174A     		ldr	r2, .L16+84
 341 007a 184B     		ldr	r3, .L16+88
 342 007c 1A60     		str	r2, [r3]
 343              	.LVL17:
 314:Generated_Source\PSoC4/ADC.c **** 
 344              		.loc 1 314 0 discriminator 4
 345 007e 10BD     		pop	{r4, pc}
 346              	.LVL18:
 347              	.L15:
 178:Generated_Source\PSoC4/ADC.c ****         /* Enable the SAR internal pump when global pump is enabled */
 348              		.loc 1 178 0
 349 0080 1749     		ldr	r1, .L16+92
 350 0082 CEE7     		b	.L14
 351              	.L17:
 352              		.align	2
 353              	.L16:
 354 0084 00000000 		.word	ADC_ISR
 355 0088 20003A40 		.word	1077542944
 356 008c 80033A40 		.word	1077543808
 357 0090 70020053 		.word	1392509552
 358 0094 00003A40 		.word	1077542912
 359 0098 CC000080 		.word	-2147483444
 360 009c 04003A40 		.word	1077542916
 361 00a0 10003A40 		.word	1077542928
 362 00a4 0000FF07 		.word	134152192
 363 00a8 18003A40 		.word	1077542936
 364 00ac 1C003A40 		.word	1077542940
 365 00b0 02000200 		.word	131074
 366 00b4 14003A40 		.word	1077542932
 367 00b8 00033A40 		.word	1077543680
 368 00bc 28023A40 		.word	1077543464
 369 00c0 38023A40 		.word	1077543480
 370 00c4 18023A40 		.word	1077543448
 371 00c8 30003A40 		.word	1077542960
 372 00cc FEFFFFDF 		.word	-536870914
 373 00d0 80003A40 		.word	1077543040
 374 00d4 00000000 		.word	ADC_offset
 375 00d8 3E180000 		.word	6206
 376 00dc 00000000 		.word	ADC_countsPer10Volt
 377 00e0 70021053 		.word	1393558128
 378              		.cfi_endproc
 379              	.LFE2:
 380              		.size	ADC_Init, .-ADC_Init
 381              		.section	.text.ADC_Enable,"ax",%progbits
 382              		.align	2
 383              		.global	ADC_Enable
 384              		.code	16
 385              		.thumb_func
 386              		.type	ADC_Enable, %function
ARM GAS  C:\Users\Rajesh\AppData\Local\Temp\ccDogWTk.s 			page 15


 387              	ADC_Enable:
 388              	.LFB3:
 331:Generated_Source\PSoC4/ADC.c ****     if (0u == (ADC_SAR_CTRL_REG & ADC_ENABLE))
 389              		.loc 1 331 0
 390              		.cfi_startproc
 391              		@ args = 0, pretend = 0, frame = 0
 392              		@ frame_needed = 0, uses_anonymous_args = 0
 332:Generated_Source\PSoC4/ADC.c ****     {
 393              		.loc 1 332 0
 394 0000 094B     		ldr	r3, .L23
 331:Generated_Source\PSoC4/ADC.c ****     if (0u == (ADC_SAR_CTRL_REG & ADC_ENABLE))
 395              		.loc 1 331 0
 396 0002 10B5     		push	{r4, lr}
 397              		.cfi_def_cfa_offset 8
 398              		.cfi_offset 4, -8
 399              		.cfi_offset 14, -4
 332:Generated_Source\PSoC4/ADC.c ****     {
 400              		.loc 1 332 0
 401 0004 1B68     		ldr	r3, [r3]
 402 0006 002B     		cmp	r3, #0
 403 0008 0CDB     		blt	.L18
 404              	.LBB20:
 405              	.LBB21:
 336:Generated_Source\PSoC4/ADC.c ****             {
 406              		.loc 1 336 0
 407 000a 084A     		ldr	r2, .L23+4
 408              	.L21:
 409 000c 1368     		ldr	r3, [r2]
 410 000e 002B     		cmp	r3, #0
 411 0010 FCDB     		blt	.L21
 342:Generated_Source\PSoC4/ADC.c ****         
 412              		.loc 1 342 0
 413 0012 8021     		movs	r1, #128
 414 0014 044A     		ldr	r2, .L23
 415 0016 0906     		lsls	r1, r1, #24
 416 0018 1368     		ldr	r3, [r2]
 417              		.loc 1 345 0
 418 001a 0A20     		movs	r0, #10
 342:Generated_Source\PSoC4/ADC.c ****         
 419              		.loc 1 342 0
 420 001c 0B43     		orrs	r3, r1
 421 001e 1360     		str	r3, [r2]
 422              		.loc 1 345 0
 423 0020 FFF7FEFF 		bl	CyDelayUs
 424              	.LVL19:
 425              	.L18:
 426              	.LBE21:
 427              	.LBE20:
 346:Generated_Source\PSoC4/ADC.c ****     }
 347:Generated_Source\PSoC4/ADC.c **** }
 428              		.loc 1 347 0
 429              		@ sp needed
 430 0024 10BD     		pop	{r4, pc}
 431              	.L24:
 432 0026 C046     		.align	2
 433              	.L23:
 434 0028 00003A40 		.word	1077542912
ARM GAS  C:\Users\Rajesh\AppData\Local\Temp\ccDogWTk.s 			page 16


 435 002c 08023A40 		.word	1077543432
 436              		.cfi_endproc
 437              	.LFE3:
 438              		.size	ADC_Enable, .-ADC_Enable
 439              		.section	.text.ADC_Stop,"ax",%progbits
 440              		.align	2
 441              		.global	ADC_Stop
 442              		.code	16
 443              		.thumb_func
 444              		.type	ADC_Stop, %function
 445              	ADC_Stop:
 446              	.LFB4:
 348:Generated_Source\PSoC4/ADC.c **** 
 349:Generated_Source\PSoC4/ADC.c **** 
 350:Generated_Source\PSoC4/ADC.c **** /*******************************************************************************
 351:Generated_Source\PSoC4/ADC.c **** * Function Name: ADC_Stop
 352:Generated_Source\PSoC4/ADC.c **** ********************************************************************************
 353:Generated_Source\PSoC4/ADC.c **** *
 354:Generated_Source\PSoC4/ADC.c **** * Summary:
 355:Generated_Source\PSoC4/ADC.c **** *  This function stops ADC conversions and puts the ADC into its lowest power
 356:Generated_Source\PSoC4/ADC.c **** *  mode.
 357:Generated_Source\PSoC4/ADC.c **** *
 358:Generated_Source\PSoC4/ADC.c **** * Parameters:
 359:Generated_Source\PSoC4/ADC.c **** *  None.
 360:Generated_Source\PSoC4/ADC.c **** *
 361:Generated_Source\PSoC4/ADC.c **** * Return:
 362:Generated_Source\PSoC4/ADC.c **** *  None.
 363:Generated_Source\PSoC4/ADC.c **** *
 364:Generated_Source\PSoC4/ADC.c **** *******************************************************************************/
 365:Generated_Source\PSoC4/ADC.c **** void ADC_Stop(void)
 366:Generated_Source\PSoC4/ADC.c **** {
 447              		.loc 1 366 0
 448              		.cfi_startproc
 449              		@ args = 0, pretend = 0, frame = 0
 450              		@ frame_needed = 0, uses_anonymous_args = 0
 451              		@ link register save eliminated.
 367:Generated_Source\PSoC4/ADC.c ****     ADC_SAR_CTRL_REG &= (uint32)~ADC_ENABLE;
 452              		.loc 1 367 0
 453 0000 024A     		ldr	r2, .L26
 368:Generated_Source\PSoC4/ADC.c **** }
 454              		.loc 1 368 0
 455              		@ sp needed
 367:Generated_Source\PSoC4/ADC.c ****     ADC_SAR_CTRL_REG &= (uint32)~ADC_ENABLE;
 456              		.loc 1 367 0
 457 0002 1368     		ldr	r3, [r2]
 458 0004 5B00     		lsls	r3, r3, #1
 459 0006 5B08     		lsrs	r3, r3, #1
 460 0008 1360     		str	r3, [r2]
 461              		.loc 1 368 0
 462 000a 7047     		bx	lr
 463              	.L27:
 464              		.align	2
 465              	.L26:
 466 000c 00003A40 		.word	1077542912
 467              		.cfi_endproc
 468              	.LFE4:
 469              		.size	ADC_Stop, .-ADC_Stop
ARM GAS  C:\Users\Rajesh\AppData\Local\Temp\ccDogWTk.s 			page 17


 470              		.section	.text.ADC_StartConvert,"ax",%progbits
 471              		.align	2
 472              		.global	ADC_StartConvert
 473              		.code	16
 474              		.thumb_func
 475              		.type	ADC_StartConvert, %function
 476              	ADC_StartConvert:
 477              	.LFB5:
 369:Generated_Source\PSoC4/ADC.c **** 
 370:Generated_Source\PSoC4/ADC.c **** 
 371:Generated_Source\PSoC4/ADC.c **** /*******************************************************************************
 372:Generated_Source\PSoC4/ADC.c **** * Function Name: ADC_StartConvert
 373:Generated_Source\PSoC4/ADC.c **** ********************************************************************************
 374:Generated_Source\PSoC4/ADC.c **** *
 375:Generated_Source\PSoC4/ADC.c **** * Summary:
 376:Generated_Source\PSoC4/ADC.c **** *  Description:
 377:Generated_Source\PSoC4/ADC.c **** *  For free running mode, this API starts the conversion process and it
 378:Generated_Source\PSoC4/ADC.c **** *  runs continuously.
 379:Generated_Source\PSoC4/ADC.c **** *
 380:Generated_Source\PSoC4/ADC.c **** *  In a triggered mode, this routine triggers every conversion by
 381:Generated_Source\PSoC4/ADC.c **** *  writing into the FW_TRIGGER bit in SAR_START_CTRL reg. In triggered mode,
 382:Generated_Source\PSoC4/ADC.c **** *  every conversion has to start by this API.
 383:Generated_Source\PSoC4/ADC.c **** *
 384:Generated_Source\PSoC4/ADC.c **** * Parameters:
 385:Generated_Source\PSoC4/ADC.c **** *  None.
 386:Generated_Source\PSoC4/ADC.c **** *
 387:Generated_Source\PSoC4/ADC.c **** * Return:
 388:Generated_Source\PSoC4/ADC.c **** *  None.
 389:Generated_Source\PSoC4/ADC.c **** *
 390:Generated_Source\PSoC4/ADC.c **** *******************************************************************************/
 391:Generated_Source\PSoC4/ADC.c **** void ADC_StartConvert(void)
 392:Generated_Source\PSoC4/ADC.c **** {
 478              		.loc 1 392 0
 479              		.cfi_startproc
 480              		@ args = 0, pretend = 0, frame = 0
 481              		@ frame_needed = 0, uses_anonymous_args = 0
 482              		@ link register save eliminated.
 393:Generated_Source\PSoC4/ADC.c ****     #if(ADC_DEFAULT_SAMPLE_MODE_SEL == ADC__FREERUNNING)
 394:Generated_Source\PSoC4/ADC.c ****         ADC_SAR_SAMPLE_CTRL_REG |= ADC_CONTINUOUS_EN;
 483              		.loc 1 394 0
 484 0000 8021     		movs	r1, #128
 485 0002 034A     		ldr	r2, .L29
 486 0004 4902     		lsls	r1, r1, #9
 487 0006 1368     		ldr	r3, [r2]
 395:Generated_Source\PSoC4/ADC.c ****     #else /* Firmware trigger */
 396:Generated_Source\PSoC4/ADC.c ****         ADC_SAR_START_CTRL_REG = ADC_FW_TRIGGER;
 397:Generated_Source\PSoC4/ADC.c ****     #endif /* End ADC_DEFAULT_SAMPLE_MODE == ADC__FREERUNNING */
 398:Generated_Source\PSoC4/ADC.c **** 
 399:Generated_Source\PSoC4/ADC.c **** }
 488              		.loc 1 399 0
 489              		@ sp needed
 394:Generated_Source\PSoC4/ADC.c ****     #else /* Firmware trigger */
 490              		.loc 1 394 0
 491 0008 0B43     		orrs	r3, r1
 492 000a 1360     		str	r3, [r2]
 493              		.loc 1 399 0
 494 000c 7047     		bx	lr
ARM GAS  C:\Users\Rajesh\AppData\Local\Temp\ccDogWTk.s 			page 18


 495              	.L30:
 496 000e C046     		.align	2
 497              	.L29:
 498 0010 04003A40 		.word	1077542916
 499              		.cfi_endproc
 500              	.LFE5:
 501              		.size	ADC_StartConvert, .-ADC_StartConvert
 502              		.section	.text.ADC_StopConvert,"ax",%progbits
 503              		.align	2
 504              		.global	ADC_StopConvert
 505              		.code	16
 506              		.thumb_func
 507              		.type	ADC_StopConvert, %function
 508              	ADC_StopConvert:
 509              	.LFB6:
 400:Generated_Source\PSoC4/ADC.c **** 
 401:Generated_Source\PSoC4/ADC.c **** 
 402:Generated_Source\PSoC4/ADC.c **** /*******************************************************************************
 403:Generated_Source\PSoC4/ADC.c **** * Function Name: ADC_StopConvert
 404:Generated_Source\PSoC4/ADC.c **** ********************************************************************************
 405:Generated_Source\PSoC4/ADC.c **** *
 406:Generated_Source\PSoC4/ADC.c **** * Summary:
 407:Generated_Source\PSoC4/ADC.c **** *  Forces the ADC to stop all conversions.
 408:Generated_Source\PSoC4/ADC.c **** *
 409:Generated_Source\PSoC4/ADC.c **** * Parameters:
 410:Generated_Source\PSoC4/ADC.c **** *  None.
 411:Generated_Source\PSoC4/ADC.c **** *
 412:Generated_Source\PSoC4/ADC.c **** * Return:
 413:Generated_Source\PSoC4/ADC.c **** *  None.
 414:Generated_Source\PSoC4/ADC.c **** *
 415:Generated_Source\PSoC4/ADC.c **** *******************************************************************************/
 416:Generated_Source\PSoC4/ADC.c **** void ADC_StopConvert(void)
 417:Generated_Source\PSoC4/ADC.c **** {
 510              		.loc 1 417 0
 511              		.cfi_startproc
 512              		@ args = 0, pretend = 0, frame = 0
 513              		@ frame_needed = 0, uses_anonymous_args = 0
 514              		@ link register save eliminated.
 418:Generated_Source\PSoC4/ADC.c ****     #if(ADC_DEFAULT_SAMPLE_MODE_SEL == ADC__FREERUNNING)
 419:Generated_Source\PSoC4/ADC.c ****         ADC_SAR_SAMPLE_CTRL_REG &= (uint32)(~ADC_CONTINUOUS_EN);
 515              		.loc 1 419 0
 516 0000 024A     		ldr	r2, .L32
 517 0002 034B     		ldr	r3, .L32+4
 518 0004 1168     		ldr	r1, [r2]
 420:Generated_Source\PSoC4/ADC.c ****     #endif /* ADC_DEFAULT_SAMPLE_MODE == ADC__FREERUNNING */
 421:Generated_Source\PSoC4/ADC.c **** }
 519              		.loc 1 421 0
 520              		@ sp needed
 419:Generated_Source\PSoC4/ADC.c ****     #endif /* ADC_DEFAULT_SAMPLE_MODE == ADC__FREERUNNING */
 521              		.loc 1 419 0
 522 0006 0B40     		ands	r3, r1
 523 0008 1360     		str	r3, [r2]
 524              		.loc 1 421 0
 525 000a 7047     		bx	lr
 526              	.L33:
 527              		.align	2
 528              	.L32:
ARM GAS  C:\Users\Rajesh\AppData\Local\Temp\ccDogWTk.s 			page 19


 529 000c 04003A40 		.word	1077542916
 530 0010 FFFFFEFF 		.word	-65537
 531              		.cfi_endproc
 532              	.LFE6:
 533              		.size	ADC_StopConvert, .-ADC_StopConvert
 534              		.section	.text.ADC_IsEndConversion,"ax",%progbits
 535              		.align	2
 536              		.global	ADC_IsEndConversion
 537              		.code	16
 538              		.thumb_func
 539              		.type	ADC_IsEndConversion, %function
 540              	ADC_IsEndConversion:
 541              	.LFB7:
 422:Generated_Source\PSoC4/ADC.c **** 
 423:Generated_Source\PSoC4/ADC.c **** 
 424:Generated_Source\PSoC4/ADC.c **** /*******************************************************************************
 425:Generated_Source\PSoC4/ADC.c **** * Function Name: ADC_IsEndConversion
 426:Generated_Source\PSoC4/ADC.c **** ********************************************************************************
 427:Generated_Source\PSoC4/ADC.c **** *
 428:Generated_Source\PSoC4/ADC.c **** * Summary:
 429:Generated_Source\PSoC4/ADC.c **** *  Description: Checks for ADC end of conversion for the case one
 430:Generated_Source\PSoC4/ADC.c **** *  channel and end of scan for the case of multiple channels. It acts
 431:Generated_Source\PSoC4/ADC.c **** *  as a software version of the EOC. This function provides the
 432:Generated_Source\PSoC4/ADC.c **** *  programmer with two options. In one mode this function
 433:Generated_Source\PSoC4/ADC.c **** *  immediately returns with the conversion status. In the other mode,
 434:Generated_Source\PSoC4/ADC.c **** *  the function does not return (blocking) until the conversion has
 435:Generated_Source\PSoC4/ADC.c **** *  completed.
 436:Generated_Source\PSoC4/ADC.c **** *
 437:Generated_Source\PSoC4/ADC.c **** * Parameters:
 438:Generated_Source\PSoC4/ADC.c **** *  ADC_RETURN_STATUS        -> Immediately returns conversion result status
 439:Generated_Source\PSoC4/ADC.c **** *  ADC_WAIT_FOR_RESULT      -> Does not return until ADC complete
 440:Generated_Source\PSoC4/ADC.c **** *  ADC_RETURN_STATUS_INJ    -> Immediately returns conversion result status
 441:Generated_Source\PSoC4/ADC.c **** *                              for injection channel
 442:Generated_Source\PSoC4/ADC.c **** *  ADC_WAIT_FOR_RESULT_INJ  -> Does not return until ADC completes injection
 443:Generated_Source\PSoC4/ADC.c **** *                              channel conversion
 444:Generated_Source\PSoC4/ADC.c **** *
 445:Generated_Source\PSoC4/ADC.c **** * Return:
 446:Generated_Source\PSoC4/ADC.c **** *  If a non-zero value is returned, the last conversion or scan has completed.
 447:Generated_Source\PSoC4/ADC.c **** *  If the returned value is zero, the ADC is still in the process of a scan.
 448:Generated_Source\PSoC4/ADC.c **** *
 449:Generated_Source\PSoC4/ADC.c **** *******************************************************************************/
 450:Generated_Source\PSoC4/ADC.c **** uint32 ADC_IsEndConversion(uint32 retMode)
 451:Generated_Source\PSoC4/ADC.c **** {
 542              		.loc 1 451 0
 543              		.cfi_startproc
 544              		@ args = 0, pretend = 0, frame = 0
 545              		@ frame_needed = 0, uses_anonymous_args = 0
 546              		@ link register save eliminated.
 547              	.LVL20:
 548              		.loc 1 451 0
 549 0000 0300     		movs	r3, r0
 452:Generated_Source\PSoC4/ADC.c ****     uint32 status = 0u;
 550              		.loc 1 452 0
 551 0002 0020     		movs	r0, #0
 552              	.LVL21:
 453:Generated_Source\PSoC4/ADC.c **** 
 454:Generated_Source\PSoC4/ADC.c ****     if((retMode & (ADC_RETURN_STATUS | ADC_WAIT_FOR_RESULT)) != 0u)
ARM GAS  C:\Users\Rajesh\AppData\Local\Temp\ccDogWTk.s 			page 20


 553              		.loc 1 454 0
 554 0004 9A07     		lsls	r2, r3, #30
 555 0006 0AD0     		beq	.L41
 556 0008 9B07     		lsls	r3, r3, #30
 557 000a 09D5     		bpl	.L47
 558              	.LVL22:
 455:Generated_Source\PSoC4/ADC.c ****     {
 456:Generated_Source\PSoC4/ADC.c ****         do
 457:Generated_Source\PSoC4/ADC.c ****         {
 458:Generated_Source\PSoC4/ADC.c ****             status = ADC_SAR_INTR_REG & ADC_EOS_MASK;
 459:Generated_Source\PSoC4/ADC.c ****         }while((status == 0u) && ((retMode & ADC_WAIT_FOR_RESULT) != 0u));
 559              		.loc 1 459 0 discriminator 2
 560 000c 0122     		movs	r2, #1
 458:Generated_Source\PSoC4/ADC.c ****         }while((status == 0u) && ((retMode & ADC_WAIT_FOR_RESULT) != 0u));
 561              		.loc 1 458 0 discriminator 2
 562 000e 0749     		ldr	r1, .L48
 563              	.LVL23:
 564              	.L43:
 565 0010 0B68     		ldr	r3, [r1]
 566              	.LVL24:
 567              		.loc 1 459 0 discriminator 2
 568 0012 1A42     		tst	r2, r3
 569 0014 FCD0     		beq	.L43
 570              	.LVL25:
 571              	.L37:
 460:Generated_Source\PSoC4/ADC.c **** 
 461:Generated_Source\PSoC4/ADC.c ****         if(status != 0u)
 462:Generated_Source\PSoC4/ADC.c ****         {
 463:Generated_Source\PSoC4/ADC.c ****             /* Clear EOS bit */
 464:Generated_Source\PSoC4/ADC.c ****             ADC_SAR_INTR_REG = ADC_EOS_MASK;
 572              		.loc 1 464 0
 573 0016 0122     		movs	r2, #1
 574 0018 0120     		movs	r0, #1
 575              	.LVL26:
 576 001a 044B     		ldr	r3, .L48
 577 001c 1A60     		str	r2, [r3]
 578              	.LVL27:
 579              	.L41:
 465:Generated_Source\PSoC4/ADC.c ****         }
 466:Generated_Source\PSoC4/ADC.c ****     }
 467:Generated_Source\PSoC4/ADC.c **** 
 468:Generated_Source\PSoC4/ADC.c ****     #if(ADC_INJ_CHANNEL_ENABLED)
 469:Generated_Source\PSoC4/ADC.c ****         if((retMode & (ADC_RETURN_STATUS_INJ | ADC_WAIT_FOR_RESULT_INJ)) != 0u)
 470:Generated_Source\PSoC4/ADC.c ****         {
 471:Generated_Source\PSoC4/ADC.c ****             do
 472:Generated_Source\PSoC4/ADC.c ****             {
 473:Generated_Source\PSoC4/ADC.c ****                 status |= ADC_SAR_INTR_REG & ADC_INJ_EOC_MASK;
 474:Generated_Source\PSoC4/ADC.c ****             }while(((status & ADC_INJ_EOC_MASK) == 0u) &&
 475:Generated_Source\PSoC4/ADC.c ****                    ((retMode & ADC_WAIT_FOR_RESULT_INJ) != 0u));
 476:Generated_Source\PSoC4/ADC.c **** 
 477:Generated_Source\PSoC4/ADC.c ****             if((status & ADC_INJ_EOC_MASK) != 0u)
 478:Generated_Source\PSoC4/ADC.c ****             {
 479:Generated_Source\PSoC4/ADC.c ****                 /* Clear Injection EOS bit */
 480:Generated_Source\PSoC4/ADC.c ****                 ADC_SAR_INTR_REG = ADC_INJ_EOC_MASK;
 481:Generated_Source\PSoC4/ADC.c ****             }
 482:Generated_Source\PSoC4/ADC.c ****         }
 483:Generated_Source\PSoC4/ADC.c ****     #endif /* ADC_INJ_CHANNEL_ENABLED */
ARM GAS  C:\Users\Rajesh\AppData\Local\Temp\ccDogWTk.s 			page 21


 484:Generated_Source\PSoC4/ADC.c **** 
 485:Generated_Source\PSoC4/ADC.c ****     return (status);
 486:Generated_Source\PSoC4/ADC.c **** }
 580              		.loc 1 486 0
 581              		@ sp needed
 582 001e 7047     		bx	lr
 583              	.LVL28:
 584              	.L47:
 458:Generated_Source\PSoC4/ADC.c ****         }while((status == 0u) && ((retMode & ADC_WAIT_FOR_RESULT) != 0u));
 585              		.loc 1 458 0
 586 0020 024B     		ldr	r3, .L48
 587 0022 0130     		adds	r0, r0, #1
 588 0024 1B68     		ldr	r3, [r3]
 589 0026 1840     		ands	r0, r3
 590              	.LVL29:
 459:Generated_Source\PSoC4/ADC.c **** 
 591              		.loc 1 459 0
 592 0028 F9D0     		beq	.L41
 593 002a F4E7     		b	.L37
 594              	.L49:
 595              		.align	2
 596              	.L48:
 597 002c 10023A40 		.word	1077543440
 598              		.cfi_endproc
 599              	.LFE7:
 600              		.size	ADC_IsEndConversion, .-ADC_IsEndConversion
 601              		.section	.text.ADC_GetResult16,"ax",%progbits
 602              		.align	2
 603              		.global	ADC_GetResult16
 604              		.code	16
 605              		.thumb_func
 606              		.type	ADC_GetResult16, %function
 607              	ADC_GetResult16:
 608              	.LFB8:
 487:Generated_Source\PSoC4/ADC.c **** 
 488:Generated_Source\PSoC4/ADC.c **** 
 489:Generated_Source\PSoC4/ADC.c **** /*******************************************************************************
 490:Generated_Source\PSoC4/ADC.c **** * Function Name: ADC_GetResult16
 491:Generated_Source\PSoC4/ADC.c **** ********************************************************************************
 492:Generated_Source\PSoC4/ADC.c **** *
 493:Generated_Source\PSoC4/ADC.c **** * Summary:
 494:Generated_Source\PSoC4/ADC.c **** *  Gets the data available in the SAR DATA register.
 495:Generated_Source\PSoC4/ADC.c **** *
 496:Generated_Source\PSoC4/ADC.c **** * Parameters:
 497:Generated_Source\PSoC4/ADC.c **** *  chan: The ADC channel in which to return the result. The first channel
 498:Generated_Source\PSoC4/ADC.c **** *  is 0 and the injection channel if enabled is the number of valid channels.
 499:Generated_Source\PSoC4/ADC.c **** *
 500:Generated_Source\PSoC4/ADC.c **** * Return:
 501:Generated_Source\PSoC4/ADC.c **** *  Returns converted data as a signed 16-bit integer
 502:Generated_Source\PSoC4/ADC.c **** *
 503:Generated_Source\PSoC4/ADC.c **** *******************************************************************************/
 504:Generated_Source\PSoC4/ADC.c **** int16 ADC_GetResult16(uint32 chan)
 505:Generated_Source\PSoC4/ADC.c **** {
 609              		.loc 1 505 0
 610              		.cfi_startproc
 611              		@ args = 0, pretend = 0, frame = 0
 612              		@ frame_needed = 0, uses_anonymous_args = 0
ARM GAS  C:\Users\Rajesh\AppData\Local\Temp\ccDogWTk.s 			page 22


 613              	.LVL30:
 614 0000 10B5     		push	{r4, lr}
 615              		.cfi_def_cfa_offset 8
 616              		.cfi_offset 4, -8
 617              		.cfi_offset 14, -4
 506:Generated_Source\PSoC4/ADC.c ****     uint32 result;
 507:Generated_Source\PSoC4/ADC.c **** 
 508:Generated_Source\PSoC4/ADC.c ****     /* Halt CPU in debug mode if channel is out of valid range */
 509:Generated_Source\PSoC4/ADC.c ****     CYASSERT(chan < ADC_TOTAL_CHANNELS_NUM);
 618              		.loc 1 509 0
 619 0002 0028     		cmp	r0, #0
 620 0004 03D1     		bne	.L54
 510:Generated_Source\PSoC4/ADC.c **** 
 511:Generated_Source\PSoC4/ADC.c ****     if(chan < ADC_SEQUENCED_CHANNELS_NUM)
 512:Generated_Source\PSoC4/ADC.c ****     {
 513:Generated_Source\PSoC4/ADC.c ****         result = CY_GET_REG32((reg32 *)(ADC_SAR_CHAN_RESULT_IND + (uint32)(chan << 2u))) &
 621              		.loc 1 513 0
 622 0006 044B     		ldr	r3, .L55
 623 0008 1868     		ldr	r0, [r3]
 624              	.LVL31:
 625 000a 00B2     		sxth	r0, r0
 626              	.LVL32:
 627              	.L53:
 514:Generated_Source\PSoC4/ADC.c ****                 ADC_RESULT_MASK;
 515:Generated_Source\PSoC4/ADC.c ****     }
 516:Generated_Source\PSoC4/ADC.c ****     else
 517:Generated_Source\PSoC4/ADC.c ****     {
 518:Generated_Source\PSoC4/ADC.c ****         #if(ADC_INJ_CHANNEL_ENABLED)
 519:Generated_Source\PSoC4/ADC.c ****             result = ADC_SAR_INJ_RESULT_REG & ADC_RESULT_MASK;
 520:Generated_Source\PSoC4/ADC.c ****         #else
 521:Generated_Source\PSoC4/ADC.c ****             result = 0u;
 522:Generated_Source\PSoC4/ADC.c ****         #endif /* ADC_INJ_CHANNEL_ENABLED */
 523:Generated_Source\PSoC4/ADC.c ****     }
 524:Generated_Source\PSoC4/ADC.c **** 
 525:Generated_Source\PSoC4/ADC.c ****     return ( (int16)result );
 526:Generated_Source\PSoC4/ADC.c **** }
 628              		.loc 1 526 0
 629              		@ sp needed
 630 000c 10BD     		pop	{r4, pc}
 631              	.LVL33:
 632              	.L54:
 509:Generated_Source\PSoC4/ADC.c **** 
 633              		.loc 1 509 0 discriminator 1
 634 000e 0020     		movs	r0, #0
 635              	.LVL34:
 636 0010 FFF7FEFF 		bl	CyHalt
 637              	.LVL35:
 638 0014 0020     		movs	r0, #0
 639 0016 F9E7     		b	.L53
 640              	.L56:
 641              		.align	2
 642              	.L55:
 643 0018 80013A40 		.word	1077543296
 644              		.cfi_endproc
 645              	.LFE8:
 646              		.size	ADC_GetResult16, .-ADC_GetResult16
 647              		.section	.text.ADC_SetChanMask,"ax",%progbits
ARM GAS  C:\Users\Rajesh\AppData\Local\Temp\ccDogWTk.s 			page 23


 648              		.align	2
 649              		.global	ADC_SetChanMask
 650              		.code	16
 651              		.thumb_func
 652              		.type	ADC_SetChanMask, %function
 653              	ADC_SetChanMask:
 654              	.LFB9:
 527:Generated_Source\PSoC4/ADC.c **** 
 528:Generated_Source\PSoC4/ADC.c **** 
 529:Generated_Source\PSoC4/ADC.c **** /*******************************************************************************
 530:Generated_Source\PSoC4/ADC.c **** * Function Name: ADC_SetChanMask
 531:Generated_Source\PSoC4/ADC.c **** ********************************************************************************
 532:Generated_Source\PSoC4/ADC.c **** *
 533:Generated_Source\PSoC4/ADC.c **** * Summary:
 534:Generated_Source\PSoC4/ADC.c **** *  Sets the channel enable mask.
 535:Generated_Source\PSoC4/ADC.c **** *
 536:Generated_Source\PSoC4/ADC.c **** * Parameters:
 537:Generated_Source\PSoC4/ADC.c **** *  mask: Sets which channels that will be
 538:Generated_Source\PSoC4/ADC.c **** *  scanned. Setting bits for channels that do not exist will have no
 539:Generated_Source\PSoC4/ADC.c **** *  effect. For example, if only 6 channels were enabled, setting a
 540:Generated_Source\PSoC4/ADC.c **** *  mask of 0x0103 would only enable the last two channels (0 and 1).
 541:Generated_Source\PSoC4/ADC.c **** *  This API will not enable the injection channel.
 542:Generated_Source\PSoC4/ADC.c **** *  Examples: If the component is setup to sequence through 8
 543:Generated_Source\PSoC4/ADC.c **** *  channels, a mask of 0x000F would enable channels 0, 1, 2, and 3.
 544:Generated_Source\PSoC4/ADC.c **** *
 545:Generated_Source\PSoC4/ADC.c **** * Return:
 546:Generated_Source\PSoC4/ADC.c **** *  None.
 547:Generated_Source\PSoC4/ADC.c **** *
 548:Generated_Source\PSoC4/ADC.c **** *******************************************************************************/
 549:Generated_Source\PSoC4/ADC.c **** void ADC_SetChanMask(uint32 mask)
 550:Generated_Source\PSoC4/ADC.c **** {
 655              		.loc 1 550 0
 656              		.cfi_startproc
 657              		@ args = 0, pretend = 0, frame = 0
 658              		@ frame_needed = 0, uses_anonymous_args = 0
 659              		@ link register save eliminated.
 660              	.LVL36:
 551:Generated_Source\PSoC4/ADC.c ****     ADC_SAR_CHAN_EN_REG = mask & ADC_MAX_CHANNELS_EN_MASK;
 661              		.loc 1 551 0
 662 0000 0123     		movs	r3, #1
 663 0002 1840     		ands	r0, r3
 664              	.LVL37:
 665 0004 014B     		ldr	r3, .L58
 552:Generated_Source\PSoC4/ADC.c **** }
 666              		.loc 1 552 0
 667              		@ sp needed
 551:Generated_Source\PSoC4/ADC.c ****     ADC_SAR_CHAN_EN_REG = mask & ADC_MAX_CHANNELS_EN_MASK;
 668              		.loc 1 551 0
 669 0006 1860     		str	r0, [r3]
 670              		.loc 1 552 0
 671 0008 7047     		bx	lr
 672              	.L59:
 673 000a C046     		.align	2
 674              	.L58:
 675 000c 20003A40 		.word	1077542944
 676              		.cfi_endproc
 677              	.LFE9:
ARM GAS  C:\Users\Rajesh\AppData\Local\Temp\ccDogWTk.s 			page 24


 678              		.size	ADC_SetChanMask, .-ADC_SetChanMask
 679              		.section	.text.ADC_SetLowLimit,"ax",%progbits
 680              		.align	2
 681              		.global	ADC_SetLowLimit
 682              		.code	16
 683              		.thumb_func
 684              		.type	ADC_SetLowLimit, %function
 685              	ADC_SetLowLimit:
 686              	.LFB10:
 553:Generated_Source\PSoC4/ADC.c **** 
 554:Generated_Source\PSoC4/ADC.c **** #if(ADC_INJ_CHANNEL_ENABLED)
 555:Generated_Source\PSoC4/ADC.c **** 
 556:Generated_Source\PSoC4/ADC.c **** 
 557:Generated_Source\PSoC4/ADC.c ****     /*******************************************************************************
 558:Generated_Source\PSoC4/ADC.c ****     * Function Name: ADC_EnableInjection
 559:Generated_Source\PSoC4/ADC.c ****     ********************************************************************************
 560:Generated_Source\PSoC4/ADC.c ****     *
 561:Generated_Source\PSoC4/ADC.c ****     * Summary:
 562:Generated_Source\PSoC4/ADC.c ****     *  Enables the injection channel for the next scan only.
 563:Generated_Source\PSoC4/ADC.c ****     *
 564:Generated_Source\PSoC4/ADC.c ****     * Parameters:
 565:Generated_Source\PSoC4/ADC.c ****     *  None.
 566:Generated_Source\PSoC4/ADC.c ****     *
 567:Generated_Source\PSoC4/ADC.c ****     * Return:
 568:Generated_Source\PSoC4/ADC.c ****     *  None.
 569:Generated_Source\PSoC4/ADC.c ****     *
 570:Generated_Source\PSoC4/ADC.c ****     *******************************************************************************/
 571:Generated_Source\PSoC4/ADC.c ****     void ADC_EnableInjection(void)
 572:Generated_Source\PSoC4/ADC.c ****     {
 573:Generated_Source\PSoC4/ADC.c ****         ADC_SAR_INJ_CHAN_CONFIG_REG |= ADC_INJ_CHAN_EN;
 574:Generated_Source\PSoC4/ADC.c ****     }
 575:Generated_Source\PSoC4/ADC.c **** 
 576:Generated_Source\PSoC4/ADC.c **** #endif /* ADC_INJ_CHANNEL_ENABLED */
 577:Generated_Source\PSoC4/ADC.c **** 
 578:Generated_Source\PSoC4/ADC.c **** 
 579:Generated_Source\PSoC4/ADC.c **** /*******************************************************************************
 580:Generated_Source\PSoC4/ADC.c **** * Function Name: ADC_SetLowLimit
 581:Generated_Source\PSoC4/ADC.c **** ********************************************************************************
 582:Generated_Source\PSoC4/ADC.c **** *
 583:Generated_Source\PSoC4/ADC.c **** * Summary:
 584:Generated_Source\PSoC4/ADC.c **** *  Sets the low limit parameter for a limit condition.
 585:Generated_Source\PSoC4/ADC.c **** *
 586:Generated_Source\PSoC4/ADC.c **** * Parameters:
 587:Generated_Source\PSoC4/ADC.c **** *  lowLimit: The low limit for a limit condition.
 588:Generated_Source\PSoC4/ADC.c **** *
 589:Generated_Source\PSoC4/ADC.c **** * Return:
 590:Generated_Source\PSoC4/ADC.c **** *  None.
 591:Generated_Source\PSoC4/ADC.c **** *
 592:Generated_Source\PSoC4/ADC.c **** *******************************************************************************/
 593:Generated_Source\PSoC4/ADC.c **** void ADC_SetLowLimit(uint32 lowLimit)
 594:Generated_Source\PSoC4/ADC.c **** {
 687              		.loc 1 594 0
 688              		.cfi_startproc
 689              		@ args = 0, pretend = 0, frame = 0
 690              		@ frame_needed = 0, uses_anonymous_args = 0
 691              		@ link register save eliminated.
 692              	.LVL38:
ARM GAS  C:\Users\Rajesh\AppData\Local\Temp\ccDogWTk.s 			page 25


 595:Generated_Source\PSoC4/ADC.c ****     ADC_SAR_RANGE_THRES_REG &= (uint32)(~ADC_RANGE_LOW_MASK);
 693              		.loc 1 595 0
 694 0000 054A     		ldr	r2, .L61
 596:Generated_Source\PSoC4/ADC.c ****     ADC_SAR_RANGE_THRES_REG |= lowLimit & ADC_RANGE_LOW_MASK;
 695              		.loc 1 596 0
 696 0002 0004     		lsls	r0, r0, #16
 697              	.LVL39:
 595:Generated_Source\PSoC4/ADC.c ****     ADC_SAR_RANGE_THRES_REG &= (uint32)(~ADC_RANGE_LOW_MASK);
 698              		.loc 1 595 0
 699 0004 1368     		ldr	r3, [r2]
 700              		.loc 1 596 0
 701 0006 000C     		lsrs	r0, r0, #16
 595:Generated_Source\PSoC4/ADC.c ****     ADC_SAR_RANGE_THRES_REG &= (uint32)(~ADC_RANGE_LOW_MASK);
 702              		.loc 1 595 0
 703 0008 1B0C     		lsrs	r3, r3, #16
 704 000a 1B04     		lsls	r3, r3, #16
 705 000c 1360     		str	r3, [r2]
 706              		.loc 1 596 0
 707 000e 1368     		ldr	r3, [r2]
 597:Generated_Source\PSoC4/ADC.c **** }
 708              		.loc 1 597 0
 709              		@ sp needed
 596:Generated_Source\PSoC4/ADC.c ****     ADC_SAR_RANGE_THRES_REG |= lowLimit & ADC_RANGE_LOW_MASK;
 710              		.loc 1 596 0
 711 0010 1843     		orrs	r0, r3
 712 0012 1060     		str	r0, [r2]
 713              		.loc 1 597 0
 714 0014 7047     		bx	lr
 715              	.L62:
 716 0016 C046     		.align	2
 717              	.L61:
 718 0018 18003A40 		.word	1077542936
 719              		.cfi_endproc
 720              	.LFE10:
 721              		.size	ADC_SetLowLimit, .-ADC_SetLowLimit
 722              		.section	.text.ADC_SetHighLimit,"ax",%progbits
 723              		.align	2
 724              		.global	ADC_SetHighLimit
 725              		.code	16
 726              		.thumb_func
 727              		.type	ADC_SetHighLimit, %function
 728              	ADC_SetHighLimit:
 729              	.LFB11:
 598:Generated_Source\PSoC4/ADC.c **** 
 599:Generated_Source\PSoC4/ADC.c **** 
 600:Generated_Source\PSoC4/ADC.c **** /*******************************************************************************
 601:Generated_Source\PSoC4/ADC.c **** * Function Name: ADC_SetHighLimit
 602:Generated_Source\PSoC4/ADC.c **** ********************************************************************************
 603:Generated_Source\PSoC4/ADC.c **** *
 604:Generated_Source\PSoC4/ADC.c **** * Summary:
 605:Generated_Source\PSoC4/ADC.c **** *  Sets the low limit parameter for a limit condition.
 606:Generated_Source\PSoC4/ADC.c **** *
 607:Generated_Source\PSoC4/ADC.c **** * Parameters:
 608:Generated_Source\PSoC4/ADC.c **** *  highLimit: The high limit for a limit condition.
 609:Generated_Source\PSoC4/ADC.c **** *
 610:Generated_Source\PSoC4/ADC.c **** * Return:
 611:Generated_Source\PSoC4/ADC.c **** *  None.
ARM GAS  C:\Users\Rajesh\AppData\Local\Temp\ccDogWTk.s 			page 26


 612:Generated_Source\PSoC4/ADC.c **** *
 613:Generated_Source\PSoC4/ADC.c **** *******************************************************************************/
 614:Generated_Source\PSoC4/ADC.c **** void ADC_SetHighLimit(uint32 highLimit)
 615:Generated_Source\PSoC4/ADC.c **** {
 730              		.loc 1 615 0
 731              		.cfi_startproc
 732              		@ args = 0, pretend = 0, frame = 0
 733              		@ frame_needed = 0, uses_anonymous_args = 0
 734              		@ link register save eliminated.
 735              	.LVL40:
 616:Generated_Source\PSoC4/ADC.c ****     ADC_SAR_RANGE_THRES_REG &= (uint32)(~ADC_RANGE_HIGH_MASK);
 736              		.loc 1 616 0
 737 0000 044A     		ldr	r2, .L64
 617:Generated_Source\PSoC4/ADC.c ****     ADC_SAR_RANGE_THRES_REG |= (uint32)(highLimit << ADC_RANGE_HIGH_OFFSET);
 738              		.loc 1 617 0
 739 0002 0004     		lsls	r0, r0, #16
 740              	.LVL41:
 616:Generated_Source\PSoC4/ADC.c ****     ADC_SAR_RANGE_THRES_REG &= (uint32)(~ADC_RANGE_HIGH_MASK);
 741              		.loc 1 616 0
 742 0004 1368     		ldr	r3, [r2]
 618:Generated_Source\PSoC4/ADC.c **** }
 743              		.loc 1 618 0
 744              		@ sp needed
 616:Generated_Source\PSoC4/ADC.c ****     ADC_SAR_RANGE_THRES_REG &= (uint32)(~ADC_RANGE_HIGH_MASK);
 745              		.loc 1 616 0
 746 0006 1B04     		lsls	r3, r3, #16
 747 0008 1B0C     		lsrs	r3, r3, #16
 748 000a 1360     		str	r3, [r2]
 617:Generated_Source\PSoC4/ADC.c ****     ADC_SAR_RANGE_THRES_REG |= (uint32)(highLimit << ADC_RANGE_HIGH_OFFSET);
 749              		.loc 1 617 0
 750 000c 1368     		ldr	r3, [r2]
 751 000e 1843     		orrs	r0, r3
 752 0010 1060     		str	r0, [r2]
 753              		.loc 1 618 0
 754 0012 7047     		bx	lr
 755              	.L65:
 756              		.align	2
 757              	.L64:
 758 0014 18003A40 		.word	1077542936
 759              		.cfi_endproc
 760              	.LFE11:
 761              		.size	ADC_SetHighLimit, .-ADC_SetHighLimit
 762              		.section	.text.ADC_SetLimitMask,"ax",%progbits
 763              		.align	2
 764              		.global	ADC_SetLimitMask
 765              		.code	16
 766              		.thumb_func
 767              		.type	ADC_SetLimitMask, %function
 768              	ADC_SetLimitMask:
 769              	.LFB12:
 619:Generated_Source\PSoC4/ADC.c **** 
 620:Generated_Source\PSoC4/ADC.c **** 
 621:Generated_Source\PSoC4/ADC.c **** /*******************************************************************************
 622:Generated_Source\PSoC4/ADC.c **** * Function Name: ADC_SetLimitMask
 623:Generated_Source\PSoC4/ADC.c **** ********************************************************************************
 624:Generated_Source\PSoC4/ADC.c **** *
 625:Generated_Source\PSoC4/ADC.c **** * Summary:
ARM GAS  C:\Users\Rajesh\AppData\Local\Temp\ccDogWTk.s 			page 27


 626:Generated_Source\PSoC4/ADC.c **** *  Sets the channel limit condition mask.
 627:Generated_Source\PSoC4/ADC.c **** *
 628:Generated_Source\PSoC4/ADC.c **** * Parameters:
 629:Generated_Source\PSoC4/ADC.c **** *  mask: Sets which channels that may cause a
 630:Generated_Source\PSoC4/ADC.c **** *  limit condition interrupt. Setting bits for channels that do not exist
 631:Generated_Source\PSoC4/ADC.c **** *  will have no effect. For example, if only 6 channels were enabled,
 632:Generated_Source\PSoC4/ADC.c **** *  setting a mask of 0x0103 would only enable the last two channels (0 and 1).
 633:Generated_Source\PSoC4/ADC.c **** *
 634:Generated_Source\PSoC4/ADC.c **** * Return:
 635:Generated_Source\PSoC4/ADC.c **** *  None.
 636:Generated_Source\PSoC4/ADC.c **** *
 637:Generated_Source\PSoC4/ADC.c **** *******************************************************************************/
 638:Generated_Source\PSoC4/ADC.c **** void ADC_SetLimitMask(uint32 mask)
 639:Generated_Source\PSoC4/ADC.c **** {
 770              		.loc 1 639 0
 771              		.cfi_startproc
 772              		@ args = 0, pretend = 0, frame = 0
 773              		@ frame_needed = 0, uses_anonymous_args = 0
 774              		@ link register save eliminated.
 775              	.LVL42:
 640:Generated_Source\PSoC4/ADC.c ****     ADC_SAR_RANGE_INTR_MASK_REG = mask & ADC_MAX_CHANNELS_EN_MASK;
 776              		.loc 1 640 0
 777 0000 0123     		movs	r3, #1
 778 0002 1840     		ands	r0, r3
 779              	.LVL43:
 780 0004 014B     		ldr	r3, .L67
 641:Generated_Source\PSoC4/ADC.c **** }
 781              		.loc 1 641 0
 782              		@ sp needed
 640:Generated_Source\PSoC4/ADC.c ****     ADC_SAR_RANGE_INTR_MASK_REG = mask & ADC_MAX_CHANNELS_EN_MASK;
 783              		.loc 1 640 0
 784 0006 1860     		str	r0, [r3]
 785              		.loc 1 641 0
 786 0008 7047     		bx	lr
 787              	.L68:
 788 000a C046     		.align	2
 789              	.L67:
 790 000c 38023A40 		.word	1077543480
 791              		.cfi_endproc
 792              	.LFE12:
 793              		.size	ADC_SetLimitMask, .-ADC_SetLimitMask
 794              		.section	.text.ADC_SetSatMask,"ax",%progbits
 795              		.align	2
 796              		.global	ADC_SetSatMask
 797              		.code	16
 798              		.thumb_func
 799              		.type	ADC_SetSatMask, %function
 800              	ADC_SetSatMask:
 801              	.LFB13:
 642:Generated_Source\PSoC4/ADC.c **** 
 643:Generated_Source\PSoC4/ADC.c **** 
 644:Generated_Source\PSoC4/ADC.c **** /*******************************************************************************
 645:Generated_Source\PSoC4/ADC.c **** * Function Name: ADC_SetSatMask
 646:Generated_Source\PSoC4/ADC.c **** ********************************************************************************
 647:Generated_Source\PSoC4/ADC.c **** *
 648:Generated_Source\PSoC4/ADC.c **** * Summary:
 649:Generated_Source\PSoC4/ADC.c **** *  Sets the channel saturation event mask.
ARM GAS  C:\Users\Rajesh\AppData\Local\Temp\ccDogWTk.s 			page 28


 650:Generated_Source\PSoC4/ADC.c **** *
 651:Generated_Source\PSoC4/ADC.c **** * Parameters:
 652:Generated_Source\PSoC4/ADC.c **** *  mask: Sets which channels that may cause a
 653:Generated_Source\PSoC4/ADC.c **** *  saturation event interrupt. Setting bits for channels that do not exist
 654:Generated_Source\PSoC4/ADC.c **** *  will have no effect. For example, if only 8 channels were enabled,
 655:Generated_Source\PSoC4/ADC.c **** *  setting a mask of 0x01C0 would only enable two channels (6 and 7).
 656:Generated_Source\PSoC4/ADC.c **** *
 657:Generated_Source\PSoC4/ADC.c **** * Return:
 658:Generated_Source\PSoC4/ADC.c **** *  None.
 659:Generated_Source\PSoC4/ADC.c **** *
 660:Generated_Source\PSoC4/ADC.c **** *******************************************************************************/
 661:Generated_Source\PSoC4/ADC.c **** void ADC_SetSatMask(uint32 mask)
 662:Generated_Source\PSoC4/ADC.c **** {
 802              		.loc 1 662 0
 803              		.cfi_startproc
 804              		@ args = 0, pretend = 0, frame = 0
 805              		@ frame_needed = 0, uses_anonymous_args = 0
 806              		@ link register save eliminated.
 807              	.LVL44:
 663:Generated_Source\PSoC4/ADC.c ****     ADC_SAR_SATURATE_INTR_MASK_REG = mask & ADC_MAX_CHANNELS_EN_MASK;
 808              		.loc 1 663 0
 809 0000 0123     		movs	r3, #1
 810 0002 1840     		ands	r0, r3
 811              	.LVL45:
 812 0004 014B     		ldr	r3, .L70
 664:Generated_Source\PSoC4/ADC.c **** }
 813              		.loc 1 664 0
 814              		@ sp needed
 663:Generated_Source\PSoC4/ADC.c ****     ADC_SAR_SATURATE_INTR_MASK_REG = mask & ADC_MAX_CHANNELS_EN_MASK;
 815              		.loc 1 663 0
 816 0006 1860     		str	r0, [r3]
 817              		.loc 1 664 0
 818 0008 7047     		bx	lr
 819              	.L71:
 820 000a C046     		.align	2
 821              	.L70:
 822 000c 28023A40 		.word	1077543464
 823              		.cfi_endproc
 824              	.LFE13:
 825              		.size	ADC_SetSatMask, .-ADC_SetSatMask
 826              		.section	.text.ADC_SetOffset,"ax",%progbits
 827              		.align	2
 828              		.global	ADC_SetOffset
 829              		.code	16
 830              		.thumb_func
 831              		.type	ADC_SetOffset, %function
 832              	ADC_SetOffset:
 833              	.LFB14:
 665:Generated_Source\PSoC4/ADC.c **** 
 666:Generated_Source\PSoC4/ADC.c **** 
 667:Generated_Source\PSoC4/ADC.c **** /*******************************************************************************
 668:Generated_Source\PSoC4/ADC.c **** * Function Name: ADC_SetOffset
 669:Generated_Source\PSoC4/ADC.c **** ********************************************************************************
 670:Generated_Source\PSoC4/ADC.c **** *
 671:Generated_Source\PSoC4/ADC.c **** * Summary:
 672:Generated_Source\PSoC4/ADC.c **** *   Description: Sets the ADC offset which is used by the functions
 673:Generated_Source\PSoC4/ADC.c **** *   ADC_CountsTo_uVolts, ADC_CountsTo_mVolts and ADC_CountsTo_Volts
ARM GAS  C:\Users\Rajesh\AppData\Local\Temp\ccDogWTk.s 			page 29


 674:Generated_Source\PSoC4/ADC.c **** *   to substract the offset from the given reading
 675:Generated_Source\PSoC4/ADC.c **** *   before calculating the voltage conversion.
 676:Generated_Source\PSoC4/ADC.c **** *
 677:Generated_Source\PSoC4/ADC.c **** * Parameters:
 678:Generated_Source\PSoC4/ADC.c **** *  chan: ADC channel number.
 679:Generated_Source\PSoC4/ADC.c **** *  offset: This value is a measured value when the
 680:Generated_Source\PSoC4/ADC.c **** *          inputs are shorted or connected to the same input voltage.
 681:Generated_Source\PSoC4/ADC.c **** *
 682:Generated_Source\PSoC4/ADC.c **** * Return:
 683:Generated_Source\PSoC4/ADC.c **** *  None.
 684:Generated_Source\PSoC4/ADC.c **** *
 685:Generated_Source\PSoC4/ADC.c **** * Global variables:
 686:Generated_Source\PSoC4/ADC.c **** *  ADC_Offset:  Modified to set the user provided offset.
 687:Generated_Source\PSoC4/ADC.c **** *
 688:Generated_Source\PSoC4/ADC.c **** *******************************************************************************/
 689:Generated_Source\PSoC4/ADC.c **** void ADC_SetOffset(uint32 chan, int16 offset)
 690:Generated_Source\PSoC4/ADC.c **** {
 834              		.loc 1 690 0
 835              		.cfi_startproc
 836              		@ args = 0, pretend = 0, frame = 0
 837              		@ frame_needed = 0, uses_anonymous_args = 0
 838              	.LVL46:
 839 0000 70B5     		push	{r4, r5, r6, lr}
 840              		.cfi_def_cfa_offset 16
 841              		.cfi_offset 4, -16
 842              		.cfi_offset 5, -12
 843              		.cfi_offset 6, -8
 844              		.cfi_offset 14, -4
 845              		.loc 1 690 0
 846 0002 0400     		movs	r4, r0
 847 0004 0D00     		movs	r5, r1
 691:Generated_Source\PSoC4/ADC.c ****     /* Halt CPU in debug mode if channel is out of valid range */
 692:Generated_Source\PSoC4/ADC.c ****     CYASSERT(chan < ADC_TOTAL_CHANNELS_NUM);
 848              		.loc 1 692 0
 849 0006 0028     		cmp	r0, #0
 850 0008 02D0     		beq	.L73
 851              		.loc 1 692 0 is_stmt 0 discriminator 1
 852 000a 0020     		movs	r0, #0
 853              	.LVL47:
 854 000c FFF7FEFF 		bl	CyHalt
 855              	.LVL48:
 856              	.L73:
 693:Generated_Source\PSoC4/ADC.c **** 
 694:Generated_Source\PSoC4/ADC.c ****     ADC_offset[chan] = offset;
 857              		.loc 1 694 0 is_stmt 1
 858 0010 014B     		ldr	r3, .L77
 859 0012 6400     		lsls	r4, r4, #1
 860              	.LVL49:
 861 0014 E552     		strh	r5, [r4, r3]
 695:Generated_Source\PSoC4/ADC.c **** }
 862              		.loc 1 695 0
 863              		@ sp needed
 864 0016 70BD     		pop	{r4, r5, r6, pc}
 865              	.L78:
 866              		.align	2
 867              	.L77:
 868 0018 00000000 		.word	ADC_offset
ARM GAS  C:\Users\Rajesh\AppData\Local\Temp\ccDogWTk.s 			page 30


 869              		.cfi_endproc
 870              	.LFE14:
 871              		.size	ADC_SetOffset, .-ADC_SetOffset
 872              		.section	.text.ADC_SetGain,"ax",%progbits
 873              		.align	2
 874              		.global	ADC_SetGain
 875              		.code	16
 876              		.thumb_func
 877              		.type	ADC_SetGain, %function
 878              	ADC_SetGain:
 879              	.LFB15:
 696:Generated_Source\PSoC4/ADC.c **** 
 697:Generated_Source\PSoC4/ADC.c **** 
 698:Generated_Source\PSoC4/ADC.c **** /*******************************************************************************
 699:Generated_Source\PSoC4/ADC.c **** * Function Name: ADC_SetGain
 700:Generated_Source\PSoC4/ADC.c **** ********************************************************************************
 701:Generated_Source\PSoC4/ADC.c **** *
 702:Generated_Source\PSoC4/ADC.c **** * Summary:
 703:Generated_Source\PSoC4/ADC.c **** *  Description: Sets the ADC gain in counts per 10 volt for the voltage
 704:Generated_Source\PSoC4/ADC.c **** *  conversion functions below. This value is set by default by the
 705:Generated_Source\PSoC4/ADC.c **** *  reference and input range settings. It should only be used to further
 706:Generated_Source\PSoC4/ADC.c **** *  calibrate the ADC with a known input or if an external reference is
 707:Generated_Source\PSoC4/ADC.c **** *  used. Affects the ADC_CountsTo_uVolts, ADC_CountsTo_mVolts
 708:Generated_Source\PSoC4/ADC.c **** *  and ADC_CountsTo_Volts functions by supplying the correct
 709:Generated_Source\PSoC4/ADC.c **** *  conversion between ADC counts and voltage.
 710:Generated_Source\PSoC4/ADC.c **** *
 711:Generated_Source\PSoC4/ADC.c **** * Parameters:
 712:Generated_Source\PSoC4/ADC.c **** *  chan: ADC channel number.
 713:Generated_Source\PSoC4/ADC.c **** *  adcGain: ADC gain in counts per 10 volts.
 714:Generated_Source\PSoC4/ADC.c **** *
 715:Generated_Source\PSoC4/ADC.c **** * Return:
 716:Generated_Source\PSoC4/ADC.c **** *  None.
 717:Generated_Source\PSoC4/ADC.c **** *
 718:Generated_Source\PSoC4/ADC.c **** * Global variables:
 719:Generated_Source\PSoC4/ADC.c **** *  ADC_CountsPer10Volt:  modified to set the ADC gain in counts
 720:Generated_Source\PSoC4/ADC.c **** *   per 10 volt.
 721:Generated_Source\PSoC4/ADC.c **** *
 722:Generated_Source\PSoC4/ADC.c **** *******************************************************************************/
 723:Generated_Source\PSoC4/ADC.c **** void ADC_SetGain(uint32 chan, int32 adcGain)
 724:Generated_Source\PSoC4/ADC.c **** {
 880              		.loc 1 724 0
 881              		.cfi_startproc
 882              		@ args = 0, pretend = 0, frame = 0
 883              		@ frame_needed = 0, uses_anonymous_args = 0
 884              	.LVL50:
 885 0000 70B5     		push	{r4, r5, r6, lr}
 886              		.cfi_def_cfa_offset 16
 887              		.cfi_offset 4, -16
 888              		.cfi_offset 5, -12
 889              		.cfi_offset 6, -8
 890              		.cfi_offset 14, -4
 891              		.loc 1 724 0
 892 0002 0400     		movs	r4, r0
 893 0004 0D00     		movs	r5, r1
 725:Generated_Source\PSoC4/ADC.c ****     /* Halt CPU in debug mode if channel is out of valid range */
 726:Generated_Source\PSoC4/ADC.c ****     CYASSERT(chan < ADC_TOTAL_CHANNELS_NUM);
 894              		.loc 1 726 0
ARM GAS  C:\Users\Rajesh\AppData\Local\Temp\ccDogWTk.s 			page 31


 895 0006 0028     		cmp	r0, #0
 896 0008 02D0     		beq	.L80
 897              		.loc 1 726 0 is_stmt 0 discriminator 1
 898 000a 0020     		movs	r0, #0
 899              	.LVL51:
 900 000c FFF7FEFF 		bl	CyHalt
 901              	.LVL52:
 902              	.L80:
 727:Generated_Source\PSoC4/ADC.c **** 
 728:Generated_Source\PSoC4/ADC.c ****     ADC_countsPer10Volt[chan] = adcGain;
 903              		.loc 1 728 0 is_stmt 1
 904 0010 014B     		ldr	r3, .L84
 905 0012 A400     		lsls	r4, r4, #2
 906              	.LVL53:
 907 0014 E550     		str	r5, [r4, r3]
 729:Generated_Source\PSoC4/ADC.c **** }
 908              		.loc 1 729 0
 909              		@ sp needed
 910              	.LVL54:
 911 0016 70BD     		pop	{r4, r5, r6, pc}
 912              	.L85:
 913              		.align	2
 914              	.L84:
 915 0018 00000000 		.word	ADC_countsPer10Volt
 916              		.cfi_endproc
 917              	.LFE15:
 918              		.size	ADC_SetGain, .-ADC_SetGain
 919              		.global	__aeabi_idiv
 920              		.section	.text.ADC_CountsTo_mVolts,"ax",%progbits
 921              		.align	2
 922              		.global	ADC_CountsTo_mVolts
 923              		.code	16
 924              		.thumb_func
 925              		.type	ADC_CountsTo_mVolts, %function
 926              	ADC_CountsTo_mVolts:
 927              	.LFB16:
 730:Generated_Source\PSoC4/ADC.c **** 
 731:Generated_Source\PSoC4/ADC.c **** 
 732:Generated_Source\PSoC4/ADC.c **** #if(ADC_DEFAULT_JUSTIFICATION_SEL == ADC__RIGHT)
 733:Generated_Source\PSoC4/ADC.c **** 
 734:Generated_Source\PSoC4/ADC.c **** 
 735:Generated_Source\PSoC4/ADC.c ****     /*******************************************************************************
 736:Generated_Source\PSoC4/ADC.c ****     * Function Name: ADC_CountsTo_mVolts
 737:Generated_Source\PSoC4/ADC.c ****     ********************************************************************************
 738:Generated_Source\PSoC4/ADC.c ****     *
 739:Generated_Source\PSoC4/ADC.c ****     * Summary:
 740:Generated_Source\PSoC4/ADC.c ****     *  This function converts ADC counts to mVolts
 741:Generated_Source\PSoC4/ADC.c ****     *  This function is not available when left data format justification selected.
 742:Generated_Source\PSoC4/ADC.c ****     *
 743:Generated_Source\PSoC4/ADC.c ****     * Parameters:
 744:Generated_Source\PSoC4/ADC.c ****     *  chan: The ADC channel number.
 745:Generated_Source\PSoC4/ADC.c ****     *  adcCounts: Result from the ADC conversion
 746:Generated_Source\PSoC4/ADC.c ****     *
 747:Generated_Source\PSoC4/ADC.c ****     * Return:
 748:Generated_Source\PSoC4/ADC.c ****     *  Results in mVolts
 749:Generated_Source\PSoC4/ADC.c ****     *
 750:Generated_Source\PSoC4/ADC.c ****     * Global variables:
ARM GAS  C:\Users\Rajesh\AppData\Local\Temp\ccDogWTk.s 			page 32


 751:Generated_Source\PSoC4/ADC.c ****     *  ADC_countsPer10Volt:  used to convert ADC counts to mVolts.
 752:Generated_Source\PSoC4/ADC.c ****     *  ADC_Offset:  Used as the offset while converting ADC counts
 753:Generated_Source\PSoC4/ADC.c ****     *   to mVolts.
 754:Generated_Source\PSoC4/ADC.c ****     *
 755:Generated_Source\PSoC4/ADC.c ****     *******************************************************************************/
 756:Generated_Source\PSoC4/ADC.c ****     int16 ADC_CountsTo_mVolts(uint32 chan, int16 adcCounts)
 757:Generated_Source\PSoC4/ADC.c ****     {
 928              		.loc 1 757 0
 929              		.cfi_startproc
 930              		@ args = 0, pretend = 0, frame = 0
 931              		@ frame_needed = 0, uses_anonymous_args = 0
 932              	.LVL55:
 933 0000 70B5     		push	{r4, r5, r6, lr}
 934              		.cfi_def_cfa_offset 16
 935              		.cfi_offset 4, -16
 936              		.cfi_offset 5, -12
 937              		.cfi_offset 6, -8
 938              		.cfi_offset 14, -4
 939              		.loc 1 757 0
 940 0002 0500     		movs	r5, r0
 941 0004 0C00     		movs	r4, r1
 758:Generated_Source\PSoC4/ADC.c ****         int16 mVolts;
 759:Generated_Source\PSoC4/ADC.c **** 
 760:Generated_Source\PSoC4/ADC.c ****         /* Halt CPU in debug mode if channel is out of valid range */
 761:Generated_Source\PSoC4/ADC.c ****         CYASSERT(chan < ADC_TOTAL_CHANNELS_NUM);
 942              		.loc 1 761 0
 943 0006 0028     		cmp	r0, #0
 944 0008 1CD1     		bne	.L93
 945              	.LVL56:
 946              	.L87:
 762:Generated_Source\PSoC4/ADC.c **** 
 763:Generated_Source\PSoC4/ADC.c ****         /* Divide the adcCount when accumulate averaging mode selected */
 764:Generated_Source\PSoC4/ADC.c ****         #if(ADC_DEFAULT_AVG_MODE == ADC__ACCUMULATE)
 765:Generated_Source\PSoC4/ADC.c ****             if((ADC_channelsConfig[chan] & ADC_AVERAGING_EN) != 0u)
 766:Generated_Source\PSoC4/ADC.c ****             {
 767:Generated_Source\PSoC4/ADC.c ****                 adcCounts /= ADC_DEFAULT_AVG_SAMPLES_DIV;
 768:Generated_Source\PSoC4/ADC.c ****             }
 769:Generated_Source\PSoC4/ADC.c ****         #endif /* ADC_DEFAULT_AVG_MODE == ADC__ACCUMULATE */
 770:Generated_Source\PSoC4/ADC.c **** 
 771:Generated_Source\PSoC4/ADC.c ****         /* Subtract ADC offset */
 772:Generated_Source\PSoC4/ADC.c ****         adcCounts -= ADC_offset[chan];
 947              		.loc 1 772 0
 948 000a 104A     		ldr	r2, .L94
 949 000c 6B00     		lsls	r3, r5, #1
 950 000e 995A     		ldrh	r1, [r3, r2]
 773:Generated_Source\PSoC4/ADC.c **** 
 774:Generated_Source\PSoC4/ADC.c ****         mVolts = (int16)((((int32)adcCounts * ADC_10MV_COUNTS) + ( (adcCounts > 0) ?
 951              		.loc 1 774 0
 952 0010 0F48     		ldr	r0, .L94+4
 772:Generated_Source\PSoC4/ADC.c **** 
 953              		.loc 1 772 0
 954 0012 611A     		subs	r1, r4, r1
 955 0014 09B2     		sxth	r1, r1
 956              	.LVL57:
 957              		.loc 1 774 0
 958 0016 4843     		muls	r0, r1
 775:Generated_Source\PSoC4/ADC.c ****                  (ADC_countsPer10Volt[chan] / 2) : (-(ADC_countsPer10Volt[chan] / 2)) ))
ARM GAS  C:\Users\Rajesh\AppData\Local\Temp\ccDogWTk.s 			page 33


 959              		.loc 1 775 0
 960 0018 0029     		cmp	r1, #0
 961 001a 0BDD     		ble	.L88
 962              		.loc 1 775 0 is_stmt 0 discriminator 1
 963 001c 0D49     		ldr	r1, .L94+8
 964              	.LVL58:
 965 001e AD00     		lsls	r5, r5, #2
 966              	.LVL59:
 967 0020 4A59     		ldr	r2, [r1, r5]
 968 0022 D30F     		lsrs	r3, r2, #31
 969 0024 9A18     		adds	r2, r3, r2
 970 0026 5310     		asrs	r3, r2, #1
 971              	.L89:
 776:Generated_Source\PSoC4/ADC.c ****                  / ADC_countsPer10Volt[chan]);
 972              		.loc 1 776 0 is_stmt 1
 973 0028 4959     		ldr	r1, [r1, r5]
 974              	.LVL60:
 777:Generated_Source\PSoC4/ADC.c **** 
 778:Generated_Source\PSoC4/ADC.c ****         return( mVolts );
 975              		.loc 1 778 0
 976 002a 1818     		adds	r0, r3, r0
 977              	.LVL61:
 978 002c FFF7FEFF 		bl	__aeabi_idiv
 979              	.LVL62:
 779:Generated_Source\PSoC4/ADC.c ****     }
 980              		.loc 1 779 0
 981              		@ sp needed
 778:Generated_Source\PSoC4/ADC.c ****     }
 982              		.loc 1 778 0
 983 0030 00B2     		sxth	r0, r0
 984              		.loc 1 779 0
 985 0032 70BD     		pop	{r4, r5, r6, pc}
 986              	.LVL63:
 987              	.L88:
 775:Generated_Source\PSoC4/ADC.c ****                  / ADC_countsPer10Volt[chan]);
 988              		.loc 1 775 0 discriminator 2
 989 0034 0749     		ldr	r1, .L94+8
 990              	.LVL64:
 991 0036 AD00     		lsls	r5, r5, #2
 992              	.LVL65:
 993 0038 4A59     		ldr	r2, [r1, r5]
 994 003a D30F     		lsrs	r3, r2, #31
 995 003c 9A18     		adds	r2, r3, r2
 996 003e 5210     		asrs	r2, r2, #1
 997 0040 5342     		rsbs	r3, r2, #0
 998 0042 F1E7     		b	.L89
 999              	.LVL66:
 1000              	.L93:
 761:Generated_Source\PSoC4/ADC.c **** 
 1001              		.loc 1 761 0 discriminator 1
 1002 0044 0020     		movs	r0, #0
 1003              	.LVL67:
 1004 0046 FFF7FEFF 		bl	CyHalt
 1005              	.LVL68:
 1006 004a DEE7     		b	.L87
 1007              	.L95:
 1008              		.align	2
ARM GAS  C:\Users\Rajesh\AppData\Local\Temp\ccDogWTk.s 			page 34


 1009              	.L94:
 1010 004c 00000000 		.word	ADC_offset
 1011 0050 10270000 		.word	10000
 1012 0054 00000000 		.word	ADC_countsPer10Volt
 1013              		.cfi_endproc
 1014              	.LFE16:
 1015              		.size	ADC_CountsTo_mVolts, .-ADC_CountsTo_mVolts
 1016              		.global	__aeabi_lmul
 1017              		.global	__aeabi_ldivmod
 1018              		.section	.text.ADC_CountsTo_uVolts,"ax",%progbits
 1019              		.align	2
 1020              		.global	ADC_CountsTo_uVolts
 1021              		.code	16
 1022              		.thumb_func
 1023              		.type	ADC_CountsTo_uVolts, %function
 1024              	ADC_CountsTo_uVolts:
 1025              	.LFB17:
 780:Generated_Source\PSoC4/ADC.c **** 
 781:Generated_Source\PSoC4/ADC.c **** 
 782:Generated_Source\PSoC4/ADC.c ****     /*******************************************************************************
 783:Generated_Source\PSoC4/ADC.c ****     * Function Name: ADC_CountsTo_uVolts
 784:Generated_Source\PSoC4/ADC.c ****     ********************************************************************************
 785:Generated_Source\PSoC4/ADC.c ****     *
 786:Generated_Source\PSoC4/ADC.c ****     * Summary:
 787:Generated_Source\PSoC4/ADC.c ****     *  This function converts ADC counts to micro Volts
 788:Generated_Source\PSoC4/ADC.c ****     *  This function is not available when left data format justification selected.
 789:Generated_Source\PSoC4/ADC.c ****     *
 790:Generated_Source\PSoC4/ADC.c ****     * Parameters:
 791:Generated_Source\PSoC4/ADC.c ****     *  chan: The ADC channel number.
 792:Generated_Source\PSoC4/ADC.c ****     *  adcCounts: Result from the ADC conversion
 793:Generated_Source\PSoC4/ADC.c ****     *
 794:Generated_Source\PSoC4/ADC.c ****     * Return:
 795:Generated_Source\PSoC4/ADC.c ****     *  Results in uVolts
 796:Generated_Source\PSoC4/ADC.c ****     *
 797:Generated_Source\PSoC4/ADC.c ****     * Global variables:
 798:Generated_Source\PSoC4/ADC.c ****     *  ADC_countsPer10Volt:  used to convert ADC counts to uVolts.
 799:Generated_Source\PSoC4/ADC.c ****     *  ADC_Offset:  Used as the offset while converting ADC counts
 800:Generated_Source\PSoC4/ADC.c ****     *   to mVolts.
 801:Generated_Source\PSoC4/ADC.c ****     *
 802:Generated_Source\PSoC4/ADC.c ****     * Theory:
 803:Generated_Source\PSoC4/ADC.c ****     *  Care must be taken to not exceed the maximum value for a 31 bit signed
 804:Generated_Source\PSoC4/ADC.c ****     *  number in the conversion to uVolts and at the same time not loose
 805:Generated_Source\PSoC4/ADC.c ****     *  resolution.
 806:Generated_Source\PSoC4/ADC.c ****     *  To convert adcCounts to microVolts it is required to be multiplied
 807:Generated_Source\PSoC4/ADC.c ****     *  on 10 million and later divide on gain in counts per 10V.
 808:Generated_Source\PSoC4/ADC.c ****     *
 809:Generated_Source\PSoC4/ADC.c ****     *******************************************************************************/
 810:Generated_Source\PSoC4/ADC.c ****     int32 ADC_CountsTo_uVolts(uint32 chan, int16 adcCounts)
 811:Generated_Source\PSoC4/ADC.c ****     {
 1026              		.loc 1 811 0
 1027              		.cfi_startproc
 1028              		@ args = 0, pretend = 0, frame = 0
 1029              		@ frame_needed = 0, uses_anonymous_args = 0
 1030              	.LVL69:
 1031 0000 70B5     		push	{r4, r5, r6, lr}
 1032              		.cfi_def_cfa_offset 16
 1033              		.cfi_offset 4, -16
ARM GAS  C:\Users\Rajesh\AppData\Local\Temp\ccDogWTk.s 			page 35


 1034              		.cfi_offset 5, -12
 1035              		.cfi_offset 6, -8
 1036              		.cfi_offset 14, -4
 1037              		.loc 1 811 0
 1038 0002 0500     		movs	r5, r0
 1039 0004 0C00     		movs	r4, r1
 812:Generated_Source\PSoC4/ADC.c ****         int64 uVolts;
 813:Generated_Source\PSoC4/ADC.c **** 
 814:Generated_Source\PSoC4/ADC.c ****         /* Halt CPU in debug mode if channel is out of valid range */
 815:Generated_Source\PSoC4/ADC.c ****         CYASSERT(chan < ADC_TOTAL_CHANNELS_NUM);
 1040              		.loc 1 815 0
 1041 0006 0028     		cmp	r0, #0
 1042 0008 02D0     		beq	.L97
 1043              		.loc 1 815 0 is_stmt 0 discriminator 1
 1044 000a 0020     		movs	r0, #0
 1045              	.LVL70:
 1046 000c FFF7FEFF 		bl	CyHalt
 1047              	.LVL71:
 1048              	.L97:
 816:Generated_Source\PSoC4/ADC.c **** 
 817:Generated_Source\PSoC4/ADC.c ****         /* Divide the adcCount when accumulate averaging mode selected */
 818:Generated_Source\PSoC4/ADC.c ****         #if(ADC_DEFAULT_AVG_MODE == ADC__ACCUMULATE)
 819:Generated_Source\PSoC4/ADC.c ****             if((ADC_channelsConfig[chan] & ADC_AVERAGING_EN) != 0u)
 820:Generated_Source\PSoC4/ADC.c ****             {
 821:Generated_Source\PSoC4/ADC.c ****                 adcCounts /= ADC_DEFAULT_AVG_SAMPLES_DIV;
 822:Generated_Source\PSoC4/ADC.c ****             }
 823:Generated_Source\PSoC4/ADC.c ****         #endif /* ADC_DEFAULT_AVG_MODE == ADC__ACCUMULATE */
 824:Generated_Source\PSoC4/ADC.c **** 
 825:Generated_Source\PSoC4/ADC.c ****         /* Subtract ADC offset */
 826:Generated_Source\PSoC4/ADC.c ****         adcCounts -= ADC_offset[chan];
 1049              		.loc 1 826 0 is_stmt 1
 1050 0010 084B     		ldr	r3, .L101
 1051 0012 6A00     		lsls	r2, r5, #1
 1052 0014 D05A     		ldrh	r0, [r2, r3]
 827:Generated_Source\PSoC4/ADC.c **** 
 828:Generated_Source\PSoC4/ADC.c ****         uVolts = ((int64)adcCounts * ADC_10UV_COUNTS) / ADC_countsPer10Volt[chan];
 1053              		.loc 1 828 0
 1054 0016 084B     		ldr	r3, .L101+4
 826:Generated_Source\PSoC4/ADC.c **** 
 1055              		.loc 1 826 0
 1056 0018 241A     		subs	r4, r4, r0
 1057              	.LVL72:
 1058              		.loc 1 828 0
 1059 001a AD00     		lsls	r5, r5, #2
 1060              	.LVL73:
 1061 001c ED58     		ldr	r5, [r5, r3]
 1062              	.LVL74:
 829:Generated_Source\PSoC4/ADC.c **** 
 830:Generated_Source\PSoC4/ADC.c ****         return( (int32)uVolts );
 1063              		.loc 1 830 0
 1064 001e 20B2     		sxth	r0, r4
 1065 0020 064A     		ldr	r2, .L101+8
 1066 0022 0023     		movs	r3, #0
 1067 0024 C117     		asrs	r1, r0, #31
 1068 0026 FFF7FEFF 		bl	__aeabi_lmul
 1069              	.LVL75:
 1070 002a EB17     		asrs	r3, r5, #31
ARM GAS  C:\Users\Rajesh\AppData\Local\Temp\ccDogWTk.s 			page 36


 1071 002c 2A00     		movs	r2, r5
 1072 002e FFF7FEFF 		bl	__aeabi_ldivmod
 1073              	.LVL76:
 831:Generated_Source\PSoC4/ADC.c ****     }
 1074              		.loc 1 831 0
 1075              		@ sp needed
 1076              	.LVL77:
 1077 0032 70BD     		pop	{r4, r5, r6, pc}
 1078              	.L102:
 1079              		.align	2
 1080              	.L101:
 1081 0034 00000000 		.word	ADC_offset
 1082 0038 00000000 		.word	ADC_countsPer10Volt
 1083 003c 80969800 		.word	10000000
 1084              		.cfi_endproc
 1085              	.LFE17:
 1086              		.size	ADC_CountsTo_uVolts, .-ADC_CountsTo_uVolts
 1087              		.global	__aeabi_i2f
 1088              		.global	__aeabi_fmul
 1089              		.global	__aeabi_fdiv
 1090              		.section	.text.ADC_CountsTo_Volts,"ax",%progbits
 1091              		.align	2
 1092              		.global	ADC_CountsTo_Volts
 1093              		.code	16
 1094              		.thumb_func
 1095              		.type	ADC_CountsTo_Volts, %function
 1096              	ADC_CountsTo_Volts:
 1097              	.LFB18:
 832:Generated_Source\PSoC4/ADC.c **** 
 833:Generated_Source\PSoC4/ADC.c **** 
 834:Generated_Source\PSoC4/ADC.c ****     /*******************************************************************************
 835:Generated_Source\PSoC4/ADC.c ****     * Function Name: ADC_CountsTo_Volts
 836:Generated_Source\PSoC4/ADC.c ****     ********************************************************************************
 837:Generated_Source\PSoC4/ADC.c ****     *
 838:Generated_Source\PSoC4/ADC.c ****     * Summary:
 839:Generated_Source\PSoC4/ADC.c ****     *  Converts the ADC output to Volts as a floating point number.
 840:Generated_Source\PSoC4/ADC.c ****     *  This function is not available when left data format justification selected.
 841:Generated_Source\PSoC4/ADC.c ****     *
 842:Generated_Source\PSoC4/ADC.c ****     * Parameters:
 843:Generated_Source\PSoC4/ADC.c ****     *  chan: The ADC channel number.
 844:Generated_Source\PSoC4/ADC.c ****     *  Result from the ADC conversion
 845:Generated_Source\PSoC4/ADC.c ****     *
 846:Generated_Source\PSoC4/ADC.c ****     * Return:
 847:Generated_Source\PSoC4/ADC.c ****     *  Results in Volts
 848:Generated_Source\PSoC4/ADC.c ****     *
 849:Generated_Source\PSoC4/ADC.c ****     * Global variables:
 850:Generated_Source\PSoC4/ADC.c ****     *  ADC_countsPer10Volt:  used to convert ADC counts to Volts.
 851:Generated_Source\PSoC4/ADC.c ****     *  ADC_Offset:  Used as the offset while converting ADC counts
 852:Generated_Source\PSoC4/ADC.c ****     *   to mVolts.
 853:Generated_Source\PSoC4/ADC.c ****     *
 854:Generated_Source\PSoC4/ADC.c ****     *******************************************************************************/
 855:Generated_Source\PSoC4/ADC.c ****     float32 ADC_CountsTo_Volts(uint32 chan, int16 adcCounts)
 856:Generated_Source\PSoC4/ADC.c ****     {
 1098              		.loc 1 856 0
 1099              		.cfi_startproc
 1100              		@ args = 0, pretend = 0, frame = 0
 1101              		@ frame_needed = 0, uses_anonymous_args = 0
ARM GAS  C:\Users\Rajesh\AppData\Local\Temp\ccDogWTk.s 			page 37


 1102              	.LVL78:
 1103 0000 70B5     		push	{r4, r5, r6, lr}
 1104              		.cfi_def_cfa_offset 16
 1105              		.cfi_offset 4, -16
 1106              		.cfi_offset 5, -12
 1107              		.cfi_offset 6, -8
 1108              		.cfi_offset 14, -4
 1109              		.loc 1 856 0
 1110 0002 0500     		movs	r5, r0
 1111 0004 0C00     		movs	r4, r1
 857:Generated_Source\PSoC4/ADC.c ****         float32 volts;
 858:Generated_Source\PSoC4/ADC.c **** 
 859:Generated_Source\PSoC4/ADC.c ****         /* Halt CPU in debug mode if channel is out of valid range */
 860:Generated_Source\PSoC4/ADC.c ****         CYASSERT(chan < ADC_TOTAL_CHANNELS_NUM);
 1112              		.loc 1 860 0
 1113 0006 0028     		cmp	r0, #0
 1114 0008 02D0     		beq	.L104
 1115              		.loc 1 860 0 is_stmt 0 discriminator 1
 1116 000a 0020     		movs	r0, #0
 1117              	.LVL79:
 1118 000c FFF7FEFF 		bl	CyHalt
 1119              	.LVL80:
 1120              	.L104:
 861:Generated_Source\PSoC4/ADC.c **** 
 862:Generated_Source\PSoC4/ADC.c ****         /* Divide the adcCount when accumulate averaging mode selected */
 863:Generated_Source\PSoC4/ADC.c ****         #if(ADC_DEFAULT_AVG_MODE == ADC__ACCUMULATE)
 864:Generated_Source\PSoC4/ADC.c ****             if((ADC_channelsConfig[chan] & ADC_AVERAGING_EN) != 0u)
 865:Generated_Source\PSoC4/ADC.c ****             {
 866:Generated_Source\PSoC4/ADC.c ****                 adcCounts /= ADC_DEFAULT_AVG_SAMPLES_DIV;
 867:Generated_Source\PSoC4/ADC.c ****             }
 868:Generated_Source\PSoC4/ADC.c ****         #endif /* ADC_DEFAULT_AVG_MODE == ADC__ACCUMULATE */
 869:Generated_Source\PSoC4/ADC.c **** 
 870:Generated_Source\PSoC4/ADC.c ****         /* Subtract ADC offset */
 871:Generated_Source\PSoC4/ADC.c ****         adcCounts -= ADC_offset[chan];
 1121              		.loc 1 871 0 is_stmt 1
 1122 0010 0A4B     		ldr	r3, .L108
 1123 0012 6A00     		lsls	r2, r5, #1
 1124 0014 D05A     		ldrh	r0, [r2, r3]
 872:Generated_Source\PSoC4/ADC.c **** 
 873:Generated_Source\PSoC4/ADC.c ****         volts = ((float32)adcCounts * ADC_10V_COUNTS) / (float32)ADC_countsPer10Volt[chan];
 1125              		.loc 1 873 0
 1126 0016 0A4B     		ldr	r3, .L108+4
 871:Generated_Source\PSoC4/ADC.c **** 
 1127              		.loc 1 871 0
 1128 0018 241A     		subs	r4, r4, r0
 1129              	.LVL81:
 874:Generated_Source\PSoC4/ADC.c **** 
 875:Generated_Source\PSoC4/ADC.c ****         return( volts );
 1130              		.loc 1 875 0
 1131 001a 20B2     		sxth	r0, r4
 873:Generated_Source\PSoC4/ADC.c **** 
 1132              		.loc 1 873 0
 1133 001c AD00     		lsls	r5, r5, #2
 1134              	.LVL82:
 1135 001e ED58     		ldr	r5, [r5, r3]
 1136              	.LVL83:
 1137              		.loc 1 875 0
ARM GAS  C:\Users\Rajesh\AppData\Local\Temp\ccDogWTk.s 			page 38


 1138 0020 FFF7FEFF 		bl	__aeabi_i2f
 1139              	.LVL84:
 1140 0024 0749     		ldr	r1, .L108+8
 1141 0026 FFF7FEFF 		bl	__aeabi_fmul
 1142              	.LVL85:
 1143 002a 041C     		adds	r4, r0, #0
 1144              	.LVL86:
 1145 002c 2800     		movs	r0, r5
 1146 002e FFF7FEFF 		bl	__aeabi_i2f
 1147              	.LVL87:
 1148 0032 011C     		adds	r1, r0, #0
 1149 0034 201C     		adds	r0, r4, #0
 1150 0036 FFF7FEFF 		bl	__aeabi_fdiv
 1151              	.LVL88:
 876:Generated_Source\PSoC4/ADC.c ****     }
 1152              		.loc 1 876 0
 1153              		@ sp needed
 1154 003a 70BD     		pop	{r4, r5, r6, pc}
 1155              	.L109:
 1156              		.align	2
 1157              	.L108:
 1158 003c 00000000 		.word	ADC_offset
 1159 0040 00000000 		.word	ADC_countsPer10Volt
 1160 0044 00002041 		.word	1092616192
 1161              		.cfi_endproc
 1162              	.LFE18:
 1163              		.size	ADC_CountsTo_Volts, .-ADC_CountsTo_Volts
 1164              		.comm	ADC_countsPer10Volt,4,4
 1165              		.comm	ADC_offset,2,4
 1166              		.global	ADC_initVar
 1167              		.bss
 1168              		.set	.LANCHOR0,. + 0
 1169              		.type	ADC_initVar, %object
 1170              		.size	ADC_initVar, 1
 1171              	ADC_initVar:
 1172 0000 00       		.space	1
 1173              		.text
 1174              	.Letext0:
 1175              		.file 2 "Generated_Source\\PSoC4\\cytypes.h"
 1176              		.file 3 "Generated_Source\\PSoC4\\CyLib.h"