ARM GAS  C:\Users\Rajesh\AppData\Local\Temp\cctwjHCa.s 			page 1


   1              		.syntax unified
   2              		.cpu cortex-m0
   3              		.fpu softvfp
   4              		.eabi_attribute 20, 1
   5              		.eabi_attribute 21, 1
   6              		.eabi_attribute 23, 3
   7              		.eabi_attribute 24, 1
   8              		.eabi_attribute 25, 1
   9              		.eabi_attribute 26, 1
  10              		.eabi_attribute 30, 2
  11              		.eabi_attribute 34, 0
  12              		.eabi_attribute 18, 4
  13              		.thumb
  14              		.syntax unified
  15              		.file	"ADC_PM.c"
  16              		.text
  17              	.Ltext0:
  18              		.cfi_sections	.debug_frame
  19              		.section	.text.ADC_SaveConfig,"ax",%progbits
  20              		.align	2
  21              		.global	ADC_SaveConfig
  22              		.code	16
  23              		.thumb_func
  24              		.type	ADC_SaveConfig, %function
  25              	ADC_SaveConfig:
  26              	.LFB6:
  27              		.cfi_startproc
  28              		@ args = 0, pretend = 0, frame = 0
  29              		@ frame_needed = 0, uses_anonymous_args = 0
  30              		@ link register save eliminated.
  31              		@ sp needed
  32 0000 7047     		bx	lr
  33              		.cfi_endproc
  34              	.LFE6:
  35              		.size	ADC_SaveConfig, .-ADC_SaveConfig
  36 0002 C046     		.section	.text.ADC_RestoreConfig,"ax",%progbits
  37              		.align	2
  38              		.global	ADC_RestoreConfig
  39              		.code	16
  40              		.thumb_func
  41              		.type	ADC_RestoreConfig, %function
  42              	ADC_RestoreConfig:
  43              	.LFB2:
  44              		.file 1 "Generated_Source\\PSoC4\\ADC_PM.c"
   1:Generated_Source\PSoC4/ADC_PM.c **** /*******************************************************************************
   2:Generated_Source\PSoC4/ADC_PM.c **** * File Name: ADC_PM.c
   3:Generated_Source\PSoC4/ADC_PM.c **** * Version 2.50
   4:Generated_Source\PSoC4/ADC_PM.c **** *
   5:Generated_Source\PSoC4/ADC_PM.c **** * Description:
   6:Generated_Source\PSoC4/ADC_PM.c **** *  This file provides Sleep/WakeUp APIs functionality.
   7:Generated_Source\PSoC4/ADC_PM.c **** *
   8:Generated_Source\PSoC4/ADC_PM.c **** * Note:
   9:Generated_Source\PSoC4/ADC_PM.c **** *
  10:Generated_Source\PSoC4/ADC_PM.c **** ********************************************************************************
  11:Generated_Source\PSoC4/ADC_PM.c **** * Copyright 2008-2017, Cypress Semiconductor Corporation.  All rights reserved.
  12:Generated_Source\PSoC4/ADC_PM.c **** * You may use this file only in accordance with the license, terms, conditions,
  13:Generated_Source\PSoC4/ADC_PM.c **** * disclaimers, and limitations in the end user license agreement accompanying
ARM GAS  C:\Users\Rajesh\AppData\Local\Temp\cctwjHCa.s 			page 2


  14:Generated_Source\PSoC4/ADC_PM.c **** * the software package with which this file was provided.
  15:Generated_Source\PSoC4/ADC_PM.c **** *******************************************************************************/
  16:Generated_Source\PSoC4/ADC_PM.c **** 
  17:Generated_Source\PSoC4/ADC_PM.c **** #include "ADC.h"
  18:Generated_Source\PSoC4/ADC_PM.c **** 
  19:Generated_Source\PSoC4/ADC_PM.c **** 
  20:Generated_Source\PSoC4/ADC_PM.c **** /***************************************
  21:Generated_Source\PSoC4/ADC_PM.c **** * Local data allocation
  22:Generated_Source\PSoC4/ADC_PM.c **** ***************************************/
  23:Generated_Source\PSoC4/ADC_PM.c **** 
  24:Generated_Source\PSoC4/ADC_PM.c **** static ADC_BACKUP_STRUCT  ADC_backup =
  25:Generated_Source\PSoC4/ADC_PM.c **** {
  26:Generated_Source\PSoC4/ADC_PM.c ****     ADC_DISABLED,
  27:Generated_Source\PSoC4/ADC_PM.c ****     0u    
  28:Generated_Source\PSoC4/ADC_PM.c **** };
  29:Generated_Source\PSoC4/ADC_PM.c **** 
  30:Generated_Source\PSoC4/ADC_PM.c **** 
  31:Generated_Source\PSoC4/ADC_PM.c **** /*******************************************************************************
  32:Generated_Source\PSoC4/ADC_PM.c **** * Function Name: ADC_SaveConfig
  33:Generated_Source\PSoC4/ADC_PM.c **** ********************************************************************************
  34:Generated_Source\PSoC4/ADC_PM.c **** *
  35:Generated_Source\PSoC4/ADC_PM.c **** * Summary:
  36:Generated_Source\PSoC4/ADC_PM.c **** *  Saves the current user configuration.
  37:Generated_Source\PSoC4/ADC_PM.c **** *
  38:Generated_Source\PSoC4/ADC_PM.c **** * Parameters:
  39:Generated_Source\PSoC4/ADC_PM.c **** *  None.
  40:Generated_Source\PSoC4/ADC_PM.c **** *
  41:Generated_Source\PSoC4/ADC_PM.c **** * Return:
  42:Generated_Source\PSoC4/ADC_PM.c **** *  None.
  43:Generated_Source\PSoC4/ADC_PM.c **** *
  44:Generated_Source\PSoC4/ADC_PM.c **** *******************************************************************************/
  45:Generated_Source\PSoC4/ADC_PM.c **** void ADC_SaveConfig(void)
  46:Generated_Source\PSoC4/ADC_PM.c **** {
  47:Generated_Source\PSoC4/ADC_PM.c ****     /* All configuration registers are marked as [reset_all_retention] */
  48:Generated_Source\PSoC4/ADC_PM.c **** }
  49:Generated_Source\PSoC4/ADC_PM.c **** 
  50:Generated_Source\PSoC4/ADC_PM.c **** 
  51:Generated_Source\PSoC4/ADC_PM.c **** /*******************************************************************************
  52:Generated_Source\PSoC4/ADC_PM.c **** * Function Name: ADC_RestoreConfig
  53:Generated_Source\PSoC4/ADC_PM.c **** ********************************************************************************
  54:Generated_Source\PSoC4/ADC_PM.c **** *
  55:Generated_Source\PSoC4/ADC_PM.c **** * Summary:
  56:Generated_Source\PSoC4/ADC_PM.c **** *  Restores the current user configuration.
  57:Generated_Source\PSoC4/ADC_PM.c **** *
  58:Generated_Source\PSoC4/ADC_PM.c **** * Parameters:
  59:Generated_Source\PSoC4/ADC_PM.c **** *  None.
  60:Generated_Source\PSoC4/ADC_PM.c **** *
  61:Generated_Source\PSoC4/ADC_PM.c **** * Return:
  62:Generated_Source\PSoC4/ADC_PM.c **** *  None.
  63:Generated_Source\PSoC4/ADC_PM.c **** *
  64:Generated_Source\PSoC4/ADC_PM.c **** *******************************************************************************/
  65:Generated_Source\PSoC4/ADC_PM.c **** void ADC_RestoreConfig(void)
  66:Generated_Source\PSoC4/ADC_PM.c **** {
  45              		.loc 1 66 0
  46              		.cfi_startproc
  47              		@ args = 0, pretend = 0, frame = 0
  48              		@ frame_needed = 0, uses_anonymous_args = 0
ARM GAS  C:\Users\Rajesh\AppData\Local\Temp\cctwjHCa.s 			page 3


  49              		@ link register save eliminated.
  67:Generated_Source\PSoC4/ADC_PM.c ****     /* All configuration registers are marked as [reset_all_retention] */
  68:Generated_Source\PSoC4/ADC_PM.c **** }
  50              		.loc 1 68 0
  51              		@ sp needed
  52 0000 7047     		bx	lr
  53              		.cfi_endproc
  54              	.LFE2:
  55              		.size	ADC_RestoreConfig, .-ADC_RestoreConfig
  56 0002 C046     		.section	.text.ADC_Sleep,"ax",%progbits
  57              		.align	2
  58              		.global	ADC_Sleep
  59              		.code	16
  60              		.thumb_func
  61              		.type	ADC_Sleep, %function
  62              	ADC_Sleep:
  63              	.LFB3:
  69:Generated_Source\PSoC4/ADC_PM.c **** 
  70:Generated_Source\PSoC4/ADC_PM.c **** 
  71:Generated_Source\PSoC4/ADC_PM.c **** /*******************************************************************************
  72:Generated_Source\PSoC4/ADC_PM.c **** * Function Name: ADC_Sleep
  73:Generated_Source\PSoC4/ADC_PM.c **** ********************************************************************************
  74:Generated_Source\PSoC4/ADC_PM.c **** *
  75:Generated_Source\PSoC4/ADC_PM.c **** * Summary:
  76:Generated_Source\PSoC4/ADC_PM.c **** *  Stops the ADC operation and saves the configuration registers and component
  77:Generated_Source\PSoC4/ADC_PM.c **** *  enable state. Should be called just prior to entering sleep.
  78:Generated_Source\PSoC4/ADC_PM.c **** *
  79:Generated_Source\PSoC4/ADC_PM.c **** * Parameters:
  80:Generated_Source\PSoC4/ADC_PM.c **** *  None.
  81:Generated_Source\PSoC4/ADC_PM.c **** *
  82:Generated_Source\PSoC4/ADC_PM.c **** * Return:
  83:Generated_Source\PSoC4/ADC_PM.c **** *  None.
  84:Generated_Source\PSoC4/ADC_PM.c **** *
  85:Generated_Source\PSoC4/ADC_PM.c **** * Global Variables:
  86:Generated_Source\PSoC4/ADC_PM.c **** *  ADC_backup - modified.
  87:Generated_Source\PSoC4/ADC_PM.c **** *
  88:Generated_Source\PSoC4/ADC_PM.c **** *******************************************************************************/
  89:Generated_Source\PSoC4/ADC_PM.c **** void ADC_Sleep(void)
  90:Generated_Source\PSoC4/ADC_PM.c **** {
  64              		.loc 1 90 0
  65              		.cfi_startproc
  66              		@ args = 0, pretend = 0, frame = 0
  67              		@ frame_needed = 0, uses_anonymous_args = 0
  91:Generated_Source\PSoC4/ADC_PM.c ****     /* During deepsleep/ hibernate mode keep SARMUX active, i.e. do not open
  92:Generated_Source\PSoC4/ADC_PM.c ****     *   all switches (disconnect), to be used for ADFT
  93:Generated_Source\PSoC4/ADC_PM.c ****     */
  94:Generated_Source\PSoC4/ADC_PM.c ****     ADC_backup.dftRegVal = ADC_SAR_DFT_CTRL_REG & (uint32)~ADC_ADFT_OVERRIDE;
  95:Generated_Source\PSoC4/ADC_PM.c ****     ADC_SAR_DFT_CTRL_REG |= ADC_ADFT_OVERRIDE;
  68              		.loc 1 95 0
  69 0000 8021     		movs	r1, #128
  94:Generated_Source\PSoC4/ADC_PM.c ****     ADC_SAR_DFT_CTRL_REG |= ADC_ADFT_OVERRIDE;
  70              		.loc 1 94 0
  71 0002 154A     		ldr	r2, .L14
  90:Generated_Source\PSoC4/ADC_PM.c ****     /* During deepsleep/ hibernate mode keep SARMUX active, i.e. do not open
  72              		.loc 1 90 0
  73 0004 10B5     		push	{r4, lr}
  74              		.cfi_def_cfa_offset 8
ARM GAS  C:\Users\Rajesh\AppData\Local\Temp\cctwjHCa.s 			page 4


  75              		.cfi_offset 4, -8
  76              		.cfi_offset 14, -4
  94:Generated_Source\PSoC4/ADC_PM.c ****     ADC_SAR_DFT_CTRL_REG |= ADC_ADFT_OVERRIDE;
  77              		.loc 1 94 0
  78 0006 1368     		ldr	r3, [r2]
  79 0008 144C     		ldr	r4, .L14+4
  80 000a 5B00     		lsls	r3, r3, #1
  81 000c 5B08     		lsrs	r3, r3, #1
  82 000e 6360     		str	r3, [r4, #4]
  83              		.loc 1 95 0
  84 0010 1368     		ldr	r3, [r2]
  85 0012 0906     		lsls	r1, r1, #24
  86 0014 0B43     		orrs	r3, r1
  87 0016 1360     		str	r3, [r2]
  96:Generated_Source\PSoC4/ADC_PM.c ****     if((ADC_SAR_CTRL_REG  & ADC_ENABLE) != 0u)
  88              		.loc 1 96 0
  89 0018 114B     		ldr	r3, .L14+8
  90 001a 1B68     		ldr	r3, [r3]
  91 001c 002B     		cmp	r3, #0
  92 001e 02DB     		blt	.L12
  97:Generated_Source\PSoC4/ADC_PM.c ****     {
  98:Generated_Source\PSoC4/ADC_PM.c ****         if((ADC_SAR_SAMPLE_CTRL_REG & ADC_CONTINUOUS_EN) != 0u)
  99:Generated_Source\PSoC4/ADC_PM.c ****         {
 100:Generated_Source\PSoC4/ADC_PM.c ****             ADC_backup.enableState = ADC_ENABLED | ADC_STARTED;
 101:Generated_Source\PSoC4/ADC_PM.c ****         }
 102:Generated_Source\PSoC4/ADC_PM.c ****         else
 103:Generated_Source\PSoC4/ADC_PM.c ****         {
 104:Generated_Source\PSoC4/ADC_PM.c ****             ADC_backup.enableState = ADC_ENABLED;
 105:Generated_Source\PSoC4/ADC_PM.c ****         }
 106:Generated_Source\PSoC4/ADC_PM.c ****         ADC_StopConvert();
 107:Generated_Source\PSoC4/ADC_PM.c ****         ADC_Stop();
 108:Generated_Source\PSoC4/ADC_PM.c ****         
 109:Generated_Source\PSoC4/ADC_PM.c ****         /* Disable the SAR internal pump before entering the chip low power mode */
 110:Generated_Source\PSoC4/ADC_PM.c ****         if((ADC_SAR_CTRL_REG & ADC_BOOSTPUMP_EN) != 0u)
 111:Generated_Source\PSoC4/ADC_PM.c ****         {
 112:Generated_Source\PSoC4/ADC_PM.c ****             ADC_SAR_CTRL_REG &= (uint32)~ADC_BOOSTPUMP_EN;
 113:Generated_Source\PSoC4/ADC_PM.c ****             ADC_backup.enableState |= ADC_BOOSTPUMP_ENABLED;
 114:Generated_Source\PSoC4/ADC_PM.c ****         }
 115:Generated_Source\PSoC4/ADC_PM.c ****     }
 116:Generated_Source\PSoC4/ADC_PM.c ****     else
 117:Generated_Source\PSoC4/ADC_PM.c ****     {
 118:Generated_Source\PSoC4/ADC_PM.c ****         ADC_backup.enableState = ADC_DISABLED;
  93              		.loc 1 118 0
  94 0020 0023     		movs	r3, #0
  95 0022 2370     		strb	r3, [r4]
  96              	.L3:
 119:Generated_Source\PSoC4/ADC_PM.c ****     }
 120:Generated_Source\PSoC4/ADC_PM.c **** }
  97              		.loc 1 120 0
  98              		@ sp needed
  99 0024 10BD     		pop	{r4, pc}
 100              	.L12:
  98:Generated_Source\PSoC4/ADC_PM.c ****         {
 101              		.loc 1 98 0
 102 0026 0F4B     		ldr	r3, .L14+12
 103 0028 1A68     		ldr	r2, [r3]
 100:Generated_Source\PSoC4/ADC_PM.c ****         }
ARM GAS  C:\Users\Rajesh\AppData\Local\Temp\cctwjHCa.s 			page 5


 104              		.loc 1 100 0
 105 002a 0323     		movs	r3, #3
  98:Generated_Source\PSoC4/ADC_PM.c ****         {
 106              		.loc 1 98 0
 107 002c D203     		lsls	r2, r2, #15
 108 002e 11D5     		bpl	.L13
 109              	.L5:
 110 0030 2370     		strb	r3, [r4]
 106:Generated_Source\PSoC4/ADC_PM.c ****         ADC_Stop();
 111              		.loc 1 106 0
 112 0032 FFF7FEFF 		bl	ADC_StopConvert
 113              	.LVL0:
 107:Generated_Source\PSoC4/ADC_PM.c ****         
 114              		.loc 1 107 0
 115 0036 FFF7FEFF 		bl	ADC_Stop
 116              	.LVL1:
 110:Generated_Source\PSoC4/ADC_PM.c ****         {
 117              		.loc 1 110 0
 118 003a 094B     		ldr	r3, .L14+8
 119 003c 1A68     		ldr	r2, [r3]
 120 003e D202     		lsls	r2, r2, #11
 121 0040 F0D5     		bpl	.L3
 112:Generated_Source\PSoC4/ADC_PM.c ****             ADC_backup.enableState |= ADC_BOOSTPUMP_ENABLED;
 122              		.loc 1 112 0
 123 0042 1968     		ldr	r1, [r3]
 124 0044 084A     		ldr	r2, .L14+16
 125 0046 0A40     		ands	r2, r1
 126 0048 1A60     		str	r2, [r3]
 113:Generated_Source\PSoC4/ADC_PM.c ****         }
 127              		.loc 1 113 0
 128 004a 0423     		movs	r3, #4
 129 004c 2278     		ldrb	r2, [r4]
 130 004e 1343     		orrs	r3, r2
 131 0050 2370     		strb	r3, [r4]
 132 0052 E7E7     		b	.L3
 133              	.L13:
 104:Generated_Source\PSoC4/ADC_PM.c ****         }
 134              		.loc 1 104 0
 135 0054 023B     		subs	r3, r3, #2
 136 0056 EBE7     		b	.L5
 137              	.L15:
 138              		.align	2
 139              	.L14:
 140 0058 30003A40 		.word	1077542960
 141 005c 00000000 		.word	.LANCHOR0
 142 0060 00003A40 		.word	1077542912
 143 0064 04003A40 		.word	1077542916
 144 0068 FFFFEFFF 		.word	-1048577
 145              		.cfi_endproc
 146              	.LFE3:
 147              		.size	ADC_Sleep, .-ADC_Sleep
 148              		.section	.text.ADC_Wakeup,"ax",%progbits
 149              		.align	2
 150              		.global	ADC_Wakeup
 151              		.code	16
 152              		.thumb_func
 153              		.type	ADC_Wakeup, %function
ARM GAS  C:\Users\Rajesh\AppData\Local\Temp\cctwjHCa.s 			page 6


 154              	ADC_Wakeup:
 155              	.LFB4:
 121:Generated_Source\PSoC4/ADC_PM.c **** 
 122:Generated_Source\PSoC4/ADC_PM.c **** 
 123:Generated_Source\PSoC4/ADC_PM.c **** /*******************************************************************************
 124:Generated_Source\PSoC4/ADC_PM.c **** * Function Name: ADC_Wakeup
 125:Generated_Source\PSoC4/ADC_PM.c **** ********************************************************************************
 126:Generated_Source\PSoC4/ADC_PM.c **** *
 127:Generated_Source\PSoC4/ADC_PM.c **** * Summary:
 128:Generated_Source\PSoC4/ADC_PM.c **** *  Restores the component enable state and configuration registers.
 129:Generated_Source\PSoC4/ADC_PM.c **** *  This should be called just after awaking from sleep mode.
 130:Generated_Source\PSoC4/ADC_PM.c **** *
 131:Generated_Source\PSoC4/ADC_PM.c **** * Parameters:
 132:Generated_Source\PSoC4/ADC_PM.c **** *  None.
 133:Generated_Source\PSoC4/ADC_PM.c **** *
 134:Generated_Source\PSoC4/ADC_PM.c **** * Return:
 135:Generated_Source\PSoC4/ADC_PM.c **** *  None.
 136:Generated_Source\PSoC4/ADC_PM.c **** *
 137:Generated_Source\PSoC4/ADC_PM.c **** * Global Variables:
 138:Generated_Source\PSoC4/ADC_PM.c **** *  ADC_backup - used.
 139:Generated_Source\PSoC4/ADC_PM.c **** *
 140:Generated_Source\PSoC4/ADC_PM.c **** *******************************************************************************/
 141:Generated_Source\PSoC4/ADC_PM.c **** void ADC_Wakeup(void)
 142:Generated_Source\PSoC4/ADC_PM.c **** {
 156              		.loc 1 142 0
 157              		.cfi_startproc
 158              		@ args = 0, pretend = 0, frame = 0
 159              		@ frame_needed = 0, uses_anonymous_args = 0
 160 0000 10B5     		push	{r4, lr}
 161              		.cfi_def_cfa_offset 8
 162              		.cfi_offset 4, -8
 163              		.cfi_offset 14, -4
 143:Generated_Source\PSoC4/ADC_PM.c ****     ADC_SAR_DFT_CTRL_REG = ADC_backup.dftRegVal;
 164              		.loc 1 143 0
 165 0002 0C4C     		ldr	r4, .L28
 166 0004 0C4B     		ldr	r3, .L28+4
 167 0006 6268     		ldr	r2, [r4, #4]
 168 0008 1A60     		str	r2, [r3]
 144:Generated_Source\PSoC4/ADC_PM.c ****     if(ADC_backup.enableState != ADC_DISABLED)
 169              		.loc 1 144 0
 170 000a 2378     		ldrb	r3, [r4]
 171 000c 002B     		cmp	r3, #0
 172 000e 0CD0     		beq	.L16
 145:Generated_Source\PSoC4/ADC_PM.c ****     {
 146:Generated_Source\PSoC4/ADC_PM.c ****         /* Enable the SAR internal pump  */
 147:Generated_Source\PSoC4/ADC_PM.c ****         if((ADC_backup.enableState & ADC_BOOSTPUMP_ENABLED) != 0u)
 173              		.loc 1 147 0
 174 0010 5B07     		lsls	r3, r3, #29
 175 0012 05D5     		bpl	.L19
 148:Generated_Source\PSoC4/ADC_PM.c ****         {
 149:Generated_Source\PSoC4/ADC_PM.c ****             ADC_SAR_CTRL_REG |= ADC_BOOSTPUMP_EN;
 176              		.loc 1 149 0
 177 0014 8021     		movs	r1, #128
 178 0016 094A     		ldr	r2, .L28+8
 179 0018 4903     		lsls	r1, r1, #13
 180 001a 1368     		ldr	r3, [r2]
 181 001c 0B43     		orrs	r3, r1
ARM GAS  C:\Users\Rajesh\AppData\Local\Temp\cctwjHCa.s 			page 7


 182 001e 1360     		str	r3, [r2]
 183              	.L19:
 150:Generated_Source\PSoC4/ADC_PM.c ****         }
 151:Generated_Source\PSoC4/ADC_PM.c ****         ADC_Enable();
 184              		.loc 1 151 0
 185 0020 FFF7FEFF 		bl	ADC_Enable
 186              	.LVL2:
 152:Generated_Source\PSoC4/ADC_PM.c ****         if((ADC_backup.enableState & ADC_STARTED) != 0u)
 187              		.loc 1 152 0
 188 0024 2378     		ldrb	r3, [r4]
 189 0026 9B07     		lsls	r3, r3, #30
 190 0028 00D4     		bmi	.L27
 191              	.L16:
 153:Generated_Source\PSoC4/ADC_PM.c ****         {
 154:Generated_Source\PSoC4/ADC_PM.c ****             ADC_StartConvert();
 155:Generated_Source\PSoC4/ADC_PM.c ****         }
 156:Generated_Source\PSoC4/ADC_PM.c ****     }
 157:Generated_Source\PSoC4/ADC_PM.c **** }
 192              		.loc 1 157 0
 193              		@ sp needed
 194 002a 10BD     		pop	{r4, pc}
 195              	.L27:
 154:Generated_Source\PSoC4/ADC_PM.c ****         }
 196              		.loc 1 154 0
 197 002c FFF7FEFF 		bl	ADC_StartConvert
 198              	.LVL3:
 199              		.loc 1 157 0
 200 0030 FBE7     		b	.L16
 201              	.L29:
 202 0032 C046     		.align	2
 203              	.L28:
 204 0034 00000000 		.word	.LANCHOR0
 205 0038 30003A40 		.word	1077542960
 206 003c 00003A40 		.word	1077542912
 207              		.cfi_endproc
 208              	.LFE4:
 209              		.size	ADC_Wakeup, .-ADC_Wakeup
 210              		.bss
 211              		.align	2
 212              		.set	.LANCHOR0,. + 0
 213              		.type	ADC_backup, %object
 214              		.size	ADC_backup, 8
 215              	ADC_backup:
 216 0000 00000000 		.space	8
 216      00000000 
 217              		.text
 218              	.Letext0:
 219              		.file 2 "Generated_Source\\PSoC4\\cytypes.h"
 220              		.file 3 "Generated_Source\\PSoC4\\ADC.h"