ARM GAS  C:\Users\Rajesh\AppData\Local\Temp\cc0oC67u.s 			page 1


   1              		.syntax unified
   2              		.cpu cortex-m0
   3              		.fpu softvfp
   4              		.eabi_attribute 20, 1
   5              		.eabi_attribute 21, 1
   6              		.eabi_attribute 23, 3
   7              		.eabi_attribute 24, 1
   8              		.eabi_attribute 25, 1
   9              		.eabi_attribute 26, 1
  10              		.eabi_attribute 30, 2
  11              		.eabi_attribute 34, 0
  12              		.eabi_attribute 18, 4
  13              		.thumb
  14              		.syntax unified
  15              		.file	"bb_i2c_sl.c"
  16              		.text
  17              	.Ltext0:
  18              		.cfi_sections	.debug_frame
  19              		.section	.text.Init_bb_i2c,"ax",%progbits
  20              		.align	2
  21              		.global	Init_bb_i2c
  22              		.code	16
  23              		.thumb_func
  24              		.type	Init_bb_i2c, %function
  25              	Init_bb_i2c:
  26              	.LFB34:
  27              		.file 1 "bb_i2c_sl.c"
   1:bb_i2c_sl.c   **** #include "project.h"
   2:bb_i2c_sl.c   **** 
   3:bb_i2c_sl.c   **** 
   4:bb_i2c_sl.c   **** #define STATE_IDLE 0
   5:bb_i2c_sl.c   **** #define STATE_START 1
   6:bb_i2c_sl.c   **** #define STATE_ACK   2
   7:bb_i2c_sl.c   **** #define STATE_ACK_DONE 3
   8:bb_i2c_sl.c   **** uint8 state = STATE_IDLE;
   9:bb_i2c_sl.c   **** 
  10:bb_i2c_sl.c   **** uint8 my_address = 0x32;
  11:bb_i2c_sl.c   **** uint8 pSDA=1;
  12:bb_i2c_sl.c   **** uint8 pSCL=1;
  13:bb_i2c_sl.c   **** uint8 SCL=1,SDA=1;
  14:bb_i2c_sl.c   **** uint8 rxbyte,bit_count=0;
  15:bb_i2c_sl.c   **** uint8 txbyte=0;
  16:bb_i2c_sl.c   **** uint8 icnt=0;
  17:bb_i2c_sl.c   **** uint8 reg_ptr=0;
  18:bb_i2c_sl.c   **** //uint8 a_space[255];
  19:bb_i2c_sl.c   **** uint8 *a_space;
  20:bb_i2c_sl.c   **** #define BYTE_MODE_IDLE 0
  21:bb_i2c_sl.c   **** #define BYTE_MODE_ADDRESS_WRITE 1
  22:bb_i2c_sl.c   **** #define BYTE_MODE_DATA_WRITE 2
  23:bb_i2c_sl.c   **** #define BYTE_MODE_DATA_READ 3
  24:bb_i2c_sl.c   **** uint8 byte_mode=0;
  25:bb_i2c_sl.c   **** int acnt =0;
  26:bb_i2c_sl.c   **** void Init_bb_i2c(uint8 *space)
  27:bb_i2c_sl.c   **** {
  28              		.loc 1 27 0
  29              		.cfi_startproc
  30              		@ args = 0, pretend = 0, frame = 0
ARM GAS  C:\Users\Rajesh\AppData\Local\Temp\cc0oC67u.s 			page 2


  31              		@ frame_needed = 0, uses_anonymous_args = 0
  32              		@ link register save eliminated.
  33              	.LVL0:
  28:bb_i2c_sl.c   **** 
  29:bb_i2c_sl.c   ****        a_space=space;
  34              		.loc 1 29 0
  35 0000 014B     		ldr	r3, .L2
  30:bb_i2c_sl.c   **** }
  36              		.loc 1 30 0
  37              		@ sp needed
  29:bb_i2c_sl.c   **** }
  38              		.loc 1 29 0
  39 0002 1860     		str	r0, [r3]
  40              		.loc 1 30 0
  41 0004 7047     		bx	lr
  42              	.L3:
  43 0006 C046     		.align	2
  44              	.L2:
  45 0008 00000000 		.word	a_space
  46              		.cfi_endproc
  47              	.LFE34:
  48              		.size	Init_bb_i2c, .-Init_bb_i2c
  49              		.section	.text.bb_i2c_ISR,"ax",%progbits
  50              		.align	2
  51              		.global	bb_i2c_ISR
  52              		.code	16
  53              		.thumb_func
  54              		.type	bb_i2c_ISR, %function
  55              	bb_i2c_ISR:
  56              	.LFB35:
  31:bb_i2c_sl.c   **** 
  32:bb_i2c_sl.c   **** char st[256];
  33:bb_i2c_sl.c   **** void bb_i2c_ISR(void)
  34:bb_i2c_sl.c   **** {   
  57              		.loc 1 34 0
  58              		.cfi_startproc
  59              		@ args = 0, pretend = 0, frame = 0
  60              		@ frame_needed = 0, uses_anonymous_args = 0
  61 0000 F0B5     		push	{r4, r5, r6, r7, lr}
  62              		.cfi_def_cfa_offset 20
  63              		.cfi_offset 4, -20
  64              		.cfi_offset 5, -16
  65              		.cfi_offset 6, -12
  66              		.cfi_offset 7, -8
  67              		.cfi_offset 14, -4
  68 0002 4746     		mov	r7, r8
  69 0004 80B4     		push	{r7}
  70              		.cfi_def_cfa_offset 24
  71              		.cfi_offset 8, -24
  35:bb_i2c_sl.c   ****     pSCL=SCL;
  72              		.loc 1 35 0
  73 0006 6A4C     		ldr	r4, .L67
  74 0008 6378     		ldrb	r3, [r4, #1]
  75 000a 2370     		strb	r3, [r4]
  36:bb_i2c_sl.c   ****     pSDA=SDA;
  76              		.loc 1 36 0
  77 000c E378     		ldrb	r3, [r4, #3]
ARM GAS  C:\Users\Rajesh\AppData\Local\Temp\cc0oC67u.s 			page 3


  78 000e A370     		strb	r3, [r4, #2]
  37:bb_i2c_sl.c   ****     SCL=OLD_SCL_Read();
  79              		.loc 1 37 0
  80 0010 FFF7FEFF 		bl	OLD_SCL_Read
  81              	.LVL1:
  82 0014 6070     		strb	r0, [r4, #1]
  38:bb_i2c_sl.c   ****    SDA=OLD_SDA_Read();
  83              		.loc 1 38 0
  84 0016 FFF7FEFF 		bl	OLD_SDA_Read
  85              	.LVL2:
  39:bb_i2c_sl.c   ****   //  st[icnt]=(SCL<<1)|SDA;
  40:bb_i2c_sl.c   ****    // icnt++;
  41:bb_i2c_sl.c   ****     if (state==STATE_IDLE && (!SDA) && pSDA)
  86              		.loc 1 41 0
  87 001a 664D     		ldr	r5, .L67+4
  38:bb_i2c_sl.c   ****    SDA=OLD_SDA_Read();
  88              		.loc 1 38 0
  89 001c C0B2     		uxtb	r0, r0
  90              		.loc 1 41 0
  91 001e 2B78     		ldrb	r3, [r5]
  38:bb_i2c_sl.c   ****    SDA=OLD_SDA_Read();
  92              		.loc 1 38 0
  93 0020 E070     		strb	r0, [r4, #3]
  94              		.loc 1 41 0
  95 0022 002B     		cmp	r3, #0
  96 0024 10D1     		bne	.L5
  97              		.loc 1 41 0 is_stmt 0 discriminator 1
  98 0026 0028     		cmp	r0, #0
  99 0028 39D0     		beq	.L60
 100              	.L58:
 101 002a 6378     		ldrb	r3, [r4, #1]
 102              	.L23:
  42:bb_i2c_sl.c   ****         {
  43:bb_i2c_sl.c   ****         state=STATE_START;
  44:bb_i2c_sl.c   ****         bit_count=0;
  45:bb_i2c_sl.c   ****           byte_mode=   BYTE_MODE_IDLE;
  46:bb_i2c_sl.c   ****         return;
  47:bb_i2c_sl.c   ****         }
  48:bb_i2c_sl.c   **** 
  49:bb_i2c_sl.c   **** 
  50:bb_i2c_sl.c   ****     if (state==STATE_START && (!pSCL) && (SCL)) // rising edge sample bit
  51:bb_i2c_sl.c   ****        {
  52:bb_i2c_sl.c   ****         if (byte_mode!=BYTE_MODE_DATA_READ)
  53:bb_i2c_sl.c   ****             {
  54:bb_i2c_sl.c   ****             rxbyte=rxbyte<<1;
  55:bb_i2c_sl.c   ****                 SDA=OLD_SDA_Read();
  56:bb_i2c_sl.c   ****             if (SDA)
  57:bb_i2c_sl.c   ****              rxbyte|=0x1;
  58:bb_i2c_sl.c   ****              bit_count++;
  59:bb_i2c_sl.c   ****             }
  60:bb_i2c_sl.c   ****         if (bit_count==9)
  61:bb_i2c_sl.c   ****                     bit_count=0;
  62:bb_i2c_sl.c   ****         if (bit_count==8 && byte_mode!=BYTE_MODE_DATA_READ)
  63:bb_i2c_sl.c   ****            {
  64:bb_i2c_sl.c   ****            if (BYTE_MODE_IDLE == byte_mode)
  65:bb_i2c_sl.c   ****                 {
  66:bb_i2c_sl.c   ****                      acnt++;
ARM GAS  C:\Users\Rajesh\AppData\Local\Temp\cc0oC67u.s 			page 4


  67:bb_i2c_sl.c   ****                 if ((rxbyte&0xfe)==(my_address<<1))
  68:bb_i2c_sl.c   ****                     {
  69:bb_i2c_sl.c   ****                        
  70:bb_i2c_sl.c   ****                     state=STATE_ACK;
  71:bb_i2c_sl.c   ****                         OLD_SDA_Write(0);
  72:bb_i2c_sl.c   ****                     if (rxbyte&0x1)
  73:bb_i2c_sl.c   ****                         {
  74:bb_i2c_sl.c   ****                         byte_mode=BYTE_MODE_DATA_READ;
  75:bb_i2c_sl.c   ****                         txbyte=a_space[reg_ptr++];
  76:bb_i2c_sl.c   ****                         bit_count=0;
  77:bb_i2c_sl.c   ****                         }
  78:bb_i2c_sl.c   ****                     else
  79:bb_i2c_sl.c   ****                         byte_mode=BYTE_MODE_ADDRESS_WRITE;
  80:bb_i2c_sl.c   ****                     }
  81:bb_i2c_sl.c   ****                else
  82:bb_i2c_sl.c   ****                     state = STATE_IDLE;
  83:bb_i2c_sl.c   ****                 }
  84:bb_i2c_sl.c   ****             else
  85:bb_i2c_sl.c   ****             if (BYTE_MODE_ADDRESS_WRITE == byte_mode)
  86:bb_i2c_sl.c   ****                 {
  87:bb_i2c_sl.c   ****                     reg_ptr= rxbyte;
  88:bb_i2c_sl.c   ****                     state = STATE_ACK;
  89:bb_i2c_sl.c   ****                     byte_mode=BYTE_MODE_DATA_WRITE;
  90:bb_i2c_sl.c   ****                 }
  91:bb_i2c_sl.c   ****             else
  92:bb_i2c_sl.c   ****               if (byte_mode==BYTE_MODE_DATA_WRITE)
  93:bb_i2c_sl.c   ****                 {
  94:bb_i2c_sl.c   ****                 a_space[reg_ptr++]=rxbyte;
  95:bb_i2c_sl.c   ****                 state = STATE_ACK;
  96:bb_i2c_sl.c   ****                 }
  97:bb_i2c_sl.c   **** 
  98:bb_i2c_sl.c   ****            }
  99:bb_i2c_sl.c   ****        }
 100:bb_i2c_sl.c   ****     
 101:bb_i2c_sl.c   ****     /// falling edge of clock we change the data
 102:bb_i2c_sl.c   ****    if (state==STATE_ACK &&   (pSCL) && (!SCL))
 103:bb_i2c_sl.c   ****         {
 104:bb_i2c_sl.c   ****             OLD_SDA_Write(0);
 105:bb_i2c_sl.c   ****             state = STATE_START;
 106:bb_i2c_sl.c   ****          //   bit_count=0;
 107:bb_i2c_sl.c   ****         }
 108:bb_i2c_sl.c   ****     else
 109:bb_i2c_sl.c   ****         if (state==STATE_START && (pSCL) && (!SCL))
 110:bb_i2c_sl.c   ****         {
 111:bb_i2c_sl.c   ****         OLD_SDA_Write(1);
 112:bb_i2c_sl.c   **** 
 113:bb_i2c_sl.c   ****        if (byte_mode==BYTE_MODE_DATA_READ)
 114:bb_i2c_sl.c   ****           {
 115:bb_i2c_sl.c   ****             bit_count++;
 116:bb_i2c_sl.c   ****             if ((txbyte&0x80)|| bit_count>=8)
 117:bb_i2c_sl.c   ****                  OLD_SDA_Write(1);
 118:bb_i2c_sl.c   ****             else
 119:bb_i2c_sl.c   ****                  OLD_SDA_Write(0);
 120:bb_i2c_sl.c   ****             txbyte=txbyte<<1;
 121:bb_i2c_sl.c   **** 
 122:bb_i2c_sl.c   ****             if (bit_count==9)
 123:bb_i2c_sl.c   ****                 {
ARM GAS  C:\Users\Rajesh\AppData\Local\Temp\cc0oC67u.s 			page 5


 124:bb_i2c_sl.c   ****                   st[icnt]=reg_ptr;
 125:bb_i2c_sl.c   ****                  icnt++;
 126:bb_i2c_sl.c   ****                 bit_count=0;
 127:bb_i2c_sl.c   ****                 txbyte=a_space[reg_ptr++];
 128:bb_i2c_sl.c   ****  
 129:bb_i2c_sl.c   ****                 }
 130:bb_i2c_sl.c   ****  
 131:bb_i2c_sl.c   ****           }
 132:bb_i2c_sl.c   ****         }
 133:bb_i2c_sl.c   ****     if (SCL && SDA && (pSDA==0))
 103              		.loc 1 133 0 is_stmt 1
 104 002c 002B     		cmp	r3, #0
 105 002e 08D0     		beq	.L4
 106              	.L31:
 107 0030 E378     		ldrb	r3, [r4, #3]
 108 0032 002B     		cmp	r3, #0
 109 0034 05D0     		beq	.L4
 110              		.loc 1 133 0 is_stmt 0 discriminator 2
 111 0036 A378     		ldrb	r3, [r4, #2]
 112 0038 002B     		cmp	r3, #0
 113 003a 02D1     		bne	.L4
 134:bb_i2c_sl.c   ****         {
 135:bb_i2c_sl.c   ****             state = STATE_IDLE;
 114              		.loc 1 135 0 is_stmt 1
 115 003c 2B70     		strb	r3, [r5]
 136:bb_i2c_sl.c   ****             byte_mode=BYTE_MODE_IDLE ;
 116              		.loc 1 136 0
 117 003e AB70     		strb	r3, [r5, #2]
 137:bb_i2c_sl.c   ****             bit_count=0;
 118              		.loc 1 137 0
 119 0040 6B70     		strb	r3, [r5, #1]
 120              	.L4:
 138:bb_i2c_sl.c   ****             
 139:bb_i2c_sl.c   ****         }
 140:bb_i2c_sl.c   **** }
 121              		.loc 1 140 0
 122              		@ sp needed
 123 0042 04BC     		pop	{r2}
 124 0044 9046     		mov	r8, r2
 125 0046 F0BD     		pop	{r4, r5, r6, r7, pc}
 126              	.L5:
  50:bb_i2c_sl.c   ****        {
 127              		.loc 1 50 0
 128 0048 012B     		cmp	r3, #1
 129 004a 30D1     		bne	.L8
  50:bb_i2c_sl.c   ****        {
 130              		.loc 1 50 0 is_stmt 0 discriminator 1
 131 004c 2378     		ldrb	r3, [r4]
 132 004e 002B     		cmp	r3, #0
 133 0050 3CD1     		bne	.L61
  50:bb_i2c_sl.c   ****        {
 134              		.loc 1 50 0 discriminator 2
 135 0052 6378     		ldrb	r3, [r4, #1]
 136 0054 002B     		cmp	r3, #0
 137 0056 F4D0     		beq	.L4
  52:bb_i2c_sl.c   ****             {
 138              		.loc 1 52 0 is_stmt 1
ARM GAS  C:\Users\Rajesh\AppData\Local\Temp\cc0oC67u.s 			page 6


 139 0058 AB78     		ldrb	r3, [r5, #2]
 140 005a 032B     		cmp	r3, #3
 141 005c 60D0     		beq	.L62
  54:bb_i2c_sl.c   ****                 SDA=OLD_SDA_Read();
 142              		.loc 1 54 0
 143 005e 564E     		ldr	r6, .L67+8
 144 0060 3378     		ldrb	r3, [r6]
 145 0062 5B00     		lsls	r3, r3, #1
 146 0064 3370     		strb	r3, [r6]
  55:bb_i2c_sl.c   ****             if (SDA)
 147              		.loc 1 55 0
 148 0066 FFF7FEFF 		bl	OLD_SDA_Read
 149              	.LVL3:
 150 006a C0B2     		uxtb	r0, r0
 151 006c E070     		strb	r0, [r4, #3]
  56:bb_i2c_sl.c   ****              rxbyte|=0x1;
 152              		.loc 1 56 0
 153 006e 0028     		cmp	r0, #0
 154 0070 03D0     		beq	.L14
  57:bb_i2c_sl.c   ****              bit_count++;
 155              		.loc 1 57 0
 156 0072 0123     		movs	r3, #1
 157 0074 3278     		ldrb	r2, [r6]
 158 0076 1343     		orrs	r3, r2
 159 0078 3370     		strb	r3, [r6]
 160              	.L14:
  58:bb_i2c_sl.c   ****             }
 161              		.loc 1 58 0
 162 007a 6B78     		ldrb	r3, [r5, #1]
 163 007c 0133     		adds	r3, r3, #1
 164 007e DBB2     		uxtb	r3, r3
 165 0080 6B70     		strb	r3, [r5, #1]
 166              	.L13:
  60:bb_i2c_sl.c   ****                     bit_count=0;
 167              		.loc 1 60 0
 168 0082 092B     		cmp	r3, #9
 169 0084 61D0     		beq	.L63
  62:bb_i2c_sl.c   ****            {
 170              		.loc 1 62 0
 171 0086 082B     		cmp	r3, #8
 172 0088 4CD0     		beq	.L64
 173              	.L16:
 102:bb_i2c_sl.c   ****         {
 174              		.loc 1 102 0
 175 008a 2B78     		ldrb	r3, [r5]
 176 008c 022B     		cmp	r3, #2
 177 008e 10D0     		beq	.L21
 109:bb_i2c_sl.c   ****         {
 178              		.loc 1 109 0
 179 0090 012B     		cmp	r3, #1
 180 0092 CAD1     		bne	.L58
 181 0094 2278     		ldrb	r2, [r4]
 182 0096 6378     		ldrb	r3, [r4, #1]
 183 0098 002A     		cmp	r2, #0
 184 009a C7D0     		beq	.L23
 185 009c 17E0     		b	.L10
 186              	.L60:
ARM GAS  C:\Users\Rajesh\AppData\Local\Temp\cc0oC67u.s 			page 7


  41:bb_i2c_sl.c   ****         {
 187              		.loc 1 41 0 discriminator 2
 188 009e A378     		ldrb	r3, [r4, #2]
 189 00a0 002B     		cmp	r3, #0
 190 00a2 C2D0     		beq	.L58
  43:bb_i2c_sl.c   ****         bit_count=0;
 191              		.loc 1 43 0
 192 00a4 0123     		movs	r3, #1
  44:bb_i2c_sl.c   ****           byte_mode=   BYTE_MODE_IDLE;
 193              		.loc 1 44 0
 194 00a6 6870     		strb	r0, [r5, #1]
  43:bb_i2c_sl.c   ****         bit_count=0;
 195              		.loc 1 43 0
 196 00a8 2B70     		strb	r3, [r5]
  45:bb_i2c_sl.c   ****         return;
 197              		.loc 1 45 0
 198 00aa A870     		strb	r0, [r5, #2]
  46:bb_i2c_sl.c   ****         }
 199              		.loc 1 46 0
 200 00ac C9E7     		b	.L4
 201              	.L8:
 102:bb_i2c_sl.c   ****         {
 202              		.loc 1 102 0
 203 00ae 022B     		cmp	r3, #2
 204 00b0 BBD1     		bne	.L58
 205              	.L21:
 206 00b2 2378     		ldrb	r3, [r4]
 207 00b4 002B     		cmp	r3, #0
 208 00b6 B8D0     		beq	.L58
 102:bb_i2c_sl.c   ****         {
 209              		.loc 1 102 0 is_stmt 0 discriminator 2
 210 00b8 6378     		ldrb	r3, [r4, #1]
 211 00ba 002B     		cmp	r3, #0
 212 00bc B8D1     		bne	.L31
 213              	.LBB2:
 104:bb_i2c_sl.c   ****             state = STATE_START;
 214              		.loc 1 104 0 is_stmt 1
 215 00be 0020     		movs	r0, #0
 216 00c0 FFF7FEFF 		bl	OLD_SDA_Write
 217              	.LVL4:
 105:bb_i2c_sl.c   ****          //   bit_count=0;
 218              		.loc 1 105 0
 219 00c4 0123     		movs	r3, #1
 220 00c6 2B70     		strb	r3, [r5]
 221 00c8 6378     		ldrb	r3, [r4, #1]
 222              	.LBE2:
 103:bb_i2c_sl.c   ****             OLD_SDA_Write(0);
 223              		.loc 1 103 0
 224 00ca AFE7     		b	.L23
 225              	.L61:
 226 00cc 6378     		ldrb	r3, [r4, #1]
 227              	.L10:
 109:bb_i2c_sl.c   ****         {
 228              		.loc 1 109 0 discriminator 2
 229 00ce 002B     		cmp	r3, #0
 230 00d0 AED1     		bne	.L31
 231              	.LBB3:
ARM GAS  C:\Users\Rajesh\AppData\Local\Temp\cc0oC67u.s 			page 8


 111:bb_i2c_sl.c   **** 
 232              		.loc 1 111 0
 233 00d2 0120     		movs	r0, #1
 234 00d4 FFF7FEFF 		bl	OLD_SDA_Write
 235              	.LVL5:
 113:bb_i2c_sl.c   ****           {
 236              		.loc 1 113 0
 237 00d8 AB78     		ldrb	r3, [r5, #2]
 238 00da 032B     		cmp	r3, #3
 239 00dc A5D1     		bne	.L58
 115:bb_i2c_sl.c   ****             if ((txbyte&0x80)|| bit_count>=8)
 240              		.loc 1 115 0
 241 00de 6B78     		ldrb	r3, [r5, #1]
 116:bb_i2c_sl.c   ****                  OLD_SDA_Write(1);
 242              		.loc 1 116 0
 243 00e0 6A7A     		ldrb	r2, [r5, #9]
 115:bb_i2c_sl.c   ****             if ((txbyte&0x80)|| bit_count>=8)
 244              		.loc 1 115 0
 245 00e2 0133     		adds	r3, r3, #1
 246 00e4 DBB2     		uxtb	r3, r3
 247 00e6 6B70     		strb	r3, [r5, #1]
 116:bb_i2c_sl.c   ****                  OLD_SDA_Write(1);
 248              		.loc 1 116 0
 249 00e8 7F2A     		cmp	r2, #127
 250 00ea 01D8     		bhi	.L27
 116:bb_i2c_sl.c   ****                  OLD_SDA_Write(1);
 251              		.loc 1 116 0 is_stmt 0 discriminator 1
 252 00ec 072B     		cmp	r3, #7
 253 00ee 3DD9     		bls	.L28
 254              	.L27:
 117:bb_i2c_sl.c   ****             else
 255              		.loc 1 117 0 is_stmt 1
 256 00f0 0120     		movs	r0, #1
 257 00f2 FFF7FEFF 		bl	OLD_SDA_Write
 258              	.LVL6:
 259              	.L29:
 120:bb_i2c_sl.c   **** 
 260              		.loc 1 120 0
 261 00f6 6B7A     		ldrb	r3, [r5, #9]
 262 00f8 5B00     		lsls	r3, r3, #1
 263 00fa 6B72     		strb	r3, [r5, #9]
 122:bb_i2c_sl.c   ****                 {
 264              		.loc 1 122 0
 265 00fc 6B78     		ldrb	r3, [r5, #1]
 266 00fe 092B     		cmp	r3, #9
 267 0100 93D1     		bne	.L58
 124:bb_i2c_sl.c   ****                  icnt++;
 268              		.loc 1 124 0
 269 0102 2A7A     		ldrb	r2, [r5, #8]
 270 0104 AB7A     		ldrb	r3, [r5, #10]
 271 0106 2D49     		ldr	r1, .L67+12
 272 0108 CA54     		strb	r2, [r1, r3]
 125:bb_i2c_sl.c   ****                 bit_count=0;
 273              		.loc 1 125 0
 274 010a 0133     		adds	r3, r3, #1
 275 010c AB72     		strb	r3, [r5, #10]
 126:bb_i2c_sl.c   ****                 txbyte=a_space[reg_ptr++];
ARM GAS  C:\Users\Rajesh\AppData\Local\Temp\cc0oC67u.s 			page 9


 276              		.loc 1 126 0
 277 010e 0023     		movs	r3, #0
 278 0110 6B70     		strb	r3, [r5, #1]
 127:bb_i2c_sl.c   ****  
 279              		.loc 1 127 0
 280 0112 2B4B     		ldr	r3, .L67+16
 281 0114 511C     		adds	r1, r2, #1
 282 0116 1B68     		ldr	r3, [r3]
 283 0118 2972     		strb	r1, [r5, #8]
 284 011a 9B5C     		ldrb	r3, [r3, r2]
 285 011c 6B72     		strb	r3, [r5, #9]
 286 011e 84E7     		b	.L58
 287              	.L62:
 288 0120 6B78     		ldrb	r3, [r5, #1]
 289 0122 AEE7     		b	.L13
 290              	.L64:
 291              	.LBE3:
  62:bb_i2c_sl.c   ****            {
 292              		.loc 1 62 0 discriminator 1
 293 0124 AE78     		ldrb	r6, [r5, #2]
 294 0126 032E     		cmp	r6, #3
 295 0128 AFD0     		beq	.L16
  64:bb_i2c_sl.c   ****                 {
 296              		.loc 1 64 0
 297 012a 002E     		cmp	r6, #0
 298 012c 10D1     		bne	.L17
  67:bb_i2c_sl.c   ****                     {
 299              		.loc 1 67 0
 300 012e 0127     		movs	r7, #1
  66:bb_i2c_sl.c   ****                 if ((rxbyte&0xfe)==(my_address<<1))
 301              		.loc 1 66 0
 302 0130 6B68     		ldr	r3, [r5, #4]
 303 0132 0133     		adds	r3, r3, #1
 304 0134 6B60     		str	r3, [r5, #4]
  67:bb_i2c_sl.c   ****                     {
 305              		.loc 1 67 0
 306 0136 204B     		ldr	r3, .L67+8
 307 0138 1A78     		ldrb	r2, [r3]
 308 013a 9846     		mov	r8, r3
 309 013c 2379     		ldrb	r3, [r4, #4]
 310 013e BA43     		bics	r2, r7
 311 0140 5B00     		lsls	r3, r3, #1
 312 0142 9A42     		cmp	r2, r3
 313 0144 1DD0     		beq	.L65
  82:bb_i2c_sl.c   ****                 }
 314              		.loc 1 82 0
 315 0146 2E70     		strb	r6, [r5]
 316 0148 6FE7     		b	.L58
 317              	.L63:
  61:bb_i2c_sl.c   ****         if (bit_count==8 && byte_mode!=BYTE_MODE_DATA_READ)
 318              		.loc 1 61 0
 319 014a 0023     		movs	r3, #0
 320 014c 6B70     		strb	r3, [r5, #1]
 321 014e 9CE7     		b	.L16
 322              	.L17:
  85:bb_i2c_sl.c   ****                 {
 323              		.loc 1 85 0
ARM GAS  C:\Users\Rajesh\AppData\Local\Temp\cc0oC67u.s 			page 10


 324 0150 012E     		cmp	r6, #1
 325 0152 0FD0     		beq	.L66
  92:bb_i2c_sl.c   ****                 {
 326              		.loc 1 92 0
 327 0154 022E     		cmp	r6, #2
 328 0156 98D1     		bne	.L16
  94:bb_i2c_sl.c   ****                 state = STATE_ACK;
 329              		.loc 1 94 0
 330 0158 194B     		ldr	r3, .L67+16
 331 015a 1A68     		ldr	r2, [r3]
 332 015c 2B7A     		ldrb	r3, [r5, #8]
 333 015e 591C     		adds	r1, r3, #1
 334 0160 2972     		strb	r1, [r5, #8]
 335 0162 1549     		ldr	r1, .L67+8
 336 0164 0978     		ldrb	r1, [r1]
 337 0166 D154     		strb	r1, [r2, r3]
  95:bb_i2c_sl.c   ****                 }
 338              		.loc 1 95 0
 339 0168 2E70     		strb	r6, [r5]
 340 016a A2E7     		b	.L21
 341              	.L28:
 342              	.LBB4:
 119:bb_i2c_sl.c   ****             txbyte=txbyte<<1;
 343              		.loc 1 119 0
 344 016c 0020     		movs	r0, #0
 345 016e FFF7FEFF 		bl	OLD_SDA_Write
 346              	.LVL7:
 347 0172 C0E7     		b	.L29
 348              	.L66:
 349              	.LBE4:
  87:bb_i2c_sl.c   ****                     state = STATE_ACK;
 350              		.loc 1 87 0
 351 0174 104B     		ldr	r3, .L67+8
 352 0176 1B78     		ldrb	r3, [r3]
 353 0178 2B72     		strb	r3, [r5, #8]
  88:bb_i2c_sl.c   ****                     byte_mode=BYTE_MODE_DATA_WRITE;
 354              		.loc 1 88 0
 355 017a 0223     		movs	r3, #2
 356 017c 2B70     		strb	r3, [r5]
  89:bb_i2c_sl.c   ****                 }
 357              		.loc 1 89 0
 358 017e AB70     		strb	r3, [r5, #2]
 359 0180 97E7     		b	.L21
 360              	.L65:
 361              	.LBB5:
  70:bb_i2c_sl.c   ****                         OLD_SDA_Write(0);
 362              		.loc 1 70 0
 363 0182 0223     		movs	r3, #2
  71:bb_i2c_sl.c   ****                     if (rxbyte&0x1)
 364              		.loc 1 71 0
 365 0184 0020     		movs	r0, #0
  70:bb_i2c_sl.c   ****                         OLD_SDA_Write(0);
 366              		.loc 1 70 0
 367 0186 2B70     		strb	r3, [r5]
  71:bb_i2c_sl.c   ****                     if (rxbyte&0x1)
 368              		.loc 1 71 0
 369 0188 FFF7FEFF 		bl	OLD_SDA_Write
ARM GAS  C:\Users\Rajesh\AppData\Local\Temp\cc0oC67u.s 			page 11


 370              	.LVL8:
  72:bb_i2c_sl.c   ****                         {
 371              		.loc 1 72 0
 372 018c 4346     		mov	r3, r8
 373 018e 1B78     		ldrb	r3, [r3]
 374 0190 3B42     		tst	r3, r7
 375 0192 0AD0     		beq	.L19
  74:bb_i2c_sl.c   ****                         txbyte=a_space[reg_ptr++];
 376              		.loc 1 74 0
 377 0194 0323     		movs	r3, #3
 378 0196 AB70     		strb	r3, [r5, #2]
  75:bb_i2c_sl.c   ****                         bit_count=0;
 379              		.loc 1 75 0
 380 0198 094B     		ldr	r3, .L67+16
 381 019a 1A68     		ldr	r2, [r3]
 382 019c 2B7A     		ldrb	r3, [r5, #8]
 383 019e D919     		adds	r1, r3, r7
 384 01a0 2972     		strb	r1, [r5, #8]
 385 01a2 D35C     		ldrb	r3, [r2, r3]
  76:bb_i2c_sl.c   ****                         }
 386              		.loc 1 76 0
 387 01a4 6E70     		strb	r6, [r5, #1]
  75:bb_i2c_sl.c   ****                         bit_count=0;
 388              		.loc 1 75 0
 389 01a6 6B72     		strb	r3, [r5, #9]
 390 01a8 6FE7     		b	.L16
 391              	.L19:
  79:bb_i2c_sl.c   ****                     }
 392              		.loc 1 79 0
 393 01aa AF70     		strb	r7, [r5, #2]
 394 01ac 6DE7     		b	.L16
 395              	.L68:
 396 01ae C046     		.align	2
 397              	.L67:
 398 01b0 00000000 		.word	.LANCHOR0
 399 01b4 00000000 		.word	.LANCHOR1
 400 01b8 00000000 		.word	rxbyte
 401 01bc 00000000 		.word	st
 402 01c0 00000000 		.word	a_space
 403              	.LBE5:
 404              		.cfi_endproc
 405              	.LFE35:
 406              		.size	bb_i2c_ISR, .-bb_i2c_ISR
 407              		.comm	st,256,4
 408              		.global	acnt
 409              		.global	byte_mode
 410              		.comm	a_space,4,4
 411              		.global	reg_ptr
 412              		.global	icnt
 413              		.global	txbyte
 414              		.global	bit_count
 415              		.comm	rxbyte,1,1
 416              		.global	SDA
 417              		.global	SCL
 418              		.global	pSCL
 419              		.global	pSDA
 420              		.global	my_address
ARM GAS  C:\Users\Rajesh\AppData\Local\Temp\cc0oC67u.s 			page 12


 421              		.global	state
 422              		.data
 423              		.set	.LANCHOR0,. + 0
 424              		.type	pSCL, %object
 425              		.size	pSCL, 1
 426              	pSCL:
 427 0000 01       		.byte	1
 428              		.type	SCL, %object
 429              		.size	SCL, 1
 430              	SCL:
 431 0001 01       		.byte	1
 432              		.type	pSDA, %object
 433              		.size	pSDA, 1
 434              	pSDA:
 435 0002 01       		.byte	1
 436              		.type	SDA, %object
 437              		.size	SDA, 1
 438              	SDA:
 439 0003 01       		.byte	1
 440              		.type	my_address, %object
 441              		.size	my_address, 1
 442              	my_address:
 443 0004 32       		.byte	50
 444              		.bss
 445              		.align	2
 446              		.set	.LANCHOR1,. + 0
 447              		.type	state, %object
 448              		.size	state, 1
 449              	state:
 450 0000 00       		.space	1
 451              		.type	bit_count, %object
 452              		.size	bit_count, 1
 453              	bit_count:
 454 0001 00       		.space	1
 455              		.type	byte_mode, %object
 456              		.size	byte_mode, 1
 457              	byte_mode:
 458 0002 00       		.space	1
 459 0003 00       		.space	1
 460              		.type	acnt, %object
 461              		.size	acnt, 4
 462              	acnt:
 463 0004 00000000 		.space	4
 464              		.type	reg_ptr, %object
 465              		.size	reg_ptr, 1
 466              	reg_ptr:
 467 0008 00       		.space	1
 468              		.type	txbyte, %object
 469              		.size	txbyte, 1
 470              	txbyte:
 471 0009 00       		.space	1
 472              		.type	icnt, %object
 473              		.size	icnt, 1
 474              	icnt:
 475 000a 00       		.space	1
 476              		.text
 477              	.Letext0:
ARM GAS  C:\Users\Rajesh\AppData\Local\Temp\cc0oC67u.s 			page 13


 478              		.file 2 "Generated_Source\\PSoC4/cytypes.h"