ARM GAS  C:\Users\Rajesh\AppData\Local\Temp\ccIQ7YUL.s 			page 1


   1              		.syntax unified
   2              		.cpu cortex-m0
   3              		.fpu softvfp
   4              		.eabi_attribute 20, 1
   5              		.eabi_attribute 21, 1
   6              		.eabi_attribute 23, 3
   7              		.eabi_attribute 24, 1
   8              		.eabi_attribute 25, 1
   9              		.eabi_attribute 26, 1
  10              		.eabi_attribute 30, 2
  11              		.eabi_attribute 34, 0
  12              		.eabi_attribute 18, 4
  13              		.thumb
  14              		.syntax unified
  15              		.file	"cyfitter_cfg.c"
  16              		.text
  17              	.Ltext0:
  18              		.cfi_sections	.debug_frame
  19              		.section	.text.SetAnalogRoutingPumps,"ax",%progbits
  20              		.align	2
  21              		.global	SetAnalogRoutingPumps
  22              		.code	16
  23              		.thumb_func
  24              		.type	SetAnalogRoutingPumps, %function
  25              	SetAnalogRoutingPumps:
  26              	.LFB7:
  27              		.file 1 "Generated_Source\\PSoC4\\cyfitter_cfg.c"
   1:Generated_Source\PSoC4/cyfitter_cfg.c **** 
   2:Generated_Source\PSoC4/cyfitter_cfg.c **** /*******************************************************************************
   3:Generated_Source\PSoC4/cyfitter_cfg.c **** * File Name: cyfitter_cfg.c
   4:Generated_Source\PSoC4/cyfitter_cfg.c **** * 
   5:Generated_Source\PSoC4/cyfitter_cfg.c **** * PSoC Creator  4.2
   6:Generated_Source\PSoC4/cyfitter_cfg.c **** *
   7:Generated_Source\PSoC4/cyfitter_cfg.c **** * Description:
   8:Generated_Source\PSoC4/cyfitter_cfg.c **** * This file contains device initialization code.
   9:Generated_Source\PSoC4/cyfitter_cfg.c **** * Except for the user defined sections in CyClockStartupError(), this file should not be modified.
  10:Generated_Source\PSoC4/cyfitter_cfg.c **** * This file is automatically generated by PSoC Creator.
  11:Generated_Source\PSoC4/cyfitter_cfg.c **** *
  12:Generated_Source\PSoC4/cyfitter_cfg.c **** ********************************************************************************
  13:Generated_Source\PSoC4/cyfitter_cfg.c **** * Copyright (c) 2007-2018 Cypress Semiconductor.  All rights reserved.
  14:Generated_Source\PSoC4/cyfitter_cfg.c **** * You may use this file only in accordance with the license, terms, conditions, 
  15:Generated_Source\PSoC4/cyfitter_cfg.c **** * disclaimers, and limitations in the end user license agreement accompanying 
  16:Generated_Source\PSoC4/cyfitter_cfg.c **** * the software package with which this file was provided.
  17:Generated_Source\PSoC4/cyfitter_cfg.c **** ********************************************************************************/
  18:Generated_Source\PSoC4/cyfitter_cfg.c **** 
  19:Generated_Source\PSoC4/cyfitter_cfg.c **** #include <string.h>
  20:Generated_Source\PSoC4/cyfitter_cfg.c **** #include "cytypes.h"
  21:Generated_Source\PSoC4/cyfitter_cfg.c **** #include "cydevice_trm.h"
  22:Generated_Source\PSoC4/cyfitter_cfg.c **** #include "cyfitter.h"
  23:Generated_Source\PSoC4/cyfitter_cfg.c **** #include "CyLib.h"
  24:Generated_Source\PSoC4/cyfitter_cfg.c **** #include "CyLFClk.h"
  25:Generated_Source\PSoC4/cyfitter_cfg.c **** #include "cyfitter_cfg.h"
  26:Generated_Source\PSoC4/cyfitter_cfg.c **** #include "cyapicallbacks.h"
  27:Generated_Source\PSoC4/cyfitter_cfg.c **** 
  28:Generated_Source\PSoC4/cyfitter_cfg.c **** 
  29:Generated_Source\PSoC4/cyfitter_cfg.c **** #if defined(__GNUC__) || defined(__ARMCC_VERSION)
  30:Generated_Source\PSoC4/cyfitter_cfg.c ****     #define CYPACKED 
ARM GAS  C:\Users\Rajesh\AppData\Local\Temp\ccIQ7YUL.s 			page 2


  31:Generated_Source\PSoC4/cyfitter_cfg.c ****     #define CYPACKED_ATTR __attribute__ ((packed))
  32:Generated_Source\PSoC4/cyfitter_cfg.c ****     #define CYALIGNED __attribute__ ((aligned))
  33:Generated_Source\PSoC4/cyfitter_cfg.c ****     #define CY_CFG_UNUSED __attribute__ ((unused))
  34:Generated_Source\PSoC4/cyfitter_cfg.c ****     #ifndef CY_CFG_SECTION
  35:Generated_Source\PSoC4/cyfitter_cfg.c ****         #define CY_CFG_SECTION __attribute__ ((section(".psocinit")))
  36:Generated_Source\PSoC4/cyfitter_cfg.c ****     #endif
  37:Generated_Source\PSoC4/cyfitter_cfg.c ****     
  38:Generated_Source\PSoC4/cyfitter_cfg.c ****     #if defined(__ARMCC_VERSION)
  39:Generated_Source\PSoC4/cyfitter_cfg.c ****         #define CY_CFG_MEMORY_BARRIER() __memory_changed()
  40:Generated_Source\PSoC4/cyfitter_cfg.c ****     #else
  41:Generated_Source\PSoC4/cyfitter_cfg.c ****         #define CY_CFG_MEMORY_BARRIER() __sync_synchronize()
  42:Generated_Source\PSoC4/cyfitter_cfg.c ****     #endif
  43:Generated_Source\PSoC4/cyfitter_cfg.c ****     
  44:Generated_Source\PSoC4/cyfitter_cfg.c **** #elif defined(__ICCARM__)
  45:Generated_Source\PSoC4/cyfitter_cfg.c ****     #include <intrinsics.h>
  46:Generated_Source\PSoC4/cyfitter_cfg.c **** 
  47:Generated_Source\PSoC4/cyfitter_cfg.c ****     #define CYPACKED __packed
  48:Generated_Source\PSoC4/cyfitter_cfg.c ****     #define CYPACKED_ATTR 
  49:Generated_Source\PSoC4/cyfitter_cfg.c ****     #define CYALIGNED _Pragma("data_alignment=4")
  50:Generated_Source\PSoC4/cyfitter_cfg.c ****     #define CY_CFG_UNUSED _Pragma("diag_suppress=Pe177")
  51:Generated_Source\PSoC4/cyfitter_cfg.c ****     #define CY_CFG_SECTION _Pragma("location=\".psocinit\"")
  52:Generated_Source\PSoC4/cyfitter_cfg.c ****     
  53:Generated_Source\PSoC4/cyfitter_cfg.c ****     #define CY_CFG_MEMORY_BARRIER() __DMB()
  54:Generated_Source\PSoC4/cyfitter_cfg.c ****     
  55:Generated_Source\PSoC4/cyfitter_cfg.c **** #else
  56:Generated_Source\PSoC4/cyfitter_cfg.c ****     #error Unsupported toolchain
  57:Generated_Source\PSoC4/cyfitter_cfg.c **** #endif
  58:Generated_Source\PSoC4/cyfitter_cfg.c **** 
  59:Generated_Source\PSoC4/cyfitter_cfg.c **** #ifndef CYCODE
  60:Generated_Source\PSoC4/cyfitter_cfg.c ****     #define CYCODE
  61:Generated_Source\PSoC4/cyfitter_cfg.c **** #endif
  62:Generated_Source\PSoC4/cyfitter_cfg.c **** #ifndef CYDATA
  63:Generated_Source\PSoC4/cyfitter_cfg.c ****     #define CYDATA
  64:Generated_Source\PSoC4/cyfitter_cfg.c **** #endif
  65:Generated_Source\PSoC4/cyfitter_cfg.c **** #ifndef CYFAR
  66:Generated_Source\PSoC4/cyfitter_cfg.c ****     #define CYFAR
  67:Generated_Source\PSoC4/cyfitter_cfg.c **** #endif
  68:Generated_Source\PSoC4/cyfitter_cfg.c **** #ifndef CYXDATA
  69:Generated_Source\PSoC4/cyfitter_cfg.c ****     #define CYXDATA
  70:Generated_Source\PSoC4/cyfitter_cfg.c **** #endif
  71:Generated_Source\PSoC4/cyfitter_cfg.c **** 
  72:Generated_Source\PSoC4/cyfitter_cfg.c **** 
  73:Generated_Source\PSoC4/cyfitter_cfg.c **** CY_CFG_UNUSED
  74:Generated_Source\PSoC4/cyfitter_cfg.c **** static void CYMEMZERO(void *s, size_t n);
  75:Generated_Source\PSoC4/cyfitter_cfg.c **** CY_CFG_UNUSED
  76:Generated_Source\PSoC4/cyfitter_cfg.c **** static void CYMEMZERO(void *s, size_t n)
  77:Generated_Source\PSoC4/cyfitter_cfg.c **** {
  78:Generated_Source\PSoC4/cyfitter_cfg.c **** 	(void)memset(s, 0, n);
  79:Generated_Source\PSoC4/cyfitter_cfg.c **** }
  80:Generated_Source\PSoC4/cyfitter_cfg.c **** CY_CFG_UNUSED
  81:Generated_Source\PSoC4/cyfitter_cfg.c **** static void CYCONFIGCPY(void *dest, const void *src, size_t n);
  82:Generated_Source\PSoC4/cyfitter_cfg.c **** CY_CFG_UNUSED
  83:Generated_Source\PSoC4/cyfitter_cfg.c **** static void CYCONFIGCPY(void *dest, const void *src, size_t n)
  84:Generated_Source\PSoC4/cyfitter_cfg.c **** {
  85:Generated_Source\PSoC4/cyfitter_cfg.c **** 	(void)memcpy(dest, src, n);
  86:Generated_Source\PSoC4/cyfitter_cfg.c **** }
  87:Generated_Source\PSoC4/cyfitter_cfg.c **** CY_CFG_UNUSED
ARM GAS  C:\Users\Rajesh\AppData\Local\Temp\ccIQ7YUL.s 			page 3


  88:Generated_Source\PSoC4/cyfitter_cfg.c **** static void CYCONFIGCPYCODE(void *dest, const void *src, size_t n);
  89:Generated_Source\PSoC4/cyfitter_cfg.c **** CY_CFG_UNUSED
  90:Generated_Source\PSoC4/cyfitter_cfg.c **** static void CYCONFIGCPYCODE(void *dest, const void *src, size_t n)
  91:Generated_Source\PSoC4/cyfitter_cfg.c **** {
  92:Generated_Source\PSoC4/cyfitter_cfg.c **** 	(void)memcpy(dest, src, n);
  93:Generated_Source\PSoC4/cyfitter_cfg.c **** }
  94:Generated_Source\PSoC4/cyfitter_cfg.c **** 
  95:Generated_Source\PSoC4/cyfitter_cfg.c **** 
  96:Generated_Source\PSoC4/cyfitter_cfg.c **** 
  97:Generated_Source\PSoC4/cyfitter_cfg.c **** 
  98:Generated_Source\PSoC4/cyfitter_cfg.c **** /* Clock startup error codes                                                   */
  99:Generated_Source\PSoC4/cyfitter_cfg.c **** #define CYCLOCKSTART_NO_ERROR    0u
 100:Generated_Source\PSoC4/cyfitter_cfg.c **** #define CYCLOCKSTART_XTAL_ERROR  1u
 101:Generated_Source\PSoC4/cyfitter_cfg.c **** #define CYCLOCKSTART_32KHZ_ERROR 2u
 102:Generated_Source\PSoC4/cyfitter_cfg.c **** #define CYCLOCKSTART_PLL_ERROR   3u
 103:Generated_Source\PSoC4/cyfitter_cfg.c **** #define CYCLOCKSTART_FLL_ERROR   4u
 104:Generated_Source\PSoC4/cyfitter_cfg.c **** #define CYCLOCKSTART_WCO_ERROR   5u
 105:Generated_Source\PSoC4/cyfitter_cfg.c **** 
 106:Generated_Source\PSoC4/cyfitter_cfg.c **** 
 107:Generated_Source\PSoC4/cyfitter_cfg.c **** #ifdef CY_NEED_CYCLOCKSTARTUPERROR
 108:Generated_Source\PSoC4/cyfitter_cfg.c **** /*******************************************************************************
 109:Generated_Source\PSoC4/cyfitter_cfg.c **** * Function Name: CyClockStartupError
 110:Generated_Source\PSoC4/cyfitter_cfg.c **** ********************************************************************************
 111:Generated_Source\PSoC4/cyfitter_cfg.c **** * Summary:
 112:Generated_Source\PSoC4/cyfitter_cfg.c **** *  If an error is encountered during clock configuration (crystal startup error,
 113:Generated_Source\PSoC4/cyfitter_cfg.c **** *  PLL lock error, etc.), the system will end up here.  Unless reimplemented by
 114:Generated_Source\PSoC4/cyfitter_cfg.c **** *  the customer, this function will stop in an infinite loop.
 115:Generated_Source\PSoC4/cyfitter_cfg.c **** *
 116:Generated_Source\PSoC4/cyfitter_cfg.c **** * Parameters:
 117:Generated_Source\PSoC4/cyfitter_cfg.c **** *   void
 118:Generated_Source\PSoC4/cyfitter_cfg.c **** *
 119:Generated_Source\PSoC4/cyfitter_cfg.c **** * Return:
 120:Generated_Source\PSoC4/cyfitter_cfg.c **** *   void
 121:Generated_Source\PSoC4/cyfitter_cfg.c **** *
 122:Generated_Source\PSoC4/cyfitter_cfg.c **** *******************************************************************************/
 123:Generated_Source\PSoC4/cyfitter_cfg.c **** CY_CFG_UNUSED
 124:Generated_Source\PSoC4/cyfitter_cfg.c **** static void CyClockStartupError(uint8 errorCode);
 125:Generated_Source\PSoC4/cyfitter_cfg.c **** CY_CFG_UNUSED
 126:Generated_Source\PSoC4/cyfitter_cfg.c **** static void CyClockStartupError(uint8 errorCode)
 127:Generated_Source\PSoC4/cyfitter_cfg.c **** {
 128:Generated_Source\PSoC4/cyfitter_cfg.c ****     /* To remove the compiler warning if errorCode not used.                */
 129:Generated_Source\PSoC4/cyfitter_cfg.c ****     errorCode = errorCode;
 130:Generated_Source\PSoC4/cyfitter_cfg.c **** 
 131:Generated_Source\PSoC4/cyfitter_cfg.c ****     /* If we have a clock startup error (bad MHz crystal, PLL lock, etc.),  */
 132:Generated_Source\PSoC4/cyfitter_cfg.c ****     /* we will end up here to allow the customer to implement something to  */
 133:Generated_Source\PSoC4/cyfitter_cfg.c ****     /* deal with the clock condition.                                       */
 134:Generated_Source\PSoC4/cyfitter_cfg.c **** 
 135:Generated_Source\PSoC4/cyfitter_cfg.c **** #ifdef CY_CFG_CLOCK_STARTUP_ERROR_CALLBACK
 136:Generated_Source\PSoC4/cyfitter_cfg.c ****     CY_CFG_Clock_Startup_ErrorCallback();
 137:Generated_Source\PSoC4/cyfitter_cfg.c **** #else
 138:Generated_Source\PSoC4/cyfitter_cfg.c ****     /*  If not using CY_CFG_CLOCK_STARTUP_ERROR_CALLBACK, place your clock startup code here. */
 139:Generated_Source\PSoC4/cyfitter_cfg.c ****     /* `#START CyClockStartupError` */
 140:Generated_Source\PSoC4/cyfitter_cfg.c **** 
 141:Generated_Source\PSoC4/cyfitter_cfg.c **** 
 142:Generated_Source\PSoC4/cyfitter_cfg.c **** 
 143:Generated_Source\PSoC4/cyfitter_cfg.c ****     /* `#END` */
 144:Generated_Source\PSoC4/cyfitter_cfg.c **** 
ARM GAS  C:\Users\Rajesh\AppData\Local\Temp\ccIQ7YUL.s 			page 4


 145:Generated_Source\PSoC4/cyfitter_cfg.c ****     while(1) {}
 146:Generated_Source\PSoC4/cyfitter_cfg.c **** #endif /* CY_CFG_CLOCK_STARTUP_ERROR_CALLBACK */
 147:Generated_Source\PSoC4/cyfitter_cfg.c **** }
 148:Generated_Source\PSoC4/cyfitter_cfg.c **** #endif
 149:Generated_Source\PSoC4/cyfitter_cfg.c **** 
 150:Generated_Source\PSoC4/cyfitter_cfg.c **** #define CY_CFG_BASE_ADDR_COUNT 7u
 151:Generated_Source\PSoC4/cyfitter_cfg.c **** CYPACKED typedef struct
 152:Generated_Source\PSoC4/cyfitter_cfg.c **** {
 153:Generated_Source\PSoC4/cyfitter_cfg.c **** 	uint8 offset;
 154:Generated_Source\PSoC4/cyfitter_cfg.c **** 	uint8 value;
 155:Generated_Source\PSoC4/cyfitter_cfg.c **** } CYPACKED_ATTR cy_cfg_addrvalue_t;
 156:Generated_Source\PSoC4/cyfitter_cfg.c **** 
 157:Generated_Source\PSoC4/cyfitter_cfg.c **** 
 158:Generated_Source\PSoC4/cyfitter_cfg.c **** 
 159:Generated_Source\PSoC4/cyfitter_cfg.c **** /*******************************************************************************
 160:Generated_Source\PSoC4/cyfitter_cfg.c **** * Function Name: cfg_write_bytes32
 161:Generated_Source\PSoC4/cyfitter_cfg.c **** ********************************************************************************
 162:Generated_Source\PSoC4/cyfitter_cfg.c **** * Summary:
 163:Generated_Source\PSoC4/cyfitter_cfg.c **** *  This function is used for setting up the chip configuration areas that
 164:Generated_Source\PSoC4/cyfitter_cfg.c **** *  contain relatively sparse data.
 165:Generated_Source\PSoC4/cyfitter_cfg.c **** *
 166:Generated_Source\PSoC4/cyfitter_cfg.c **** * Parameters:
 167:Generated_Source\PSoC4/cyfitter_cfg.c **** *   void
 168:Generated_Source\PSoC4/cyfitter_cfg.c **** *
 169:Generated_Source\PSoC4/cyfitter_cfg.c **** * Return:
 170:Generated_Source\PSoC4/cyfitter_cfg.c **** *   void
 171:Generated_Source\PSoC4/cyfitter_cfg.c **** *
 172:Generated_Source\PSoC4/cyfitter_cfg.c **** *******************************************************************************/
 173:Generated_Source\PSoC4/cyfitter_cfg.c **** static void cfg_write_bytes32(const uint32 addr_table[], const cy_cfg_addrvalue_t data_table[]);
 174:Generated_Source\PSoC4/cyfitter_cfg.c **** static void cfg_write_bytes32(const uint32 addr_table[], const cy_cfg_addrvalue_t data_table[])
 175:Generated_Source\PSoC4/cyfitter_cfg.c **** {
 176:Generated_Source\PSoC4/cyfitter_cfg.c **** 	/* For 32-bit little-endian architectures */
 177:Generated_Source\PSoC4/cyfitter_cfg.c **** 	uint32 i, j = 0u;
 178:Generated_Source\PSoC4/cyfitter_cfg.c **** 	for (i = 0u; i < CY_CFG_BASE_ADDR_COUNT; i++)
 179:Generated_Source\PSoC4/cyfitter_cfg.c **** 	{
 180:Generated_Source\PSoC4/cyfitter_cfg.c **** 		uint32 baseAddr = addr_table[i];
 181:Generated_Source\PSoC4/cyfitter_cfg.c **** 		uint8 count = (uint8)baseAddr;
 182:Generated_Source\PSoC4/cyfitter_cfg.c **** 		baseAddr &= 0xFFFFFF00u;
 183:Generated_Source\PSoC4/cyfitter_cfg.c **** 		while (count != 0u)
 184:Generated_Source\PSoC4/cyfitter_cfg.c **** 		{
 185:Generated_Source\PSoC4/cyfitter_cfg.c **** 			CY_SET_REG8((void *)(baseAddr + data_table[j].offset), data_table[j].value);
 186:Generated_Source\PSoC4/cyfitter_cfg.c **** 			j++;
 187:Generated_Source\PSoC4/cyfitter_cfg.c **** 			count--;
 188:Generated_Source\PSoC4/cyfitter_cfg.c **** 		}
 189:Generated_Source\PSoC4/cyfitter_cfg.c **** 	}
 190:Generated_Source\PSoC4/cyfitter_cfg.c **** }
 191:Generated_Source\PSoC4/cyfitter_cfg.c **** 
 192:Generated_Source\PSoC4/cyfitter_cfg.c **** 
 193:Generated_Source\PSoC4/cyfitter_cfg.c **** /*******************************************************************************
 194:Generated_Source\PSoC4/cyfitter_cfg.c **** * Function Name: ClockSetup
 195:Generated_Source\PSoC4/cyfitter_cfg.c **** ********************************************************************************
 196:Generated_Source\PSoC4/cyfitter_cfg.c **** *
 197:Generated_Source\PSoC4/cyfitter_cfg.c **** * Summary:
 198:Generated_Source\PSoC4/cyfitter_cfg.c **** *   Performs the initialization of all of the clocks in the device based on the
 199:Generated_Source\PSoC4/cyfitter_cfg.c **** *   settings in the Clock tab of the DWR.  This includes enabling the requested
 200:Generated_Source\PSoC4/cyfitter_cfg.c **** *   clocks and setting the necessary dividers to produce the desired frequency. 
 201:Generated_Source\PSoC4/cyfitter_cfg.c **** *
ARM GAS  C:\Users\Rajesh\AppData\Local\Temp\ccIQ7YUL.s 			page 5


 202:Generated_Source\PSoC4/cyfitter_cfg.c **** * Parameters:
 203:Generated_Source\PSoC4/cyfitter_cfg.c **** *   void
 204:Generated_Source\PSoC4/cyfitter_cfg.c **** *
 205:Generated_Source\PSoC4/cyfitter_cfg.c **** * Return:
 206:Generated_Source\PSoC4/cyfitter_cfg.c **** *   void
 207:Generated_Source\PSoC4/cyfitter_cfg.c **** *
 208:Generated_Source\PSoC4/cyfitter_cfg.c **** *******************************************************************************/
 209:Generated_Source\PSoC4/cyfitter_cfg.c **** static void ClockSetup(void);
 210:Generated_Source\PSoC4/cyfitter_cfg.c **** CY_CFG_SECTION
 211:Generated_Source\PSoC4/cyfitter_cfg.c **** static void ClockSetup(void)
 212:Generated_Source\PSoC4/cyfitter_cfg.c **** {
 213:Generated_Source\PSoC4/cyfitter_cfg.c **** 
 214:Generated_Source\PSoC4/cyfitter_cfg.c **** 	/* Set Flash Cycles based on max possible frequency in case a glitch occurs during ClockSetup(). *
 215:Generated_Source\PSoC4/cyfitter_cfg.c **** 	CY_SET_REG32((void CYXDATA *)(CYREG_CPUSS_FLASH_CTL), (0x0012u));
 216:Generated_Source\PSoC4/cyfitter_cfg.c **** 	/* Setup and trim IMO based on desired frequency. */
 217:Generated_Source\PSoC4/cyfitter_cfg.c **** 	CySysClkWriteImoFreq(48u);
 218:Generated_Source\PSoC4/cyfitter_cfg.c **** 	/* CYDEV_CLK_ILO_CONFIG Starting address: CYDEV_CLK_ILO_CONFIG */
 219:Generated_Source\PSoC4/cyfitter_cfg.c **** 	CY_SET_REG32((void *)(CYREG_CLK_ILO_CONFIG), 0x80000006u);
 220:Generated_Source\PSoC4/cyfitter_cfg.c **** 
 221:Generated_Source\PSoC4/cyfitter_cfg.c **** 
 222:Generated_Source\PSoC4/cyfitter_cfg.c **** 	/* Setup phase aligned clocks */
 223:Generated_Source\PSoC4/cyfitter_cfg.c **** 	CY_SET_REG32((void *)CYREG_PERI_DIV_16_CTL1, 0x00000300u);
 224:Generated_Source\PSoC4/cyfitter_cfg.c **** 	CY_SET_REG32((void *)CYREG_PERI_DIV_CMD, 0x8000FF41u);
 225:Generated_Source\PSoC4/cyfitter_cfg.c **** 	CY_SET_REG32((void *)CYREG_PERI_DIV_16_CTL0, 0x00000000u);
 226:Generated_Source\PSoC4/cyfitter_cfg.c **** 	CY_SET_REG32((void *)CYREG_PERI_DIV_CMD, 0x8000FF40u);
 227:Generated_Source\PSoC4/cyfitter_cfg.c **** 	CY_SET_REG32((void *)CYREG_PERI_DIV_16_CTL3, 0x00002F00u);
 228:Generated_Source\PSoC4/cyfitter_cfg.c **** 	CY_SET_REG32((void *)CYREG_PERI_DIV_CMD, 0x8000FF43u);
 229:Generated_Source\PSoC4/cyfitter_cfg.c **** 	CY_SET_REG32((void *)CYREG_PERI_DIV_16_CTL2, 0x00001D00u);
 230:Generated_Source\PSoC4/cyfitter_cfg.c **** 	CY_SET_REG32((void *)CYREG_PERI_DIV_CMD, 0x8000FF42u);
 231:Generated_Source\PSoC4/cyfitter_cfg.c **** 
 232:Generated_Source\PSoC4/cyfitter_cfg.c **** 	/* CYDEV_CLK_IMO_CONFIG Starting address: CYDEV_CLK_IMO_CONFIG */
 233:Generated_Source\PSoC4/cyfitter_cfg.c **** 	CY_SET_REG32((void *)(CYREG_CLK_IMO_CONFIG), 0x82000000u);
 234:Generated_Source\PSoC4/cyfitter_cfg.c **** 
 235:Generated_Source\PSoC4/cyfitter_cfg.c **** 	/* CYDEV_CLK_SELECT Starting address: CYDEV_CLK_SELECT */
 236:Generated_Source\PSoC4/cyfitter_cfg.c **** 	CY_SET_REG32((void *)(CYREG_CLK_SELECT), 0x00040000u);
 237:Generated_Source\PSoC4/cyfitter_cfg.c **** 
 238:Generated_Source\PSoC4/cyfitter_cfg.c **** 	/* CYDEV_PERI_PCLK_CTL12 Starting address: CYDEV_PERI_PCLK_CTL12 */
 239:Generated_Source\PSoC4/cyfitter_cfg.c **** 	CY_SET_REG32((void *)(CYREG_PERI_PCLK_CTL12), 0x00000041u);
 240:Generated_Source\PSoC4/cyfitter_cfg.c **** 
 241:Generated_Source\PSoC4/cyfitter_cfg.c **** 	/* CYDEV_PERI_PCLK_CTL11 Starting address: CYDEV_PERI_PCLK_CTL11 */
 242:Generated_Source\PSoC4/cyfitter_cfg.c **** 	CY_SET_REG32((void *)(CYREG_PERI_PCLK_CTL11), 0x00000040u);
 243:Generated_Source\PSoC4/cyfitter_cfg.c **** 
 244:Generated_Source\PSoC4/cyfitter_cfg.c **** 	/* CYDEV_PERI_PCLK_CTL10 Starting address: CYDEV_PERI_PCLK_CTL10 */
 245:Generated_Source\PSoC4/cyfitter_cfg.c **** 	CY_SET_REG32((void *)(CYREG_PERI_PCLK_CTL10), 0x00000043u);
 246:Generated_Source\PSoC4/cyfitter_cfg.c **** 
 247:Generated_Source\PSoC4/cyfitter_cfg.c **** 	/* CYDEV_PERI_PCLK_CTL3 Starting address: CYDEV_PERI_PCLK_CTL3 */
 248:Generated_Source\PSoC4/cyfitter_cfg.c **** 	CY_SET_REG32((void *)(CYREG_PERI_PCLK_CTL3), 0x00000042u);
 249:Generated_Source\PSoC4/cyfitter_cfg.c **** 
 250:Generated_Source\PSoC4/cyfitter_cfg.c **** 	(void)CyIntSetVector(7u, &CySysWdtIsr);
 251:Generated_Source\PSoC4/cyfitter_cfg.c **** 	CyIntEnable(7u);
 252:Generated_Source\PSoC4/cyfitter_cfg.c **** 	CY_SET_REG32((void *)(CYREG_WDT_CONFIG), 0x00000000u);
 253:Generated_Source\PSoC4/cyfitter_cfg.c **** }
 254:Generated_Source\PSoC4/cyfitter_cfg.c **** 
 255:Generated_Source\PSoC4/cyfitter_cfg.c **** 
 256:Generated_Source\PSoC4/cyfitter_cfg.c **** /* Analog API Functions */
 257:Generated_Source\PSoC4/cyfitter_cfg.c **** 
 258:Generated_Source\PSoC4/cyfitter_cfg.c **** 
ARM GAS  C:\Users\Rajesh\AppData\Local\Temp\ccIQ7YUL.s 			page 6


 259:Generated_Source\PSoC4/cyfitter_cfg.c **** /*******************************************************************************
 260:Generated_Source\PSoC4/cyfitter_cfg.c **** * Function Name: AnalogSetDefault
 261:Generated_Source\PSoC4/cyfitter_cfg.c **** ********************************************************************************
 262:Generated_Source\PSoC4/cyfitter_cfg.c **** *
 263:Generated_Source\PSoC4/cyfitter_cfg.c **** * Summary:
 264:Generated_Source\PSoC4/cyfitter_cfg.c **** *  Sets up the analog portions of the chip to default values based on chip
 265:Generated_Source\PSoC4/cyfitter_cfg.c **** *  configuration options from the project.
 266:Generated_Source\PSoC4/cyfitter_cfg.c **** *
 267:Generated_Source\PSoC4/cyfitter_cfg.c **** * Parameters:
 268:Generated_Source\PSoC4/cyfitter_cfg.c **** *  void
 269:Generated_Source\PSoC4/cyfitter_cfg.c **** *
 270:Generated_Source\PSoC4/cyfitter_cfg.c **** * Return:
 271:Generated_Source\PSoC4/cyfitter_cfg.c **** *  void
 272:Generated_Source\PSoC4/cyfitter_cfg.c **** *
 273:Generated_Source\PSoC4/cyfitter_cfg.c **** *******************************************************************************/
 274:Generated_Source\PSoC4/cyfitter_cfg.c **** static void AnalogSetDefault(void);
 275:Generated_Source\PSoC4/cyfitter_cfg.c **** static void AnalogSetDefault(void)
 276:Generated_Source\PSoC4/cyfitter_cfg.c **** {
 277:Generated_Source\PSoC4/cyfitter_cfg.c **** 	CY_SET_XTND_REG32((void CYFAR *)CYREG_HSIOM_AMUX_SPLIT_CTL0, 0x00000003u);
 278:Generated_Source\PSoC4/cyfitter_cfg.c **** 	CY_SET_XTND_REG32((void CYFAR *)CYREG_HSIOM_AMUX_SPLIT_CTL1, 0x00000003u);
 279:Generated_Source\PSoC4/cyfitter_cfg.c **** 	CY_SET_XTND_REG32((void CYFAR *)CYREG_CTBM0_CTB_CTRL, 0x80000000u);
 280:Generated_Source\PSoC4/cyfitter_cfg.c **** 	CY_SET_XTND_REG32((void CYFAR *)CYREG_CTBM0_DFT_CTRL, 0x00000003u);
 281:Generated_Source\PSoC4/cyfitter_cfg.c **** 	CY_SET_XTND_REG32((void CYFAR *)CYREG_CTBM0_OA0_SW, 0x00204001u);
 282:Generated_Source\PSoC4/cyfitter_cfg.c **** 	CY_SET_XTND_REG32((void CYFAR *)CYREG_CTBM0_OA1_SW, 0x00000102u);
 283:Generated_Source\PSoC4/cyfitter_cfg.c **** 	CY_SET_XTND_REG32((void CYFAR *)CYREG_CTBM1_CTB_CTRL, 0x80000000u);
 284:Generated_Source\PSoC4/cyfitter_cfg.c **** 	CY_SET_XTND_REG32((void CYFAR *)CYREG_CTBM1_DFT_CTRL, 0x00000003u);
 285:Generated_Source\PSoC4/cyfitter_cfg.c **** 	CY_SET_XTND_REG32((void CYFAR *)CYREG_CTBM1_OA0_SW, 0x00204001u);
 286:Generated_Source\PSoC4/cyfitter_cfg.c **** 	CY_SET_XTND_REG32((void CYFAR *)CYREG_CTBM1_OA1_SW, 0x00204010u);
 287:Generated_Source\PSoC4/cyfitter_cfg.c **** 	CY_SET_XTND_REG32((void CYFAR *)CYREG_SAR_CTRL, 0x80000000u);
 288:Generated_Source\PSoC4/cyfitter_cfg.c **** 	CY_SET_XTND_REG32((void CYFAR *)CYREG_SAR_MUX_SWITCH0, 0x00000010u);
 289:Generated_Source\PSoC4/cyfitter_cfg.c **** 	CY_SET_XTND_REG32((void CYFAR *)CYREG_PASS_DSAB_DSAB_CTRL, 0x00000000u);
 290:Generated_Source\PSoC4/cyfitter_cfg.c **** 	SetAnalogRoutingPumps(1);
 291:Generated_Source\PSoC4/cyfitter_cfg.c **** }
 292:Generated_Source\PSoC4/cyfitter_cfg.c **** 
 293:Generated_Source\PSoC4/cyfitter_cfg.c **** 
 294:Generated_Source\PSoC4/cyfitter_cfg.c **** /*******************************************************************************
 295:Generated_Source\PSoC4/cyfitter_cfg.c **** * Function Name: SetAnalogRoutingPumps
 296:Generated_Source\PSoC4/cyfitter_cfg.c **** ********************************************************************************
 297:Generated_Source\PSoC4/cyfitter_cfg.c **** *
 298:Generated_Source\PSoC4/cyfitter_cfg.c **** * Summary:
 299:Generated_Source\PSoC4/cyfitter_cfg.c **** * Enables or disables the analog pumps feeding analog routing switches.
 300:Generated_Source\PSoC4/cyfitter_cfg.c **** * Intended to be called at startup, based on the Vdda system configuration;
 301:Generated_Source\PSoC4/cyfitter_cfg.c **** * may be called during operation when the user informs us that the Vdda voltage crossed the pump th
 302:Generated_Source\PSoC4/cyfitter_cfg.c **** *
 303:Generated_Source\PSoC4/cyfitter_cfg.c **** * Parameters:
 304:Generated_Source\PSoC4/cyfitter_cfg.c **** *  enabled - 1 to enable the pumps, 0 to disable the pumps
 305:Generated_Source\PSoC4/cyfitter_cfg.c **** *
 306:Generated_Source\PSoC4/cyfitter_cfg.c **** * Return:
 307:Generated_Source\PSoC4/cyfitter_cfg.c **** *  void
 308:Generated_Source\PSoC4/cyfitter_cfg.c **** *
 309:Generated_Source\PSoC4/cyfitter_cfg.c **** *******************************************************************************/
 310:Generated_Source\PSoC4/cyfitter_cfg.c **** void SetAnalogRoutingPumps(uint8 enabled)
 311:Generated_Source\PSoC4/cyfitter_cfg.c **** {
  28              		.loc 1 311 0
  29              		.cfi_startproc
  30              		@ args = 0, pretend = 0, frame = 0
  31              		@ frame_needed = 0, uses_anonymous_args = 0
ARM GAS  C:\Users\Rajesh\AppData\Local\Temp\ccIQ7YUL.s 			page 7


  32              		@ link register save eliminated.
  33              	.LVL0:
 312:Generated_Source\PSoC4/cyfitter_cfg.c **** 	uint32 regValue = CY_GET_XTND_REG32((void *)(CYREG_SAR_PUMP_CTRL));
  34              		.loc 1 312 0
  35 0000 064B     		ldr	r3, .L6
  36 0002 1B68     		ldr	r3, [r3]
  37              	.LVL1:
 313:Generated_Source\PSoC4/cyfitter_cfg.c **** 	if (enabled != 0u)
  38              		.loc 1 313 0
  39 0004 0028     		cmp	r0, #0
  40 0006 04D1     		bne	.L5
 314:Generated_Source\PSoC4/cyfitter_cfg.c **** 	{
 315:Generated_Source\PSoC4/cyfitter_cfg.c **** 		regValue |= 0x80000000u;
 316:Generated_Source\PSoC4/cyfitter_cfg.c **** 	}
 317:Generated_Source\PSoC4/cyfitter_cfg.c **** 	else
 318:Generated_Source\PSoC4/cyfitter_cfg.c **** 	{
 319:Generated_Source\PSoC4/cyfitter_cfg.c **** 		regValue &= ~0x80000000u;
  41              		.loc 1 319 0
  42 0008 5B00     		lsls	r3, r3, #1
  43              	.LVL2:
  44 000a 5B08     		lsrs	r3, r3, #1
  45              	.LVL3:
  46              	.L3:
 320:Generated_Source\PSoC4/cyfitter_cfg.c **** 	}
 321:Generated_Source\PSoC4/cyfitter_cfg.c **** 	CY_SET_XTND_REG32((void *)(CYREG_SAR_PUMP_CTRL), regValue);
  47              		.loc 1 321 0
  48 000c 034A     		ldr	r2, .L6
 322:Generated_Source\PSoC4/cyfitter_cfg.c **** }
  49              		.loc 1 322 0
  50              		@ sp needed
 321:Generated_Source\PSoC4/cyfitter_cfg.c **** }
  51              		.loc 1 321 0
  52 000e 1360     		str	r3, [r2]
  53              		.loc 1 322 0
  54 0010 7047     		bx	lr
  55              	.L5:
 315:Generated_Source\PSoC4/cyfitter_cfg.c **** 	}
  56              		.loc 1 315 0
  57 0012 8022     		movs	r2, #128
  58 0014 1206     		lsls	r2, r2, #24
  59 0016 1343     		orrs	r3, r2
  60              	.LVL4:
  61 0018 F8E7     		b	.L3
  62              	.L7:
  63 001a C046     		.align	2
  64              	.L6:
  65 001c 80033A40 		.word	1077543808
  66              		.cfi_endproc
  67              	.LFE7:
  68              		.size	SetAnalogRoutingPumps, .-SetAnalogRoutingPumps
  69              		.section	.psocinit,"ax",%progbits
  70              		.align	2
  71              		.global	cyfitter_cfg
  72              		.code	16
  73              		.thumb_func
  74              		.type	cyfitter_cfg, %function
  75              	cyfitter_cfg:
ARM GAS  C:\Users\Rajesh\AppData\Local\Temp\ccIQ7YUL.s 			page 8


  76              	.LFB8:
 323:Generated_Source\PSoC4/cyfitter_cfg.c **** 
 324:Generated_Source\PSoC4/cyfitter_cfg.c **** 
 325:Generated_Source\PSoC4/cyfitter_cfg.c **** 
 326:Generated_Source\PSoC4/cyfitter_cfg.c **** 
 327:Generated_Source\PSoC4/cyfitter_cfg.c **** /*******************************************************************************
 328:Generated_Source\PSoC4/cyfitter_cfg.c **** * Function Name: cyfitter_cfg
 329:Generated_Source\PSoC4/cyfitter_cfg.c **** ********************************************************************************
 330:Generated_Source\PSoC4/cyfitter_cfg.c **** * Summary:
 331:Generated_Source\PSoC4/cyfitter_cfg.c **** *  This function is called by the start-up code for the selected device. It
 332:Generated_Source\PSoC4/cyfitter_cfg.c **** *  performs all of the necessary device configuration based on the design
 333:Generated_Source\PSoC4/cyfitter_cfg.c **** *  settings.  This includes settings from the Design Wide Resources (DWR) such
 334:Generated_Source\PSoC4/cyfitter_cfg.c **** *  as Clocks and Pins as well as any component configuration that is necessary.
 335:Generated_Source\PSoC4/cyfitter_cfg.c **** *
 336:Generated_Source\PSoC4/cyfitter_cfg.c **** * Parameters:
 337:Generated_Source\PSoC4/cyfitter_cfg.c **** *   void
 338:Generated_Source\PSoC4/cyfitter_cfg.c **** *
 339:Generated_Source\PSoC4/cyfitter_cfg.c **** * Return:
 340:Generated_Source\PSoC4/cyfitter_cfg.c **** *   void
 341:Generated_Source\PSoC4/cyfitter_cfg.c **** *
 342:Generated_Source\PSoC4/cyfitter_cfg.c **** *******************************************************************************/
 343:Generated_Source\PSoC4/cyfitter_cfg.c **** CY_CFG_SECTION
 344:Generated_Source\PSoC4/cyfitter_cfg.c **** void cyfitter_cfg(void)
 345:Generated_Source\PSoC4/cyfitter_cfg.c **** {
  77              		.loc 1 345 0
  78              		.cfi_startproc
  79              		@ args = 0, pretend = 0, frame = 0
  80              		@ frame_needed = 0, uses_anonymous_args = 0
  81 0000 F0B5     		push	{r4, r5, r6, r7, lr}
  82              		.cfi_def_cfa_offset 20
  83              		.cfi_offset 4, -20
  84              		.cfi_offset 5, -16
  85              		.cfi_offset 6, -12
  86              		.cfi_offset 7, -8
  87              		.cfi_offset 14, -4
  88 0002 4746     		mov	r7, r8
  89 0004 80B4     		push	{r7}
  90              		.cfi_def_cfa_offset 24
  91              		.cfi_offset 8, -24
 346:Generated_Source\PSoC4/cyfitter_cfg.c **** 	/* Disable interrupts by default. Let user enable if/when they want. */
 347:Generated_Source\PSoC4/cyfitter_cfg.c **** 	CyGlobalIntDisable;
  92              		.loc 1 347 0
  93              		.syntax divided
  94              	@ 347 "Generated_Source\PSoC4\cyfitter_cfg.c" 1
  95 0006 72B6     		CPSID   i
  96              	@ 0 "" 2
 348:Generated_Source\PSoC4/cyfitter_cfg.c **** 
 349:Generated_Source\PSoC4/cyfitter_cfg.c **** 	/* Enable the clock in the interrupt controller for the routed interrupts */
 350:Generated_Source\PSoC4/cyfitter_cfg.c **** 	CY_SET_REG8((void *)CYREG_UDB_UDBIF_INT_CLK_CTL, 0x01u);
  97              		.loc 1 350 0
  98              		.thumb
  99              		.syntax unified
 100 0008 0122     		movs	r2, #1
 101 000a 714B     		ldr	r3, .L17
 102              	.LBB24:
 103              	.LBB25:
 104              	.LBB26:
ARM GAS  C:\Users\Rajesh\AppData\Local\Temp\ccIQ7YUL.s 			page 9


 105              	.LBB27:
  78:Generated_Source\PSoC4/cyfitter_cfg.c **** }
 106              		.loc 1 78 0
 107 000c 0021     		movs	r1, #0
 108              	.LBE27:
 109              	.LBE26:
 110              	.LBE25:
 111              	.LBE24:
 112              		.loc 1 350 0
 113 000e 1A70     		strb	r2, [r3]
 114              	.LVL5:
 115              	.LBB40:
 116              	.LBB32:
 117              	.LBB30:
 118              	.LBB28:
  78:Generated_Source\PSoC4/cyfitter_cfg.c **** }
 119              		.loc 1 78 0
 120 0010 8022     		movs	r2, #128
 121 0012 7048     		ldr	r0, .L17+4
 122 0014 D200     		lsls	r2, r2, #3
 123 0016 FFF7FEFF 		bl	memset
 124              	.LVL6:
 125 001a 8022     		movs	r2, #128
 126 001c 0021     		movs	r1, #0
 127 001e D200     		lsls	r2, r2, #3
 128 0020 6D48     		ldr	r0, .L17+8
 129 0022 FFF7FEFF 		bl	memset
 130              	.LVL7:
 131 0026 1C23     		movs	r3, #28
 132 0028 9846     		mov	r8, r3
 133 002a 6C4D     		ldr	r5, .L17+12
 134              	.LBE28:
 135              	.LBE30:
 136              	.LBE32:
 137              	.LBB33:
 138              	.LBB34:
 139              	.LBB35:
 182:Generated_Source\PSoC4/cyfitter_cfg.c **** 		while (count != 0u)
 140              		.loc 1 182 0
 141 002c E333     		adds	r3, r3, #227
 142 002e A844     		add	r8, r8, r5
 143              	.LBE35:
 144              	.LBE34:
 145              	.LBE33:
 146              	.LBB38:
 147              	.LBB31:
 148              	.LBB29:
  78:Generated_Source\PSoC4/cyfitter_cfg.c **** }
 149              		.loc 1 78 0
 150 0030 0027     		movs	r7, #0
 151              	.LBE29:
 152              	.LBE31:
 153              	.LBE38:
 154              	.LBB39:
 155              	.LBB37:
 156              	.LBB36:
 182:Generated_Source\PSoC4/cyfitter_cfg.c **** 		while (count != 0u)
ARM GAS  C:\Users\Rajesh\AppData\Local\Temp\ccIQ7YUL.s 			page 10


 157              		.loc 1 182 0
 158 0032 9C46     		mov	ip, r3
 159 0034 4646     		mov	r6, r8
 160              	.LVL8:
 161              	.L11:
 162 0036 6346     		mov	r3, ip
 163 0038 2868     		ldr	r0, [r5]
 181:Generated_Source\PSoC4/cyfitter_cfg.c **** 		baseAddr &= 0xFFFFFF00u;
 164              		.loc 1 181 0
 165 003a 2A78     		ldrb	r2, [r5]
 166              	.LVL9:
 182:Generated_Source\PSoC4/cyfitter_cfg.c **** 		while (count != 0u)
 167              		.loc 1 182 0
 168 003c 9843     		bics	r0, r3
 169              	.LVL10:
 183:Generated_Source\PSoC4/cyfitter_cfg.c **** 		{
 170              		.loc 1 183 0
 171 003e 002A     		cmp	r2, #0
 172 0040 0ED0     		beq	.L9
 173 0042 013A     		subs	r2, r2, #1
 174              	.LVL11:
 175 0044 791C     		adds	r1, r7, #1
 176 0046 D2B2     		uxtb	r2, r2
 177              	.LVL12:
 178 0048 7B00     		lsls	r3, r7, #1
 179 004a 5718     		adds	r7, r2, r1
 180              	.LVL13:
 181 004c 7C00     		lsls	r4, r7, #1
 182 004e F318     		adds	r3, r6, r3
 183 0050 3419     		adds	r4, r6, r4
 184              	.LVL14:
 185              	.L10:
 185:Generated_Source\PSoC4/cyfitter_cfg.c **** 			j++;
 186              		.loc 1 185 0
 187 0052 1A78     		ldrb	r2, [r3]
 188 0054 5978     		ldrb	r1, [r3, #1]
 189 0056 1218     		adds	r2, r2, r0
 190 0058 0233     		adds	r3, r3, #2
 191 005a 1170     		strb	r1, [r2]
 183:Generated_Source\PSoC4/cyfitter_cfg.c **** 		{
 192              		.loc 1 183 0
 193 005c 9C42     		cmp	r4, r3
 194 005e F8D1     		bne	.L10
 195              	.L9:
 196              	.LVL15:
 197 0060 0435     		adds	r5, r5, #4
 198              	.LBE36:
 178:Generated_Source\PSoC4/cyfitter_cfg.c **** 	{
 199              		.loc 1 178 0
 200 0062 4545     		cmp	r5, r8
 201 0064 E7D1     		bne	.L11
 202              	.LVL16:
 203              	.LBE37:
 204              	.LBE39:
 351:Generated_Source\PSoC4/cyfitter_cfg.c **** 	{
 352:Generated_Source\PSoC4/cyfitter_cfg.c **** 		static const uint32 CYCODE cy_cfg_addr_table[] = {
 353:Generated_Source\PSoC4/cyfitter_cfg.c **** 			0x400F3014u, /* Base address: 0x400F3000 Count: 20 */
ARM GAS  C:\Users\Rajesh\AppData\Local\Temp\ccIQ7YUL.s 			page 11


 354:Generated_Source\PSoC4/cyfitter_cfg.c **** 			0x400F3111u, /* Base address: 0x400F3100 Count: 17 */
 355:Generated_Source\PSoC4/cyfitter_cfg.c **** 			0x400F3308u, /* Base address: 0x400F3300 Count: 8 */
 356:Generated_Source\PSoC4/cyfitter_cfg.c **** 			0x400F4007u, /* Base address: 0x400F4000 Count: 7 */
 357:Generated_Source\PSoC4/cyfitter_cfg.c **** 			0x400F4102u, /* Base address: 0x400F4100 Count: 2 */
 358:Generated_Source\PSoC4/cyfitter_cfg.c **** 			0x400F420Bu, /* Base address: 0x400F4200 Count: 11 */
 359:Generated_Source\PSoC4/cyfitter_cfg.c **** 			0x400F4308u, /* Base address: 0x400F4300 Count: 8 */
 360:Generated_Source\PSoC4/cyfitter_cfg.c **** 		};
 361:Generated_Source\PSoC4/cyfitter_cfg.c **** 
 362:Generated_Source\PSoC4/cyfitter_cfg.c **** 		static const cy_cfg_addrvalue_t CYCODE cy_cfg_data_table[] = {
 363:Generated_Source\PSoC4/cyfitter_cfg.c **** 			{0x0Eu, 0x04u},
 364:Generated_Source\PSoC4/cyfitter_cfg.c **** 			{0x1Au, 0x02u},
 365:Generated_Source\PSoC4/cyfitter_cfg.c **** 			{0x1Eu, 0x01u},
 366:Generated_Source\PSoC4/cyfitter_cfg.c **** 			{0x26u, 0x02u},
 367:Generated_Source\PSoC4/cyfitter_cfg.c **** 			{0x2Au, 0x04u},
 368:Generated_Source\PSoC4/cyfitter_cfg.c **** 			{0x2Eu, 0x01u},
 369:Generated_Source\PSoC4/cyfitter_cfg.c **** 			{0x32u, 0x07u},
 370:Generated_Source\PSoC4/cyfitter_cfg.c **** 			{0x3Eu, 0x04u},
 371:Generated_Source\PSoC4/cyfitter_cfg.c **** 			{0x58u, 0x04u},
 372:Generated_Source\PSoC4/cyfitter_cfg.c **** 			{0x5Bu, 0x04u},
 373:Generated_Source\PSoC4/cyfitter_cfg.c **** 			{0x5Fu, 0x01u},
 374:Generated_Source\PSoC4/cyfitter_cfg.c **** 			{0x83u, 0x01u},
 375:Generated_Source\PSoC4/cyfitter_cfg.c **** 			{0xA3u, 0x01u},
 376:Generated_Source\PSoC4/cyfitter_cfg.c **** 			{0xB5u, 0x01u},
 377:Generated_Source\PSoC4/cyfitter_cfg.c **** 			{0xB8u, 0x02u},
 378:Generated_Source\PSoC4/cyfitter_cfg.c **** 			{0xBEu, 0x01u},
 379:Generated_Source\PSoC4/cyfitter_cfg.c **** 			{0xBFu, 0x10u},
 380:Generated_Source\PSoC4/cyfitter_cfg.c **** 			{0xD8u, 0x04u},
 381:Generated_Source\PSoC4/cyfitter_cfg.c **** 			{0xD9u, 0x04u},
 382:Generated_Source\PSoC4/cyfitter_cfg.c **** 			{0xDFu, 0x01u},
 383:Generated_Source\PSoC4/cyfitter_cfg.c **** 			{0x02u, 0x02u},
 384:Generated_Source\PSoC4/cyfitter_cfg.c **** 			{0x08u, 0xA0u},
 385:Generated_Source\PSoC4/cyfitter_cfg.c **** 			{0x10u, 0x2Au},
 386:Generated_Source\PSoC4/cyfitter_cfg.c **** 			{0x19u, 0x08u},
 387:Generated_Source\PSoC4/cyfitter_cfg.c **** 			{0x1Du, 0x01u},
 388:Generated_Source\PSoC4/cyfitter_cfg.c **** 			{0x24u, 0x08u},
 389:Generated_Source\PSoC4/cyfitter_cfg.c **** 			{0x2Fu, 0x80u},
 390:Generated_Source\PSoC4/cyfitter_cfg.c **** 			{0x3Eu, 0x02u},
 391:Generated_Source\PSoC4/cyfitter_cfg.c **** 			{0x68u, 0x2Au},
 392:Generated_Source\PSoC4/cyfitter_cfg.c **** 			{0x89u, 0x08u},
 393:Generated_Source\PSoC4/cyfitter_cfg.c **** 			{0x8Cu, 0xA0u},
 394:Generated_Source\PSoC4/cyfitter_cfg.c **** 			{0xC0u, 0x01u},
 395:Generated_Source\PSoC4/cyfitter_cfg.c **** 			{0xC2u, 0x03u},
 396:Generated_Source\PSoC4/cyfitter_cfg.c **** 			{0xC4u, 0x07u},
 397:Generated_Source\PSoC4/cyfitter_cfg.c **** 			{0xCAu, 0x80u},
 398:Generated_Source\PSoC4/cyfitter_cfg.c **** 			{0xCEu, 0x80u},
 399:Generated_Source\PSoC4/cyfitter_cfg.c **** 			{0xE2u, 0x80u},
 400:Generated_Source\PSoC4/cyfitter_cfg.c **** 			{0x82u, 0x02u},
 401:Generated_Source\PSoC4/cyfitter_cfg.c **** 			{0x9Eu, 0x02u},
 402:Generated_Source\PSoC4/cyfitter_cfg.c **** 			{0xA8u, 0x04u},
 403:Generated_Source\PSoC4/cyfitter_cfg.c **** 			{0xABu, 0x80u},
 404:Generated_Source\PSoC4/cyfitter_cfg.c **** 			{0xB2u, 0x02u},
 405:Generated_Source\PSoC4/cyfitter_cfg.c **** 			{0xB5u, 0x01u},
 406:Generated_Source\PSoC4/cyfitter_cfg.c **** 			{0xE6u, 0x04u},
 407:Generated_Source\PSoC4/cyfitter_cfg.c **** 			{0xEEu, 0x04u},
 408:Generated_Source\PSoC4/cyfitter_cfg.c **** 			{0x52u, 0x20u},
 409:Generated_Source\PSoC4/cyfitter_cfg.c **** 			{0x62u, 0x20u},
 410:Generated_Source\PSoC4/cyfitter_cfg.c **** 			{0x69u, 0x10u},
ARM GAS  C:\Users\Rajesh\AppData\Local\Temp\ccIQ7YUL.s 			page 12


 411:Generated_Source\PSoC4/cyfitter_cfg.c **** 			{0x89u, 0x10u},
 412:Generated_Source\PSoC4/cyfitter_cfg.c **** 			{0xD4u, 0x20u},
 413:Generated_Source\PSoC4/cyfitter_cfg.c **** 			{0xD8u, 0x40u},
 414:Generated_Source\PSoC4/cyfitter_cfg.c **** 			{0xDAu, 0x40u},
 415:Generated_Source\PSoC4/cyfitter_cfg.c **** 			{0xAAu, 0x20u},
 416:Generated_Source\PSoC4/cyfitter_cfg.c **** 			{0xEEu, 0x80u},
 417:Generated_Source\PSoC4/cyfitter_cfg.c **** 			{0x00u, 0x40u},
 418:Generated_Source\PSoC4/cyfitter_cfg.c **** 			{0x03u, 0x40u},
 419:Generated_Source\PSoC4/cyfitter_cfg.c **** 			{0x06u, 0x80u},
 420:Generated_Source\PSoC4/cyfitter_cfg.c **** 			{0x2Fu, 0x01u},
 421:Generated_Source\PSoC4/cyfitter_cfg.c **** 			{0x77u, 0x08u},
 422:Generated_Source\PSoC4/cyfitter_cfg.c **** 			{0x8Cu, 0x40u},
 423:Generated_Source\PSoC4/cyfitter_cfg.c **** 			{0x8Fu, 0x40u},
 424:Generated_Source\PSoC4/cyfitter_cfg.c **** 			{0xC0u, 0x0Eu},
 425:Generated_Source\PSoC4/cyfitter_cfg.c **** 			{0xCAu, 0x04u},
 426:Generated_Source\PSoC4/cyfitter_cfg.c **** 			{0xDCu, 0x02u},
 427:Generated_Source\PSoC4/cyfitter_cfg.c **** 			{0xE2u, 0x0Au},
 428:Generated_Source\PSoC4/cyfitter_cfg.c **** 			{0x18u, 0x40u},
 429:Generated_Source\PSoC4/cyfitter_cfg.c **** 			{0x80u, 0x40u},
 430:Generated_Source\PSoC4/cyfitter_cfg.c **** 			{0xABu, 0x01u},
 431:Generated_Source\PSoC4/cyfitter_cfg.c **** 			{0xB2u, 0x80u},
 432:Generated_Source\PSoC4/cyfitter_cfg.c **** 			{0xB7u, 0x08u},
 433:Generated_Source\PSoC4/cyfitter_cfg.c **** 			{0xC6u, 0x08u},
 434:Generated_Source\PSoC4/cyfitter_cfg.c **** 			{0xECu, 0x02u},
 435:Generated_Source\PSoC4/cyfitter_cfg.c **** 			{0xEEu, 0x04u},
 436:Generated_Source\PSoC4/cyfitter_cfg.c **** 		};
 437:Generated_Source\PSoC4/cyfitter_cfg.c **** 
 438:Generated_Source\PSoC4/cyfitter_cfg.c **** 
 439:Generated_Source\PSoC4/cyfitter_cfg.c **** 
 440:Generated_Source\PSoC4/cyfitter_cfg.c **** 		CYPACKED typedef struct {
 441:Generated_Source\PSoC4/cyfitter_cfg.c **** 			void CYFAR *address;
 442:Generated_Source\PSoC4/cyfitter_cfg.c **** 			uint16 size;
 443:Generated_Source\PSoC4/cyfitter_cfg.c **** 		} CYPACKED_ATTR cfg_memset_t;
 444:Generated_Source\PSoC4/cyfitter_cfg.c **** 
 445:Generated_Source\PSoC4/cyfitter_cfg.c **** 		static const cfg_memset_t CYCODE cfg_memset_list[] = {
 446:Generated_Source\PSoC4/cyfitter_cfg.c **** 			/* address, size */
 447:Generated_Source\PSoC4/cyfitter_cfg.c **** 			{(void CYFAR *)(CYDEV_UDB_P0_U0_BASE), 1024u},
 448:Generated_Source\PSoC4/cyfitter_cfg.c **** 			{(void CYFAR *)(CYDEV_UDB_DSI0_BASE), 1024u},
 449:Generated_Source\PSoC4/cyfitter_cfg.c **** 		};
 450:Generated_Source\PSoC4/cyfitter_cfg.c **** 
 451:Generated_Source\PSoC4/cyfitter_cfg.c **** 		uint8 CYDATA i;
 452:Generated_Source\PSoC4/cyfitter_cfg.c **** 
 453:Generated_Source\PSoC4/cyfitter_cfg.c **** 		/* Zero out critical memory blocks before beginning configuration */
 454:Generated_Source\PSoC4/cyfitter_cfg.c **** 		for (i = 0u; i < (sizeof(cfg_memset_list)/sizeof(cfg_memset_list[0])); i++)
 455:Generated_Source\PSoC4/cyfitter_cfg.c **** 		{
 456:Generated_Source\PSoC4/cyfitter_cfg.c **** 			const cfg_memset_t CYCODE * CYDATA ms = &cfg_memset_list[i];
 457:Generated_Source\PSoC4/cyfitter_cfg.c **** 			CYMEMZERO(ms->address, (size_t)(uint32)(ms->size));
 458:Generated_Source\PSoC4/cyfitter_cfg.c **** 		}
 459:Generated_Source\PSoC4/cyfitter_cfg.c **** 
 460:Generated_Source\PSoC4/cyfitter_cfg.c **** 		cfg_write_bytes32(cy_cfg_addr_table, cy_cfg_data_table);
 461:Generated_Source\PSoC4/cyfitter_cfg.c **** 
 462:Generated_Source\PSoC4/cyfitter_cfg.c **** 		/* HSIOM Starting address: CYDEV_HSIOM_BASE */
 463:Generated_Source\PSoC4/cyfitter_cfg.c **** 		CY_SET_REG32((void *)(CYDEV_HSIOM_BASE), 0x33333333u);
 205              		.loc 1 463 0
 206 0066 5E4A     		ldr	r2, .L17+16
 207 0068 5E4B     		ldr	r3, .L17+20
 464:Generated_Source\PSoC4/cyfitter_cfg.c **** 		CY_SET_REG32((void *)(CYREG_HSIOM_PORT_SEL3), 0x0000EEEEu);
ARM GAS  C:\Users\Rajesh\AppData\Local\Temp\ccIQ7YUL.s 			page 13


 465:Generated_Source\PSoC4/cyfitter_cfg.c **** 		CY_SET_REG32((void *)(CYREG_HSIOM_PORT_SEL4), 0x60000000u);
 466:Generated_Source\PSoC4/cyfitter_cfg.c **** 		CY_SET_REG32((void *)(CYREG_HSIOM_PORT_SEL5), 0x60000000u);
 467:Generated_Source\PSoC4/cyfitter_cfg.c **** 
 468:Generated_Source\PSoC4/cyfitter_cfg.c **** 		/* UDB_PA_0 Starting address: CYDEV_UDB_PA0_BASE */
 469:Generated_Source\PSoC4/cyfitter_cfg.c **** 		CY_SET_REG32((void *)(CYDEV_UDB_PA0_BASE), 0x00990000u);
 470:Generated_Source\PSoC4/cyfitter_cfg.c **** 		CY_SET_REG32((void *)(CYREG_UDB_PA0_CFG8), 0xAA000000u);
 208              		.loc 1 470 0
 209 006a AA21     		movs	r1, #170
 463:Generated_Source\PSoC4/cyfitter_cfg.c **** 		CY_SET_REG32((void *)(CYREG_HSIOM_PORT_SEL3), 0x0000EEEEu);
 210              		.loc 1 463 0
 211 006c 1A60     		str	r2, [r3]
 464:Generated_Source\PSoC4/cyfitter_cfg.c **** 		CY_SET_REG32((void *)(CYREG_HSIOM_PORT_SEL3), 0x0000EEEEu);
 212              		.loc 1 464 0
 213 006e 5E4A     		ldr	r2, .L17+24
 214 0070 5E4B     		ldr	r3, .L17+28
 215              		.loc 1 470 0
 216 0072 0906     		lsls	r1, r1, #24
 464:Generated_Source\PSoC4/cyfitter_cfg.c **** 		CY_SET_REG32((void *)(CYREG_HSIOM_PORT_SEL3), 0x0000EEEEu);
 217              		.loc 1 464 0
 218 0074 1A60     		str	r2, [r3]
 465:Generated_Source\PSoC4/cyfitter_cfg.c **** 		CY_SET_REG32((void *)(CYREG_HSIOM_PORT_SEL5), 0x60000000u);
 219              		.loc 1 465 0
 220 0076 C023     		movs	r3, #192
 221 0078 5D4A     		ldr	r2, .L17+32
 222 007a DB05     		lsls	r3, r3, #23
 223 007c 1360     		str	r3, [r2]
 466:Generated_Source\PSoC4/cyfitter_cfg.c **** 
 224              		.loc 1 466 0
 225 007e 5D4A     		ldr	r2, .L17+36
 226              	.LBE40:
 471:Generated_Source\PSoC4/cyfitter_cfg.c **** 
 472:Generated_Source\PSoC4/cyfitter_cfg.c **** 		/* UDB_PA_1 Starting address: CYDEV_UDB_PA1_BASE */
 473:Generated_Source\PSoC4/cyfitter_cfg.c **** 		CY_SET_REG32((void *)(CYDEV_UDB_PA1_BASE), 0x00990000u);
 474:Generated_Source\PSoC4/cyfitter_cfg.c **** 
 475:Generated_Source\PSoC4/cyfitter_cfg.c **** 		/* UDB_PA_2 Starting address: CYDEV_UDB_PA2_BASE */
 476:Generated_Source\PSoC4/cyfitter_cfg.c **** 		CY_SET_REG32((void *)(CYDEV_UDB_PA2_BASE), 0x00990000u);
 477:Generated_Source\PSoC4/cyfitter_cfg.c **** 
 478:Generated_Source\PSoC4/cyfitter_cfg.c **** 		/* UDB_PA_3 Starting address: CYDEV_UDB_PA3_BASE */
 479:Generated_Source\PSoC4/cyfitter_cfg.c **** 		CY_SET_REG32((void *)(CYDEV_UDB_PA3_BASE), 0x00990000u);
 480:Generated_Source\PSoC4/cyfitter_cfg.c **** 
 481:Generated_Source\PSoC4/cyfitter_cfg.c **** 		/* INT_SELECT Starting address: CYDEV_CPUSS_INT_SEL */
 482:Generated_Source\PSoC4/cyfitter_cfg.c **** 		CY_SET_REG32((void *)(CYREG_CPUSS_INT_SEL), 0x00000001u);
 483:Generated_Source\PSoC4/cyfitter_cfg.c **** 
 484:Generated_Source\PSoC4/cyfitter_cfg.c **** 		/* INT_CONFIG Starting address: CYDEV_UDB_INT_CFG */
 485:Generated_Source\PSoC4/cyfitter_cfg.c **** 		CY_SET_REG32((void *)(CYREG_UDB_INT_CFG), 0x00000001u);
 486:Generated_Source\PSoC4/cyfitter_cfg.c **** 
 487:Generated_Source\PSoC4/cyfitter_cfg.c **** 		/* Enable UDB array and digital routing */
 488:Generated_Source\PSoC4/cyfitter_cfg.c **** 		CY_SET_XTND_REG8((void *)CYREG_UDB_UDBIF_WAIT_CFG, (uint8)((CY_GET_XTND_REG8((void *)CYREG_UDB_UD
 489:Generated_Source\PSoC4/cyfitter_cfg.c **** 		CY_SET_XTND_REG8((void *)CYREG_UDB_UDBIF_BANK_CTL, (uint8)(CY_GET_XTND_REG8((void *)CYREG_UDB_UDB
 490:Generated_Source\PSoC4/cyfitter_cfg.c **** 	}
 491:Generated_Source\PSoC4/cyfitter_cfg.c **** 
 492:Generated_Source\PSoC4/cyfitter_cfg.c **** 	/* Perform second pass device configuration. These items must be configured in specific order afte
 493:Generated_Source\PSoC4/cyfitter_cfg.c **** 	/* IOPINS0_0 Starting address: CYDEV_GPIO_PRT0_BASE */
 494:Generated_Source\PSoC4/cyfitter_cfg.c **** 	CY_SET_REG32((void *)(CYDEV_GPIO_PRT0_BASE), 0x000000FFu);
 495:Generated_Source\PSoC4/cyfitter_cfg.c **** 	CY_SET_REG32((void *)(CYREG_GPIO_PRT0_PC), 0x00DB6DB6u);
 496:Generated_Source\PSoC4/cyfitter_cfg.c **** 
 497:Generated_Source\PSoC4/cyfitter_cfg.c **** 	/* IOPINS0_1 Starting address: CYDEV_GPIO_PRT1_BASE */
ARM GAS  C:\Users\Rajesh\AppData\Local\Temp\ccIQ7YUL.s 			page 14


 498:Generated_Source\PSoC4/cyfitter_cfg.c **** 	CY_SET_REG32((void *)(CYDEV_GPIO_PRT1_BASE), 0x00000030u);
 499:Generated_Source\PSoC4/cyfitter_cfg.c **** 	CY_SET_REG32((void *)(CYREG_GPIO_PRT1_PC), 0x000001B0u);
 500:Generated_Source\PSoC4/cyfitter_cfg.c **** 	CY_SET_REG32((void *)(CYREG_GPIO_PRT1_PC2), 0x00000030u);
 501:Generated_Source\PSoC4/cyfitter_cfg.c **** 
 502:Generated_Source\PSoC4/cyfitter_cfg.c **** 	/* IOPINS0_2 Starting address: CYDEV_GPIO_PRT2_BASE */
 503:Generated_Source\PSoC4/cyfitter_cfg.c **** 	CY_SET_REG32((void *)(CYDEV_GPIO_PRT2_BASE), 0x00000010u);
 227              		.loc 1 503 0
 228 0080 1026     		movs	r6, #16
 229              	.LBB41:
 466:Generated_Source\PSoC4/cyfitter_cfg.c **** 
 230              		.loc 1 466 0
 231 0082 1360     		str	r3, [r2]
 469:Generated_Source\PSoC4/cyfitter_cfg.c **** 		CY_SET_REG32((void *)(CYREG_UDB_PA0_CFG8), 0xAA000000u);
 232              		.loc 1 469 0
 233 0084 9923     		movs	r3, #153
 234 0086 5C4A     		ldr	r2, .L17+40
 235 0088 1B04     		lsls	r3, r3, #16
 236 008a 1360     		str	r3, [r2]
 470:Generated_Source\PSoC4/cyfitter_cfg.c **** 
 237              		.loc 1 470 0
 238 008c 5B4A     		ldr	r2, .L17+44
 239              	.LBE41:
 504:Generated_Source\PSoC4/cyfitter_cfg.c **** 	CY_SET_REG32((void *)(CYREG_GPIO_PRT2_PC), 0x00000049u);
 505:Generated_Source\PSoC4/cyfitter_cfg.c **** 	CY_SET_REG32((void *)(CYREG_GPIO_PRT2_PC2), 0x00000010u);
 506:Generated_Source\PSoC4/cyfitter_cfg.c **** 
 507:Generated_Source\PSoC4/cyfitter_cfg.c **** 	/* IOPINS0_3 Starting address: CYDEV_GPIO_PRT3_BASE */
 508:Generated_Source\PSoC4/cyfitter_cfg.c **** 	CY_SET_REG32((void *)(CYDEV_GPIO_PRT3_BASE), 0x00000003u);
 240              		.loc 1 508 0
 241 008e 0324     		movs	r4, #3
 242              	.LBB42:
 470:Generated_Source\PSoC4/cyfitter_cfg.c **** 
 243              		.loc 1 470 0
 244 0090 1160     		str	r1, [r2]
 473:Generated_Source\PSoC4/cyfitter_cfg.c **** 
 245              		.loc 1 473 0
 246 0092 5B4A     		ldr	r2, .L17+48
 488:Generated_Source\PSoC4/cyfitter_cfg.c **** 		CY_SET_XTND_REG8((void *)CYREG_UDB_UDBIF_BANK_CTL, (uint8)(CY_GET_XTND_REG8((void *)CYREG_UDB_UDB
 247              		.loc 1 488 0
 248 0094 5B49     		ldr	r1, .L17+52
 473:Generated_Source\PSoC4/cyfitter_cfg.c **** 
 249              		.loc 1 473 0
 250 0096 1360     		str	r3, [r2]
 476:Generated_Source\PSoC4/cyfitter_cfg.c **** 
 251              		.loc 1 476 0
 252 0098 5B4A     		ldr	r2, .L17+56
 253              	.LBE42:
 254              	.LBB43:
 255              	.LBB44:
 217:Generated_Source\PSoC4/cyfitter_cfg.c **** 	/* CYDEV_CLK_ILO_CONFIG Starting address: CYDEV_CLK_ILO_CONFIG */
 256              		.loc 1 217 0
 257 009a 3020     		movs	r0, #48
 258              	.LBE44:
 259              	.LBE43:
 260              	.LBB48:
 476:Generated_Source\PSoC4/cyfitter_cfg.c **** 
 261              		.loc 1 476 0
 262 009c 1360     		str	r3, [r2]
ARM GAS  C:\Users\Rajesh\AppData\Local\Temp\ccIQ7YUL.s 			page 15


 479:Generated_Source\PSoC4/cyfitter_cfg.c **** 
 263              		.loc 1 479 0
 264 009e 5B4A     		ldr	r2, .L17+60
 265              	.LBE48:
 266              	.LBB49:
 267              	.LBB45:
 225:Generated_Source\PSoC4/cyfitter_cfg.c **** 	CY_SET_REG32((void *)CYREG_PERI_DIV_CMD, 0x8000FF40u);
 268              		.loc 1 225 0
 269 00a0 0025     		movs	r5, #0
 270              	.LBE45:
 271              	.LBE49:
 272              	.LBB50:
 479:Generated_Source\PSoC4/cyfitter_cfg.c **** 
 273              		.loc 1 479 0
 274 00a2 1360     		str	r3, [r2]
 482:Generated_Source\PSoC4/cyfitter_cfg.c **** 
 275              		.loc 1 482 0
 276 00a4 0123     		movs	r3, #1
 277 00a6 5A4A     		ldr	r2, .L17+64
 278              	.LBE50:
 509:Generated_Source\PSoC4/cyfitter_cfg.c **** 	CY_SET_REG32((void *)(CYREG_GPIO_PRT3_PC), 0x00000DA4u);
 510:Generated_Source\PSoC4/cyfitter_cfg.c **** 
 511:Generated_Source\PSoC4/cyfitter_cfg.c **** 	/* IOPINS0_4 Starting address: CYDEV_GPIO_PRT4_BASE */
 512:Generated_Source\PSoC4/cyfitter_cfg.c **** 	CY_SET_REG32((void *)(CYDEV_GPIO_PRT4_BASE), 0x00000080u);
 513:Generated_Source\PSoC4/cyfitter_cfg.c **** 	CY_SET_REG32((void *)(CYREG_GPIO_PRT4_PC2), 0x00000080u);
 514:Generated_Source\PSoC4/cyfitter_cfg.c **** 
 515:Generated_Source\PSoC4/cyfitter_cfg.c **** 	/* IOPINS0_5 Starting address: CYDEV_GPIO_PRT5_BASE */
 516:Generated_Source\PSoC4/cyfitter_cfg.c **** 	CY_SET_REG32((void *)(CYREG_GPIO_PRT5_PC), 0x00006DB0u);
 517:Generated_Source\PSoC4/cyfitter_cfg.c **** 
 518:Generated_Source\PSoC4/cyfitter_cfg.c **** 
 519:Generated_Source\PSoC4/cyfitter_cfg.c **** 	/* Setup clocks based on selections from Clock DWR */
 520:Generated_Source\PSoC4/cyfitter_cfg.c **** 	ClockSetup();
 521:Generated_Source\PSoC4/cyfitter_cfg.c **** 
 522:Generated_Source\PSoC4/cyfitter_cfg.c **** 	/* Perform basic analog initialization to defaults */
 523:Generated_Source\PSoC4/cyfitter_cfg.c **** 	AnalogSetDefault();
 524:Generated_Source\PSoC4/cyfitter_cfg.c **** 
 525:Generated_Source\PSoC4/cyfitter_cfg.c **** }
 279              		.loc 1 525 0
 280              		@ sp needed
 281              	.LBB51:
 482:Generated_Source\PSoC4/cyfitter_cfg.c **** 
 282              		.loc 1 482 0
 283 00a8 1360     		str	r3, [r2]
 485:Generated_Source\PSoC4/cyfitter_cfg.c **** 
 284              		.loc 1 485 0
 285 00aa 5A4A     		ldr	r2, .L17+68
 286 00ac 1360     		str	r3, [r2]
 488:Generated_Source\PSoC4/cyfitter_cfg.c **** 		CY_SET_XTND_REG8((void *)CYREG_UDB_UDBIF_BANK_CTL, (uint8)(CY_GET_XTND_REG8((void *)CYREG_UDB_UDB
 287              		.loc 1 488 0
 288 00ae 3C22     		movs	r2, #60
 289 00b0 0B78     		ldrb	r3, [r1]
 290 00b2 9343     		bics	r3, r2
 291 00b4 283A     		subs	r2, r2, #40
 292 00b6 1343     		orrs	r3, r2
 293 00b8 0B70     		strb	r3, [r1]
 489:Generated_Source\PSoC4/cyfitter_cfg.c **** 	}
 294              		.loc 1 489 0
ARM GAS  C:\Users\Rajesh\AppData\Local\Temp\ccIQ7YUL.s 			page 16


 295 00ba 1623     		movs	r3, #22
 296 00bc 564A     		ldr	r2, .L17+72
 297 00be 1178     		ldrb	r1, [r2]
 298 00c0 0B43     		orrs	r3, r1
 299 00c2 1370     		strb	r3, [r2]
 300              	.LBE51:
 494:Generated_Source\PSoC4/cyfitter_cfg.c **** 	CY_SET_REG32((void *)(CYREG_GPIO_PRT0_PC), 0x00DB6DB6u);
 301              		.loc 1 494 0
 302 00c4 FF22     		movs	r2, #255
 303 00c6 554B     		ldr	r3, .L17+76
 499:Generated_Source\PSoC4/cyfitter_cfg.c **** 	CY_SET_REG32((void *)(CYREG_GPIO_PRT1_PC2), 0x00000030u);
 304              		.loc 1 499 0
 305 00c8 D821     		movs	r1, #216
 494:Generated_Source\PSoC4/cyfitter_cfg.c **** 	CY_SET_REG32((void *)(CYREG_GPIO_PRT0_PC), 0x00DB6DB6u);
 306              		.loc 1 494 0
 307 00ca 1A60     		str	r2, [r3]
 495:Generated_Source\PSoC4/cyfitter_cfg.c **** 
 308              		.loc 1 495 0
 309 00cc 544A     		ldr	r2, .L17+80
 310 00ce 554B     		ldr	r3, .L17+84
 499:Generated_Source\PSoC4/cyfitter_cfg.c **** 	CY_SET_REG32((void *)(CYREG_GPIO_PRT1_PC2), 0x00000030u);
 311              		.loc 1 499 0
 312 00d0 4900     		lsls	r1, r1, #1
 495:Generated_Source\PSoC4/cyfitter_cfg.c **** 
 313              		.loc 1 495 0
 314 00d2 1A60     		str	r2, [r3]
 498:Generated_Source\PSoC4/cyfitter_cfg.c **** 	CY_SET_REG32((void *)(CYREG_GPIO_PRT1_PC), 0x000001B0u);
 315              		.loc 1 498 0
 316 00d4 3023     		movs	r3, #48
 317 00d6 544A     		ldr	r2, .L17+88
 318 00d8 1360     		str	r3, [r2]
 499:Generated_Source\PSoC4/cyfitter_cfg.c **** 	CY_SET_REG32((void *)(CYREG_GPIO_PRT1_PC2), 0x00000030u);
 319              		.loc 1 499 0
 320 00da 544A     		ldr	r2, .L17+92
 321 00dc 1160     		str	r1, [r2]
 500:Generated_Source\PSoC4/cyfitter_cfg.c **** 
 322              		.loc 1 500 0
 323 00de 544A     		ldr	r2, .L17+96
 324 00e0 1360     		str	r3, [r2]
 504:Generated_Source\PSoC4/cyfitter_cfg.c **** 	CY_SET_REG32((void *)(CYREG_GPIO_PRT2_PC2), 0x00000010u);
 325              		.loc 1 504 0
 326 00e2 4922     		movs	r2, #73
 503:Generated_Source\PSoC4/cyfitter_cfg.c **** 	CY_SET_REG32((void *)(CYREG_GPIO_PRT2_PC), 0x00000049u);
 327              		.loc 1 503 0
 328 00e4 534B     		ldr	r3, .L17+100
 329 00e6 1E60     		str	r6, [r3]
 504:Generated_Source\PSoC4/cyfitter_cfg.c **** 	CY_SET_REG32((void *)(CYREG_GPIO_PRT2_PC2), 0x00000010u);
 330              		.loc 1 504 0
 331 00e8 534B     		ldr	r3, .L17+104
 332 00ea 1A60     		str	r2, [r3]
 505:Generated_Source\PSoC4/cyfitter_cfg.c **** 
 333              		.loc 1 505 0
 334 00ec 534B     		ldr	r3, .L17+108
 509:Generated_Source\PSoC4/cyfitter_cfg.c **** 
 335              		.loc 1 509 0
 336 00ee 544A     		ldr	r2, .L17+112
 505:Generated_Source\PSoC4/cyfitter_cfg.c **** 
ARM GAS  C:\Users\Rajesh\AppData\Local\Temp\ccIQ7YUL.s 			page 17


 337              		.loc 1 505 0
 338 00f0 1E60     		str	r6, [r3]
 508:Generated_Source\PSoC4/cyfitter_cfg.c **** 	CY_SET_REG32((void *)(CYREG_GPIO_PRT3_PC), 0x00000DA4u);
 339              		.loc 1 508 0
 340 00f2 544B     		ldr	r3, .L17+116
 341 00f4 1C60     		str	r4, [r3]
 509:Generated_Source\PSoC4/cyfitter_cfg.c **** 
 342              		.loc 1 509 0
 343 00f6 544B     		ldr	r3, .L17+120
 344 00f8 1A60     		str	r2, [r3]
 512:Generated_Source\PSoC4/cyfitter_cfg.c **** 	CY_SET_REG32((void *)(CYREG_GPIO_PRT4_PC2), 0x00000080u);
 345              		.loc 1 512 0
 346 00fa 8023     		movs	r3, #128
 347 00fc 534A     		ldr	r2, .L17+124
 348 00fe 1360     		str	r3, [r2]
 513:Generated_Source\PSoC4/cyfitter_cfg.c **** 
 349              		.loc 1 513 0
 350 0100 534A     		ldr	r2, .L17+128
 351 0102 1360     		str	r3, [r2]
 516:Generated_Source\PSoC4/cyfitter_cfg.c **** 
 352              		.loc 1 516 0
 353 0104 534A     		ldr	r2, .L17+132
 354 0106 544B     		ldr	r3, .L17+136
 355 0108 1A60     		str	r2, [r3]
 356              	.LBB52:
 357              	.LBB46:
 215:Generated_Source\PSoC4/cyfitter_cfg.c **** 	/* Setup and trim IMO based on desired frequency. */
 358              		.loc 1 215 0
 359 010a 1222     		movs	r2, #18
 360 010c 534B     		ldr	r3, .L17+140
 361 010e 1A60     		str	r2, [r3]
 217:Generated_Source\PSoC4/cyfitter_cfg.c **** 	/* CYDEV_CLK_ILO_CONFIG Starting address: CYDEV_CLK_ILO_CONFIG */
 362              		.loc 1 217 0
 363 0110 FFF7FEFF 		bl	CySysClkWriteImoFreq
 364              	.LVL17:
 219:Generated_Source\PSoC4/cyfitter_cfg.c **** 
 365              		.loc 1 219 0
 366 0114 524A     		ldr	r2, .L17+144
 367 0116 534B     		ldr	r3, .L17+148
 227:Generated_Source\PSoC4/cyfitter_cfg.c **** 	CY_SET_REG32((void *)CYREG_PERI_DIV_CMD, 0x8000FF43u);
 368              		.loc 1 227 0
 369 0118 BC21     		movs	r1, #188
 219:Generated_Source\PSoC4/cyfitter_cfg.c **** 
 370              		.loc 1 219 0
 371 011a 1A60     		str	r2, [r3]
 223:Generated_Source\PSoC4/cyfitter_cfg.c **** 	CY_SET_REG32((void *)CYREG_PERI_DIV_CMD, 0x8000FF41u);
 372              		.loc 1 223 0
 373 011c C022     		movs	r2, #192
 374 011e 524B     		ldr	r3, .L17+152
 375 0120 9200     		lsls	r2, r2, #2
 376 0122 1A60     		str	r2, [r3]
 224:Generated_Source\PSoC4/cyfitter_cfg.c **** 	CY_SET_REG32((void *)CYREG_PERI_DIV_16_CTL0, 0x00000000u);
 377              		.loc 1 224 0
 378 0124 514B     		ldr	r3, .L17+156
 379 0126 524A     		ldr	r2, .L17+160
 227:Generated_Source\PSoC4/cyfitter_cfg.c **** 	CY_SET_REG32((void *)CYREG_PERI_DIV_CMD, 0x8000FF43u);
 380              		.loc 1 227 0
ARM GAS  C:\Users\Rajesh\AppData\Local\Temp\ccIQ7YUL.s 			page 18


 381 0128 8901     		lsls	r1, r1, #6
 224:Generated_Source\PSoC4/cyfitter_cfg.c **** 	CY_SET_REG32((void *)CYREG_PERI_DIV_16_CTL0, 0x00000000u);
 382              		.loc 1 224 0
 383 012a 1A60     		str	r2, [r3]
 225:Generated_Source\PSoC4/cyfitter_cfg.c **** 	CY_SET_REG32((void *)CYREG_PERI_DIV_CMD, 0x8000FF40u);
 384              		.loc 1 225 0
 385 012c 514A     		ldr	r2, .L17+164
 250:Generated_Source\PSoC4/cyfitter_cfg.c **** 	CyIntEnable(7u);
 386              		.loc 1 250 0
 387 012e 0720     		movs	r0, #7
 225:Generated_Source\PSoC4/cyfitter_cfg.c **** 	CY_SET_REG32((void *)CYREG_PERI_DIV_CMD, 0x8000FF40u);
 388              		.loc 1 225 0
 389 0130 1560     		str	r5, [r2]
 226:Generated_Source\PSoC4/cyfitter_cfg.c **** 	CY_SET_REG32((void *)CYREG_PERI_DIV_16_CTL3, 0x00002F00u);
 390              		.loc 1 226 0
 391 0132 514A     		ldr	r2, .L17+168
 392 0134 1A60     		str	r2, [r3]
 227:Generated_Source\PSoC4/cyfitter_cfg.c **** 	CY_SET_REG32((void *)CYREG_PERI_DIV_CMD, 0x8000FF43u);
 393              		.loc 1 227 0
 394 0136 514A     		ldr	r2, .L17+172
 395 0138 1160     		str	r1, [r2]
 229:Generated_Source\PSoC4/cyfitter_cfg.c **** 	CY_SET_REG32((void *)CYREG_PERI_DIV_CMD, 0x8000FF42u);
 396              		.loc 1 229 0
 397 013a E821     		movs	r1, #232
 228:Generated_Source\PSoC4/cyfitter_cfg.c **** 	CY_SET_REG32((void *)CYREG_PERI_DIV_16_CTL2, 0x00001D00u);
 398              		.loc 1 228 0
 399 013c 504A     		ldr	r2, .L17+176
 229:Generated_Source\PSoC4/cyfitter_cfg.c **** 	CY_SET_REG32((void *)CYREG_PERI_DIV_CMD, 0x8000FF42u);
 400              		.loc 1 229 0
 401 013e 4901     		lsls	r1, r1, #5
 228:Generated_Source\PSoC4/cyfitter_cfg.c **** 	CY_SET_REG32((void *)CYREG_PERI_DIV_16_CTL2, 0x00001D00u);
 402              		.loc 1 228 0
 403 0140 1A60     		str	r2, [r3]
 229:Generated_Source\PSoC4/cyfitter_cfg.c **** 	CY_SET_REG32((void *)CYREG_PERI_DIV_CMD, 0x8000FF42u);
 404              		.loc 1 229 0
 405 0142 504A     		ldr	r2, .L17+180
 406 0144 1160     		str	r1, [r2]
 230:Generated_Source\PSoC4/cyfitter_cfg.c **** 
 407              		.loc 1 230 0
 408 0146 504A     		ldr	r2, .L17+184
 250:Generated_Source\PSoC4/cyfitter_cfg.c **** 	CyIntEnable(7u);
 409              		.loc 1 250 0
 410 0148 5049     		ldr	r1, .L17+188
 230:Generated_Source\PSoC4/cyfitter_cfg.c **** 
 411              		.loc 1 230 0
 412 014a 1A60     		str	r2, [r3]
 233:Generated_Source\PSoC4/cyfitter_cfg.c **** 
 413              		.loc 1 233 0
 414 014c 8222     		movs	r2, #130
 415 014e 504B     		ldr	r3, .L17+192
 416 0150 1206     		lsls	r2, r2, #24
 417 0152 1A60     		str	r2, [r3]
 236:Generated_Source\PSoC4/cyfitter_cfg.c **** 
 418              		.loc 1 236 0
 419 0154 8022     		movs	r2, #128
 420 0156 4F4B     		ldr	r3, .L17+196
 421 0158 D202     		lsls	r2, r2, #11
ARM GAS  C:\Users\Rajesh\AppData\Local\Temp\ccIQ7YUL.s 			page 19


 422 015a 1A60     		str	r2, [r3]
 239:Generated_Source\PSoC4/cyfitter_cfg.c **** 
 423              		.loc 1 239 0
 424 015c 4122     		movs	r2, #65
 425 015e 4E4B     		ldr	r3, .L17+200
 426 0160 1A60     		str	r2, [r3]
 242:Generated_Source\PSoC4/cyfitter_cfg.c **** 
 427              		.loc 1 242 0
 428 0162 4E4B     		ldr	r3, .L17+204
 429 0164 013A     		subs	r2, r2, #1
 430 0166 1A60     		str	r2, [r3]
 245:Generated_Source\PSoC4/cyfitter_cfg.c **** 
 431              		.loc 1 245 0
 432 0168 4D4B     		ldr	r3, .L17+208
 433 016a 0332     		adds	r2, r2, #3
 434 016c 1A60     		str	r2, [r3]
 248:Generated_Source\PSoC4/cyfitter_cfg.c **** 
 435              		.loc 1 248 0
 436 016e 4D4B     		ldr	r3, .L17+212
 437 0170 013A     		subs	r2, r2, #1
 438 0172 1A60     		str	r2, [r3]
 250:Generated_Source\PSoC4/cyfitter_cfg.c **** 	CyIntEnable(7u);
 439              		.loc 1 250 0
 440 0174 FFF7FEFF 		bl	CyIntSetVector
 441              	.LVL18:
 251:Generated_Source\PSoC4/cyfitter_cfg.c **** 	CY_SET_REG32((void *)(CYREG_WDT_CONFIG), 0x00000000u);
 442              		.loc 1 251 0
 443 0178 0720     		movs	r0, #7
 444 017a FFF7FEFF 		bl	CyIntEnable
 445              	.LVL19:
 252:Generated_Source\PSoC4/cyfitter_cfg.c **** }
 446              		.loc 1 252 0
 447 017e 4A4B     		ldr	r3, .L17+216
 448              	.LBE46:
 449              	.LBE52:
 450              	.LBB53:
 451              	.LBB54:
 282:Generated_Source\PSoC4/cyfitter_cfg.c **** 	CY_SET_XTND_REG32((void CYFAR *)CYREG_CTBM1_CTB_CTRL, 0x80000000u);
 452              		.loc 1 282 0
 453 0180 8120     		movs	r0, #129
 454              	.LBE54:
 455              	.LBE53:
 456              	.LBB60:
 457              	.LBB47:
 252:Generated_Source\PSoC4/cyfitter_cfg.c **** }
 458              		.loc 1 252 0
 459 0182 1D60     		str	r5, [r3]
 460              	.LBE47:
 461              	.LBE60:
 462              	.LBB61:
 463              	.LBB59:
 277:Generated_Source\PSoC4/cyfitter_cfg.c **** 	CY_SET_XTND_REG32((void CYFAR *)CYREG_HSIOM_AMUX_SPLIT_CTL1, 0x00000003u);
 464              		.loc 1 277 0
 465 0184 494B     		ldr	r3, .L17+220
 279:Generated_Source\PSoC4/cyfitter_cfg.c **** 	CY_SET_XTND_REG32((void CYFAR *)CYREG_CTBM0_DFT_CTRL, 0x00000003u);
 466              		.loc 1 279 0
 467 0186 4A4A     		ldr	r2, .L17+224
ARM GAS  C:\Users\Rajesh\AppData\Local\Temp\ccIQ7YUL.s 			page 20


 277:Generated_Source\PSoC4/cyfitter_cfg.c **** 	CY_SET_XTND_REG32((void CYFAR *)CYREG_HSIOM_AMUX_SPLIT_CTL1, 0x00000003u);
 468              		.loc 1 277 0
 469 0188 1C60     		str	r4, [r3]
 278:Generated_Source\PSoC4/cyfitter_cfg.c **** 	CY_SET_XTND_REG32((void CYFAR *)CYREG_CTBM0_CTB_CTRL, 0x80000000u);
 470              		.loc 1 278 0
 471 018a 4A4B     		ldr	r3, .L17+228
 281:Generated_Source\PSoC4/cyfitter_cfg.c **** 	CY_SET_XTND_REG32((void CYFAR *)CYREG_CTBM0_OA1_SW, 0x00000102u);
 472              		.loc 1 281 0
 473 018c 4A49     		ldr	r1, .L17+232
 278:Generated_Source\PSoC4/cyfitter_cfg.c **** 	CY_SET_XTND_REG32((void CYFAR *)CYREG_CTBM0_CTB_CTRL, 0x80000000u);
 474              		.loc 1 278 0
 475 018e 1C60     		str	r4, [r3]
 279:Generated_Source\PSoC4/cyfitter_cfg.c **** 	CY_SET_XTND_REG32((void CYFAR *)CYREG_CTBM0_DFT_CTRL, 0x00000003u);
 476              		.loc 1 279 0
 477 0190 8023     		movs	r3, #128
 478 0192 1B06     		lsls	r3, r3, #24
 479 0194 1360     		str	r3, [r2]
 280:Generated_Source\PSoC4/cyfitter_cfg.c **** 	CY_SET_XTND_REG32((void CYFAR *)CYREG_CTBM0_OA0_SW, 0x00204001u);
 480              		.loc 1 280 0
 481 0196 494A     		ldr	r2, .L17+236
 282:Generated_Source\PSoC4/cyfitter_cfg.c **** 	CY_SET_XTND_REG32((void CYFAR *)CYREG_CTBM1_CTB_CTRL, 0x80000000u);
 482              		.loc 1 282 0
 483 0198 4000     		lsls	r0, r0, #1
 280:Generated_Source\PSoC4/cyfitter_cfg.c **** 	CY_SET_XTND_REG32((void CYFAR *)CYREG_CTBM0_OA0_SW, 0x00204001u);
 484              		.loc 1 280 0
 485 019a 1460     		str	r4, [r2]
 281:Generated_Source\PSoC4/cyfitter_cfg.c **** 	CY_SET_XTND_REG32((void CYFAR *)CYREG_CTBM0_OA1_SW, 0x00000102u);
 486              		.loc 1 281 0
 487 019c 484A     		ldr	r2, .L17+240
 488 019e 0A60     		str	r2, [r1]
 282:Generated_Source\PSoC4/cyfitter_cfg.c **** 	CY_SET_XTND_REG32((void CYFAR *)CYREG_CTBM1_CTB_CTRL, 0x80000000u);
 489              		.loc 1 282 0
 490 01a0 4849     		ldr	r1, .L17+244
 491 01a2 0860     		str	r0, [r1]
 283:Generated_Source\PSoC4/cyfitter_cfg.c **** 	CY_SET_XTND_REG32((void CYFAR *)CYREG_CTBM1_DFT_CTRL, 0x00000003u);
 492              		.loc 1 283 0
 493 01a4 4849     		ldr	r1, .L17+248
 494 01a6 0B60     		str	r3, [r1]
 284:Generated_Source\PSoC4/cyfitter_cfg.c **** 	CY_SET_XTND_REG32((void CYFAR *)CYREG_CTBM1_OA0_SW, 0x00204001u);
 495              		.loc 1 284 0
 496 01a8 4849     		ldr	r1, .L17+252
 497 01aa 0C60     		str	r4, [r1]
 285:Generated_Source\PSoC4/cyfitter_cfg.c **** 	CY_SET_XTND_REG32((void CYFAR *)CYREG_CTBM1_OA1_SW, 0x00204010u);
 498              		.loc 1 285 0
 499 01ac 4849     		ldr	r1, .L17+256
 500 01ae 0A60     		str	r2, [r1]
 286:Generated_Source\PSoC4/cyfitter_cfg.c **** 	CY_SET_XTND_REG32((void CYFAR *)CYREG_SAR_CTRL, 0x80000000u);
 501              		.loc 1 286 0
 502 01b0 4849     		ldr	r1, .L17+260
 503 01b2 494A     		ldr	r2, .L17+264
 504 01b4 1160     		str	r1, [r2]
 287:Generated_Source\PSoC4/cyfitter_cfg.c **** 	CY_SET_XTND_REG32((void CYFAR *)CYREG_SAR_MUX_SWITCH0, 0x00000010u);
 505              		.loc 1 287 0
 506 01b6 494A     		ldr	r2, .L17+268
 507              	.LBB55:
 508              	.LBB56:
 312:Generated_Source\PSoC4/cyfitter_cfg.c **** 	if (enabled != 0u)
ARM GAS  C:\Users\Rajesh\AppData\Local\Temp\ccIQ7YUL.s 			page 21


 509              		.loc 1 312 0
 510 01b8 4949     		ldr	r1, .L17+272
 511              	.LBE56:
 512              	.LBE55:
 287:Generated_Source\PSoC4/cyfitter_cfg.c **** 	CY_SET_XTND_REG32((void CYFAR *)CYREG_SAR_MUX_SWITCH0, 0x00000010u);
 513              		.loc 1 287 0
 514 01ba 1360     		str	r3, [r2]
 288:Generated_Source\PSoC4/cyfitter_cfg.c **** 	CY_SET_XTND_REG32((void CYFAR *)CYREG_PASS_DSAB_DSAB_CTRL, 0x00000000u);
 515              		.loc 1 288 0
 516 01bc 494A     		ldr	r2, .L17+276
 517 01be 1660     		str	r6, [r2]
 289:Generated_Source\PSoC4/cyfitter_cfg.c **** 	SetAnalogRoutingPumps(1);
 518              		.loc 1 289 0
 519 01c0 494A     		ldr	r2, .L17+280
 520 01c2 1560     		str	r5, [r2]
 521              	.LVL20:
 522              	.LBB58:
 523              	.LBB57:
 312:Generated_Source\PSoC4/cyfitter_cfg.c **** 	if (enabled != 0u)
 524              		.loc 1 312 0
 525 01c4 0A68     		ldr	r2, [r1]
 526              	.LVL21:
 315:Generated_Source\PSoC4/cyfitter_cfg.c **** 	}
 527              		.loc 1 315 0
 528 01c6 1343     		orrs	r3, r2
 529              	.LVL22:
 321:Generated_Source\PSoC4/cyfitter_cfg.c **** }
 530              		.loc 1 321 0
 531 01c8 0B60     		str	r3, [r1]
 532              	.LVL23:
 533              	.LBE57:
 534              	.LBE58:
 535              	.LBE59:
 536              	.LBE61:
 537              		.loc 1 525 0
 538 01ca 04BC     		pop	{r2}
 539 01cc 9046     		mov	r8, r2
 540 01ce F0BD     		pop	{r4, r5, r6, r7, pc}
 541              	.L18:
 542              		.align	2
 543              	.L17:
 544 01d0 1C700F40 		.word	1074753564
 545 01d4 00300F40 		.word	1074737152
 546 01d8 00400F40 		.word	1074741248
 547 01dc 00000000 		.word	.LANCHOR0
 548 01e0 33333333 		.word	858993459
 549 01e4 00000240 		.word	1073872896
 550 01e8 EEEE0000 		.word	61166
 551 01ec 00030240 		.word	1073873664
 552 01f0 00040240 		.word	1073873920
 553 01f4 00050240 		.word	1073874176
 554 01f8 00500F40 		.word	1074745344
 555 01fc 08500F40 		.word	1074745352
 556 0200 10500F40 		.word	1074745360
 557 0204 01700F40 		.word	1074753537
 558 0208 20500F40 		.word	1074745376
 559 020c 30500F40 		.word	1074745392
ARM GAS  C:\Users\Rajesh\AppData\Local\Temp\ccIQ7YUL.s 			page 22


 560 0210 20001040 		.word	1074790432
 561 0214 00800F40 		.word	1074757632
 562 0218 00700F40 		.word	1074753536
 563 021c 00000440 		.word	1074003968
 564 0220 B66DDB00 		.word	14380470
 565 0224 08000440 		.word	1074003976
 566 0228 00010440 		.word	1074004224
 567 022c 08010440 		.word	1074004232
 568 0230 18010440 		.word	1074004248
 569 0234 00020440 		.word	1074004480
 570 0238 08020440 		.word	1074004488
 571 023c 18020440 		.word	1074004504
 572 0240 A40D0000 		.word	3492
 573 0244 00030440 		.word	1074004736
 574 0248 08030440 		.word	1074004744
 575 024c 00040440 		.word	1074004992
 576 0250 18040440 		.word	1074005016
 577 0254 B06D0000 		.word	28080
 578 0258 08050440 		.word	1074005256
 579 025c 30001040 		.word	1074790448
 580 0260 06000080 		.word	-2147483642
 581 0264 04010B40 		.word	1074462980
 582 0268 04030140 		.word	1073808132
 583 026c 00000140 		.word	1073807360
 584 0270 41FF0080 		.word	-2147418303
 585 0274 00030140 		.word	1073808128
 586 0278 40FF0080 		.word	-2147418304
 587 027c 0C030140 		.word	1073808140
 588 0280 43FF0080 		.word	-2147418301
 589 0284 08030140 		.word	1073808136
 590 0288 42FF0080 		.word	-2147418302
 591 028c 00000000 		.word	CySysWdtIsr
 592 0290 08010B40 		.word	1074462984
 593 0294 00010B40 		.word	1074462976
 594 0298 30010140 		.word	1073807664
 595 029c 2C010140 		.word	1073807660
 596 02a0 28010140 		.word	1073807656
 597 02a4 0C010140 		.word	1073807628
 598 02a8 0C020B40 		.word	1074463244
 599 02ac 00210240 		.word	1073881344
 600 02b0 00003040 		.word	1076887552
 601 02b4 04210240 		.word	1073881348
 602 02b8 80003040 		.word	1076887680
 603 02bc 30003040 		.word	1076887600
 604 02c0 01402000 		.word	2113537
 605 02c4 88003040 		.word	1076887688
 606 02c8 00003140 		.word	1076953088
 607 02cc 30003140 		.word	1076953136
 608 02d0 80003140 		.word	1076953216
 609 02d4 10402000 		.word	2113552
 610 02d8 88003140 		.word	1076953224
 611 02dc 00003A40 		.word	1077542912
 612 02e0 80033A40 		.word	1077543808
 613 02e4 00033A40 		.word	1077543680
 614 02e8 000E3F40 		.word	1077874176
 615              		.cfi_endproc
 616              	.LFE8:
ARM GAS  C:\Users\Rajesh\AppData\Local\Temp\ccIQ7YUL.s 			page 23


 617              		.size	cyfitter_cfg, .-cyfitter_cfg
 618              		.section	.rodata
 619              		.align	2
 620              		.set	.LANCHOR0,. + 0
 621              		.type	cy_cfg_addr_table.4911, %object
 622              		.size	cy_cfg_addr_table.4911, 28
 623              	cy_cfg_addr_table.4911:
 624 0000 14300F40 		.word	1074737172
 625 0004 11310F40 		.word	1074737425
 626 0008 08330F40 		.word	1074737928
 627 000c 07400F40 		.word	1074741255
 628 0010 02410F40 		.word	1074741506
 629 0014 0B420F40 		.word	1074741771
 630 0018 08430F40 		.word	1074742024
 631              		.type	cy_cfg_data_table.4912, %object
 632              		.size	cy_cfg_data_table.4912, 146
 633              	cy_cfg_data_table.4912:
 634 001c 0E       		.byte	14
 635 001d 04       		.byte	4
 636 001e 1A       		.byte	26
 637 001f 02       		.byte	2
 638 0020 1E       		.byte	30
 639 0021 01       		.byte	1
 640 0022 26       		.byte	38
 641 0023 02       		.byte	2
 642 0024 2A       		.byte	42
 643 0025 04       		.byte	4
 644 0026 2E       		.byte	46
 645 0027 01       		.byte	1
 646 0028 32       		.byte	50
 647 0029 07       		.byte	7
 648 002a 3E       		.byte	62
 649 002b 04       		.byte	4
 650 002c 58       		.byte	88
 651 002d 04       		.byte	4
 652 002e 5B       		.byte	91
 653 002f 04       		.byte	4
 654 0030 5F       		.byte	95
 655 0031 01       		.byte	1
 656 0032 83       		.byte	-125
 657 0033 01       		.byte	1
 658 0034 A3       		.byte	-93
 659 0035 01       		.byte	1
 660 0036 B5       		.byte	-75
 661 0037 01       		.byte	1
 662 0038 B8       		.byte	-72
 663 0039 02       		.byte	2
 664 003a BE       		.byte	-66
 665 003b 01       		.byte	1
 666 003c BF       		.byte	-65
 667 003d 10       		.byte	16
 668 003e D8       		.byte	-40
 669 003f 04       		.byte	4
 670 0040 D9       		.byte	-39
 671 0041 04       		.byte	4
 672 0042 DF       		.byte	-33
 673 0043 01       		.byte	1
ARM GAS  C:\Users\Rajesh\AppData\Local\Temp\ccIQ7YUL.s 			page 24


 674 0044 02       		.byte	2
 675 0045 02       		.byte	2
 676 0046 08       		.byte	8
 677 0047 A0       		.byte	-96
 678 0048 10       		.byte	16
 679 0049 2A       		.byte	42
 680 004a 19       		.byte	25
 681 004b 08       		.byte	8
 682 004c 1D       		.byte	29
 683 004d 01       		.byte	1
 684 004e 24       		.byte	36
 685 004f 08       		.byte	8
 686 0050 2F       		.byte	47
 687 0051 80       		.byte	-128
 688 0052 3E       		.byte	62
 689 0053 02       		.byte	2
 690 0054 68       		.byte	104
 691 0055 2A       		.byte	42
 692 0056 89       		.byte	-119
 693 0057 08       		.byte	8
 694 0058 8C       		.byte	-116
 695 0059 A0       		.byte	-96
 696 005a C0       		.byte	-64
 697 005b 01       		.byte	1
 698 005c C2       		.byte	-62
 699 005d 03       		.byte	3
 700 005e C4       		.byte	-60
 701 005f 07       		.byte	7
 702 0060 CA       		.byte	-54
 703 0061 80       		.byte	-128
 704 0062 CE       		.byte	-50
 705 0063 80       		.byte	-128
 706 0064 E2       		.byte	-30
 707 0065 80       		.byte	-128
 708 0066 82       		.byte	-126
 709 0067 02       		.byte	2
 710 0068 9E       		.byte	-98
 711 0069 02       		.byte	2
 712 006a A8       		.byte	-88
 713 006b 04       		.byte	4
 714 006c AB       		.byte	-85
 715 006d 80       		.byte	-128
 716 006e B2       		.byte	-78
 717 006f 02       		.byte	2
 718 0070 B5       		.byte	-75
 719 0071 01       		.byte	1
 720 0072 E6       		.byte	-26
 721 0073 04       		.byte	4
 722 0074 EE       		.byte	-18
 723 0075 04       		.byte	4
 724 0076 52       		.byte	82
 725 0077 20       		.byte	32
 726 0078 62       		.byte	98
 727 0079 20       		.byte	32
 728 007a 69       		.byte	105
 729 007b 10       		.byte	16
 730 007c 89       		.byte	-119
ARM GAS  C:\Users\Rajesh\AppData\Local\Temp\ccIQ7YUL.s 			page 25


 731 007d 10       		.byte	16
 732 007e D4       		.byte	-44
 733 007f 20       		.byte	32
 734 0080 D8       		.byte	-40
 735 0081 40       		.byte	64
 736 0082 DA       		.byte	-38
 737 0083 40       		.byte	64
 738 0084 AA       		.byte	-86
 739 0085 20       		.byte	32
 740 0086 EE       		.byte	-18
 741 0087 80       		.byte	-128
 742 0088 00       		.byte	0
 743 0089 40       		.byte	64
 744 008a 03       		.byte	3
 745 008b 40       		.byte	64
 746 008c 06       		.byte	6
 747 008d 80       		.byte	-128
 748 008e 2F       		.byte	47
 749 008f 01       		.byte	1
 750 0090 77       		.byte	119
 751 0091 08       		.byte	8
 752 0092 8C       		.byte	-116
 753 0093 40       		.byte	64
 754 0094 8F       		.byte	-113
 755 0095 40       		.byte	64
 756 0096 C0       		.byte	-64
 757 0097 0E       		.byte	14
 758 0098 CA       		.byte	-54
 759 0099 04       		.byte	4
 760 009a DC       		.byte	-36
 761 009b 02       		.byte	2
 762 009c E2       		.byte	-30
 763 009d 0A       		.byte	10
 764 009e 18       		.byte	24
 765 009f 40       		.byte	64
 766 00a0 80       		.byte	-128
 767 00a1 40       		.byte	64
 768 00a2 AB       		.byte	-85
 769 00a3 01       		.byte	1
 770 00a4 B2       		.byte	-78
 771 00a5 80       		.byte	-128
 772 00a6 B7       		.byte	-73
 773 00a7 08       		.byte	8
 774 00a8 C6       		.byte	-58
 775 00a9 08       		.byte	8
 776 00aa EC       		.byte	-20
 777 00ab 02       		.byte	2
 778 00ac EE       		.byte	-18
 779 00ad 04       		.byte	4
 780              		.text
 781              	.Letext0:
 782              		.file 2 "c:\\program files (x86)\\cypress\\psoc creator\\4.2\\psoc creator\\import\\gnu\\arm\\5.4.
 783              		.file 3 "Generated_Source\\PSoC4\\cytypes.h"
 784              		.file 4 "Generated_Source\\PSoC4\\CyLib.h"