
C:\Users\Caleb\Documents\Ride\projects\CHR6dmRelease\matrix3x3.o:     file format elf32-littlearm
C:\Users\Caleb\Documents\Ride\projects\CHR6dmRelease\matrix3x3.o

Disassembly of section .text.MatAdd3x3:

00000000 <MatAdd3x3>:
MatAdd3x3():
C:\Users\Caleb\Documents\Ride\projects\CHR6dmRelease/matrix3x3.c:23

Performs the operation: dest = src1 + src2
'dest' can be the same as either src1 or src2
*******************************************************************************/
int MatAdd3x3( fmat3x3* src1, fmat3x3* src2, fmat3x3* dest )
{
   0:	e92d 41f0 	stmdb	sp!, {r4, r5, r6, r7, r8, lr}
   4:	4604      	mov	r4, r0
   6:	460e      	mov	r6, r1
   8:	4615      	mov	r5, r2
   a:	f100 0724 	add.w	r7, r0, #36	; 0x24
C:\Users\Caleb\Documents\Ride\projects\CHR6dmRelease/matrix3x3.c:44
	 
	 for (i = 0; i < 3; i++)
	 {
		  for (j = 0; j < 3; j++ )
		  {
				dest->data[i][j] = src1->data[i][j] + src2->data[i][j];
   e:	6831      	ldr	r1, [r6, #0]
  10:	6820      	ldr	r0, [r4, #0]
  12:	f7ff fffe 	bl	0 <__aeabi_fadd>
  16:	6028      	str	r0, [r5, #0]
  18:	6871      	ldr	r1, [r6, #4]
  1a:	6860      	ldr	r0, [r4, #4]
  1c:	f7ff fffe 	bl	0 <__aeabi_fadd>
  20:	6068      	str	r0, [r5, #4]
  22:	68a0      	ldr	r0, [r4, #8]
  24:	68b1      	ldr	r1, [r6, #8]
  26:	f7ff fffe 	bl	0 <__aeabi_fadd>
  2a:	340c      	adds	r4, #12
  2c:	60a8      	str	r0, [r5, #8]
  2e:	360c      	adds	r6, #12
  30:	350c      	adds	r5, #12
C:\Users\Caleb\Documents\Ride\projects\CHR6dmRelease/matrix3x3.c:40
	 sum.data[2][0] = src1->data[2][0] + src2->data[2][0];
	 sum.data[2][1] = src1->data[2][1] + src2->data[2][1];
	 sum.data[2][2] = src1->data[2][2] + src2->data[2][2];
	 */
	 
	 for (i = 0; i < 3; i++)
  32:	42bc      	cmp	r4, r7
  34:	d1eb      	bne.n	e <__aeabi_fadd+0xe>
C:\Users\Caleb\Documents\Ride\projects\CHR6dmRelease/matrix3x3.c:49
				dest->data[i][j] = src1->data[i][j] + src2->data[i][j];
		  }
	 }
	 
	 return 1;
}
  36:	2001      	movs	r0, #1
  38:	e8bd 81f0 	ldmia.w	sp!, {r4, r5, r6, r7, r8, pc}
Disassembly of section .text.MatMult3x3:

00000000 <MatMult3x3>:
MatMult3x3():
C:\Users\Caleb\Documents\Ride\projects\CHR6dmRelease/matrix3x3.c:63
Performs the operation: dest = src1*src2;

'dest' can be the same as either src1 or src2
*******************************************************************************/
int MatMult3x3( fmat3x3* src1, fmat3x3* src2, fmat3x3* dest )
{
   0:	e92d 4ff0 	stmdb	sp!, {r4, r5, r6, r7, r8, r9, sl, fp, lr}
C:\Users\Caleb\Documents\Ride\projects\CHR6dmRelease/matrix3x3.c:68
	 int i, j;
	 fmat3x3 result;
	 
	 // First row
	 result.data[0][0] = src1->data[0][0]*src2->data[0][0] + src1->data[0][1]*src2->data[1][0] + src1->data[0][2]*src2->data[2][0];
   4:	680b      	ldr	r3, [r1, #0]
C:\Users\Caleb\Documents\Ride\projects\CHR6dmRelease/matrix3x3.c:63
Performs the operation: dest = src1*src2;

'dest' can be the same as either src1 or src2
*******************************************************************************/
int MatMult3x3( fmat3x3* src1, fmat3x3* src2, fmat3x3* dest )
{
   6:	b093      	sub	sp, #76
C:\Users\Caleb\Documents\Ride\projects\CHR6dmRelease/matrix3x3.c:68
	 int i, j;
	 fmat3x3 result;
	 
	 // First row
	 result.data[0][0] = src1->data[0][0]*src2->data[0][0] + src1->data[0][1]*src2->data[1][0] + src1->data[0][2]*src2->data[2][0];
   8:	9301      	str	r3, [sp, #4]
   a:	68cb      	ldr	r3, [r1, #12]
   c:	f8d0 8000 	ldr.w	r8, [r0]
  10:	9302      	str	r3, [sp, #8]
  12:	698b      	ldr	r3, [r1, #24]
  14:	f8d0 9004 	ldr.w	r9, [r0, #4]
C:\Users\Caleb\Documents\Ride\projects\CHR6dmRelease/matrix3x3.c:63
Performs the operation: dest = src1*src2;

'dest' can be the same as either src1 or src2
*******************************************************************************/
int MatMult3x3( fmat3x3* src1, fmat3x3* src2, fmat3x3* dest )
{
  18:	4606      	mov	r6, r0
  1a:	460c      	mov	r4, r1
C:\Users\Caleb\Documents\Ride\projects\CHR6dmRelease/matrix3x3.c:68
	 int i, j;
	 fmat3x3 result;
	 
	 // First row
	 result.data[0][0] = src1->data[0][0]*src2->data[0][0] + src1->data[0][1]*src2->data[1][0] + src1->data[0][2]*src2->data[2][0];
  1c:	f8d0 a008 	ldr.w	sl, [r0, #8]
  20:	9901      	ldr	r1, [sp, #4]
  22:	4640      	mov	r0, r8
C:\Users\Caleb\Documents\Ride\projects\CHR6dmRelease/matrix3x3.c:63
Performs the operation: dest = src1*src2;

'dest' can be the same as either src1 or src2
*******************************************************************************/
int MatMult3x3( fmat3x3* src1, fmat3x3* src2, fmat3x3* dest )
{
  24:	9200      	str	r2, [sp, #0]
C:\Users\Caleb\Documents\Ride\projects\CHR6dmRelease/matrix3x3.c:68
	 int i, j;
	 fmat3x3 result;
	 
	 // First row
	 result.data[0][0] = src1->data[0][0]*src2->data[0][0] + src1->data[0][1]*src2->data[1][0] + src1->data[0][2]*src2->data[2][0];
  26:	9303      	str	r3, [sp, #12]
  28:	f7ff fffe 	bl	0 <__aeabi_fmul>
  2c:	9902      	ldr	r1, [sp, #8]
  2e:	4605      	mov	r5, r0
  30:	4648      	mov	r0, r9
  32:	f7ff fffe 	bl	0 <__aeabi_fmul>
  36:	4601      	mov	r1, r0
  38:	4628      	mov	r0, r5
  3a:	f7ff fffe 	bl	0 <__aeabi_fadd>
  3e:	9903      	ldr	r1, [sp, #12]
  40:	4605      	mov	r5, r0
  42:	4650      	mov	r0, sl
  44:	f7ff fffe 	bl	0 <__aeabi_fmul>
  48:	4601      	mov	r1, r0
  4a:	4628      	mov	r0, r5
  4c:	f7ff fffe 	bl	0 <__aeabi_fadd>
  50:	9009      	str	r0, [sp, #36]
C:\Users\Caleb\Documents\Ride\projects\CHR6dmRelease/matrix3x3.c:69
	 result.data[0][1] = src1->data[0][0]*src2->data[0][1] + src1->data[0][1]*src2->data[1][1] + src1->data[0][2]*src2->data[2][1];
  52:	6923      	ldr	r3, [r4, #16]
  54:	f8d4 b004 	ldr.w	fp, [r4, #4]
  58:	9304      	str	r3, [sp, #16]
  5a:	69e3      	ldr	r3, [r4, #28]
  5c:	4640      	mov	r0, r8
  5e:	4659      	mov	r1, fp
  60:	9305      	str	r3, [sp, #20]
  62:	f7ff fffe 	bl	0 <__aeabi_fmul>
  66:	9904      	ldr	r1, [sp, #16]
  68:	4605      	mov	r5, r0
  6a:	4648      	mov	r0, r9
  6c:	f7ff fffe 	bl	0 <__aeabi_fmul>
  70:	4601      	mov	r1, r0
  72:	4628      	mov	r0, r5
  74:	f7ff fffe 	bl	0 <__aeabi_fadd>
  78:	9905      	ldr	r1, [sp, #20]
  7a:	4605      	mov	r5, r0
  7c:	4650      	mov	r0, sl
  7e:	f7ff fffe 	bl	0 <__aeabi_fmul>
  82:	4601      	mov	r1, r0
  84:	4628      	mov	r0, r5
  86:	f7ff fffe 	bl	0 <__aeabi_fadd>
  8a:	900a      	str	r0, [sp, #40]
C:\Users\Caleb\Documents\Ride\projects\CHR6dmRelease/matrix3x3.c:70
	 result.data[0][2] = src1->data[0][0]*src2->data[0][2] + src1->data[0][1]*src2->data[1][2] + src1->data[0][2]*src2->data[2][2];
  8c:	68a7      	ldr	r7, [r4, #8]
  8e:	6963      	ldr	r3, [r4, #20]
  90:	6a24      	ldr	r4, [r4, #32]
  92:	4640      	mov	r0, r8
  94:	4639      	mov	r1, r7
  96:	9306      	str	r3, [sp, #24]
  98:	9407      	str	r4, [sp, #28]
  9a:	f7ff fffe 	bl	0 <__aeabi_fmul>
  9e:	9906      	ldr	r1, [sp, #24]
  a0:	4604      	mov	r4, r0
  a2:	4648      	mov	r0, r9
  a4:	f7ff fffe 	bl	0 <__aeabi_fmul>
  a8:	4601      	mov	r1, r0
  aa:	4620      	mov	r0, r4
  ac:	f7ff fffe 	bl	0 <__aeabi_fadd>
  b0:	9907      	ldr	r1, [sp, #28]
  b2:	4604      	mov	r4, r0
  b4:	4650      	mov	r0, sl
  b6:	f7ff fffe 	bl	0 <__aeabi_fmul>
  ba:	4601      	mov	r1, r0
  bc:	4620      	mov	r0, r4
  be:	f7ff fffe 	bl	0 <__aeabi_fadd>
  c2:	900b      	str	r0, [sp, #44]
C:\Users\Caleb\Documents\Ride\projects\CHR6dmRelease/matrix3x3.c:73
	 
	 // Second row
	 result.data[1][0] = src1->data[1][0]*src2->data[0][0] + src1->data[1][1]*src2->data[1][0] + src1->data[1][2]*src2->data[2][0];
  c4:	68f5      	ldr	r5, [r6, #12]
  c6:	9801      	ldr	r0, [sp, #4]
  c8:	4629      	mov	r1, r5
  ca:	f7ff fffe 	bl	0 <__aeabi_fmul>
  ce:	f8d6 8010 	ldr.w	r8, [r6, #16]
  d2:	4604      	mov	r4, r0
  d4:	4641      	mov	r1, r8
  d6:	9802      	ldr	r0, [sp, #8]
  d8:	f7ff fffe 	bl	0 <__aeabi_fmul>
  dc:	4601      	mov	r1, r0
  de:	4620      	mov	r0, r4
  e0:	f7ff fffe 	bl	0 <__aeabi_fadd>
  e4:	f8d6 9014 	ldr.w	r9, [r6, #20]
  e8:	4604      	mov	r4, r0
  ea:	4649      	mov	r1, r9
  ec:	9803      	ldr	r0, [sp, #12]
  ee:	f7ff fffe 	bl	0 <__aeabi_fmul>
  f2:	4601      	mov	r1, r0
  f4:	4620      	mov	r0, r4
  f6:	f7ff fffe 	bl	0 <__aeabi_fadd>
C:\Users\Caleb\Documents\Ride\projects\CHR6dmRelease/matrix3x3.c:74
	 result.data[1][1] = src1->data[1][0]*src2->data[0][1] + src1->data[1][1]*src2->data[1][1] + src1->data[1][2]*src2->data[2][1];
  fa:	4629      	mov	r1, r5
C:\Users\Caleb\Documents\Ride\projects\CHR6dmRelease/matrix3x3.c:73
	 result.data[0][0] = src1->data[0][0]*src2->data[0][0] + src1->data[0][1]*src2->data[1][0] + src1->data[0][2]*src2->data[2][0];
	 result.data[0][1] = src1->data[0][0]*src2->data[0][1] + src1->data[0][1]*src2->data[1][1] + src1->data[0][2]*src2->data[2][1];
	 result.data[0][2] = src1->data[0][0]*src2->data[0][2] + src1->data[0][1]*src2->data[1][2] + src1->data[0][2]*src2->data[2][2];
	 
	 // Second row
	 result.data[1][0] = src1->data[1][0]*src2->data[0][0] + src1->data[1][1]*src2->data[1][0] + src1->data[1][2]*src2->data[2][0];
  fc:	900c      	str	r0, [sp, #48]
C:\Users\Caleb\Documents\Ride\projects\CHR6dmRelease/matrix3x3.c:74
	 result.data[1][1] = src1->data[1][0]*src2->data[0][1] + src1->data[1][1]*src2->data[1][1] + src1->data[1][2]*src2->data[2][1];
  fe:	4658      	mov	r0, fp
 100:	f7ff fffe 	bl	0 <__aeabi_fmul>
 104:	4641      	mov	r1, r8
 106:	4604      	mov	r4, r0
 108:	9804      	ldr	r0, [sp, #16]
 10a:	f7ff fffe 	bl	0 <__aeabi_fmul>
 10e:	4601      	mov	r1, r0
 110:	4620      	mov	r0, r4
 112:	f7ff fffe 	bl	0 <__aeabi_fadd>
 116:	4649      	mov	r1, r9
 118:	4604      	mov	r4, r0
 11a:	9805      	ldr	r0, [sp, #20]
 11c:	f7ff fffe 	bl	0 <__aeabi_fmul>
 120:	4601      	mov	r1, r0
 122:	4620      	mov	r0, r4
 124:	f7ff fffe 	bl	0 <__aeabi_fadd>
C:\Users\Caleb\Documents\Ride\projects\CHR6dmRelease/matrix3x3.c:75
	 result.data[1][2] = src1->data[1][0]*src2->data[0][2] + src1->data[1][1]*src2->data[1][2] + src1->data[1][2]*src2->data[2][2];
 128:	4629      	mov	r1, r5
C:\Users\Caleb\Documents\Ride\projects\CHR6dmRelease/matrix3x3.c:74
	 result.data[0][1] = src1->data[0][0]*src2->data[0][1] + src1->data[0][1]*src2->data[1][1] + src1->data[0][2]*src2->data[2][1];
	 result.data[0][2] = src1->data[0][0]*src2->data[0][2] + src1->data[0][1]*src2->data[1][2] + src1->data[0][2]*src2->data[2][2];
	 
	 // Second row
	 result.data[1][0] = src1->data[1][0]*src2->data[0][0] + src1->data[1][1]*src2->data[1][0] + src1->data[1][2]*src2->data[2][0];
	 result.data[1][1] = src1->data[1][0]*src2->data[0][1] + src1->data[1][1]*src2->data[1][1] + src1->data[1][2]*src2->data[2][1];
 12a:	900d      	str	r0, [sp, #52]
C:\Users\Caleb\Documents\Ride\projects\CHR6dmRelease/matrix3x3.c:75
	 result.data[1][2] = src1->data[1][0]*src2->data[0][2] + src1->data[1][1]*src2->data[1][2] + src1->data[1][2]*src2->data[2][2];
 12c:	4638      	mov	r0, r7
 12e:	f7ff fffe 	bl	0 <__aeabi_fmul>
 132:	4641      	mov	r1, r8
 134:	4604      	mov	r4, r0
 136:	9806      	ldr	r0, [sp, #24]
 138:	f7ff fffe 	bl	0 <__aeabi_fmul>
 13c:	4601      	mov	r1, r0
 13e:	4620      	mov	r0, r4
 140:	f7ff fffe 	bl	0 <__aeabi_fadd>
 144:	4649      	mov	r1, r9
 146:	4604      	mov	r4, r0
 148:	9807      	ldr	r0, [sp, #28]
 14a:	f7ff fffe 	bl	0 <__aeabi_fmul>
 14e:	4601      	mov	r1, r0
 150:	4620      	mov	r0, r4
 152:	f7ff fffe 	bl	0 <__aeabi_fadd>
C:\Users\Caleb\Documents\Ride\projects\CHR6dmRelease/matrix3x3.c:78
	 
	 // Third row
	 result.data[2][0] = src1->data[2][0]*src2->data[0][0] + src1->data[2][1]*src2->data[1][0] + src1->data[2][2]*src2->data[2][0];
 156:	69b5      	ldr	r5, [r6, #24]
C:\Users\Caleb\Documents\Ride\projects\CHR6dmRelease/matrix3x3.c:75
	 result.data[0][2] = src1->data[0][0]*src2->data[0][2] + src1->data[0][1]*src2->data[1][2] + src1->data[0][2]*src2->data[2][2];
	 
	 // Second row
	 result.data[1][0] = src1->data[1][0]*src2->data[0][0] + src1->data[1][1]*src2->data[1][0] + src1->data[1][2]*src2->data[2][0];
	 result.data[1][1] = src1->data[1][0]*src2->data[0][1] + src1->data[1][1]*src2->data[1][1] + src1->data[1][2]*src2->data[2][1];
	 result.data[1][2] = src1->data[1][0]*src2->data[0][2] + src1->data[1][1]*src2->data[1][2] + src1->data[1][2]*src2->data[2][2];
 158:	900e      	str	r0, [sp, #56]
C:\Users\Caleb\Documents\Ride\projects\CHR6dmRelease/matrix3x3.c:78
	 
	 // Third row
	 result.data[2][0] = src1->data[2][0]*src2->data[0][0] + src1->data[2][1]*src2->data[1][0] + src1->data[2][2]*src2->data[2][0];
 15a:	4629      	mov	r1, r5
 15c:	9801      	ldr	r0, [sp, #4]
 15e:	f7ff fffe 	bl	0 <__aeabi_fmul>
 162:	f8d6 801c 	ldr.w	r8, [r6, #28]
 166:	4604      	mov	r4, r0
 168:	4641      	mov	r1, r8
 16a:	9802      	ldr	r0, [sp, #8]
 16c:	f7ff fffe 	bl	0 <__aeabi_fmul>
 170:	4601      	mov	r1, r0
 172:	4620      	mov	r0, r4
 174:	f7ff fffe 	bl	0 <__aeabi_fadd>
 178:	f8d6 9020 	ldr.w	r9, [r6, #32]
 17c:	4604      	mov	r4, r0
 17e:	4649      	mov	r1, r9
 180:	9803      	ldr	r0, [sp, #12]
 182:	f7ff fffe 	bl	0 <__aeabi_fmul>
 186:	4601      	mov	r1, r0
 188:	4620      	mov	r0, r4
 18a:	f7ff fffe 	bl	0 <__aeabi_fadd>
C:\Users\Caleb\Documents\Ride\projects\CHR6dmRelease/matrix3x3.c:79
	 result.data[2][1] = src1->data[2][0]*src2->data[0][1] + src1->data[2][1]*src2->data[1][1] + src1->data[2][2]*src2->data[2][1];
 18e:	4629      	mov	r1, r5
C:\Users\Caleb\Documents\Ride\projects\CHR6dmRelease/matrix3x3.c:78
	 result.data[1][0] = src1->data[1][0]*src2->data[0][0] + src1->data[1][1]*src2->data[1][0] + src1->data[1][2]*src2->data[2][0];
	 result.data[1][1] = src1->data[1][0]*src2->data[0][1] + src1->data[1][1]*src2->data[1][1] + src1->data[1][2]*src2->data[2][1];
	 result.data[1][2] = src1->data[1][0]*src2->data[0][2] + src1->data[1][1]*src2->data[1][2] + src1->data[1][2]*src2->data[2][2];
	 
	 // Third row
	 result.data[2][0] = src1->data[2][0]*src2->data[0][0] + src1->data[2][1]*src2->data[1][0] + src1->data[2][2]*src2->data[2][0];
 190:	900f      	str	r0, [sp, #60]
C:\Users\Caleb\Documents\Ride\projects\CHR6dmRelease/matrix3x3.c:79
	 result.data[2][1] = src1->data[2][0]*src2->data[0][1] + src1->data[2][1]*src2->data[1][1] + src1->data[2][2]*src2->data[2][1];
 192:	4658      	mov	r0, fp
 194:	f7ff fffe 	bl	0 <__aeabi_fmul>
 198:	4641      	mov	r1, r8
 19a:	4604      	mov	r4, r0
 19c:	9804      	ldr	r0, [sp, #16]
 19e:	f7ff fffe 	bl	0 <__aeabi_fmul>
 1a2:	4601      	mov	r1, r0
 1a4:	4620      	mov	r0, r4
 1a6:	f7ff fffe 	bl	0 <__aeabi_fadd>
 1aa:	4649      	mov	r1, r9
 1ac:	4604      	mov	r4, r0
 1ae:	9805      	ldr	r0, [sp, #20]
 1b0:	f7ff fffe 	bl	0 <__aeabi_fmul>
 1b4:	4601      	mov	r1, r0
 1b6:	4620      	mov	r0, r4
 1b8:	f7ff fffe 	bl	0 <__aeabi_fadd>
C:\Users\Caleb\Documents\Ride\projects\CHR6dmRelease/matrix3x3.c:80
	 result.data[2][2] = src1->data[2][0]*src2->data[0][2] + src1->data[2][1]*src2->data[1][2] + src1->data[2][2]*src2->data[2][2];
 1bc:	4629      	mov	r1, r5
C:\Users\Caleb\Documents\Ride\projects\CHR6dmRelease/matrix3x3.c:79
	 result.data[1][1] = src1->data[1][0]*src2->data[0][1] + src1->data[1][1]*src2->data[1][1] + src1->data[1][2]*src2->data[2][1];
	 result.data[1][2] = src1->data[1][0]*src2->data[0][2] + src1->data[1][1]*src2->data[1][2] + src1->data[1][2]*src2->data[2][2];
	 
	 // Third row
	 result.data[2][0] = src1->data[2][0]*src2->data[0][0] + src1->data[2][1]*src2->data[1][0] + src1->data[2][2]*src2->data[2][0];
	 result.data[2][1] = src1->data[2][0]*src2->data[0][1] + src1->data[2][1]*src2->data[1][1] + src1->data[2][2]*src2->data[2][1];
 1be:	9010      	str	r0, [sp, #64]
C:\Users\Caleb\Documents\Ride\projects\CHR6dmRelease/matrix3x3.c:80
	 result.data[2][2] = src1->data[2][0]*src2->data[0][2] + src1->data[2][1]*src2->data[1][2] + src1->data[2][2]*src2->data[2][2];
 1c0:	4638      	mov	r0, r7
 1c2:	f7ff fffe 	bl	0 <__aeabi_fmul>
 1c6:	4641      	mov	r1, r8
 1c8:	4604      	mov	r4, r0
 1ca:	9806      	ldr	r0, [sp, #24]
 1cc:	f7ff fffe 	bl	0 <__aeabi_fmul>
 1d0:	4601      	mov	r1, r0
 1d2:	4620      	mov	r0, r4
 1d4:	f7ff fffe 	bl	0 <__aeabi_fadd>
 1d8:	4649      	mov	r1, r9
 1da:	4604      	mov	r4, r0
 1dc:	9807      	ldr	r0, [sp, #28]
 1de:	f7ff fffe 	bl	0 <__aeabi_fmul>
 1e2:	4601      	mov	r1, r0
 1e4:	4620      	mov	r0, r4
 1e6:	f7ff fffe 	bl	0 <__aeabi_fadd>
 1ea:	9011      	str	r0, [sp, #68]
 1ec:	9800      	ldr	r0, [sp, #0]
 1ee:	a909      	add	r1, sp, #36
C:\Users\Caleb\Documents\Ride\projects\CHR6dmRelease/matrix3x3.c:86
	 
	 for (i = 0; i < 3; i++)
	 {
		  for (j = 0; j < 3; j++ )
		  {
				dest->data[i][j] = result.data[i][j];
 1f0:	680b      	ldr	r3, [r1, #0]
 1f2:	6003      	str	r3, [r0, #0]
 1f4:	684a      	ldr	r2, [r1, #4]
 1f6:	6042      	str	r2, [r0, #4]
 1f8:	688b      	ldr	r3, [r1, #8]
 1fa:	310c      	adds	r1, #12
 1fc:	6083      	str	r3, [r0, #8]
C:\Users\Caleb\Documents\Ride\projects\CHR6dmRelease/matrix3x3.c:82
	 // Third row
	 result.data[2][0] = src1->data[2][0]*src2->data[0][0] + src1->data[2][1]*src2->data[1][0] + src1->data[2][2]*src2->data[2][0];
	 result.data[2][1] = src1->data[2][0]*src2->data[0][1] + src1->data[2][1]*src2->data[1][1] + src1->data[2][2]*src2->data[2][1];
	 result.data[2][2] = src1->data[2][0]*src2->data[0][2] + src1->data[2][1]*src2->data[1][2] + src1->data[2][2]*src2->data[2][2];
	 
	 for (i = 0; i < 3; i++)
 1fe:	ab12      	add	r3, sp, #72
C:\Users\Caleb\Documents\Ride\projects\CHR6dmRelease/matrix3x3.c:86
	 {
		  for (j = 0; j < 3; j++ )
		  {
				dest->data[i][j] = result.data[i][j];
 200:	300c      	adds	r0, #12
C:\Users\Caleb\Documents\Ride\projects\CHR6dmRelease/matrix3x3.c:82
	 // Third row
	 result.data[2][0] = src1->data[2][0]*src2->data[0][0] + src1->data[2][1]*src2->data[1][0] + src1->data[2][2]*src2->data[2][0];
	 result.data[2][1] = src1->data[2][0]*src2->data[0][1] + src1->data[2][1]*src2->data[1][1] + src1->data[2][2]*src2->data[2][1];
	 result.data[2][2] = src1->data[2][0]*src2->data[0][2] + src1->data[2][1]*src2->data[1][2] + src1->data[2][2]*src2->data[2][2];
	 
	 for (i = 0; i < 3; i++)
 202:	4299      	cmp	r1, r3
 204:	d1f4      	bne.n	1f0 <__aeabi_fadd+0x1f0>
C:\Users\Caleb\Documents\Ride\projects\CHR6dmRelease/matrix3x3.c:91
				dest->data[i][j] = result.data[i][j];
		  }
	 }
	 
	 return 1;
}
 206:	2001      	movs	r0, #1
 208:	b013      	add	sp, #76
 20a:	e8bd 8ff0 	ldmia.w	sp!, {r4, r5, r6, r7, r8, r9, sl, fp, pc}
 20e:	46c0      	nop			(mov r8, r8)
Disassembly of section .text.MatVectMult3:

00000000 <MatVectMult3>:
MatVectMult3():
C:\Users\Caleb\Documents\Ride\projects\CHR6dmRelease/matrix3x3.c:165
* Description    : 

Performs the operation: dest = matrix*vector
*******************************************************************************/
int MatVectMult3( fmat3x3* matrix, fvect3x1* vector, fvect3x1* dest )
{
   0:	e92d 4ff8 	stmdb	sp!, {r3, r4, r5, r6, r7, r8, r9, sl, fp, lr}
C:\Users\Caleb\Documents\Ride\projects\CHR6dmRelease/matrix3x3.c:169
	 fvect3x1 result;
	 int i;
	 
	 result.data[0] = matrix->data[0][0]*vector->data[0] + matrix->data[0][1]*vector->data[1] + matrix->data[0][2]*vector->data[2];
   4:	680e      	ldr	r6, [r1, #0]
C:\Users\Caleb\Documents\Ride\projects\CHR6dmRelease/matrix3x3.c:165
* Description    : 

Performs the operation: dest = matrix*vector
*******************************************************************************/
int MatVectMult3( fmat3x3* matrix, fvect3x1* vector, fvect3x1* dest )
{
   6:	4604      	mov	r4, r0
C:\Users\Caleb\Documents\Ride\projects\CHR6dmRelease/matrix3x3.c:169
	 fvect3x1 result;
	 int i;
	 
	 result.data[0] = matrix->data[0][0]*vector->data[0] + matrix->data[0][1]*vector->data[1] + matrix->data[0][2]*vector->data[2];
   8:	f8d1 8004 	ldr.w	r8, [r1, #4]
   c:	f8d1 9008 	ldr.w	r9, [r1, #8]
C:\Users\Caleb\Documents\Ride\projects\CHR6dmRelease/matrix3x3.c:170
	 result.data[1] = matrix->data[1][0]*vector->data[0] + matrix->data[1][1]*vector->data[1] + matrix->data[1][2]*vector->data[2];
  10:	4630      	mov	r0, r6
  12:	68e1      	ldr	r1, [r4, #12]
C:\Users\Caleb\Documents\Ride\projects\CHR6dmRelease/matrix3x3.c:165
* Description    : 

Performs the operation: dest = matrix*vector
*******************************************************************************/
int MatVectMult3( fmat3x3* matrix, fvect3x1* vector, fvect3x1* dest )
{
  14:	4693      	mov	fp, r2
C:\Users\Caleb\Documents\Ride\projects\CHR6dmRelease/matrix3x3.c:170
	 fvect3x1 result;
	 int i;
	 
	 result.data[0] = matrix->data[0][0]*vector->data[0] + matrix->data[0][1]*vector->data[1] + matrix->data[0][2]*vector->data[2];
	 result.data[1] = matrix->data[1][0]*vector->data[0] + matrix->data[1][1]*vector->data[1] + matrix->data[1][2]*vector->data[2];
  16:	f7ff fffe 	bl	0 <__aeabi_fmul>
  1a:	6921      	ldr	r1, [r4, #16]
  1c:	4605      	mov	r5, r0
  1e:	4640      	mov	r0, r8
  20:	f7ff fffe 	bl	0 <__aeabi_fmul>
  24:	4601      	mov	r1, r0
  26:	4628      	mov	r0, r5
  28:	f7ff fffe 	bl	0 <__aeabi_fadd>
  2c:	6961      	ldr	r1, [r4, #20]
  2e:	4605      	mov	r5, r0
  30:	4648      	mov	r0, r9
  32:	f7ff fffe 	bl	0 <__aeabi_fmul>
  36:	4601      	mov	r1, r0
  38:	4628      	mov	r0, r5
  3a:	f7ff fffe 	bl	0 <__aeabi_fadd>
C:\Users\Caleb\Documents\Ride\projects\CHR6dmRelease/matrix3x3.c:171
	 result.data[2] = matrix->data[2][0]*vector->data[0] + matrix->data[2][1]*vector->data[1] + matrix->data[2][2]*vector->data[2];
  3e:	69a1      	ldr	r1, [r4, #24]
C:\Users\Caleb\Documents\Ride\projects\CHR6dmRelease/matrix3x3.c:170
{
	 fvect3x1 result;
	 int i;
	 
	 result.data[0] = matrix->data[0][0]*vector->data[0] + matrix->data[0][1]*vector->data[1] + matrix->data[0][2]*vector->data[2];
	 result.data[1] = matrix->data[1][0]*vector->data[0] + matrix->data[1][1]*vector->data[1] + matrix->data[1][2]*vector->data[2];
  40:	4682      	mov	sl, r0
C:\Users\Caleb\Documents\Ride\projects\CHR6dmRelease/matrix3x3.c:171
	 result.data[2] = matrix->data[2][0]*vector->data[0] + matrix->data[2][1]*vector->data[1] + matrix->data[2][2]*vector->data[2];
  42:	4630      	mov	r0, r6
  44:	f7ff fffe 	bl	0 <__aeabi_fmul>
  48:	69e1      	ldr	r1, [r4, #28]
  4a:	4605      	mov	r5, r0
  4c:	4640      	mov	r0, r8
  4e:	f7ff fffe 	bl	0 <__aeabi_fmul>
  52:	4601      	mov	r1, r0
  54:	4628      	mov	r0, r5
  56:	f7ff fffe 	bl	0 <__aeabi_fadd>
  5a:	6a21      	ldr	r1, [r4, #32]
  5c:	4605      	mov	r5, r0
  5e:	4648      	mov	r0, r9
  60:	f7ff fffe 	bl	0 <__aeabi_fmul>
  64:	4601      	mov	r1, r0
  66:	4628      	mov	r0, r5
  68:	f7ff fffe 	bl	0 <__aeabi_fadd>
C:\Users\Caleb\Documents\Ride\projects\CHR6dmRelease/matrix3x3.c:175
	 
	 for (i = 0; i < 3; i++)
	 {
		  dest->data[i] = result.data[i];
  6c:	6821      	ldr	r1, [r4, #0]
C:\Users\Caleb\Documents\Ride\projects\CHR6dmRelease/matrix3x3.c:171
	 fvect3x1 result;
	 int i;
	 
	 result.data[0] = matrix->data[0][0]*vector->data[0] + matrix->data[0][1]*vector->data[1] + matrix->data[0][2]*vector->data[2];
	 result.data[1] = matrix->data[1][0]*vector->data[0] + matrix->data[1][1]*vector->data[1] + matrix->data[1][2]*vector->data[2];
	 result.data[2] = matrix->data[2][0]*vector->data[0] + matrix->data[2][1]*vector->data[1] + matrix->data[2][2]*vector->data[2];
  6e:	4607      	mov	r7, r0
C:\Users\Caleb\Documents\Ride\projects\CHR6dmRelease/matrix3x3.c:175
	 
	 for (i = 0; i < 3; i++)
	 {
		  dest->data[i] = result.data[i];
  70:	4630      	mov	r0, r6
  72:	f7ff fffe 	bl	0 <__aeabi_fmul>
  76:	6861      	ldr	r1, [r4, #4]
  78:	4605      	mov	r5, r0
  7a:	4640      	mov	r0, r8
  7c:	f7ff fffe 	bl	0 <__aeabi_fmul>
  80:	4601      	mov	r1, r0
  82:	4628      	mov	r0, r5
  84:	f7ff fffe 	bl	0 <__aeabi_fadd>
  88:	68a1      	ldr	r1, [r4, #8]
  8a:	4605      	mov	r5, r0
  8c:	4648      	mov	r0, r9
  8e:	f7ff fffe 	bl	0 <__aeabi_fmul>
  92:	4601      	mov	r1, r0
  94:	4628      	mov	r0, r5
  96:	f7ff fffe 	bl	0 <__aeabi_fadd>
  9a:	f8cb a004 	str.w	sl, [fp, #4]
  9e:	f8cb 0000 	str.w	r0, [fp]
  a2:	f8cb 7008 	str.w	r7, [fp, #8]
C:\Users\Caleb\Documents\Ride\projects\CHR6dmRelease/matrix3x3.c:179
	 }
	 
	 return 1;
}
  a6:	2001      	movs	r0, #1
  a8:	e8bd 8ff8 	ldmia.w	sp!, {r3, r4, r5, r6, r7, r8, r9, sl, fp, pc}
Disassembly of section .text.MatDet3x3:

00000000 <MatDet3x3>:
MatDet3x3():
C:\Users\Caleb\Documents\Ride\projects\CHR6dmRelease/matrix3x3.c:191
* Description    : 

Computes the determinant of the matrix in 'src'
*******************************************************************************/
float MatDet3x3( fmat3x3* src )
{
   0:	e92d 4ff8 	stmdb	sp!, {r3, r4, r5, r6, r7, r8, r9, sl, fp, lr}
C:\Users\Caleb\Documents\Ride\projects\CHR6dmRelease/matrix3x3.c:195
	 // det = a11(a33a22-a32a23)-a21(a33a12-a32a13)+a31(a23a12-a22a13)
	 // det = a00(a22a11-a21a12)-a10(a22a01-a21a02)+a20(a12a01-a11a02)
	 	 
	 return src->data[0][0]*(src->data[2][2]*src->data[1][1]-src->data[2][1]*src->data[1][2])
   4:	6a06      	ldr	r6, [r0, #32]
C:\Users\Caleb\Documents\Ride\projects\CHR6dmRelease/matrix3x3.c:191
* Description    : 

Computes the determinant of the matrix in 'src'
*******************************************************************************/
float MatDet3x3( fmat3x3* src )
{
   6:	4604      	mov	r4, r0
C:\Users\Caleb\Documents\Ride\projects\CHR6dmRelease/matrix3x3.c:195
	 // det = a11(a33a22-a32a23)-a21(a33a12-a32a13)+a31(a23a12-a22a13)
	 // det = a00(a22a11-a21a12)-a10(a22a01-a21a02)+a20(a12a01-a11a02)
	 	 
	 return src->data[0][0]*(src->data[2][2]*src->data[1][1]-src->data[2][1]*src->data[1][2])
   8:	f8d0 801c 	ldr.w	r8, [r0, #28]
   c:	f8d0 a014 	ldr.w	sl, [r0, #20]
  10:	f8d0 b004 	ldr.w	fp, [r0, #4]
  14:	6887      	ldr	r7, [r0, #8]
  16:	6921      	ldr	r1, [r4, #16]
  18:	4630      	mov	r0, r6
  1a:	f7ff fffe 	bl	0 <__aeabi_fmul>
  1e:	4651      	mov	r1, sl
  20:	4605      	mov	r5, r0
  22:	4640      	mov	r0, r8
  24:	f7ff fffe 	bl	0 <__aeabi_fmul>
  28:	4601      	mov	r1, r0
  2a:	4628      	mov	r0, r5
  2c:	f7ff fffe 	bl	0 <__aeabi_fsub>
  30:	6821      	ldr	r1, [r4, #0]
  32:	f7ff fffe 	bl	0 <__aeabi_fmul>
  36:	4659      	mov	r1, fp
  38:	4681      	mov	r9, r0
  3a:	4630      	mov	r0, r6
  3c:	f7ff fffe 	bl	0 <__aeabi_fmul>
  40:	4639      	mov	r1, r7
  42:	4605      	mov	r5, r0
  44:	4640      	mov	r0, r8
  46:	f7ff fffe 	bl	0 <__aeabi_fmul>
  4a:	4601      	mov	r1, r0
  4c:	4628      	mov	r0, r5
  4e:	f7ff fffe 	bl	0 <__aeabi_fsub>
  52:	68e1      	ldr	r1, [r4, #12]
  54:	f7ff fffe 	bl	0 <__aeabi_fmul>
  58:	4601      	mov	r1, r0
  5a:	4648      	mov	r0, r9
  5c:	f7ff fffe 	bl	0 <__aeabi_fsub>
  60:	4659      	mov	r1, fp
  62:	4606      	mov	r6, r0
  64:	4650      	mov	r0, sl
  66:	f7ff fffe 	bl	0 <__aeabi_fmul>
  6a:	4639      	mov	r1, r7
  6c:	4605      	mov	r5, r0
  6e:	6920      	ldr	r0, [r4, #16]
  70:	f7ff fffe 	bl	0 <__aeabi_fmul>
  74:	4601      	mov	r1, r0
  76:	4628      	mov	r0, r5
  78:	f7ff fffe 	bl	0 <__aeabi_fsub>
  7c:	69a1      	ldr	r1, [r4, #24]
  7e:	f7ff fffe 	bl	0 <__aeabi_fmul>
  82:	4601      	mov	r1, r0
  84:	4630      	mov	r0, r6
  86:	f7ff fffe 	bl	0 <__aeabi_fadd>
C:\Users\Caleb\Documents\Ride\projects\CHR6dmRelease/matrix3x3.c:198
									 - src->data[1][0]*(src->data[2][2]*src->data[0][1]-src->data[2][1]*src->data[0][2])
									 + src->data[2][0]*(src->data[1][2]*src->data[0][1]-src->data[1][1]*src->data[0][2]);
}
  8a:	e8bd 8ff8 	ldmia.w	sp!, {r3, r4, r5, r6, r7, r8, r9, sl, fp, pc}
  8e:	46c0      	nop			(mov r8, r8)
Disassembly of section .text.MatInv3x3:

00000000 <MatInv3x3>:
MatInv3x3():
C:\Users\Caleb\Documents\Ride\projects\CHR6dmRelease/matrix3x3.c:103
* Description    : 

Computes the inverse of the 3x3 matrix in src
*******************************************************************************/
int MatInv3x3( fmat3x3* src, fmat3x3* dest )
{
   0:	e92d 4ff0 	stmdb	sp!, {r4, r5, r6, r7, r8, r9, sl, fp, lr}
   4:	b08f      	sub	sp, #60
   6:	9100      	str	r1, [sp, #0]
   8:	4604      	mov	r4, r0
C:\Users\Caleb\Documents\Ride\projects\CHR6dmRelease/matrix3x3.c:107
	 fmat3x3 inverse;
	 int i, j;
	 
	 float det = MatDet3x3( src );
   a:	f7ff fffe 	bl	0 <MatInv3x3>
C:\Users\Caleb\Documents\Ride\projects\CHR6dmRelease/matrix3x3.c:122
	 | a20 a21 a22 |               |   a21a10-a20a11  -(a21a00-a20a01)   a11a00-a10a01  |
	 */
	 
	 // Row 1
//	 inverse.data[0][0] = (a22a11-a21a12)/det;
	 inverse.data[0][0] = (src->data[2][2]*src->data[1][1]-src->data[2][1]*src->data[1][2])/det;
   e:	6923      	ldr	r3, [r4, #16]
  10:	f8d4 a020 	ldr.w	sl, [r4, #32]
  14:	9301      	str	r3, [sp, #4]
  16:	69e3      	ldr	r3, [r4, #28]
C:\Users\Caleb\Documents\Ride\projects\CHR6dmRelease/matrix3x3.c:107
int MatInv3x3( fmat3x3* src, fmat3x3* dest )
{
	 fmat3x3 inverse;
	 int i, j;
	 
	 float det = MatDet3x3( src );
  18:	4606      	mov	r6, r0
C:\Users\Caleb\Documents\Ride\projects\CHR6dmRelease/matrix3x3.c:122
	 | a20 a21 a22 |               |   a21a10-a20a11  -(a21a00-a20a01)   a11a00-a10a01  |
	 */
	 
	 // Row 1
//	 inverse.data[0][0] = (a22a11-a21a12)/det;
	 inverse.data[0][0] = (src->data[2][2]*src->data[1][1]-src->data[2][1]*src->data[1][2])/det;
  1a:	9901      	ldr	r1, [sp, #4]
  1c:	4650      	mov	r0, sl
  1e:	9302      	str	r3, [sp, #8]
  20:	f7ff fffe 	bl	0 <__aeabi_fmul>
  24:	f8d4 b014 	ldr.w	fp, [r4, #20]
  28:	4605      	mov	r5, r0
  2a:	4659      	mov	r1, fp
  2c:	9802      	ldr	r0, [sp, #8]
  2e:	f7ff fffe 	bl	0 <__aeabi_fmul>
  32:	4601      	mov	r1, r0
  34:	4628      	mov	r0, r5
  36:	f7ff fffe 	bl	0 <__aeabi_fsub>
  3a:	4631      	mov	r1, r6
  3c:	f7ff fffe 	bl	0 <__aeabi_fdiv>
  40:	9005      	str	r0, [sp, #20]
C:\Users\Caleb\Documents\Ride\projects\CHR6dmRelease/matrix3x3.c:124
//	 inverse.data[0][1] = -(a22a01-a21a02)/det;
	 inverse.data[0][1] = -(src->data[2][2]*src->data[0][1]-src->data[2][1]*src->data[0][2])/det;
  42:	6863      	ldr	r3, [r4, #4]
  44:	4650      	mov	r0, sl
  46:	4619      	mov	r1, r3
  48:	9303      	str	r3, [sp, #12]
  4a:	f7ff fffe 	bl	0 <__aeabi_fmul>
  4e:	f8d4 8008 	ldr.w	r8, [r4, #8]
  52:	4605      	mov	r5, r0
  54:	4641      	mov	r1, r8
  56:	9802      	ldr	r0, [sp, #8]
  58:	f7ff fffe 	bl	0 <__aeabi_fmul>
  5c:	4601      	mov	r1, r0
  5e:	4628      	mov	r0, r5
  60:	f7ff fffe 	bl	0 <__aeabi_fsub>
  64:	4631      	mov	r1, r6
  66:	f100 4000 	add.w	r0, r0, #2147483648	; 0x80000000
  6a:	f7ff fffe 	bl	0 <__aeabi_fdiv>
C:\Users\Caleb\Documents\Ride\projects\CHR6dmRelease/matrix3x3.c:126
//	 inverse.data[0][2] = (a12a01-a11a02)/det;
	 inverse.data[0][2] = (src->data[1][2]*src->data[0][1]-src->data[1][1]*src->data[0][2])/det;
  6e:	9903      	ldr	r1, [sp, #12]
C:\Users\Caleb\Documents\Ride\projects\CHR6dmRelease/matrix3x3.c:124
	 
	 // Row 1
//	 inverse.data[0][0] = (a22a11-a21a12)/det;
	 inverse.data[0][0] = (src->data[2][2]*src->data[1][1]-src->data[2][1]*src->data[1][2])/det;
//	 inverse.data[0][1] = -(a22a01-a21a02)/det;
	 inverse.data[0][1] = -(src->data[2][2]*src->data[0][1]-src->data[2][1]*src->data[0][2])/det;
  70:	9006      	str	r0, [sp, #24]
C:\Users\Caleb\Documents\Ride\projects\CHR6dmRelease/matrix3x3.c:126
//	 inverse.data[0][2] = (a12a01-a11a02)/det;
	 inverse.data[0][2] = (src->data[1][2]*src->data[0][1]-src->data[1][1]*src->data[0][2])/det;
  72:	4658      	mov	r0, fp
  74:	f7ff fffe 	bl	0 <__aeabi_fmul>
  78:	4641      	mov	r1, r8
  7a:	4605      	mov	r5, r0
  7c:	9801      	ldr	r0, [sp, #4]
  7e:	f7ff fffe 	bl	0 <__aeabi_fmul>
  82:	4601      	mov	r1, r0
  84:	4628      	mov	r0, r5
  86:	f7ff fffe 	bl	0 <__aeabi_fsub>
  8a:	4631      	mov	r1, r6
  8c:	f7ff fffe 	bl	0 <__aeabi_fdiv>
  90:	9007      	str	r0, [sp, #28]
C:\Users\Caleb\Documents\Ride\projects\CHR6dmRelease/matrix3x3.c:130
	 
	 // Row 2
//	 inverse.data[1][0] = -(a22a10-a20a12)/det;
	 inverse.data[1][0] = -(src->data[2][2]*src->data[1][0]-src->data[2][0]*src->data[1][2])/det;
  92:	68e7      	ldr	r7, [r4, #12]
  94:	4650      	mov	r0, sl
  96:	4639      	mov	r1, r7
  98:	f7ff fffe 	bl	0 <__aeabi_fmul>
  9c:	f8d4 9018 	ldr.w	r9, [r4, #24]
  a0:	4605      	mov	r5, r0
  a2:	4649      	mov	r1, r9
  a4:	4658      	mov	r0, fp
  a6:	f7ff fffe 	bl	0 <__aeabi_fmul>
  aa:	4601      	mov	r1, r0
  ac:	4628      	mov	r0, r5
  ae:	f7ff fffe 	bl	0 <__aeabi_fsub>
  b2:	4631      	mov	r1, r6
  b4:	f100 4000 	add.w	r0, r0, #2147483648	; 0x80000000
  b8:	f7ff fffe 	bl	0 <__aeabi_fdiv>
  bc:	9008      	str	r0, [sp, #32]
C:\Users\Caleb\Documents\Ride\projects\CHR6dmRelease/matrix3x3.c:132
//	 inverse.data[1][1] = (a22a00-a20a02)/det;
	 inverse.data[1][1] = (src->data[2][2]*src->data[0][0]-src->data[2][0]*src->data[0][2])/det;
  be:	6825      	ldr	r5, [r4, #0]
  c0:	4650      	mov	r0, sl
  c2:	4629      	mov	r1, r5
  c4:	f7ff fffe 	bl	0 <__aeabi_fmul>
  c8:	4649      	mov	r1, r9
  ca:	4604      	mov	r4, r0
  cc:	4640      	mov	r0, r8
  ce:	f7ff fffe 	bl	0 <__aeabi_fmul>
  d2:	4601      	mov	r1, r0
  d4:	4620      	mov	r0, r4
  d6:	f7ff fffe 	bl	0 <__aeabi_fsub>
  da:	4631      	mov	r1, r6
  dc:	f7ff fffe 	bl	0 <__aeabi_fdiv>
C:\Users\Caleb\Documents\Ride\projects\CHR6dmRelease/matrix3x3.c:134
//	 inverse.data[1][2] = -(a12a00-a10a02)/det;
	 inverse.data[1][2] = -(src->data[1][2]*src->data[0][0]-src->data[1][0]*src->data[0][2])/det;
  e0:	4629      	mov	r1, r5
C:\Users\Caleb\Documents\Ride\projects\CHR6dmRelease/matrix3x3.c:132
	 
	 // Row 2
//	 inverse.data[1][0] = -(a22a10-a20a12)/det;
	 inverse.data[1][0] = -(src->data[2][2]*src->data[1][0]-src->data[2][0]*src->data[1][2])/det;
//	 inverse.data[1][1] = (a22a00-a20a02)/det;
	 inverse.data[1][1] = (src->data[2][2]*src->data[0][0]-src->data[2][0]*src->data[0][2])/det;
  e2:	9009      	str	r0, [sp, #36]
C:\Users\Caleb\Documents\Ride\projects\CHR6dmRelease/matrix3x3.c:134
//	 inverse.data[1][2] = -(a12a00-a10a02)/det;
	 inverse.data[1][2] = -(src->data[1][2]*src->data[0][0]-src->data[1][0]*src->data[0][2])/det;
  e4:	4658      	mov	r0, fp
  e6:	f7ff fffe 	bl	0 <__aeabi_fmul>
  ea:	4639      	mov	r1, r7
  ec:	4604      	mov	r4, r0
  ee:	4640      	mov	r0, r8
  f0:	f7ff fffe 	bl	0 <__aeabi_fmul>
  f4:	4601      	mov	r1, r0
  f6:	4620      	mov	r0, r4
  f8:	f7ff fffe 	bl	0 <__aeabi_fsub>
  fc:	4631      	mov	r1, r6
  fe:	f100 4000 	add.w	r0, r0, #2147483648	; 0x80000000
 102:	f7ff fffe 	bl	0 <__aeabi_fdiv>
C:\Users\Caleb\Documents\Ride\projects\CHR6dmRelease/matrix3x3.c:138
	 
	 // Row 3
//	 inverse.data[2][0] = (a21a10-a20a11)/det;
	 inverse.data[2][0] = (src->data[2][1]*src->data[1][0]-src->data[2][0]*src->data[1][1])/det;
 106:	4639      	mov	r1, r7
C:\Users\Caleb\Documents\Ride\projects\CHR6dmRelease/matrix3x3.c:134
//	 inverse.data[1][0] = -(a22a10-a20a12)/det;
	 inverse.data[1][0] = -(src->data[2][2]*src->data[1][0]-src->data[2][0]*src->data[1][2])/det;
//	 inverse.data[1][1] = (a22a00-a20a02)/det;
	 inverse.data[1][1] = (src->data[2][2]*src->data[0][0]-src->data[2][0]*src->data[0][2])/det;
//	 inverse.data[1][2] = -(a12a00-a10a02)/det;
	 inverse.data[1][2] = -(src->data[1][2]*src->data[0][0]-src->data[1][0]*src->data[0][2])/det;
 108:	900a      	str	r0, [sp, #40]
C:\Users\Caleb\Documents\Ride\projects\CHR6dmRelease/matrix3x3.c:138
	 
	 // Row 3
//	 inverse.data[2][0] = (a21a10-a20a11)/det;
	 inverse.data[2][0] = (src->data[2][1]*src->data[1][0]-src->data[2][0]*src->data[1][1])/det;
 10a:	9802      	ldr	r0, [sp, #8]
 10c:	f7ff fffe 	bl	0 <__aeabi_fmul>
 110:	4649      	mov	r1, r9
 112:	4604      	mov	r4, r0
 114:	9801      	ldr	r0, [sp, #4]
 116:	f7ff fffe 	bl	0 <__aeabi_fmul>
 11a:	4601      	mov	r1, r0
 11c:	4620      	mov	r0, r4
 11e:	f7ff fffe 	bl	0 <__aeabi_fsub>
 122:	4631      	mov	r1, r6
 124:	f7ff fffe 	bl	0 <__aeabi_fdiv>
C:\Users\Caleb\Documents\Ride\projects\CHR6dmRelease/matrix3x3.c:140
//	 inverse.data[2][1] = -(a21a00-a20a01)/det;
	 inverse.data[2][1] = -(src->data[2][1]*src->data[0][0]-src->data[2][0]*src->data[0][1])/det;
 128:	4629      	mov	r1, r5
C:\Users\Caleb\Documents\Ride\projects\CHR6dmRelease/matrix3x3.c:138
//	 inverse.data[1][2] = -(a12a00-a10a02)/det;
	 inverse.data[1][2] = -(src->data[1][2]*src->data[0][0]-src->data[1][0]*src->data[0][2])/det;
	 
	 // Row 3
//	 inverse.data[2][0] = (a21a10-a20a11)/det;
	 inverse.data[2][0] = (src->data[2][1]*src->data[1][0]-src->data[2][0]*src->data[1][1])/det;
 12a:	900b      	str	r0, [sp, #44]
C:\Users\Caleb\Documents\Ride\projects\CHR6dmRelease/matrix3x3.c:140
//	 inverse.data[2][1] = -(a21a00-a20a01)/det;
	 inverse.data[2][1] = -(src->data[2][1]*src->data[0][0]-src->data[2][0]*src->data[0][1])/det;
 12c:	9802      	ldr	r0, [sp, #8]
 12e:	f7ff fffe 	bl	0 <__aeabi_fmul>
 132:	4649      	mov	r1, r9
 134:	4604      	mov	r4, r0
 136:	9803      	ldr	r0, [sp, #12]
 138:	f7ff fffe 	bl	0 <__aeabi_fmul>
 13c:	4601      	mov	r1, r0
 13e:	4620      	mov	r0, r4
 140:	f7ff fffe 	bl	0 <__aeabi_fsub>
 144:	4631      	mov	r1, r6
 146:	f100 4000 	add.w	r0, r0, #2147483648	; 0x80000000
 14a:	f7ff fffe 	bl	0 <__aeabi_fdiv>
C:\Users\Caleb\Documents\Ride\projects\CHR6dmRelease/matrix3x3.c:142
//	 inverse.data[2][2] = (a11a00-a10a01)/det;
	 inverse.data[2][2] = (src->data[1][1]*src->data[0][0]-src->data[1][0]*src->data[0][1])/det;
 14e:	4629      	mov	r1, r5
C:\Users\Caleb\Documents\Ride\projects\CHR6dmRelease/matrix3x3.c:140
	 
	 // Row 3
//	 inverse.data[2][0] = (a21a10-a20a11)/det;
	 inverse.data[2][0] = (src->data[2][1]*src->data[1][0]-src->data[2][0]*src->data[1][1])/det;
//	 inverse.data[2][1] = -(a21a00-a20a01)/det;
	 inverse.data[2][1] = -(src->data[2][1]*src->data[0][0]-src->data[2][0]*src->data[0][1])/det;
 150:	900c      	str	r0, [sp, #48]
C:\Users\Caleb\Documents\Ride\projects\CHR6dmRelease/matrix3x3.c:142
//	 inverse.data[2][2] = (a11a00-a10a01)/det;
	 inverse.data[2][2] = (src->data[1][1]*src->data[0][0]-src->data[1][0]*src->data[0][1])/det;
 152:	9801      	ldr	r0, [sp, #4]
 154:	f7ff fffe 	bl	0 <__aeabi_fmul>
 158:	4639      	mov	r1, r7
 15a:	4604      	mov	r4, r0
 15c:	9803      	ldr	r0, [sp, #12]
 15e:	f7ff fffe 	bl	0 <__aeabi_fmul>
 162:	4601      	mov	r1, r0
 164:	4620      	mov	r0, r4
 166:	f7ff fffe 	bl	0 <__aeabi_fsub>
 16a:	4631      	mov	r1, r6
 16c:	f7ff fffe 	bl	0 <__aeabi_fdiv>
 170:	9900      	ldr	r1, [sp, #0]
 172:	900d      	str	r0, [sp, #52]
 174:	a805      	add	r0, sp, #20
C:\Users\Caleb\Documents\Ride\projects\CHR6dmRelease/matrix3x3.c:148
	 
	 for (i = 0; i < 3; i++)
	 {
		  for (j = 0; j < 3; j++ )
		  {
				dest->data[i][j] = inverse.data[i][j];
 176:	6803      	ldr	r3, [r0, #0]
 178:	600b      	str	r3, [r1, #0]
 17a:	6842      	ldr	r2, [r0, #4]
 17c:	604a      	str	r2, [r1, #4]
 17e:	6883      	ldr	r3, [r0, #8]
 180:	300c      	adds	r0, #12
 182:	608b      	str	r3, [r1, #8]
C:\Users\Caleb\Documents\Ride\projects\CHR6dmRelease/matrix3x3.c:144
//	 inverse.data[2][1] = -(a21a00-a20a01)/det;
	 inverse.data[2][1] = -(src->data[2][1]*src->data[0][0]-src->data[2][0]*src->data[0][1])/det;
//	 inverse.data[2][2] = (a11a00-a10a01)/det;
	 inverse.data[2][2] = (src->data[1][1]*src->data[0][0]-src->data[1][0]*src->data[0][1])/det;
	 
	 for (i = 0; i < 3; i++)
 184:	ab0e      	add	r3, sp, #56
C:\Users\Caleb\Documents\Ride\projects\CHR6dmRelease/matrix3x3.c:148
	 {
		  for (j = 0; j < 3; j++ )
		  {
				dest->data[i][j] = inverse.data[i][j];
 186:	310c      	adds	r1, #12
C:\Users\Caleb\Documents\Ride\projects\CHR6dmRelease/matrix3x3.c:144
//	 inverse.data[2][1] = -(a21a00-a20a01)/det;
	 inverse.data[2][1] = -(src->data[2][1]*src->data[0][0]-src->data[2][0]*src->data[0][1])/det;
//	 inverse.data[2][2] = (a11a00-a10a01)/det;
	 inverse.data[2][2] = (src->data[1][1]*src->data[0][0]-src->data[1][0]*src->data[0][1])/det;
	 
	 for (i = 0; i < 3; i++)
 188:	4298      	cmp	r0, r3
 18a:	d1f4      	bne.n	176 <__aeabi_fdiv+0x176>
C:\Users\Caleb\Documents\Ride\projects\CHR6dmRelease/matrix3x3.c:153
				dest->data[i][j] = inverse.data[i][j];
		  }
	 }
	 
	 return 1;
}
 18c:	2001      	movs	r0, #1
 18e:	b00f      	add	sp, #60
 190:	e8bd 8ff0 	ldmia.w	sp!, {r4, r5, r6, r7, r8, r9, sl, fp, pc}
Disassembly of section .text.MatTrans3x3:

00000000 <MatTrans3x3>:
MatTrans3x3():
C:\Users\Caleb\Documents\Ride\projects\CHR6dmRelease/matrix3x3.c:214
int MatTrans3x3( fmat3x3* src, fmat3x3* dest )
{
	 fmat3x3 temp;
	 int i,j;
	 
	 temp.data[0][0] = src->data[0][0];
   0:	6803      	ldr	r3, [r0, #0]
C:\Users\Caleb\Documents\Ride\projects\CHR6dmRelease/matrix3x3.c:210
* Description    : 

Transposes the matrix in 'src', stores the result in 'dest'
*******************************************************************************/
int MatTrans3x3( fmat3x3* src, fmat3x3* dest )
{
   2:	b08a      	sub	sp, #40
C:\Users\Caleb\Documents\Ride\projects\CHR6dmRelease/matrix3x3.c:214
	 fmat3x3 temp;
	 int i,j;
	 
	 temp.data[0][0] = src->data[0][0];
   4:	9301      	str	r3, [sp, #4]
C:\Users\Caleb\Documents\Ride\projects\CHR6dmRelease/matrix3x3.c:215
	 temp.data[0][1] = src->data[1][0];
   6:	68c2      	ldr	r2, [r0, #12]
   8:	9202      	str	r2, [sp, #8]
C:\Users\Caleb\Documents\Ride\projects\CHR6dmRelease/matrix3x3.c:216
	 temp.data[0][2] = src->data[2][0];
   a:	6983      	ldr	r3, [r0, #24]
   c:	9303      	str	r3, [sp, #12]
C:\Users\Caleb\Documents\Ride\projects\CHR6dmRelease/matrix3x3.c:218
	 
	 temp.data[1][0] = src->data[0][1];
   e:	6842      	ldr	r2, [r0, #4]
  10:	9204      	str	r2, [sp, #16]
C:\Users\Caleb\Documents\Ride\projects\CHR6dmRelease/matrix3x3.c:219
	 temp.data[1][1] = src->data[1][1];
  12:	6903      	ldr	r3, [r0, #16]
  14:	9305      	str	r3, [sp, #20]
C:\Users\Caleb\Documents\Ride\projects\CHR6dmRelease/matrix3x3.c:220
	 temp.data[1][2] = src->data[2][1];
  16:	69c2      	ldr	r2, [r0, #28]
  18:	9206      	str	r2, [sp, #24]
C:\Users\Caleb\Documents\Ride\projects\CHR6dmRelease/matrix3x3.c:222
	 
	 temp.data[2][0] = src->data[0][2];
  1a:	6883      	ldr	r3, [r0, #8]
  1c:	9307      	str	r3, [sp, #28]
C:\Users\Caleb\Documents\Ride\projects\CHR6dmRelease/matrix3x3.c:223
	 temp.data[2][1] = src->data[1][2];
  1e:	6942      	ldr	r2, [r0, #20]
  20:	9208      	str	r2, [sp, #32]
C:\Users\Caleb\Documents\Ride\projects\CHR6dmRelease/matrix3x3.c:224
	 temp.data[2][2] = src->data[2][2];
  22:	6a03      	ldr	r3, [r0, #32]
  24:	a801      	add	r0, sp, #4
  26:	9309      	str	r3, [sp, #36]
C:\Users\Caleb\Documents\Ride\projects\CHR6dmRelease/matrix3x3.c:230
	 
	 for (i = 0; i < 3; i++)
	 {
		  for (j = 0; j < 3; j++ )
		  {
				dest->data[i][j] = temp.data[i][j];
  28:	6803      	ldr	r3, [r0, #0]
  2a:	600b      	str	r3, [r1, #0]
  2c:	6842      	ldr	r2, [r0, #4]
  2e:	604a      	str	r2, [r1, #4]
  30:	6883      	ldr	r3, [r0, #8]
  32:	300c      	adds	r0, #12
  34:	608b      	str	r3, [r1, #8]
C:\Users\Caleb\Documents\Ride\projects\CHR6dmRelease/matrix3x3.c:226
	 
	 temp.data[2][0] = src->data[0][2];
	 temp.data[2][1] = src->data[1][2];
	 temp.data[2][2] = src->data[2][2];
	 
	 for (i = 0; i < 3; i++)
  36:	ab0a      	add	r3, sp, #40
C:\Users\Caleb\Documents\Ride\projects\CHR6dmRelease/matrix3x3.c:230
	 {
		  for (j = 0; j < 3; j++ )
		  {
				dest->data[i][j] = temp.data[i][j];
  38:	310c      	adds	r1, #12
C:\Users\Caleb\Documents\Ride\projects\CHR6dmRelease/matrix3x3.c:226
	 
	 temp.data[2][0] = src->data[0][2];
	 temp.data[2][1] = src->data[1][2];
	 temp.data[2][2] = src->data[2][2];
	 
	 for (i = 0; i < 3; i++)
  3a:	4298      	cmp	r0, r3
  3c:	d1f4      	bne.n	28 <__aeabi_fdiv+0x28>
C:\Users\Caleb\Documents\Ride\projects\CHR6dmRelease/matrix3x3.c:235
				dest->data[i][j] = temp.data[i][j];
		  }
	 }
	 
	 return 1;	 
}
  3e:	2001      	movs	r0, #1
  40:	b00a      	add	sp, #40
  42:	4770      	bx	lr
Disassembly of section .text.ScalarMatMult3x3:

00000000 <ScalarMatMult3x3>:
ScalarMatMult3x3():
C:\Users\Caleb\Documents\Ride\projects\CHR6dmRelease/matrix3x3.c:248

Multiplies the elements in src by scal and stores the result in dest

*******************************************************************************/
int ScalarMatMult3x3( float scal, fmat3x3* src, fmat3x3* dest )
{
   0:	b570      	push	{r4, r5, r6, lr}
   2:	4604      	mov	r4, r0
   4:	460d      	mov	r5, r1
C:\Users\Caleb\Documents\Ride\projects\CHR6dmRelease/matrix3x3.c:249
	 dest->data[0][0] = src->data[0][0]*scal;
   6:	6808      	ldr	r0, [r1, #0]
   8:	4621      	mov	r1, r4
C:\Users\Caleb\Documents\Ride\projects\CHR6dmRelease/matrix3x3.c:248

Multiplies the elements in src by scal and stores the result in dest

*******************************************************************************/
int ScalarMatMult3x3( float scal, fmat3x3* src, fmat3x3* dest )
{
   a:	4616      	mov	r6, r2
C:\Users\Caleb\Documents\Ride\projects\CHR6dmRelease/matrix3x3.c:249
	 dest->data[0][0] = src->data[0][0]*scal;
   c:	f7ff fffe 	bl	0 <__aeabi_fmul>
  10:	6030      	str	r0, [r6, #0]
C:\Users\Caleb\Documents\Ride\projects\CHR6dmRelease/matrix3x3.c:250
	 dest->data[0][1] = src->data[0][1]*scal;
  12:	6868      	ldr	r0, [r5, #4]
  14:	4621      	mov	r1, r4
  16:	f7ff fffe 	bl	0 <__aeabi_fmul>
  1a:	6070      	str	r0, [r6, #4]
C:\Users\Caleb\Documents\Ride\projects\CHR6dmRelease/matrix3x3.c:251
	 dest->data[0][2] = src->data[0][2]*scal;
  1c:	68a8      	ldr	r0, [r5, #8]
  1e:	4621      	mov	r1, r4
  20:	f7ff fffe 	bl	0 <__aeabi_fmul>
  24:	60b0      	str	r0, [r6, #8]
C:\Users\Caleb\Documents\Ride\projects\CHR6dmRelease/matrix3x3.c:253
	 
	 dest->data[1][0] = src->data[1][0]*scal;
  26:	68e8      	ldr	r0, [r5, #12]
  28:	4621      	mov	r1, r4
  2a:	f7ff fffe 	bl	0 <__aeabi_fmul>
  2e:	60f0      	str	r0, [r6, #12]
C:\Users\Caleb\Documents\Ride\projects\CHR6dmRelease/matrix3x3.c:254
	 dest->data[1][1] = src->data[1][1]*scal;
  30:	6928      	ldr	r0, [r5, #16]
  32:	4621      	mov	r1, r4
  34:	f7ff fffe 	bl	0 <__aeabi_fmul>
  38:	6130      	str	r0, [r6, #16]
C:\Users\Caleb\Documents\Ride\projects\CHR6dmRelease/matrix3x3.c:255
	 dest->data[1][2] = src->data[1][2]*scal;
  3a:	6968      	ldr	r0, [r5, #20]
  3c:	4621      	mov	r1, r4
  3e:	f7ff fffe 	bl	0 <__aeabi_fmul>
  42:	6170      	str	r0, [r6, #20]
C:\Users\Caleb\Documents\Ride\projects\CHR6dmRelease/matrix3x3.c:257
	 
	 dest->data[2][0] = src->data[2][0]*scal;
  44:	69a8      	ldr	r0, [r5, #24]
  46:	4621      	mov	r1, r4
  48:	f7ff fffe 	bl	0 <__aeabi_fmul>
  4c:	61b0      	str	r0, [r6, #24]
C:\Users\Caleb\Documents\Ride\projects\CHR6dmRelease/matrix3x3.c:258
	 dest->data[2][1] = src->data[2][1]*scal;
  4e:	69e8      	ldr	r0, [r5, #28]
  50:	4621      	mov	r1, r4
  52:	f7ff fffe 	bl	0 <__aeabi_fmul>
  56:	61f0      	str	r0, [r6, #28]
C:\Users\Caleb\Documents\Ride\projects\CHR6dmRelease/matrix3x3.c:259
	 dest->data[2][2] = src->data[2][2]*scal;
  58:	6a28      	ldr	r0, [r5, #32]
  5a:	4621      	mov	r1, r4
  5c:	f7ff fffe 	bl	0 <__aeabi_fmul>
  60:	6230      	str	r0, [r6, #32]
C:\Users\Caleb\Documents\Ride\projects\CHR6dmRelease/matrix3x3.c:262
	 
	 return 1;
}
  62:	2001      	movs	r0, #1
  64:	bd70      	pop	{r4, r5, r6, pc}
  66:	46c0      	nop			(mov r8, r8)
Disassembly of section .text.CreateIdentity3x3:

00000000 <CreateIdentity3x3>:
MatZero3x3():
C:\Users\Caleb\Documents\Ride\projects\CHR6dmRelease/matrix3x3.c:296

*******************************************************************************/
void MatZero3x3( fmat3x3* dest )
{
	 dest->data[0][0] = 0;
	 dest->data[0][1] = 0;
   0:	2200      	movs	r2, #0
CreateIdentity3x3():
C:\Users\Caleb\Documents\Ride\projects\CHR6dmRelease/matrix3x3.c:278
*******************************************************************************/
void CreateIdentity3x3( fmat3x3* dest )
{
	 MatZero3x3( dest );
	 
	 dest->data[0][0] = 1;
   2:	f04f 537e 	mov.w	r3, #1065353216	; 0x3f800000
MatZero3x3():
C:\Users\Caleb\Documents\Ride\projects\CHR6dmRelease/matrix3x3.c:296

*******************************************************************************/
void MatZero3x3( fmat3x3* dest )
{
	 dest->data[0][0] = 0;
	 dest->data[0][1] = 0;
   6:	6042      	str	r2, [r0, #4]
C:\Users\Caleb\Documents\Ride\projects\CHR6dmRelease/matrix3x3.c:297
	 dest->data[0][2] = 0;
   8:	6082      	str	r2, [r0, #8]
C:\Users\Caleb\Documents\Ride\projects\CHR6dmRelease/matrix3x3.c:299
	 
	 dest->data[1][0] = 0;
   a:	60c2      	str	r2, [r0, #12]
C:\Users\Caleb\Documents\Ride\projects\CHR6dmRelease/matrix3x3.c:301
	 dest->data[1][1] = 0;
	 dest->data[1][2] = 0;
   c:	6142      	str	r2, [r0, #20]
C:\Users\Caleb\Documents\Ride\projects\CHR6dmRelease/matrix3x3.c:303
	 
	 dest->data[2][0] = 0;
   e:	6182      	str	r2, [r0, #24]
C:\Users\Caleb\Documents\Ride\projects\CHR6dmRelease/matrix3x3.c:304
	 dest->data[2][1] = 0;
  10:	61c2      	str	r2, [r0, #28]
CreateIdentity3x3():
C:\Users\Caleb\Documents\Ride\projects\CHR6dmRelease/matrix3x3.c:278
*******************************************************************************/
void CreateIdentity3x3( fmat3x3* dest )
{
	 MatZero3x3( dest );
	 
	 dest->data[0][0] = 1;
  12:	6003      	str	r3, [r0, #0]
C:\Users\Caleb\Documents\Ride\projects\CHR6dmRelease/matrix3x3.c:279
	 dest->data[1][1] = 1;
  14:	6103      	str	r3, [r0, #16]
C:\Users\Caleb\Documents\Ride\projects\CHR6dmRelease/matrix3x3.c:280
	 dest->data[2][2] = 1;
  16:	6203      	str	r3, [r0, #32]
C:\Users\Caleb\Documents\Ride\projects\CHR6dmRelease/matrix3x3.c:281
}
  18:	4770      	bx	lr
  1a:	46c0      	nop			(mov r8, r8)
Disassembly of section .text.MatZero3x3:

00000000 <MatZero3x3>:
MatZero3x3():
C:\Users\Caleb\Documents\Ride\projects\CHR6dmRelease/matrix3x3.c:295
Zeros out all the entries in dest

*******************************************************************************/
void MatZero3x3( fmat3x3* dest )
{
	 dest->data[0][0] = 0;
   0:	2300      	movs	r3, #0
   2:	6003      	str	r3, [r0, #0]
C:\Users\Caleb\Documents\Ride\projects\CHR6dmRelease/matrix3x3.c:296
	 dest->data[0][1] = 0;
   4:	6043      	str	r3, [r0, #4]
C:\Users\Caleb\Documents\Ride\projects\CHR6dmRelease/matrix3x3.c:297
	 dest->data[0][2] = 0;
   6:	6083      	str	r3, [r0, #8]
C:\Users\Caleb\Documents\Ride\projects\CHR6dmRelease/matrix3x3.c:299
	 
	 dest->data[1][0] = 0;
   8:	60c3      	str	r3, [r0, #12]
C:\Users\Caleb\Documents\Ride\projects\CHR6dmRelease/matrix3x3.c:300
	 dest->data[1][1] = 0;
   a:	6103      	str	r3, [r0, #16]
C:\Users\Caleb\Documents\Ride\projects\CHR6dmRelease/matrix3x3.c:301
	 dest->data[1][2] = 0;
   c:	6143      	str	r3, [r0, #20]
C:\Users\Caleb\Documents\Ride\projects\CHR6dmRelease/matrix3x3.c:303
	 
	 dest->data[2][0] = 0;
   e:	6183      	str	r3, [r0, #24]
C:\Users\Caleb\Documents\Ride\projects\CHR6dmRelease/matrix3x3.c:304
	 dest->data[2][1] = 0;
  10:	61c3      	str	r3, [r0, #28]
C:\Users\Caleb\Documents\Ride\projects\CHR6dmRelease/matrix3x3.c:305
	 dest->data[2][2] = 0;
  12:	6203      	str	r3, [r0, #32]
C:\Users\Caleb\Documents\Ride\projects\CHR6dmRelease/matrix3x3.c:306
}
  14:	4770      	bx	lr
  16:	46c0      	nop			(mov r8, r8)
Disassembly of section .text.MatCopy3x3:

00000000 <MatCopy3x3>:
MatCopy3x3():
C:\Users\Caleb\Documents\Ride\projects\CHR6dmRelease/matrix3x3.c:320
Copies the data in src to dest.

*******************************************************************************/
void MatCopy3x3( fmat3x3* src, fmat3x3* dest )
{
	 dest->data[0][0] = src->data[0][0];
   0:	6803      	ldr	r3, [r0, #0]
   2:	600b      	str	r3, [r1, #0]
C:\Users\Caleb\Documents\Ride\projects\CHR6dmRelease/matrix3x3.c:321
	 dest->data[0][1] = src->data[0][1];
   4:	6842      	ldr	r2, [r0, #4]
   6:	604a      	str	r2, [r1, #4]
C:\Users\Caleb\Documents\Ride\projects\CHR6dmRelease/matrix3x3.c:322
	 dest->data[0][2] = src->data[0][2];
   8:	6883      	ldr	r3, [r0, #8]
   a:	608b      	str	r3, [r1, #8]
C:\Users\Caleb\Documents\Ride\projects\CHR6dmRelease/matrix3x3.c:324
	 
	 dest->data[1][0] = src->data[1][0];
   c:	68c2      	ldr	r2, [r0, #12]
   e:	60ca      	str	r2, [r1, #12]
C:\Users\Caleb\Documents\Ride\projects\CHR6dmRelease/matrix3x3.c:325
	 dest->data[1][1] = src->data[1][1];
  10:	6903      	ldr	r3, [r0, #16]
  12:	610b      	str	r3, [r1, #16]
C:\Users\Caleb\Documents\Ride\projects\CHR6dmRelease/matrix3x3.c:326
	 dest->data[1][2] = src->data[1][2];
  14:	6942      	ldr	r2, [r0, #20]
  16:	614a      	str	r2, [r1, #20]
C:\Users\Caleb\Documents\Ride\projects\CHR6dmRelease/matrix3x3.c:328
	 
	 dest->data[2][0] = src->data[2][0];
  18:	6983      	ldr	r3, [r0, #24]
  1a:	618b      	str	r3, [r1, #24]
C:\Users\Caleb\Documents\Ride\projects\CHR6dmRelease/matrix3x3.c:329
	 dest->data[2][1] = src->data[2][1];
  1c:	69c2      	ldr	r2, [r0, #28]
  1e:	61ca      	str	r2, [r1, #28]
C:\Users\Caleb\Documents\Ride\projects\CHR6dmRelease/matrix3x3.c:330
	 dest->data[2][2] = src->data[2][2];
  20:	6a03      	ldr	r3, [r0, #32]
  22:	620b      	str	r3, [r1, #32]
C:\Users\Caleb\Documents\Ride\projects\CHR6dmRelease/matrix3x3.c:331
}
  24:	4770      	bx	lr
  26:	46c0      	nop			(mov r8, r8)
