ARM GAS  C:\Users\Yiquing\AppData\Local\Temp\ccEfvc5F.s 			page 1


   1              		.syntax unified
   2              		.cpu cortex-m3
   3              		.fpu softvfp
   4              		.eabi_attribute 20, 1
   5              		.eabi_attribute 21, 1
   6              		.eabi_attribute 23, 3
   7              		.eabi_attribute 24, 1
   8              		.eabi_attribute 25, 1
   9              		.eabi_attribute 26, 1
  10              		.eabi_attribute 30, 6
  11              		.eabi_attribute 34, 1
  12              		.eabi_attribute 18, 4
  13              		.thumb
  14              		.file	"EZI2Cs.c"
  15              		.text
  16              	.Ltext0:
  17              		.cfi_sections	.debug_frame
  18              		.global	EZI2Cs_initVar
  19              		.bss
  20              		.type	EZI2Cs_initVar, %object
  21              		.size	EZI2Cs_initVar, 1
  22              	EZI2Cs_initVar:
  23 0000 00       		.space	1
  24              		.comm	EZI2Cs_curStatus,1,1
  25              		.comm	EZI2Cs_curState,1,1
  26              		.comm	EZI2Cs_dataPtrS1,4,4
  27              		.comm	EZI2Cs_bufSizeS1,2,2
  28              		.comm	EZI2Cs_wrProtectS1,2,2
  29              		.comm	EZI2Cs_rwOffsetS1,1,1
  30              		.comm	EZI2Cs_rwIndexS1,1,1
  31              		.section	.text.EZI2Cs_Init,"ax",%progbits
  32              		.align	2
  33              		.global	EZI2Cs_Init
  34              		.thumb
  35              		.thumb_func
  36              		.type	EZI2Cs_Init, %function
  37              	EZI2Cs_Init:
  38              	.LFB0:
  39              		.file 1 ".\\Generated_Source\\PSoC5\\EZI2Cs.c"
   1:.\Generated_Source\PSoC5/EZI2Cs.c **** /*******************************************************************************
   2:.\Generated_Source\PSoC5/EZI2Cs.c **** * File Name: EZI2Cs.c
   3:.\Generated_Source\PSoC5/EZI2Cs.c **** * Version 2.0
   4:.\Generated_Source\PSoC5/EZI2Cs.c **** *
   5:.\Generated_Source\PSoC5/EZI2Cs.c **** * Description:
   6:.\Generated_Source\PSoC5/EZI2Cs.c **** *  This file contains the setup, control and status commands for the EZI2C
   7:.\Generated_Source\PSoC5/EZI2Cs.c **** *  component. The actual protocol and operation code resides in the interrupt
   8:.\Generated_Source\PSoC5/EZI2Cs.c **** *  service routine file.
   9:.\Generated_Source\PSoC5/EZI2Cs.c **** *
  10:.\Generated_Source\PSoC5/EZI2Cs.c **** ********************************************************************************
  11:.\Generated_Source\PSoC5/EZI2Cs.c **** * Copyright 2008-2015, Cypress Semiconductor Corporation.  All rights reserved.
  12:.\Generated_Source\PSoC5/EZI2Cs.c **** * You may use this file only in accordance with the license, terms, conditions,
  13:.\Generated_Source\PSoC5/EZI2Cs.c **** * disclaimers, and limitations in the end user license agreement accompanying
  14:.\Generated_Source\PSoC5/EZI2Cs.c **** * the software package with which this file was provided.
  15:.\Generated_Source\PSoC5/EZI2Cs.c **** *******************************************************************************/
  16:.\Generated_Source\PSoC5/EZI2Cs.c **** 
  17:.\Generated_Source\PSoC5/EZI2Cs.c **** #include "EZI2Cs_PVT.h"
  18:.\Generated_Source\PSoC5/EZI2Cs.c **** 
ARM GAS  C:\Users\Yiquing\AppData\Local\Temp\ccEfvc5F.s 			page 2


  19:.\Generated_Source\PSoC5/EZI2Cs.c **** /**********************************
  20:.\Generated_Source\PSoC5/EZI2Cs.c **** *      System variables
  21:.\Generated_Source\PSoC5/EZI2Cs.c **** **********************************/
  22:.\Generated_Source\PSoC5/EZI2Cs.c **** 
  23:.\Generated_Source\PSoC5/EZI2Cs.c **** uint8 EZI2Cs_initVar = 0u; /* Defines if component was initialized */
  24:.\Generated_Source\PSoC5/EZI2Cs.c **** 
  25:.\Generated_Source\PSoC5/EZI2Cs.c **** /* Status and state variables */
  26:.\Generated_Source\PSoC5/EZI2Cs.c **** volatile uint8 EZI2Cs_curStatus; /* Current status of the component */
  27:.\Generated_Source\PSoC5/EZI2Cs.c **** volatile uint8 EZI2Cs_curState;  /* Current state of state machine */
  28:.\Generated_Source\PSoC5/EZI2Cs.c **** 
  29:.\Generated_Source\PSoC5/EZI2Cs.c **** /* Primary slave address variables */
  30:.\Generated_Source\PSoC5/EZI2Cs.c **** volatile uint8* EZI2Cs_dataPtrS1; /* Pointer to data buffer 1 */
  31:.\Generated_Source\PSoC5/EZI2Cs.c **** volatile uint16 EZI2Cs_bufSizeS1; /* Size of buffer 1 in bytes */
  32:.\Generated_Source\PSoC5/EZI2Cs.c **** volatile uint16 EZI2Cs_wrProtectS1; /* Start index of write protected area in buffer 1 */
  33:.\Generated_Source\PSoC5/EZI2Cs.c **** volatile uint8  EZI2Cs_rwOffsetS1; /* Current offset within buffer 1 */
  34:.\Generated_Source\PSoC5/EZI2Cs.c **** volatile uint8  EZI2Cs_rwIndexS1;  /* Current index within buffer 1 */
  35:.\Generated_Source\PSoC5/EZI2Cs.c **** 
  36:.\Generated_Source\PSoC5/EZI2Cs.c **** /* Secondary slave address variables */
  37:.\Generated_Source\PSoC5/EZI2Cs.c **** #if(EZI2Cs_ADDRESSES == EZI2Cs_TWO_ADDRESSES)
  38:.\Generated_Source\PSoC5/EZI2Cs.c ****     volatile uint8  EZI2Cs_addrS1; /* Primary slave address: software comparison */
  39:.\Generated_Source\PSoC5/EZI2Cs.c ****     volatile uint8  EZI2Cs_addrS2; /* Secondary slave address: software comparison */
  40:.\Generated_Source\PSoC5/EZI2Cs.c ****     volatile uint8* EZI2Cs_dataPtrS2; /* Pointer to data buffer 1 */
  41:.\Generated_Source\PSoC5/EZI2Cs.c ****     volatile uint16 EZI2Cs_bufSizeS2; /* Size of buffer 2 in bytes */
  42:.\Generated_Source\PSoC5/EZI2Cs.c ****     volatile uint16 EZI2Cs_wrProtectS2; /* Start index of write protected area in buffer 2 */
  43:.\Generated_Source\PSoC5/EZI2Cs.c ****     volatile uint8 EZI2Cs_rwOffsetS2; /* Current offset within buffer 2 */
  44:.\Generated_Source\PSoC5/EZI2Cs.c ****     volatile uint8 EZI2Cs_rwIndexS2;  /* Current index within buffer 2 */
  45:.\Generated_Source\PSoC5/EZI2Cs.c **** #endif  /* (EZI2Cs_ADDRESSES == EZI2Cs_TWO_ADDRESSES) */
  46:.\Generated_Source\PSoC5/EZI2Cs.c **** 
  47:.\Generated_Source\PSoC5/EZI2Cs.c **** 
  48:.\Generated_Source\PSoC5/EZI2Cs.c **** /*******************************************************************************
  49:.\Generated_Source\PSoC5/EZI2Cs.c **** * Function Name: EZI2Cs_Init
  50:.\Generated_Source\PSoC5/EZI2Cs.c **** ********************************************************************************
  51:.\Generated_Source\PSoC5/EZI2Cs.c **** *
  52:.\Generated_Source\PSoC5/EZI2Cs.c **** * Summary:
  53:.\Generated_Source\PSoC5/EZI2Cs.c **** *  Initializes or restores the component according to the Configure dialog
  54:.\Generated_Source\PSoC5/EZI2Cs.c **** *  settings. It is not necessary to call EZI2C_Init() because the EZI2C_Start()
  55:.\Generated_Source\PSoC5/EZI2Cs.c **** *  API calls this function, which is the preferred method to begin component
  56:.\Generated_Source\PSoC5/EZI2Cs.c **** *  operation.
  57:.\Generated_Source\PSoC5/EZI2Cs.c **** *
  58:.\Generated_Source\PSoC5/EZI2Cs.c **** * Parameters:
  59:.\Generated_Source\PSoC5/EZI2Cs.c **** *  None.
  60:.\Generated_Source\PSoC5/EZI2Cs.c **** *
  61:.\Generated_Source\PSoC5/EZI2Cs.c **** * Return:
  62:.\Generated_Source\PSoC5/EZI2Cs.c **** *  None.
  63:.\Generated_Source\PSoC5/EZI2Cs.c **** *
  64:.\Generated_Source\PSoC5/EZI2Cs.c **** * Global variables:
  65:.\Generated_Source\PSoC5/EZI2Cs.c **** *  EZI2Cs_initVar - It is used to indicate the initial configuration
  66:.\Generated_Source\PSoC5/EZI2Cs.c **** *  of this component.  The variable is initialized to zero and set to 1
  67:.\Generated_Source\PSoC5/EZI2Cs.c **** *  the first time EZI2Cs_Start() is called. This allows component  !
  68:.\Generated_Source\PSoC5/EZI2Cs.c **** *  initialization without re-initialization in all subsequent calls
  69:.\Generated_Source\PSoC5/EZI2Cs.c **** *  to the EZI2Cs_Start() routine.
  70:.\Generated_Source\PSoC5/EZI2Cs.c **** *
  71:.\Generated_Source\PSoC5/EZI2Cs.c **** *  EZI2Cs_curStatus - Stores the current status of the component.
  72:.\Generated_Source\PSoC5/EZI2Cs.c **** *
  73:.\Generated_Source\PSoC5/EZI2Cs.c **** *  EZI2Cs_curState- Stores the current state of an I2C state machine.
  74:.\Generated_Source\PSoC5/EZI2Cs.c **** *
  75:.\Generated_Source\PSoC5/EZI2Cs.c **** *  EZI2Cs_rwOffsetS1 - The global variable which stores an offset for read
ARM GAS  C:\Users\Yiquing\AppData\Local\Temp\ccEfvc5F.s 			page 3


  76:.\Generated_Source\PSoC5/EZI2Cs.c **** *  and write operations, is set at each write sequence of the first slave
  77:.\Generated_Source\PSoC5/EZI2Cs.c **** *  address is reset if EZI2Cs_initVar is 0, by
  78:.\Generated_Source\PSoC5/EZI2Cs.c **** *  EZI2Cs_initVar function call.
  79:.\Generated_Source\PSoC5/EZI2Cs.c **** *
  80:.\Generated_Source\PSoC5/EZI2Cs.c **** *  EZI2Cs_rwIndexS1 - The global variable which stores a pointer to the
  81:.\Generated_Source\PSoC5/EZI2Cs.c **** *  next value to be read or written for the first slave address is reset if
  82:.\Generated_Source\PSoC5/EZI2Cs.c **** *  EZI2Cs_initVar is 0, by EZI2Cs_initVar function call.
  83:.\Generated_Source\PSoC5/EZI2Cs.c **** *
  84:.\Generated_Source\PSoC5/EZI2Cs.c **** * EZI2Cs_wrProtectS1 - The global variable which stores an offset where data
  85:.\Generated_Source\PSoC5/EZI2Cs.c **** *  is read only for the first slave address is reset if
  86:.\Generated_Source\PSoC5/EZI2Cs.c **** *  EZI2Cs_initVar is 0, by EZI2Cs_initVar function call.
  87:.\Generated_Source\PSoC5/EZI2Cs.c **** *
  88:.\Generated_Source\PSoC5/EZI2Cs.c **** *  EZI2Cs_rwOffsetS2 - The global variable, which stores an offset for read
  89:.\Generated_Source\PSoC5/EZI2Cs.c **** *  and write operations, is set at each write sequence of the second slave
  90:.\Generated_Source\PSoC5/EZI2Cs.c **** *  device is reset if EZI2Cs_initVar is 0, by EZI2Cs_initVar
  91:.\Generated_Source\PSoC5/EZI2Cs.c **** *  function call.
  92:.\Generated_Source\PSoC5/EZI2Cs.c **** *
  93:.\Generated_Source\PSoC5/EZI2Cs.c **** *  EZI2Cs_rwIndexS2 - The global variable which stores a pointer to the
  94:.\Generated_Source\PSoC5/EZI2Cs.c **** *  next value to be read or written for the second slave address is reset if
  95:.\Generated_Source\PSoC5/EZI2Cs.c **** *  EZI2Cs_initVar is 0, by EZI2Cs_initVar function call.
  96:.\Generated_Source\PSoC5/EZI2Cs.c **** *
  97:.\Generated_Source\PSoC5/EZI2Cs.c **** * EZI2Cs_wrProtectS2 - The global variable which stores an offset where data
  98:.\Generated_Source\PSoC5/EZI2Cs.c **** *  is read only for the second slave address is reset if
  99:.\Generated_Source\PSoC5/EZI2Cs.c **** *  EZI2Cs_initVar is 0, by EZI2Cs_initVar function call.
 100:.\Generated_Source\PSoC5/EZI2Cs.c **** *
 101:.\Generated_Source\PSoC5/EZI2Cs.c **** * Reentrant:
 102:.\Generated_Source\PSoC5/EZI2Cs.c **** *  No.
 103:.\Generated_Source\PSoC5/EZI2Cs.c **** *
 104:.\Generated_Source\PSoC5/EZI2Cs.c **** *******************************************************************************/
 105:.\Generated_Source\PSoC5/EZI2Cs.c **** void EZI2Cs_Init(void) 
 106:.\Generated_Source\PSoC5/EZI2Cs.c **** {
  40              		.loc 1 106 0
  41              		.cfi_startproc
  42              		@ args = 0, pretend = 0, frame = 0
  43              		@ frame_needed = 1, uses_anonymous_args = 0
  44 0000 80B5     		push	{r7, lr}
  45              		.cfi_def_cfa_offset 8
  46              		.cfi_offset 7, -8
  47              		.cfi_offset 14, -4
  48 0002 00AF     		add	r7, sp, #0
  49              		.cfi_def_cfa_register 7
 107:.\Generated_Source\PSoC5/EZI2Cs.c ****     /* Configure fixed function block */
 108:.\Generated_Source\PSoC5/EZI2Cs.c ****     EZI2Cs_CFG_REG  = EZI2Cs_DEFAULT_CFG;
  50              		.loc 1 108 0
  51 0004 154B     		ldr	r3, .L2
  52 0006 0122     		movs	r2, #1
  53 0008 1A70     		strb	r2, [r3]
 109:.\Generated_Source\PSoC5/EZI2Cs.c ****     EZI2Cs_XCFG_REG = EZI2Cs_DEFAULT_XCFG;
  54              		.loc 1 109 0
  55 000a 154B     		ldr	r3, .L2+4
  56 000c 8122     		movs	r2, #129
  57 000e 1A70     		strb	r2, [r3]
 110:.\Generated_Source\PSoC5/EZI2Cs.c ****     EZI2Cs_ADDR_REG = EZI2Cs_DEFAULT_ADDR;
  58              		.loc 1 110 0
  59 0010 144B     		ldr	r3, .L2+8
  60 0012 3822     		movs	r2, #56
  61 0014 1A70     		strb	r2, [r3]
ARM GAS  C:\Users\Yiquing\AppData\Local\Temp\ccEfvc5F.s 			page 4


 111:.\Generated_Source\PSoC5/EZI2Cs.c ****     EZI2Cs_CLKDIV1_REG = EZI2Cs_DEFAULT_CLKDIV1;
  62              		.loc 1 111 0
  63 0016 144B     		ldr	r3, .L2+12
  64 0018 1E22     		movs	r2, #30
  65 001a 1A70     		strb	r2, [r3]
 112:.\Generated_Source\PSoC5/EZI2Cs.c ****     EZI2Cs_CLKDIV2_REG = EZI2Cs_DEFAULT_CLKDIV2;
  66              		.loc 1 112 0
  67 001c 134B     		ldr	r3, .L2+16
  68 001e 0022     		movs	r2, #0
  69 0020 1A70     		strb	r2, [r3]
 113:.\Generated_Source\PSoC5/EZI2Cs.c **** 
 114:.\Generated_Source\PSoC5/EZI2Cs.c **** #if (EZI2Cs_TWO_ADDRESSES == EZI2Cs_ADDRESSES)
 115:.\Generated_Source\PSoC5/EZI2Cs.c ****     /* Set address variables */
 116:.\Generated_Source\PSoC5/EZI2Cs.c ****     EZI2Cs_SetAddress1(EZI2Cs_DEFAULT_ADDR1);
 117:.\Generated_Source\PSoC5/EZI2Cs.c ****     EZI2Cs_SetAddress2(EZI2Cs_DEFAULT_ADDR2);
 118:.\Generated_Source\PSoC5/EZI2Cs.c **** #endif /* #if (EZI2Cs_TWO_ADDRESSES == EZI2Cs_ADDRESSES) */
 119:.\Generated_Source\PSoC5/EZI2Cs.c **** 
 120:.\Generated_Source\PSoC5/EZI2Cs.c ****     /* Configure interrupt */
 121:.\Generated_Source\PSoC5/EZI2Cs.c ****     CyIntDisable         (EZI2Cs_ISR_NUMBER);
  70              		.loc 1 121 0
  71 0022 134B     		ldr	r3, .L2+20
  72 0024 4FF40042 		mov	r2, #32768
  73 0028 1A60     		str	r2, [r3]
 122:.\Generated_Source\PSoC5/EZI2Cs.c ****     CyIntSetPriority     (EZI2Cs_ISR_NUMBER, EZI2Cs_ISR_PRIORITY);
  74              		.loc 1 122 0
  75 002a 0F20     		movs	r0, #15
  76 002c 0721     		movs	r1, #7
  77 002e FFF7FEFF 		bl	CyIntSetPriority
 123:.\Generated_Source\PSoC5/EZI2Cs.c ****     (void) CyIntSetVector(EZI2Cs_ISR_NUMBER, &EZI2Cs_ISR);
  78              		.loc 1 123 0
  79 0032 0F20     		movs	r0, #15
  80 0034 0F49     		ldr	r1, .L2+24
  81 0036 FFF7FEFF 		bl	CyIntSetVector
 124:.\Generated_Source\PSoC5/EZI2Cs.c **** 
 125:.\Generated_Source\PSoC5/EZI2Cs.c ****      /* Reset state and status to default */
 126:.\Generated_Source\PSoC5/EZI2Cs.c ****     EZI2Cs_curState  = EZI2Cs_SM_IDLE;
  82              		.loc 1 126 0
  83 003a 0F4B     		ldr	r3, .L2+28
  84 003c 0022     		movs	r2, #0
  85 003e 1A70     		strb	r2, [r3]
 127:.\Generated_Source\PSoC5/EZI2Cs.c ****     EZI2Cs_curStatus = 0u;
  86              		.loc 1 127 0
  87 0040 0E4B     		ldr	r3, .L2+32
  88 0042 0022     		movs	r2, #0
  89 0044 1A70     		strb	r2, [r3]
 128:.\Generated_Source\PSoC5/EZI2Cs.c **** 
 129:.\Generated_Source\PSoC5/EZI2Cs.c ****     /* Reset all buffer 1 indexes (primary address) */
 130:.\Generated_Source\PSoC5/EZI2Cs.c ****     EZI2Cs_rwOffsetS1  = 0u;
  90              		.loc 1 130 0
  91 0046 0E4B     		ldr	r3, .L2+36
  92 0048 0022     		movs	r2, #0
  93 004a 1A70     		strb	r2, [r3]
 131:.\Generated_Source\PSoC5/EZI2Cs.c ****     EZI2Cs_rwIndexS1   = 0u;
  94              		.loc 1 131 0
  95 004c 0D4B     		ldr	r3, .L2+40
  96 004e 0022     		movs	r2, #0
  97 0050 1A70     		strb	r2, [r3]
ARM GAS  C:\Users\Yiquing\AppData\Local\Temp\ccEfvc5F.s 			page 5


 132:.\Generated_Source\PSoC5/EZI2Cs.c ****     EZI2Cs_wrProtectS1 = 0u;
  98              		.loc 1 132 0
  99 0052 0D4B     		ldr	r3, .L2+44
 100 0054 0022     		movs	r2, #0
 101 0056 1A80     		strh	r2, [r3]	@ movhi
 133:.\Generated_Source\PSoC5/EZI2Cs.c **** 
 134:.\Generated_Source\PSoC5/EZI2Cs.c **** #if (EZI2Cs_ADDRESSES == EZI2Cs_TWO_ADDRESSES)
 135:.\Generated_Source\PSoC5/EZI2Cs.c ****     /* Reset all buffer 2 indexes (secondary address) */
 136:.\Generated_Source\PSoC5/EZI2Cs.c ****     EZI2Cs_rwOffsetS2  = 0u;
 137:.\Generated_Source\PSoC5/EZI2Cs.c ****     EZI2Cs_rwIndexS2   = 0u;
 138:.\Generated_Source\PSoC5/EZI2Cs.c ****     EZI2Cs_wrProtectS2 = 0u;
 139:.\Generated_Source\PSoC5/EZI2Cs.c **** #endif  /* (EZI2Cs_ADDRESSES == EZI2Cs_TWO_ADDRESSES) */
 140:.\Generated_Source\PSoC5/EZI2Cs.c **** }
 102              		.loc 1 140 0
 103 0058 80BD     		pop	{r7, pc}
 104              	.L3:
 105 005a 00BF     		.align	2
 106              	.L2:
 107 005c D6490040 		.word	1073760726
 108 0060 C8490040 		.word	1073760712
 109 0064 CA490040 		.word	1073760714
 110 0068 DB490040 		.word	1073760731
 111 006c DC490040 		.word	1073760732
 112 0070 80E100E0 		.word	-536813184
 113 0074 00000000 		.word	EZI2Cs_ISR
 114 0078 00000000 		.word	EZI2Cs_curState
 115 007c 00000000 		.word	EZI2Cs_curStatus
 116 0080 00000000 		.word	EZI2Cs_rwOffsetS1
 117 0084 00000000 		.word	EZI2Cs_rwIndexS1
 118 0088 00000000 		.word	EZI2Cs_wrProtectS1
 119              		.cfi_endproc
 120              	.LFE0:
 121              		.size	EZI2Cs_Init, .-EZI2Cs_Init
 122              		.section	.text.EZI2Cs_Enable,"ax",%progbits
 123              		.align	2
 124              		.global	EZI2Cs_Enable
 125              		.thumb
 126              		.thumb_func
 127              		.type	EZI2Cs_Enable, %function
 128              	EZI2Cs_Enable:
 129              	.LFB1:
 141:.\Generated_Source\PSoC5/EZI2Cs.c **** 
 142:.\Generated_Source\PSoC5/EZI2Cs.c **** 
 143:.\Generated_Source\PSoC5/EZI2Cs.c **** /*******************************************************************************
 144:.\Generated_Source\PSoC5/EZI2Cs.c **** * Function Name: EZI2Cs_Enable
 145:.\Generated_Source\PSoC5/EZI2Cs.c **** ********************************************************************************
 146:.\Generated_Source\PSoC5/EZI2Cs.c **** *
 147:.\Generated_Source\PSoC5/EZI2Cs.c **** * Summary:
 148:.\Generated_Source\PSoC5/EZI2Cs.c **** *  Activates the hardware and begins component operation.Calls EZI2C_EnableInt()
 149:.\Generated_Source\PSoC5/EZI2Cs.c **** *  to enable the I2C component interrupt. It is not necessary to call
 150:.\Generated_Source\PSoC5/EZI2Cs.c **** *  EZI2C_Enable() because the EZI2C_Start() API calls this function, which is
 151:.\Generated_Source\PSoC5/EZI2Cs.c **** *  the preferred method to begin component operation.
 152:.\Generated_Source\PSoC5/EZI2Cs.c **** *
 153:.\Generated_Source\PSoC5/EZI2Cs.c **** * Parameters:
 154:.\Generated_Source\PSoC5/EZI2Cs.c **** *  None.
 155:.\Generated_Source\PSoC5/EZI2Cs.c **** *
 156:.\Generated_Source\PSoC5/EZI2Cs.c **** * Return:
ARM GAS  C:\Users\Yiquing\AppData\Local\Temp\ccEfvc5F.s 			page 6


 157:.\Generated_Source\PSoC5/EZI2Cs.c **** *  None.
 158:.\Generated_Source\PSoC5/EZI2Cs.c **** *
 159:.\Generated_Source\PSoC5/EZI2Cs.c **** *******************************************************************************/
 160:.\Generated_Source\PSoC5/EZI2Cs.c **** void EZI2Cs_Enable(void) 
 161:.\Generated_Source\PSoC5/EZI2Cs.c **** {
 130              		.loc 1 161 0
 131              		.cfi_startproc
 132              		@ args = 0, pretend = 0, frame = 8
 133              		@ frame_needed = 1, uses_anonymous_args = 0
 134 0000 80B5     		push	{r7, lr}
 135              		.cfi_def_cfa_offset 8
 136              		.cfi_offset 7, -8
 137              		.cfi_offset 14, -4
 138 0002 82B0     		sub	sp, sp, #8
 139              		.cfi_def_cfa_offset 16
 140 0004 00AF     		add	r7, sp, #0
 141              		.cfi_def_cfa_register 7
 162:.\Generated_Source\PSoC5/EZI2Cs.c ****     uint8 intState;
 163:.\Generated_Source\PSoC5/EZI2Cs.c **** 
 164:.\Generated_Source\PSoC5/EZI2Cs.c ****     /* Enable power to block */
 165:.\Generated_Source\PSoC5/EZI2Cs.c ****     intState = CyEnterCriticalSection();
 142              		.loc 1 165 0
 143 0006 FFF7FEFF 		bl	CyEnterCriticalSection
 144 000a 0346     		mov	r3, r0
 145 000c FB71     		strb	r3, [r7, #7]
 166:.\Generated_Source\PSoC5/EZI2Cs.c ****     EZI2Cs_PM_ACT_CFG_REG  |= EZI2Cs_ACT_PWR_EN;
 146              		.loc 1 166 0
 147 000e 0D4B     		ldr	r3, .L5
 148 0010 0C4A     		ldr	r2, .L5
 149 0012 1278     		ldrb	r2, [r2]
 150 0014 D2B2     		uxtb	r2, r2
 151 0016 42F00402 		orr	r2, r2, #4
 152 001a D2B2     		uxtb	r2, r2
 153 001c 1A70     		strb	r2, [r3]
 167:.\Generated_Source\PSoC5/EZI2Cs.c ****     EZI2Cs_PM_STBY_CFG_REG |= EZI2Cs_STBY_PWR_EN;
 154              		.loc 1 167 0
 155 001e 0A4B     		ldr	r3, .L5+4
 156 0020 094A     		ldr	r2, .L5+4
 157 0022 1278     		ldrb	r2, [r2]
 158 0024 D2B2     		uxtb	r2, r2
 159 0026 42F00402 		orr	r2, r2, #4
 160 002a D2B2     		uxtb	r2, r2
 161 002c 1A70     		strb	r2, [r3]
 168:.\Generated_Source\PSoC5/EZI2Cs.c ****     CyExitCriticalSection(intState);
 162              		.loc 1 168 0
 163 002e FB79     		ldrb	r3, [r7, #7]	@ zero_extendqisi2
 164 0030 1846     		mov	r0, r3
 165 0032 FFF7FEFF 		bl	CyExitCriticalSection
 169:.\Generated_Source\PSoC5/EZI2Cs.c **** 
 170:.\Generated_Source\PSoC5/EZI2Cs.c ****     /* Enable interrupt to start operation */
 171:.\Generated_Source\PSoC5/EZI2Cs.c ****     EZI2Cs_EnableInt();
 166              		.loc 1 171 0
 167 0036 054B     		ldr	r3, .L5+8
 168 0038 4FF40042 		mov	r2, #32768
 169 003c 1A60     		str	r2, [r3]
 172:.\Generated_Source\PSoC5/EZI2Cs.c **** }
 170              		.loc 1 172 0
ARM GAS  C:\Users\Yiquing\AppData\Local\Temp\ccEfvc5F.s 			page 7


 171 003e 0837     		adds	r7, r7, #8
 172 0040 BD46     		mov	sp, r7
 173              		@ sp needed
 174 0042 80BD     		pop	{r7, pc}
 175              	.L6:
 176              		.align	2
 177              	.L5:
 178 0044 A5430040 		.word	1073759141
 179 0048 B5430040 		.word	1073759157
 180 004c 00E100E0 		.word	-536813312
 181              		.cfi_endproc
 182              	.LFE1:
 183              		.size	EZI2Cs_Enable, .-EZI2Cs_Enable
 184              		.section	.text.EZI2Cs_Start,"ax",%progbits
 185              		.align	2
 186              		.global	EZI2Cs_Start
 187              		.thumb
 188              		.thumb_func
 189              		.type	EZI2Cs_Start, %function
 190              	EZI2Cs_Start:
 191              	.LFB2:
 173:.\Generated_Source\PSoC5/EZI2Cs.c **** 
 174:.\Generated_Source\PSoC5/EZI2Cs.c **** 
 175:.\Generated_Source\PSoC5/EZI2Cs.c **** /*******************************************************************************
 176:.\Generated_Source\PSoC5/EZI2Cs.c **** * Function Name: EZI2Cs_Start
 177:.\Generated_Source\PSoC5/EZI2Cs.c **** ********************************************************************************
 178:.\Generated_Source\PSoC5/EZI2Cs.c **** *
 179:.\Generated_Source\PSoC5/EZI2Cs.c **** * Summary:
 180:.\Generated_Source\PSoC5/EZI2Cs.c **** *  This is the preferred method to begin component operation. EZI2C_Start(),
 181:.\Generated_Source\PSoC5/EZI2Cs.c **** *  calls the EZI2C_Init() function, and then calls the EZI2C_Enable() function.
 182:.\Generated_Source\PSoC5/EZI2Cs.c **** *  It must be executed before I2C bus operation.
 183:.\Generated_Source\PSoC5/EZI2Cs.c **** *  This function enables the component interrupt because interrupt is required
 184:.\Generated_Source\PSoC5/EZI2Cs.c **** *  for most component operations.
 185:.\Generated_Source\PSoC5/EZI2Cs.c **** *
 186:.\Generated_Source\PSoC5/EZI2Cs.c **** * Parameters:
 187:.\Generated_Source\PSoC5/EZI2Cs.c **** *  None.
 188:.\Generated_Source\PSoC5/EZI2Cs.c **** *
 189:.\Generated_Source\PSoC5/EZI2Cs.c **** * Return:
 190:.\Generated_Source\PSoC5/EZI2Cs.c **** *  None.
 191:.\Generated_Source\PSoC5/EZI2Cs.c **** *
 192:.\Generated_Source\PSoC5/EZI2Cs.c **** * Reentrant:
 193:.\Generated_Source\PSoC5/EZI2Cs.c **** *  No.
 194:.\Generated_Source\PSoC5/EZI2Cs.c **** *
 195:.\Generated_Source\PSoC5/EZI2Cs.c **** *******************************************************************************/
 196:.\Generated_Source\PSoC5/EZI2Cs.c **** void EZI2Cs_Start(void) 
 197:.\Generated_Source\PSoC5/EZI2Cs.c **** {
 192              		.loc 1 197 0
 193              		.cfi_startproc
 194              		@ args = 0, pretend = 0, frame = 0
 195              		@ frame_needed = 1, uses_anonymous_args = 0
 196 0000 80B5     		push	{r7, lr}
 197              		.cfi_def_cfa_offset 8
 198              		.cfi_offset 7, -8
 199              		.cfi_offset 14, -4
 200 0002 00AF     		add	r7, sp, #0
 201              		.cfi_def_cfa_register 7
 198:.\Generated_Source\PSoC5/EZI2Cs.c ****     if (0u == EZI2Cs_initVar)
ARM GAS  C:\Users\Yiquing\AppData\Local\Temp\ccEfvc5F.s 			page 8


 202              		.loc 1 198 0
 203 0004 054B     		ldr	r3, .L9
 204 0006 1B78     		ldrb	r3, [r3]	@ zero_extendqisi2
 205 0008 002B     		cmp	r3, #0
 206 000a 04D1     		bne	.L8
 199:.\Generated_Source\PSoC5/EZI2Cs.c ****     {
 200:.\Generated_Source\PSoC5/EZI2Cs.c ****         EZI2Cs_Init();
 207              		.loc 1 200 0
 208 000c FFF7FEFF 		bl	EZI2Cs_Init
 201:.\Generated_Source\PSoC5/EZI2Cs.c ****         EZI2Cs_initVar = 1u; /* Component initialized */
 209              		.loc 1 201 0
 210 0010 024B     		ldr	r3, .L9
 211 0012 0122     		movs	r2, #1
 212 0014 1A70     		strb	r2, [r3]
 213              	.L8:
 202:.\Generated_Source\PSoC5/EZI2Cs.c ****     }
 203:.\Generated_Source\PSoC5/EZI2Cs.c **** 
 204:.\Generated_Source\PSoC5/EZI2Cs.c ****     EZI2Cs_Enable();
 214              		.loc 1 204 0
 215 0016 FFF7FEFF 		bl	EZI2Cs_Enable
 205:.\Generated_Source\PSoC5/EZI2Cs.c **** }
 216              		.loc 1 205 0
 217 001a 80BD     		pop	{r7, pc}
 218              	.L10:
 219              		.align	2
 220              	.L9:
 221 001c 00000000 		.word	EZI2Cs_initVar
 222              		.cfi_endproc
 223              	.LFE2:
 224              		.size	EZI2Cs_Start, .-EZI2Cs_Start
 225              		.section	.text.EZI2Cs_Stop,"ax",%progbits
 226              		.align	2
 227              		.global	EZI2Cs_Stop
 228              		.thumb
 229              		.thumb_func
 230              		.type	EZI2Cs_Stop, %function
 231              	EZI2Cs_Stop:
 232              	.LFB3:
 206:.\Generated_Source\PSoC5/EZI2Cs.c **** 
 207:.\Generated_Source\PSoC5/EZI2Cs.c **** 
 208:.\Generated_Source\PSoC5/EZI2Cs.c **** /*******************************************************************************
 209:.\Generated_Source\PSoC5/EZI2Cs.c **** * Function Name: EZI2Cs_Stop
 210:.\Generated_Source\PSoC5/EZI2Cs.c **** ********************************************************************************
 211:.\Generated_Source\PSoC5/EZI2Cs.c **** *
 212:.\Generated_Source\PSoC5/EZI2Cs.c **** * Summary:
 213:.\Generated_Source\PSoC5/EZI2Cs.c **** *  Disables I2C hardware and component interrupt. The I2C bus is released if it
 214:.\Generated_Source\PSoC5/EZI2Cs.c **** *  was locked up by the component.
 215:.\Generated_Source\PSoC5/EZI2Cs.c **** *
 216:.\Generated_Source\PSoC5/EZI2Cs.c **** * Parameters:
 217:.\Generated_Source\PSoC5/EZI2Cs.c **** *  None.
 218:.\Generated_Source\PSoC5/EZI2Cs.c **** *
 219:.\Generated_Source\PSoC5/EZI2Cs.c **** * Return:
 220:.\Generated_Source\PSoC5/EZI2Cs.c **** *  None.
 221:.\Generated_Source\PSoC5/EZI2Cs.c **** *
 222:.\Generated_Source\PSoC5/EZI2Cs.c **** *******************************************************************************/
 223:.\Generated_Source\PSoC5/EZI2Cs.c **** void EZI2Cs_Stop(void) 
 224:.\Generated_Source\PSoC5/EZI2Cs.c **** {
ARM GAS  C:\Users\Yiquing\AppData\Local\Temp\ccEfvc5F.s 			page 9


 233              		.loc 1 224 0
 234              		.cfi_startproc
 235              		@ args = 0, pretend = 0, frame = 8
 236              		@ frame_needed = 1, uses_anonymous_args = 0
 237 0000 80B5     		push	{r7, lr}
 238              		.cfi_def_cfa_offset 8
 239              		.cfi_offset 7, -8
 240              		.cfi_offset 14, -4
 241 0002 82B0     		sub	sp, sp, #8
 242              		.cfi_def_cfa_offset 16
 243 0004 00AF     		add	r7, sp, #0
 244              		.cfi_def_cfa_register 7
 225:.\Generated_Source\PSoC5/EZI2Cs.c ****     uint8  intState;
 226:.\Generated_Source\PSoC5/EZI2Cs.c ****     uint16 blockResetCycles;
 227:.\Generated_Source\PSoC5/EZI2Cs.c **** 
 228:.\Generated_Source\PSoC5/EZI2Cs.c ****     EZI2Cs_DisableInt();
 245              		.loc 1 228 0
 246 0006 344B     		ldr	r3, .L12
 247 0008 4FF40042 		mov	r2, #32768
 248 000c 1A60     		str	r2, [r3]
 229:.\Generated_Source\PSoC5/EZI2Cs.c **** 
 230:.\Generated_Source\PSoC5/EZI2Cs.c ****     /* Store registers effected by block disable */
 231:.\Generated_Source\PSoC5/EZI2Cs.c ****     EZI2Cs_backup.adr     = EZI2Cs_ADDR_REG;
 249              		.loc 1 231 0
 250 000e 334B     		ldr	r3, .L12+4
 251 0010 1B78     		ldrb	r3, [r3]
 252 0012 DAB2     		uxtb	r2, r3
 253 0014 324B     		ldr	r3, .L12+8
 254 0016 9A70     		strb	r2, [r3, #2]
 232:.\Generated_Source\PSoC5/EZI2Cs.c ****     EZI2Cs_backup.clkDiv1 = EZI2Cs_CLKDIV1_REG;
 255              		.loc 1 232 0
 256 0018 324B     		ldr	r3, .L12+12
 257 001a 1B78     		ldrb	r3, [r3]
 258 001c DAB2     		uxtb	r2, r3
 259 001e 304B     		ldr	r3, .L12+8
 260 0020 1A71     		strb	r2, [r3, #4]
 233:.\Generated_Source\PSoC5/EZI2Cs.c ****     EZI2Cs_backup.clkDiv2 = EZI2Cs_CLKDIV2_REG;
 261              		.loc 1 233 0
 262 0022 314B     		ldr	r3, .L12+16
 263 0024 1B78     		ldrb	r3, [r3]
 264 0026 DAB2     		uxtb	r2, r3
 265 0028 2D4B     		ldr	r3, .L12+8
 266 002a 5A71     		strb	r2, [r3, #5]
 234:.\Generated_Source\PSoC5/EZI2Cs.c **** 
 235:.\Generated_Source\PSoC5/EZI2Cs.c ****     /* Calculate number of cycles to reset block */
 236:.\Generated_Source\PSoC5/EZI2Cs.c ****     blockResetCycles = ((uint16) ((uint16) EZI2Cs_CLKDIV2_REG << 8u) | EZI2Cs_CLKDIV1_REG) + 1u;
 267              		.loc 1 236 0
 268 002c 2E4B     		ldr	r3, .L12+16
 269 002e 1B78     		ldrb	r3, [r3]
 270 0030 DBB2     		uxtb	r3, r3
 271 0032 1B02     		lsls	r3, r3, #8
 272 0034 9AB2     		uxth	r2, r3
 273 0036 2B4B     		ldr	r3, .L12+12
 274 0038 1B78     		ldrb	r3, [r3]
 275 003a DBB2     		uxtb	r3, r3
 276 003c 1343     		orrs	r3, r3, r2
 277 003e 9BB2     		uxth	r3, r3
ARM GAS  C:\Users\Yiquing\AppData\Local\Temp\ccEfvc5F.s 			page 10


 278 0040 0133     		adds	r3, r3, #1
 279 0042 FB80     		strh	r3, [r7, #6]	@ movhi
 237:.\Generated_Source\PSoC5/EZI2Cs.c **** 
 238:.\Generated_Source\PSoC5/EZI2Cs.c ****     /* Disable block */
 239:.\Generated_Source\PSoC5/EZI2Cs.c ****     EZI2Cs_CFG_REG &= (uint8) ~EZI2Cs_CFG_EN_SLAVE;
 280              		.loc 1 239 0
 281 0044 294B     		ldr	r3, .L12+20
 282 0046 294A     		ldr	r2, .L12+20
 283 0048 1278     		ldrb	r2, [r2]
 284 004a D2B2     		uxtb	r2, r2
 285 004c 22F00102 		bic	r2, r2, #1
 286 0050 D2B2     		uxtb	r2, r2
 287 0052 1A70     		strb	r2, [r3]
 240:.\Generated_Source\PSoC5/EZI2Cs.c ****     /* Wait for block reset before disable power */
 241:.\Generated_Source\PSoC5/EZI2Cs.c ****     CyDelayCycles((uint32) blockResetCycles);
 288              		.loc 1 241 0
 289 0054 FB88     		ldrh	r3, [r7, #6]
 290 0056 1846     		mov	r0, r3
 291 0058 FFF7FEFF 		bl	CyDelayCycles
 242:.\Generated_Source\PSoC5/EZI2Cs.c **** 
 243:.\Generated_Source\PSoC5/EZI2Cs.c ****     /* Disable power to block */
 244:.\Generated_Source\PSoC5/EZI2Cs.c ****     intState = CyEnterCriticalSection();
 292              		.loc 1 244 0
 293 005c FFF7FEFF 		bl	CyEnterCriticalSection
 294 0060 0346     		mov	r3, r0
 295 0062 7B71     		strb	r3, [r7, #5]
 245:.\Generated_Source\PSoC5/EZI2Cs.c ****     EZI2Cs_PM_ACT_CFG_REG  &= (uint8) ~EZI2Cs_ACT_PWR_EN;
 296              		.loc 1 245 0
 297 0064 224B     		ldr	r3, .L12+24
 298 0066 224A     		ldr	r2, .L12+24
 299 0068 1278     		ldrb	r2, [r2]
 300 006a D2B2     		uxtb	r2, r2
 301 006c 22F00402 		bic	r2, r2, #4
 302 0070 D2B2     		uxtb	r2, r2
 303 0072 1A70     		strb	r2, [r3]
 246:.\Generated_Source\PSoC5/EZI2Cs.c ****     EZI2Cs_PM_STBY_CFG_REG &= (uint8) ~EZI2Cs_STBY_PWR_EN;
 304              		.loc 1 246 0
 305 0074 1F4B     		ldr	r3, .L12+28
 306 0076 1F4A     		ldr	r2, .L12+28
 307 0078 1278     		ldrb	r2, [r2]
 308 007a D2B2     		uxtb	r2, r2
 309 007c 22F00402 		bic	r2, r2, #4
 310 0080 D2B2     		uxtb	r2, r2
 311 0082 1A70     		strb	r2, [r3]
 247:.\Generated_Source\PSoC5/EZI2Cs.c ****     CyExitCriticalSection(intState);
 312              		.loc 1 247 0
 313 0084 7B79     		ldrb	r3, [r7, #5]	@ zero_extendqisi2
 314 0086 1846     		mov	r0, r3
 315 0088 FFF7FEFF 		bl	CyExitCriticalSection
 248:.\Generated_Source\PSoC5/EZI2Cs.c **** 
 249:.\Generated_Source\PSoC5/EZI2Cs.c ****     /* Enable block */
 250:.\Generated_Source\PSoC5/EZI2Cs.c ****     EZI2Cs_CFG_REG |= (uint8) EZI2Cs_CFG_EN_SLAVE;
 316              		.loc 1 250 0
 317 008c 174B     		ldr	r3, .L12+20
 318 008e 174A     		ldr	r2, .L12+20
 319 0090 1278     		ldrb	r2, [r2]
 320 0092 D2B2     		uxtb	r2, r2
ARM GAS  C:\Users\Yiquing\AppData\Local\Temp\ccEfvc5F.s 			page 11


 321 0094 42F00102 		orr	r2, r2, #1
 322 0098 D2B2     		uxtb	r2, r2
 323 009a 1A70     		strb	r2, [r3]
 251:.\Generated_Source\PSoC5/EZI2Cs.c **** 
 252:.\Generated_Source\PSoC5/EZI2Cs.c ****     /* Restore registers effected by block disable. Ticket ID#198004 */
 253:.\Generated_Source\PSoC5/EZI2Cs.c ****     EZI2Cs_ADDR_REG    = EZI2Cs_backup.adr;
 324              		.loc 1 253 0
 325 009c 0F4B     		ldr	r3, .L12+4
 326 009e 104A     		ldr	r2, .L12+8
 327 00a0 9278     		ldrb	r2, [r2, #2]	@ zero_extendqisi2
 328 00a2 1A70     		strb	r2, [r3]
 254:.\Generated_Source\PSoC5/EZI2Cs.c ****     EZI2Cs_ADDR_REG    = EZI2Cs_backup.adr;
 329              		.loc 1 254 0
 330 00a4 0D4B     		ldr	r3, .L12+4
 331 00a6 0E4A     		ldr	r2, .L12+8
 332 00a8 9278     		ldrb	r2, [r2, #2]	@ zero_extendqisi2
 333 00aa 1A70     		strb	r2, [r3]
 255:.\Generated_Source\PSoC5/EZI2Cs.c ****     EZI2Cs_CLKDIV1_REG = EZI2Cs_backup.clkDiv1;
 334              		.loc 1 255 0
 335 00ac 0D4B     		ldr	r3, .L12+12
 336 00ae 0C4A     		ldr	r2, .L12+8
 337 00b0 1279     		ldrb	r2, [r2, #4]	@ zero_extendqisi2
 338 00b2 1A70     		strb	r2, [r3]
 256:.\Generated_Source\PSoC5/EZI2Cs.c ****     EZI2Cs_CLKDIV2_REG = EZI2Cs_backup.clkDiv2;
 339              		.loc 1 256 0
 340 00b4 0C4B     		ldr	r3, .L12+16
 341 00b6 0A4A     		ldr	r2, .L12+8
 342 00b8 5279     		ldrb	r2, [r2, #5]	@ zero_extendqisi2
 343 00ba 1A70     		strb	r2, [r3]
 257:.\Generated_Source\PSoC5/EZI2Cs.c **** 
 258:.\Generated_Source\PSoC5/EZI2Cs.c ****     EZI2Cs_ClearPendingInt();
 344              		.loc 1 258 0
 345 00bc 0E4B     		ldr	r3, .L12+32
 346 00be 4FF40042 		mov	r2, #32768
 347 00c2 1A60     		str	r2, [r3]
 259:.\Generated_Source\PSoC5/EZI2Cs.c **** 
 260:.\Generated_Source\PSoC5/EZI2Cs.c ****     /* Reset state and status to default */
 261:.\Generated_Source\PSoC5/EZI2Cs.c ****     EZI2Cs_curState  = EZI2Cs_SM_IDLE;
 348              		.loc 1 261 0
 349 00c4 0D4B     		ldr	r3, .L12+36
 350 00c6 0022     		movs	r2, #0
 351 00c8 1A70     		strb	r2, [r3]
 262:.\Generated_Source\PSoC5/EZI2Cs.c ****     EZI2Cs_curStatus = 0u;
 352              		.loc 1 262 0
 353 00ca 0D4B     		ldr	r3, .L12+40
 354 00cc 0022     		movs	r2, #0
 355 00ce 1A70     		strb	r2, [r3]
 263:.\Generated_Source\PSoC5/EZI2Cs.c **** }
 356              		.loc 1 263 0
 357 00d0 0837     		adds	r7, r7, #8
 358 00d2 BD46     		mov	sp, r7
 359              		@ sp needed
 360 00d4 80BD     		pop	{r7, pc}
 361              	.L13:
 362 00d6 00BF     		.align	2
 363              	.L12:
 364 00d8 80E100E0 		.word	-536813184
ARM GAS  C:\Users\Yiquing\AppData\Local\Temp\ccEfvc5F.s 			page 12


 365 00dc CA490040 		.word	1073760714
 366 00e0 00000000 		.word	EZI2Cs_backup
 367 00e4 DB490040 		.word	1073760731
 368 00e8 DC490040 		.word	1073760732
 369 00ec D6490040 		.word	1073760726
 370 00f0 A5430040 		.word	1073759141
 371 00f4 B5430040 		.word	1073759157
 372 00f8 80E200E0 		.word	-536812928
 373 00fc 00000000 		.word	EZI2Cs_curState
 374 0100 00000000 		.word	EZI2Cs_curStatus
 375              		.cfi_endproc
 376              	.LFE3:
 377              		.size	EZI2Cs_Stop, .-EZI2Cs_Stop
 378              		.section	.text.EZI2Cs_SetAddress1,"ax",%progbits
 379              		.align	2
 380              		.global	EZI2Cs_SetAddress1
 381              		.thumb
 382              		.thumb_func
 383              		.type	EZI2Cs_SetAddress1, %function
 384              	EZI2Cs_SetAddress1:
 385              	.LFB4:
 264:.\Generated_Source\PSoC5/EZI2Cs.c **** 
 265:.\Generated_Source\PSoC5/EZI2Cs.c **** 
 266:.\Generated_Source\PSoC5/EZI2Cs.c **** /*******************************************************************************
 267:.\Generated_Source\PSoC5/EZI2Cs.c **** * Function Name: EZI2Cs_SetAddress1
 268:.\Generated_Source\PSoC5/EZI2Cs.c **** ********************************************************************************
 269:.\Generated_Source\PSoC5/EZI2Cs.c **** *
 270:.\Generated_Source\PSoC5/EZI2Cs.c **** * Summary:
 271:.\Generated_Source\PSoC5/EZI2Cs.c **** *  Sets the primary I2C slave address. This address is used by the master to
 272:.\Generated_Source\PSoC5/EZI2Cs.c **** *  access the primary data buffer.
 273:.\Generated_Source\PSoC5/EZI2Cs.c **** *
 274:.\Generated_Source\PSoC5/EZI2Cs.c **** * Parameters:
 275:.\Generated_Source\PSoC5/EZI2Cs.c **** *  address: Primary I2C slave address.
 276:.\Generated_Source\PSoC5/EZI2Cs.c **** *           This address is the 7-bit right-justified slave address and does not
 277:.\Generated_Source\PSoC5/EZI2Cs.c **** *           include the R/W bit.
 278:.\Generated_Source\PSoC5/EZI2Cs.c **** *           This value can be any address between 0 and 127 (0x00 to 0x7F).
 279:.\Generated_Source\PSoC5/EZI2Cs.c **** *
 280:.\Generated_Source\PSoC5/EZI2Cs.c **** * Return:
 281:.\Generated_Source\PSoC5/EZI2Cs.c **** *  None.
 282:.\Generated_Source\PSoC5/EZI2Cs.c **** *
 283:.\Generated_Source\PSoC5/EZI2Cs.c **** * Global variables:
 284:.\Generated_Source\PSoC5/EZI2Cs.c **** *  EZI2Cs_addrS1 - A new slave address for the first slave device is
 285:.\Generated_Source\PSoC5/EZI2Cs.c **** *  saved in it, if the component is configured to act as two slave devices.
 286:.\Generated_Source\PSoC5/EZI2Cs.c **** *
 287:.\Generated_Source\PSoC5/EZI2Cs.c **** * Reentrant:
 288:.\Generated_Source\PSoC5/EZI2Cs.c **** *  No, if two addresses are used.
 289:.\Generated_Source\PSoC5/EZI2Cs.c **** *
 290:.\Generated_Source\PSoC5/EZI2Cs.c **** *******************************************************************************/
 291:.\Generated_Source\PSoC5/EZI2Cs.c **** void EZI2Cs_SetAddress1(uint8 address) 
 292:.\Generated_Source\PSoC5/EZI2Cs.c **** {
 386              		.loc 1 292 0
 387              		.cfi_startproc
 388              		@ args = 0, pretend = 0, frame = 8
 389              		@ frame_needed = 1, uses_anonymous_args = 0
 390              		@ link register save eliminated.
 391 0000 80B4     		push	{r7}
 392              		.cfi_def_cfa_offset 4
ARM GAS  C:\Users\Yiquing\AppData\Local\Temp\ccEfvc5F.s 			page 13


 393              		.cfi_offset 7, -4
 394 0002 83B0     		sub	sp, sp, #12
 395              		.cfi_def_cfa_offset 16
 396 0004 00AF     		add	r7, sp, #0
 397              		.cfi_def_cfa_register 7
 398 0006 0346     		mov	r3, r0
 399 0008 FB71     		strb	r3, [r7, #7]
 293:.\Generated_Source\PSoC5/EZI2Cs.c **** #if (EZI2Cs_ONE_ADDRESS == EZI2Cs_ADDRESSES)
 294:.\Generated_Source\PSoC5/EZI2Cs.c ****     EZI2Cs_ADDR_REG = (address & EZI2Cs_SADDR_MASK);
 400              		.loc 1 294 0
 401 000a 054B     		ldr	r3, .L15
 402 000c FA79     		ldrb	r2, [r7, #7]
 403 000e 02F07F02 		and	r2, r2, #127
 404 0012 D2B2     		uxtb	r2, r2
 405 0014 1A70     		strb	r2, [r3]
 295:.\Generated_Source\PSoC5/EZI2Cs.c **** #else
 296:.\Generated_Source\PSoC5/EZI2Cs.c ****     EZI2Cs_addrS1   = (address & EZI2Cs_SADDR_MASK);
 297:.\Generated_Source\PSoC5/EZI2Cs.c **** #endif /* (EZI2Cs_ONE_ADDRESS == EZI2Cs_ADDRESSES) */
 298:.\Generated_Source\PSoC5/EZI2Cs.c **** }
 406              		.loc 1 298 0
 407 0016 0C37     		adds	r7, r7, #12
 408 0018 BD46     		mov	sp, r7
 409              		@ sp needed
 410 001a 5DF8047B 		ldr	r7, [sp], #4
 411 001e 7047     		bx	lr
 412              	.L16:
 413              		.align	2
 414              	.L15:
 415 0020 CA490040 		.word	1073760714
 416              		.cfi_endproc
 417              	.LFE4:
 418              		.size	EZI2Cs_SetAddress1, .-EZI2Cs_SetAddress1
 419              		.section	.text.EZI2Cs_GetAddress1,"ax",%progbits
 420              		.align	2
 421              		.global	EZI2Cs_GetAddress1
 422              		.thumb
 423              		.thumb_func
 424              		.type	EZI2Cs_GetAddress1, %function
 425              	EZI2Cs_GetAddress1:
 426              	.LFB5:
 299:.\Generated_Source\PSoC5/EZI2Cs.c **** 
 300:.\Generated_Source\PSoC5/EZI2Cs.c **** 
 301:.\Generated_Source\PSoC5/EZI2Cs.c **** /*******************************************************************************
 302:.\Generated_Source\PSoC5/EZI2Cs.c **** * Function Name: EZI2Cs_GetAddress1
 303:.\Generated_Source\PSoC5/EZI2Cs.c **** ********************************************************************************
 304:.\Generated_Source\PSoC5/EZI2Cs.c **** *
 305:.\Generated_Source\PSoC5/EZI2Cs.c **** * Summary:
 306:.\Generated_Source\PSoC5/EZI2Cs.c **** *  Returns the primary I2C slave address.
 307:.\Generated_Source\PSoC5/EZI2Cs.c **** *  This address is the 7-bit right-justified slave address and does not include
 308:.\Generated_Source\PSoC5/EZI2Cs.c **** *  the R/W bit.
 309:.\Generated_Source\PSoC5/EZI2Cs.c **** *
 310:.\Generated_Source\PSoC5/EZI2Cs.c **** * Parameters:
 311:.\Generated_Source\PSoC5/EZI2Cs.c **** *  None.
 312:.\Generated_Source\PSoC5/EZI2Cs.c **** *
 313:.\Generated_Source\PSoC5/EZI2Cs.c **** * Return:
 314:.\Generated_Source\PSoC5/EZI2Cs.c **** *  Primary I2C slave address.
 315:.\Generated_Source\PSoC5/EZI2Cs.c **** *
ARM GAS  C:\Users\Yiquing\AppData\Local\Temp\ccEfvc5F.s 			page 14


 316:.\Generated_Source\PSoC5/EZI2Cs.c **** * Global variables:
 317:.\Generated_Source\PSoC5/EZI2Cs.c **** *  EZI2Cs_addrS1 - If component is configured to has two slave
 318:.\Generated_Source\PSoC5/EZI2Cs.c **** *  addresses than the primary address is saved here, otherwise the address is written to
 319:.\Generated_Source\PSoC5/EZI2Cs.c **** *  the register.
 320:.\Generated_Source\PSoC5/EZI2Cs.c **** *
 321:.\Generated_Source\PSoC5/EZI2Cs.c **** * Reentrant:
 322:.\Generated_Source\PSoC5/EZI2Cs.c **** *  No.
 323:.\Generated_Source\PSoC5/EZI2Cs.c **** *
 324:.\Generated_Source\PSoC5/EZI2Cs.c **** *******************************************************************************/
 325:.\Generated_Source\PSoC5/EZI2Cs.c **** uint8 EZI2Cs_GetAddress1(void) 
 326:.\Generated_Source\PSoC5/EZI2Cs.c **** {
 427              		.loc 1 326 0
 428              		.cfi_startproc
 429              		@ args = 0, pretend = 0, frame = 0
 430              		@ frame_needed = 1, uses_anonymous_args = 0
 431              		@ link register save eliminated.
 432 0000 80B4     		push	{r7}
 433              		.cfi_def_cfa_offset 4
 434              		.cfi_offset 7, -4
 435 0002 00AF     		add	r7, sp, #0
 436              		.cfi_def_cfa_register 7
 327:.\Generated_Source\PSoC5/EZI2Cs.c **** #if (EZI2Cs_ONE_ADDRESS == EZI2Cs_ADDRESSES)
 328:.\Generated_Source\PSoC5/EZI2Cs.c ****     return (EZI2Cs_ADDR_REG);
 437              		.loc 1 328 0
 438 0004 034B     		ldr	r3, .L19
 439 0006 1B78     		ldrb	r3, [r3]
 440 0008 DBB2     		uxtb	r3, r3
 329:.\Generated_Source\PSoC5/EZI2Cs.c **** #else
 330:.\Generated_Source\PSoC5/EZI2Cs.c ****     return (EZI2Cs_addrS1);
 331:.\Generated_Source\PSoC5/EZI2Cs.c **** #endif /* (EZI2Cs_ONE_ADDRESS == EZI2Cs_ADDRESSES) */
 332:.\Generated_Source\PSoC5/EZI2Cs.c **** }
 441              		.loc 1 332 0
 442 000a 1846     		mov	r0, r3
 443 000c BD46     		mov	sp, r7
 444              		@ sp needed
 445 000e 5DF8047B 		ldr	r7, [sp], #4
 446 0012 7047     		bx	lr
 447              	.L20:
 448              		.align	2
 449              	.L19:
 450 0014 CA490040 		.word	1073760714
 451              		.cfi_endproc
 452              	.LFE5:
 453              		.size	EZI2Cs_GetAddress1, .-EZI2Cs_GetAddress1
 454              		.section	.text.EZI2Cs_GetActivity,"ax",%progbits
 455              		.align	2
 456              		.global	EZI2Cs_GetActivity
 457              		.thumb
 458              		.thumb_func
 459              		.type	EZI2Cs_GetActivity, %function
 460              	EZI2Cs_GetActivity:
 461              	.LFB6:
 333:.\Generated_Source\PSoC5/EZI2Cs.c **** 
 334:.\Generated_Source\PSoC5/EZI2Cs.c **** 
 335:.\Generated_Source\PSoC5/EZI2Cs.c **** /*******************************************************************************
 336:.\Generated_Source\PSoC5/EZI2Cs.c **** * Function Name: EZI2Cs_GetActivity
 337:.\Generated_Source\PSoC5/EZI2Cs.c **** ********************************************************************************
ARM GAS  C:\Users\Yiquing\AppData\Local\Temp\ccEfvc5F.s 			page 15


 338:.\Generated_Source\PSoC5/EZI2Cs.c **** *
 339:.\Generated_Source\PSoC5/EZI2Cs.c **** * Summary:
 340:.\Generated_Source\PSoC5/EZI2Cs.c **** *  Returns a non-zero value if an I2C read or write cycle has occurred since
 341:.\Generated_Source\PSoC5/EZI2Cs.c **** *  the last time this function was called. The activity flag resets to zero at
 342:.\Generated_Source\PSoC5/EZI2Cs.c **** *  the end of this function call.
 343:.\Generated_Source\PSoC5/EZI2Cs.c **** *  The Read and Write busy flags are cleared when read, but the “BUSY” flag is
 344:.\Generated_Source\PSoC5/EZI2Cs.c **** *  only cleared when slave is free (i.e master finishes communication with
 345:.\Generated_Source\PSoC5/EZI2Cs.c **** *  slave generating Stop or repeated Start condition).
 346:.\Generated_Source\PSoC5/EZI2Cs.c **** *
 347:.\Generated_Source\PSoC5/EZI2Cs.c **** * Parameters:
 348:.\Generated_Source\PSoC5/EZI2Cs.c **** *  None
 349:.\Generated_Source\PSoC5/EZI2Cs.c **** *
 350:.\Generated_Source\PSoC5/EZI2Cs.c **** * Return:
 351:.\Generated_Source\PSoC5/EZI2Cs.c **** *  Status of I2C activity.
 352:.\Generated_Source\PSoC5/EZI2Cs.c **** *
 353:.\Generated_Source\PSoC5/EZI2Cs.c **** *   EZI2Cs_STATUS_READ1   Set if a Read sequence is detected for the first
 354:.\Generated_Source\PSoC5/EZI2Cs.c **** *                                   address. Cleared when the status is read.
 355:.\Generated_Source\PSoC5/EZI2Cs.c **** *
 356:.\Generated_Source\PSoC5/EZI2Cs.c **** *   EZI2Cs_STATUS_WRITE1  Set if a Write sequence is detected for the first
 357:.\Generated_Source\PSoC5/EZI2Cs.c **** *                                   address. Cleared when the status is  read.
 358:.\Generated_Source\PSoC5/EZI2Cs.c **** *
 359:.\Generated_Source\PSoC5/EZI2Cs.c **** *   EZI2Cs_STATUS_READ2   Set if a Read sequence is detected for the second
 360:.\Generated_Source\PSoC5/EZI2Cs.c **** *                                   address (if enabled). Cleared when the status
 361:.\Generated_Source\PSoC5/EZI2Cs.c **** *                                   read.
 362:.\Generated_Source\PSoC5/EZI2Cs.c **** *
 363:.\Generated_Source\PSoC5/EZI2Cs.c **** *   EZI2Cs_STATUS_WRITE2  Set if a Write sequence is detected for the second
 364:.\Generated_Source\PSoC5/EZI2Cs.c **** *                                   address (if enabled). Cleared when the status is
 365:.\Generated_Source\PSoC5/EZI2Cs.c **** *                                   read.
 366:.\Generated_Source\PSoC5/EZI2Cs.c **** *
 367:.\Generated_Source\PSoC5/EZI2Cs.c **** *   EZI2Cs_STATUS_BUSY    Set when the master starts communication with
 368:.\Generated_Source\PSoC5/EZI2Cs.c **** *                                   the slave (the slave is addressed with Start or
 369:.\Generated_Source\PSoC5/EZI2Cs.c **** *                                   repeated Start) and cleared when the master
 370:.\Generated_Source\PSoC5/EZI2Cs.c **** *                                   finishes communication (a Stop or repeated
 371:.\Generated_Source\PSoC5/EZI2Cs.c **** *                                   Start condition is generated).
 372:.\Generated_Source\PSoC5/EZI2Cs.c **** *
 373:.\Generated_Source\PSoC5/EZI2Cs.c **** *   EZI2Cs_STATUS_ERR     Set when the I2C hardware is detected, cleared
 374:.\Generated_Source\PSoC5/EZI2Cs.c **** *                                   when the status is read.
 375:.\Generated_Source\PSoC5/EZI2Cs.c **** *
 376:.\Generated_Source\PSoC5/EZI2Cs.c **** * Global variables:
 377:.\Generated_Source\PSoC5/EZI2Cs.c **** *  EZI2Cs_curStatus - The global variable which stores the current
 378:.\Generated_Source\PSoC5/EZI2Cs.c **** *  component status.
 379:.\Generated_Source\PSoC5/EZI2Cs.c **** *
 380:.\Generated_Source\PSoC5/EZI2Cs.c **** * Reentrant:
 381:.\Generated_Source\PSoC5/EZI2Cs.c **** *  No.
 382:.\Generated_Source\PSoC5/EZI2Cs.c **** *
 383:.\Generated_Source\PSoC5/EZI2Cs.c **** *******************************************************************************/
 384:.\Generated_Source\PSoC5/EZI2Cs.c **** uint8 EZI2Cs_GetActivity(void) 
 385:.\Generated_Source\PSoC5/EZI2Cs.c **** {
 462              		.loc 1 385 0
 463              		.cfi_startproc
 464              		@ args = 0, pretend = 0, frame = 8
 465              		@ frame_needed = 1, uses_anonymous_args = 0
 466              		@ link register save eliminated.
 467 0000 80B4     		push	{r7}
 468              		.cfi_def_cfa_offset 4
 469              		.cfi_offset 7, -4
 470 0002 83B0     		sub	sp, sp, #12
ARM GAS  C:\Users\Yiquing\AppData\Local\Temp\ccEfvc5F.s 			page 16


 471              		.cfi_def_cfa_offset 16
 472 0004 00AF     		add	r7, sp, #0
 473              		.cfi_def_cfa_register 7
 386:.\Generated_Source\PSoC5/EZI2Cs.c ****     uint8 tmpStatus;
 387:.\Generated_Source\PSoC5/EZI2Cs.c **** 
 388:.\Generated_Source\PSoC5/EZI2Cs.c ****     EZI2Cs_DisableInt(); /* Lock from component interrupt */
 474              		.loc 1 388 0
 475 0006 0D4B     		ldr	r3, .L23
 476 0008 4FF40042 		mov	r2, #32768
 477 000c 1A60     		str	r2, [r3]
 389:.\Generated_Source\PSoC5/EZI2Cs.c **** 
 390:.\Generated_Source\PSoC5/EZI2Cs.c ****     tmpStatus = EZI2Cs_curStatus;
 478              		.loc 1 390 0
 479 000e 0C4B     		ldr	r3, .L23+4
 480 0010 1B78     		ldrb	r3, [r3]
 481 0012 FB71     		strb	r3, [r7, #7]
 391:.\Generated_Source\PSoC5/EZI2Cs.c ****     /* Clear status bits. Do not touch busy status */
 392:.\Generated_Source\PSoC5/EZI2Cs.c ****     EZI2Cs_curStatus &= EZI2Cs_STATUS_BUSY;
 482              		.loc 1 392 0
 483 0014 0A4B     		ldr	r3, .L23+4
 484 0016 1B78     		ldrb	r3, [r3]
 485 0018 DBB2     		uxtb	r3, r3
 486 001a 03F01003 		and	r3, r3, #16
 487 001e DAB2     		uxtb	r2, r3
 488 0020 074B     		ldr	r3, .L23+4
 489 0022 1A70     		strb	r2, [r3]
 393:.\Generated_Source\PSoC5/EZI2Cs.c **** 
 394:.\Generated_Source\PSoC5/EZI2Cs.c ****     EZI2Cs_EnableInt(); /* Release lock */
 490              		.loc 1 394 0
 491 0024 074B     		ldr	r3, .L23+8
 492 0026 4FF40042 		mov	r2, #32768
 493 002a 1A60     		str	r2, [r3]
 395:.\Generated_Source\PSoC5/EZI2Cs.c **** 
 396:.\Generated_Source\PSoC5/EZI2Cs.c ****     return (tmpStatus);
 494              		.loc 1 396 0
 495 002c FB79     		ldrb	r3, [r7, #7]	@ zero_extendqisi2
 397:.\Generated_Source\PSoC5/EZI2Cs.c **** }
 496              		.loc 1 397 0
 497 002e 1846     		mov	r0, r3
 498 0030 0C37     		adds	r7, r7, #12
 499 0032 BD46     		mov	sp, r7
 500              		@ sp needed
 501 0034 5DF8047B 		ldr	r7, [sp], #4
 502 0038 7047     		bx	lr
 503              	.L24:
 504 003a 00BF     		.align	2
 505              	.L23:
 506 003c 80E100E0 		.word	-536813184
 507 0040 00000000 		.word	EZI2Cs_curStatus
 508 0044 00E100E0 		.word	-536813312
 509              		.cfi_endproc
 510              	.LFE6:
 511              		.size	EZI2Cs_GetActivity, .-EZI2Cs_GetActivity
 512              		.section	.text.EZI2Cs_SetBuffer1,"ax",%progbits
 513              		.align	2
 514              		.global	EZI2Cs_SetBuffer1
 515              		.thumb
ARM GAS  C:\Users\Yiquing\AppData\Local\Temp\ccEfvc5F.s 			page 17


 516              		.thumb_func
 517              		.type	EZI2Cs_SetBuffer1, %function
 518              	EZI2Cs_SetBuffer1:
 519              	.LFB7:
 398:.\Generated_Source\PSoC5/EZI2Cs.c **** 
 399:.\Generated_Source\PSoC5/EZI2Cs.c **** 
 400:.\Generated_Source\PSoC5/EZI2Cs.c **** /*******************************************************************************
 401:.\Generated_Source\PSoC5/EZI2Cs.c **** * Function Name: EZI2Cs_SetBuffer1
 402:.\Generated_Source\PSoC5/EZI2Cs.c **** ********************************************************************************
 403:.\Generated_Source\PSoC5/EZI2Cs.c **** *
 404:.\Generated_Source\PSoC5/EZI2Cs.c **** * Summary:
 405:.\Generated_Source\PSoC5/EZI2Cs.c **** *  Sets up the data buffer to be exposed to the master on a primary slave
 406:.\Generated_Source\PSoC5/EZI2Cs.c **** *  address request.
 407:.\Generated_Source\PSoC5/EZI2Cs.c **** *
 408:.\Generated_Source\PSoC5/EZI2Cs.c **** * Parameters:
 409:.\Generated_Source\PSoC5/EZI2Cs.c **** *  bufSize:    Size of the buffer in bytes.
 410:.\Generated_Source\PSoC5/EZI2Cs.c **** *  rwBoundary: Number of data bytes starting from the beginning of the buffer
 411:.\Generated_Source\PSoC5/EZI2Cs.c **** *              with read and write access. Data bytes located at offset
 412:.\Generated_Source\PSoC5/EZI2Cs.c **** *              rwBoundary or greater are read only.
 413:.\Generated_Source\PSoC5/EZI2Cs.c **** *              This value must be less than or equal to the buffer size.
 414:.\Generated_Source\PSoC5/EZI2Cs.c **** *  dataPtr:    Pointer to the data buffer.
 415:.\Generated_Source\PSoC5/EZI2Cs.c **** *
 416:.\Generated_Source\PSoC5/EZI2Cs.c **** * Return:
 417:.\Generated_Source\PSoC5/EZI2Cs.c **** *  None.
 418:.\Generated_Source\PSoC5/EZI2Cs.c **** *
 419:.\Generated_Source\PSoC5/EZI2Cs.c **** * Global variables:
 420:.\Generated_Source\PSoC5/EZI2Cs.c **** *  EZI2Cs_dataPtrS1 - Stores the pointer to the data exposed to an I2C
 421:.\Generated_Source\PSoC5/EZI2Cs.c **** *  master for the first slave address, is modified with the the new pointer to    the    ?? no sens
 422:.\Generated_Source\PSoC5/EZI2Cs.c **** *  data passed by the function parameter.
 423:.\Generated_Source\PSoC5/EZI2Cs.c **** *
 424:.\Generated_Source\PSoC5/EZI2Cs.c **** *  EZI2Cs_rwOffsetS1 - Stores an offset for read and write operations, is
 425:.\Generated_Source\PSoC5/EZI2Cs.c **** *  modified at each write sequence of the first slave address is?? reset.   ?
 426:.\Generated_Source\PSoC5/EZI2Cs.c **** *
 427:.\Generated_Source\PSoC5/EZI2Cs.c **** *  EZI2Cs_rwIndexS1 - Stores the pointer to the next value to be read or
 428:.\Generated_Source\PSoC5/EZI2Cs.c **** *  written for the first slave address is?? set to 0.  ??
 429:.\Generated_Source\PSoC5/EZI2Cs.c **** *
 430:.\Generated_Source\PSoC5/EZI2Cs.c **** * Reentrant:
 431:.\Generated_Source\PSoC5/EZI2Cs.c **** *  No.
 432:.\Generated_Source\PSoC5/EZI2Cs.c **** *
 433:.\Generated_Source\PSoC5/EZI2Cs.c **** *******************************************************************************/
 434:.\Generated_Source\PSoC5/EZI2Cs.c **** void EZI2Cs_SetBuffer1(uint16 bufSize, uint16 rwBoundary, volatile uint8 * dataPtr) 
 435:.\Generated_Source\PSoC5/EZI2Cs.c **** {
 520              		.loc 1 435 0
 521              		.cfi_startproc
 522              		@ args = 0, pretend = 0, frame = 8
 523              		@ frame_needed = 1, uses_anonymous_args = 0
 524              		@ link register save eliminated.
 525 0000 80B4     		push	{r7}
 526              		.cfi_def_cfa_offset 4
 527              		.cfi_offset 7, -4
 528 0002 83B0     		sub	sp, sp, #12
 529              		.cfi_def_cfa_offset 16
 530 0004 00AF     		add	r7, sp, #0
 531              		.cfi_def_cfa_register 7
 532 0006 0B46     		mov	r3, r1
 533 0008 3A60     		str	r2, [r7]
 534 000a 0246     		mov	r2, r0	@ movhi
ARM GAS  C:\Users\Yiquing\AppData\Local\Temp\ccEfvc5F.s 			page 18


 535 000c FA80     		strh	r2, [r7, #6]	@ movhi
 536 000e BB80     		strh	r3, [r7, #4]	@ movhi
 436:.\Generated_Source\PSoC5/EZI2Cs.c ****     EZI2Cs_DisableInt(); /* Lock from component interrupt */
 537              		.loc 1 436 0
 538 0010 0F4B     		ldr	r3, .L27
 539 0012 4FF40042 		mov	r2, #32768
 540 0016 1A60     		str	r2, [r3]
 437:.\Generated_Source\PSoC5/EZI2Cs.c **** 
 438:.\Generated_Source\PSoC5/EZI2Cs.c ****     if (NULL != dataPtr)
 541              		.loc 1 438 0
 542 0018 3B68     		ldr	r3, [r7]
 543 001a 002B     		cmp	r3, #0
 544 001c 08D0     		beq	.L26
 439:.\Generated_Source\PSoC5/EZI2Cs.c ****     {
 440:.\Generated_Source\PSoC5/EZI2Cs.c ****         /* Configure buffer 1 */
 441:.\Generated_Source\PSoC5/EZI2Cs.c ****         EZI2Cs_dataPtrS1   = dataPtr;
 545              		.loc 1 441 0
 546 001e 0D4B     		ldr	r3, .L27+4
 547 0020 3A68     		ldr	r2, [r7]
 548 0022 1A60     		str	r2, [r3]
 442:.\Generated_Source\PSoC5/EZI2Cs.c ****         EZI2Cs_bufSizeS1   = bufSize;
 549              		.loc 1 442 0
 550 0024 0C4B     		ldr	r3, .L27+8
 551 0026 FA88     		ldrh	r2, [r7, #6]	@ movhi
 552 0028 1A80     		strh	r2, [r3]	@ movhi
 443:.\Generated_Source\PSoC5/EZI2Cs.c ****         EZI2Cs_wrProtectS1 = rwBoundary;
 553              		.loc 1 443 0
 554 002a 0C4B     		ldr	r3, .L27+12
 555 002c BA88     		ldrh	r2, [r7, #4]	@ movhi
 556 002e 1A80     		strh	r2, [r3]	@ movhi
 557              	.L26:
 444:.\Generated_Source\PSoC5/EZI2Cs.c ****     }
 445:.\Generated_Source\PSoC5/EZI2Cs.c **** 
 446:.\Generated_Source\PSoC5/EZI2Cs.c ****     /* Clear buffer offset and index */
 447:.\Generated_Source\PSoC5/EZI2Cs.c ****     EZI2Cs_rwOffsetS1 = 0u;
 558              		.loc 1 447 0
 559 0030 0B4B     		ldr	r3, .L27+16
 560 0032 0022     		movs	r2, #0
 561 0034 1A70     		strb	r2, [r3]
 448:.\Generated_Source\PSoC5/EZI2Cs.c ****     EZI2Cs_rwIndexS1  = 0u;
 562              		.loc 1 448 0
 563 0036 0B4B     		ldr	r3, .L27+20
 564 0038 0022     		movs	r2, #0
 565 003a 1A70     		strb	r2, [r3]
 449:.\Generated_Source\PSoC5/EZI2Cs.c **** 
 450:.\Generated_Source\PSoC5/EZI2Cs.c ****     EZI2Cs_EnableInt(); /* Release lock */
 566              		.loc 1 450 0
 567 003c 0A4B     		ldr	r3, .L27+24
 568 003e 4FF40042 		mov	r2, #32768
 569 0042 1A60     		str	r2, [r3]
 451:.\Generated_Source\PSoC5/EZI2Cs.c **** }
 570              		.loc 1 451 0
 571 0044 0C37     		adds	r7, r7, #12
 572 0046 BD46     		mov	sp, r7
 573              		@ sp needed
 574 0048 5DF8047B 		ldr	r7, [sp], #4
 575 004c 7047     		bx	lr
ARM GAS  C:\Users\Yiquing\AppData\Local\Temp\ccEfvc5F.s 			page 19


 576              	.L28:
 577 004e 00BF     		.align	2
 578              	.L27:
 579 0050 80E100E0 		.word	-536813184
 580 0054 00000000 		.word	EZI2Cs_dataPtrS1
 581 0058 00000000 		.word	EZI2Cs_bufSizeS1
 582 005c 00000000 		.word	EZI2Cs_wrProtectS1
 583 0060 00000000 		.word	EZI2Cs_rwOffsetS1
 584 0064 00000000 		.word	EZI2Cs_rwIndexS1
 585 0068 00E100E0 		.word	-536813312
 586              		.cfi_endproc
 587              	.LFE7:
 588              		.size	EZI2Cs_SetBuffer1, .-EZI2Cs_SetBuffer1
 589              		.text
 590              	.Letext0:
 591              		.file 2 ".\\Generated_Source\\PSoC5\\cytypes.h"
 592              		.file 3 ".\\Generated_Source\\PSoC5\\EZI2Cs.h"
 593              		.file 4 ".\\Generated_Source\\PSoC5\\EZI2Cs_PVT.h"