ARM GAS  C:\Users\Yiquing\AppData\Local\Temp\ccwvOvZK.s 			page 1


   1              		.syntax unified
   2              		.cpu cortex-m3
   3              		.fpu softvfp
   4              		.eabi_attribute 20, 1
   5              		.eabi_attribute 21, 1
   6              		.eabi_attribute 23, 3
   7              		.eabi_attribute 24, 1
   8              		.eabi_attribute 25, 1
   9              		.eabi_attribute 26, 1
  10              		.eabi_attribute 30, 6
  11              		.eabi_attribute 34, 1
  12              		.eabi_attribute 18, 4
  13              		.thumb
  14              		.file	"isr_osdp.c"
  15              		.text
  16              	.Ltext0:
  17              		.cfi_sections	.debug_frame
  18              		.section	.text.isr_osdp_Start,"ax",%progbits
  19              		.align	2
  20              		.global	isr_osdp_Start
  21              		.thumb
  22              		.thumb_func
  23              		.type	isr_osdp_Start, %function
  24              	isr_osdp_Start:
  25              	.LFB0:
  26              		.file 1 ".\\Generated_Source\\PSoC5\\isr_osdp.c"
   1:.\Generated_Source\PSoC5/isr_osdp.c **** /*******************************************************************************
   2:.\Generated_Source\PSoC5/isr_osdp.c **** * File Name: isr_osdp.c  
   3:.\Generated_Source\PSoC5/isr_osdp.c **** * Version 1.70
   4:.\Generated_Source\PSoC5/isr_osdp.c **** *
   5:.\Generated_Source\PSoC5/isr_osdp.c **** *  Description:
   6:.\Generated_Source\PSoC5/isr_osdp.c **** *   API for controlling the state of an interrupt.
   7:.\Generated_Source\PSoC5/isr_osdp.c **** *
   8:.\Generated_Source\PSoC5/isr_osdp.c **** *
   9:.\Generated_Source\PSoC5/isr_osdp.c **** *  Note:
  10:.\Generated_Source\PSoC5/isr_osdp.c **** *
  11:.\Generated_Source\PSoC5/isr_osdp.c **** ********************************************************************************
  12:.\Generated_Source\PSoC5/isr_osdp.c **** * Copyright 2008-2012, Cypress Semiconductor Corporation.  All rights reserved.
  13:.\Generated_Source\PSoC5/isr_osdp.c **** * You may use this file only in accordance with the license, terms, conditions, 
  14:.\Generated_Source\PSoC5/isr_osdp.c **** * disclaimers, and limitations in the end user license agreement accompanying 
  15:.\Generated_Source\PSoC5/isr_osdp.c **** * the software package with which this file was provided.
  16:.\Generated_Source\PSoC5/isr_osdp.c **** *******************************************************************************/
  17:.\Generated_Source\PSoC5/isr_osdp.c **** 
  18:.\Generated_Source\PSoC5/isr_osdp.c **** 
  19:.\Generated_Source\PSoC5/isr_osdp.c **** #include <cydevice_trm.h>
  20:.\Generated_Source\PSoC5/isr_osdp.c **** #include <CyLib.h>
  21:.\Generated_Source\PSoC5/isr_osdp.c **** #include <isr_osdp.h>
  22:.\Generated_Source\PSoC5/isr_osdp.c **** 
  23:.\Generated_Source\PSoC5/isr_osdp.c **** #if !defined(isr_osdp__REMOVED) /* Check for removal by optimization */
  24:.\Generated_Source\PSoC5/isr_osdp.c **** 
  25:.\Generated_Source\PSoC5/isr_osdp.c **** /*******************************************************************************
  26:.\Generated_Source\PSoC5/isr_osdp.c **** *  Place your includes, defines and code here 
  27:.\Generated_Source\PSoC5/isr_osdp.c **** ********************************************************************************/
  28:.\Generated_Source\PSoC5/isr_osdp.c **** /* `#START isr_osdp_intc` */
  29:.\Generated_Source\PSoC5/isr_osdp.c **** #include <UART_OSDP.h>
  30:.\Generated_Source\PSoC5/isr_osdp.c **** 
  31:.\Generated_Source\PSoC5/isr_osdp.c **** /* `#END` */
ARM GAS  C:\Users\Yiquing\AppData\Local\Temp\ccwvOvZK.s 			page 2


  32:.\Generated_Source\PSoC5/isr_osdp.c **** 
  33:.\Generated_Source\PSoC5/isr_osdp.c **** #ifndef CYINT_IRQ_BASE
  34:.\Generated_Source\PSoC5/isr_osdp.c **** #define CYINT_IRQ_BASE      16
  35:.\Generated_Source\PSoC5/isr_osdp.c **** #endif /* CYINT_IRQ_BASE */
  36:.\Generated_Source\PSoC5/isr_osdp.c **** #ifndef CYINT_VECT_TABLE
  37:.\Generated_Source\PSoC5/isr_osdp.c **** #define CYINT_VECT_TABLE    ((cyisraddress **) CYREG_NVIC_VECT_OFFSET)
  38:.\Generated_Source\PSoC5/isr_osdp.c **** #endif /* CYINT_VECT_TABLE */
  39:.\Generated_Source\PSoC5/isr_osdp.c **** 
  40:.\Generated_Source\PSoC5/isr_osdp.c **** /* Declared in startup, used to set unused interrupts to. */
  41:.\Generated_Source\PSoC5/isr_osdp.c **** CY_ISR_PROTO(IntDefaultHandler);
  42:.\Generated_Source\PSoC5/isr_osdp.c **** 
  43:.\Generated_Source\PSoC5/isr_osdp.c **** 
  44:.\Generated_Source\PSoC5/isr_osdp.c **** /*******************************************************************************
  45:.\Generated_Source\PSoC5/isr_osdp.c **** * Function Name: isr_osdp_Start
  46:.\Generated_Source\PSoC5/isr_osdp.c **** ********************************************************************************
  47:.\Generated_Source\PSoC5/isr_osdp.c **** *
  48:.\Generated_Source\PSoC5/isr_osdp.c **** * Summary:
  49:.\Generated_Source\PSoC5/isr_osdp.c **** *  Set up the interrupt and enable it.
  50:.\Generated_Source\PSoC5/isr_osdp.c **** *
  51:.\Generated_Source\PSoC5/isr_osdp.c **** * Parameters:  
  52:.\Generated_Source\PSoC5/isr_osdp.c **** *   None
  53:.\Generated_Source\PSoC5/isr_osdp.c **** *
  54:.\Generated_Source\PSoC5/isr_osdp.c **** * Return:
  55:.\Generated_Source\PSoC5/isr_osdp.c **** *   None
  56:.\Generated_Source\PSoC5/isr_osdp.c **** *
  57:.\Generated_Source\PSoC5/isr_osdp.c **** *******************************************************************************/
  58:.\Generated_Source\PSoC5/isr_osdp.c **** void isr_osdp_Start(void)
  59:.\Generated_Source\PSoC5/isr_osdp.c **** {
  27              		.loc 1 59 0
  28              		.cfi_startproc
  29              		@ args = 0, pretend = 0, frame = 0
  30              		@ frame_needed = 1, uses_anonymous_args = 0
  31 0000 80B5     		push	{r7, lr}
  32              		.cfi_def_cfa_offset 8
  33              		.cfi_offset 7, -8
  34              		.cfi_offset 14, -4
  35 0002 00AF     		add	r7, sp, #0
  36              		.cfi_def_cfa_register 7
  60:.\Generated_Source\PSoC5/isr_osdp.c ****     /* For all we know the interrupt is active. */
  61:.\Generated_Source\PSoC5/isr_osdp.c ****     isr_osdp_Disable();
  37              		.loc 1 61 0
  38 0004 FFF7FEFF 		bl	isr_osdp_Disable
  62:.\Generated_Source\PSoC5/isr_osdp.c **** 
  63:.\Generated_Source\PSoC5/isr_osdp.c ****     /* Set the ISR to point to the isr_osdp Interrupt. */
  64:.\Generated_Source\PSoC5/isr_osdp.c ****     isr_osdp_SetVector(&isr_osdp_Interrupt);
  39              		.loc 1 64 0
  40 0008 0448     		ldr	r0, .L2
  41 000a FFF7FEFF 		bl	isr_osdp_SetVector
  65:.\Generated_Source\PSoC5/isr_osdp.c **** 
  66:.\Generated_Source\PSoC5/isr_osdp.c ****     /* Set the priority. */
  67:.\Generated_Source\PSoC5/isr_osdp.c ****     isr_osdp_SetPriority((uint8)isr_osdp_INTC_PRIOR_NUMBER);
  42              		.loc 1 67 0
  43 000e 0720     		movs	r0, #7
  44 0010 FFF7FEFF 		bl	isr_osdp_SetPriority
  68:.\Generated_Source\PSoC5/isr_osdp.c **** 
  69:.\Generated_Source\PSoC5/isr_osdp.c ****     /* Enable it. */
  70:.\Generated_Source\PSoC5/isr_osdp.c ****     isr_osdp_Enable();
ARM GAS  C:\Users\Yiquing\AppData\Local\Temp\ccwvOvZK.s 			page 3


  45              		.loc 1 70 0
  46 0014 FFF7FEFF 		bl	isr_osdp_Enable
  71:.\Generated_Source\PSoC5/isr_osdp.c **** }
  47              		.loc 1 71 0
  48 0018 80BD     		pop	{r7, pc}
  49              	.L3:
  50 001a 00BF     		.align	2
  51              	.L2:
  52 001c 00000000 		.word	isr_osdp_Interrupt
  53              		.cfi_endproc
  54              	.LFE0:
  55              		.size	isr_osdp_Start, .-isr_osdp_Start
  56              		.section	.text.isr_osdp_StartEx,"ax",%progbits
  57              		.align	2
  58              		.global	isr_osdp_StartEx
  59              		.thumb
  60              		.thumb_func
  61              		.type	isr_osdp_StartEx, %function
  62              	isr_osdp_StartEx:
  63              	.LFB1:
  72:.\Generated_Source\PSoC5/isr_osdp.c **** 
  73:.\Generated_Source\PSoC5/isr_osdp.c **** 
  74:.\Generated_Source\PSoC5/isr_osdp.c **** /*******************************************************************************
  75:.\Generated_Source\PSoC5/isr_osdp.c **** * Function Name: isr_osdp_StartEx
  76:.\Generated_Source\PSoC5/isr_osdp.c **** ********************************************************************************
  77:.\Generated_Source\PSoC5/isr_osdp.c **** *
  78:.\Generated_Source\PSoC5/isr_osdp.c **** * Summary:
  79:.\Generated_Source\PSoC5/isr_osdp.c **** *  Set up the interrupt and enable it.
  80:.\Generated_Source\PSoC5/isr_osdp.c **** *
  81:.\Generated_Source\PSoC5/isr_osdp.c **** * Parameters:  
  82:.\Generated_Source\PSoC5/isr_osdp.c **** *   address: Address of the ISR to set in the interrupt vector table.
  83:.\Generated_Source\PSoC5/isr_osdp.c **** *
  84:.\Generated_Source\PSoC5/isr_osdp.c **** * Return:
  85:.\Generated_Source\PSoC5/isr_osdp.c **** *   None
  86:.\Generated_Source\PSoC5/isr_osdp.c **** *
  87:.\Generated_Source\PSoC5/isr_osdp.c **** *******************************************************************************/
  88:.\Generated_Source\PSoC5/isr_osdp.c **** void isr_osdp_StartEx(cyisraddress address)
  89:.\Generated_Source\PSoC5/isr_osdp.c **** {
  64              		.loc 1 89 0
  65              		.cfi_startproc
  66              		@ args = 0, pretend = 0, frame = 8
  67              		@ frame_needed = 1, uses_anonymous_args = 0
  68 0000 80B5     		push	{r7, lr}
  69              		.cfi_def_cfa_offset 8
  70              		.cfi_offset 7, -8
  71              		.cfi_offset 14, -4
  72 0002 82B0     		sub	sp, sp, #8
  73              		.cfi_def_cfa_offset 16
  74 0004 00AF     		add	r7, sp, #0
  75              		.cfi_def_cfa_register 7
  76 0006 7860     		str	r0, [r7, #4]
  90:.\Generated_Source\PSoC5/isr_osdp.c ****     /* For all we know the interrupt is active. */
  91:.\Generated_Source\PSoC5/isr_osdp.c ****     isr_osdp_Disable();
  77              		.loc 1 91 0
  78 0008 FFF7FEFF 		bl	isr_osdp_Disable
  92:.\Generated_Source\PSoC5/isr_osdp.c **** 
  93:.\Generated_Source\PSoC5/isr_osdp.c ****     /* Set the ISR to point to the isr_osdp Interrupt. */
ARM GAS  C:\Users\Yiquing\AppData\Local\Temp\ccwvOvZK.s 			page 4


  94:.\Generated_Source\PSoC5/isr_osdp.c ****     isr_osdp_SetVector(address);
  79              		.loc 1 94 0
  80 000c 7868     		ldr	r0, [r7, #4]
  81 000e FFF7FEFF 		bl	isr_osdp_SetVector
  95:.\Generated_Source\PSoC5/isr_osdp.c **** 
  96:.\Generated_Source\PSoC5/isr_osdp.c ****     /* Set the priority. */
  97:.\Generated_Source\PSoC5/isr_osdp.c ****     isr_osdp_SetPriority((uint8)isr_osdp_INTC_PRIOR_NUMBER);
  82              		.loc 1 97 0
  83 0012 0720     		movs	r0, #7
  84 0014 FFF7FEFF 		bl	isr_osdp_SetPriority
  98:.\Generated_Source\PSoC5/isr_osdp.c **** 
  99:.\Generated_Source\PSoC5/isr_osdp.c ****     /* Enable it. */
 100:.\Generated_Source\PSoC5/isr_osdp.c ****     isr_osdp_Enable();
  85              		.loc 1 100 0
  86 0018 FFF7FEFF 		bl	isr_osdp_Enable
 101:.\Generated_Source\PSoC5/isr_osdp.c **** }
  87              		.loc 1 101 0
  88 001c 0837     		adds	r7, r7, #8
  89 001e BD46     		mov	sp, r7
  90              		@ sp needed
  91 0020 80BD     		pop	{r7, pc}
  92              		.cfi_endproc
  93              	.LFE1:
  94              		.size	isr_osdp_StartEx, .-isr_osdp_StartEx
  95 0022 00BF     		.section	.text.isr_osdp_Stop,"ax",%progbits
  96              		.align	2
  97              		.global	isr_osdp_Stop
  98              		.thumb
  99              		.thumb_func
 100              		.type	isr_osdp_Stop, %function
 101              	isr_osdp_Stop:
 102              	.LFB2:
 102:.\Generated_Source\PSoC5/isr_osdp.c **** 
 103:.\Generated_Source\PSoC5/isr_osdp.c **** 
 104:.\Generated_Source\PSoC5/isr_osdp.c **** /*******************************************************************************
 105:.\Generated_Source\PSoC5/isr_osdp.c **** * Function Name: isr_osdp_Stop
 106:.\Generated_Source\PSoC5/isr_osdp.c **** ********************************************************************************
 107:.\Generated_Source\PSoC5/isr_osdp.c **** *
 108:.\Generated_Source\PSoC5/isr_osdp.c **** * Summary:
 109:.\Generated_Source\PSoC5/isr_osdp.c **** *   Disables and removes the interrupt.
 110:.\Generated_Source\PSoC5/isr_osdp.c **** *
 111:.\Generated_Source\PSoC5/isr_osdp.c **** * Parameters:  
 112:.\Generated_Source\PSoC5/isr_osdp.c **** *
 113:.\Generated_Source\PSoC5/isr_osdp.c **** * Return:
 114:.\Generated_Source\PSoC5/isr_osdp.c **** *   None
 115:.\Generated_Source\PSoC5/isr_osdp.c **** *
 116:.\Generated_Source\PSoC5/isr_osdp.c **** *******************************************************************************/
 117:.\Generated_Source\PSoC5/isr_osdp.c **** void isr_osdp_Stop(void)
 118:.\Generated_Source\PSoC5/isr_osdp.c **** {
 103              		.loc 1 118 0
 104              		.cfi_startproc
 105              		@ args = 0, pretend = 0, frame = 0
 106              		@ frame_needed = 1, uses_anonymous_args = 0
 107 0000 80B5     		push	{r7, lr}
 108              		.cfi_def_cfa_offset 8
 109              		.cfi_offset 7, -8
 110              		.cfi_offset 14, -4
ARM GAS  C:\Users\Yiquing\AppData\Local\Temp\ccwvOvZK.s 			page 5


 111 0002 00AF     		add	r7, sp, #0
 112              		.cfi_def_cfa_register 7
 119:.\Generated_Source\PSoC5/isr_osdp.c ****     /* Disable this interrupt. */
 120:.\Generated_Source\PSoC5/isr_osdp.c ****     isr_osdp_Disable();
 113              		.loc 1 120 0
 114 0004 FFF7FEFF 		bl	isr_osdp_Disable
 121:.\Generated_Source\PSoC5/isr_osdp.c **** 
 122:.\Generated_Source\PSoC5/isr_osdp.c ****     /* Set the ISR to point to the passive one. */
 123:.\Generated_Source\PSoC5/isr_osdp.c ****     isr_osdp_SetVector(&IntDefaultHandler);
 115              		.loc 1 123 0
 116 0008 0148     		ldr	r0, .L6
 117 000a FFF7FEFF 		bl	isr_osdp_SetVector
 124:.\Generated_Source\PSoC5/isr_osdp.c **** }
 118              		.loc 1 124 0
 119 000e 80BD     		pop	{r7, pc}
 120              	.L7:
 121              		.align	2
 122              	.L6:
 123 0010 00000000 		.word	IntDefaultHandler
 124              		.cfi_endproc
 125              	.LFE2:
 126              		.size	isr_osdp_Stop, .-isr_osdp_Stop
 127              		.section	.text.isr_osdp_Interrupt,"ax",%progbits
 128              		.align	2
 129              		.global	isr_osdp_Interrupt
 130              		.thumb
 131              		.thumb_func
 132              		.type	isr_osdp_Interrupt, %function
 133              	isr_osdp_Interrupt:
 134              	.LFB3:
 125:.\Generated_Source\PSoC5/isr_osdp.c **** 
 126:.\Generated_Source\PSoC5/isr_osdp.c **** 
 127:.\Generated_Source\PSoC5/isr_osdp.c **** /*******************************************************************************
 128:.\Generated_Source\PSoC5/isr_osdp.c **** * Function Name: isr_osdp_Interrupt
 129:.\Generated_Source\PSoC5/isr_osdp.c **** ********************************************************************************
 130:.\Generated_Source\PSoC5/isr_osdp.c **** *
 131:.\Generated_Source\PSoC5/isr_osdp.c **** * Summary:
 132:.\Generated_Source\PSoC5/isr_osdp.c **** *   The default Interrupt Service Routine for isr_osdp.
 133:.\Generated_Source\PSoC5/isr_osdp.c **** *
 134:.\Generated_Source\PSoC5/isr_osdp.c **** *   Add custom code between the coments to keep the next version of this file
 135:.\Generated_Source\PSoC5/isr_osdp.c **** *   from over writting your code.
 136:.\Generated_Source\PSoC5/isr_osdp.c **** *
 137:.\Generated_Source\PSoC5/isr_osdp.c **** * Parameters:  
 138:.\Generated_Source\PSoC5/isr_osdp.c **** *
 139:.\Generated_Source\PSoC5/isr_osdp.c **** * Return:
 140:.\Generated_Source\PSoC5/isr_osdp.c **** *   None
 141:.\Generated_Source\PSoC5/isr_osdp.c **** *
 142:.\Generated_Source\PSoC5/isr_osdp.c **** *******************************************************************************/
 143:.\Generated_Source\PSoC5/isr_osdp.c **** CY_ISR(isr_osdp_Interrupt)
 144:.\Generated_Source\PSoC5/isr_osdp.c **** {
 135              		.loc 1 144 0
 136              		.cfi_startproc
 137              		@ args = 0, pretend = 0, frame = 8
 138              		@ frame_needed = 1, uses_anonymous_args = 0
 139 0000 80B5     		push	{r7, lr}
 140              		.cfi_def_cfa_offset 8
 141              		.cfi_offset 7, -8
ARM GAS  C:\Users\Yiquing\AppData\Local\Temp\ccwvOvZK.s 			page 6


 142              		.cfi_offset 14, -4
 143 0002 82B0     		sub	sp, sp, #8
 144              		.cfi_def_cfa_offset 16
 145 0004 00AF     		add	r7, sp, #0
 146              		.cfi_def_cfa_register 7
 145:.\Generated_Source\PSoC5/isr_osdp.c ****     /*  Place your Interrupt code here. */
 146:.\Generated_Source\PSoC5/isr_osdp.c ****     /* `#START isr_osdp_Interrupt` */
 147:.\Generated_Source\PSoC5/isr_osdp.c ****     
 148:.\Generated_Source\PSoC5/isr_osdp.c ****     unsigned char ch;
 149:.\Generated_Source\PSoC5/isr_osdp.c ****         ch = UART_OSDP_GetChar();
 147              		.loc 1 149 0
 148 0006 FFF7FEFF 		bl	UART_OSDP_GetChar
 149 000a 0346     		mov	r3, r0
 150 000c FB71     		strb	r3, [r7, #7]
 150:.\Generated_Source\PSoC5/isr_osdp.c ****         if ( ch == 0x53){
 151              		.loc 1 150 0
 152 000e FB79     		ldrb	r3, [r7, #7]	@ zero_extendqisi2
 153 0010 532B     		cmp	r3, #83
 154 0012 00D1     		bne	.L8
 151:.\Generated_Source\PSoC5/isr_osdp.c ****             return;
 155              		.loc 1 151 0
 156 0014 00BF     		nop
 157              	.L8:
 152:.\Generated_Source\PSoC5/isr_osdp.c ****         }
 153:.\Generated_Source\PSoC5/isr_osdp.c **** 
 154:.\Generated_Source\PSoC5/isr_osdp.c ****     /* `#END` */
 155:.\Generated_Source\PSoC5/isr_osdp.c **** }
 158              		.loc 1 155 0
 159 0016 0837     		adds	r7, r7, #8
 160 0018 BD46     		mov	sp, r7
 161              		@ sp needed
 162 001a 80BD     		pop	{r7, pc}
 163              		.cfi_endproc
 164              	.LFE3:
 165              		.size	isr_osdp_Interrupt, .-isr_osdp_Interrupt
 166              		.section	.text.isr_osdp_SetVector,"ax",%progbits
 167              		.align	2
 168              		.global	isr_osdp_SetVector
 169              		.thumb
 170              		.thumb_func
 171              		.type	isr_osdp_SetVector, %function
 172              	isr_osdp_SetVector:
 173              	.LFB4:
 156:.\Generated_Source\PSoC5/isr_osdp.c **** 
 157:.\Generated_Source\PSoC5/isr_osdp.c **** 
 158:.\Generated_Source\PSoC5/isr_osdp.c **** /*******************************************************************************
 159:.\Generated_Source\PSoC5/isr_osdp.c **** * Function Name: isr_osdp_SetVector
 160:.\Generated_Source\PSoC5/isr_osdp.c **** ********************************************************************************
 161:.\Generated_Source\PSoC5/isr_osdp.c **** *
 162:.\Generated_Source\PSoC5/isr_osdp.c **** * Summary:
 163:.\Generated_Source\PSoC5/isr_osdp.c **** *   Change the ISR vector for the Interrupt. Note calling isr_osdp_Start
 164:.\Generated_Source\PSoC5/isr_osdp.c **** *   will override any effect this method would have had. To set the vector 
 165:.\Generated_Source\PSoC5/isr_osdp.c **** *   before the component has been started use isr_osdp_StartEx instead.
 166:.\Generated_Source\PSoC5/isr_osdp.c **** *
 167:.\Generated_Source\PSoC5/isr_osdp.c **** * Parameters:
 168:.\Generated_Source\PSoC5/isr_osdp.c **** *   address: Address of the ISR to set in the interrupt vector table.
 169:.\Generated_Source\PSoC5/isr_osdp.c **** *
ARM GAS  C:\Users\Yiquing\AppData\Local\Temp\ccwvOvZK.s 			page 7


 170:.\Generated_Source\PSoC5/isr_osdp.c **** * Return:
 171:.\Generated_Source\PSoC5/isr_osdp.c **** *   None
 172:.\Generated_Source\PSoC5/isr_osdp.c **** *
 173:.\Generated_Source\PSoC5/isr_osdp.c **** *******************************************************************************/
 174:.\Generated_Source\PSoC5/isr_osdp.c **** void isr_osdp_SetVector(cyisraddress address)
 175:.\Generated_Source\PSoC5/isr_osdp.c **** {
 174              		.loc 1 175 0
 175              		.cfi_startproc
 176              		@ args = 0, pretend = 0, frame = 16
 177              		@ frame_needed = 1, uses_anonymous_args = 0
 178              		@ link register save eliminated.
 179 0000 80B4     		push	{r7}
 180              		.cfi_def_cfa_offset 4
 181              		.cfi_offset 7, -4
 182 0002 85B0     		sub	sp, sp, #20
 183              		.cfi_def_cfa_offset 24
 184 0004 00AF     		add	r7, sp, #0
 185              		.cfi_def_cfa_register 7
 186 0006 7860     		str	r0, [r7, #4]
 176:.\Generated_Source\PSoC5/isr_osdp.c ****     cyisraddress * ramVectorTable;
 177:.\Generated_Source\PSoC5/isr_osdp.c **** 
 178:.\Generated_Source\PSoC5/isr_osdp.c ****     ramVectorTable = (cyisraddress *) *CYINT_VECT_TABLE;
 187              		.loc 1 178 0
 188 0008 054B     		ldr	r3, .L11
 189 000a 1B68     		ldr	r3, [r3]
 190 000c FB60     		str	r3, [r7, #12]
 179:.\Generated_Source\PSoC5/isr_osdp.c **** 
 180:.\Generated_Source\PSoC5/isr_osdp.c ****     ramVectorTable[CYINT_IRQ_BASE + (uint32)isr_osdp__INTC_NUMBER] = address;
 191              		.loc 1 180 0
 192 000e FB68     		ldr	r3, [r7, #12]
 193 0010 4433     		adds	r3, r3, #68
 194 0012 7A68     		ldr	r2, [r7, #4]
 195 0014 1A60     		str	r2, [r3]
 181:.\Generated_Source\PSoC5/isr_osdp.c **** }
 196              		.loc 1 181 0
 197 0016 1437     		adds	r7, r7, #20
 198 0018 BD46     		mov	sp, r7
 199              		@ sp needed
 200 001a 5DF8047B 		ldr	r7, [sp], #4
 201 001e 7047     		bx	lr
 202              	.L12:
 203              		.align	2
 204              	.L11:
 205 0020 08ED00E0 		.word	-536810232
 206              		.cfi_endproc
 207              	.LFE4:
 208              		.size	isr_osdp_SetVector, .-isr_osdp_SetVector
 209              		.section	.text.isr_osdp_GetVector,"ax",%progbits
 210              		.align	2
 211              		.global	isr_osdp_GetVector
 212              		.thumb
 213              		.thumb_func
 214              		.type	isr_osdp_GetVector, %function
 215              	isr_osdp_GetVector:
 216              	.LFB5:
 182:.\Generated_Source\PSoC5/isr_osdp.c **** 
 183:.\Generated_Source\PSoC5/isr_osdp.c **** 
ARM GAS  C:\Users\Yiquing\AppData\Local\Temp\ccwvOvZK.s 			page 8


 184:.\Generated_Source\PSoC5/isr_osdp.c **** /*******************************************************************************
 185:.\Generated_Source\PSoC5/isr_osdp.c **** * Function Name: isr_osdp_GetVector
 186:.\Generated_Source\PSoC5/isr_osdp.c **** ********************************************************************************
 187:.\Generated_Source\PSoC5/isr_osdp.c **** *
 188:.\Generated_Source\PSoC5/isr_osdp.c **** * Summary:
 189:.\Generated_Source\PSoC5/isr_osdp.c **** *   Gets the "address" of the current ISR vector for the Interrupt.
 190:.\Generated_Source\PSoC5/isr_osdp.c **** *
 191:.\Generated_Source\PSoC5/isr_osdp.c **** * Parameters:
 192:.\Generated_Source\PSoC5/isr_osdp.c **** *   None
 193:.\Generated_Source\PSoC5/isr_osdp.c **** *
 194:.\Generated_Source\PSoC5/isr_osdp.c **** * Return:
 195:.\Generated_Source\PSoC5/isr_osdp.c **** *   Address of the ISR in the interrupt vector table.
 196:.\Generated_Source\PSoC5/isr_osdp.c **** *
 197:.\Generated_Source\PSoC5/isr_osdp.c **** *******************************************************************************/
 198:.\Generated_Source\PSoC5/isr_osdp.c **** cyisraddress isr_osdp_GetVector(void)
 199:.\Generated_Source\PSoC5/isr_osdp.c **** {
 217              		.loc 1 199 0
 218              		.cfi_startproc
 219              		@ args = 0, pretend = 0, frame = 8
 220              		@ frame_needed = 1, uses_anonymous_args = 0
 221              		@ link register save eliminated.
 222 0000 80B4     		push	{r7}
 223              		.cfi_def_cfa_offset 4
 224              		.cfi_offset 7, -4
 225 0002 83B0     		sub	sp, sp, #12
 226              		.cfi_def_cfa_offset 16
 227 0004 00AF     		add	r7, sp, #0
 228              		.cfi_def_cfa_register 7
 200:.\Generated_Source\PSoC5/isr_osdp.c ****     cyisraddress * ramVectorTable;
 201:.\Generated_Source\PSoC5/isr_osdp.c **** 
 202:.\Generated_Source\PSoC5/isr_osdp.c ****     ramVectorTable = (cyisraddress *) *CYINT_VECT_TABLE;
 229              		.loc 1 202 0
 230 0006 054B     		ldr	r3, .L15
 231 0008 1B68     		ldr	r3, [r3]
 232 000a 7B60     		str	r3, [r7, #4]
 203:.\Generated_Source\PSoC5/isr_osdp.c **** 
 204:.\Generated_Source\PSoC5/isr_osdp.c ****     return ramVectorTable[CYINT_IRQ_BASE + (uint32)isr_osdp__INTC_NUMBER];
 233              		.loc 1 204 0
 234 000c 7B68     		ldr	r3, [r7, #4]
 235 000e 5B6C     		ldr	r3, [r3, #68]
 205:.\Generated_Source\PSoC5/isr_osdp.c **** }
 236              		.loc 1 205 0
 237 0010 1846     		mov	r0, r3
 238 0012 0C37     		adds	r7, r7, #12
 239 0014 BD46     		mov	sp, r7
 240              		@ sp needed
 241 0016 5DF8047B 		ldr	r7, [sp], #4
 242 001a 7047     		bx	lr
 243              	.L16:
 244              		.align	2
 245              	.L15:
 246 001c 08ED00E0 		.word	-536810232
 247              		.cfi_endproc
 248              	.LFE5:
 249              		.size	isr_osdp_GetVector, .-isr_osdp_GetVector
 250              		.section	.text.isr_osdp_SetPriority,"ax",%progbits
 251              		.align	2
ARM GAS  C:\Users\Yiquing\AppData\Local\Temp\ccwvOvZK.s 			page 9


 252              		.global	isr_osdp_SetPriority
 253              		.thumb
 254              		.thumb_func
 255              		.type	isr_osdp_SetPriority, %function
 256              	isr_osdp_SetPriority:
 257              	.LFB6:
 206:.\Generated_Source\PSoC5/isr_osdp.c **** 
 207:.\Generated_Source\PSoC5/isr_osdp.c **** 
 208:.\Generated_Source\PSoC5/isr_osdp.c **** /*******************************************************************************
 209:.\Generated_Source\PSoC5/isr_osdp.c **** * Function Name: isr_osdp_SetPriority
 210:.\Generated_Source\PSoC5/isr_osdp.c **** ********************************************************************************
 211:.\Generated_Source\PSoC5/isr_osdp.c **** *
 212:.\Generated_Source\PSoC5/isr_osdp.c **** * Summary:
 213:.\Generated_Source\PSoC5/isr_osdp.c **** *   Sets the Priority of the Interrupt. Note calling isr_osdp_Start
 214:.\Generated_Source\PSoC5/isr_osdp.c **** *   or isr_osdp_StartEx will override any effect this method 
 215:.\Generated_Source\PSoC5/isr_osdp.c **** *   would have had. This method should only be called after 
 216:.\Generated_Source\PSoC5/isr_osdp.c **** *   isr_osdp_Start or isr_osdp_StartEx has been called. To set 
 217:.\Generated_Source\PSoC5/isr_osdp.c **** *   the initial priority for the component use the cydwr file in the tool.
 218:.\Generated_Source\PSoC5/isr_osdp.c **** *
 219:.\Generated_Source\PSoC5/isr_osdp.c **** * Parameters:
 220:.\Generated_Source\PSoC5/isr_osdp.c **** *   priority: Priority of the interrupt. 0 - 7, 0 being the highest.
 221:.\Generated_Source\PSoC5/isr_osdp.c **** *
 222:.\Generated_Source\PSoC5/isr_osdp.c **** * Return:
 223:.\Generated_Source\PSoC5/isr_osdp.c **** *   None
 224:.\Generated_Source\PSoC5/isr_osdp.c **** *
 225:.\Generated_Source\PSoC5/isr_osdp.c **** *******************************************************************************/
 226:.\Generated_Source\PSoC5/isr_osdp.c **** void isr_osdp_SetPriority(uint8 priority)
 227:.\Generated_Source\PSoC5/isr_osdp.c **** {
 258              		.loc 1 227 0
 259              		.cfi_startproc
 260              		@ args = 0, pretend = 0, frame = 8
 261              		@ frame_needed = 1, uses_anonymous_args = 0
 262              		@ link register save eliminated.
 263 0000 80B4     		push	{r7}
 264              		.cfi_def_cfa_offset 4
 265              		.cfi_offset 7, -4
 266 0002 83B0     		sub	sp, sp, #12
 267              		.cfi_def_cfa_offset 16
 268 0004 00AF     		add	r7, sp, #0
 269              		.cfi_def_cfa_register 7
 270 0006 0346     		mov	r3, r0
 271 0008 FB71     		strb	r3, [r7, #7]
 228:.\Generated_Source\PSoC5/isr_osdp.c ****     *isr_osdp_INTC_PRIOR = priority << 5;
 272              		.loc 1 228 0
 273 000a 054B     		ldr	r3, .L18
 274 000c FA79     		ldrb	r2, [r7, #7]
 275 000e 5201     		lsls	r2, r2, #5
 276 0010 D2B2     		uxtb	r2, r2
 277 0012 1A70     		strb	r2, [r3]
 229:.\Generated_Source\PSoC5/isr_osdp.c **** }
 278              		.loc 1 229 0
 279 0014 0C37     		adds	r7, r7, #12
 280 0016 BD46     		mov	sp, r7
 281              		@ sp needed
 282 0018 5DF8047B 		ldr	r7, [sp], #4
 283 001c 7047     		bx	lr
 284              	.L19:
ARM GAS  C:\Users\Yiquing\AppData\Local\Temp\ccwvOvZK.s 			page 10


 285 001e 00BF     		.align	2
 286              	.L18:
 287 0020 01E400E0 		.word	-536812543
 288              		.cfi_endproc
 289              	.LFE6:
 290              		.size	isr_osdp_SetPriority, .-isr_osdp_SetPriority
 291              		.section	.text.isr_osdp_GetPriority,"ax",%progbits
 292              		.align	2
 293              		.global	isr_osdp_GetPriority
 294              		.thumb
 295              		.thumb_func
 296              		.type	isr_osdp_GetPriority, %function
 297              	isr_osdp_GetPriority:
 298              	.LFB7:
 230:.\Generated_Source\PSoC5/isr_osdp.c **** 
 231:.\Generated_Source\PSoC5/isr_osdp.c **** 
 232:.\Generated_Source\PSoC5/isr_osdp.c **** /*******************************************************************************
 233:.\Generated_Source\PSoC5/isr_osdp.c **** * Function Name: isr_osdp_GetPriority
 234:.\Generated_Source\PSoC5/isr_osdp.c **** ********************************************************************************
 235:.\Generated_Source\PSoC5/isr_osdp.c **** *
 236:.\Generated_Source\PSoC5/isr_osdp.c **** * Summary:
 237:.\Generated_Source\PSoC5/isr_osdp.c **** *   Gets the Priority of the Interrupt.
 238:.\Generated_Source\PSoC5/isr_osdp.c **** *
 239:.\Generated_Source\PSoC5/isr_osdp.c **** * Parameters:
 240:.\Generated_Source\PSoC5/isr_osdp.c **** *   None
 241:.\Generated_Source\PSoC5/isr_osdp.c **** *
 242:.\Generated_Source\PSoC5/isr_osdp.c **** * Return:
 243:.\Generated_Source\PSoC5/isr_osdp.c **** *   Priority of the interrupt. 0 - 7, 0 being the highest.
 244:.\Generated_Source\PSoC5/isr_osdp.c **** *
 245:.\Generated_Source\PSoC5/isr_osdp.c **** *******************************************************************************/
 246:.\Generated_Source\PSoC5/isr_osdp.c **** uint8 isr_osdp_GetPriority(void)
 247:.\Generated_Source\PSoC5/isr_osdp.c **** {
 299              		.loc 1 247 0
 300              		.cfi_startproc
 301              		@ args = 0, pretend = 0, frame = 8
 302              		@ frame_needed = 1, uses_anonymous_args = 0
 303              		@ link register save eliminated.
 304 0000 80B4     		push	{r7}
 305              		.cfi_def_cfa_offset 4
 306              		.cfi_offset 7, -4
 307 0002 83B0     		sub	sp, sp, #12
 308              		.cfi_def_cfa_offset 16
 309 0004 00AF     		add	r7, sp, #0
 310              		.cfi_def_cfa_register 7
 248:.\Generated_Source\PSoC5/isr_osdp.c ****     uint8 priority;
 249:.\Generated_Source\PSoC5/isr_osdp.c **** 
 250:.\Generated_Source\PSoC5/isr_osdp.c **** 
 251:.\Generated_Source\PSoC5/isr_osdp.c ****     priority = *isr_osdp_INTC_PRIOR >> 5;
 311              		.loc 1 251 0
 312 0006 064B     		ldr	r3, .L22
 313 0008 1B78     		ldrb	r3, [r3]
 314 000a DBB2     		uxtb	r3, r3
 315 000c 5B09     		lsrs	r3, r3, #5
 316 000e FB71     		strb	r3, [r7, #7]
 252:.\Generated_Source\PSoC5/isr_osdp.c **** 
 253:.\Generated_Source\PSoC5/isr_osdp.c ****     return priority;
 317              		.loc 1 253 0
ARM GAS  C:\Users\Yiquing\AppData\Local\Temp\ccwvOvZK.s 			page 11


 318 0010 FB79     		ldrb	r3, [r7, #7]	@ zero_extendqisi2
 254:.\Generated_Source\PSoC5/isr_osdp.c **** }
 319              		.loc 1 254 0
 320 0012 1846     		mov	r0, r3
 321 0014 0C37     		adds	r7, r7, #12
 322 0016 BD46     		mov	sp, r7
 323              		@ sp needed
 324 0018 5DF8047B 		ldr	r7, [sp], #4
 325 001c 7047     		bx	lr
 326              	.L23:
 327 001e 00BF     		.align	2
 328              	.L22:
 329 0020 01E400E0 		.word	-536812543
 330              		.cfi_endproc
 331              	.LFE7:
 332              		.size	isr_osdp_GetPriority, .-isr_osdp_GetPriority
 333              		.section	.text.isr_osdp_Enable,"ax",%progbits
 334              		.align	2
 335              		.global	isr_osdp_Enable
 336              		.thumb
 337              		.thumb_func
 338              		.type	isr_osdp_Enable, %function
 339              	isr_osdp_Enable:
 340              	.LFB8:
 255:.\Generated_Source\PSoC5/isr_osdp.c **** 
 256:.\Generated_Source\PSoC5/isr_osdp.c **** 
 257:.\Generated_Source\PSoC5/isr_osdp.c **** /*******************************************************************************
 258:.\Generated_Source\PSoC5/isr_osdp.c **** * Function Name: isr_osdp_Enable
 259:.\Generated_Source\PSoC5/isr_osdp.c **** ********************************************************************************
 260:.\Generated_Source\PSoC5/isr_osdp.c **** *
 261:.\Generated_Source\PSoC5/isr_osdp.c **** * Summary:
 262:.\Generated_Source\PSoC5/isr_osdp.c **** *   Enables the interrupt.
 263:.\Generated_Source\PSoC5/isr_osdp.c **** *
 264:.\Generated_Source\PSoC5/isr_osdp.c **** * Parameters:
 265:.\Generated_Source\PSoC5/isr_osdp.c **** *   None
 266:.\Generated_Source\PSoC5/isr_osdp.c **** *
 267:.\Generated_Source\PSoC5/isr_osdp.c **** * Return:
 268:.\Generated_Source\PSoC5/isr_osdp.c **** *   None
 269:.\Generated_Source\PSoC5/isr_osdp.c **** *
 270:.\Generated_Source\PSoC5/isr_osdp.c **** *******************************************************************************/
 271:.\Generated_Source\PSoC5/isr_osdp.c **** void isr_osdp_Enable(void)
 272:.\Generated_Source\PSoC5/isr_osdp.c **** {
 341              		.loc 1 272 0
 342              		.cfi_startproc
 343              		@ args = 0, pretend = 0, frame = 0
 344              		@ frame_needed = 1, uses_anonymous_args = 0
 345              		@ link register save eliminated.
 346 0000 80B4     		push	{r7}
 347              		.cfi_def_cfa_offset 4
 348              		.cfi_offset 7, -4
 349 0002 00AF     		add	r7, sp, #0
 350              		.cfi_def_cfa_register 7
 273:.\Generated_Source\PSoC5/isr_osdp.c ****     /* Enable the general interrupt. */
 274:.\Generated_Source\PSoC5/isr_osdp.c ****     *isr_osdp_INTC_SET_EN = isr_osdp__INTC_MASK;
 351              		.loc 1 274 0
 352 0004 034B     		ldr	r3, .L25
 353 0006 0222     		movs	r2, #2
ARM GAS  C:\Users\Yiquing\AppData\Local\Temp\ccwvOvZK.s 			page 12


 354 0008 1A60     		str	r2, [r3]
 275:.\Generated_Source\PSoC5/isr_osdp.c **** }
 355              		.loc 1 275 0
 356 000a BD46     		mov	sp, r7
 357              		@ sp needed
 358 000c 5DF8047B 		ldr	r7, [sp], #4
 359 0010 7047     		bx	lr
 360              	.L26:
 361 0012 00BF     		.align	2
 362              	.L25:
 363 0014 00E100E0 		.word	-536813312
 364              		.cfi_endproc
 365              	.LFE8:
 366              		.size	isr_osdp_Enable, .-isr_osdp_Enable
 367              		.section	.text.isr_osdp_GetState,"ax",%progbits
 368              		.align	2
 369              		.global	isr_osdp_GetState
 370              		.thumb
 371              		.thumb_func
 372              		.type	isr_osdp_GetState, %function
 373              	isr_osdp_GetState:
 374              	.LFB9:
 276:.\Generated_Source\PSoC5/isr_osdp.c **** 
 277:.\Generated_Source\PSoC5/isr_osdp.c **** 
 278:.\Generated_Source\PSoC5/isr_osdp.c **** /*******************************************************************************
 279:.\Generated_Source\PSoC5/isr_osdp.c **** * Function Name: isr_osdp_GetState
 280:.\Generated_Source\PSoC5/isr_osdp.c **** ********************************************************************************
 281:.\Generated_Source\PSoC5/isr_osdp.c **** *
 282:.\Generated_Source\PSoC5/isr_osdp.c **** * Summary:
 283:.\Generated_Source\PSoC5/isr_osdp.c **** *   Gets the state (enabled, disabled) of the Interrupt.
 284:.\Generated_Source\PSoC5/isr_osdp.c **** *
 285:.\Generated_Source\PSoC5/isr_osdp.c **** * Parameters:
 286:.\Generated_Source\PSoC5/isr_osdp.c **** *   None
 287:.\Generated_Source\PSoC5/isr_osdp.c **** *
 288:.\Generated_Source\PSoC5/isr_osdp.c **** * Return:
 289:.\Generated_Source\PSoC5/isr_osdp.c **** *   1 if enabled, 0 if disabled.
 290:.\Generated_Source\PSoC5/isr_osdp.c **** *
 291:.\Generated_Source\PSoC5/isr_osdp.c **** *******************************************************************************/
 292:.\Generated_Source\PSoC5/isr_osdp.c **** uint8 isr_osdp_GetState(void)
 293:.\Generated_Source\PSoC5/isr_osdp.c **** {
 375              		.loc 1 293 0
 376              		.cfi_startproc
 377              		@ args = 0, pretend = 0, frame = 0
 378              		@ frame_needed = 1, uses_anonymous_args = 0
 379              		@ link register save eliminated.
 380 0000 80B4     		push	{r7}
 381              		.cfi_def_cfa_offset 4
 382              		.cfi_offset 7, -4
 383 0002 00AF     		add	r7, sp, #0
 384              		.cfi_def_cfa_register 7
 294:.\Generated_Source\PSoC5/isr_osdp.c ****     /* Get the state of the general interrupt. */
 295:.\Generated_Source\PSoC5/isr_osdp.c ****     return ((*isr_osdp_INTC_SET_EN & (uint32)isr_osdp__INTC_MASK) != 0u) ? 1u:0u;
 385              		.loc 1 295 0
 386 0004 064B     		ldr	r3, .L31
 387 0006 1B68     		ldr	r3, [r3]
 388 0008 03F00203 		and	r3, r3, #2
 389 000c 002B     		cmp	r3, #0
ARM GAS  C:\Users\Yiquing\AppData\Local\Temp\ccwvOvZK.s 			page 13


 390 000e 01D0     		beq	.L28
 391              		.loc 1 295 0 is_stmt 0 discriminator 1
 392 0010 0123     		movs	r3, #1
 393 0012 00E0     		b	.L29
 394              	.L28:
 395              		.loc 1 295 0 discriminator 2
 396 0014 0023     		movs	r3, #0
 397              	.L29:
 296:.\Generated_Source\PSoC5/isr_osdp.c **** }
 398              		.loc 1 296 0 is_stmt 1 discriminator 3
 399 0016 1846     		mov	r0, r3
 400 0018 BD46     		mov	sp, r7
 401              		@ sp needed
 402 001a 5DF8047B 		ldr	r7, [sp], #4
 403 001e 7047     		bx	lr
 404              	.L32:
 405              		.align	2
 406              	.L31:
 407 0020 00E100E0 		.word	-536813312
 408              		.cfi_endproc
 409              	.LFE9:
 410              		.size	isr_osdp_GetState, .-isr_osdp_GetState
 411              		.section	.text.isr_osdp_Disable,"ax",%progbits
 412              		.align	2
 413              		.global	isr_osdp_Disable
 414              		.thumb
 415              		.thumb_func
 416              		.type	isr_osdp_Disable, %function
 417              	isr_osdp_Disable:
 418              	.LFB10:
 297:.\Generated_Source\PSoC5/isr_osdp.c **** 
 298:.\Generated_Source\PSoC5/isr_osdp.c **** 
 299:.\Generated_Source\PSoC5/isr_osdp.c **** /*******************************************************************************
 300:.\Generated_Source\PSoC5/isr_osdp.c **** * Function Name: isr_osdp_Disable
 301:.\Generated_Source\PSoC5/isr_osdp.c **** ********************************************************************************
 302:.\Generated_Source\PSoC5/isr_osdp.c **** *
 303:.\Generated_Source\PSoC5/isr_osdp.c **** * Summary:
 304:.\Generated_Source\PSoC5/isr_osdp.c **** *   Disables the Interrupt.
 305:.\Generated_Source\PSoC5/isr_osdp.c **** *
 306:.\Generated_Source\PSoC5/isr_osdp.c **** * Parameters:
 307:.\Generated_Source\PSoC5/isr_osdp.c **** *   None
 308:.\Generated_Source\PSoC5/isr_osdp.c **** *
 309:.\Generated_Source\PSoC5/isr_osdp.c **** * Return:
 310:.\Generated_Source\PSoC5/isr_osdp.c **** *   None
 311:.\Generated_Source\PSoC5/isr_osdp.c **** *
 312:.\Generated_Source\PSoC5/isr_osdp.c **** *******************************************************************************/
 313:.\Generated_Source\PSoC5/isr_osdp.c **** void isr_osdp_Disable(void)
 314:.\Generated_Source\PSoC5/isr_osdp.c **** {
 419              		.loc 1 314 0
 420              		.cfi_startproc
 421              		@ args = 0, pretend = 0, frame = 0
 422              		@ frame_needed = 1, uses_anonymous_args = 0
 423              		@ link register save eliminated.
 424 0000 80B4     		push	{r7}
 425              		.cfi_def_cfa_offset 4
 426              		.cfi_offset 7, -4
 427 0002 00AF     		add	r7, sp, #0
ARM GAS  C:\Users\Yiquing\AppData\Local\Temp\ccwvOvZK.s 			page 14


 428              		.cfi_def_cfa_register 7
 315:.\Generated_Source\PSoC5/isr_osdp.c ****     /* Disable the general interrupt. */
 316:.\Generated_Source\PSoC5/isr_osdp.c ****     *isr_osdp_INTC_CLR_EN = isr_osdp__INTC_MASK;
 429              		.loc 1 316 0
 430 0004 034B     		ldr	r3, .L34
 431 0006 0222     		movs	r2, #2
 432 0008 1A60     		str	r2, [r3]
 317:.\Generated_Source\PSoC5/isr_osdp.c **** }
 433              		.loc 1 317 0
 434 000a BD46     		mov	sp, r7
 435              		@ sp needed
 436 000c 5DF8047B 		ldr	r7, [sp], #4
 437 0010 7047     		bx	lr
 438              	.L35:
 439 0012 00BF     		.align	2
 440              	.L34:
 441 0014 80E100E0 		.word	-536813184
 442              		.cfi_endproc
 443              	.LFE10:
 444              		.size	isr_osdp_Disable, .-isr_osdp_Disable
 445              		.section	.text.isr_osdp_SetPending,"ax",%progbits
 446              		.align	2
 447              		.global	isr_osdp_SetPending
 448              		.thumb
 449              		.thumb_func
 450              		.type	isr_osdp_SetPending, %function
 451              	isr_osdp_SetPending:
 452              	.LFB11:
 318:.\Generated_Source\PSoC5/isr_osdp.c **** 
 319:.\Generated_Source\PSoC5/isr_osdp.c **** 
 320:.\Generated_Source\PSoC5/isr_osdp.c **** /*******************************************************************************
 321:.\Generated_Source\PSoC5/isr_osdp.c **** * Function Name: isr_osdp_SetPending
 322:.\Generated_Source\PSoC5/isr_osdp.c **** ********************************************************************************
 323:.\Generated_Source\PSoC5/isr_osdp.c **** *
 324:.\Generated_Source\PSoC5/isr_osdp.c **** * Summary:
 325:.\Generated_Source\PSoC5/isr_osdp.c **** *   Causes the Interrupt to enter the pending state, a software method of
 326:.\Generated_Source\PSoC5/isr_osdp.c **** *   generating the interrupt.
 327:.\Generated_Source\PSoC5/isr_osdp.c **** *
 328:.\Generated_Source\PSoC5/isr_osdp.c **** * Parameters:
 329:.\Generated_Source\PSoC5/isr_osdp.c **** *   None
 330:.\Generated_Source\PSoC5/isr_osdp.c **** *
 331:.\Generated_Source\PSoC5/isr_osdp.c **** * Return:
 332:.\Generated_Source\PSoC5/isr_osdp.c **** *   None
 333:.\Generated_Source\PSoC5/isr_osdp.c **** *
 334:.\Generated_Source\PSoC5/isr_osdp.c **** *******************************************************************************/
 335:.\Generated_Source\PSoC5/isr_osdp.c **** void isr_osdp_SetPending(void)
 336:.\Generated_Source\PSoC5/isr_osdp.c **** {
 453              		.loc 1 336 0
 454              		.cfi_startproc
 455              		@ args = 0, pretend = 0, frame = 0
 456              		@ frame_needed = 1, uses_anonymous_args = 0
 457              		@ link register save eliminated.
 458 0000 80B4     		push	{r7}
 459              		.cfi_def_cfa_offset 4
 460              		.cfi_offset 7, -4
 461 0002 00AF     		add	r7, sp, #0
 462              		.cfi_def_cfa_register 7
ARM GAS  C:\Users\Yiquing\AppData\Local\Temp\ccwvOvZK.s 			page 15


 337:.\Generated_Source\PSoC5/isr_osdp.c ****     *isr_osdp_INTC_SET_PD = isr_osdp__INTC_MASK;
 463              		.loc 1 337 0
 464 0004 034B     		ldr	r3, .L37
 465 0006 0222     		movs	r2, #2
 466 0008 1A60     		str	r2, [r3]
 338:.\Generated_Source\PSoC5/isr_osdp.c **** }
 467              		.loc 1 338 0
 468 000a BD46     		mov	sp, r7
 469              		@ sp needed
 470 000c 5DF8047B 		ldr	r7, [sp], #4
 471 0010 7047     		bx	lr
 472              	.L38:
 473 0012 00BF     		.align	2
 474              	.L37:
 475 0014 00E200E0 		.word	-536813056
 476              		.cfi_endproc
 477              	.LFE11:
 478              		.size	isr_osdp_SetPending, .-isr_osdp_SetPending
 479              		.section	.text.isr_osdp_ClearPending,"ax",%progbits
 480              		.align	2
 481              		.global	isr_osdp_ClearPending
 482              		.thumb
 483              		.thumb_func
 484              		.type	isr_osdp_ClearPending, %function
 485              	isr_osdp_ClearPending:
 486              	.LFB12:
 339:.\Generated_Source\PSoC5/isr_osdp.c **** 
 340:.\Generated_Source\PSoC5/isr_osdp.c **** 
 341:.\Generated_Source\PSoC5/isr_osdp.c **** /*******************************************************************************
 342:.\Generated_Source\PSoC5/isr_osdp.c **** * Function Name: isr_osdp_ClearPending
 343:.\Generated_Source\PSoC5/isr_osdp.c **** ********************************************************************************
 344:.\Generated_Source\PSoC5/isr_osdp.c **** *
 345:.\Generated_Source\PSoC5/isr_osdp.c **** * Summary:
 346:.\Generated_Source\PSoC5/isr_osdp.c **** *   Clears a pending interrupt.
 347:.\Generated_Source\PSoC5/isr_osdp.c **** *
 348:.\Generated_Source\PSoC5/isr_osdp.c **** * Parameters:
 349:.\Generated_Source\PSoC5/isr_osdp.c **** *   None
 350:.\Generated_Source\PSoC5/isr_osdp.c **** *
 351:.\Generated_Source\PSoC5/isr_osdp.c **** * Return:
 352:.\Generated_Source\PSoC5/isr_osdp.c **** *   None
 353:.\Generated_Source\PSoC5/isr_osdp.c **** *
 354:.\Generated_Source\PSoC5/isr_osdp.c **** *******************************************************************************/
 355:.\Generated_Source\PSoC5/isr_osdp.c **** void isr_osdp_ClearPending(void)
 356:.\Generated_Source\PSoC5/isr_osdp.c **** {
 487              		.loc 1 356 0
 488              		.cfi_startproc
 489              		@ args = 0, pretend = 0, frame = 0
 490              		@ frame_needed = 1, uses_anonymous_args = 0
 491              		@ link register save eliminated.
 492 0000 80B4     		push	{r7}
 493              		.cfi_def_cfa_offset 4
 494              		.cfi_offset 7, -4
 495 0002 00AF     		add	r7, sp, #0
 496              		.cfi_def_cfa_register 7
 357:.\Generated_Source\PSoC5/isr_osdp.c ****     *isr_osdp_INTC_CLR_PD = isr_osdp__INTC_MASK;
 497              		.loc 1 357 0
 498 0004 034B     		ldr	r3, .L40
ARM GAS  C:\Users\Yiquing\AppData\Local\Temp\ccwvOvZK.s 			page 16


 499 0006 0222     		movs	r2, #2
 500 0008 1A60     		str	r2, [r3]
 358:.\Generated_Source\PSoC5/isr_osdp.c **** }
 501              		.loc 1 358 0
 502 000a BD46     		mov	sp, r7
 503              		@ sp needed
 504 000c 5DF8047B 		ldr	r7, [sp], #4
 505 0010 7047     		bx	lr
 506              	.L41:
 507 0012 00BF     		.align	2
 508              	.L40:
 509 0014 80E200E0 		.word	-536812928
 510              		.cfi_endproc
 511              	.LFE12:
 512              		.size	isr_osdp_ClearPending, .-isr_osdp_ClearPending
 513              		.text
 514              	.Letext0:
 515              		.file 2 ".\\Generated_Source\\PSoC5/cytypes.h"