ARM GAS  C:\Users\Yiquing\AppData\Local\Temp\ccbBlMzd.s 			page 1


   1              		.syntax unified
   2              		.cpu cortex-m3
   3              		.fpu softvfp
   4              		.eabi_attribute 20, 1
   5              		.eabi_attribute 21, 1
   6              		.eabi_attribute 23, 3
   7              		.eabi_attribute 24, 1
   8              		.eabi_attribute 25, 1
   9              		.eabi_attribute 26, 1
  10              		.eabi_attribute 30, 6
  11              		.eabi_attribute 34, 1
  12              		.eabi_attribute 18, 4
  13              		.thumb
  14              		.file	"OptSelect.c"
  15              		.text
  16              	.Ltext0:
  17              		.cfi_sections	.debug_frame
  18              		.section	.text.OptSelect_Write,"ax",%progbits
  19              		.align	2
  20              		.global	OptSelect_Write
  21              		.thumb
  22              		.thumb_func
  23              		.type	OptSelect_Write, %function
  24              	OptSelect_Write:
  25              	.LFB0:
  26              		.file 1 ".\\Generated_Source\\PSoC5\\OptSelect.c"
   1:.\Generated_Source\PSoC5/OptSelect.c **** /*******************************************************************************
   2:.\Generated_Source\PSoC5/OptSelect.c **** * File Name: OptSelect.c  
   3:.\Generated_Source\PSoC5/OptSelect.c **** * Version 1.80
   4:.\Generated_Source\PSoC5/OptSelect.c **** *
   5:.\Generated_Source\PSoC5/OptSelect.c **** * Description:
   6:.\Generated_Source\PSoC5/OptSelect.c **** *  This file contains API to enable firmware control of a Control Register.
   7:.\Generated_Source\PSoC5/OptSelect.c **** *
   8:.\Generated_Source\PSoC5/OptSelect.c **** * Note:
   9:.\Generated_Source\PSoC5/OptSelect.c **** *
  10:.\Generated_Source\PSoC5/OptSelect.c **** ********************************************************************************
  11:.\Generated_Source\PSoC5/OptSelect.c **** * Copyright 2008-2015, Cypress Semiconductor Corporation.  All rights reserved.
  12:.\Generated_Source\PSoC5/OptSelect.c **** * You may use this file only in accordance with the license, terms, conditions, 
  13:.\Generated_Source\PSoC5/OptSelect.c **** * disclaimers, and limitations in the end user license agreement accompanying 
  14:.\Generated_Source\PSoC5/OptSelect.c **** * the software package with which this file was provided.
  15:.\Generated_Source\PSoC5/OptSelect.c **** *******************************************************************************/
  16:.\Generated_Source\PSoC5/OptSelect.c **** 
  17:.\Generated_Source\PSoC5/OptSelect.c **** #include "OptSelect.h"
  18:.\Generated_Source\PSoC5/OptSelect.c **** 
  19:.\Generated_Source\PSoC5/OptSelect.c **** /* Check for removal by optimization */
  20:.\Generated_Source\PSoC5/OptSelect.c **** #if !defined(OptSelect_Sync_ctrl_reg__REMOVED)
  21:.\Generated_Source\PSoC5/OptSelect.c **** 
  22:.\Generated_Source\PSoC5/OptSelect.c ****     
  23:.\Generated_Source\PSoC5/OptSelect.c **** /*******************************************************************************
  24:.\Generated_Source\PSoC5/OptSelect.c **** * Function Name: OptSelect_Write
  25:.\Generated_Source\PSoC5/OptSelect.c **** ********************************************************************************
  26:.\Generated_Source\PSoC5/OptSelect.c **** *
  27:.\Generated_Source\PSoC5/OptSelect.c **** * Summary:
  28:.\Generated_Source\PSoC5/OptSelect.c **** *  Write a byte to the Control Register.
  29:.\Generated_Source\PSoC5/OptSelect.c **** *
  30:.\Generated_Source\PSoC5/OptSelect.c **** * Parameters:
  31:.\Generated_Source\PSoC5/OptSelect.c **** *  control:  The value to be assigned to the Control Register.
ARM GAS  C:\Users\Yiquing\AppData\Local\Temp\ccbBlMzd.s 			page 2


  32:.\Generated_Source\PSoC5/OptSelect.c **** *
  33:.\Generated_Source\PSoC5/OptSelect.c **** * Return:
  34:.\Generated_Source\PSoC5/OptSelect.c **** *  None.
  35:.\Generated_Source\PSoC5/OptSelect.c **** *
  36:.\Generated_Source\PSoC5/OptSelect.c **** *******************************************************************************/
  37:.\Generated_Source\PSoC5/OptSelect.c **** void OptSelect_Write(uint8 control) 
  38:.\Generated_Source\PSoC5/OptSelect.c **** {
  27              		.loc 1 38 0
  28              		.cfi_startproc
  29              		@ args = 0, pretend = 0, frame = 8
  30              		@ frame_needed = 1, uses_anonymous_args = 0
  31              		@ link register save eliminated.
  32 0000 80B4     		push	{r7}
  33              		.cfi_def_cfa_offset 4
  34              		.cfi_offset 7, -4
  35 0002 83B0     		sub	sp, sp, #12
  36              		.cfi_def_cfa_offset 16
  37 0004 00AF     		add	r7, sp, #0
  38              		.cfi_def_cfa_register 7
  39 0006 0346     		mov	r3, r0
  40 0008 FB71     		strb	r3, [r7, #7]
  39:.\Generated_Source\PSoC5/OptSelect.c ****     OptSelect_Control = control;
  41              		.loc 1 39 0
  42 000a 044B     		ldr	r3, .L2
  43 000c FA79     		ldrb	r2, [r7, #7]
  44 000e 1A70     		strb	r2, [r3]
  40:.\Generated_Source\PSoC5/OptSelect.c **** }
  45              		.loc 1 40 0
  46 0010 0C37     		adds	r7, r7, #12
  47 0012 BD46     		mov	sp, r7
  48              		@ sp needed
  49 0014 5DF8047B 		ldr	r7, [sp], #4
  50 0018 7047     		bx	lr
  51              	.L3:
  52 001a 00BF     		.align	2
  53              	.L2:
  54 001c 74640040 		.word	1073767540
  55              		.cfi_endproc
  56              	.LFE0:
  57              		.size	OptSelect_Write, .-OptSelect_Write
  58              		.section	.text.OptSelect_Read,"ax",%progbits
  59              		.align	2
  60              		.global	OptSelect_Read
  61              		.thumb
  62              		.thumb_func
  63              		.type	OptSelect_Read, %function
  64              	OptSelect_Read:
  65              	.LFB1:
  41:.\Generated_Source\PSoC5/OptSelect.c **** 
  42:.\Generated_Source\PSoC5/OptSelect.c **** 
  43:.\Generated_Source\PSoC5/OptSelect.c **** /*******************************************************************************
  44:.\Generated_Source\PSoC5/OptSelect.c **** * Function Name: OptSelect_Read
  45:.\Generated_Source\PSoC5/OptSelect.c **** ********************************************************************************
  46:.\Generated_Source\PSoC5/OptSelect.c **** *
  47:.\Generated_Source\PSoC5/OptSelect.c **** * Summary:
  48:.\Generated_Source\PSoC5/OptSelect.c **** *  Reads the current value assigned to the Control Register.
  49:.\Generated_Source\PSoC5/OptSelect.c **** *
ARM GAS  C:\Users\Yiquing\AppData\Local\Temp\ccbBlMzd.s 			page 3


  50:.\Generated_Source\PSoC5/OptSelect.c **** * Parameters:
  51:.\Generated_Source\PSoC5/OptSelect.c **** *  None.
  52:.\Generated_Source\PSoC5/OptSelect.c **** *
  53:.\Generated_Source\PSoC5/OptSelect.c **** * Return:
  54:.\Generated_Source\PSoC5/OptSelect.c **** *  Returns the current value in the Control Register.
  55:.\Generated_Source\PSoC5/OptSelect.c **** *
  56:.\Generated_Source\PSoC5/OptSelect.c **** *******************************************************************************/
  57:.\Generated_Source\PSoC5/OptSelect.c **** uint8 OptSelect_Read(void) 
  58:.\Generated_Source\PSoC5/OptSelect.c **** {
  66              		.loc 1 58 0
  67              		.cfi_startproc
  68              		@ args = 0, pretend = 0, frame = 0
  69              		@ frame_needed = 1, uses_anonymous_args = 0
  70              		@ link register save eliminated.
  71 0000 80B4     		push	{r7}
  72              		.cfi_def_cfa_offset 4
  73              		.cfi_offset 7, -4
  74 0002 00AF     		add	r7, sp, #0
  75              		.cfi_def_cfa_register 7
  59:.\Generated_Source\PSoC5/OptSelect.c ****     return OptSelect_Control;
  76              		.loc 1 59 0
  77 0004 034B     		ldr	r3, .L6
  78 0006 1B78     		ldrb	r3, [r3]
  79 0008 DBB2     		uxtb	r3, r3
  60:.\Generated_Source\PSoC5/OptSelect.c **** }
  80              		.loc 1 60 0
  81 000a 1846     		mov	r0, r3
  82 000c BD46     		mov	sp, r7
  83              		@ sp needed
  84 000e 5DF8047B 		ldr	r7, [sp], #4
  85 0012 7047     		bx	lr
  86              	.L7:
  87              		.align	2
  88              	.L6:
  89 0014 74640040 		.word	1073767540
  90              		.cfi_endproc
  91              	.LFE1:
  92              		.size	OptSelect_Read, .-OptSelect_Read
  93              		.text
  94              	.Letext0:
  95              		.file 2 ".\\Generated_Source\\PSoC5\\cytypes.h"