ARM GAS  C:\Users\Yiquing\AppData\Local\Temp\cc1Tlk1W.s 			page 1


   1              		.syntax unified
   2              		.cpu cortex-m3
   3              		.fpu softvfp
   4              		.eabi_attribute 20, 1
   5              		.eabi_attribute 21, 1
   6              		.eabi_attribute 23, 3
   7              		.eabi_attribute 24, 1
   8              		.eabi_attribute 25, 1
   9              		.eabi_attribute 26, 1
  10              		.eabi_attribute 30, 6
  11              		.eabi_attribute 34, 1
  12              		.eabi_attribute 18, 4
  13              		.thumb
  14              		.file	"Tamper_Timer_ISR.c"
  15              		.text
  16              	.Ltext0:
  17              		.cfi_sections	.debug_frame
  18              		.comm	s,40,4
  19              		.comm	currentAccessType,1,1
  20              		.comm	old,1,1
  21              		.comm	TAMPERCR_POLARITY,4,4
  22              		.comm	card_ack,4,4
  23              		.comm	card_in_buf,4,4
  24              		.comm	got_pulse,1,1
  25              		.comm	f2f_pulsewidth,4,4
  26              		.comm	timeout_cnt,4,4
  27              		.comm	activate_f2ftimer,1,1
  28              		.section	.text.Tamper_Timer_ISR_Start,"ax",%progbits
  29              		.align	2
  30              		.global	Tamper_Timer_ISR_Start
  31              		.thumb
  32              		.thumb_func
  33              		.type	Tamper_Timer_ISR_Start, %function
  34              	Tamper_Timer_ISR_Start:
  35              	.LFB0:
  36              		.file 1 ".\\Generated_Source\\PSoC5\\Tamper_Timer_ISR.c"
   1:.\Generated_Source\PSoC5/Tamper_Timer_ISR.c **** /*******************************************************************************
   2:.\Generated_Source\PSoC5/Tamper_Timer_ISR.c **** * File Name: Tamper_Timer_ISR.c  
   3:.\Generated_Source\PSoC5/Tamper_Timer_ISR.c **** * Version 1.70
   4:.\Generated_Source\PSoC5/Tamper_Timer_ISR.c **** *
   5:.\Generated_Source\PSoC5/Tamper_Timer_ISR.c **** *  Description:
   6:.\Generated_Source\PSoC5/Tamper_Timer_ISR.c **** *   API for controlling the state of an interrupt.
   7:.\Generated_Source\PSoC5/Tamper_Timer_ISR.c **** *
   8:.\Generated_Source\PSoC5/Tamper_Timer_ISR.c **** *
   9:.\Generated_Source\PSoC5/Tamper_Timer_ISR.c **** *  Note:
  10:.\Generated_Source\PSoC5/Tamper_Timer_ISR.c **** *
  11:.\Generated_Source\PSoC5/Tamper_Timer_ISR.c **** ********************************************************************************
  12:.\Generated_Source\PSoC5/Tamper_Timer_ISR.c **** * Copyright 2008-2015, Cypress Semiconductor Corporation.  All rights reserved.
  13:.\Generated_Source\PSoC5/Tamper_Timer_ISR.c **** * You may use this file only in accordance with the license, terms, conditions, 
  14:.\Generated_Source\PSoC5/Tamper_Timer_ISR.c **** * disclaimers, and limitations in the end user license agreement accompanying 
  15:.\Generated_Source\PSoC5/Tamper_Timer_ISR.c **** * the software package with which this file was provided.
  16:.\Generated_Source\PSoC5/Tamper_Timer_ISR.c **** *******************************************************************************/
  17:.\Generated_Source\PSoC5/Tamper_Timer_ISR.c **** 
  18:.\Generated_Source\PSoC5/Tamper_Timer_ISR.c **** 
  19:.\Generated_Source\PSoC5/Tamper_Timer_ISR.c **** #include <cydevice_trm.h>
  20:.\Generated_Source\PSoC5/Tamper_Timer_ISR.c **** #include <CyLib.h>
  21:.\Generated_Source\PSoC5/Tamper_Timer_ISR.c **** #include <Tamper_Timer_ISR.h>
ARM GAS  C:\Users\Yiquing\AppData\Local\Temp\cc1Tlk1W.s 			page 2


  22:.\Generated_Source\PSoC5/Tamper_Timer_ISR.c **** 
  23:.\Generated_Source\PSoC5/Tamper_Timer_ISR.c **** #if !defined(Tamper_Timer_ISR__REMOVED) /* Check for removal by optimization */
  24:.\Generated_Source\PSoC5/Tamper_Timer_ISR.c **** 
  25:.\Generated_Source\PSoC5/Tamper_Timer_ISR.c **** /*******************************************************************************
  26:.\Generated_Source\PSoC5/Tamper_Timer_ISR.c **** *  Place your includes, defines and code here 
  27:.\Generated_Source\PSoC5/Tamper_Timer_ISR.c **** ********************************************************************************/
  28:.\Generated_Source\PSoC5/Tamper_Timer_ISR.c **** /* `#START Tamper_Timer_ISR_intc` */
  29:.\Generated_Source\PSoC5/Tamper_Timer_ISR.c **** #include <PS_D1.h>
  30:.\Generated_Source\PSoC5/Tamper_Timer_ISR.c **** #include "Tamper_Timer.h"
  31:.\Generated_Source\PSoC5/Tamper_Timer_ISR.c **** #include "inout.h"
  32:.\Generated_Source\PSoC5/Tamper_Timer_ISR.c **** #include "system.h"
  33:.\Generated_Source\PSoC5/Tamper_Timer_ISR.c **** /* `#END` */
  34:.\Generated_Source\PSoC5/Tamper_Timer_ISR.c **** 
  35:.\Generated_Source\PSoC5/Tamper_Timer_ISR.c **** #ifndef CYINT_IRQ_BASE
  36:.\Generated_Source\PSoC5/Tamper_Timer_ISR.c **** #define CYINT_IRQ_BASE      16
  37:.\Generated_Source\PSoC5/Tamper_Timer_ISR.c **** #endif /* CYINT_IRQ_BASE */
  38:.\Generated_Source\PSoC5/Tamper_Timer_ISR.c **** #ifndef CYINT_VECT_TABLE
  39:.\Generated_Source\PSoC5/Tamper_Timer_ISR.c **** #define CYINT_VECT_TABLE    ((cyisraddress **) CYREG_NVIC_VECT_OFFSET)
  40:.\Generated_Source\PSoC5/Tamper_Timer_ISR.c **** #endif /* CYINT_VECT_TABLE */
  41:.\Generated_Source\PSoC5/Tamper_Timer_ISR.c **** 
  42:.\Generated_Source\PSoC5/Tamper_Timer_ISR.c **** /* Declared in startup, used to set unused interrupts to. */
  43:.\Generated_Source\PSoC5/Tamper_Timer_ISR.c **** CY_ISR_PROTO(IntDefaultHandler);
  44:.\Generated_Source\PSoC5/Tamper_Timer_ISR.c **** 
  45:.\Generated_Source\PSoC5/Tamper_Timer_ISR.c **** 
  46:.\Generated_Source\PSoC5/Tamper_Timer_ISR.c **** /*******************************************************************************
  47:.\Generated_Source\PSoC5/Tamper_Timer_ISR.c **** * Function Name: Tamper_Timer_ISR_Start
  48:.\Generated_Source\PSoC5/Tamper_Timer_ISR.c **** ********************************************************************************
  49:.\Generated_Source\PSoC5/Tamper_Timer_ISR.c **** *
  50:.\Generated_Source\PSoC5/Tamper_Timer_ISR.c **** * Summary:
  51:.\Generated_Source\PSoC5/Tamper_Timer_ISR.c **** *  Set up the interrupt and enable it. This function disables the interrupt, 
  52:.\Generated_Source\PSoC5/Tamper_Timer_ISR.c **** *  sets the default interrupt vector, sets the priority from the value in the
  53:.\Generated_Source\PSoC5/Tamper_Timer_ISR.c **** *  Design Wide Resources Interrupt Editor, then enables the interrupt to the 
  54:.\Generated_Source\PSoC5/Tamper_Timer_ISR.c **** *  interrupt controller.
  55:.\Generated_Source\PSoC5/Tamper_Timer_ISR.c **** *
  56:.\Generated_Source\PSoC5/Tamper_Timer_ISR.c **** * Parameters:  
  57:.\Generated_Source\PSoC5/Tamper_Timer_ISR.c **** *   None
  58:.\Generated_Source\PSoC5/Tamper_Timer_ISR.c **** *
  59:.\Generated_Source\PSoC5/Tamper_Timer_ISR.c **** * Return:
  60:.\Generated_Source\PSoC5/Tamper_Timer_ISR.c **** *   None
  61:.\Generated_Source\PSoC5/Tamper_Timer_ISR.c **** *
  62:.\Generated_Source\PSoC5/Tamper_Timer_ISR.c **** *******************************************************************************/
  63:.\Generated_Source\PSoC5/Tamper_Timer_ISR.c **** void Tamper_Timer_ISR_Start(void)
  64:.\Generated_Source\PSoC5/Tamper_Timer_ISR.c **** {
  37              		.loc 1 64 0
  38              		.cfi_startproc
  39              		@ args = 0, pretend = 0, frame = 0
  40              		@ frame_needed = 1, uses_anonymous_args = 0
  41 0000 80B5     		push	{r7, lr}
  42              		.cfi_def_cfa_offset 8
  43              		.cfi_offset 7, -8
  44              		.cfi_offset 14, -4
  45 0002 00AF     		add	r7, sp, #0
  46              		.cfi_def_cfa_register 7
  65:.\Generated_Source\PSoC5/Tamper_Timer_ISR.c ****     /* For all we know the interrupt is active. */
  66:.\Generated_Source\PSoC5/Tamper_Timer_ISR.c ****     Tamper_Timer_ISR_Disable();
  47              		.loc 1 66 0
  48 0004 FFF7FEFF 		bl	Tamper_Timer_ISR_Disable
ARM GAS  C:\Users\Yiquing\AppData\Local\Temp\cc1Tlk1W.s 			page 3


  67:.\Generated_Source\PSoC5/Tamper_Timer_ISR.c **** 
  68:.\Generated_Source\PSoC5/Tamper_Timer_ISR.c ****     /* Set the ISR to point to the Tamper_Timer_ISR Interrupt. */
  69:.\Generated_Source\PSoC5/Tamper_Timer_ISR.c ****     Tamper_Timer_ISR_SetVector(&Tamper_Timer_ISR_Interrupt);
  49              		.loc 1 69 0
  50 0008 0448     		ldr	r0, .L2
  51 000a FFF7FEFF 		bl	Tamper_Timer_ISR_SetVector
  70:.\Generated_Source\PSoC5/Tamper_Timer_ISR.c **** 
  71:.\Generated_Source\PSoC5/Tamper_Timer_ISR.c ****     /* Set the priority. */
  72:.\Generated_Source\PSoC5/Tamper_Timer_ISR.c ****     Tamper_Timer_ISR_SetPriority((uint8)Tamper_Timer_ISR_INTC_PRIOR_NUMBER);
  52              		.loc 1 72 0
  53 000e 0720     		movs	r0, #7
  54 0010 FFF7FEFF 		bl	Tamper_Timer_ISR_SetPriority
  73:.\Generated_Source\PSoC5/Tamper_Timer_ISR.c **** 
  74:.\Generated_Source\PSoC5/Tamper_Timer_ISR.c ****     /* Enable it. */
  75:.\Generated_Source\PSoC5/Tamper_Timer_ISR.c ****     Tamper_Timer_ISR_Enable();
  55              		.loc 1 75 0
  56 0014 FFF7FEFF 		bl	Tamper_Timer_ISR_Enable
  76:.\Generated_Source\PSoC5/Tamper_Timer_ISR.c **** }
  57              		.loc 1 76 0
  58 0018 80BD     		pop	{r7, pc}
  59              	.L3:
  60 001a 00BF     		.align	2
  61              	.L2:
  62 001c 00000000 		.word	Tamper_Timer_ISR_Interrupt
  63              		.cfi_endproc
  64              	.LFE0:
  65              		.size	Tamper_Timer_ISR_Start, .-Tamper_Timer_ISR_Start
  66              		.section	.text.Tamper_Timer_ISR_StartEx,"ax",%progbits
  67              		.align	2
  68              		.global	Tamper_Timer_ISR_StartEx
  69              		.thumb
  70              		.thumb_func
  71              		.type	Tamper_Timer_ISR_StartEx, %function
  72              	Tamper_Timer_ISR_StartEx:
  73              	.LFB1:
  77:.\Generated_Source\PSoC5/Tamper_Timer_ISR.c **** 
  78:.\Generated_Source\PSoC5/Tamper_Timer_ISR.c **** 
  79:.\Generated_Source\PSoC5/Tamper_Timer_ISR.c **** /*******************************************************************************
  80:.\Generated_Source\PSoC5/Tamper_Timer_ISR.c **** * Function Name: Tamper_Timer_ISR_StartEx
  81:.\Generated_Source\PSoC5/Tamper_Timer_ISR.c **** ********************************************************************************
  82:.\Generated_Source\PSoC5/Tamper_Timer_ISR.c **** *
  83:.\Generated_Source\PSoC5/Tamper_Timer_ISR.c **** * Summary:
  84:.\Generated_Source\PSoC5/Tamper_Timer_ISR.c **** *  Sets up the interrupt and enables it. This function disables the interrupt,
  85:.\Generated_Source\PSoC5/Tamper_Timer_ISR.c **** *  sets the interrupt vector based on the address passed in, sets the priority 
  86:.\Generated_Source\PSoC5/Tamper_Timer_ISR.c **** *  from the value in the Design Wide Resources Interrupt Editor, then enables 
  87:.\Generated_Source\PSoC5/Tamper_Timer_ISR.c **** *  the interrupt to the interrupt controller.
  88:.\Generated_Source\PSoC5/Tamper_Timer_ISR.c **** *  
  89:.\Generated_Source\PSoC5/Tamper_Timer_ISR.c **** *  When defining ISR functions, the CY_ISR and CY_ISR_PROTO macros should be 
  90:.\Generated_Source\PSoC5/Tamper_Timer_ISR.c **** *  used to provide consistent definition across compilers:
  91:.\Generated_Source\PSoC5/Tamper_Timer_ISR.c **** *  
  92:.\Generated_Source\PSoC5/Tamper_Timer_ISR.c **** *  Function definition example:
  93:.\Generated_Source\PSoC5/Tamper_Timer_ISR.c **** *   CY_ISR(MyISR)
  94:.\Generated_Source\PSoC5/Tamper_Timer_ISR.c **** *   {
  95:.\Generated_Source\PSoC5/Tamper_Timer_ISR.c **** *   }
  96:.\Generated_Source\PSoC5/Tamper_Timer_ISR.c **** *   Function prototype example:
  97:.\Generated_Source\PSoC5/Tamper_Timer_ISR.c **** *   CY_ISR_PROTO(MyISR);
  98:.\Generated_Source\PSoC5/Tamper_Timer_ISR.c **** *
ARM GAS  C:\Users\Yiquing\AppData\Local\Temp\cc1Tlk1W.s 			page 4


  99:.\Generated_Source\PSoC5/Tamper_Timer_ISR.c **** * Parameters:  
 100:.\Generated_Source\PSoC5/Tamper_Timer_ISR.c **** *   address: Address of the ISR to set in the interrupt vector table.
 101:.\Generated_Source\PSoC5/Tamper_Timer_ISR.c **** *
 102:.\Generated_Source\PSoC5/Tamper_Timer_ISR.c **** * Return:
 103:.\Generated_Source\PSoC5/Tamper_Timer_ISR.c **** *   None
 104:.\Generated_Source\PSoC5/Tamper_Timer_ISR.c **** *
 105:.\Generated_Source\PSoC5/Tamper_Timer_ISR.c **** *******************************************************************************/
 106:.\Generated_Source\PSoC5/Tamper_Timer_ISR.c **** void Tamper_Timer_ISR_StartEx(cyisraddress address)
 107:.\Generated_Source\PSoC5/Tamper_Timer_ISR.c **** {
  74              		.loc 1 107 0
  75              		.cfi_startproc
  76              		@ args = 0, pretend = 0, frame = 8
  77              		@ frame_needed = 1, uses_anonymous_args = 0
  78 0000 80B5     		push	{r7, lr}
  79              		.cfi_def_cfa_offset 8
  80              		.cfi_offset 7, -8
  81              		.cfi_offset 14, -4
  82 0002 82B0     		sub	sp, sp, #8
  83              		.cfi_def_cfa_offset 16
  84 0004 00AF     		add	r7, sp, #0
  85              		.cfi_def_cfa_register 7
  86 0006 7860     		str	r0, [r7, #4]
 108:.\Generated_Source\PSoC5/Tamper_Timer_ISR.c ****     /* For all we know the interrupt is active. */
 109:.\Generated_Source\PSoC5/Tamper_Timer_ISR.c ****     Tamper_Timer_ISR_Disable();
  87              		.loc 1 109 0
  88 0008 FFF7FEFF 		bl	Tamper_Timer_ISR_Disable
 110:.\Generated_Source\PSoC5/Tamper_Timer_ISR.c **** 
 111:.\Generated_Source\PSoC5/Tamper_Timer_ISR.c ****     /* Set the ISR to point to the Tamper_Timer_ISR Interrupt. */
 112:.\Generated_Source\PSoC5/Tamper_Timer_ISR.c ****     Tamper_Timer_ISR_SetVector(address);
  89              		.loc 1 112 0
  90 000c 7868     		ldr	r0, [r7, #4]
  91 000e FFF7FEFF 		bl	Tamper_Timer_ISR_SetVector
 113:.\Generated_Source\PSoC5/Tamper_Timer_ISR.c **** 
 114:.\Generated_Source\PSoC5/Tamper_Timer_ISR.c ****     /* Set the priority. */
 115:.\Generated_Source\PSoC5/Tamper_Timer_ISR.c ****     Tamper_Timer_ISR_SetPriority((uint8)Tamper_Timer_ISR_INTC_PRIOR_NUMBER);
  92              		.loc 1 115 0
  93 0012 0720     		movs	r0, #7
  94 0014 FFF7FEFF 		bl	Tamper_Timer_ISR_SetPriority
 116:.\Generated_Source\PSoC5/Tamper_Timer_ISR.c **** 
 117:.\Generated_Source\PSoC5/Tamper_Timer_ISR.c ****     /* Enable it. */
 118:.\Generated_Source\PSoC5/Tamper_Timer_ISR.c ****     Tamper_Timer_ISR_Enable();
  95              		.loc 1 118 0
  96 0018 FFF7FEFF 		bl	Tamper_Timer_ISR_Enable
 119:.\Generated_Source\PSoC5/Tamper_Timer_ISR.c **** }
  97              		.loc 1 119 0
  98 001c 0837     		adds	r7, r7, #8
  99 001e BD46     		mov	sp, r7
 100              		@ sp needed
 101 0020 80BD     		pop	{r7, pc}
 102              		.cfi_endproc
 103              	.LFE1:
 104              		.size	Tamper_Timer_ISR_StartEx, .-Tamper_Timer_ISR_StartEx
 105 0022 00BF     		.section	.text.Tamper_Timer_ISR_Stop,"ax",%progbits
 106              		.align	2
 107              		.global	Tamper_Timer_ISR_Stop
 108              		.thumb
 109              		.thumb_func
ARM GAS  C:\Users\Yiquing\AppData\Local\Temp\cc1Tlk1W.s 			page 5


 110              		.type	Tamper_Timer_ISR_Stop, %function
 111              	Tamper_Timer_ISR_Stop:
 112              	.LFB2:
 120:.\Generated_Source\PSoC5/Tamper_Timer_ISR.c **** 
 121:.\Generated_Source\PSoC5/Tamper_Timer_ISR.c **** 
 122:.\Generated_Source\PSoC5/Tamper_Timer_ISR.c **** /*******************************************************************************
 123:.\Generated_Source\PSoC5/Tamper_Timer_ISR.c **** * Function Name: Tamper_Timer_ISR_Stop
 124:.\Generated_Source\PSoC5/Tamper_Timer_ISR.c **** ********************************************************************************
 125:.\Generated_Source\PSoC5/Tamper_Timer_ISR.c **** *
 126:.\Generated_Source\PSoC5/Tamper_Timer_ISR.c **** * Summary:
 127:.\Generated_Source\PSoC5/Tamper_Timer_ISR.c **** *   Disables and removes the interrupt.
 128:.\Generated_Source\PSoC5/Tamper_Timer_ISR.c **** *
 129:.\Generated_Source\PSoC5/Tamper_Timer_ISR.c **** * Parameters:  
 130:.\Generated_Source\PSoC5/Tamper_Timer_ISR.c **** *   None
 131:.\Generated_Source\PSoC5/Tamper_Timer_ISR.c **** *
 132:.\Generated_Source\PSoC5/Tamper_Timer_ISR.c **** * Return:
 133:.\Generated_Source\PSoC5/Tamper_Timer_ISR.c **** *   None
 134:.\Generated_Source\PSoC5/Tamper_Timer_ISR.c **** *
 135:.\Generated_Source\PSoC5/Tamper_Timer_ISR.c **** *******************************************************************************/
 136:.\Generated_Source\PSoC5/Tamper_Timer_ISR.c **** void Tamper_Timer_ISR_Stop(void)
 137:.\Generated_Source\PSoC5/Tamper_Timer_ISR.c **** {
 113              		.loc 1 137 0
 114              		.cfi_startproc
 115              		@ args = 0, pretend = 0, frame = 0
 116              		@ frame_needed = 1, uses_anonymous_args = 0
 117 0000 80B5     		push	{r7, lr}
 118              		.cfi_def_cfa_offset 8
 119              		.cfi_offset 7, -8
 120              		.cfi_offset 14, -4
 121 0002 00AF     		add	r7, sp, #0
 122              		.cfi_def_cfa_register 7
 138:.\Generated_Source\PSoC5/Tamper_Timer_ISR.c ****     /* Disable this interrupt. */
 139:.\Generated_Source\PSoC5/Tamper_Timer_ISR.c ****     Tamper_Timer_ISR_Disable();
 123              		.loc 1 139 0
 124 0004 FFF7FEFF 		bl	Tamper_Timer_ISR_Disable
 140:.\Generated_Source\PSoC5/Tamper_Timer_ISR.c **** 
 141:.\Generated_Source\PSoC5/Tamper_Timer_ISR.c ****     /* Set the ISR to point to the passive one. */
 142:.\Generated_Source\PSoC5/Tamper_Timer_ISR.c ****     Tamper_Timer_ISR_SetVector(&IntDefaultHandler);
 125              		.loc 1 142 0
 126 0008 0148     		ldr	r0, .L6
 127 000a FFF7FEFF 		bl	Tamper_Timer_ISR_SetVector
 143:.\Generated_Source\PSoC5/Tamper_Timer_ISR.c **** }
 128              		.loc 1 143 0
 129 000e 80BD     		pop	{r7, pc}
 130              	.L7:
 131              		.align	2
 132              	.L6:
 133 0010 00000000 		.word	IntDefaultHandler
 134              		.cfi_endproc
 135              	.LFE2:
 136              		.size	Tamper_Timer_ISR_Stop, .-Tamper_Timer_ISR_Stop
 137              		.section	.text.Tamper_Timer_ISR_Interrupt,"ax",%progbits
 138              		.align	2
 139              		.global	Tamper_Timer_ISR_Interrupt
 140              		.thumb
 141              		.thumb_func
 142              		.type	Tamper_Timer_ISR_Interrupt, %function
ARM GAS  C:\Users\Yiquing\AppData\Local\Temp\cc1Tlk1W.s 			page 6


 143              	Tamper_Timer_ISR_Interrupt:
 144              	.LFB3:
 144:.\Generated_Source\PSoC5/Tamper_Timer_ISR.c **** 
 145:.\Generated_Source\PSoC5/Tamper_Timer_ISR.c **** 
 146:.\Generated_Source\PSoC5/Tamper_Timer_ISR.c **** /*******************************************************************************
 147:.\Generated_Source\PSoC5/Tamper_Timer_ISR.c **** * Function Name: Tamper_Timer_ISR_Interrupt
 148:.\Generated_Source\PSoC5/Tamper_Timer_ISR.c **** ********************************************************************************
 149:.\Generated_Source\PSoC5/Tamper_Timer_ISR.c **** *
 150:.\Generated_Source\PSoC5/Tamper_Timer_ISR.c **** * Summary:
 151:.\Generated_Source\PSoC5/Tamper_Timer_ISR.c **** *   The default Interrupt Service Routine for Tamper_Timer_ISR.
 152:.\Generated_Source\PSoC5/Tamper_Timer_ISR.c **** *
 153:.\Generated_Source\PSoC5/Tamper_Timer_ISR.c **** *   Add custom code between the coments to keep the next version of this file
 154:.\Generated_Source\PSoC5/Tamper_Timer_ISR.c **** *   from over writting your code.
 155:.\Generated_Source\PSoC5/Tamper_Timer_ISR.c **** *
 156:.\Generated_Source\PSoC5/Tamper_Timer_ISR.c **** * Parameters:  
 157:.\Generated_Source\PSoC5/Tamper_Timer_ISR.c **** *
 158:.\Generated_Source\PSoC5/Tamper_Timer_ISR.c **** * Return:
 159:.\Generated_Source\PSoC5/Tamper_Timer_ISR.c **** *   None
 160:.\Generated_Source\PSoC5/Tamper_Timer_ISR.c **** *
 161:.\Generated_Source\PSoC5/Tamper_Timer_ISR.c **** *******************************************************************************/
 162:.\Generated_Source\PSoC5/Tamper_Timer_ISR.c **** CY_ISR(Tamper_Timer_ISR_Interrupt)
 163:.\Generated_Source\PSoC5/Tamper_Timer_ISR.c **** {
 145              		.loc 1 163 0
 146              		.cfi_startproc
 147              		@ args = 0, pretend = 0, frame = 0
 148              		@ frame_needed = 1, uses_anonymous_args = 0
 149 0000 80B5     		push	{r7, lr}
 150              		.cfi_def_cfa_offset 8
 151              		.cfi_offset 7, -8
 152              		.cfi_offset 14, -4
 153 0002 00AF     		add	r7, sp, #0
 154              		.cfi_def_cfa_register 7
 164:.\Generated_Source\PSoC5/Tamper_Timer_ISR.c ****     /*  Place your Interrupt code here. */
 165:.\Generated_Source\PSoC5/Tamper_Timer_ISR.c ****     /* `#START Tamper_Timer_ISR_Interrupt` */
 166:.\Generated_Source\PSoC5/Tamper_Timer_ISR.c ****     //This is a 1 ms timer interrupt
 167:.\Generated_Source\PSoC5/Tamper_Timer_ISR.c ****     
 168:.\Generated_Source\PSoC5/Tamper_Timer_ISR.c ****     if ( f2f_acknowledge_active ){
 155              		.loc 1 168 0
 156 0004 174B     		ldr	r3, .L14
 157 0006 1B78     		ldrb	r3, [r3]	@ zero_extendqisi2
 158 0008 002B     		cmp	r3, #0
 159 000a 17D0     		beq	.L9
 169:.\Generated_Source\PSoC5/Tamper_Timer_ISR.c ****         f2f_ack_delay_cnt++;
 160              		.loc 1 169 0
 161 000c 164B     		ldr	r3, .L14+4
 162 000e 1B78     		ldrb	r3, [r3]	@ zero_extendqisi2
 163 0010 0133     		adds	r3, r3, #1
 164 0012 DAB2     		uxtb	r2, r3
 165 0014 144B     		ldr	r3, .L14+4
 166 0016 1A70     		strb	r2, [r3]
 170:.\Generated_Source\PSoC5/Tamper_Timer_ISR.c ****         if (f2f_ack_delay_cnt == 30){
 167              		.loc 1 170 0
 168 0018 134B     		ldr	r3, .L14+4
 169 001a 1B78     		ldrb	r3, [r3]	@ zero_extendqisi2
 170 001c 1E2B     		cmp	r3, #30
 171 001e 02D1     		bne	.L10
 171:.\Generated_Source\PSoC5/Tamper_Timer_ISR.c ****             PS_D1_Write(1);
ARM GAS  C:\Users\Yiquing\AppData\Local\Temp\cc1Tlk1W.s 			page 7


 172              		.loc 1 171 0
 173 0020 0120     		movs	r0, #1
 174 0022 FFF7FEFF 		bl	PS_D1_Write
 175              	.L10:
 172:.\Generated_Source\PSoC5/Tamper_Timer_ISR.c ****         }
 173:.\Generated_Source\PSoC5/Tamper_Timer_ISR.c ****         if (f2f_ack_delay_cnt == 35){
 176              		.loc 1 173 0
 177 0026 104B     		ldr	r3, .L14+4
 178 0028 1B78     		ldrb	r3, [r3]	@ zero_extendqisi2
 179 002a 232B     		cmp	r3, #35
 180 002c 09D1     		bne	.L12
 174:.\Generated_Source\PSoC5/Tamper_Timer_ISR.c ****             PS_D1_Write(0);
 181              		.loc 1 174 0
 182 002e 0020     		movs	r0, #0
 183 0030 FFF7FEFF 		bl	PS_D1_Write
 175:.\Generated_Source\PSoC5/Tamper_Timer_ISR.c ****             f2f_acknowledge_active = 0;
 184              		.loc 1 175 0
 185 0034 0B4B     		ldr	r3, .L14
 186 0036 0022     		movs	r2, #0
 187 0038 1A70     		strb	r2, [r3]
 188 003a 02E0     		b	.L12
 189              	.L9:
 176:.\Generated_Source\PSoC5/Tamper_Timer_ISR.c ****         }
 177:.\Generated_Source\PSoC5/Tamper_Timer_ISR.c ****     }else{
 178:.\Generated_Source\PSoC5/Tamper_Timer_ISR.c ****         PS_D1_Write(0);
 190              		.loc 1 178 0
 191 003c 0020     		movs	r0, #0
 192 003e FFF7FEFF 		bl	PS_D1_Write
 193              	.L12:
 179:.\Generated_Source\PSoC5/Tamper_Timer_ISR.c ****     }
 180:.\Generated_Source\PSoC5/Tamper_Timer_ISR.c ****     
 181:.\Generated_Source\PSoC5/Tamper_Timer_ISR.c ****     if (buttonPressed){
 194              		.loc 1 181 0
 195 0042 0A4B     		ldr	r3, .L14+8
 196 0044 1B78     		ldrb	r3, [r3]	@ zero_extendqisi2
 197 0046 002B     		cmp	r3, #0
 198 0048 04D0     		beq	.L13
 182:.\Generated_Source\PSoC5/Tamper_Timer_ISR.c ****         buttonDuration++;
 199              		.loc 1 182 0
 200 004a 094B     		ldr	r3, .L14+12
 201 004c 1B68     		ldr	r3, [r3]
 202 004e 5A1C     		adds	r2, r3, #1
 203 0050 074B     		ldr	r3, .L14+12
 204 0052 1A60     		str	r2, [r3]
 205              	.L13:
 183:.\Generated_Source\PSoC5/Tamper_Timer_ISR.c ****     }    
 184:.\Generated_Source\PSoC5/Tamper_Timer_ISR.c ****     Tamper_Timer_ReadStatusRegister();
 206              		.loc 1 184 0
 207 0054 FFF7FEFF 		bl	Tamper_Timer_ReadStatusRegister
 185:.\Generated_Source\PSoC5/Tamper_Timer_ISR.c ****     HandleOutputs();
 208              		.loc 1 185 0
 209 0058 FFF7FEFF 		bl	HandleOutputs
 186:.\Generated_Source\PSoC5/Tamper_Timer_ISR.c ****     HandleInputs();
 210              		.loc 1 186 0
 211 005c FFF7FEFF 		bl	HandleInputs
 187:.\Generated_Source\PSoC5/Tamper_Timer_ISR.c ****    
 188:.\Generated_Source\PSoC5/Tamper_Timer_ISR.c ****     /* `#END` */
ARM GAS  C:\Users\Yiquing\AppData\Local\Temp\cc1Tlk1W.s 			page 8


 189:.\Generated_Source\PSoC5/Tamper_Timer_ISR.c **** }
 212              		.loc 1 189 0
 213 0060 80BD     		pop	{r7, pc}
 214              	.L15:
 215 0062 00BF     		.align	2
 216              	.L14:
 217 0064 00000000 		.word	f2f_acknowledge_active
 218 0068 00000000 		.word	f2f_ack_delay_cnt
 219 006c 00000000 		.word	buttonPressed
 220 0070 00000000 		.word	buttonDuration
 221              		.cfi_endproc
 222              	.LFE3:
 223              		.size	Tamper_Timer_ISR_Interrupt, .-Tamper_Timer_ISR_Interrupt
 224              		.section	.text.Tamper_Timer_ISR_SetVector,"ax",%progbits
 225              		.align	2
 226              		.global	Tamper_Timer_ISR_SetVector
 227              		.thumb
 228              		.thumb_func
 229              		.type	Tamper_Timer_ISR_SetVector, %function
 230              	Tamper_Timer_ISR_SetVector:
 231              	.LFB4:
 190:.\Generated_Source\PSoC5/Tamper_Timer_ISR.c **** 
 191:.\Generated_Source\PSoC5/Tamper_Timer_ISR.c **** 
 192:.\Generated_Source\PSoC5/Tamper_Timer_ISR.c **** /*******************************************************************************
 193:.\Generated_Source\PSoC5/Tamper_Timer_ISR.c **** * Function Name: Tamper_Timer_ISR_SetVector
 194:.\Generated_Source\PSoC5/Tamper_Timer_ISR.c **** ********************************************************************************
 195:.\Generated_Source\PSoC5/Tamper_Timer_ISR.c **** *
 196:.\Generated_Source\PSoC5/Tamper_Timer_ISR.c **** * Summary:
 197:.\Generated_Source\PSoC5/Tamper_Timer_ISR.c **** *   Change the ISR vector for the Interrupt. Note calling Tamper_Timer_ISR_Start
 198:.\Generated_Source\PSoC5/Tamper_Timer_ISR.c **** *   will override any effect this method would have had. To set the vector 
 199:.\Generated_Source\PSoC5/Tamper_Timer_ISR.c **** *   before the component has been started use Tamper_Timer_ISR_StartEx instead.
 200:.\Generated_Source\PSoC5/Tamper_Timer_ISR.c **** * 
 201:.\Generated_Source\PSoC5/Tamper_Timer_ISR.c **** *   When defining ISR functions, the CY_ISR and CY_ISR_PROTO macros should be 
 202:.\Generated_Source\PSoC5/Tamper_Timer_ISR.c **** *   used to provide consistent definition across compilers:
 203:.\Generated_Source\PSoC5/Tamper_Timer_ISR.c **** *
 204:.\Generated_Source\PSoC5/Tamper_Timer_ISR.c **** *   Function definition example:
 205:.\Generated_Source\PSoC5/Tamper_Timer_ISR.c **** *   CY_ISR(MyISR)
 206:.\Generated_Source\PSoC5/Tamper_Timer_ISR.c **** *   {
 207:.\Generated_Source\PSoC5/Tamper_Timer_ISR.c **** *   }
 208:.\Generated_Source\PSoC5/Tamper_Timer_ISR.c **** *
 209:.\Generated_Source\PSoC5/Tamper_Timer_ISR.c **** *   Function prototype example:
 210:.\Generated_Source\PSoC5/Tamper_Timer_ISR.c **** *     CY_ISR_PROTO(MyISR);
 211:.\Generated_Source\PSoC5/Tamper_Timer_ISR.c **** *
 212:.\Generated_Source\PSoC5/Tamper_Timer_ISR.c **** * Parameters:
 213:.\Generated_Source\PSoC5/Tamper_Timer_ISR.c **** *   address: Address of the ISR to set in the interrupt vector table.
 214:.\Generated_Source\PSoC5/Tamper_Timer_ISR.c **** *
 215:.\Generated_Source\PSoC5/Tamper_Timer_ISR.c **** * Return:
 216:.\Generated_Source\PSoC5/Tamper_Timer_ISR.c **** *   None
 217:.\Generated_Source\PSoC5/Tamper_Timer_ISR.c **** *
 218:.\Generated_Source\PSoC5/Tamper_Timer_ISR.c **** *******************************************************************************/
 219:.\Generated_Source\PSoC5/Tamper_Timer_ISR.c **** void Tamper_Timer_ISR_SetVector(cyisraddress address)
 220:.\Generated_Source\PSoC5/Tamper_Timer_ISR.c **** {
 232              		.loc 1 220 0
 233              		.cfi_startproc
 234              		@ args = 0, pretend = 0, frame = 16
 235              		@ frame_needed = 1, uses_anonymous_args = 0
 236              		@ link register save eliminated.
ARM GAS  C:\Users\Yiquing\AppData\Local\Temp\cc1Tlk1W.s 			page 9


 237 0000 80B4     		push	{r7}
 238              		.cfi_def_cfa_offset 4
 239              		.cfi_offset 7, -4
 240 0002 85B0     		sub	sp, sp, #20
 241              		.cfi_def_cfa_offset 24
 242 0004 00AF     		add	r7, sp, #0
 243              		.cfi_def_cfa_register 7
 244 0006 7860     		str	r0, [r7, #4]
 221:.\Generated_Source\PSoC5/Tamper_Timer_ISR.c ****     cyisraddress * ramVectorTable;
 222:.\Generated_Source\PSoC5/Tamper_Timer_ISR.c **** 
 223:.\Generated_Source\PSoC5/Tamper_Timer_ISR.c ****     ramVectorTable = (cyisraddress *) *CYINT_VECT_TABLE;
 245              		.loc 1 223 0
 246 0008 054B     		ldr	r3, .L17
 247 000a 1B68     		ldr	r3, [r3]
 248 000c FB60     		str	r3, [r7, #12]
 224:.\Generated_Source\PSoC5/Tamper_Timer_ISR.c **** 
 225:.\Generated_Source\PSoC5/Tamper_Timer_ISR.c ****     ramVectorTable[CYINT_IRQ_BASE + (uint32)Tamper_Timer_ISR__INTC_NUMBER] = address;
 249              		.loc 1 225 0
 250 000e FB68     		ldr	r3, [r7, #12]
 251 0010 8433     		adds	r3, r3, #132
 252 0012 7A68     		ldr	r2, [r7, #4]
 253 0014 1A60     		str	r2, [r3]
 226:.\Generated_Source\PSoC5/Tamper_Timer_ISR.c **** }
 254              		.loc 1 226 0
 255 0016 1437     		adds	r7, r7, #20
 256 0018 BD46     		mov	sp, r7
 257              		@ sp needed
 258 001a 5DF8047B 		ldr	r7, [sp], #4
 259 001e 7047     		bx	lr
 260              	.L18:
 261              		.align	2
 262              	.L17:
 263 0020 08ED00E0 		.word	-536810232
 264              		.cfi_endproc
 265              	.LFE4:
 266              		.size	Tamper_Timer_ISR_SetVector, .-Tamper_Timer_ISR_SetVector
 267              		.section	.text.Tamper_Timer_ISR_GetVector,"ax",%progbits
 268              		.align	2
 269              		.global	Tamper_Timer_ISR_GetVector
 270              		.thumb
 271              		.thumb_func
 272              		.type	Tamper_Timer_ISR_GetVector, %function
 273              	Tamper_Timer_ISR_GetVector:
 274              	.LFB5:
 227:.\Generated_Source\PSoC5/Tamper_Timer_ISR.c **** 
 228:.\Generated_Source\PSoC5/Tamper_Timer_ISR.c **** 
 229:.\Generated_Source\PSoC5/Tamper_Timer_ISR.c **** /*******************************************************************************
 230:.\Generated_Source\PSoC5/Tamper_Timer_ISR.c **** * Function Name: Tamper_Timer_ISR_GetVector
 231:.\Generated_Source\PSoC5/Tamper_Timer_ISR.c **** ********************************************************************************
 232:.\Generated_Source\PSoC5/Tamper_Timer_ISR.c **** *
 233:.\Generated_Source\PSoC5/Tamper_Timer_ISR.c **** * Summary:
 234:.\Generated_Source\PSoC5/Tamper_Timer_ISR.c **** *   Gets the "address" of the current ISR vector for the Interrupt.
 235:.\Generated_Source\PSoC5/Tamper_Timer_ISR.c **** *
 236:.\Generated_Source\PSoC5/Tamper_Timer_ISR.c **** * Parameters:
 237:.\Generated_Source\PSoC5/Tamper_Timer_ISR.c **** *   None
 238:.\Generated_Source\PSoC5/Tamper_Timer_ISR.c **** *
 239:.\Generated_Source\PSoC5/Tamper_Timer_ISR.c **** * Return:
ARM GAS  C:\Users\Yiquing\AppData\Local\Temp\cc1Tlk1W.s 			page 10


 240:.\Generated_Source\PSoC5/Tamper_Timer_ISR.c **** *   Address of the ISR in the interrupt vector table.
 241:.\Generated_Source\PSoC5/Tamper_Timer_ISR.c **** *
 242:.\Generated_Source\PSoC5/Tamper_Timer_ISR.c **** *******************************************************************************/
 243:.\Generated_Source\PSoC5/Tamper_Timer_ISR.c **** cyisraddress Tamper_Timer_ISR_GetVector(void)
 244:.\Generated_Source\PSoC5/Tamper_Timer_ISR.c **** {
 275              		.loc 1 244 0
 276              		.cfi_startproc
 277              		@ args = 0, pretend = 0, frame = 8
 278              		@ frame_needed = 1, uses_anonymous_args = 0
 279              		@ link register save eliminated.
 280 0000 80B4     		push	{r7}
 281              		.cfi_def_cfa_offset 4
 282              		.cfi_offset 7, -4
 283 0002 83B0     		sub	sp, sp, #12
 284              		.cfi_def_cfa_offset 16
 285 0004 00AF     		add	r7, sp, #0
 286              		.cfi_def_cfa_register 7
 245:.\Generated_Source\PSoC5/Tamper_Timer_ISR.c ****     cyisraddress * ramVectorTable;
 246:.\Generated_Source\PSoC5/Tamper_Timer_ISR.c **** 
 247:.\Generated_Source\PSoC5/Tamper_Timer_ISR.c ****     ramVectorTable = (cyisraddress *) *CYINT_VECT_TABLE;
 287              		.loc 1 247 0
 288 0006 064B     		ldr	r3, .L21
 289 0008 1B68     		ldr	r3, [r3]
 290 000a 7B60     		str	r3, [r7, #4]
 248:.\Generated_Source\PSoC5/Tamper_Timer_ISR.c **** 
 249:.\Generated_Source\PSoC5/Tamper_Timer_ISR.c ****     return ramVectorTable[CYINT_IRQ_BASE + (uint32)Tamper_Timer_ISR__INTC_NUMBER];
 291              		.loc 1 249 0
 292 000c 7B68     		ldr	r3, [r7, #4]
 293 000e D3F88430 		ldr	r3, [r3, #132]
 250:.\Generated_Source\PSoC5/Tamper_Timer_ISR.c **** }
 294              		.loc 1 250 0
 295 0012 1846     		mov	r0, r3
 296 0014 0C37     		adds	r7, r7, #12
 297 0016 BD46     		mov	sp, r7
 298              		@ sp needed
 299 0018 5DF8047B 		ldr	r7, [sp], #4
 300 001c 7047     		bx	lr
 301              	.L22:
 302 001e 00BF     		.align	2
 303              	.L21:
 304 0020 08ED00E0 		.word	-536810232
 305              		.cfi_endproc
 306              	.LFE5:
 307              		.size	Tamper_Timer_ISR_GetVector, .-Tamper_Timer_ISR_GetVector
 308              		.section	.text.Tamper_Timer_ISR_SetPriority,"ax",%progbits
 309              		.align	2
 310              		.global	Tamper_Timer_ISR_SetPriority
 311              		.thumb
 312              		.thumb_func
 313              		.type	Tamper_Timer_ISR_SetPriority, %function
 314              	Tamper_Timer_ISR_SetPriority:
 315              	.LFB6:
 251:.\Generated_Source\PSoC5/Tamper_Timer_ISR.c **** 
 252:.\Generated_Source\PSoC5/Tamper_Timer_ISR.c **** 
 253:.\Generated_Source\PSoC5/Tamper_Timer_ISR.c **** /*******************************************************************************
 254:.\Generated_Source\PSoC5/Tamper_Timer_ISR.c **** * Function Name: Tamper_Timer_ISR_SetPriority
 255:.\Generated_Source\PSoC5/Tamper_Timer_ISR.c **** ********************************************************************************
ARM GAS  C:\Users\Yiquing\AppData\Local\Temp\cc1Tlk1W.s 			page 11


 256:.\Generated_Source\PSoC5/Tamper_Timer_ISR.c **** *
 257:.\Generated_Source\PSoC5/Tamper_Timer_ISR.c **** * Summary:
 258:.\Generated_Source\PSoC5/Tamper_Timer_ISR.c **** *   Sets the Priority of the Interrupt. 
 259:.\Generated_Source\PSoC5/Tamper_Timer_ISR.c **** *
 260:.\Generated_Source\PSoC5/Tamper_Timer_ISR.c **** *   Note calling Tamper_Timer_ISR_Start or Tamper_Timer_ISR_StartEx will 
 261:.\Generated_Source\PSoC5/Tamper_Timer_ISR.c **** *   override any effect this API would have had. This API should only be called
 262:.\Generated_Source\PSoC5/Tamper_Timer_ISR.c **** *   after Tamper_Timer_ISR_Start or Tamper_Timer_ISR_StartEx has been called. 
 263:.\Generated_Source\PSoC5/Tamper_Timer_ISR.c **** *   To set the initial priority for the component, use the Design-Wide Resources
 264:.\Generated_Source\PSoC5/Tamper_Timer_ISR.c **** *   Interrupt Editor.
 265:.\Generated_Source\PSoC5/Tamper_Timer_ISR.c **** *
 266:.\Generated_Source\PSoC5/Tamper_Timer_ISR.c **** *   Note This API has no effect on Non-maskable interrupt NMI).
 267:.\Generated_Source\PSoC5/Tamper_Timer_ISR.c **** *
 268:.\Generated_Source\PSoC5/Tamper_Timer_ISR.c **** * Parameters:
 269:.\Generated_Source\PSoC5/Tamper_Timer_ISR.c **** *   priority: Priority of the interrupt, 0 being the highest priority
 270:.\Generated_Source\PSoC5/Tamper_Timer_ISR.c **** *             PSoC 3 and PSoC 5LP: Priority is from 0 to 7.
 271:.\Generated_Source\PSoC5/Tamper_Timer_ISR.c **** *             PSoC 4: Priority is from 0 to 3.
 272:.\Generated_Source\PSoC5/Tamper_Timer_ISR.c **** *
 273:.\Generated_Source\PSoC5/Tamper_Timer_ISR.c **** * Return:
 274:.\Generated_Source\PSoC5/Tamper_Timer_ISR.c **** *   None
 275:.\Generated_Source\PSoC5/Tamper_Timer_ISR.c **** *
 276:.\Generated_Source\PSoC5/Tamper_Timer_ISR.c **** *******************************************************************************/
 277:.\Generated_Source\PSoC5/Tamper_Timer_ISR.c **** void Tamper_Timer_ISR_SetPriority(uint8 priority)
 278:.\Generated_Source\PSoC5/Tamper_Timer_ISR.c **** {
 316              		.loc 1 278 0
 317              		.cfi_startproc
 318              		@ args = 0, pretend = 0, frame = 8
 319              		@ frame_needed = 1, uses_anonymous_args = 0
 320              		@ link register save eliminated.
 321 0000 80B4     		push	{r7}
 322              		.cfi_def_cfa_offset 4
 323              		.cfi_offset 7, -4
 324 0002 83B0     		sub	sp, sp, #12
 325              		.cfi_def_cfa_offset 16
 326 0004 00AF     		add	r7, sp, #0
 327              		.cfi_def_cfa_register 7
 328 0006 0346     		mov	r3, r0
 329 0008 FB71     		strb	r3, [r7, #7]
 279:.\Generated_Source\PSoC5/Tamper_Timer_ISR.c ****     *Tamper_Timer_ISR_INTC_PRIOR = priority << 5;
 330              		.loc 1 279 0
 331 000a 054B     		ldr	r3, .L24
 332 000c FA79     		ldrb	r2, [r7, #7]
 333 000e 5201     		lsls	r2, r2, #5
 334 0010 D2B2     		uxtb	r2, r2
 335 0012 1A70     		strb	r2, [r3]
 280:.\Generated_Source\PSoC5/Tamper_Timer_ISR.c **** }
 336              		.loc 1 280 0
 337 0014 0C37     		adds	r7, r7, #12
 338 0016 BD46     		mov	sp, r7
 339              		@ sp needed
 340 0018 5DF8047B 		ldr	r7, [sp], #4
 341 001c 7047     		bx	lr
 342              	.L25:
 343 001e 00BF     		.align	2
 344              	.L24:
 345 0020 11E400E0 		.word	-536812527
 346              		.cfi_endproc
 347              	.LFE6:
ARM GAS  C:\Users\Yiquing\AppData\Local\Temp\cc1Tlk1W.s 			page 12


 348              		.size	Tamper_Timer_ISR_SetPriority, .-Tamper_Timer_ISR_SetPriority
 349              		.section	.text.Tamper_Timer_ISR_GetPriority,"ax",%progbits
 350              		.align	2
 351              		.global	Tamper_Timer_ISR_GetPriority
 352              		.thumb
 353              		.thumb_func
 354              		.type	Tamper_Timer_ISR_GetPriority, %function
 355              	Tamper_Timer_ISR_GetPriority:
 356              	.LFB7:
 281:.\Generated_Source\PSoC5/Tamper_Timer_ISR.c **** 
 282:.\Generated_Source\PSoC5/Tamper_Timer_ISR.c **** 
 283:.\Generated_Source\PSoC5/Tamper_Timer_ISR.c **** /*******************************************************************************
 284:.\Generated_Source\PSoC5/Tamper_Timer_ISR.c **** * Function Name: Tamper_Timer_ISR_GetPriority
 285:.\Generated_Source\PSoC5/Tamper_Timer_ISR.c **** ********************************************************************************
 286:.\Generated_Source\PSoC5/Tamper_Timer_ISR.c **** *
 287:.\Generated_Source\PSoC5/Tamper_Timer_ISR.c **** * Summary:
 288:.\Generated_Source\PSoC5/Tamper_Timer_ISR.c **** *   Gets the Priority of the Interrupt.
 289:.\Generated_Source\PSoC5/Tamper_Timer_ISR.c **** *
 290:.\Generated_Source\PSoC5/Tamper_Timer_ISR.c **** * Parameters:
 291:.\Generated_Source\PSoC5/Tamper_Timer_ISR.c **** *   None
 292:.\Generated_Source\PSoC5/Tamper_Timer_ISR.c **** *
 293:.\Generated_Source\PSoC5/Tamper_Timer_ISR.c **** * Return:
 294:.\Generated_Source\PSoC5/Tamper_Timer_ISR.c **** *   Priority of the interrupt, 0 being the highest priority
 295:.\Generated_Source\PSoC5/Tamper_Timer_ISR.c **** *    PSoC 3 and PSoC 5LP: Priority is from 0 to 7.
 296:.\Generated_Source\PSoC5/Tamper_Timer_ISR.c **** *    PSoC 4: Priority is from 0 to 3.
 297:.\Generated_Source\PSoC5/Tamper_Timer_ISR.c **** *
 298:.\Generated_Source\PSoC5/Tamper_Timer_ISR.c **** *******************************************************************************/
 299:.\Generated_Source\PSoC5/Tamper_Timer_ISR.c **** uint8 Tamper_Timer_ISR_GetPriority(void)
 300:.\Generated_Source\PSoC5/Tamper_Timer_ISR.c **** {
 357              		.loc 1 300 0
 358              		.cfi_startproc
 359              		@ args = 0, pretend = 0, frame = 8
 360              		@ frame_needed = 1, uses_anonymous_args = 0
 361              		@ link register save eliminated.
 362 0000 80B4     		push	{r7}
 363              		.cfi_def_cfa_offset 4
 364              		.cfi_offset 7, -4
 365 0002 83B0     		sub	sp, sp, #12
 366              		.cfi_def_cfa_offset 16
 367 0004 00AF     		add	r7, sp, #0
 368              		.cfi_def_cfa_register 7
 301:.\Generated_Source\PSoC5/Tamper_Timer_ISR.c ****     uint8 priority;
 302:.\Generated_Source\PSoC5/Tamper_Timer_ISR.c **** 
 303:.\Generated_Source\PSoC5/Tamper_Timer_ISR.c **** 
 304:.\Generated_Source\PSoC5/Tamper_Timer_ISR.c ****     priority = *Tamper_Timer_ISR_INTC_PRIOR >> 5;
 369              		.loc 1 304 0
 370 0006 064B     		ldr	r3, .L28
 371 0008 1B78     		ldrb	r3, [r3]
 372 000a DBB2     		uxtb	r3, r3
 373 000c 5B09     		lsrs	r3, r3, #5
 374 000e FB71     		strb	r3, [r7, #7]
 305:.\Generated_Source\PSoC5/Tamper_Timer_ISR.c **** 
 306:.\Generated_Source\PSoC5/Tamper_Timer_ISR.c ****     return priority;
 375              		.loc 1 306 0
 376 0010 FB79     		ldrb	r3, [r7, #7]	@ zero_extendqisi2
 307:.\Generated_Source\PSoC5/Tamper_Timer_ISR.c **** }
 377              		.loc 1 307 0
ARM GAS  C:\Users\Yiquing\AppData\Local\Temp\cc1Tlk1W.s 			page 13


 378 0012 1846     		mov	r0, r3
 379 0014 0C37     		adds	r7, r7, #12
 380 0016 BD46     		mov	sp, r7
 381              		@ sp needed
 382 0018 5DF8047B 		ldr	r7, [sp], #4
 383 001c 7047     		bx	lr
 384              	.L29:
 385 001e 00BF     		.align	2
 386              	.L28:
 387 0020 11E400E0 		.word	-536812527
 388              		.cfi_endproc
 389              	.LFE7:
 390              		.size	Tamper_Timer_ISR_GetPriority, .-Tamper_Timer_ISR_GetPriority
 391              		.section	.text.Tamper_Timer_ISR_Enable,"ax",%progbits
 392              		.align	2
 393              		.global	Tamper_Timer_ISR_Enable
 394              		.thumb
 395              		.thumb_func
 396              		.type	Tamper_Timer_ISR_Enable, %function
 397              	Tamper_Timer_ISR_Enable:
 398              	.LFB8:
 308:.\Generated_Source\PSoC5/Tamper_Timer_ISR.c **** 
 309:.\Generated_Source\PSoC5/Tamper_Timer_ISR.c **** 
 310:.\Generated_Source\PSoC5/Tamper_Timer_ISR.c **** /*******************************************************************************
 311:.\Generated_Source\PSoC5/Tamper_Timer_ISR.c **** * Function Name: Tamper_Timer_ISR_Enable
 312:.\Generated_Source\PSoC5/Tamper_Timer_ISR.c **** ********************************************************************************
 313:.\Generated_Source\PSoC5/Tamper_Timer_ISR.c **** *
 314:.\Generated_Source\PSoC5/Tamper_Timer_ISR.c **** * Summary:
 315:.\Generated_Source\PSoC5/Tamper_Timer_ISR.c **** *   Enables the interrupt to the interrupt controller. Do not call this function
 316:.\Generated_Source\PSoC5/Tamper_Timer_ISR.c **** *   unless ISR_Start() has been called or the functionality of the ISR_Start() 
 317:.\Generated_Source\PSoC5/Tamper_Timer_ISR.c **** *   function, which sets the vector and the priority, has been called.
 318:.\Generated_Source\PSoC5/Tamper_Timer_ISR.c **** *
 319:.\Generated_Source\PSoC5/Tamper_Timer_ISR.c **** * Parameters:
 320:.\Generated_Source\PSoC5/Tamper_Timer_ISR.c **** *   None
 321:.\Generated_Source\PSoC5/Tamper_Timer_ISR.c **** *
 322:.\Generated_Source\PSoC5/Tamper_Timer_ISR.c **** * Return:
 323:.\Generated_Source\PSoC5/Tamper_Timer_ISR.c **** *   None
 324:.\Generated_Source\PSoC5/Tamper_Timer_ISR.c **** *
 325:.\Generated_Source\PSoC5/Tamper_Timer_ISR.c **** *******************************************************************************/
 326:.\Generated_Source\PSoC5/Tamper_Timer_ISR.c **** void Tamper_Timer_ISR_Enable(void)
 327:.\Generated_Source\PSoC5/Tamper_Timer_ISR.c **** {
 399              		.loc 1 327 0
 400              		.cfi_startproc
 401              		@ args = 0, pretend = 0, frame = 0
 402              		@ frame_needed = 1, uses_anonymous_args = 0
 403              		@ link register save eliminated.
 404 0000 80B4     		push	{r7}
 405              		.cfi_def_cfa_offset 4
 406              		.cfi_offset 7, -4
 407 0002 00AF     		add	r7, sp, #0
 408              		.cfi_def_cfa_register 7
 328:.\Generated_Source\PSoC5/Tamper_Timer_ISR.c ****     /* Enable the general interrupt. */
 329:.\Generated_Source\PSoC5/Tamper_Timer_ISR.c ****     *Tamper_Timer_ISR_INTC_SET_EN = Tamper_Timer_ISR__INTC_MASK;
 409              		.loc 1 329 0
 410 0004 034B     		ldr	r3, .L31
 411 0006 4FF40032 		mov	r2, #131072
 412 000a 1A60     		str	r2, [r3]
ARM GAS  C:\Users\Yiquing\AppData\Local\Temp\cc1Tlk1W.s 			page 14


 330:.\Generated_Source\PSoC5/Tamper_Timer_ISR.c **** }
 413              		.loc 1 330 0
 414 000c BD46     		mov	sp, r7
 415              		@ sp needed
 416 000e 5DF8047B 		ldr	r7, [sp], #4
 417 0012 7047     		bx	lr
 418              	.L32:
 419              		.align	2
 420              	.L31:
 421 0014 00E100E0 		.word	-536813312
 422              		.cfi_endproc
 423              	.LFE8:
 424              		.size	Tamper_Timer_ISR_Enable, .-Tamper_Timer_ISR_Enable
 425              		.section	.text.Tamper_Timer_ISR_GetState,"ax",%progbits
 426              		.align	2
 427              		.global	Tamper_Timer_ISR_GetState
 428              		.thumb
 429              		.thumb_func
 430              		.type	Tamper_Timer_ISR_GetState, %function
 431              	Tamper_Timer_ISR_GetState:
 432              	.LFB9:
 331:.\Generated_Source\PSoC5/Tamper_Timer_ISR.c **** 
 332:.\Generated_Source\PSoC5/Tamper_Timer_ISR.c **** 
 333:.\Generated_Source\PSoC5/Tamper_Timer_ISR.c **** /*******************************************************************************
 334:.\Generated_Source\PSoC5/Tamper_Timer_ISR.c **** * Function Name: Tamper_Timer_ISR_GetState
 335:.\Generated_Source\PSoC5/Tamper_Timer_ISR.c **** ********************************************************************************
 336:.\Generated_Source\PSoC5/Tamper_Timer_ISR.c **** *
 337:.\Generated_Source\PSoC5/Tamper_Timer_ISR.c **** * Summary:
 338:.\Generated_Source\PSoC5/Tamper_Timer_ISR.c **** *   Gets the state (enabled, disabled) of the Interrupt.
 339:.\Generated_Source\PSoC5/Tamper_Timer_ISR.c **** *
 340:.\Generated_Source\PSoC5/Tamper_Timer_ISR.c **** * Parameters:
 341:.\Generated_Source\PSoC5/Tamper_Timer_ISR.c **** *   None
 342:.\Generated_Source\PSoC5/Tamper_Timer_ISR.c **** *
 343:.\Generated_Source\PSoC5/Tamper_Timer_ISR.c **** * Return:
 344:.\Generated_Source\PSoC5/Tamper_Timer_ISR.c **** *   1 if enabled, 0 if disabled.
 345:.\Generated_Source\PSoC5/Tamper_Timer_ISR.c **** *
 346:.\Generated_Source\PSoC5/Tamper_Timer_ISR.c **** *******************************************************************************/
 347:.\Generated_Source\PSoC5/Tamper_Timer_ISR.c **** uint8 Tamper_Timer_ISR_GetState(void)
 348:.\Generated_Source\PSoC5/Tamper_Timer_ISR.c **** {
 433              		.loc 1 348 0
 434              		.cfi_startproc
 435              		@ args = 0, pretend = 0, frame = 0
 436              		@ frame_needed = 1, uses_anonymous_args = 0
 437              		@ link register save eliminated.
 438 0000 80B4     		push	{r7}
 439              		.cfi_def_cfa_offset 4
 440              		.cfi_offset 7, -4
 441 0002 00AF     		add	r7, sp, #0
 442              		.cfi_def_cfa_register 7
 349:.\Generated_Source\PSoC5/Tamper_Timer_ISR.c ****     /* Get the state of the general interrupt. */
 350:.\Generated_Source\PSoC5/Tamper_Timer_ISR.c ****     return ((*Tamper_Timer_ISR_INTC_SET_EN & (uint32)Tamper_Timer_ISR__INTC_MASK) != 0u) ? 1u:0u;
 443              		.loc 1 350 0
 444 0004 064B     		ldr	r3, .L37
 445 0006 1B68     		ldr	r3, [r3]
 446 0008 03F40033 		and	r3, r3, #131072
 447 000c 002B     		cmp	r3, #0
 448 000e 01D0     		beq	.L34
ARM GAS  C:\Users\Yiquing\AppData\Local\Temp\cc1Tlk1W.s 			page 15


 449              		.loc 1 350 0 is_stmt 0 discriminator 1
 450 0010 0123     		movs	r3, #1
 451 0012 00E0     		b	.L35
 452              	.L34:
 453              		.loc 1 350 0 discriminator 2
 454 0014 0023     		movs	r3, #0
 455              	.L35:
 351:.\Generated_Source\PSoC5/Tamper_Timer_ISR.c **** }
 456              		.loc 1 351 0 is_stmt 1 discriminator 3
 457 0016 1846     		mov	r0, r3
 458 0018 BD46     		mov	sp, r7
 459              		@ sp needed
 460 001a 5DF8047B 		ldr	r7, [sp], #4
 461 001e 7047     		bx	lr
 462              	.L38:
 463              		.align	2
 464              	.L37:
 465 0020 00E100E0 		.word	-536813312
 466              		.cfi_endproc
 467              	.LFE9:
 468              		.size	Tamper_Timer_ISR_GetState, .-Tamper_Timer_ISR_GetState
 469              		.section	.text.Tamper_Timer_ISR_Disable,"ax",%progbits
 470              		.align	2
 471              		.global	Tamper_Timer_ISR_Disable
 472              		.thumb
 473              		.thumb_func
 474              		.type	Tamper_Timer_ISR_Disable, %function
 475              	Tamper_Timer_ISR_Disable:
 476              	.LFB10:
 352:.\Generated_Source\PSoC5/Tamper_Timer_ISR.c **** 
 353:.\Generated_Source\PSoC5/Tamper_Timer_ISR.c **** 
 354:.\Generated_Source\PSoC5/Tamper_Timer_ISR.c **** /*******************************************************************************
 355:.\Generated_Source\PSoC5/Tamper_Timer_ISR.c **** * Function Name: Tamper_Timer_ISR_Disable
 356:.\Generated_Source\PSoC5/Tamper_Timer_ISR.c **** ********************************************************************************
 357:.\Generated_Source\PSoC5/Tamper_Timer_ISR.c **** *
 358:.\Generated_Source\PSoC5/Tamper_Timer_ISR.c **** * Summary:
 359:.\Generated_Source\PSoC5/Tamper_Timer_ISR.c **** *   Disables the Interrupt in the interrupt controller.
 360:.\Generated_Source\PSoC5/Tamper_Timer_ISR.c **** *
 361:.\Generated_Source\PSoC5/Tamper_Timer_ISR.c **** * Parameters:
 362:.\Generated_Source\PSoC5/Tamper_Timer_ISR.c **** *   None
 363:.\Generated_Source\PSoC5/Tamper_Timer_ISR.c **** *
 364:.\Generated_Source\PSoC5/Tamper_Timer_ISR.c **** * Return:
 365:.\Generated_Source\PSoC5/Tamper_Timer_ISR.c **** *   None
 366:.\Generated_Source\PSoC5/Tamper_Timer_ISR.c **** *
 367:.\Generated_Source\PSoC5/Tamper_Timer_ISR.c **** *******************************************************************************/
 368:.\Generated_Source\PSoC5/Tamper_Timer_ISR.c **** void Tamper_Timer_ISR_Disable(void)
 369:.\Generated_Source\PSoC5/Tamper_Timer_ISR.c **** {
 477              		.loc 1 369 0
 478              		.cfi_startproc
 479              		@ args = 0, pretend = 0, frame = 0
 480              		@ frame_needed = 1, uses_anonymous_args = 0
 481              		@ link register save eliminated.
 482 0000 80B4     		push	{r7}
 483              		.cfi_def_cfa_offset 4
 484              		.cfi_offset 7, -4
 485 0002 00AF     		add	r7, sp, #0
 486              		.cfi_def_cfa_register 7
ARM GAS  C:\Users\Yiquing\AppData\Local\Temp\cc1Tlk1W.s 			page 16


 370:.\Generated_Source\PSoC5/Tamper_Timer_ISR.c ****     /* Disable the general interrupt. */
 371:.\Generated_Source\PSoC5/Tamper_Timer_ISR.c ****     *Tamper_Timer_ISR_INTC_CLR_EN = Tamper_Timer_ISR__INTC_MASK;
 487              		.loc 1 371 0
 488 0004 034B     		ldr	r3, .L40
 489 0006 4FF40032 		mov	r2, #131072
 490 000a 1A60     		str	r2, [r3]
 372:.\Generated_Source\PSoC5/Tamper_Timer_ISR.c **** }
 491              		.loc 1 372 0
 492 000c BD46     		mov	sp, r7
 493              		@ sp needed
 494 000e 5DF8047B 		ldr	r7, [sp], #4
 495 0012 7047     		bx	lr
 496              	.L41:
 497              		.align	2
 498              	.L40:
 499 0014 80E100E0 		.word	-536813184
 500              		.cfi_endproc
 501              	.LFE10:
 502              		.size	Tamper_Timer_ISR_Disable, .-Tamper_Timer_ISR_Disable
 503              		.section	.text.Tamper_Timer_ISR_SetPending,"ax",%progbits
 504              		.align	2
 505              		.global	Tamper_Timer_ISR_SetPending
 506              		.thumb
 507              		.thumb_func
 508              		.type	Tamper_Timer_ISR_SetPending, %function
 509              	Tamper_Timer_ISR_SetPending:
 510              	.LFB11:
 373:.\Generated_Source\PSoC5/Tamper_Timer_ISR.c **** 
 374:.\Generated_Source\PSoC5/Tamper_Timer_ISR.c **** 
 375:.\Generated_Source\PSoC5/Tamper_Timer_ISR.c **** /*******************************************************************************
 376:.\Generated_Source\PSoC5/Tamper_Timer_ISR.c **** * Function Name: Tamper_Timer_ISR_SetPending
 377:.\Generated_Source\PSoC5/Tamper_Timer_ISR.c **** ********************************************************************************
 378:.\Generated_Source\PSoC5/Tamper_Timer_ISR.c **** *
 379:.\Generated_Source\PSoC5/Tamper_Timer_ISR.c **** * Summary:
 380:.\Generated_Source\PSoC5/Tamper_Timer_ISR.c **** *   Causes the Interrupt to enter the pending state, a software method of
 381:.\Generated_Source\PSoC5/Tamper_Timer_ISR.c **** *   generating the interrupt.
 382:.\Generated_Source\PSoC5/Tamper_Timer_ISR.c **** *
 383:.\Generated_Source\PSoC5/Tamper_Timer_ISR.c **** * Parameters:
 384:.\Generated_Source\PSoC5/Tamper_Timer_ISR.c **** *   None
 385:.\Generated_Source\PSoC5/Tamper_Timer_ISR.c **** *
 386:.\Generated_Source\PSoC5/Tamper_Timer_ISR.c **** * Return:
 387:.\Generated_Source\PSoC5/Tamper_Timer_ISR.c **** *   None
 388:.\Generated_Source\PSoC5/Tamper_Timer_ISR.c **** *
 389:.\Generated_Source\PSoC5/Tamper_Timer_ISR.c **** * Side Effects:
 390:.\Generated_Source\PSoC5/Tamper_Timer_ISR.c **** *   If interrupts are enabled and the interrupt is set up properly, the ISR is
 391:.\Generated_Source\PSoC5/Tamper_Timer_ISR.c **** *   entered (depending on the priority of this interrupt and other pending 
 392:.\Generated_Source\PSoC5/Tamper_Timer_ISR.c **** *   interrupts).
 393:.\Generated_Source\PSoC5/Tamper_Timer_ISR.c **** *
 394:.\Generated_Source\PSoC5/Tamper_Timer_ISR.c **** *******************************************************************************/
 395:.\Generated_Source\PSoC5/Tamper_Timer_ISR.c **** void Tamper_Timer_ISR_SetPending(void)
 396:.\Generated_Source\PSoC5/Tamper_Timer_ISR.c **** {
 511              		.loc 1 396 0
 512              		.cfi_startproc
 513              		@ args = 0, pretend = 0, frame = 0
 514              		@ frame_needed = 1, uses_anonymous_args = 0
 515              		@ link register save eliminated.
 516 0000 80B4     		push	{r7}
ARM GAS  C:\Users\Yiquing\AppData\Local\Temp\cc1Tlk1W.s 			page 17


 517              		.cfi_def_cfa_offset 4
 518              		.cfi_offset 7, -4
 519 0002 00AF     		add	r7, sp, #0
 520              		.cfi_def_cfa_register 7
 397:.\Generated_Source\PSoC5/Tamper_Timer_ISR.c ****     *Tamper_Timer_ISR_INTC_SET_PD = Tamper_Timer_ISR__INTC_MASK;
 521              		.loc 1 397 0
 522 0004 034B     		ldr	r3, .L43
 523 0006 4FF40032 		mov	r2, #131072
 524 000a 1A60     		str	r2, [r3]
 398:.\Generated_Source\PSoC5/Tamper_Timer_ISR.c **** }
 525              		.loc 1 398 0
 526 000c BD46     		mov	sp, r7
 527              		@ sp needed
 528 000e 5DF8047B 		ldr	r7, [sp], #4
 529 0012 7047     		bx	lr
 530              	.L44:
 531              		.align	2
 532              	.L43:
 533 0014 00E200E0 		.word	-536813056
 534              		.cfi_endproc
 535              	.LFE11:
 536              		.size	Tamper_Timer_ISR_SetPending, .-Tamper_Timer_ISR_SetPending
 537              		.section	.text.Tamper_Timer_ISR_ClearPending,"ax",%progbits
 538              		.align	2
 539              		.global	Tamper_Timer_ISR_ClearPending
 540              		.thumb
 541              		.thumb_func
 542              		.type	Tamper_Timer_ISR_ClearPending, %function
 543              	Tamper_Timer_ISR_ClearPending:
 544              	.LFB12:
 399:.\Generated_Source\PSoC5/Tamper_Timer_ISR.c **** 
 400:.\Generated_Source\PSoC5/Tamper_Timer_ISR.c **** 
 401:.\Generated_Source\PSoC5/Tamper_Timer_ISR.c **** /*******************************************************************************
 402:.\Generated_Source\PSoC5/Tamper_Timer_ISR.c **** * Function Name: Tamper_Timer_ISR_ClearPending
 403:.\Generated_Source\PSoC5/Tamper_Timer_ISR.c **** ********************************************************************************
 404:.\Generated_Source\PSoC5/Tamper_Timer_ISR.c **** *
 405:.\Generated_Source\PSoC5/Tamper_Timer_ISR.c **** * Summary:
 406:.\Generated_Source\PSoC5/Tamper_Timer_ISR.c **** *   Clears a pending interrupt in the interrupt controller.
 407:.\Generated_Source\PSoC5/Tamper_Timer_ISR.c **** *
 408:.\Generated_Source\PSoC5/Tamper_Timer_ISR.c **** *   Note Some interrupt sources are clear-on-read and require the block 
 409:.\Generated_Source\PSoC5/Tamper_Timer_ISR.c **** *   interrupt/status register to be read/cleared with the appropriate block API 
 410:.\Generated_Source\PSoC5/Tamper_Timer_ISR.c **** *   (GPIO, UART, and so on). Otherwise the ISR will continue to remain in 
 411:.\Generated_Source\PSoC5/Tamper_Timer_ISR.c **** *   pending state even though the interrupt itself is cleared using this API.
 412:.\Generated_Source\PSoC5/Tamper_Timer_ISR.c **** *
 413:.\Generated_Source\PSoC5/Tamper_Timer_ISR.c **** * Parameters:
 414:.\Generated_Source\PSoC5/Tamper_Timer_ISR.c **** *   None
 415:.\Generated_Source\PSoC5/Tamper_Timer_ISR.c **** *
 416:.\Generated_Source\PSoC5/Tamper_Timer_ISR.c **** * Return:
 417:.\Generated_Source\PSoC5/Tamper_Timer_ISR.c **** *   None
 418:.\Generated_Source\PSoC5/Tamper_Timer_ISR.c **** *
 419:.\Generated_Source\PSoC5/Tamper_Timer_ISR.c **** *******************************************************************************/
 420:.\Generated_Source\PSoC5/Tamper_Timer_ISR.c **** void Tamper_Timer_ISR_ClearPending(void)
 421:.\Generated_Source\PSoC5/Tamper_Timer_ISR.c **** {
 545              		.loc 1 421 0
 546              		.cfi_startproc
 547              		@ args = 0, pretend = 0, frame = 0
 548              		@ frame_needed = 1, uses_anonymous_args = 0
ARM GAS  C:\Users\Yiquing\AppData\Local\Temp\cc1Tlk1W.s 			page 18


 549              		@ link register save eliminated.
 550 0000 80B4     		push	{r7}
 551              		.cfi_def_cfa_offset 4
 552              		.cfi_offset 7, -4
 553 0002 00AF     		add	r7, sp, #0
 554              		.cfi_def_cfa_register 7
 422:.\Generated_Source\PSoC5/Tamper_Timer_ISR.c ****     *Tamper_Timer_ISR_INTC_CLR_PD = Tamper_Timer_ISR__INTC_MASK;
 555              		.loc 1 422 0
 556 0004 034B     		ldr	r3, .L46
 557 0006 4FF40032 		mov	r2, #131072
 558 000a 1A60     		str	r2, [r3]
 423:.\Generated_Source\PSoC5/Tamper_Timer_ISR.c **** }
 559              		.loc 1 423 0
 560 000c BD46     		mov	sp, r7
 561              		@ sp needed
 562 000e 5DF8047B 		ldr	r7, [sp], #4
 563 0012 7047     		bx	lr
 564              	.L47:
 565              		.align	2
 566              	.L46:
 567 0014 80E200E0 		.word	-536812928
 568              		.cfi_endproc
 569              	.LFE12:
 570              		.size	Tamper_Timer_ISR_ClearPending, .-Tamper_Timer_ISR_ClearPending
 571              		.text
 572              	.Letext0:
 573              		.file 2 "Generated_Source\\PSoC5/cytypes.h"
 574              		.file 3 "./softuart.h"
 575              		.file 4 "./system.h"