ARM GAS  C:\Users\Yiquing\AppData\Local\Temp\ccF0cyIx.s 			page 1


   1              		.syntax unified
   2              		.cpu cortex-m3
   3              		.fpu softvfp
   4              		.eabi_attribute 20, 1
   5              		.eabi_attribute 21, 1
   6              		.eabi_attribute 23, 3
   7              		.eabi_attribute 24, 1
   8              		.eabi_attribute 25, 1
   9              		.eabi_attribute 26, 1
  10              		.eabi_attribute 30, 6
  11              		.eabi_attribute 34, 1
  12              		.eabi_attribute 18, 4
  13              		.thumb
  14              		.file	"UART_OSDP_READER.c"
  15              		.text
  16              	.Ltext0:
  17              		.cfi_sections	.debug_frame
  18              		.global	UART_OSDP_READER_initVar
  19              		.bss
  20              		.type	UART_OSDP_READER_initVar, %object
  21              		.size	UART_OSDP_READER_initVar, 1
  22              	UART_OSDP_READER_initVar:
  23 0000 00       		.space	1
  24              		.global	UART_OSDP_READER_errorStatus
  25              		.type	UART_OSDP_READER_errorStatus, %object
  26              		.size	UART_OSDP_READER_errorStatus, 1
  27              	UART_OSDP_READER_errorStatus:
  28 0001 00       		.space	1
  29              		.comm	UART_OSDP_READER_rxBuffer,128,4
  30              		.global	UART_OSDP_READER_rxBufferRead
  31              		.type	UART_OSDP_READER_rxBufferRead, %object
  32              		.size	UART_OSDP_READER_rxBufferRead, 1
  33              	UART_OSDP_READER_rxBufferRead:
  34 0002 00       		.space	1
  35              		.global	UART_OSDP_READER_rxBufferWrite
  36              		.type	UART_OSDP_READER_rxBufferWrite, %object
  37              		.size	UART_OSDP_READER_rxBufferWrite, 1
  38              	UART_OSDP_READER_rxBufferWrite:
  39 0003 00       		.space	1
  40              		.global	UART_OSDP_READER_rxBufferLoopDetect
  41              		.type	UART_OSDP_READER_rxBufferLoopDetect, %object
  42              		.size	UART_OSDP_READER_rxBufferLoopDetect, 1
  43              	UART_OSDP_READER_rxBufferLoopDetect:
  44 0004 00       		.space	1
  45              		.global	UART_OSDP_READER_rxBufferOverflow
  46              		.type	UART_OSDP_READER_rxBufferOverflow, %object
  47              		.size	UART_OSDP_READER_rxBufferOverflow, 1
  48              	UART_OSDP_READER_rxBufferOverflow:
  49 0005 00       		.space	1
  50              		.section	.text.UART_OSDP_READER_Start,"ax",%progbits
  51              		.align	2
  52              		.global	UART_OSDP_READER_Start
  53              		.thumb
  54              		.thumb_func
  55              		.type	UART_OSDP_READER_Start, %function
  56              	UART_OSDP_READER_Start:
  57              	.LFB0:
ARM GAS  C:\Users\Yiquing\AppData\Local\Temp\ccF0cyIx.s 			page 2


  58              		.file 1 ".\\Generated_Source\\PSoC5\\UART_OSDP_READER.c"
   1:.\Generated_Source\PSoC5/UART_OSDP_READER.c **** /*******************************************************************************
   2:.\Generated_Source\PSoC5/UART_OSDP_READER.c **** * File Name: UART_OSDP_READER.c
   3:.\Generated_Source\PSoC5/UART_OSDP_READER.c **** * Version 2.50
   4:.\Generated_Source\PSoC5/UART_OSDP_READER.c **** *
   5:.\Generated_Source\PSoC5/UART_OSDP_READER.c **** * Description:
   6:.\Generated_Source\PSoC5/UART_OSDP_READER.c **** *  This file provides all API functionality of the UART component
   7:.\Generated_Source\PSoC5/UART_OSDP_READER.c **** *
   8:.\Generated_Source\PSoC5/UART_OSDP_READER.c **** * Note:
   9:.\Generated_Source\PSoC5/UART_OSDP_READER.c **** *
  10:.\Generated_Source\PSoC5/UART_OSDP_READER.c **** ********************************************************************************
  11:.\Generated_Source\PSoC5/UART_OSDP_READER.c **** * Copyright 2008-2015, Cypress Semiconductor Corporation.  All rights reserved.
  12:.\Generated_Source\PSoC5/UART_OSDP_READER.c **** * You may use this file only in accordance with the license, terms, conditions,
  13:.\Generated_Source\PSoC5/UART_OSDP_READER.c **** * disclaimers, and limitations in the end user license agreement accompanying
  14:.\Generated_Source\PSoC5/UART_OSDP_READER.c **** * the software package with which this file was provided.
  15:.\Generated_Source\PSoC5/UART_OSDP_READER.c **** *******************************************************************************/
  16:.\Generated_Source\PSoC5/UART_OSDP_READER.c **** 
  17:.\Generated_Source\PSoC5/UART_OSDP_READER.c **** #include "UART_OSDP_READER.h"
  18:.\Generated_Source\PSoC5/UART_OSDP_READER.c **** #if (UART_OSDP_READER_INTERNAL_CLOCK_USED)
  19:.\Generated_Source\PSoC5/UART_OSDP_READER.c ****     #include "UART_OSDP_READER_IntClock.h"
  20:.\Generated_Source\PSoC5/UART_OSDP_READER.c **** #endif /* End UART_OSDP_READER_INTERNAL_CLOCK_USED */
  21:.\Generated_Source\PSoC5/UART_OSDP_READER.c **** 
  22:.\Generated_Source\PSoC5/UART_OSDP_READER.c **** 
  23:.\Generated_Source\PSoC5/UART_OSDP_READER.c **** /***************************************
  24:.\Generated_Source\PSoC5/UART_OSDP_READER.c **** * Global data allocation
  25:.\Generated_Source\PSoC5/UART_OSDP_READER.c **** ***************************************/
  26:.\Generated_Source\PSoC5/UART_OSDP_READER.c **** 
  27:.\Generated_Source\PSoC5/UART_OSDP_READER.c **** uint8 UART_OSDP_READER_initVar = 0u;
  28:.\Generated_Source\PSoC5/UART_OSDP_READER.c **** 
  29:.\Generated_Source\PSoC5/UART_OSDP_READER.c **** #if (UART_OSDP_READER_TX_INTERRUPT_ENABLED && UART_OSDP_READER_TX_ENABLED)
  30:.\Generated_Source\PSoC5/UART_OSDP_READER.c ****     volatile uint8 UART_OSDP_READER_txBuffer[UART_OSDP_READER_TX_BUFFER_SIZE];
  31:.\Generated_Source\PSoC5/UART_OSDP_READER.c ****     volatile uint8 UART_OSDP_READER_txBufferRead = 0u;
  32:.\Generated_Source\PSoC5/UART_OSDP_READER.c ****     uint8 UART_OSDP_READER_txBufferWrite = 0u;
  33:.\Generated_Source\PSoC5/UART_OSDP_READER.c **** #endif /* (UART_OSDP_READER_TX_INTERRUPT_ENABLED && UART_OSDP_READER_TX_ENABLED) */
  34:.\Generated_Source\PSoC5/UART_OSDP_READER.c **** 
  35:.\Generated_Source\PSoC5/UART_OSDP_READER.c **** #if (UART_OSDP_READER_RX_INTERRUPT_ENABLED && (UART_OSDP_READER_RX_ENABLED || UART_OSDP_READER_HD_E
  36:.\Generated_Source\PSoC5/UART_OSDP_READER.c ****     uint8 UART_OSDP_READER_errorStatus = 0u;
  37:.\Generated_Source\PSoC5/UART_OSDP_READER.c ****     volatile uint8 UART_OSDP_READER_rxBuffer[UART_OSDP_READER_RX_BUFFER_SIZE];
  38:.\Generated_Source\PSoC5/UART_OSDP_READER.c ****     volatile uint8 UART_OSDP_READER_rxBufferRead  = 0u;
  39:.\Generated_Source\PSoC5/UART_OSDP_READER.c ****     volatile uint8 UART_OSDP_READER_rxBufferWrite = 0u;
  40:.\Generated_Source\PSoC5/UART_OSDP_READER.c ****     volatile uint8 UART_OSDP_READER_rxBufferLoopDetect = 0u;
  41:.\Generated_Source\PSoC5/UART_OSDP_READER.c ****     volatile uint8 UART_OSDP_READER_rxBufferOverflow   = 0u;
  42:.\Generated_Source\PSoC5/UART_OSDP_READER.c ****     #if (UART_OSDP_READER_RXHW_ADDRESS_ENABLED)
  43:.\Generated_Source\PSoC5/UART_OSDP_READER.c ****         volatile uint8 UART_OSDP_READER_rxAddressMode = UART_OSDP_READER_RX_ADDRESS_MODE;
  44:.\Generated_Source\PSoC5/UART_OSDP_READER.c ****         volatile uint8 UART_OSDP_READER_rxAddressDetected = 0u;
  45:.\Generated_Source\PSoC5/UART_OSDP_READER.c ****     #endif /* (UART_OSDP_READER_RXHW_ADDRESS_ENABLED) */
  46:.\Generated_Source\PSoC5/UART_OSDP_READER.c **** #endif /* (UART_OSDP_READER_RX_INTERRUPT_ENABLED && (UART_OSDP_READER_RX_ENABLED || UART_OSDP_READE
  47:.\Generated_Source\PSoC5/UART_OSDP_READER.c **** 
  48:.\Generated_Source\PSoC5/UART_OSDP_READER.c **** 
  49:.\Generated_Source\PSoC5/UART_OSDP_READER.c **** /*******************************************************************************
  50:.\Generated_Source\PSoC5/UART_OSDP_READER.c **** * Function Name: UART_OSDP_READER_Start
  51:.\Generated_Source\PSoC5/UART_OSDP_READER.c **** ********************************************************************************
  52:.\Generated_Source\PSoC5/UART_OSDP_READER.c **** *
  53:.\Generated_Source\PSoC5/UART_OSDP_READER.c **** * Summary:
  54:.\Generated_Source\PSoC5/UART_OSDP_READER.c **** *  This is the preferred method to begin component operation.
  55:.\Generated_Source\PSoC5/UART_OSDP_READER.c **** *  UART_OSDP_READER_Start() sets the initVar variable, calls the
  56:.\Generated_Source\PSoC5/UART_OSDP_READER.c **** *  UART_OSDP_READER_Init() function, and then calls the
ARM GAS  C:\Users\Yiquing\AppData\Local\Temp\ccF0cyIx.s 			page 3


  57:.\Generated_Source\PSoC5/UART_OSDP_READER.c **** *  UART_OSDP_READER_Enable() function.
  58:.\Generated_Source\PSoC5/UART_OSDP_READER.c **** *
  59:.\Generated_Source\PSoC5/UART_OSDP_READER.c **** * Parameters:
  60:.\Generated_Source\PSoC5/UART_OSDP_READER.c **** *  None.
  61:.\Generated_Source\PSoC5/UART_OSDP_READER.c **** *
  62:.\Generated_Source\PSoC5/UART_OSDP_READER.c **** * Return:
  63:.\Generated_Source\PSoC5/UART_OSDP_READER.c **** *  None.
  64:.\Generated_Source\PSoC5/UART_OSDP_READER.c **** *
  65:.\Generated_Source\PSoC5/UART_OSDP_READER.c **** * Global variables:
  66:.\Generated_Source\PSoC5/UART_OSDP_READER.c **** *  The UART_OSDP_READER_intiVar variable is used to indicate initial
  67:.\Generated_Source\PSoC5/UART_OSDP_READER.c **** *  configuration of this component. The variable is initialized to zero (0u)
  68:.\Generated_Source\PSoC5/UART_OSDP_READER.c **** *  and set to one (1u) the first time UART_OSDP_READER_Start() is called. This
  69:.\Generated_Source\PSoC5/UART_OSDP_READER.c **** *  allows for component initialization without re-initialization in all
  70:.\Generated_Source\PSoC5/UART_OSDP_READER.c **** *  subsequent calls to the UART_OSDP_READER_Start() routine.
  71:.\Generated_Source\PSoC5/UART_OSDP_READER.c **** *
  72:.\Generated_Source\PSoC5/UART_OSDP_READER.c **** * Reentrant:
  73:.\Generated_Source\PSoC5/UART_OSDP_READER.c **** *  No.
  74:.\Generated_Source\PSoC5/UART_OSDP_READER.c **** *
  75:.\Generated_Source\PSoC5/UART_OSDP_READER.c **** *******************************************************************************/
  76:.\Generated_Source\PSoC5/UART_OSDP_READER.c **** void UART_OSDP_READER_Start(void) 
  77:.\Generated_Source\PSoC5/UART_OSDP_READER.c **** {
  59              		.loc 1 77 0
  60              		.cfi_startproc
  61              		@ args = 0, pretend = 0, frame = 0
  62              		@ frame_needed = 1, uses_anonymous_args = 0
  63 0000 80B5     		push	{r7, lr}
  64              		.cfi_def_cfa_offset 8
  65              		.cfi_offset 7, -8
  66              		.cfi_offset 14, -4
  67 0002 00AF     		add	r7, sp, #0
  68              		.cfi_def_cfa_register 7
  78:.\Generated_Source\PSoC5/UART_OSDP_READER.c ****     /* If not initialized then initialize all required hardware and software */
  79:.\Generated_Source\PSoC5/UART_OSDP_READER.c ****     if(UART_OSDP_READER_initVar == 0u)
  69              		.loc 1 79 0
  70 0004 054B     		ldr	r3, .L3
  71 0006 1B78     		ldrb	r3, [r3]	@ zero_extendqisi2
  72 0008 002B     		cmp	r3, #0
  73 000a 04D1     		bne	.L2
  80:.\Generated_Source\PSoC5/UART_OSDP_READER.c ****     {
  81:.\Generated_Source\PSoC5/UART_OSDP_READER.c ****         UART_OSDP_READER_Init();
  74              		.loc 1 81 0
  75 000c FFF7FEFF 		bl	UART_OSDP_READER_Init
  82:.\Generated_Source\PSoC5/UART_OSDP_READER.c ****         UART_OSDP_READER_initVar = 1u;
  76              		.loc 1 82 0
  77 0010 024B     		ldr	r3, .L3
  78 0012 0122     		movs	r2, #1
  79 0014 1A70     		strb	r2, [r3]
  80              	.L2:
  83:.\Generated_Source\PSoC5/UART_OSDP_READER.c ****     }
  84:.\Generated_Source\PSoC5/UART_OSDP_READER.c **** 
  85:.\Generated_Source\PSoC5/UART_OSDP_READER.c ****     UART_OSDP_READER_Enable();
  81              		.loc 1 85 0
  82 0016 FFF7FEFF 		bl	UART_OSDP_READER_Enable
  86:.\Generated_Source\PSoC5/UART_OSDP_READER.c **** }
  83              		.loc 1 86 0
  84 001a 80BD     		pop	{r7, pc}
  85              	.L4:
ARM GAS  C:\Users\Yiquing\AppData\Local\Temp\ccF0cyIx.s 			page 4


  86              		.align	2
  87              	.L3:
  88 001c 00000000 		.word	UART_OSDP_READER_initVar
  89              		.cfi_endproc
  90              	.LFE0:
  91              		.size	UART_OSDP_READER_Start, .-UART_OSDP_READER_Start
  92              		.section	.text.UART_OSDP_READER_Init,"ax",%progbits
  93              		.align	2
  94              		.global	UART_OSDP_READER_Init
  95              		.thumb
  96              		.thumb_func
  97              		.type	UART_OSDP_READER_Init, %function
  98              	UART_OSDP_READER_Init:
  99              	.LFB1:
  87:.\Generated_Source\PSoC5/UART_OSDP_READER.c **** 
  88:.\Generated_Source\PSoC5/UART_OSDP_READER.c **** 
  89:.\Generated_Source\PSoC5/UART_OSDP_READER.c **** /*******************************************************************************
  90:.\Generated_Source\PSoC5/UART_OSDP_READER.c **** * Function Name: UART_OSDP_READER_Init
  91:.\Generated_Source\PSoC5/UART_OSDP_READER.c **** ********************************************************************************
  92:.\Generated_Source\PSoC5/UART_OSDP_READER.c **** *
  93:.\Generated_Source\PSoC5/UART_OSDP_READER.c **** * Summary:
  94:.\Generated_Source\PSoC5/UART_OSDP_READER.c **** *  Initializes or restores the component according to the customizer Configure
  95:.\Generated_Source\PSoC5/UART_OSDP_READER.c **** *  dialog settings. It is not necessary to call UART_OSDP_READER_Init() because
  96:.\Generated_Source\PSoC5/UART_OSDP_READER.c **** *  the UART_OSDP_READER_Start() API calls this function and is the preferred
  97:.\Generated_Source\PSoC5/UART_OSDP_READER.c **** *  method to begin component operation.
  98:.\Generated_Source\PSoC5/UART_OSDP_READER.c **** *
  99:.\Generated_Source\PSoC5/UART_OSDP_READER.c **** * Parameters:
 100:.\Generated_Source\PSoC5/UART_OSDP_READER.c **** *  None.
 101:.\Generated_Source\PSoC5/UART_OSDP_READER.c **** *
 102:.\Generated_Source\PSoC5/UART_OSDP_READER.c **** * Return:
 103:.\Generated_Source\PSoC5/UART_OSDP_READER.c **** *  None.
 104:.\Generated_Source\PSoC5/UART_OSDP_READER.c **** *
 105:.\Generated_Source\PSoC5/UART_OSDP_READER.c **** *******************************************************************************/
 106:.\Generated_Source\PSoC5/UART_OSDP_READER.c **** void UART_OSDP_READER_Init(void) 
 107:.\Generated_Source\PSoC5/UART_OSDP_READER.c **** {
 100              		.loc 1 107 0
 101              		.cfi_startproc
 102              		@ args = 0, pretend = 0, frame = 0
 103              		@ frame_needed = 1, uses_anonymous_args = 0
 104 0000 80B5     		push	{r7, lr}
 105              		.cfi_def_cfa_offset 8
 106              		.cfi_offset 7, -8
 107              		.cfi_offset 14, -4
 108 0002 00AF     		add	r7, sp, #0
 109              		.cfi_def_cfa_register 7
 108:.\Generated_Source\PSoC5/UART_OSDP_READER.c ****     #if(UART_OSDP_READER_RX_ENABLED || UART_OSDP_READER_HD_ENABLED)
 109:.\Generated_Source\PSoC5/UART_OSDP_READER.c **** 
 110:.\Generated_Source\PSoC5/UART_OSDP_READER.c ****         #if (UART_OSDP_READER_RX_INTERRUPT_ENABLED)
 111:.\Generated_Source\PSoC5/UART_OSDP_READER.c ****             /* Set RX interrupt vector and priority */
 112:.\Generated_Source\PSoC5/UART_OSDP_READER.c ****             (void) CyIntSetVector(UART_OSDP_READER_RX_VECT_NUM, &UART_OSDP_READER_RXISR);
 110              		.loc 1 112 0
 111 0004 0120     		movs	r0, #1
 112 0006 0849     		ldr	r1, .L6
 113 0008 FFF7FEFF 		bl	CyIntSetVector
 113:.\Generated_Source\PSoC5/UART_OSDP_READER.c ****             CyIntSetPriority(UART_OSDP_READER_RX_VECT_NUM, UART_OSDP_READER_RX_PRIOR_NUM);
 114              		.loc 1 113 0
 115 000c 0120     		movs	r0, #1
ARM GAS  C:\Users\Yiquing\AppData\Local\Temp\ccF0cyIx.s 			page 5


 116 000e 0721     		movs	r1, #7
 117 0010 FFF7FEFF 		bl	CyIntSetPriority
 114:.\Generated_Source\PSoC5/UART_OSDP_READER.c ****             UART_OSDP_READER_errorStatus = 0u;
 118              		.loc 1 114 0
 119 0014 054B     		ldr	r3, .L6+4
 120 0016 0022     		movs	r2, #0
 121 0018 1A70     		strb	r2, [r3]
 115:.\Generated_Source\PSoC5/UART_OSDP_READER.c ****         #endif /* (UART_OSDP_READER_RX_INTERRUPT_ENABLED) */
 116:.\Generated_Source\PSoC5/UART_OSDP_READER.c **** 
 117:.\Generated_Source\PSoC5/UART_OSDP_READER.c ****         #if (UART_OSDP_READER_RXHW_ADDRESS_ENABLED)
 118:.\Generated_Source\PSoC5/UART_OSDP_READER.c ****             UART_OSDP_READER_SetRxAddressMode(UART_OSDP_READER_RX_ADDRESS_MODE);
 119:.\Generated_Source\PSoC5/UART_OSDP_READER.c ****             UART_OSDP_READER_SetRxAddress1(UART_OSDP_READER_RX_HW_ADDRESS1);
 120:.\Generated_Source\PSoC5/UART_OSDP_READER.c ****             UART_OSDP_READER_SetRxAddress2(UART_OSDP_READER_RX_HW_ADDRESS2);
 121:.\Generated_Source\PSoC5/UART_OSDP_READER.c ****         #endif /* End UART_OSDP_READER_RXHW_ADDRESS_ENABLED */
 122:.\Generated_Source\PSoC5/UART_OSDP_READER.c **** 
 123:.\Generated_Source\PSoC5/UART_OSDP_READER.c ****         /* Init Count7 period */
 124:.\Generated_Source\PSoC5/UART_OSDP_READER.c ****         UART_OSDP_READER_RXBITCTR_PERIOD_REG = UART_OSDP_READER_RXBITCTR_INIT;
 122              		.loc 1 124 0
 123 001a 054B     		ldr	r3, .L6+8
 124 001c 7222     		movs	r2, #114
 125 001e 1A70     		strb	r2, [r3]
 125:.\Generated_Source\PSoC5/UART_OSDP_READER.c ****         /* Configure the Initial RX interrupt mask */
 126:.\Generated_Source\PSoC5/UART_OSDP_READER.c ****         UART_OSDP_READER_RXSTATUS_MASK_REG  = UART_OSDP_READER_INIT_RX_INTERRUPTS_MASK;
 126              		.loc 1 126 0
 127 0020 044B     		ldr	r3, .L6+12
 128 0022 2022     		movs	r2, #32
 129 0024 1A70     		strb	r2, [r3]
 127:.\Generated_Source\PSoC5/UART_OSDP_READER.c ****     #endif /* End UART_OSDP_READER_RX_ENABLED || UART_OSDP_READER_HD_ENABLED*/
 128:.\Generated_Source\PSoC5/UART_OSDP_READER.c **** 
 129:.\Generated_Source\PSoC5/UART_OSDP_READER.c ****     #if(UART_OSDP_READER_TX_ENABLED)
 130:.\Generated_Source\PSoC5/UART_OSDP_READER.c ****         #if (UART_OSDP_READER_TX_INTERRUPT_ENABLED)
 131:.\Generated_Source\PSoC5/UART_OSDP_READER.c ****             /* Set TX interrupt vector and priority */
 132:.\Generated_Source\PSoC5/UART_OSDP_READER.c ****             (void) CyIntSetVector(UART_OSDP_READER_TX_VECT_NUM, &UART_OSDP_READER_TXISR);
 133:.\Generated_Source\PSoC5/UART_OSDP_READER.c ****             CyIntSetPriority(UART_OSDP_READER_TX_VECT_NUM, UART_OSDP_READER_TX_PRIOR_NUM);
 134:.\Generated_Source\PSoC5/UART_OSDP_READER.c ****         #endif /* (UART_OSDP_READER_TX_INTERRUPT_ENABLED) */
 135:.\Generated_Source\PSoC5/UART_OSDP_READER.c **** 
 136:.\Generated_Source\PSoC5/UART_OSDP_READER.c ****         /* Write Counter Value for TX Bit Clk Generator*/
 137:.\Generated_Source\PSoC5/UART_OSDP_READER.c ****         #if (UART_OSDP_READER_TXCLKGEN_DP)
 138:.\Generated_Source\PSoC5/UART_OSDP_READER.c ****             UART_OSDP_READER_TXBITCLKGEN_CTR_REG = UART_OSDP_READER_BIT_CENTER;
 139:.\Generated_Source\PSoC5/UART_OSDP_READER.c ****             UART_OSDP_READER_TXBITCLKTX_COMPLETE_REG = ((UART_OSDP_READER_NUMBER_OF_DATA_BITS +
 140:.\Generated_Source\PSoC5/UART_OSDP_READER.c ****                         UART_OSDP_READER_NUMBER_OF_START_BIT) * UART_OSDP_READER_OVER_SAMPLE_COUNT)
 141:.\Generated_Source\PSoC5/UART_OSDP_READER.c ****         #else
 142:.\Generated_Source\PSoC5/UART_OSDP_READER.c ****             UART_OSDP_READER_TXBITCTR_PERIOD_REG = ((UART_OSDP_READER_NUMBER_OF_DATA_BITS +
 143:.\Generated_Source\PSoC5/UART_OSDP_READER.c ****                         UART_OSDP_READER_NUMBER_OF_START_BIT) * UART_OSDP_READER_OVER_SAMPLE_8) - 1
 144:.\Generated_Source\PSoC5/UART_OSDP_READER.c ****         #endif /* End UART_OSDP_READER_TXCLKGEN_DP */
 145:.\Generated_Source\PSoC5/UART_OSDP_READER.c **** 
 146:.\Generated_Source\PSoC5/UART_OSDP_READER.c ****         /* Configure the Initial TX interrupt mask */
 147:.\Generated_Source\PSoC5/UART_OSDP_READER.c ****         #if (UART_OSDP_READER_TX_INTERRUPT_ENABLED)
 148:.\Generated_Source\PSoC5/UART_OSDP_READER.c ****             UART_OSDP_READER_TXSTATUS_MASK_REG = UART_OSDP_READER_TX_STS_FIFO_EMPTY;
 149:.\Generated_Source\PSoC5/UART_OSDP_READER.c ****         #else
 150:.\Generated_Source\PSoC5/UART_OSDP_READER.c ****             UART_OSDP_READER_TXSTATUS_MASK_REG = UART_OSDP_READER_INIT_TX_INTERRUPTS_MASK;
 151:.\Generated_Source\PSoC5/UART_OSDP_READER.c ****         #endif /*End UART_OSDP_READER_TX_INTERRUPT_ENABLED*/
 152:.\Generated_Source\PSoC5/UART_OSDP_READER.c **** 
 153:.\Generated_Source\PSoC5/UART_OSDP_READER.c ****     #endif /* End UART_OSDP_READER_TX_ENABLED */
 154:.\Generated_Source\PSoC5/UART_OSDP_READER.c **** 
 155:.\Generated_Source\PSoC5/UART_OSDP_READER.c ****     #if(UART_OSDP_READER_PARITY_TYPE_SW)  /* Write Parity to Control Register */
 156:.\Generated_Source\PSoC5/UART_OSDP_READER.c ****         UART_OSDP_READER_WriteControlRegister( \
ARM GAS  C:\Users\Yiquing\AppData\Local\Temp\ccF0cyIx.s 			page 6


 157:.\Generated_Source\PSoC5/UART_OSDP_READER.c ****             (UART_OSDP_READER_ReadControlRegister() & (uint8)~UART_OSDP_READER_CTRL_PARITY_TYPE_MAS
 158:.\Generated_Source\PSoC5/UART_OSDP_READER.c ****             (uint8)(UART_OSDP_READER_PARITY_TYPE << UART_OSDP_READER_CTRL_PARITY_TYPE0_SHIFT) );
 159:.\Generated_Source\PSoC5/UART_OSDP_READER.c ****     #endif /* End UART_OSDP_READER_PARITY_TYPE_SW */
 160:.\Generated_Source\PSoC5/UART_OSDP_READER.c **** }
 130              		.loc 1 160 0
 131 0026 80BD     		pop	{r7, pc}
 132              	.L7:
 133              		.align	2
 134              	.L6:
 135 0028 00000000 		.word	UART_OSDP_READER_RXISR
 136 002c 00000000 		.word	UART_OSDP_READER_errorStatus
 137 0030 85650040 		.word	1073767813
 138 0034 87640040 		.word	1073767559
 139              		.cfi_endproc
 140              	.LFE1:
 141              		.size	UART_OSDP_READER_Init, .-UART_OSDP_READER_Init
 142              		.section	.text.UART_OSDP_READER_Enable,"ax",%progbits
 143              		.align	2
 144              		.global	UART_OSDP_READER_Enable
 145              		.thumb
 146              		.thumb_func
 147              		.type	UART_OSDP_READER_Enable, %function
 148              	UART_OSDP_READER_Enable:
 149              	.LFB2:
 161:.\Generated_Source\PSoC5/UART_OSDP_READER.c **** 
 162:.\Generated_Source\PSoC5/UART_OSDP_READER.c **** 
 163:.\Generated_Source\PSoC5/UART_OSDP_READER.c **** /*******************************************************************************
 164:.\Generated_Source\PSoC5/UART_OSDP_READER.c **** * Function Name: UART_OSDP_READER_Enable
 165:.\Generated_Source\PSoC5/UART_OSDP_READER.c **** ********************************************************************************
 166:.\Generated_Source\PSoC5/UART_OSDP_READER.c **** *
 167:.\Generated_Source\PSoC5/UART_OSDP_READER.c **** * Summary:
 168:.\Generated_Source\PSoC5/UART_OSDP_READER.c **** *  Activates the hardware and begins component operation. It is not necessary
 169:.\Generated_Source\PSoC5/UART_OSDP_READER.c **** *  to call UART_OSDP_READER_Enable() because the UART_OSDP_READER_Start() API
 170:.\Generated_Source\PSoC5/UART_OSDP_READER.c **** *  calls this function, which is the preferred method to begin component
 171:.\Generated_Source\PSoC5/UART_OSDP_READER.c **** *  operation.
 172:.\Generated_Source\PSoC5/UART_OSDP_READER.c **** 
 173:.\Generated_Source\PSoC5/UART_OSDP_READER.c **** * Parameters:
 174:.\Generated_Source\PSoC5/UART_OSDP_READER.c **** *  None.
 175:.\Generated_Source\PSoC5/UART_OSDP_READER.c **** *
 176:.\Generated_Source\PSoC5/UART_OSDP_READER.c **** * Return:
 177:.\Generated_Source\PSoC5/UART_OSDP_READER.c **** *  None.
 178:.\Generated_Source\PSoC5/UART_OSDP_READER.c **** *
 179:.\Generated_Source\PSoC5/UART_OSDP_READER.c **** * Global Variables:
 180:.\Generated_Source\PSoC5/UART_OSDP_READER.c **** *  UART_OSDP_READER_rxAddressDetected - set to initial state (0).
 181:.\Generated_Source\PSoC5/UART_OSDP_READER.c **** *
 182:.\Generated_Source\PSoC5/UART_OSDP_READER.c **** *******************************************************************************/
 183:.\Generated_Source\PSoC5/UART_OSDP_READER.c **** void UART_OSDP_READER_Enable(void) 
 184:.\Generated_Source\PSoC5/UART_OSDP_READER.c **** {
 150              		.loc 1 184 0
 151              		.cfi_startproc
 152              		@ args = 0, pretend = 0, frame = 8
 153              		@ frame_needed = 1, uses_anonymous_args = 0
 154 0000 80B5     		push	{r7, lr}
 155              		.cfi_def_cfa_offset 8
 156              		.cfi_offset 7, -8
 157              		.cfi_offset 14, -4
 158 0002 82B0     		sub	sp, sp, #8
ARM GAS  C:\Users\Yiquing\AppData\Local\Temp\ccF0cyIx.s 			page 7


 159              		.cfi_def_cfa_offset 16
 160 0004 00AF     		add	r7, sp, #0
 161              		.cfi_def_cfa_register 7
 185:.\Generated_Source\PSoC5/UART_OSDP_READER.c ****     uint8 enableInterrupts;
 186:.\Generated_Source\PSoC5/UART_OSDP_READER.c ****     enableInterrupts = CyEnterCriticalSection();
 162              		.loc 1 186 0
 163 0006 FFF7FEFF 		bl	CyEnterCriticalSection
 164 000a 0346     		mov	r3, r0
 165 000c FB71     		strb	r3, [r7, #7]
 187:.\Generated_Source\PSoC5/UART_OSDP_READER.c **** 
 188:.\Generated_Source\PSoC5/UART_OSDP_READER.c ****     #if (UART_OSDP_READER_RX_ENABLED || UART_OSDP_READER_HD_ENABLED)
 189:.\Generated_Source\PSoC5/UART_OSDP_READER.c ****         /* RX Counter (Count7) Enable */
 190:.\Generated_Source\PSoC5/UART_OSDP_READER.c ****         UART_OSDP_READER_RXBITCTR_CONTROL_REG |= UART_OSDP_READER_CNTR_ENABLE;
 166              		.loc 1 190 0
 167 000e 0D4B     		ldr	r3, .L9
 168 0010 0C4A     		ldr	r2, .L9
 169 0012 1278     		ldrb	r2, [r2]
 170 0014 D2B2     		uxtb	r2, r2
 171 0016 42F02002 		orr	r2, r2, #32
 172 001a D2B2     		uxtb	r2, r2
 173 001c 1A70     		strb	r2, [r3]
 191:.\Generated_Source\PSoC5/UART_OSDP_READER.c **** 
 192:.\Generated_Source\PSoC5/UART_OSDP_READER.c ****         /* Enable the RX Interrupt */
 193:.\Generated_Source\PSoC5/UART_OSDP_READER.c ****         UART_OSDP_READER_RXSTATUS_ACTL_REG  |= UART_OSDP_READER_INT_ENABLE;
 174              		.loc 1 193 0
 175 001e 0A4B     		ldr	r3, .L9+4
 176 0020 094A     		ldr	r2, .L9+4
 177 0022 1278     		ldrb	r2, [r2]
 178 0024 D2B2     		uxtb	r2, r2
 179 0026 42F01002 		orr	r2, r2, #16
 180 002a D2B2     		uxtb	r2, r2
 181 002c 1A70     		strb	r2, [r3]
 194:.\Generated_Source\PSoC5/UART_OSDP_READER.c **** 
 195:.\Generated_Source\PSoC5/UART_OSDP_READER.c ****         #if (UART_OSDP_READER_RX_INTERRUPT_ENABLED)
 196:.\Generated_Source\PSoC5/UART_OSDP_READER.c ****             UART_OSDP_READER_EnableRxInt();
 182              		.loc 1 196 0
 183 002e 074B     		ldr	r3, .L9+8
 184 0030 0222     		movs	r2, #2
 185 0032 1A60     		str	r2, [r3]
 197:.\Generated_Source\PSoC5/UART_OSDP_READER.c **** 
 198:.\Generated_Source\PSoC5/UART_OSDP_READER.c ****             #if (UART_OSDP_READER_RXHW_ADDRESS_ENABLED)
 199:.\Generated_Source\PSoC5/UART_OSDP_READER.c ****                 UART_OSDP_READER_rxAddressDetected = 0u;
 200:.\Generated_Source\PSoC5/UART_OSDP_READER.c ****             #endif /* (UART_OSDP_READER_RXHW_ADDRESS_ENABLED) */
 201:.\Generated_Source\PSoC5/UART_OSDP_READER.c ****         #endif /* (UART_OSDP_READER_RX_INTERRUPT_ENABLED) */
 202:.\Generated_Source\PSoC5/UART_OSDP_READER.c ****     #endif /* (UART_OSDP_READER_RX_ENABLED || UART_OSDP_READER_HD_ENABLED) */
 203:.\Generated_Source\PSoC5/UART_OSDP_READER.c **** 
 204:.\Generated_Source\PSoC5/UART_OSDP_READER.c ****     #if(UART_OSDP_READER_TX_ENABLED)
 205:.\Generated_Source\PSoC5/UART_OSDP_READER.c ****         /* TX Counter (DP/Count7) Enable */
 206:.\Generated_Source\PSoC5/UART_OSDP_READER.c ****         #if(!UART_OSDP_READER_TXCLKGEN_DP)
 207:.\Generated_Source\PSoC5/UART_OSDP_READER.c ****             UART_OSDP_READER_TXBITCTR_CONTROL_REG |= UART_OSDP_READER_CNTR_ENABLE;
 208:.\Generated_Source\PSoC5/UART_OSDP_READER.c ****         #endif /* End UART_OSDP_READER_TXCLKGEN_DP */
 209:.\Generated_Source\PSoC5/UART_OSDP_READER.c **** 
 210:.\Generated_Source\PSoC5/UART_OSDP_READER.c ****         /* Enable the TX Interrupt */
 211:.\Generated_Source\PSoC5/UART_OSDP_READER.c ****         UART_OSDP_READER_TXSTATUS_ACTL_REG |= UART_OSDP_READER_INT_ENABLE;
 212:.\Generated_Source\PSoC5/UART_OSDP_READER.c ****         #if (UART_OSDP_READER_TX_INTERRUPT_ENABLED)
 213:.\Generated_Source\PSoC5/UART_OSDP_READER.c ****             UART_OSDP_READER_ClearPendingTxInt(); /* Clear history of TX_NOT_EMPTY */
 214:.\Generated_Source\PSoC5/UART_OSDP_READER.c ****             UART_OSDP_READER_EnableTxInt();
ARM GAS  C:\Users\Yiquing\AppData\Local\Temp\ccF0cyIx.s 			page 8


 215:.\Generated_Source\PSoC5/UART_OSDP_READER.c ****         #endif /* (UART_OSDP_READER_TX_INTERRUPT_ENABLED) */
 216:.\Generated_Source\PSoC5/UART_OSDP_READER.c ****      #endif /* (UART_OSDP_READER_TX_INTERRUPT_ENABLED) */
 217:.\Generated_Source\PSoC5/UART_OSDP_READER.c **** 
 218:.\Generated_Source\PSoC5/UART_OSDP_READER.c ****     #if (UART_OSDP_READER_INTERNAL_CLOCK_USED)
 219:.\Generated_Source\PSoC5/UART_OSDP_READER.c ****         UART_OSDP_READER_IntClock_Start();  /* Enable the clock */
 220:.\Generated_Source\PSoC5/UART_OSDP_READER.c ****     #endif /* (UART_OSDP_READER_INTERNAL_CLOCK_USED) */
 221:.\Generated_Source\PSoC5/UART_OSDP_READER.c **** 
 222:.\Generated_Source\PSoC5/UART_OSDP_READER.c ****     CyExitCriticalSection(enableInterrupts);
 186              		.loc 1 222 0
 187 0034 FB79     		ldrb	r3, [r7, #7]	@ zero_extendqisi2
 188 0036 1846     		mov	r0, r3
 189 0038 FFF7FEFF 		bl	CyExitCriticalSection
 223:.\Generated_Source\PSoC5/UART_OSDP_READER.c **** }
 190              		.loc 1 223 0
 191 003c 0837     		adds	r7, r7, #8
 192 003e BD46     		mov	sp, r7
 193              		@ sp needed
 194 0040 80BD     		pop	{r7, pc}
 195              	.L10:
 196 0042 00BF     		.align	2
 197              	.L9:
 198 0044 95650040 		.word	1073767829
 199 0048 97640040 		.word	1073767575
 200 004c 00E100E0 		.word	-536813312
 201              		.cfi_endproc
 202              	.LFE2:
 203              		.size	UART_OSDP_READER_Enable, .-UART_OSDP_READER_Enable
 204              		.section	.text.UART_OSDP_READER_Stop,"ax",%progbits
 205              		.align	2
 206              		.global	UART_OSDP_READER_Stop
 207              		.thumb
 208              		.thumb_func
 209              		.type	UART_OSDP_READER_Stop, %function
 210              	UART_OSDP_READER_Stop:
 211              	.LFB3:
 224:.\Generated_Source\PSoC5/UART_OSDP_READER.c **** 
 225:.\Generated_Source\PSoC5/UART_OSDP_READER.c **** 
 226:.\Generated_Source\PSoC5/UART_OSDP_READER.c **** /*******************************************************************************
 227:.\Generated_Source\PSoC5/UART_OSDP_READER.c **** * Function Name: UART_OSDP_READER_Stop
 228:.\Generated_Source\PSoC5/UART_OSDP_READER.c **** ********************************************************************************
 229:.\Generated_Source\PSoC5/UART_OSDP_READER.c **** *
 230:.\Generated_Source\PSoC5/UART_OSDP_READER.c **** * Summary:
 231:.\Generated_Source\PSoC5/UART_OSDP_READER.c **** *  Disables the UART operation.
 232:.\Generated_Source\PSoC5/UART_OSDP_READER.c **** *
 233:.\Generated_Source\PSoC5/UART_OSDP_READER.c **** * Parameters:
 234:.\Generated_Source\PSoC5/UART_OSDP_READER.c **** *  None.
 235:.\Generated_Source\PSoC5/UART_OSDP_READER.c **** *
 236:.\Generated_Source\PSoC5/UART_OSDP_READER.c **** * Return:
 237:.\Generated_Source\PSoC5/UART_OSDP_READER.c **** *  None.
 238:.\Generated_Source\PSoC5/UART_OSDP_READER.c **** *
 239:.\Generated_Source\PSoC5/UART_OSDP_READER.c **** *******************************************************************************/
 240:.\Generated_Source\PSoC5/UART_OSDP_READER.c **** void UART_OSDP_READER_Stop(void) 
 241:.\Generated_Source\PSoC5/UART_OSDP_READER.c **** {
 212              		.loc 1 241 0
 213              		.cfi_startproc
 214              		@ args = 0, pretend = 0, frame = 8
 215              		@ frame_needed = 1, uses_anonymous_args = 0
ARM GAS  C:\Users\Yiquing\AppData\Local\Temp\ccF0cyIx.s 			page 9


 216 0000 80B5     		push	{r7, lr}
 217              		.cfi_def_cfa_offset 8
 218              		.cfi_offset 7, -8
 219              		.cfi_offset 14, -4
 220 0002 82B0     		sub	sp, sp, #8
 221              		.cfi_def_cfa_offset 16
 222 0004 00AF     		add	r7, sp, #0
 223              		.cfi_def_cfa_register 7
 242:.\Generated_Source\PSoC5/UART_OSDP_READER.c ****     uint8 enableInterrupts;
 243:.\Generated_Source\PSoC5/UART_OSDP_READER.c ****     enableInterrupts = CyEnterCriticalSection();
 224              		.loc 1 243 0
 225 0006 FFF7FEFF 		bl	CyEnterCriticalSection
 226 000a 0346     		mov	r3, r0
 227 000c FB71     		strb	r3, [r7, #7]
 244:.\Generated_Source\PSoC5/UART_OSDP_READER.c **** 
 245:.\Generated_Source\PSoC5/UART_OSDP_READER.c ****     /* Write Bit Counter Disable */
 246:.\Generated_Source\PSoC5/UART_OSDP_READER.c ****     #if (UART_OSDP_READER_RX_ENABLED || UART_OSDP_READER_HD_ENABLED)
 247:.\Generated_Source\PSoC5/UART_OSDP_READER.c ****         UART_OSDP_READER_RXBITCTR_CONTROL_REG &= (uint8) ~UART_OSDP_READER_CNTR_ENABLE;
 228              		.loc 1 247 0
 229 000e 0D4B     		ldr	r3, .L12
 230 0010 0C4A     		ldr	r2, .L12
 231 0012 1278     		ldrb	r2, [r2]
 232 0014 D2B2     		uxtb	r2, r2
 233 0016 22F02002 		bic	r2, r2, #32
 234 001a D2B2     		uxtb	r2, r2
 235 001c 1A70     		strb	r2, [r3]
 248:.\Generated_Source\PSoC5/UART_OSDP_READER.c ****     #endif /* (UART_OSDP_READER_RX_ENABLED || UART_OSDP_READER_HD_ENABLED) */
 249:.\Generated_Source\PSoC5/UART_OSDP_READER.c **** 
 250:.\Generated_Source\PSoC5/UART_OSDP_READER.c ****     #if (UART_OSDP_READER_TX_ENABLED)
 251:.\Generated_Source\PSoC5/UART_OSDP_READER.c ****         #if(!UART_OSDP_READER_TXCLKGEN_DP)
 252:.\Generated_Source\PSoC5/UART_OSDP_READER.c ****             UART_OSDP_READER_TXBITCTR_CONTROL_REG &= (uint8) ~UART_OSDP_READER_CNTR_ENABLE;
 253:.\Generated_Source\PSoC5/UART_OSDP_READER.c ****         #endif /* (!UART_OSDP_READER_TXCLKGEN_DP) */
 254:.\Generated_Source\PSoC5/UART_OSDP_READER.c ****     #endif /* (UART_OSDP_READER_TX_ENABLED) */
 255:.\Generated_Source\PSoC5/UART_OSDP_READER.c **** 
 256:.\Generated_Source\PSoC5/UART_OSDP_READER.c ****     #if (UART_OSDP_READER_INTERNAL_CLOCK_USED)
 257:.\Generated_Source\PSoC5/UART_OSDP_READER.c ****         UART_OSDP_READER_IntClock_Stop();   /* Disable the clock */
 258:.\Generated_Source\PSoC5/UART_OSDP_READER.c ****     #endif /* (UART_OSDP_READER_INTERNAL_CLOCK_USED) */
 259:.\Generated_Source\PSoC5/UART_OSDP_READER.c **** 
 260:.\Generated_Source\PSoC5/UART_OSDP_READER.c ****     /* Disable internal interrupt component */
 261:.\Generated_Source\PSoC5/UART_OSDP_READER.c ****     #if (UART_OSDP_READER_RX_ENABLED || UART_OSDP_READER_HD_ENABLED)
 262:.\Generated_Source\PSoC5/UART_OSDP_READER.c ****         UART_OSDP_READER_RXSTATUS_ACTL_REG  &= (uint8) ~UART_OSDP_READER_INT_ENABLE;
 236              		.loc 1 262 0
 237 001e 0A4B     		ldr	r3, .L12+4
 238 0020 094A     		ldr	r2, .L12+4
 239 0022 1278     		ldrb	r2, [r2]
 240 0024 D2B2     		uxtb	r2, r2
 241 0026 22F01002 		bic	r2, r2, #16
 242 002a D2B2     		uxtb	r2, r2
 243 002c 1A70     		strb	r2, [r3]
 263:.\Generated_Source\PSoC5/UART_OSDP_READER.c **** 
 264:.\Generated_Source\PSoC5/UART_OSDP_READER.c ****         #if (UART_OSDP_READER_RX_INTERRUPT_ENABLED)
 265:.\Generated_Source\PSoC5/UART_OSDP_READER.c ****             UART_OSDP_READER_DisableRxInt();
 244              		.loc 1 265 0
 245 002e 074B     		ldr	r3, .L12+8
 246 0030 0222     		movs	r2, #2
 247 0032 1A60     		str	r2, [r3]
 266:.\Generated_Source\PSoC5/UART_OSDP_READER.c ****         #endif /* (UART_OSDP_READER_RX_INTERRUPT_ENABLED) */
ARM GAS  C:\Users\Yiquing\AppData\Local\Temp\ccF0cyIx.s 			page 10


 267:.\Generated_Source\PSoC5/UART_OSDP_READER.c ****     #endif /* (UART_OSDP_READER_RX_ENABLED || UART_OSDP_READER_HD_ENABLED) */
 268:.\Generated_Source\PSoC5/UART_OSDP_READER.c **** 
 269:.\Generated_Source\PSoC5/UART_OSDP_READER.c ****     #if (UART_OSDP_READER_TX_ENABLED)
 270:.\Generated_Source\PSoC5/UART_OSDP_READER.c ****         UART_OSDP_READER_TXSTATUS_ACTL_REG &= (uint8) ~UART_OSDP_READER_INT_ENABLE;
 271:.\Generated_Source\PSoC5/UART_OSDP_READER.c **** 
 272:.\Generated_Source\PSoC5/UART_OSDP_READER.c ****         #if (UART_OSDP_READER_TX_INTERRUPT_ENABLED)
 273:.\Generated_Source\PSoC5/UART_OSDP_READER.c ****             UART_OSDP_READER_DisableTxInt();
 274:.\Generated_Source\PSoC5/UART_OSDP_READER.c ****         #endif /* (UART_OSDP_READER_TX_INTERRUPT_ENABLED) */
 275:.\Generated_Source\PSoC5/UART_OSDP_READER.c ****     #endif /* (UART_OSDP_READER_TX_ENABLED) */
 276:.\Generated_Source\PSoC5/UART_OSDP_READER.c **** 
 277:.\Generated_Source\PSoC5/UART_OSDP_READER.c ****     CyExitCriticalSection(enableInterrupts);
 248              		.loc 1 277 0
 249 0034 FB79     		ldrb	r3, [r7, #7]	@ zero_extendqisi2
 250 0036 1846     		mov	r0, r3
 251 0038 FFF7FEFF 		bl	CyExitCriticalSection
 278:.\Generated_Source\PSoC5/UART_OSDP_READER.c **** }
 252              		.loc 1 278 0
 253 003c 0837     		adds	r7, r7, #8
 254 003e BD46     		mov	sp, r7
 255              		@ sp needed
 256 0040 80BD     		pop	{r7, pc}
 257              	.L13:
 258 0042 00BF     		.align	2
 259              	.L12:
 260 0044 95650040 		.word	1073767829
 261 0048 97640040 		.word	1073767575
 262 004c 80E100E0 		.word	-536813184
 263              		.cfi_endproc
 264              	.LFE3:
 265              		.size	UART_OSDP_READER_Stop, .-UART_OSDP_READER_Stop
 266              		.section	.text.UART_OSDP_READER_ReadControlRegister,"ax",%progbits
 267              		.align	2
 268              		.global	UART_OSDP_READER_ReadControlRegister
 269              		.thumb
 270              		.thumb_func
 271              		.type	UART_OSDP_READER_ReadControlRegister, %function
 272              	UART_OSDP_READER_ReadControlRegister:
 273              	.LFB4:
 279:.\Generated_Source\PSoC5/UART_OSDP_READER.c **** 
 280:.\Generated_Source\PSoC5/UART_OSDP_READER.c **** 
 281:.\Generated_Source\PSoC5/UART_OSDP_READER.c **** /*******************************************************************************
 282:.\Generated_Source\PSoC5/UART_OSDP_READER.c **** * Function Name: UART_OSDP_READER_ReadControlRegister
 283:.\Generated_Source\PSoC5/UART_OSDP_READER.c **** ********************************************************************************
 284:.\Generated_Source\PSoC5/UART_OSDP_READER.c **** *
 285:.\Generated_Source\PSoC5/UART_OSDP_READER.c **** * Summary:
 286:.\Generated_Source\PSoC5/UART_OSDP_READER.c **** *  Returns the current value of the control register.
 287:.\Generated_Source\PSoC5/UART_OSDP_READER.c **** *
 288:.\Generated_Source\PSoC5/UART_OSDP_READER.c **** * Parameters:
 289:.\Generated_Source\PSoC5/UART_OSDP_READER.c **** *  None.
 290:.\Generated_Source\PSoC5/UART_OSDP_READER.c **** *
 291:.\Generated_Source\PSoC5/UART_OSDP_READER.c **** * Return:
 292:.\Generated_Source\PSoC5/UART_OSDP_READER.c **** *  Contents of the control register.
 293:.\Generated_Source\PSoC5/UART_OSDP_READER.c **** *
 294:.\Generated_Source\PSoC5/UART_OSDP_READER.c **** *******************************************************************************/
 295:.\Generated_Source\PSoC5/UART_OSDP_READER.c **** uint8 UART_OSDP_READER_ReadControlRegister(void) 
 296:.\Generated_Source\PSoC5/UART_OSDP_READER.c **** {
 274              		.loc 1 296 0
ARM GAS  C:\Users\Yiquing\AppData\Local\Temp\ccF0cyIx.s 			page 11


 275              		.cfi_startproc
 276              		@ args = 0, pretend = 0, frame = 0
 277              		@ frame_needed = 1, uses_anonymous_args = 0
 278              		@ link register save eliminated.
 279 0000 80B4     		push	{r7}
 280              		.cfi_def_cfa_offset 4
 281              		.cfi_offset 7, -4
 282 0002 00AF     		add	r7, sp, #0
 283              		.cfi_def_cfa_register 7
 297:.\Generated_Source\PSoC5/UART_OSDP_READER.c ****     #if (UART_OSDP_READER_CONTROL_REG_REMOVED)
 298:.\Generated_Source\PSoC5/UART_OSDP_READER.c ****         return(0u);
 299:.\Generated_Source\PSoC5/UART_OSDP_READER.c ****     #else
 300:.\Generated_Source\PSoC5/UART_OSDP_READER.c ****         return(UART_OSDP_READER_CONTROL_REG);
 284              		.loc 1 300 0
 285 0004 034B     		ldr	r3, .L16
 286 0006 1B78     		ldrb	r3, [r3]
 287 0008 DBB2     		uxtb	r3, r3
 301:.\Generated_Source\PSoC5/UART_OSDP_READER.c ****     #endif /* (UART_OSDP_READER_CONTROL_REG_REMOVED) */
 302:.\Generated_Source\PSoC5/UART_OSDP_READER.c **** }
 288              		.loc 1 302 0
 289 000a 1846     		mov	r0, r3
 290 000c BD46     		mov	sp, r7
 291              		@ sp needed
 292 000e 5DF8047B 		ldr	r7, [sp], #4
 293 0012 7047     		bx	lr
 294              	.L17:
 295              		.align	2
 296              	.L16:
 297 0014 78650040 		.word	1073767800
 298              		.cfi_endproc
 299              	.LFE4:
 300              		.size	UART_OSDP_READER_ReadControlRegister, .-UART_OSDP_READER_ReadControlRegister
 301              		.section	.text.UART_OSDP_READER_WriteControlRegister,"ax",%progbits
 302              		.align	2
 303              		.global	UART_OSDP_READER_WriteControlRegister
 304              		.thumb
 305              		.thumb_func
 306              		.type	UART_OSDP_READER_WriteControlRegister, %function
 307              	UART_OSDP_READER_WriteControlRegister:
 308              	.LFB5:
 303:.\Generated_Source\PSoC5/UART_OSDP_READER.c **** 
 304:.\Generated_Source\PSoC5/UART_OSDP_READER.c **** 
 305:.\Generated_Source\PSoC5/UART_OSDP_READER.c **** /*******************************************************************************
 306:.\Generated_Source\PSoC5/UART_OSDP_READER.c **** * Function Name: UART_OSDP_READER_WriteControlRegister
 307:.\Generated_Source\PSoC5/UART_OSDP_READER.c **** ********************************************************************************
 308:.\Generated_Source\PSoC5/UART_OSDP_READER.c **** *
 309:.\Generated_Source\PSoC5/UART_OSDP_READER.c **** * Summary:
 310:.\Generated_Source\PSoC5/UART_OSDP_READER.c **** *  Writes an 8-bit value into the control register
 311:.\Generated_Source\PSoC5/UART_OSDP_READER.c **** *
 312:.\Generated_Source\PSoC5/UART_OSDP_READER.c **** * Parameters:
 313:.\Generated_Source\PSoC5/UART_OSDP_READER.c **** *  control:  control register value
 314:.\Generated_Source\PSoC5/UART_OSDP_READER.c **** *
 315:.\Generated_Source\PSoC5/UART_OSDP_READER.c **** * Return:
 316:.\Generated_Source\PSoC5/UART_OSDP_READER.c **** *  None.
 317:.\Generated_Source\PSoC5/UART_OSDP_READER.c **** *
 318:.\Generated_Source\PSoC5/UART_OSDP_READER.c **** *******************************************************************************/
 319:.\Generated_Source\PSoC5/UART_OSDP_READER.c **** void  UART_OSDP_READER_WriteControlRegister(uint8 control) 
ARM GAS  C:\Users\Yiquing\AppData\Local\Temp\ccF0cyIx.s 			page 12


 320:.\Generated_Source\PSoC5/UART_OSDP_READER.c **** {
 309              		.loc 1 320 0
 310              		.cfi_startproc
 311              		@ args = 0, pretend = 0, frame = 8
 312              		@ frame_needed = 1, uses_anonymous_args = 0
 313              		@ link register save eliminated.
 314 0000 80B4     		push	{r7}
 315              		.cfi_def_cfa_offset 4
 316              		.cfi_offset 7, -4
 317 0002 83B0     		sub	sp, sp, #12
 318              		.cfi_def_cfa_offset 16
 319 0004 00AF     		add	r7, sp, #0
 320              		.cfi_def_cfa_register 7
 321 0006 0346     		mov	r3, r0
 322 0008 FB71     		strb	r3, [r7, #7]
 321:.\Generated_Source\PSoC5/UART_OSDP_READER.c ****     #if (UART_OSDP_READER_CONTROL_REG_REMOVED)
 322:.\Generated_Source\PSoC5/UART_OSDP_READER.c ****         if(0u != control)
 323:.\Generated_Source\PSoC5/UART_OSDP_READER.c ****         {
 324:.\Generated_Source\PSoC5/UART_OSDP_READER.c ****             /* Suppress compiler warning */
 325:.\Generated_Source\PSoC5/UART_OSDP_READER.c ****         }
 326:.\Generated_Source\PSoC5/UART_OSDP_READER.c ****     #else
 327:.\Generated_Source\PSoC5/UART_OSDP_READER.c ****        UART_OSDP_READER_CONTROL_REG = control;
 323              		.loc 1 327 0
 324 000a 044B     		ldr	r3, .L19
 325 000c FA79     		ldrb	r2, [r7, #7]
 326 000e 1A70     		strb	r2, [r3]
 328:.\Generated_Source\PSoC5/UART_OSDP_READER.c ****     #endif /* (UART_OSDP_READER_CONTROL_REG_REMOVED) */
 329:.\Generated_Source\PSoC5/UART_OSDP_READER.c **** }
 327              		.loc 1 329 0
 328 0010 0C37     		adds	r7, r7, #12
 329 0012 BD46     		mov	sp, r7
 330              		@ sp needed
 331 0014 5DF8047B 		ldr	r7, [sp], #4
 332 0018 7047     		bx	lr
 333              	.L20:
 334 001a 00BF     		.align	2
 335              	.L19:
 336 001c 78650040 		.word	1073767800
 337              		.cfi_endproc
 338              	.LFE5:
 339              		.size	UART_OSDP_READER_WriteControlRegister, .-UART_OSDP_READER_WriteControlRegister
 340              		.section	.text.UART_OSDP_READER_SetRxInterruptMode,"ax",%progbits
 341              		.align	2
 342              		.global	UART_OSDP_READER_SetRxInterruptMode
 343              		.thumb
 344              		.thumb_func
 345              		.type	UART_OSDP_READER_SetRxInterruptMode, %function
 346              	UART_OSDP_READER_SetRxInterruptMode:
 347              	.LFB6:
 330:.\Generated_Source\PSoC5/UART_OSDP_READER.c **** 
 331:.\Generated_Source\PSoC5/UART_OSDP_READER.c **** 
 332:.\Generated_Source\PSoC5/UART_OSDP_READER.c **** #if(UART_OSDP_READER_RX_ENABLED || UART_OSDP_READER_HD_ENABLED)
 333:.\Generated_Source\PSoC5/UART_OSDP_READER.c ****     /*******************************************************************************
 334:.\Generated_Source\PSoC5/UART_OSDP_READER.c ****     * Function Name: UART_OSDP_READER_SetRxInterruptMode
 335:.\Generated_Source\PSoC5/UART_OSDP_READER.c ****     ********************************************************************************
 336:.\Generated_Source\PSoC5/UART_OSDP_READER.c ****     *
 337:.\Generated_Source\PSoC5/UART_OSDP_READER.c ****     * Summary:
ARM GAS  C:\Users\Yiquing\AppData\Local\Temp\ccF0cyIx.s 			page 13


 338:.\Generated_Source\PSoC5/UART_OSDP_READER.c ****     *  Configures the RX interrupt sources enabled.
 339:.\Generated_Source\PSoC5/UART_OSDP_READER.c ****     *
 340:.\Generated_Source\PSoC5/UART_OSDP_READER.c ****     * Parameters:
 341:.\Generated_Source\PSoC5/UART_OSDP_READER.c ****     *  IntSrc:  Bit field containing the RX interrupts to enable. Based on the 
 342:.\Generated_Source\PSoC5/UART_OSDP_READER.c ****     *  bit-field arrangement of the status register. This value must be a 
 343:.\Generated_Source\PSoC5/UART_OSDP_READER.c ****     *  combination of status register bit-masks shown below:
 344:.\Generated_Source\PSoC5/UART_OSDP_READER.c ****     *      UART_OSDP_READER_RX_STS_FIFO_NOTEMPTY    Interrupt on byte received.
 345:.\Generated_Source\PSoC5/UART_OSDP_READER.c ****     *      UART_OSDP_READER_RX_STS_PAR_ERROR        Interrupt on parity error.
 346:.\Generated_Source\PSoC5/UART_OSDP_READER.c ****     *      UART_OSDP_READER_RX_STS_STOP_ERROR       Interrupt on stop error.
 347:.\Generated_Source\PSoC5/UART_OSDP_READER.c ****     *      UART_OSDP_READER_RX_STS_BREAK            Interrupt on break.
 348:.\Generated_Source\PSoC5/UART_OSDP_READER.c ****     *      UART_OSDP_READER_RX_STS_OVERRUN          Interrupt on overrun error.
 349:.\Generated_Source\PSoC5/UART_OSDP_READER.c ****     *      UART_OSDP_READER_RX_STS_ADDR_MATCH       Interrupt on address match.
 350:.\Generated_Source\PSoC5/UART_OSDP_READER.c ****     *      UART_OSDP_READER_RX_STS_MRKSPC           Interrupt on address detect.
 351:.\Generated_Source\PSoC5/UART_OSDP_READER.c ****     *
 352:.\Generated_Source\PSoC5/UART_OSDP_READER.c ****     * Return:
 353:.\Generated_Source\PSoC5/UART_OSDP_READER.c ****     *  None.
 354:.\Generated_Source\PSoC5/UART_OSDP_READER.c ****     *
 355:.\Generated_Source\PSoC5/UART_OSDP_READER.c ****     * Theory:
 356:.\Generated_Source\PSoC5/UART_OSDP_READER.c ****     *  Enables the output of specific status bits to the interrupt controller
 357:.\Generated_Source\PSoC5/UART_OSDP_READER.c ****     *
 358:.\Generated_Source\PSoC5/UART_OSDP_READER.c ****     *******************************************************************************/
 359:.\Generated_Source\PSoC5/UART_OSDP_READER.c ****     void UART_OSDP_READER_SetRxInterruptMode(uint8 intSrc) 
 360:.\Generated_Source\PSoC5/UART_OSDP_READER.c ****     {
 348              		.loc 1 360 0
 349              		.cfi_startproc
 350              		@ args = 0, pretend = 0, frame = 8
 351              		@ frame_needed = 1, uses_anonymous_args = 0
 352              		@ link register save eliminated.
 353 0000 80B4     		push	{r7}
 354              		.cfi_def_cfa_offset 4
 355              		.cfi_offset 7, -4
 356 0002 83B0     		sub	sp, sp, #12
 357              		.cfi_def_cfa_offset 16
 358 0004 00AF     		add	r7, sp, #0
 359              		.cfi_def_cfa_register 7
 360 0006 0346     		mov	r3, r0
 361 0008 FB71     		strb	r3, [r7, #7]
 361:.\Generated_Source\PSoC5/UART_OSDP_READER.c ****         UART_OSDP_READER_RXSTATUS_MASK_REG  = intSrc;
 362              		.loc 1 361 0
 363 000a 044B     		ldr	r3, .L22
 364 000c FA79     		ldrb	r2, [r7, #7]
 365 000e 1A70     		strb	r2, [r3]
 362:.\Generated_Source\PSoC5/UART_OSDP_READER.c ****     }
 366              		.loc 1 362 0
 367 0010 0C37     		adds	r7, r7, #12
 368 0012 BD46     		mov	sp, r7
 369              		@ sp needed
 370 0014 5DF8047B 		ldr	r7, [sp], #4
 371 0018 7047     		bx	lr
 372              	.L23:
 373 001a 00BF     		.align	2
 374              	.L22:
 375 001c 87640040 		.word	1073767559
 376              		.cfi_endproc
 377              	.LFE6:
 378              		.size	UART_OSDP_READER_SetRxInterruptMode, .-UART_OSDP_READER_SetRxInterruptMode
 379              		.section	.text.UART_OSDP_READER_ReadRxData,"ax",%progbits
ARM GAS  C:\Users\Yiquing\AppData\Local\Temp\ccF0cyIx.s 			page 14


 380              		.align	2
 381              		.global	UART_OSDP_READER_ReadRxData
 382              		.thumb
 383              		.thumb_func
 384              		.type	UART_OSDP_READER_ReadRxData, %function
 385              	UART_OSDP_READER_ReadRxData:
 386              	.LFB7:
 363:.\Generated_Source\PSoC5/UART_OSDP_READER.c **** 
 364:.\Generated_Source\PSoC5/UART_OSDP_READER.c **** 
 365:.\Generated_Source\PSoC5/UART_OSDP_READER.c ****     /*******************************************************************************
 366:.\Generated_Source\PSoC5/UART_OSDP_READER.c ****     * Function Name: UART_OSDP_READER_ReadRxData
 367:.\Generated_Source\PSoC5/UART_OSDP_READER.c ****     ********************************************************************************
 368:.\Generated_Source\PSoC5/UART_OSDP_READER.c ****     *
 369:.\Generated_Source\PSoC5/UART_OSDP_READER.c ****     * Summary:
 370:.\Generated_Source\PSoC5/UART_OSDP_READER.c ****     *  Returns the next byte of received data. This function returns data without
 371:.\Generated_Source\PSoC5/UART_OSDP_READER.c ****     *  checking the status. You must check the status separately.
 372:.\Generated_Source\PSoC5/UART_OSDP_READER.c ****     *
 373:.\Generated_Source\PSoC5/UART_OSDP_READER.c ****     * Parameters:
 374:.\Generated_Source\PSoC5/UART_OSDP_READER.c ****     *  None.
 375:.\Generated_Source\PSoC5/UART_OSDP_READER.c ****     *
 376:.\Generated_Source\PSoC5/UART_OSDP_READER.c ****     * Return:
 377:.\Generated_Source\PSoC5/UART_OSDP_READER.c ****     *  Received data from RX register
 378:.\Generated_Source\PSoC5/UART_OSDP_READER.c ****     *
 379:.\Generated_Source\PSoC5/UART_OSDP_READER.c ****     * Global Variables:
 380:.\Generated_Source\PSoC5/UART_OSDP_READER.c ****     *  UART_OSDP_READER_rxBuffer - RAM buffer pointer for save received data.
 381:.\Generated_Source\PSoC5/UART_OSDP_READER.c ****     *  UART_OSDP_READER_rxBufferWrite - cyclic index for write to rxBuffer,
 382:.\Generated_Source\PSoC5/UART_OSDP_READER.c ****     *     checked to identify new data.
 383:.\Generated_Source\PSoC5/UART_OSDP_READER.c ****     *  UART_OSDP_READER_rxBufferRead - cyclic index for read from rxBuffer,
 384:.\Generated_Source\PSoC5/UART_OSDP_READER.c ****     *     incremented after each byte has been read from buffer.
 385:.\Generated_Source\PSoC5/UART_OSDP_READER.c ****     *  UART_OSDP_READER_rxBufferLoopDetect - cleared if loop condition was detected
 386:.\Generated_Source\PSoC5/UART_OSDP_READER.c ****     *     in RX ISR.
 387:.\Generated_Source\PSoC5/UART_OSDP_READER.c ****     *
 388:.\Generated_Source\PSoC5/UART_OSDP_READER.c ****     * Reentrant:
 389:.\Generated_Source\PSoC5/UART_OSDP_READER.c ****     *  No.
 390:.\Generated_Source\PSoC5/UART_OSDP_READER.c ****     *
 391:.\Generated_Source\PSoC5/UART_OSDP_READER.c ****     *******************************************************************************/
 392:.\Generated_Source\PSoC5/UART_OSDP_READER.c ****     uint8 UART_OSDP_READER_ReadRxData(void) 
 393:.\Generated_Source\PSoC5/UART_OSDP_READER.c ****     {
 387              		.loc 1 393 0
 388              		.cfi_startproc
 389              		@ args = 0, pretend = 0, frame = 8
 390              		@ frame_needed = 1, uses_anonymous_args = 0
 391              		@ link register save eliminated.
 392 0000 80B4     		push	{r7}
 393              		.cfi_def_cfa_offset 4
 394              		.cfi_offset 7, -4
 395 0002 83B0     		sub	sp, sp, #12
 396              		.cfi_def_cfa_offset 16
 397 0004 00AF     		add	r7, sp, #0
 398              		.cfi_def_cfa_register 7
 394:.\Generated_Source\PSoC5/UART_OSDP_READER.c ****         uint8 rxData;
 395:.\Generated_Source\PSoC5/UART_OSDP_READER.c **** 
 396:.\Generated_Source\PSoC5/UART_OSDP_READER.c ****     #if (UART_OSDP_READER_RX_INTERRUPT_ENABLED)
 397:.\Generated_Source\PSoC5/UART_OSDP_READER.c **** 
 398:.\Generated_Source\PSoC5/UART_OSDP_READER.c ****         uint8 locRxBufferRead;
 399:.\Generated_Source\PSoC5/UART_OSDP_READER.c ****         uint8 locRxBufferWrite;
 400:.\Generated_Source\PSoC5/UART_OSDP_READER.c **** 
ARM GAS  C:\Users\Yiquing\AppData\Local\Temp\ccF0cyIx.s 			page 15


 401:.\Generated_Source\PSoC5/UART_OSDP_READER.c ****         /* Protect variables that could change on interrupt */
 402:.\Generated_Source\PSoC5/UART_OSDP_READER.c ****         UART_OSDP_READER_DisableRxInt();
 399              		.loc 1 402 0
 400 0006 1C4B     		ldr	r3, .L31
 401 0008 0222     		movs	r2, #2
 402 000a 1A60     		str	r2, [r3]
 403:.\Generated_Source\PSoC5/UART_OSDP_READER.c **** 
 404:.\Generated_Source\PSoC5/UART_OSDP_READER.c ****         locRxBufferRead  = UART_OSDP_READER_rxBufferRead;
 403              		.loc 1 404 0
 404 000c 1B4B     		ldr	r3, .L31+4
 405 000e 1B78     		ldrb	r3, [r3]
 406 0010 BB71     		strb	r3, [r7, #6]
 405:.\Generated_Source\PSoC5/UART_OSDP_READER.c ****         locRxBufferWrite = UART_OSDP_READER_rxBufferWrite;
 407              		.loc 1 405 0
 408 0012 1B4B     		ldr	r3, .L31+8
 409 0014 1B78     		ldrb	r3, [r3]
 410 0016 7B71     		strb	r3, [r7, #5]
 406:.\Generated_Source\PSoC5/UART_OSDP_READER.c **** 
 407:.\Generated_Source\PSoC5/UART_OSDP_READER.c ****         if( (UART_OSDP_READER_rxBufferLoopDetect != 0u) || (locRxBufferRead != locRxBufferWrite) )
 411              		.loc 1 407 0
 412 0018 1A4B     		ldr	r3, .L31+12
 413 001a 1B78     		ldrb	r3, [r3]
 414 001c DBB2     		uxtb	r3, r3
 415 001e 002B     		cmp	r3, #0
 416 0020 03D1     		bne	.L25
 417              		.loc 1 407 0 is_stmt 0 discriminator 1
 418 0022 BA79     		ldrb	r2, [r7, #6]	@ zero_extendqisi2
 419 0024 7B79     		ldrb	r3, [r7, #5]	@ zero_extendqisi2
 420 0026 9A42     		cmp	r2, r3
 421 0028 19D0     		beq	.L26
 422              	.L25:
 408:.\Generated_Source\PSoC5/UART_OSDP_READER.c ****         {
 409:.\Generated_Source\PSoC5/UART_OSDP_READER.c ****             rxData = UART_OSDP_READER_rxBuffer[locRxBufferRead];
 423              		.loc 1 409 0 is_stmt 1
 424 002a BB79     		ldrb	r3, [r7, #6]	@ zero_extendqisi2
 425 002c 164A     		ldr	r2, .L31+16
 426 002e D35C     		ldrb	r3, [r2, r3]
 427 0030 FB71     		strb	r3, [r7, #7]
 410:.\Generated_Source\PSoC5/UART_OSDP_READER.c ****             locRxBufferRead++;
 428              		.loc 1 410 0
 429 0032 BB79     		ldrb	r3, [r7, #6]	@ zero_extendqisi2
 430 0034 0133     		adds	r3, r3, #1
 431 0036 BB71     		strb	r3, [r7, #6]
 411:.\Generated_Source\PSoC5/UART_OSDP_READER.c **** 
 412:.\Generated_Source\PSoC5/UART_OSDP_READER.c ****             if(locRxBufferRead >= UART_OSDP_READER_RX_BUFFER_SIZE)
 432              		.loc 1 412 0
 433 0038 BB79     		ldrb	r3, [r7, #6]	@ zero_extendqisi2
 434 003a 5BB2     		sxtb	r3, r3
 435 003c 002B     		cmp	r3, #0
 436 003e 01DA     		bge	.L27
 413:.\Generated_Source\PSoC5/UART_OSDP_READER.c ****             {
 414:.\Generated_Source\PSoC5/UART_OSDP_READER.c ****                 locRxBufferRead = 0u;
 437              		.loc 1 414 0
 438 0040 0023     		movs	r3, #0
 439 0042 BB71     		strb	r3, [r7, #6]
 440              	.L27:
 415:.\Generated_Source\PSoC5/UART_OSDP_READER.c ****             }
ARM GAS  C:\Users\Yiquing\AppData\Local\Temp\ccF0cyIx.s 			page 16


 416:.\Generated_Source\PSoC5/UART_OSDP_READER.c ****             /* Update the real pointer */
 417:.\Generated_Source\PSoC5/UART_OSDP_READER.c ****             UART_OSDP_READER_rxBufferRead = locRxBufferRead;
 441              		.loc 1 417 0
 442 0044 0D4B     		ldr	r3, .L31+4
 443 0046 BA79     		ldrb	r2, [r7, #6]
 444 0048 1A70     		strb	r2, [r3]
 418:.\Generated_Source\PSoC5/UART_OSDP_READER.c **** 
 419:.\Generated_Source\PSoC5/UART_OSDP_READER.c ****             if(UART_OSDP_READER_rxBufferLoopDetect != 0u)
 445              		.loc 1 419 0
 446 004a 0E4B     		ldr	r3, .L31+12
 447 004c 1B78     		ldrb	r3, [r3]
 448 004e DBB2     		uxtb	r3, r3
 449 0050 002B     		cmp	r3, #0
 450 0052 03D0     		beq	.L28
 420:.\Generated_Source\PSoC5/UART_OSDP_READER.c ****             {
 421:.\Generated_Source\PSoC5/UART_OSDP_READER.c ****                 UART_OSDP_READER_rxBufferLoopDetect = 0u;
 451              		.loc 1 421 0
 452 0054 0B4B     		ldr	r3, .L31+12
 453 0056 0022     		movs	r2, #0
 454 0058 1A70     		strb	r2, [r3]
 419:.\Generated_Source\PSoC5/UART_OSDP_READER.c ****             if(UART_OSDP_READER_rxBufferLoopDetect != 0u)
 455              		.loc 1 419 0
 456 005a 03E0     		b	.L29
 457              	.L28:
 419:.\Generated_Source\PSoC5/UART_OSDP_READER.c ****             if(UART_OSDP_READER_rxBufferLoopDetect != 0u)
 458              		.loc 1 419 0 is_stmt 0 discriminator 1
 459 005c 02E0     		b	.L29
 460              	.L26:
 422:.\Generated_Source\PSoC5/UART_OSDP_READER.c ****                 #if ((UART_OSDP_READER_RX_INTERRUPT_ENABLED) && (UART_OSDP_READER_FLOW_CONTROL != 0
 423:.\Generated_Source\PSoC5/UART_OSDP_READER.c ****                     /* When Hardware Flow Control selected - return RX mask */
 424:.\Generated_Source\PSoC5/UART_OSDP_READER.c ****                     #if( UART_OSDP_READER_HD_ENABLED )
 425:.\Generated_Source\PSoC5/UART_OSDP_READER.c ****                         if((UART_OSDP_READER_CONTROL_REG & UART_OSDP_READER_CTRL_HD_SEND) == 0u)
 426:.\Generated_Source\PSoC5/UART_OSDP_READER.c ****                         {   /* In Half duplex mode return RX mask only in RX
 427:.\Generated_Source\PSoC5/UART_OSDP_READER.c ****                             *  configuration set, otherwise
 428:.\Generated_Source\PSoC5/UART_OSDP_READER.c ****                             *  mask will be returned in LoadRxConfig() API.
 429:.\Generated_Source\PSoC5/UART_OSDP_READER.c ****                             */
 430:.\Generated_Source\PSoC5/UART_OSDP_READER.c ****                             UART_OSDP_READER_RXSTATUS_MASK_REG  |= UART_OSDP_READER_RX_STS_FIFO_NOT
 431:.\Generated_Source\PSoC5/UART_OSDP_READER.c ****                         }
 432:.\Generated_Source\PSoC5/UART_OSDP_READER.c ****                     #else
 433:.\Generated_Source\PSoC5/UART_OSDP_READER.c ****                         UART_OSDP_READER_RXSTATUS_MASK_REG  |= UART_OSDP_READER_RX_STS_FIFO_NOTEMPT
 434:.\Generated_Source\PSoC5/UART_OSDP_READER.c ****                     #endif /* end UART_OSDP_READER_HD_ENABLED */
 435:.\Generated_Source\PSoC5/UART_OSDP_READER.c ****                 #endif /* ((UART_OSDP_READER_RX_INTERRUPT_ENABLED) && (UART_OSDP_READER_FLOW_CONTRO
 436:.\Generated_Source\PSoC5/UART_OSDP_READER.c ****             }
 437:.\Generated_Source\PSoC5/UART_OSDP_READER.c ****         }
 438:.\Generated_Source\PSoC5/UART_OSDP_READER.c ****         else
 439:.\Generated_Source\PSoC5/UART_OSDP_READER.c ****         {   /* Needs to check status for RX_STS_FIFO_NOTEMPTY bit */
 440:.\Generated_Source\PSoC5/UART_OSDP_READER.c ****             rxData = UART_OSDP_READER_RXDATA_REG;
 461              		.loc 1 440 0 is_stmt 1
 462 005e 0B4B     		ldr	r3, .L31+20
 463 0060 1B78     		ldrb	r3, [r3]
 464 0062 FB71     		strb	r3, [r7, #7]
 465              	.L29:
 441:.\Generated_Source\PSoC5/UART_OSDP_READER.c ****         }
 442:.\Generated_Source\PSoC5/UART_OSDP_READER.c **** 
 443:.\Generated_Source\PSoC5/UART_OSDP_READER.c ****         UART_OSDP_READER_EnableRxInt();
 466              		.loc 1 443 0
 467 0064 0A4B     		ldr	r3, .L31+24
ARM GAS  C:\Users\Yiquing\AppData\Local\Temp\ccF0cyIx.s 			page 17


 468 0066 0222     		movs	r2, #2
 469 0068 1A60     		str	r2, [r3]
 444:.\Generated_Source\PSoC5/UART_OSDP_READER.c **** 
 445:.\Generated_Source\PSoC5/UART_OSDP_READER.c ****     #else
 446:.\Generated_Source\PSoC5/UART_OSDP_READER.c **** 
 447:.\Generated_Source\PSoC5/UART_OSDP_READER.c ****         /* Needs to check status for RX_STS_FIFO_NOTEMPTY bit */
 448:.\Generated_Source\PSoC5/UART_OSDP_READER.c ****         rxData = UART_OSDP_READER_RXDATA_REG;
 449:.\Generated_Source\PSoC5/UART_OSDP_READER.c **** 
 450:.\Generated_Source\PSoC5/UART_OSDP_READER.c ****     #endif /* (UART_OSDP_READER_RX_INTERRUPT_ENABLED) */
 451:.\Generated_Source\PSoC5/UART_OSDP_READER.c **** 
 452:.\Generated_Source\PSoC5/UART_OSDP_READER.c ****         return(rxData);
 470              		.loc 1 452 0
 471 006a FB79     		ldrb	r3, [r7, #7]	@ zero_extendqisi2
 453:.\Generated_Source\PSoC5/UART_OSDP_READER.c ****     }
 472              		.loc 1 453 0
 473 006c 1846     		mov	r0, r3
 474 006e 0C37     		adds	r7, r7, #12
 475 0070 BD46     		mov	sp, r7
 476              		@ sp needed
 477 0072 5DF8047B 		ldr	r7, [sp], #4
 478 0076 7047     		bx	lr
 479              	.L32:
 480              		.align	2
 481              	.L31:
 482 0078 80E100E0 		.word	-536813184
 483 007c 00000000 		.word	UART_OSDP_READER_rxBufferRead
 484 0080 00000000 		.word	UART_OSDP_READER_rxBufferWrite
 485 0084 00000000 		.word	UART_OSDP_READER_rxBufferLoopDetect
 486 0088 00000000 		.word	UART_OSDP_READER_rxBuffer
 487 008c 47640040 		.word	1073767495
 488 0090 00E100E0 		.word	-536813312
 489              		.cfi_endproc
 490              	.LFE7:
 491              		.size	UART_OSDP_READER_ReadRxData, .-UART_OSDP_READER_ReadRxData
 492              		.section	.text.UART_OSDP_READER_ReadRxStatus,"ax",%progbits
 493              		.align	2
 494              		.global	UART_OSDP_READER_ReadRxStatus
 495              		.thumb
 496              		.thumb_func
 497              		.type	UART_OSDP_READER_ReadRxStatus, %function
 498              	UART_OSDP_READER_ReadRxStatus:
 499              	.LFB8:
 454:.\Generated_Source\PSoC5/UART_OSDP_READER.c **** 
 455:.\Generated_Source\PSoC5/UART_OSDP_READER.c **** 
 456:.\Generated_Source\PSoC5/UART_OSDP_READER.c ****     /*******************************************************************************
 457:.\Generated_Source\PSoC5/UART_OSDP_READER.c ****     * Function Name: UART_OSDP_READER_ReadRxStatus
 458:.\Generated_Source\PSoC5/UART_OSDP_READER.c ****     ********************************************************************************
 459:.\Generated_Source\PSoC5/UART_OSDP_READER.c ****     *
 460:.\Generated_Source\PSoC5/UART_OSDP_READER.c ****     * Summary:
 461:.\Generated_Source\PSoC5/UART_OSDP_READER.c ****     *  Returns the current state of the receiver status register and the software
 462:.\Generated_Source\PSoC5/UART_OSDP_READER.c ****     *  buffer overflow status.
 463:.\Generated_Source\PSoC5/UART_OSDP_READER.c ****     *
 464:.\Generated_Source\PSoC5/UART_OSDP_READER.c ****     * Parameters:
 465:.\Generated_Source\PSoC5/UART_OSDP_READER.c ****     *  None.
 466:.\Generated_Source\PSoC5/UART_OSDP_READER.c ****     *
 467:.\Generated_Source\PSoC5/UART_OSDP_READER.c ****     * Return:
 468:.\Generated_Source\PSoC5/UART_OSDP_READER.c ****     *  Current state of the status register.
ARM GAS  C:\Users\Yiquing\AppData\Local\Temp\ccF0cyIx.s 			page 18


 469:.\Generated_Source\PSoC5/UART_OSDP_READER.c ****     *
 470:.\Generated_Source\PSoC5/UART_OSDP_READER.c ****     * Side Effect:
 471:.\Generated_Source\PSoC5/UART_OSDP_READER.c ****     *  All status register bits are clear-on-read except
 472:.\Generated_Source\PSoC5/UART_OSDP_READER.c ****     *  UART_OSDP_READER_RX_STS_FIFO_NOTEMPTY.
 473:.\Generated_Source\PSoC5/UART_OSDP_READER.c ****     *  UART_OSDP_READER_RX_STS_FIFO_NOTEMPTY clears immediately after RX data
 474:.\Generated_Source\PSoC5/UART_OSDP_READER.c ****     *  register read.
 475:.\Generated_Source\PSoC5/UART_OSDP_READER.c ****     *
 476:.\Generated_Source\PSoC5/UART_OSDP_READER.c ****     * Global Variables:
 477:.\Generated_Source\PSoC5/UART_OSDP_READER.c ****     *  UART_OSDP_READER_rxBufferOverflow - used to indicate overload condition.
 478:.\Generated_Source\PSoC5/UART_OSDP_READER.c ****     *   It set to one in RX interrupt when there isn't free space in
 479:.\Generated_Source\PSoC5/UART_OSDP_READER.c ****     *   UART_OSDP_READER_rxBufferRead to write new data. This condition returned
 480:.\Generated_Source\PSoC5/UART_OSDP_READER.c ****     *   and cleared to zero by this API as an
 481:.\Generated_Source\PSoC5/UART_OSDP_READER.c ****     *   UART_OSDP_READER_RX_STS_SOFT_BUFF_OVER bit along with RX Status register
 482:.\Generated_Source\PSoC5/UART_OSDP_READER.c ****     *   bits.
 483:.\Generated_Source\PSoC5/UART_OSDP_READER.c ****     *
 484:.\Generated_Source\PSoC5/UART_OSDP_READER.c ****     *******************************************************************************/
 485:.\Generated_Source\PSoC5/UART_OSDP_READER.c ****     uint8 UART_OSDP_READER_ReadRxStatus(void) 
 486:.\Generated_Source\PSoC5/UART_OSDP_READER.c ****     {
 500              		.loc 1 486 0
 501              		.cfi_startproc
 502              		@ args = 0, pretend = 0, frame = 8
 503              		@ frame_needed = 1, uses_anonymous_args = 0
 504              		@ link register save eliminated.
 505 0000 80B4     		push	{r7}
 506              		.cfi_def_cfa_offset 4
 507              		.cfi_offset 7, -4
 508 0002 83B0     		sub	sp, sp, #12
 509              		.cfi_def_cfa_offset 16
 510 0004 00AF     		add	r7, sp, #0
 511              		.cfi_def_cfa_register 7
 487:.\Generated_Source\PSoC5/UART_OSDP_READER.c ****         uint8 status;
 488:.\Generated_Source\PSoC5/UART_OSDP_READER.c **** 
 489:.\Generated_Source\PSoC5/UART_OSDP_READER.c ****         status = UART_OSDP_READER_RXSTATUS_REG & UART_OSDP_READER_RX_HW_MASK;
 512              		.loc 1 489 0
 513 0006 0C4B     		ldr	r3, .L36
 514 0008 1B78     		ldrb	r3, [r3]
 515 000a DBB2     		uxtb	r3, r3
 516 000c 03F07F03 		and	r3, r3, #127
 517 0010 FB71     		strb	r3, [r7, #7]
 490:.\Generated_Source\PSoC5/UART_OSDP_READER.c **** 
 491:.\Generated_Source\PSoC5/UART_OSDP_READER.c ****     #if (UART_OSDP_READER_RX_INTERRUPT_ENABLED)
 492:.\Generated_Source\PSoC5/UART_OSDP_READER.c ****         if(UART_OSDP_READER_rxBufferOverflow != 0u)
 518              		.loc 1 492 0
 519 0012 0A4B     		ldr	r3, .L36+4
 520 0014 1B78     		ldrb	r3, [r3]
 521 0016 DBB2     		uxtb	r3, r3
 522 0018 002B     		cmp	r3, #0
 523 001a 06D0     		beq	.L34
 493:.\Generated_Source\PSoC5/UART_OSDP_READER.c ****         {
 494:.\Generated_Source\PSoC5/UART_OSDP_READER.c ****             status |= UART_OSDP_READER_RX_STS_SOFT_BUFF_OVER;
 524              		.loc 1 494 0
 525 001c FB79     		ldrb	r3, [r7, #7]
 526 001e 63F07F03 		orn	r3, r3, #127
 527 0022 FB71     		strb	r3, [r7, #7]
 495:.\Generated_Source\PSoC5/UART_OSDP_READER.c ****             UART_OSDP_READER_rxBufferOverflow = 0u;
 528              		.loc 1 495 0
 529 0024 054B     		ldr	r3, .L36+4
ARM GAS  C:\Users\Yiquing\AppData\Local\Temp\ccF0cyIx.s 			page 19


 530 0026 0022     		movs	r2, #0
 531 0028 1A70     		strb	r2, [r3]
 532              	.L34:
 496:.\Generated_Source\PSoC5/UART_OSDP_READER.c ****         }
 497:.\Generated_Source\PSoC5/UART_OSDP_READER.c ****     #endif /* (UART_OSDP_READER_RX_INTERRUPT_ENABLED) */
 498:.\Generated_Source\PSoC5/UART_OSDP_READER.c **** 
 499:.\Generated_Source\PSoC5/UART_OSDP_READER.c ****         return(status);
 533              		.loc 1 499 0
 534 002a FB79     		ldrb	r3, [r7, #7]	@ zero_extendqisi2
 500:.\Generated_Source\PSoC5/UART_OSDP_READER.c ****     }
 535              		.loc 1 500 0
 536 002c 1846     		mov	r0, r3
 537 002e 0C37     		adds	r7, r7, #12
 538 0030 BD46     		mov	sp, r7
 539              		@ sp needed
 540 0032 5DF8047B 		ldr	r7, [sp], #4
 541 0036 7047     		bx	lr
 542              	.L37:
 543              		.align	2
 544              	.L36:
 545 0038 67640040 		.word	1073767527
 546 003c 00000000 		.word	UART_OSDP_READER_rxBufferOverflow
 547              		.cfi_endproc
 548              	.LFE8:
 549              		.size	UART_OSDP_READER_ReadRxStatus, .-UART_OSDP_READER_ReadRxStatus
 550              		.section	.text.UART_OSDP_READER_GetChar,"ax",%progbits
 551              		.align	2
 552              		.global	UART_OSDP_READER_GetChar
 553              		.thumb
 554              		.thumb_func
 555              		.type	UART_OSDP_READER_GetChar, %function
 556              	UART_OSDP_READER_GetChar:
 557              	.LFB9:
 501:.\Generated_Source\PSoC5/UART_OSDP_READER.c **** 
 502:.\Generated_Source\PSoC5/UART_OSDP_READER.c **** 
 503:.\Generated_Source\PSoC5/UART_OSDP_READER.c ****     /*******************************************************************************
 504:.\Generated_Source\PSoC5/UART_OSDP_READER.c ****     * Function Name: UART_OSDP_READER_GetChar
 505:.\Generated_Source\PSoC5/UART_OSDP_READER.c ****     ********************************************************************************
 506:.\Generated_Source\PSoC5/UART_OSDP_READER.c ****     *
 507:.\Generated_Source\PSoC5/UART_OSDP_READER.c ****     * Summary:
 508:.\Generated_Source\PSoC5/UART_OSDP_READER.c ****     *  Returns the last received byte of data. UART_OSDP_READER_GetChar() is
 509:.\Generated_Source\PSoC5/UART_OSDP_READER.c ****     *  designed for ASCII characters and returns a uint8 where 1 to 255 are values
 510:.\Generated_Source\PSoC5/UART_OSDP_READER.c ****     *  for valid characters and 0 indicates an error occurred or no data is present.
 511:.\Generated_Source\PSoC5/UART_OSDP_READER.c ****     *
 512:.\Generated_Source\PSoC5/UART_OSDP_READER.c ****     * Parameters:
 513:.\Generated_Source\PSoC5/UART_OSDP_READER.c ****     *  None.
 514:.\Generated_Source\PSoC5/UART_OSDP_READER.c ****     *
 515:.\Generated_Source\PSoC5/UART_OSDP_READER.c ****     * Return:
 516:.\Generated_Source\PSoC5/UART_OSDP_READER.c ****     *  Character read from UART RX buffer. ASCII characters from 1 to 255 are valid.
 517:.\Generated_Source\PSoC5/UART_OSDP_READER.c ****     *  A returned zero signifies an error condition or no data available.
 518:.\Generated_Source\PSoC5/UART_OSDP_READER.c ****     *
 519:.\Generated_Source\PSoC5/UART_OSDP_READER.c ****     * Global Variables:
 520:.\Generated_Source\PSoC5/UART_OSDP_READER.c ****     *  UART_OSDP_READER_rxBuffer - RAM buffer pointer for save received data.
 521:.\Generated_Source\PSoC5/UART_OSDP_READER.c ****     *  UART_OSDP_READER_rxBufferWrite - cyclic index for write to rxBuffer,
 522:.\Generated_Source\PSoC5/UART_OSDP_READER.c ****     *     checked to identify new data.
 523:.\Generated_Source\PSoC5/UART_OSDP_READER.c ****     *  UART_OSDP_READER_rxBufferRead - cyclic index for read from rxBuffer,
 524:.\Generated_Source\PSoC5/UART_OSDP_READER.c ****     *     incremented after each byte has been read from buffer.
ARM GAS  C:\Users\Yiquing\AppData\Local\Temp\ccF0cyIx.s 			page 20


 525:.\Generated_Source\PSoC5/UART_OSDP_READER.c ****     *  UART_OSDP_READER_rxBufferLoopDetect - cleared if loop condition was detected
 526:.\Generated_Source\PSoC5/UART_OSDP_READER.c ****     *     in RX ISR.
 527:.\Generated_Source\PSoC5/UART_OSDP_READER.c ****     *
 528:.\Generated_Source\PSoC5/UART_OSDP_READER.c ****     * Reentrant:
 529:.\Generated_Source\PSoC5/UART_OSDP_READER.c ****     *  No.
 530:.\Generated_Source\PSoC5/UART_OSDP_READER.c ****     *
 531:.\Generated_Source\PSoC5/UART_OSDP_READER.c ****     *******************************************************************************/
 532:.\Generated_Source\PSoC5/UART_OSDP_READER.c ****     uint8 UART_OSDP_READER_GetChar(void) 
 533:.\Generated_Source\PSoC5/UART_OSDP_READER.c ****     {
 558              		.loc 1 533 0
 559              		.cfi_startproc
 560              		@ args = 0, pretend = 0, frame = 8
 561              		@ frame_needed = 1, uses_anonymous_args = 0
 562              		@ link register save eliminated.
 563 0000 80B4     		push	{r7}
 564              		.cfi_def_cfa_offset 4
 565              		.cfi_offset 7, -4
 566 0002 83B0     		sub	sp, sp, #12
 567              		.cfi_def_cfa_offset 16
 568 0004 00AF     		add	r7, sp, #0
 569              		.cfi_def_cfa_register 7
 534:.\Generated_Source\PSoC5/UART_OSDP_READER.c ****         uint8 rxData = 0u;
 570              		.loc 1 534 0
 571 0006 0023     		movs	r3, #0
 572 0008 FB71     		strb	r3, [r7, #7]
 535:.\Generated_Source\PSoC5/UART_OSDP_READER.c ****         uint8 rxStatus;
 536:.\Generated_Source\PSoC5/UART_OSDP_READER.c **** 
 537:.\Generated_Source\PSoC5/UART_OSDP_READER.c ****     #if (UART_OSDP_READER_RX_INTERRUPT_ENABLED)
 538:.\Generated_Source\PSoC5/UART_OSDP_READER.c ****         uint8 locRxBufferRead;
 539:.\Generated_Source\PSoC5/UART_OSDP_READER.c ****         uint8 locRxBufferWrite;
 540:.\Generated_Source\PSoC5/UART_OSDP_READER.c **** 
 541:.\Generated_Source\PSoC5/UART_OSDP_READER.c ****         /* Protect variables that could change on interrupt */
 542:.\Generated_Source\PSoC5/UART_OSDP_READER.c ****         UART_OSDP_READER_DisableRxInt();
 573              		.loc 1 542 0
 574 000a 244B     		ldr	r3, .L45
 575 000c 0222     		movs	r2, #2
 576 000e 1A60     		str	r2, [r3]
 543:.\Generated_Source\PSoC5/UART_OSDP_READER.c **** 
 544:.\Generated_Source\PSoC5/UART_OSDP_READER.c ****         locRxBufferRead  = UART_OSDP_READER_rxBufferRead;
 577              		.loc 1 544 0
 578 0010 234B     		ldr	r3, .L45+4
 579 0012 1B78     		ldrb	r3, [r3]
 580 0014 BB71     		strb	r3, [r7, #6]
 545:.\Generated_Source\PSoC5/UART_OSDP_READER.c ****         locRxBufferWrite = UART_OSDP_READER_rxBufferWrite;
 581              		.loc 1 545 0
 582 0016 234B     		ldr	r3, .L45+8
 583 0018 1B78     		ldrb	r3, [r3]
 584 001a 7B71     		strb	r3, [r7, #5]
 546:.\Generated_Source\PSoC5/UART_OSDP_READER.c **** 
 547:.\Generated_Source\PSoC5/UART_OSDP_READER.c ****         if( (UART_OSDP_READER_rxBufferLoopDetect != 0u) || (locRxBufferRead != locRxBufferWrite) )
 585              		.loc 1 547 0
 586 001c 224B     		ldr	r3, .L45+12
 587 001e 1B78     		ldrb	r3, [r3]
 588 0020 DBB2     		uxtb	r3, r3
 589 0022 002B     		cmp	r3, #0
 590 0024 03D1     		bne	.L39
 591              		.loc 1 547 0 is_stmt 0 discriminator 1
ARM GAS  C:\Users\Yiquing\AppData\Local\Temp\ccF0cyIx.s 			page 21


 592 0026 BA79     		ldrb	r2, [r7, #6]	@ zero_extendqisi2
 593 0028 7B79     		ldrb	r3, [r7, #5]	@ zero_extendqisi2
 594 002a 9A42     		cmp	r2, r3
 595 002c 19D0     		beq	.L40
 596              	.L39:
 548:.\Generated_Source\PSoC5/UART_OSDP_READER.c ****         {
 549:.\Generated_Source\PSoC5/UART_OSDP_READER.c ****             rxData = UART_OSDP_READER_rxBuffer[locRxBufferRead];
 597              		.loc 1 549 0 is_stmt 1
 598 002e BB79     		ldrb	r3, [r7, #6]	@ zero_extendqisi2
 599 0030 1E4A     		ldr	r2, .L45+16
 600 0032 D35C     		ldrb	r3, [r2, r3]
 601 0034 FB71     		strb	r3, [r7, #7]
 550:.\Generated_Source\PSoC5/UART_OSDP_READER.c ****             locRxBufferRead++;
 602              		.loc 1 550 0
 603 0036 BB79     		ldrb	r3, [r7, #6]	@ zero_extendqisi2
 604 0038 0133     		adds	r3, r3, #1
 605 003a BB71     		strb	r3, [r7, #6]
 551:.\Generated_Source\PSoC5/UART_OSDP_READER.c ****             if(locRxBufferRead >= UART_OSDP_READER_RX_BUFFER_SIZE)
 606              		.loc 1 551 0
 607 003c BB79     		ldrb	r3, [r7, #6]	@ zero_extendqisi2
 608 003e 5BB2     		sxtb	r3, r3
 609 0040 002B     		cmp	r3, #0
 610 0042 01DA     		bge	.L41
 552:.\Generated_Source\PSoC5/UART_OSDP_READER.c ****             {
 553:.\Generated_Source\PSoC5/UART_OSDP_READER.c ****                 locRxBufferRead = 0u;
 611              		.loc 1 553 0
 612 0044 0023     		movs	r3, #0
 613 0046 BB71     		strb	r3, [r7, #6]
 614              	.L41:
 554:.\Generated_Source\PSoC5/UART_OSDP_READER.c ****             }
 555:.\Generated_Source\PSoC5/UART_OSDP_READER.c ****             /* Update the real pointer */
 556:.\Generated_Source\PSoC5/UART_OSDP_READER.c ****             UART_OSDP_READER_rxBufferRead = locRxBufferRead;
 615              		.loc 1 556 0
 616 0048 154B     		ldr	r3, .L45+4
 617 004a BA79     		ldrb	r2, [r7, #6]
 618 004c 1A70     		strb	r2, [r3]
 557:.\Generated_Source\PSoC5/UART_OSDP_READER.c **** 
 558:.\Generated_Source\PSoC5/UART_OSDP_READER.c ****             if(UART_OSDP_READER_rxBufferLoopDetect != 0u)
 619              		.loc 1 558 0
 620 004e 164B     		ldr	r3, .L45+12
 621 0050 1B78     		ldrb	r3, [r3]
 622 0052 DBB2     		uxtb	r3, r3
 623 0054 002B     		cmp	r3, #0
 624 0056 03D0     		beq	.L42
 559:.\Generated_Source\PSoC5/UART_OSDP_READER.c ****             {
 560:.\Generated_Source\PSoC5/UART_OSDP_READER.c ****                 UART_OSDP_READER_rxBufferLoopDetect = 0u;
 625              		.loc 1 560 0
 626 0058 134B     		ldr	r3, .L45+12
 627 005a 0022     		movs	r2, #0
 628 005c 1A70     		strb	r2, [r3]
 558:.\Generated_Source\PSoC5/UART_OSDP_READER.c ****             if(UART_OSDP_READER_rxBufferLoopDetect != 0u)
 629              		.loc 1 558 0
 630 005e 12E0     		b	.L43
 631              	.L42:
 558:.\Generated_Source\PSoC5/UART_OSDP_READER.c ****             if(UART_OSDP_READER_rxBufferLoopDetect != 0u)
 632              		.loc 1 558 0 is_stmt 0 discriminator 1
 633 0060 11E0     		b	.L43
ARM GAS  C:\Users\Yiquing\AppData\Local\Temp\ccF0cyIx.s 			page 22


 634              	.L40:
 561:.\Generated_Source\PSoC5/UART_OSDP_READER.c ****                 #if( (UART_OSDP_READER_RX_INTERRUPT_ENABLED) && (UART_OSDP_READER_FLOW_CONTROL != 0
 562:.\Generated_Source\PSoC5/UART_OSDP_READER.c ****                     /* When Hardware Flow Control selected - return RX mask */
 563:.\Generated_Source\PSoC5/UART_OSDP_READER.c ****                     #if( UART_OSDP_READER_HD_ENABLED )
 564:.\Generated_Source\PSoC5/UART_OSDP_READER.c ****                         if((UART_OSDP_READER_CONTROL_REG & UART_OSDP_READER_CTRL_HD_SEND) == 0u)
 565:.\Generated_Source\PSoC5/UART_OSDP_READER.c ****                         {   /* In Half duplex mode return RX mask only if
 566:.\Generated_Source\PSoC5/UART_OSDP_READER.c ****                             *  RX configuration set, otherwise
 567:.\Generated_Source\PSoC5/UART_OSDP_READER.c ****                             *  mask will be returned in LoadRxConfig() API.
 568:.\Generated_Source\PSoC5/UART_OSDP_READER.c ****                             */
 569:.\Generated_Source\PSoC5/UART_OSDP_READER.c ****                             UART_OSDP_READER_RXSTATUS_MASK_REG |= UART_OSDP_READER_RX_STS_FIFO_NOTE
 570:.\Generated_Source\PSoC5/UART_OSDP_READER.c ****                         }
 571:.\Generated_Source\PSoC5/UART_OSDP_READER.c ****                     #else
 572:.\Generated_Source\PSoC5/UART_OSDP_READER.c ****                         UART_OSDP_READER_RXSTATUS_MASK_REG |= UART_OSDP_READER_RX_STS_FIFO_NOTEMPTY
 573:.\Generated_Source\PSoC5/UART_OSDP_READER.c ****                     #endif /* end UART_OSDP_READER_HD_ENABLED */
 574:.\Generated_Source\PSoC5/UART_OSDP_READER.c ****                 #endif /* UART_OSDP_READER_RX_INTERRUPT_ENABLED and Hardware flow control*/
 575:.\Generated_Source\PSoC5/UART_OSDP_READER.c ****             }
 576:.\Generated_Source\PSoC5/UART_OSDP_READER.c **** 
 577:.\Generated_Source\PSoC5/UART_OSDP_READER.c ****         }
 578:.\Generated_Source\PSoC5/UART_OSDP_READER.c ****         else
 579:.\Generated_Source\PSoC5/UART_OSDP_READER.c ****         {   rxStatus = UART_OSDP_READER_RXSTATUS_REG;
 635              		.loc 1 579 0 is_stmt 1
 636 0062 134B     		ldr	r3, .L45+20
 637 0064 1B78     		ldrb	r3, [r3]
 638 0066 3B71     		strb	r3, [r7, #4]
 580:.\Generated_Source\PSoC5/UART_OSDP_READER.c ****             if((rxStatus & UART_OSDP_READER_RX_STS_FIFO_NOTEMPTY) != 0u)
 639              		.loc 1 580 0
 640 0068 3B79     		ldrb	r3, [r7, #4]	@ zero_extendqisi2
 641 006a 03F02003 		and	r3, r3, #32
 642 006e 002B     		cmp	r3, #0
 643 0070 09D0     		beq	.L43
 581:.\Generated_Source\PSoC5/UART_OSDP_READER.c ****             {   /* Read received data from FIFO */
 582:.\Generated_Source\PSoC5/UART_OSDP_READER.c ****                 rxData = UART_OSDP_READER_RXDATA_REG;
 644              		.loc 1 582 0
 645 0072 104B     		ldr	r3, .L45+24
 646 0074 1B78     		ldrb	r3, [r3]
 647 0076 FB71     		strb	r3, [r7, #7]
 583:.\Generated_Source\PSoC5/UART_OSDP_READER.c ****                 /*Check status on error*/
 584:.\Generated_Source\PSoC5/UART_OSDP_READER.c ****                 if((rxStatus & (UART_OSDP_READER_RX_STS_BREAK | UART_OSDP_READER_RX_STS_PAR_ERROR |
 585:.\Generated_Source\PSoC5/UART_OSDP_READER.c ****                                 UART_OSDP_READER_RX_STS_STOP_ERROR | UART_OSDP_READER_RX_STS_OVERRU
 648              		.loc 1 585 0
 649 0078 3B79     		ldrb	r3, [r7, #4]	@ zero_extendqisi2
 650 007a 03F01E03 		and	r3, r3, #30
 584:.\Generated_Source\PSoC5/UART_OSDP_READER.c ****                 if((rxStatus & (UART_OSDP_READER_RX_STS_BREAK | UART_OSDP_READER_RX_STS_PAR_ERROR |
 651              		.loc 1 584 0
 652 007e 002B     		cmp	r3, #0
 653 0080 01D0     		beq	.L43
 586:.\Generated_Source\PSoC5/UART_OSDP_READER.c ****                 {
 587:.\Generated_Source\PSoC5/UART_OSDP_READER.c ****                     rxData = 0u;
 654              		.loc 1 587 0
 655 0082 0023     		movs	r3, #0
 656 0084 FB71     		strb	r3, [r7, #7]
 657              	.L43:
 588:.\Generated_Source\PSoC5/UART_OSDP_READER.c ****                 }
 589:.\Generated_Source\PSoC5/UART_OSDP_READER.c ****             }
 590:.\Generated_Source\PSoC5/UART_OSDP_READER.c ****         }
 591:.\Generated_Source\PSoC5/UART_OSDP_READER.c **** 
 592:.\Generated_Source\PSoC5/UART_OSDP_READER.c ****         UART_OSDP_READER_EnableRxInt();
ARM GAS  C:\Users\Yiquing\AppData\Local\Temp\ccF0cyIx.s 			page 23


 658              		.loc 1 592 0
 659 0086 0C4B     		ldr	r3, .L45+28
 660 0088 0222     		movs	r2, #2
 661 008a 1A60     		str	r2, [r3]
 593:.\Generated_Source\PSoC5/UART_OSDP_READER.c **** 
 594:.\Generated_Source\PSoC5/UART_OSDP_READER.c ****     #else
 595:.\Generated_Source\PSoC5/UART_OSDP_READER.c **** 
 596:.\Generated_Source\PSoC5/UART_OSDP_READER.c ****         rxStatus =UART_OSDP_READER_RXSTATUS_REG;
 597:.\Generated_Source\PSoC5/UART_OSDP_READER.c ****         if((rxStatus & UART_OSDP_READER_RX_STS_FIFO_NOTEMPTY) != 0u)
 598:.\Generated_Source\PSoC5/UART_OSDP_READER.c ****         {
 599:.\Generated_Source\PSoC5/UART_OSDP_READER.c ****             /* Read received data from FIFO */
 600:.\Generated_Source\PSoC5/UART_OSDP_READER.c ****             rxData = UART_OSDP_READER_RXDATA_REG;
 601:.\Generated_Source\PSoC5/UART_OSDP_READER.c **** 
 602:.\Generated_Source\PSoC5/UART_OSDP_READER.c ****             /*Check status on error*/
 603:.\Generated_Source\PSoC5/UART_OSDP_READER.c ****             if((rxStatus & (UART_OSDP_READER_RX_STS_BREAK | UART_OSDP_READER_RX_STS_PAR_ERROR |
 604:.\Generated_Source\PSoC5/UART_OSDP_READER.c ****                             UART_OSDP_READER_RX_STS_STOP_ERROR | UART_OSDP_READER_RX_STS_OVERRUN)) 
 605:.\Generated_Source\PSoC5/UART_OSDP_READER.c ****             {
 606:.\Generated_Source\PSoC5/UART_OSDP_READER.c ****                 rxData = 0u;
 607:.\Generated_Source\PSoC5/UART_OSDP_READER.c ****             }
 608:.\Generated_Source\PSoC5/UART_OSDP_READER.c ****         }
 609:.\Generated_Source\PSoC5/UART_OSDP_READER.c ****     #endif /* (UART_OSDP_READER_RX_INTERRUPT_ENABLED) */
 610:.\Generated_Source\PSoC5/UART_OSDP_READER.c **** 
 611:.\Generated_Source\PSoC5/UART_OSDP_READER.c ****         return(rxData);
 662              		.loc 1 611 0
 663 008c FB79     		ldrb	r3, [r7, #7]	@ zero_extendqisi2
 612:.\Generated_Source\PSoC5/UART_OSDP_READER.c ****     }
 664              		.loc 1 612 0
 665 008e 1846     		mov	r0, r3
 666 0090 0C37     		adds	r7, r7, #12
 667 0092 BD46     		mov	sp, r7
 668              		@ sp needed
 669 0094 5DF8047B 		ldr	r7, [sp], #4
 670 0098 7047     		bx	lr
 671              	.L46:
 672 009a 00BF     		.align	2
 673              	.L45:
 674 009c 80E100E0 		.word	-536813184
 675 00a0 00000000 		.word	UART_OSDP_READER_rxBufferRead
 676 00a4 00000000 		.word	UART_OSDP_READER_rxBufferWrite
 677 00a8 00000000 		.word	UART_OSDP_READER_rxBufferLoopDetect
 678 00ac 00000000 		.word	UART_OSDP_READER_rxBuffer
 679 00b0 67640040 		.word	1073767527
 680 00b4 47640040 		.word	1073767495
 681 00b8 00E100E0 		.word	-536813312
 682              		.cfi_endproc
 683              	.LFE9:
 684              		.size	UART_OSDP_READER_GetChar, .-UART_OSDP_READER_GetChar
 685              		.section	.text.UART_OSDP_READER_GetByte,"ax",%progbits
 686              		.align	2
 687              		.global	UART_OSDP_READER_GetByte
 688              		.thumb
 689              		.thumb_func
 690              		.type	UART_OSDP_READER_GetByte, %function
 691              	UART_OSDP_READER_GetByte:
 692              	.LFB10:
 613:.\Generated_Source\PSoC5/UART_OSDP_READER.c **** 
 614:.\Generated_Source\PSoC5/UART_OSDP_READER.c **** 
ARM GAS  C:\Users\Yiquing\AppData\Local\Temp\ccF0cyIx.s 			page 24


 615:.\Generated_Source\PSoC5/UART_OSDP_READER.c ****     /*******************************************************************************
 616:.\Generated_Source\PSoC5/UART_OSDP_READER.c ****     * Function Name: UART_OSDP_READER_GetByte
 617:.\Generated_Source\PSoC5/UART_OSDP_READER.c ****     ********************************************************************************
 618:.\Generated_Source\PSoC5/UART_OSDP_READER.c ****     *
 619:.\Generated_Source\PSoC5/UART_OSDP_READER.c ****     * Summary:
 620:.\Generated_Source\PSoC5/UART_OSDP_READER.c ****     *  Reads UART RX buffer immediately, returns received character and error
 621:.\Generated_Source\PSoC5/UART_OSDP_READER.c ****     *  condition.
 622:.\Generated_Source\PSoC5/UART_OSDP_READER.c ****     *
 623:.\Generated_Source\PSoC5/UART_OSDP_READER.c ****     * Parameters:
 624:.\Generated_Source\PSoC5/UART_OSDP_READER.c ****     *  None.
 625:.\Generated_Source\PSoC5/UART_OSDP_READER.c ****     *
 626:.\Generated_Source\PSoC5/UART_OSDP_READER.c ****     * Return:
 627:.\Generated_Source\PSoC5/UART_OSDP_READER.c ****     *  MSB contains status and LSB contains UART RX data. If the MSB is nonzero,
 628:.\Generated_Source\PSoC5/UART_OSDP_READER.c ****     *  an error has occurred.
 629:.\Generated_Source\PSoC5/UART_OSDP_READER.c ****     *
 630:.\Generated_Source\PSoC5/UART_OSDP_READER.c ****     * Reentrant:
 631:.\Generated_Source\PSoC5/UART_OSDP_READER.c ****     *  No.
 632:.\Generated_Source\PSoC5/UART_OSDP_READER.c ****     *
 633:.\Generated_Source\PSoC5/UART_OSDP_READER.c ****     *******************************************************************************/
 634:.\Generated_Source\PSoC5/UART_OSDP_READER.c ****     uint16 UART_OSDP_READER_GetByte(void) 
 635:.\Generated_Source\PSoC5/UART_OSDP_READER.c ****     {
 693              		.loc 1 635 0
 694              		.cfi_startproc
 695              		@ args = 0, pretend = 0, frame = 8
 696              		@ frame_needed = 1, uses_anonymous_args = 0
 697 0000 90B5     		push	{r4, r7, lr}
 698              		.cfi_def_cfa_offset 12
 699              		.cfi_offset 4, -12
 700              		.cfi_offset 7, -8
 701              		.cfi_offset 14, -4
 702 0002 83B0     		sub	sp, sp, #12
 703              		.cfi_def_cfa_offset 24
 704 0004 00AF     		add	r7, sp, #0
 705              		.cfi_def_cfa_register 7
 636:.\Generated_Source\PSoC5/UART_OSDP_READER.c ****         
 637:.\Generated_Source\PSoC5/UART_OSDP_READER.c ****     #if (UART_OSDP_READER_RX_INTERRUPT_ENABLED)
 638:.\Generated_Source\PSoC5/UART_OSDP_READER.c ****         uint16 locErrorStatus;
 639:.\Generated_Source\PSoC5/UART_OSDP_READER.c ****         /* Protect variables that could change on interrupt */
 640:.\Generated_Source\PSoC5/UART_OSDP_READER.c ****         UART_OSDP_READER_DisableRxInt();
 706              		.loc 1 640 0
 707 0006 0C4B     		ldr	r3, .L49
 708 0008 0222     		movs	r2, #2
 709 000a 1A60     		str	r2, [r3]
 641:.\Generated_Source\PSoC5/UART_OSDP_READER.c ****         locErrorStatus = (uint16)UART_OSDP_READER_errorStatus;
 710              		.loc 1 641 0
 711 000c 0B4B     		ldr	r3, .L49+4
 712 000e 1B78     		ldrb	r3, [r3]	@ zero_extendqisi2
 713 0010 FB80     		strh	r3, [r7, #6]	@ movhi
 642:.\Generated_Source\PSoC5/UART_OSDP_READER.c ****         UART_OSDP_READER_errorStatus = 0u;
 714              		.loc 1 642 0
 715 0012 0A4B     		ldr	r3, .L49+4
 716 0014 0022     		movs	r2, #0
 717 0016 1A70     		strb	r2, [r3]
 643:.\Generated_Source\PSoC5/UART_OSDP_READER.c ****         UART_OSDP_READER_EnableRxInt();
 718              		.loc 1 643 0
 719 0018 094B     		ldr	r3, .L49+8
 720 001a 0222     		movs	r2, #2
ARM GAS  C:\Users\Yiquing\AppData\Local\Temp\ccF0cyIx.s 			page 25


 721 001c 1A60     		str	r2, [r3]
 644:.\Generated_Source\PSoC5/UART_OSDP_READER.c ****         return ( (uint16)(locErrorStatus << 8u) | UART_OSDP_READER_ReadRxData() );
 722              		.loc 1 644 0
 723 001e FB88     		ldrh	r3, [r7, #6]	@ movhi
 724 0020 1B02     		lsls	r3, r3, #8
 725 0022 9CB2     		uxth	r4, r3
 726 0024 FFF7FEFF 		bl	UART_OSDP_READER_ReadRxData
 727 0028 0346     		mov	r3, r0
 728 002a 2343     		orrs	r3, r3, r4
 729 002c 9BB2     		uxth	r3, r3
 645:.\Generated_Source\PSoC5/UART_OSDP_READER.c ****     #else
 646:.\Generated_Source\PSoC5/UART_OSDP_READER.c ****         return ( ((uint16)UART_OSDP_READER_ReadRxStatus() << 8u) | UART_OSDP_READER_ReadRxData() );
 647:.\Generated_Source\PSoC5/UART_OSDP_READER.c ****     #endif /* UART_OSDP_READER_RX_INTERRUPT_ENABLED */
 648:.\Generated_Source\PSoC5/UART_OSDP_READER.c ****         
 649:.\Generated_Source\PSoC5/UART_OSDP_READER.c ****     }
 730              		.loc 1 649 0
 731 002e 1846     		mov	r0, r3
 732 0030 0C37     		adds	r7, r7, #12
 733 0032 BD46     		mov	sp, r7
 734              		@ sp needed
 735 0034 90BD     		pop	{r4, r7, pc}
 736              	.L50:
 737 0036 00BF     		.align	2
 738              	.L49:
 739 0038 80E100E0 		.word	-536813184
 740 003c 00000000 		.word	UART_OSDP_READER_errorStatus
 741 0040 00E100E0 		.word	-536813312
 742              		.cfi_endproc
 743              	.LFE10:
 744              		.size	UART_OSDP_READER_GetByte, .-UART_OSDP_READER_GetByte
 745              		.section	.text.UART_OSDP_READER_GetRxBufferSize,"ax",%progbits
 746              		.align	2
 747              		.global	UART_OSDP_READER_GetRxBufferSize
 748              		.thumb
 749              		.thumb_func
 750              		.type	UART_OSDP_READER_GetRxBufferSize, %function
 751              	UART_OSDP_READER_GetRxBufferSize:
 752              	.LFB11:
 650:.\Generated_Source\PSoC5/UART_OSDP_READER.c **** 
 651:.\Generated_Source\PSoC5/UART_OSDP_READER.c **** 
 652:.\Generated_Source\PSoC5/UART_OSDP_READER.c ****     /*******************************************************************************
 653:.\Generated_Source\PSoC5/UART_OSDP_READER.c ****     * Function Name: UART_OSDP_READER_GetRxBufferSize
 654:.\Generated_Source\PSoC5/UART_OSDP_READER.c ****     ********************************************************************************
 655:.\Generated_Source\PSoC5/UART_OSDP_READER.c ****     *
 656:.\Generated_Source\PSoC5/UART_OSDP_READER.c ****     * Summary:
 657:.\Generated_Source\PSoC5/UART_OSDP_READER.c ****     *  Returns the number of received bytes available in the RX buffer.
 658:.\Generated_Source\PSoC5/UART_OSDP_READER.c ****     *  * RX software buffer is disabled (RX Buffer Size parameter is equal to 4): 
 659:.\Generated_Source\PSoC5/UART_OSDP_READER.c ****     *    returns 0 for empty RX FIFO or 1 for not empty RX FIFO.
 660:.\Generated_Source\PSoC5/UART_OSDP_READER.c ****     *  * RX software buffer is enabled: returns the number of bytes available in 
 661:.\Generated_Source\PSoC5/UART_OSDP_READER.c ****     *    the RX software buffer. Bytes available in the RX FIFO do not take to 
 662:.\Generated_Source\PSoC5/UART_OSDP_READER.c ****     *    account.
 663:.\Generated_Source\PSoC5/UART_OSDP_READER.c ****     *
 664:.\Generated_Source\PSoC5/UART_OSDP_READER.c ****     * Parameters:
 665:.\Generated_Source\PSoC5/UART_OSDP_READER.c ****     *  None.
 666:.\Generated_Source\PSoC5/UART_OSDP_READER.c ****     *
 667:.\Generated_Source\PSoC5/UART_OSDP_READER.c ****     * Return:
 668:.\Generated_Source\PSoC5/UART_OSDP_READER.c ****     *  uint8: Number of bytes in the RX buffer. 
ARM GAS  C:\Users\Yiquing\AppData\Local\Temp\ccF0cyIx.s 			page 26


 669:.\Generated_Source\PSoC5/UART_OSDP_READER.c ****     *    Return value type depends on RX Buffer Size parameter.
 670:.\Generated_Source\PSoC5/UART_OSDP_READER.c ****     *
 671:.\Generated_Source\PSoC5/UART_OSDP_READER.c ****     * Global Variables:
 672:.\Generated_Source\PSoC5/UART_OSDP_READER.c ****     *  UART_OSDP_READER_rxBufferWrite - used to calculate left bytes.
 673:.\Generated_Source\PSoC5/UART_OSDP_READER.c ****     *  UART_OSDP_READER_rxBufferRead - used to calculate left bytes.
 674:.\Generated_Source\PSoC5/UART_OSDP_READER.c ****     *  UART_OSDP_READER_rxBufferLoopDetect - checked to decide left bytes amount.
 675:.\Generated_Source\PSoC5/UART_OSDP_READER.c ****     *
 676:.\Generated_Source\PSoC5/UART_OSDP_READER.c ****     * Reentrant:
 677:.\Generated_Source\PSoC5/UART_OSDP_READER.c ****     *  No.
 678:.\Generated_Source\PSoC5/UART_OSDP_READER.c ****     *
 679:.\Generated_Source\PSoC5/UART_OSDP_READER.c ****     * Theory:
 680:.\Generated_Source\PSoC5/UART_OSDP_READER.c ****     *  Allows the user to find out how full the RX Buffer is.
 681:.\Generated_Source\PSoC5/UART_OSDP_READER.c ****     *
 682:.\Generated_Source\PSoC5/UART_OSDP_READER.c ****     *******************************************************************************/
 683:.\Generated_Source\PSoC5/UART_OSDP_READER.c ****     uint8 UART_OSDP_READER_GetRxBufferSize(void)
 684:.\Generated_Source\PSoC5/UART_OSDP_READER.c ****                                                             
 685:.\Generated_Source\PSoC5/UART_OSDP_READER.c ****     {
 753              		.loc 1 685 0
 754              		.cfi_startproc
 755              		@ args = 0, pretend = 0, frame = 8
 756              		@ frame_needed = 1, uses_anonymous_args = 0
 757              		@ link register save eliminated.
 758 0000 80B4     		push	{r7}
 759              		.cfi_def_cfa_offset 4
 760              		.cfi_offset 7, -4
 761 0002 83B0     		sub	sp, sp, #12
 762              		.cfi_def_cfa_offset 16
 763 0004 00AF     		add	r7, sp, #0
 764              		.cfi_def_cfa_register 7
 686:.\Generated_Source\PSoC5/UART_OSDP_READER.c ****         uint8 size;
 687:.\Generated_Source\PSoC5/UART_OSDP_READER.c **** 
 688:.\Generated_Source\PSoC5/UART_OSDP_READER.c ****     #if (UART_OSDP_READER_RX_INTERRUPT_ENABLED)
 689:.\Generated_Source\PSoC5/UART_OSDP_READER.c **** 
 690:.\Generated_Source\PSoC5/UART_OSDP_READER.c ****         /* Protect variables that could change on interrupt */
 691:.\Generated_Source\PSoC5/UART_OSDP_READER.c ****         UART_OSDP_READER_DisableRxInt();
 765              		.loc 1 691 0
 766 0006 1D4B     		ldr	r3, .L58
 767 0008 0222     		movs	r2, #2
 768 000a 1A60     		str	r2, [r3]
 692:.\Generated_Source\PSoC5/UART_OSDP_READER.c **** 
 693:.\Generated_Source\PSoC5/UART_OSDP_READER.c ****         if(UART_OSDP_READER_rxBufferRead == UART_OSDP_READER_rxBufferWrite)
 769              		.loc 1 693 0
 770 000c 1C4B     		ldr	r3, .L58+4
 771 000e 1B78     		ldrb	r3, [r3]
 772 0010 DAB2     		uxtb	r2, r3
 773 0012 1C4B     		ldr	r3, .L58+8
 774 0014 1B78     		ldrb	r3, [r3]
 775 0016 DBB2     		uxtb	r3, r3
 776 0018 9A42     		cmp	r2, r3
 777 001a 0AD1     		bne	.L52
 694:.\Generated_Source\PSoC5/UART_OSDP_READER.c ****         {
 695:.\Generated_Source\PSoC5/UART_OSDP_READER.c ****             if(UART_OSDP_READER_rxBufferLoopDetect != 0u)
 778              		.loc 1 695 0
 779 001c 1A4B     		ldr	r3, .L58+12
 780 001e 1B78     		ldrb	r3, [r3]
 781 0020 DBB2     		uxtb	r3, r3
 782 0022 002B     		cmp	r3, #0
ARM GAS  C:\Users\Yiquing\AppData\Local\Temp\ccF0cyIx.s 			page 27


 783 0024 02D0     		beq	.L53
 696:.\Generated_Source\PSoC5/UART_OSDP_READER.c ****             {
 697:.\Generated_Source\PSoC5/UART_OSDP_READER.c ****                 size = UART_OSDP_READER_RX_BUFFER_SIZE;
 784              		.loc 1 697 0
 785 0026 8023     		movs	r3, #128
 786 0028 FB71     		strb	r3, [r7, #7]
 787 002a 1DE0     		b	.L55
 788              	.L53:
 698:.\Generated_Source\PSoC5/UART_OSDP_READER.c ****             }
 699:.\Generated_Source\PSoC5/UART_OSDP_READER.c ****             else
 700:.\Generated_Source\PSoC5/UART_OSDP_READER.c ****             {
 701:.\Generated_Source\PSoC5/UART_OSDP_READER.c ****                 size = 0u;
 789              		.loc 1 701 0
 790 002c 0023     		movs	r3, #0
 791 002e FB71     		strb	r3, [r7, #7]
 792 0030 1AE0     		b	.L55
 793              	.L52:
 702:.\Generated_Source\PSoC5/UART_OSDP_READER.c ****             }
 703:.\Generated_Source\PSoC5/UART_OSDP_READER.c ****         }
 704:.\Generated_Source\PSoC5/UART_OSDP_READER.c ****         else if(UART_OSDP_READER_rxBufferRead < UART_OSDP_READER_rxBufferWrite)
 794              		.loc 1 704 0
 795 0032 134B     		ldr	r3, .L58+4
 796 0034 1B78     		ldrb	r3, [r3]
 797 0036 DAB2     		uxtb	r2, r3
 798 0038 124B     		ldr	r3, .L58+8
 799 003a 1B78     		ldrb	r3, [r3]
 800 003c DBB2     		uxtb	r3, r3
 801 003e 9A42     		cmp	r2, r3
 802 0040 08D2     		bcs	.L56
 705:.\Generated_Source\PSoC5/UART_OSDP_READER.c ****         {
 706:.\Generated_Source\PSoC5/UART_OSDP_READER.c ****             size = (UART_OSDP_READER_rxBufferWrite - UART_OSDP_READER_rxBufferRead);
 803              		.loc 1 706 0
 804 0042 104B     		ldr	r3, .L58+8
 805 0044 1B78     		ldrb	r3, [r3]
 806 0046 DAB2     		uxtb	r2, r3
 807 0048 0D4B     		ldr	r3, .L58+4
 808 004a 1B78     		ldrb	r3, [r3]
 809 004c DBB2     		uxtb	r3, r3
 810 004e D31A     		subs	r3, r2, r3
 811 0050 FB71     		strb	r3, [r7, #7]
 812 0052 09E0     		b	.L55
 813              	.L56:
 707:.\Generated_Source\PSoC5/UART_OSDP_READER.c ****         }
 708:.\Generated_Source\PSoC5/UART_OSDP_READER.c ****         else
 709:.\Generated_Source\PSoC5/UART_OSDP_READER.c ****         {
 710:.\Generated_Source\PSoC5/UART_OSDP_READER.c ****             size = (UART_OSDP_READER_RX_BUFFER_SIZE - UART_OSDP_READER_rxBufferRead) + UART_OSDP_RE
 814              		.loc 1 710 0
 815 0054 0B4B     		ldr	r3, .L58+8
 816 0056 1B78     		ldrb	r3, [r3]
 817 0058 DAB2     		uxtb	r2, r3
 818 005a 094B     		ldr	r3, .L58+4
 819 005c 1B78     		ldrb	r3, [r3]
 820 005e DBB2     		uxtb	r3, r3
 821 0060 D31A     		subs	r3, r2, r3
 822 0062 DBB2     		uxtb	r3, r3
 823 0064 803B     		subs	r3, r3, #128
 824 0066 FB71     		strb	r3, [r7, #7]
ARM GAS  C:\Users\Yiquing\AppData\Local\Temp\ccF0cyIx.s 			page 28


 825              	.L55:
 711:.\Generated_Source\PSoC5/UART_OSDP_READER.c ****         }
 712:.\Generated_Source\PSoC5/UART_OSDP_READER.c **** 
 713:.\Generated_Source\PSoC5/UART_OSDP_READER.c ****         UART_OSDP_READER_EnableRxInt();
 826              		.loc 1 713 0
 827 0068 084B     		ldr	r3, .L58+16
 828 006a 0222     		movs	r2, #2
 829 006c 1A60     		str	r2, [r3]
 714:.\Generated_Source\PSoC5/UART_OSDP_READER.c **** 
 715:.\Generated_Source\PSoC5/UART_OSDP_READER.c ****     #else
 716:.\Generated_Source\PSoC5/UART_OSDP_READER.c **** 
 717:.\Generated_Source\PSoC5/UART_OSDP_READER.c ****         /* We can only know if there is data in the fifo. */
 718:.\Generated_Source\PSoC5/UART_OSDP_READER.c ****         size = ((UART_OSDP_READER_RXSTATUS_REG & UART_OSDP_READER_RX_STS_FIFO_NOTEMPTY) != 0u) ? 1u
 719:.\Generated_Source\PSoC5/UART_OSDP_READER.c **** 
 720:.\Generated_Source\PSoC5/UART_OSDP_READER.c ****     #endif /* (UART_OSDP_READER_RX_INTERRUPT_ENABLED) */
 721:.\Generated_Source\PSoC5/UART_OSDP_READER.c **** 
 722:.\Generated_Source\PSoC5/UART_OSDP_READER.c ****         return(size);
 830              		.loc 1 722 0
 831 006e FB79     		ldrb	r3, [r7, #7]	@ zero_extendqisi2
 723:.\Generated_Source\PSoC5/UART_OSDP_READER.c ****     }
 832              		.loc 1 723 0
 833 0070 1846     		mov	r0, r3
 834 0072 0C37     		adds	r7, r7, #12
 835 0074 BD46     		mov	sp, r7
 836              		@ sp needed
 837 0076 5DF8047B 		ldr	r7, [sp], #4
 838 007a 7047     		bx	lr
 839              	.L59:
 840              		.align	2
 841              	.L58:
 842 007c 80E100E0 		.word	-536813184
 843 0080 00000000 		.word	UART_OSDP_READER_rxBufferRead
 844 0084 00000000 		.word	UART_OSDP_READER_rxBufferWrite
 845 0088 00000000 		.word	UART_OSDP_READER_rxBufferLoopDetect
 846 008c 00E100E0 		.word	-536813312
 847              		.cfi_endproc
 848              	.LFE11:
 849              		.size	UART_OSDP_READER_GetRxBufferSize, .-UART_OSDP_READER_GetRxBufferSize
 850              		.section	.text.UART_OSDP_READER_ClearRxBuffer,"ax",%progbits
 851              		.align	2
 852              		.global	UART_OSDP_READER_ClearRxBuffer
 853              		.thumb
 854              		.thumb_func
 855              		.type	UART_OSDP_READER_ClearRxBuffer, %function
 856              	UART_OSDP_READER_ClearRxBuffer:
 857              	.LFB12:
 724:.\Generated_Source\PSoC5/UART_OSDP_READER.c **** 
 725:.\Generated_Source\PSoC5/UART_OSDP_READER.c **** 
 726:.\Generated_Source\PSoC5/UART_OSDP_READER.c ****     /*******************************************************************************
 727:.\Generated_Source\PSoC5/UART_OSDP_READER.c ****     * Function Name: UART_OSDP_READER_ClearRxBuffer
 728:.\Generated_Source\PSoC5/UART_OSDP_READER.c ****     ********************************************************************************
 729:.\Generated_Source\PSoC5/UART_OSDP_READER.c ****     *
 730:.\Generated_Source\PSoC5/UART_OSDP_READER.c ****     * Summary:
 731:.\Generated_Source\PSoC5/UART_OSDP_READER.c ****     *  Clears the receiver memory buffer and hardware RX FIFO of all received data.
 732:.\Generated_Source\PSoC5/UART_OSDP_READER.c ****     *
 733:.\Generated_Source\PSoC5/UART_OSDP_READER.c ****     * Parameters:
 734:.\Generated_Source\PSoC5/UART_OSDP_READER.c ****     *  None.
ARM GAS  C:\Users\Yiquing\AppData\Local\Temp\ccF0cyIx.s 			page 29


 735:.\Generated_Source\PSoC5/UART_OSDP_READER.c ****     *
 736:.\Generated_Source\PSoC5/UART_OSDP_READER.c ****     * Return:
 737:.\Generated_Source\PSoC5/UART_OSDP_READER.c ****     *  None.
 738:.\Generated_Source\PSoC5/UART_OSDP_READER.c ****     *
 739:.\Generated_Source\PSoC5/UART_OSDP_READER.c ****     * Global Variables:
 740:.\Generated_Source\PSoC5/UART_OSDP_READER.c ****     *  UART_OSDP_READER_rxBufferWrite - cleared to zero.
 741:.\Generated_Source\PSoC5/UART_OSDP_READER.c ****     *  UART_OSDP_READER_rxBufferRead - cleared to zero.
 742:.\Generated_Source\PSoC5/UART_OSDP_READER.c ****     *  UART_OSDP_READER_rxBufferLoopDetect - cleared to zero.
 743:.\Generated_Source\PSoC5/UART_OSDP_READER.c ****     *  UART_OSDP_READER_rxBufferOverflow - cleared to zero.
 744:.\Generated_Source\PSoC5/UART_OSDP_READER.c ****     *
 745:.\Generated_Source\PSoC5/UART_OSDP_READER.c ****     * Reentrant:
 746:.\Generated_Source\PSoC5/UART_OSDP_READER.c ****     *  No.
 747:.\Generated_Source\PSoC5/UART_OSDP_READER.c ****     *
 748:.\Generated_Source\PSoC5/UART_OSDP_READER.c ****     * Theory:
 749:.\Generated_Source\PSoC5/UART_OSDP_READER.c ****     *  Setting the pointers to zero makes the system believe there is no data to
 750:.\Generated_Source\PSoC5/UART_OSDP_READER.c ****     *  read and writing will resume at address 0 overwriting any data that may
 751:.\Generated_Source\PSoC5/UART_OSDP_READER.c ****     *  have remained in the RAM.
 752:.\Generated_Source\PSoC5/UART_OSDP_READER.c ****     *
 753:.\Generated_Source\PSoC5/UART_OSDP_READER.c ****     * Side Effects:
 754:.\Generated_Source\PSoC5/UART_OSDP_READER.c ****     *  Any received data not read from the RAM or FIFO buffer will be lost.
 755:.\Generated_Source\PSoC5/UART_OSDP_READER.c ****     *
 756:.\Generated_Source\PSoC5/UART_OSDP_READER.c ****     *******************************************************************************/
 757:.\Generated_Source\PSoC5/UART_OSDP_READER.c ****     void UART_OSDP_READER_ClearRxBuffer(void) 
 758:.\Generated_Source\PSoC5/UART_OSDP_READER.c ****     {
 858              		.loc 1 758 0
 859              		.cfi_startproc
 860              		@ args = 0, pretend = 0, frame = 8
 861              		@ frame_needed = 1, uses_anonymous_args = 0
 862 0000 80B5     		push	{r7, lr}
 863              		.cfi_def_cfa_offset 8
 864              		.cfi_offset 7, -8
 865              		.cfi_offset 14, -4
 866 0002 82B0     		sub	sp, sp, #8
 867              		.cfi_def_cfa_offset 16
 868 0004 00AF     		add	r7, sp, #0
 869              		.cfi_def_cfa_register 7
 759:.\Generated_Source\PSoC5/UART_OSDP_READER.c ****         uint8 enableInterrupts;
 760:.\Generated_Source\PSoC5/UART_OSDP_READER.c **** 
 761:.\Generated_Source\PSoC5/UART_OSDP_READER.c ****         /* Clear the HW FIFO */
 762:.\Generated_Source\PSoC5/UART_OSDP_READER.c ****         enableInterrupts = CyEnterCriticalSection();
 870              		.loc 1 762 0
 871 0006 FFF7FEFF 		bl	CyEnterCriticalSection
 872 000a 0346     		mov	r3, r0
 873 000c FB71     		strb	r3, [r7, #7]
 763:.\Generated_Source\PSoC5/UART_OSDP_READER.c ****         UART_OSDP_READER_RXDATA_AUX_CTL_REG |= (uint8)  UART_OSDP_READER_RX_FIFO_CLR;
 874              		.loc 1 763 0
 875 000e 144B     		ldr	r3, .L61
 876 0010 134A     		ldr	r2, .L61
 877 0012 1278     		ldrb	r2, [r2]
 878 0014 D2B2     		uxtb	r2, r2
 879 0016 42F00102 		orr	r2, r2, #1
 880 001a D2B2     		uxtb	r2, r2
 881 001c 1A70     		strb	r2, [r3]
 764:.\Generated_Source\PSoC5/UART_OSDP_READER.c ****         UART_OSDP_READER_RXDATA_AUX_CTL_REG &= (uint8) ~UART_OSDP_READER_RX_FIFO_CLR;
 882              		.loc 1 764 0
 883 001e 104B     		ldr	r3, .L61
 884 0020 0F4A     		ldr	r2, .L61
ARM GAS  C:\Users\Yiquing\AppData\Local\Temp\ccF0cyIx.s 			page 30


 885 0022 1278     		ldrb	r2, [r2]
 886 0024 D2B2     		uxtb	r2, r2
 887 0026 22F00102 		bic	r2, r2, #1
 888 002a D2B2     		uxtb	r2, r2
 889 002c 1A70     		strb	r2, [r3]
 765:.\Generated_Source\PSoC5/UART_OSDP_READER.c ****         CyExitCriticalSection(enableInterrupts);
 890              		.loc 1 765 0
 891 002e FB79     		ldrb	r3, [r7, #7]	@ zero_extendqisi2
 892 0030 1846     		mov	r0, r3
 893 0032 FFF7FEFF 		bl	CyExitCriticalSection
 766:.\Generated_Source\PSoC5/UART_OSDP_READER.c **** 
 767:.\Generated_Source\PSoC5/UART_OSDP_READER.c ****     #if (UART_OSDP_READER_RX_INTERRUPT_ENABLED)
 768:.\Generated_Source\PSoC5/UART_OSDP_READER.c **** 
 769:.\Generated_Source\PSoC5/UART_OSDP_READER.c ****         /* Protect variables that could change on interrupt. */
 770:.\Generated_Source\PSoC5/UART_OSDP_READER.c ****         UART_OSDP_READER_DisableRxInt();
 894              		.loc 1 770 0
 895 0036 0B4B     		ldr	r3, .L61+4
 896 0038 0222     		movs	r2, #2
 897 003a 1A60     		str	r2, [r3]
 771:.\Generated_Source\PSoC5/UART_OSDP_READER.c **** 
 772:.\Generated_Source\PSoC5/UART_OSDP_READER.c ****         UART_OSDP_READER_rxBufferRead = 0u;
 898              		.loc 1 772 0
 899 003c 0A4B     		ldr	r3, .L61+8
 900 003e 0022     		movs	r2, #0
 901 0040 1A70     		strb	r2, [r3]
 773:.\Generated_Source\PSoC5/UART_OSDP_READER.c ****         UART_OSDP_READER_rxBufferWrite = 0u;
 902              		.loc 1 773 0
 903 0042 0A4B     		ldr	r3, .L61+12
 904 0044 0022     		movs	r2, #0
 905 0046 1A70     		strb	r2, [r3]
 774:.\Generated_Source\PSoC5/UART_OSDP_READER.c ****         UART_OSDP_READER_rxBufferLoopDetect = 0u;
 906              		.loc 1 774 0
 907 0048 094B     		ldr	r3, .L61+16
 908 004a 0022     		movs	r2, #0
 909 004c 1A70     		strb	r2, [r3]
 775:.\Generated_Source\PSoC5/UART_OSDP_READER.c ****         UART_OSDP_READER_rxBufferOverflow = 0u;
 910              		.loc 1 775 0
 911 004e 094B     		ldr	r3, .L61+20
 912 0050 0022     		movs	r2, #0
 913 0052 1A70     		strb	r2, [r3]
 776:.\Generated_Source\PSoC5/UART_OSDP_READER.c **** 
 777:.\Generated_Source\PSoC5/UART_OSDP_READER.c ****         UART_OSDP_READER_EnableRxInt();
 914              		.loc 1 777 0
 915 0054 084B     		ldr	r3, .L61+24
 916 0056 0222     		movs	r2, #2
 917 0058 1A60     		str	r2, [r3]
 778:.\Generated_Source\PSoC5/UART_OSDP_READER.c **** 
 779:.\Generated_Source\PSoC5/UART_OSDP_READER.c ****     #endif /* (UART_OSDP_READER_RX_INTERRUPT_ENABLED) */
 780:.\Generated_Source\PSoC5/UART_OSDP_READER.c **** 
 781:.\Generated_Source\PSoC5/UART_OSDP_READER.c ****     }
 918              		.loc 1 781 0
 919 005a 0837     		adds	r7, r7, #8
 920 005c BD46     		mov	sp, r7
 921              		@ sp needed
 922 005e 80BD     		pop	{r7, pc}
 923              	.L62:
 924              		.align	2
ARM GAS  C:\Users\Yiquing\AppData\Local\Temp\ccF0cyIx.s 			page 31


 925              	.L61:
 926 0060 97640040 		.word	1073767575
 927 0064 80E100E0 		.word	-536813184
 928 0068 00000000 		.word	UART_OSDP_READER_rxBufferRead
 929 006c 00000000 		.word	UART_OSDP_READER_rxBufferWrite
 930 0070 00000000 		.word	UART_OSDP_READER_rxBufferLoopDetect
 931 0074 00000000 		.word	UART_OSDP_READER_rxBufferOverflow
 932 0078 00E100E0 		.word	-536813312
 933              		.cfi_endproc
 934              	.LFE12:
 935              		.size	UART_OSDP_READER_ClearRxBuffer, .-UART_OSDP_READER_ClearRxBuffer
 936              		.section	.text.UART_OSDP_READER_SetRxAddressMode,"ax",%progbits
 937              		.align	2
 938              		.global	UART_OSDP_READER_SetRxAddressMode
 939              		.thumb
 940              		.thumb_func
 941              		.type	UART_OSDP_READER_SetRxAddressMode, %function
 942              	UART_OSDP_READER_SetRxAddressMode:
 943              	.LFB13:
 782:.\Generated_Source\PSoC5/UART_OSDP_READER.c **** 
 783:.\Generated_Source\PSoC5/UART_OSDP_READER.c **** 
 784:.\Generated_Source\PSoC5/UART_OSDP_READER.c ****     /*******************************************************************************
 785:.\Generated_Source\PSoC5/UART_OSDP_READER.c ****     * Function Name: UART_OSDP_READER_SetRxAddressMode
 786:.\Generated_Source\PSoC5/UART_OSDP_READER.c ****     ********************************************************************************
 787:.\Generated_Source\PSoC5/UART_OSDP_READER.c ****     *
 788:.\Generated_Source\PSoC5/UART_OSDP_READER.c ****     * Summary:
 789:.\Generated_Source\PSoC5/UART_OSDP_READER.c ****     *  Sets the software controlled Addressing mode used by the RX portion of the
 790:.\Generated_Source\PSoC5/UART_OSDP_READER.c ****     *  UART.
 791:.\Generated_Source\PSoC5/UART_OSDP_READER.c ****     *
 792:.\Generated_Source\PSoC5/UART_OSDP_READER.c ****     * Parameters:
 793:.\Generated_Source\PSoC5/UART_OSDP_READER.c ****     *  addressMode: Enumerated value indicating the mode of RX addressing
 794:.\Generated_Source\PSoC5/UART_OSDP_READER.c ****     *  UART_OSDP_READER__B_UART__AM_SW_BYTE_BYTE -  Software Byte-by-Byte address
 795:.\Generated_Source\PSoC5/UART_OSDP_READER.c ****     *                                               detection
 796:.\Generated_Source\PSoC5/UART_OSDP_READER.c ****     *  UART_OSDP_READER__B_UART__AM_SW_DETECT_TO_BUFFER - Software Detect to Buffer
 797:.\Generated_Source\PSoC5/UART_OSDP_READER.c ****     *                                               address detection
 798:.\Generated_Source\PSoC5/UART_OSDP_READER.c ****     *  UART_OSDP_READER__B_UART__AM_HW_BYTE_BY_BYTE - Hardware Byte-by-Byte address
 799:.\Generated_Source\PSoC5/UART_OSDP_READER.c ****     *                                               detection
 800:.\Generated_Source\PSoC5/UART_OSDP_READER.c ****     *  UART_OSDP_READER__B_UART__AM_HW_DETECT_TO_BUFFER - Hardware Detect to Buffer
 801:.\Generated_Source\PSoC5/UART_OSDP_READER.c ****     *                                               address detection
 802:.\Generated_Source\PSoC5/UART_OSDP_READER.c ****     *  UART_OSDP_READER__B_UART__AM_NONE - No address detection
 803:.\Generated_Source\PSoC5/UART_OSDP_READER.c ****     *
 804:.\Generated_Source\PSoC5/UART_OSDP_READER.c ****     * Return:
 805:.\Generated_Source\PSoC5/UART_OSDP_READER.c ****     *  None.
 806:.\Generated_Source\PSoC5/UART_OSDP_READER.c ****     *
 807:.\Generated_Source\PSoC5/UART_OSDP_READER.c ****     * Global Variables:
 808:.\Generated_Source\PSoC5/UART_OSDP_READER.c ****     *  UART_OSDP_READER_rxAddressMode - the parameter stored in this variable for
 809:.\Generated_Source\PSoC5/UART_OSDP_READER.c ****     *   the farther usage in RX ISR.
 810:.\Generated_Source\PSoC5/UART_OSDP_READER.c ****     *  UART_OSDP_READER_rxAddressDetected - set to initial state (0).
 811:.\Generated_Source\PSoC5/UART_OSDP_READER.c ****     *
 812:.\Generated_Source\PSoC5/UART_OSDP_READER.c ****     *******************************************************************************/
 813:.\Generated_Source\PSoC5/UART_OSDP_READER.c ****     void UART_OSDP_READER_SetRxAddressMode(uint8 addressMode)
 814:.\Generated_Source\PSoC5/UART_OSDP_READER.c ****                                                         
 815:.\Generated_Source\PSoC5/UART_OSDP_READER.c ****     {
 944              		.loc 1 815 0
 945              		.cfi_startproc
 946              		@ args = 0, pretend = 0, frame = 8
 947              		@ frame_needed = 1, uses_anonymous_args = 0
ARM GAS  C:\Users\Yiquing\AppData\Local\Temp\ccF0cyIx.s 			page 32


 948              		@ link register save eliminated.
 949 0000 80B4     		push	{r7}
 950              		.cfi_def_cfa_offset 4
 951              		.cfi_offset 7, -4
 952 0002 83B0     		sub	sp, sp, #12
 953              		.cfi_def_cfa_offset 16
 954 0004 00AF     		add	r7, sp, #0
 955              		.cfi_def_cfa_register 7
 956 0006 0346     		mov	r3, r0
 957 0008 FB71     		strb	r3, [r7, #7]
 816:.\Generated_Source\PSoC5/UART_OSDP_READER.c ****         #if(UART_OSDP_READER_RXHW_ADDRESS_ENABLED)
 817:.\Generated_Source\PSoC5/UART_OSDP_READER.c ****             #if(UART_OSDP_READER_CONTROL_REG_REMOVED)
 818:.\Generated_Source\PSoC5/UART_OSDP_READER.c ****                 if(0u != addressMode)
 819:.\Generated_Source\PSoC5/UART_OSDP_READER.c ****                 {
 820:.\Generated_Source\PSoC5/UART_OSDP_READER.c ****                     /* Suppress compiler warning */
 821:.\Generated_Source\PSoC5/UART_OSDP_READER.c ****                 }
 822:.\Generated_Source\PSoC5/UART_OSDP_READER.c ****             #else /* UART_OSDP_READER_CONTROL_REG_REMOVED */
 823:.\Generated_Source\PSoC5/UART_OSDP_READER.c ****                 uint8 tmpCtrl;
 824:.\Generated_Source\PSoC5/UART_OSDP_READER.c ****                 tmpCtrl = UART_OSDP_READER_CONTROL_REG & (uint8)~UART_OSDP_READER_CTRL_RXADDR_MODE_
 825:.\Generated_Source\PSoC5/UART_OSDP_READER.c ****                 tmpCtrl |= (uint8)(addressMode << UART_OSDP_READER_CTRL_RXADDR_MODE0_SHIFT);
 826:.\Generated_Source\PSoC5/UART_OSDP_READER.c ****                 UART_OSDP_READER_CONTROL_REG = tmpCtrl;
 827:.\Generated_Source\PSoC5/UART_OSDP_READER.c **** 
 828:.\Generated_Source\PSoC5/UART_OSDP_READER.c ****                 #if(UART_OSDP_READER_RX_INTERRUPT_ENABLED && \
 829:.\Generated_Source\PSoC5/UART_OSDP_READER.c ****                    (UART_OSDP_READER_RXBUFFERSIZE > UART_OSDP_READER_FIFO_LENGTH) )
 830:.\Generated_Source\PSoC5/UART_OSDP_READER.c ****                     UART_OSDP_READER_rxAddressMode = addressMode;
 831:.\Generated_Source\PSoC5/UART_OSDP_READER.c ****                     UART_OSDP_READER_rxAddressDetected = 0u;
 832:.\Generated_Source\PSoC5/UART_OSDP_READER.c ****                 #endif /* End UART_OSDP_READER_RXBUFFERSIZE > UART_OSDP_READER_FIFO_LENGTH*/
 833:.\Generated_Source\PSoC5/UART_OSDP_READER.c ****             #endif /* End UART_OSDP_READER_CONTROL_REG_REMOVED */
 834:.\Generated_Source\PSoC5/UART_OSDP_READER.c ****         #else /* UART_OSDP_READER_RXHW_ADDRESS_ENABLED */
 835:.\Generated_Source\PSoC5/UART_OSDP_READER.c ****             if(0u != addressMode)
 836:.\Generated_Source\PSoC5/UART_OSDP_READER.c ****             {
 837:.\Generated_Source\PSoC5/UART_OSDP_READER.c ****                 /* Suppress compiler warning */
 838:.\Generated_Source\PSoC5/UART_OSDP_READER.c ****             }
 839:.\Generated_Source\PSoC5/UART_OSDP_READER.c ****         #endif /* End UART_OSDP_READER_RXHW_ADDRESS_ENABLED */
 840:.\Generated_Source\PSoC5/UART_OSDP_READER.c ****     }
 958              		.loc 1 840 0
 959 000a 0C37     		adds	r7, r7, #12
 960 000c BD46     		mov	sp, r7
 961              		@ sp needed
 962 000e 5DF8047B 		ldr	r7, [sp], #4
 963 0012 7047     		bx	lr
 964              		.cfi_endproc
 965              	.LFE13:
 966              		.size	UART_OSDP_READER_SetRxAddressMode, .-UART_OSDP_READER_SetRxAddressMode
 967              		.section	.text.UART_OSDP_READER_SetRxAddress1,"ax",%progbits
 968              		.align	2
 969              		.global	UART_OSDP_READER_SetRxAddress1
 970              		.thumb
 971              		.thumb_func
 972              		.type	UART_OSDP_READER_SetRxAddress1, %function
 973              	UART_OSDP_READER_SetRxAddress1:
 974              	.LFB14:
 841:.\Generated_Source\PSoC5/UART_OSDP_READER.c **** 
 842:.\Generated_Source\PSoC5/UART_OSDP_READER.c **** 
 843:.\Generated_Source\PSoC5/UART_OSDP_READER.c ****     /*******************************************************************************
 844:.\Generated_Source\PSoC5/UART_OSDP_READER.c ****     * Function Name: UART_OSDP_READER_SetRxAddress1
 845:.\Generated_Source\PSoC5/UART_OSDP_READER.c ****     ********************************************************************************
ARM GAS  C:\Users\Yiquing\AppData\Local\Temp\ccF0cyIx.s 			page 33


 846:.\Generated_Source\PSoC5/UART_OSDP_READER.c ****     *
 847:.\Generated_Source\PSoC5/UART_OSDP_READER.c ****     * Summary:
 848:.\Generated_Source\PSoC5/UART_OSDP_READER.c ****     *  Sets the first of two hardware-detectable receiver addresses.
 849:.\Generated_Source\PSoC5/UART_OSDP_READER.c ****     *
 850:.\Generated_Source\PSoC5/UART_OSDP_READER.c ****     * Parameters:
 851:.\Generated_Source\PSoC5/UART_OSDP_READER.c ****     *  address: Address #1 for hardware address detection.
 852:.\Generated_Source\PSoC5/UART_OSDP_READER.c ****     *
 853:.\Generated_Source\PSoC5/UART_OSDP_READER.c ****     * Return:
 854:.\Generated_Source\PSoC5/UART_OSDP_READER.c ****     *  None.
 855:.\Generated_Source\PSoC5/UART_OSDP_READER.c ****     *
 856:.\Generated_Source\PSoC5/UART_OSDP_READER.c ****     *******************************************************************************/
 857:.\Generated_Source\PSoC5/UART_OSDP_READER.c ****     void UART_OSDP_READER_SetRxAddress1(uint8 address) 
 858:.\Generated_Source\PSoC5/UART_OSDP_READER.c ****     {
 975              		.loc 1 858 0
 976              		.cfi_startproc
 977              		@ args = 0, pretend = 0, frame = 8
 978              		@ frame_needed = 1, uses_anonymous_args = 0
 979              		@ link register save eliminated.
 980 0000 80B4     		push	{r7}
 981              		.cfi_def_cfa_offset 4
 982              		.cfi_offset 7, -4
 983 0002 83B0     		sub	sp, sp, #12
 984              		.cfi_def_cfa_offset 16
 985 0004 00AF     		add	r7, sp, #0
 986              		.cfi_def_cfa_register 7
 987 0006 0346     		mov	r3, r0
 988 0008 FB71     		strb	r3, [r7, #7]
 859:.\Generated_Source\PSoC5/UART_OSDP_READER.c ****         UART_OSDP_READER_RXADDRESS1_REG = address;
 989              		.loc 1 859 0
 990 000a 044B     		ldr	r3, .L65
 991 000c FA79     		ldrb	r2, [r7, #7]
 992 000e 1A70     		strb	r2, [r3]
 860:.\Generated_Source\PSoC5/UART_OSDP_READER.c ****     }
 993              		.loc 1 860 0
 994 0010 0C37     		adds	r7, r7, #12
 995 0012 BD46     		mov	sp, r7
 996              		@ sp needed
 997 0014 5DF8047B 		ldr	r7, [sp], #4
 998 0018 7047     		bx	lr
 999              	.L66:
 1000 001a 00BF     		.align	2
 1001              	.L65:
 1002 001c 27640040 		.word	1073767463
 1003              		.cfi_endproc
 1004              	.LFE14:
 1005              		.size	UART_OSDP_READER_SetRxAddress1, .-UART_OSDP_READER_SetRxAddress1
 1006              		.section	.text.UART_OSDP_READER_SetRxAddress2,"ax",%progbits
 1007              		.align	2
 1008              		.global	UART_OSDP_READER_SetRxAddress2
 1009              		.thumb
 1010              		.thumb_func
 1011              		.type	UART_OSDP_READER_SetRxAddress2, %function
 1012              	UART_OSDP_READER_SetRxAddress2:
 1013              	.LFB15:
 861:.\Generated_Source\PSoC5/UART_OSDP_READER.c **** 
 862:.\Generated_Source\PSoC5/UART_OSDP_READER.c **** 
 863:.\Generated_Source\PSoC5/UART_OSDP_READER.c ****     /*******************************************************************************
ARM GAS  C:\Users\Yiquing\AppData\Local\Temp\ccF0cyIx.s 			page 34


 864:.\Generated_Source\PSoC5/UART_OSDP_READER.c ****     * Function Name: UART_OSDP_READER_SetRxAddress2
 865:.\Generated_Source\PSoC5/UART_OSDP_READER.c ****     ********************************************************************************
 866:.\Generated_Source\PSoC5/UART_OSDP_READER.c ****     *
 867:.\Generated_Source\PSoC5/UART_OSDP_READER.c ****     * Summary:
 868:.\Generated_Source\PSoC5/UART_OSDP_READER.c ****     *  Sets the second of two hardware-detectable receiver addresses.
 869:.\Generated_Source\PSoC5/UART_OSDP_READER.c ****     *
 870:.\Generated_Source\PSoC5/UART_OSDP_READER.c ****     * Parameters:
 871:.\Generated_Source\PSoC5/UART_OSDP_READER.c ****     *  address: Address #2 for hardware address detection.
 872:.\Generated_Source\PSoC5/UART_OSDP_READER.c ****     *
 873:.\Generated_Source\PSoC5/UART_OSDP_READER.c ****     * Return:
 874:.\Generated_Source\PSoC5/UART_OSDP_READER.c ****     *  None.
 875:.\Generated_Source\PSoC5/UART_OSDP_READER.c ****     *
 876:.\Generated_Source\PSoC5/UART_OSDP_READER.c ****     *******************************************************************************/
 877:.\Generated_Source\PSoC5/UART_OSDP_READER.c ****     void UART_OSDP_READER_SetRxAddress2(uint8 address) 
 878:.\Generated_Source\PSoC5/UART_OSDP_READER.c ****     {
 1014              		.loc 1 878 0
 1015              		.cfi_startproc
 1016              		@ args = 0, pretend = 0, frame = 8
 1017              		@ frame_needed = 1, uses_anonymous_args = 0
 1018              		@ link register save eliminated.
 1019 0000 80B4     		push	{r7}
 1020              		.cfi_def_cfa_offset 4
 1021              		.cfi_offset 7, -4
 1022 0002 83B0     		sub	sp, sp, #12
 1023              		.cfi_def_cfa_offset 16
 1024 0004 00AF     		add	r7, sp, #0
 1025              		.cfi_def_cfa_register 7
 1026 0006 0346     		mov	r3, r0
 1027 0008 FB71     		strb	r3, [r7, #7]
 879:.\Generated_Source\PSoC5/UART_OSDP_READER.c ****         UART_OSDP_READER_RXADDRESS2_REG = address;
 1028              		.loc 1 879 0
 1029 000a 044B     		ldr	r3, .L68
 1030 000c FA79     		ldrb	r2, [r7, #7]
 1031 000e 1A70     		strb	r2, [r3]
 880:.\Generated_Source\PSoC5/UART_OSDP_READER.c ****     }
 1032              		.loc 1 880 0
 1033 0010 0C37     		adds	r7, r7, #12
 1034 0012 BD46     		mov	sp, r7
 1035              		@ sp needed
 1036 0014 5DF8047B 		ldr	r7, [sp], #4
 1037 0018 7047     		bx	lr
 1038              	.L69:
 1039 001a 00BF     		.align	2
 1040              	.L68:
 1041 001c 37640040 		.word	1073767479
 1042              		.cfi_endproc
 1043              	.LFE15:
 1044              		.size	UART_OSDP_READER_SetRxAddress2, .-UART_OSDP_READER_SetRxAddress2
 1045              		.section	.text.UART_OSDP_READER_SetTxInterruptMode,"ax",%progbits
 1046              		.align	2
 1047              		.global	UART_OSDP_READER_SetTxInterruptMode
 1048              		.thumb
 1049              		.thumb_func
 1050              		.type	UART_OSDP_READER_SetTxInterruptMode, %function
 1051              	UART_OSDP_READER_SetTxInterruptMode:
 1052              	.LFB16:
 881:.\Generated_Source\PSoC5/UART_OSDP_READER.c **** 
ARM GAS  C:\Users\Yiquing\AppData\Local\Temp\ccF0cyIx.s 			page 35


 882:.\Generated_Source\PSoC5/UART_OSDP_READER.c **** #endif  /* UART_OSDP_READER_RX_ENABLED || UART_OSDP_READER_HD_ENABLED*/
 883:.\Generated_Source\PSoC5/UART_OSDP_READER.c **** 
 884:.\Generated_Source\PSoC5/UART_OSDP_READER.c **** 
 885:.\Generated_Source\PSoC5/UART_OSDP_READER.c **** #if( (UART_OSDP_READER_TX_ENABLED) || (UART_OSDP_READER_HD_ENABLED) )
 886:.\Generated_Source\PSoC5/UART_OSDP_READER.c ****     /*******************************************************************************
 887:.\Generated_Source\PSoC5/UART_OSDP_READER.c ****     * Function Name: UART_OSDP_READER_SetTxInterruptMode
 888:.\Generated_Source\PSoC5/UART_OSDP_READER.c ****     ********************************************************************************
 889:.\Generated_Source\PSoC5/UART_OSDP_READER.c ****     *
 890:.\Generated_Source\PSoC5/UART_OSDP_READER.c ****     * Summary:
 891:.\Generated_Source\PSoC5/UART_OSDP_READER.c ****     *  Configures the TX interrupt sources to be enabled, but does not enable the
 892:.\Generated_Source\PSoC5/UART_OSDP_READER.c ****     *  interrupt.
 893:.\Generated_Source\PSoC5/UART_OSDP_READER.c ****     *
 894:.\Generated_Source\PSoC5/UART_OSDP_READER.c ****     * Parameters:
 895:.\Generated_Source\PSoC5/UART_OSDP_READER.c ****     *  intSrc: Bit field containing the TX interrupt sources to enable
 896:.\Generated_Source\PSoC5/UART_OSDP_READER.c ****     *   UART_OSDP_READER_TX_STS_COMPLETE        Interrupt on TX byte complete
 897:.\Generated_Source\PSoC5/UART_OSDP_READER.c ****     *   UART_OSDP_READER_TX_STS_FIFO_EMPTY      Interrupt when TX FIFO is empty
 898:.\Generated_Source\PSoC5/UART_OSDP_READER.c ****     *   UART_OSDP_READER_TX_STS_FIFO_FULL       Interrupt when TX FIFO is full
 899:.\Generated_Source\PSoC5/UART_OSDP_READER.c ****     *   UART_OSDP_READER_TX_STS_FIFO_NOT_FULL   Interrupt when TX FIFO is not full
 900:.\Generated_Source\PSoC5/UART_OSDP_READER.c ****     *
 901:.\Generated_Source\PSoC5/UART_OSDP_READER.c ****     * Return:
 902:.\Generated_Source\PSoC5/UART_OSDP_READER.c ****     *  None.
 903:.\Generated_Source\PSoC5/UART_OSDP_READER.c ****     *
 904:.\Generated_Source\PSoC5/UART_OSDP_READER.c ****     * Theory:
 905:.\Generated_Source\PSoC5/UART_OSDP_READER.c ****     *  Enables the output of specific status bits to the interrupt controller
 906:.\Generated_Source\PSoC5/UART_OSDP_READER.c ****     *
 907:.\Generated_Source\PSoC5/UART_OSDP_READER.c ****     *******************************************************************************/
 908:.\Generated_Source\PSoC5/UART_OSDP_READER.c ****     void UART_OSDP_READER_SetTxInterruptMode(uint8 intSrc) 
 909:.\Generated_Source\PSoC5/UART_OSDP_READER.c ****     {
 1053              		.loc 1 909 0
 1054              		.cfi_startproc
 1055              		@ args = 0, pretend = 0, frame = 8
 1056              		@ frame_needed = 1, uses_anonymous_args = 0
 1057              		@ link register save eliminated.
 1058 0000 80B4     		push	{r7}
 1059              		.cfi_def_cfa_offset 4
 1060              		.cfi_offset 7, -4
 1061 0002 83B0     		sub	sp, sp, #12
 1062              		.cfi_def_cfa_offset 16
 1063 0004 00AF     		add	r7, sp, #0
 1064              		.cfi_def_cfa_register 7
 1065 0006 0346     		mov	r3, r0
 1066 0008 FB71     		strb	r3, [r7, #7]
 910:.\Generated_Source\PSoC5/UART_OSDP_READER.c ****         UART_OSDP_READER_TXSTATUS_MASK_REG = intSrc;
 1067              		.loc 1 910 0
 1068 000a 044B     		ldr	r3, .L71
 1069 000c FA79     		ldrb	r2, [r7, #7]
 1070 000e 1A70     		strb	r2, [r3]
 911:.\Generated_Source\PSoC5/UART_OSDP_READER.c ****     }
 1071              		.loc 1 911 0
 1072 0010 0C37     		adds	r7, r7, #12
 1073 0012 BD46     		mov	sp, r7
 1074              		@ sp needed
 1075 0014 5DF8047B 		ldr	r7, [sp], #4
 1076 0018 7047     		bx	lr
 1077              	.L72:
 1078 001a 00BF     		.align	2
 1079              	.L71:
ARM GAS  C:\Users\Yiquing\AppData\Local\Temp\ccF0cyIx.s 			page 36


 1080 001c 87640040 		.word	1073767559
 1081              		.cfi_endproc
 1082              	.LFE16:
 1083              		.size	UART_OSDP_READER_SetTxInterruptMode, .-UART_OSDP_READER_SetTxInterruptMode
 1084              		.section	.text.UART_OSDP_READER_WriteTxData,"ax",%progbits
 1085              		.align	2
 1086              		.global	UART_OSDP_READER_WriteTxData
 1087              		.thumb
 1088              		.thumb_func
 1089              		.type	UART_OSDP_READER_WriteTxData, %function
 1090              	UART_OSDP_READER_WriteTxData:
 1091              	.LFB17:
 912:.\Generated_Source\PSoC5/UART_OSDP_READER.c **** 
 913:.\Generated_Source\PSoC5/UART_OSDP_READER.c **** 
 914:.\Generated_Source\PSoC5/UART_OSDP_READER.c ****     /*******************************************************************************
 915:.\Generated_Source\PSoC5/UART_OSDP_READER.c ****     * Function Name: UART_OSDP_READER_WriteTxData
 916:.\Generated_Source\PSoC5/UART_OSDP_READER.c ****     ********************************************************************************
 917:.\Generated_Source\PSoC5/UART_OSDP_READER.c ****     *
 918:.\Generated_Source\PSoC5/UART_OSDP_READER.c ****     * Summary:
 919:.\Generated_Source\PSoC5/UART_OSDP_READER.c ****     *  Places a byte of data into the transmit buffer to be sent when the bus is
 920:.\Generated_Source\PSoC5/UART_OSDP_READER.c ****     *  available without checking the TX status register. You must check status
 921:.\Generated_Source\PSoC5/UART_OSDP_READER.c ****     *  separately.
 922:.\Generated_Source\PSoC5/UART_OSDP_READER.c ****     *
 923:.\Generated_Source\PSoC5/UART_OSDP_READER.c ****     * Parameters:
 924:.\Generated_Source\PSoC5/UART_OSDP_READER.c ****     *  txDataByte: data byte
 925:.\Generated_Source\PSoC5/UART_OSDP_READER.c ****     *
 926:.\Generated_Source\PSoC5/UART_OSDP_READER.c ****     * Return:
 927:.\Generated_Source\PSoC5/UART_OSDP_READER.c ****     * None.
 928:.\Generated_Source\PSoC5/UART_OSDP_READER.c ****     *
 929:.\Generated_Source\PSoC5/UART_OSDP_READER.c ****     * Global Variables:
 930:.\Generated_Source\PSoC5/UART_OSDP_READER.c ****     *  UART_OSDP_READER_txBuffer - RAM buffer pointer for save data for transmission
 931:.\Generated_Source\PSoC5/UART_OSDP_READER.c ****     *  UART_OSDP_READER_txBufferWrite - cyclic index for write to txBuffer,
 932:.\Generated_Source\PSoC5/UART_OSDP_READER.c ****     *    incremented after each byte saved to buffer.
 933:.\Generated_Source\PSoC5/UART_OSDP_READER.c ****     *  UART_OSDP_READER_txBufferRead - cyclic index for read from txBuffer,
 934:.\Generated_Source\PSoC5/UART_OSDP_READER.c ****     *    checked to identify the condition to write to FIFO directly or to TX buffer
 935:.\Generated_Source\PSoC5/UART_OSDP_READER.c ****     *  UART_OSDP_READER_initVar - checked to identify that the component has been
 936:.\Generated_Source\PSoC5/UART_OSDP_READER.c ****     *    initialized.
 937:.\Generated_Source\PSoC5/UART_OSDP_READER.c ****     *
 938:.\Generated_Source\PSoC5/UART_OSDP_READER.c ****     * Reentrant:
 939:.\Generated_Source\PSoC5/UART_OSDP_READER.c ****     *  No.
 940:.\Generated_Source\PSoC5/UART_OSDP_READER.c ****     *
 941:.\Generated_Source\PSoC5/UART_OSDP_READER.c ****     *******************************************************************************/
 942:.\Generated_Source\PSoC5/UART_OSDP_READER.c ****     void UART_OSDP_READER_WriteTxData(uint8 txDataByte) 
 943:.\Generated_Source\PSoC5/UART_OSDP_READER.c ****     {
 1092              		.loc 1 943 0
 1093              		.cfi_startproc
 1094              		@ args = 0, pretend = 0, frame = 8
 1095              		@ frame_needed = 1, uses_anonymous_args = 0
 1096              		@ link register save eliminated.
 1097 0000 80B4     		push	{r7}
 1098              		.cfi_def_cfa_offset 4
 1099              		.cfi_offset 7, -4
 1100 0002 83B0     		sub	sp, sp, #12
 1101              		.cfi_def_cfa_offset 16
 1102 0004 00AF     		add	r7, sp, #0
 1103              		.cfi_def_cfa_register 7
 1104 0006 0346     		mov	r3, r0
ARM GAS  C:\Users\Yiquing\AppData\Local\Temp\ccF0cyIx.s 			page 37


 1105 0008 FB71     		strb	r3, [r7, #7]
 944:.\Generated_Source\PSoC5/UART_OSDP_READER.c ****         /* If not Initialized then skip this function*/
 945:.\Generated_Source\PSoC5/UART_OSDP_READER.c ****         if(UART_OSDP_READER_initVar != 0u)
 1106              		.loc 1 945 0
 1107 000a 064B     		ldr	r3, .L75
 1108 000c 1B78     		ldrb	r3, [r3]	@ zero_extendqisi2
 1109 000e 002B     		cmp	r3, #0
 1110 0010 02D0     		beq	.L73
 946:.\Generated_Source\PSoC5/UART_OSDP_READER.c ****         {
 947:.\Generated_Source\PSoC5/UART_OSDP_READER.c ****         #if (UART_OSDP_READER_TX_INTERRUPT_ENABLED)
 948:.\Generated_Source\PSoC5/UART_OSDP_READER.c **** 
 949:.\Generated_Source\PSoC5/UART_OSDP_READER.c ****             /* Protect variables that could change on interrupt. */
 950:.\Generated_Source\PSoC5/UART_OSDP_READER.c ****             UART_OSDP_READER_DisableTxInt();
 951:.\Generated_Source\PSoC5/UART_OSDP_READER.c **** 
 952:.\Generated_Source\PSoC5/UART_OSDP_READER.c ****             if( (UART_OSDP_READER_txBufferRead == UART_OSDP_READER_txBufferWrite) &&
 953:.\Generated_Source\PSoC5/UART_OSDP_READER.c ****                 ((UART_OSDP_READER_TXSTATUS_REG & UART_OSDP_READER_TX_STS_FIFO_FULL) == 0u) )
 954:.\Generated_Source\PSoC5/UART_OSDP_READER.c ****             {
 955:.\Generated_Source\PSoC5/UART_OSDP_READER.c ****                 /* Add directly to the FIFO. */
 956:.\Generated_Source\PSoC5/UART_OSDP_READER.c ****                 UART_OSDP_READER_TXDATA_REG = txDataByte;
 957:.\Generated_Source\PSoC5/UART_OSDP_READER.c ****             }
 958:.\Generated_Source\PSoC5/UART_OSDP_READER.c ****             else
 959:.\Generated_Source\PSoC5/UART_OSDP_READER.c ****             {
 960:.\Generated_Source\PSoC5/UART_OSDP_READER.c ****                 if(UART_OSDP_READER_txBufferWrite >= UART_OSDP_READER_TX_BUFFER_SIZE)
 961:.\Generated_Source\PSoC5/UART_OSDP_READER.c ****                 {
 962:.\Generated_Source\PSoC5/UART_OSDP_READER.c ****                     UART_OSDP_READER_txBufferWrite = 0u;
 963:.\Generated_Source\PSoC5/UART_OSDP_READER.c ****                 }
 964:.\Generated_Source\PSoC5/UART_OSDP_READER.c **** 
 965:.\Generated_Source\PSoC5/UART_OSDP_READER.c ****                 UART_OSDP_READER_txBuffer[UART_OSDP_READER_txBufferWrite] = txDataByte;
 966:.\Generated_Source\PSoC5/UART_OSDP_READER.c **** 
 967:.\Generated_Source\PSoC5/UART_OSDP_READER.c ****                 /* Add to the software buffer. */
 968:.\Generated_Source\PSoC5/UART_OSDP_READER.c ****                 UART_OSDP_READER_txBufferWrite++;
 969:.\Generated_Source\PSoC5/UART_OSDP_READER.c ****             }
 970:.\Generated_Source\PSoC5/UART_OSDP_READER.c **** 
 971:.\Generated_Source\PSoC5/UART_OSDP_READER.c ****             UART_OSDP_READER_EnableTxInt();
 972:.\Generated_Source\PSoC5/UART_OSDP_READER.c **** 
 973:.\Generated_Source\PSoC5/UART_OSDP_READER.c ****         #else
 974:.\Generated_Source\PSoC5/UART_OSDP_READER.c **** 
 975:.\Generated_Source\PSoC5/UART_OSDP_READER.c ****             /* Add directly to the FIFO. */
 976:.\Generated_Source\PSoC5/UART_OSDP_READER.c ****             UART_OSDP_READER_TXDATA_REG = txDataByte;
 1111              		.loc 1 976 0
 1112 0012 054B     		ldr	r3, .L75+4
 1113 0014 FA79     		ldrb	r2, [r7, #7]
 1114 0016 1A70     		strb	r2, [r3]
 1115              	.L73:
 977:.\Generated_Source\PSoC5/UART_OSDP_READER.c **** 
 978:.\Generated_Source\PSoC5/UART_OSDP_READER.c ****         #endif /*(UART_OSDP_READER_TX_INTERRUPT_ENABLED) */
 979:.\Generated_Source\PSoC5/UART_OSDP_READER.c ****         }
 980:.\Generated_Source\PSoC5/UART_OSDP_READER.c ****     }
 1116              		.loc 1 980 0
 1117 0018 0C37     		adds	r7, r7, #12
 1118 001a BD46     		mov	sp, r7
 1119              		@ sp needed
 1120 001c 5DF8047B 		ldr	r7, [sp], #4
 1121 0020 7047     		bx	lr
 1122              	.L76:
 1123 0022 00BF     		.align	2
 1124              	.L75:
ARM GAS  C:\Users\Yiquing\AppData\Local\Temp\ccF0cyIx.s 			page 38


 1125 0024 00000000 		.word	UART_OSDP_READER_initVar
 1126 0028 57640040 		.word	1073767511
 1127              		.cfi_endproc
 1128              	.LFE17:
 1129              		.size	UART_OSDP_READER_WriteTxData, .-UART_OSDP_READER_WriteTxData
 1130              		.section	.text.UART_OSDP_READER_ReadTxStatus,"ax",%progbits
 1131              		.align	2
 1132              		.global	UART_OSDP_READER_ReadTxStatus
 1133              		.thumb
 1134              		.thumb_func
 1135              		.type	UART_OSDP_READER_ReadTxStatus, %function
 1136              	UART_OSDP_READER_ReadTxStatus:
 1137              	.LFB18:
 981:.\Generated_Source\PSoC5/UART_OSDP_READER.c **** 
 982:.\Generated_Source\PSoC5/UART_OSDP_READER.c **** 
 983:.\Generated_Source\PSoC5/UART_OSDP_READER.c ****     /*******************************************************************************
 984:.\Generated_Source\PSoC5/UART_OSDP_READER.c ****     * Function Name: UART_OSDP_READER_ReadTxStatus
 985:.\Generated_Source\PSoC5/UART_OSDP_READER.c ****     ********************************************************************************
 986:.\Generated_Source\PSoC5/UART_OSDP_READER.c ****     *
 987:.\Generated_Source\PSoC5/UART_OSDP_READER.c ****     * Summary:
 988:.\Generated_Source\PSoC5/UART_OSDP_READER.c ****     *  Reads the status register for the TX portion of the UART.
 989:.\Generated_Source\PSoC5/UART_OSDP_READER.c ****     *
 990:.\Generated_Source\PSoC5/UART_OSDP_READER.c ****     * Parameters:
 991:.\Generated_Source\PSoC5/UART_OSDP_READER.c ****     *  None.
 992:.\Generated_Source\PSoC5/UART_OSDP_READER.c ****     *
 993:.\Generated_Source\PSoC5/UART_OSDP_READER.c ****     * Return:
 994:.\Generated_Source\PSoC5/UART_OSDP_READER.c ****     *  Contents of the status register
 995:.\Generated_Source\PSoC5/UART_OSDP_READER.c ****     *
 996:.\Generated_Source\PSoC5/UART_OSDP_READER.c ****     * Theory:
 997:.\Generated_Source\PSoC5/UART_OSDP_READER.c ****     *  This function reads the TX status register, which is cleared on read.
 998:.\Generated_Source\PSoC5/UART_OSDP_READER.c ****     *  It is up to the user to handle all bits in this return value accordingly,
 999:.\Generated_Source\PSoC5/UART_OSDP_READER.c ****     *  even if the bit was not enabled as an interrupt source the event happened
1000:.\Generated_Source\PSoC5/UART_OSDP_READER.c ****     *  and must be handled accordingly.
1001:.\Generated_Source\PSoC5/UART_OSDP_READER.c ****     *
1002:.\Generated_Source\PSoC5/UART_OSDP_READER.c ****     *******************************************************************************/
1003:.\Generated_Source\PSoC5/UART_OSDP_READER.c ****     uint8 UART_OSDP_READER_ReadTxStatus(void) 
1004:.\Generated_Source\PSoC5/UART_OSDP_READER.c ****     {
 1138              		.loc 1 1004 0
 1139              		.cfi_startproc
 1140              		@ args = 0, pretend = 0, frame = 0
 1141              		@ frame_needed = 1, uses_anonymous_args = 0
 1142              		@ link register save eliminated.
 1143 0000 80B4     		push	{r7}
 1144              		.cfi_def_cfa_offset 4
 1145              		.cfi_offset 7, -4
 1146 0002 00AF     		add	r7, sp, #0
 1147              		.cfi_def_cfa_register 7
1005:.\Generated_Source\PSoC5/UART_OSDP_READER.c ****         return(UART_OSDP_READER_TXSTATUS_REG);
 1148              		.loc 1 1005 0
 1149 0004 034B     		ldr	r3, .L79
 1150 0006 1B78     		ldrb	r3, [r3]
 1151 0008 DBB2     		uxtb	r3, r3
1006:.\Generated_Source\PSoC5/UART_OSDP_READER.c ****     }
 1152              		.loc 1 1006 0
 1153 000a 1846     		mov	r0, r3
 1154 000c BD46     		mov	sp, r7
 1155              		@ sp needed
ARM GAS  C:\Users\Yiquing\AppData\Local\Temp\ccF0cyIx.s 			page 39


 1156 000e 5DF8047B 		ldr	r7, [sp], #4
 1157 0012 7047     		bx	lr
 1158              	.L80:
 1159              		.align	2
 1160              	.L79:
 1161 0014 67640040 		.word	1073767527
 1162              		.cfi_endproc
 1163              	.LFE18:
 1164              		.size	UART_OSDP_READER_ReadTxStatus, .-UART_OSDP_READER_ReadTxStatus
 1165              		.section	.text.UART_OSDP_READER_PutChar,"ax",%progbits
 1166              		.align	2
 1167              		.global	UART_OSDP_READER_PutChar
 1168              		.thumb
 1169              		.thumb_func
 1170              		.type	UART_OSDP_READER_PutChar, %function
 1171              	UART_OSDP_READER_PutChar:
 1172              	.LFB19:
1007:.\Generated_Source\PSoC5/UART_OSDP_READER.c **** 
1008:.\Generated_Source\PSoC5/UART_OSDP_READER.c **** 
1009:.\Generated_Source\PSoC5/UART_OSDP_READER.c ****     /*******************************************************************************
1010:.\Generated_Source\PSoC5/UART_OSDP_READER.c ****     * Function Name: UART_OSDP_READER_PutChar
1011:.\Generated_Source\PSoC5/UART_OSDP_READER.c ****     ********************************************************************************
1012:.\Generated_Source\PSoC5/UART_OSDP_READER.c ****     *
1013:.\Generated_Source\PSoC5/UART_OSDP_READER.c ****     * Summary:
1014:.\Generated_Source\PSoC5/UART_OSDP_READER.c ****     *  Puts a byte of data into the transmit buffer to be sent when the bus is
1015:.\Generated_Source\PSoC5/UART_OSDP_READER.c ****     *  available. This is a blocking API that waits until the TX buffer has room to
1016:.\Generated_Source\PSoC5/UART_OSDP_READER.c ****     *  hold the data.
1017:.\Generated_Source\PSoC5/UART_OSDP_READER.c ****     *
1018:.\Generated_Source\PSoC5/UART_OSDP_READER.c ****     * Parameters:
1019:.\Generated_Source\PSoC5/UART_OSDP_READER.c ****     *  txDataByte: Byte containing the data to transmit
1020:.\Generated_Source\PSoC5/UART_OSDP_READER.c ****     *
1021:.\Generated_Source\PSoC5/UART_OSDP_READER.c ****     * Return:
1022:.\Generated_Source\PSoC5/UART_OSDP_READER.c ****     *  None.
1023:.\Generated_Source\PSoC5/UART_OSDP_READER.c ****     *
1024:.\Generated_Source\PSoC5/UART_OSDP_READER.c ****     * Global Variables:
1025:.\Generated_Source\PSoC5/UART_OSDP_READER.c ****     *  UART_OSDP_READER_txBuffer - RAM buffer pointer for save data for transmission
1026:.\Generated_Source\PSoC5/UART_OSDP_READER.c ****     *  UART_OSDP_READER_txBufferWrite - cyclic index for write to txBuffer,
1027:.\Generated_Source\PSoC5/UART_OSDP_READER.c ****     *     checked to identify free space in txBuffer and incremented after each byte
1028:.\Generated_Source\PSoC5/UART_OSDP_READER.c ****     *     saved to buffer.
1029:.\Generated_Source\PSoC5/UART_OSDP_READER.c ****     *  UART_OSDP_READER_txBufferRead - cyclic index for read from txBuffer,
1030:.\Generated_Source\PSoC5/UART_OSDP_READER.c ****     *     checked to identify free space in txBuffer.
1031:.\Generated_Source\PSoC5/UART_OSDP_READER.c ****     *  UART_OSDP_READER_initVar - checked to identify that the component has been
1032:.\Generated_Source\PSoC5/UART_OSDP_READER.c ****     *     initialized.
1033:.\Generated_Source\PSoC5/UART_OSDP_READER.c ****     *
1034:.\Generated_Source\PSoC5/UART_OSDP_READER.c ****     * Reentrant:
1035:.\Generated_Source\PSoC5/UART_OSDP_READER.c ****     *  No.
1036:.\Generated_Source\PSoC5/UART_OSDP_READER.c ****     *
1037:.\Generated_Source\PSoC5/UART_OSDP_READER.c ****     * Theory:
1038:.\Generated_Source\PSoC5/UART_OSDP_READER.c ****     *  Allows the user to transmit any byte of data in a single transfer
1039:.\Generated_Source\PSoC5/UART_OSDP_READER.c ****     *
1040:.\Generated_Source\PSoC5/UART_OSDP_READER.c ****     *******************************************************************************/
1041:.\Generated_Source\PSoC5/UART_OSDP_READER.c ****     void UART_OSDP_READER_PutChar(uint8 txDataByte) 
1042:.\Generated_Source\PSoC5/UART_OSDP_READER.c ****     {
 1173              		.loc 1 1042 0
 1174              		.cfi_startproc
 1175              		@ args = 0, pretend = 0, frame = 8
 1176              		@ frame_needed = 1, uses_anonymous_args = 0
ARM GAS  C:\Users\Yiquing\AppData\Local\Temp\ccF0cyIx.s 			page 40


 1177              		@ link register save eliminated.
 1178 0000 80B4     		push	{r7}
 1179              		.cfi_def_cfa_offset 4
 1180              		.cfi_offset 7, -4
 1181 0002 83B0     		sub	sp, sp, #12
 1182              		.cfi_def_cfa_offset 16
 1183 0004 00AF     		add	r7, sp, #0
 1184              		.cfi_def_cfa_register 7
 1185 0006 0346     		mov	r3, r0
 1186 0008 FB71     		strb	r3, [r7, #7]
1043:.\Generated_Source\PSoC5/UART_OSDP_READER.c ****     #if (UART_OSDP_READER_TX_INTERRUPT_ENABLED)
1044:.\Generated_Source\PSoC5/UART_OSDP_READER.c ****         /* The temporary output pointer is used since it takes two instructions
1045:.\Generated_Source\PSoC5/UART_OSDP_READER.c ****         *  to increment with a wrap, and we can't risk doing that with the real
1046:.\Generated_Source\PSoC5/UART_OSDP_READER.c ****         *  pointer and getting an interrupt in between instructions.
1047:.\Generated_Source\PSoC5/UART_OSDP_READER.c ****         */
1048:.\Generated_Source\PSoC5/UART_OSDP_READER.c ****         uint8 locTxBufferWrite;
1049:.\Generated_Source\PSoC5/UART_OSDP_READER.c ****         uint8 locTxBufferRead;
1050:.\Generated_Source\PSoC5/UART_OSDP_READER.c **** 
1051:.\Generated_Source\PSoC5/UART_OSDP_READER.c ****         do
1052:.\Generated_Source\PSoC5/UART_OSDP_READER.c ****         { /* Block if software buffer is full, so we don't overwrite. */
1053:.\Generated_Source\PSoC5/UART_OSDP_READER.c **** 
1054:.\Generated_Source\PSoC5/UART_OSDP_READER.c ****         #if ((UART_OSDP_READER_TX_BUFFER_SIZE > UART_OSDP_READER_MAX_BYTE_VALUE) && (CY_PSOC3))
1055:.\Generated_Source\PSoC5/UART_OSDP_READER.c ****             /* Disable TX interrupt to protect variables from modification */
1056:.\Generated_Source\PSoC5/UART_OSDP_READER.c ****             UART_OSDP_READER_DisableTxInt();
1057:.\Generated_Source\PSoC5/UART_OSDP_READER.c ****         #endif /* (UART_OSDP_READER_TX_BUFFER_SIZE > UART_OSDP_READER_MAX_BYTE_VALUE) && (CY_PSOC3)
1058:.\Generated_Source\PSoC5/UART_OSDP_READER.c **** 
1059:.\Generated_Source\PSoC5/UART_OSDP_READER.c ****             locTxBufferWrite = UART_OSDP_READER_txBufferWrite;
1060:.\Generated_Source\PSoC5/UART_OSDP_READER.c ****             locTxBufferRead  = UART_OSDP_READER_txBufferRead;
1061:.\Generated_Source\PSoC5/UART_OSDP_READER.c **** 
1062:.\Generated_Source\PSoC5/UART_OSDP_READER.c ****         #if ((UART_OSDP_READER_TX_BUFFER_SIZE > UART_OSDP_READER_MAX_BYTE_VALUE) && (CY_PSOC3))
1063:.\Generated_Source\PSoC5/UART_OSDP_READER.c ****             /* Enable interrupt to continue transmission */
1064:.\Generated_Source\PSoC5/UART_OSDP_READER.c ****             UART_OSDP_READER_EnableTxInt();
1065:.\Generated_Source\PSoC5/UART_OSDP_READER.c ****         #endif /* (UART_OSDP_READER_TX_BUFFER_SIZE > UART_OSDP_READER_MAX_BYTE_VALUE) && (CY_PSOC3)
1066:.\Generated_Source\PSoC5/UART_OSDP_READER.c ****         }
1067:.\Generated_Source\PSoC5/UART_OSDP_READER.c ****         while( (locTxBufferWrite < locTxBufferRead) ? (locTxBufferWrite == (locTxBufferRead - 1u)) 
1068:.\Generated_Source\PSoC5/UART_OSDP_READER.c ****                                 ((locTxBufferWrite - locTxBufferRead) ==
1069:.\Generated_Source\PSoC5/UART_OSDP_READER.c ****                                 (uint8)(UART_OSDP_READER_TX_BUFFER_SIZE - 1u)) );
1070:.\Generated_Source\PSoC5/UART_OSDP_READER.c **** 
1071:.\Generated_Source\PSoC5/UART_OSDP_READER.c ****         if( (locTxBufferRead == locTxBufferWrite) &&
1072:.\Generated_Source\PSoC5/UART_OSDP_READER.c ****             ((UART_OSDP_READER_TXSTATUS_REG & UART_OSDP_READER_TX_STS_FIFO_FULL) == 0u) )
1073:.\Generated_Source\PSoC5/UART_OSDP_READER.c ****         {
1074:.\Generated_Source\PSoC5/UART_OSDP_READER.c ****             /* Add directly to the FIFO */
1075:.\Generated_Source\PSoC5/UART_OSDP_READER.c ****             UART_OSDP_READER_TXDATA_REG = txDataByte;
1076:.\Generated_Source\PSoC5/UART_OSDP_READER.c ****         }
1077:.\Generated_Source\PSoC5/UART_OSDP_READER.c ****         else
1078:.\Generated_Source\PSoC5/UART_OSDP_READER.c ****         {
1079:.\Generated_Source\PSoC5/UART_OSDP_READER.c ****             if(locTxBufferWrite >= UART_OSDP_READER_TX_BUFFER_SIZE)
1080:.\Generated_Source\PSoC5/UART_OSDP_READER.c ****             {
1081:.\Generated_Source\PSoC5/UART_OSDP_READER.c ****                 locTxBufferWrite = 0u;
1082:.\Generated_Source\PSoC5/UART_OSDP_READER.c ****             }
1083:.\Generated_Source\PSoC5/UART_OSDP_READER.c ****             /* Add to the software buffer. */
1084:.\Generated_Source\PSoC5/UART_OSDP_READER.c ****             UART_OSDP_READER_txBuffer[locTxBufferWrite] = txDataByte;
1085:.\Generated_Source\PSoC5/UART_OSDP_READER.c ****             locTxBufferWrite++;
1086:.\Generated_Source\PSoC5/UART_OSDP_READER.c **** 
1087:.\Generated_Source\PSoC5/UART_OSDP_READER.c ****             /* Finally, update the real output pointer */
1088:.\Generated_Source\PSoC5/UART_OSDP_READER.c ****         #if ((UART_OSDP_READER_TX_BUFFER_SIZE > UART_OSDP_READER_MAX_BYTE_VALUE) && (CY_PSOC3))
1089:.\Generated_Source\PSoC5/UART_OSDP_READER.c ****             UART_OSDP_READER_DisableTxInt();
ARM GAS  C:\Users\Yiquing\AppData\Local\Temp\ccF0cyIx.s 			page 41


1090:.\Generated_Source\PSoC5/UART_OSDP_READER.c ****         #endif /* (UART_OSDP_READER_TX_BUFFER_SIZE > UART_OSDP_READER_MAX_BYTE_VALUE) && (CY_PSOC3)
1091:.\Generated_Source\PSoC5/UART_OSDP_READER.c **** 
1092:.\Generated_Source\PSoC5/UART_OSDP_READER.c ****             UART_OSDP_READER_txBufferWrite = locTxBufferWrite;
1093:.\Generated_Source\PSoC5/UART_OSDP_READER.c **** 
1094:.\Generated_Source\PSoC5/UART_OSDP_READER.c ****         #if ((UART_OSDP_READER_TX_BUFFER_SIZE > UART_OSDP_READER_MAX_BYTE_VALUE) && (CY_PSOC3))
1095:.\Generated_Source\PSoC5/UART_OSDP_READER.c ****             UART_OSDP_READER_EnableTxInt();
1096:.\Generated_Source\PSoC5/UART_OSDP_READER.c ****         #endif /* (UART_OSDP_READER_TX_BUFFER_SIZE > UART_OSDP_READER_MAX_BYTE_VALUE) && (CY_PSOC3)
1097:.\Generated_Source\PSoC5/UART_OSDP_READER.c **** 
1098:.\Generated_Source\PSoC5/UART_OSDP_READER.c ****             if(0u != (UART_OSDP_READER_TXSTATUS_REG & UART_OSDP_READER_TX_STS_FIFO_EMPTY))
1099:.\Generated_Source\PSoC5/UART_OSDP_READER.c ****             {
1100:.\Generated_Source\PSoC5/UART_OSDP_READER.c ****                 /* Trigger TX interrupt to send software buffer */
1101:.\Generated_Source\PSoC5/UART_OSDP_READER.c ****                 UART_OSDP_READER_SetPendingTxInt();
1102:.\Generated_Source\PSoC5/UART_OSDP_READER.c ****             }
1103:.\Generated_Source\PSoC5/UART_OSDP_READER.c ****         }
1104:.\Generated_Source\PSoC5/UART_OSDP_READER.c **** 
1105:.\Generated_Source\PSoC5/UART_OSDP_READER.c ****     #else
1106:.\Generated_Source\PSoC5/UART_OSDP_READER.c **** 
1107:.\Generated_Source\PSoC5/UART_OSDP_READER.c ****         while((UART_OSDP_READER_TXSTATUS_REG & UART_OSDP_READER_TX_STS_FIFO_FULL) != 0u)
 1187              		.loc 1 1107 0
 1188 000a 00BF     		nop
 1189              	.L82:
 1190              		.loc 1 1107 0 is_stmt 0 discriminator 1
 1191 000c 074B     		ldr	r3, .L83
 1192 000e 1B78     		ldrb	r3, [r3]
 1193 0010 DBB2     		uxtb	r3, r3
 1194 0012 03F02003 		and	r3, r3, #32
 1195 0016 002B     		cmp	r3, #0
 1196 0018 F8D1     		bne	.L82
1108:.\Generated_Source\PSoC5/UART_OSDP_READER.c ****         {
1109:.\Generated_Source\PSoC5/UART_OSDP_READER.c ****             /* Wait for room in the FIFO */
1110:.\Generated_Source\PSoC5/UART_OSDP_READER.c ****         }
1111:.\Generated_Source\PSoC5/UART_OSDP_READER.c **** 
1112:.\Generated_Source\PSoC5/UART_OSDP_READER.c ****         /* Add directly to the FIFO */
1113:.\Generated_Source\PSoC5/UART_OSDP_READER.c ****         UART_OSDP_READER_TXDATA_REG = txDataByte;
 1197              		.loc 1 1113 0 is_stmt 1
 1198 001a 054B     		ldr	r3, .L83+4
 1199 001c FA79     		ldrb	r2, [r7, #7]
 1200 001e 1A70     		strb	r2, [r3]
1114:.\Generated_Source\PSoC5/UART_OSDP_READER.c **** 
1115:.\Generated_Source\PSoC5/UART_OSDP_READER.c ****     #endif /* UART_OSDP_READER_TX_INTERRUPT_ENABLED */
1116:.\Generated_Source\PSoC5/UART_OSDP_READER.c ****     }
 1201              		.loc 1 1116 0
 1202 0020 0C37     		adds	r7, r7, #12
 1203 0022 BD46     		mov	sp, r7
 1204              		@ sp needed
 1205 0024 5DF8047B 		ldr	r7, [sp], #4
 1206 0028 7047     		bx	lr
 1207              	.L84:
 1208 002a 00BF     		.align	2
 1209              	.L83:
 1210 002c 67640040 		.word	1073767527
 1211 0030 57640040 		.word	1073767511
 1212              		.cfi_endproc
 1213              	.LFE19:
 1214              		.size	UART_OSDP_READER_PutChar, .-UART_OSDP_READER_PutChar
 1215              		.section	.text.UART_OSDP_READER_PutString,"ax",%progbits
 1216              		.align	2
ARM GAS  C:\Users\Yiquing\AppData\Local\Temp\ccF0cyIx.s 			page 42


 1217              		.global	UART_OSDP_READER_PutString
 1218              		.thumb
 1219              		.thumb_func
 1220              		.type	UART_OSDP_READER_PutString, %function
 1221              	UART_OSDP_READER_PutString:
 1222              	.LFB20:
1117:.\Generated_Source\PSoC5/UART_OSDP_READER.c **** 
1118:.\Generated_Source\PSoC5/UART_OSDP_READER.c **** 
1119:.\Generated_Source\PSoC5/UART_OSDP_READER.c ****     /*******************************************************************************
1120:.\Generated_Source\PSoC5/UART_OSDP_READER.c ****     * Function Name: UART_OSDP_READER_PutString
1121:.\Generated_Source\PSoC5/UART_OSDP_READER.c ****     ********************************************************************************
1122:.\Generated_Source\PSoC5/UART_OSDP_READER.c ****     *
1123:.\Generated_Source\PSoC5/UART_OSDP_READER.c ****     * Summary:
1124:.\Generated_Source\PSoC5/UART_OSDP_READER.c ****     *  Sends a NULL terminated string to the TX buffer for transmission.
1125:.\Generated_Source\PSoC5/UART_OSDP_READER.c ****     *
1126:.\Generated_Source\PSoC5/UART_OSDP_READER.c ****     * Parameters:
1127:.\Generated_Source\PSoC5/UART_OSDP_READER.c ****     *  string[]: Pointer to the null terminated string array residing in RAM or ROM
1128:.\Generated_Source\PSoC5/UART_OSDP_READER.c ****     *
1129:.\Generated_Source\PSoC5/UART_OSDP_READER.c ****     * Return:
1130:.\Generated_Source\PSoC5/UART_OSDP_READER.c ****     *  None.
1131:.\Generated_Source\PSoC5/UART_OSDP_READER.c ****     *
1132:.\Generated_Source\PSoC5/UART_OSDP_READER.c ****     * Global Variables:
1133:.\Generated_Source\PSoC5/UART_OSDP_READER.c ****     *  UART_OSDP_READER_initVar - checked to identify that the component has been
1134:.\Generated_Source\PSoC5/UART_OSDP_READER.c ****     *     initialized.
1135:.\Generated_Source\PSoC5/UART_OSDP_READER.c ****     *
1136:.\Generated_Source\PSoC5/UART_OSDP_READER.c ****     * Reentrant:
1137:.\Generated_Source\PSoC5/UART_OSDP_READER.c ****     *  No.
1138:.\Generated_Source\PSoC5/UART_OSDP_READER.c ****     *
1139:.\Generated_Source\PSoC5/UART_OSDP_READER.c ****     * Theory:
1140:.\Generated_Source\PSoC5/UART_OSDP_READER.c ****     *  If there is not enough memory in the TX buffer for the entire string, this
1141:.\Generated_Source\PSoC5/UART_OSDP_READER.c ****     *  function blocks until the last character of the string is loaded into the
1142:.\Generated_Source\PSoC5/UART_OSDP_READER.c ****     *  TX buffer.
1143:.\Generated_Source\PSoC5/UART_OSDP_READER.c ****     *
1144:.\Generated_Source\PSoC5/UART_OSDP_READER.c ****     *******************************************************************************/
1145:.\Generated_Source\PSoC5/UART_OSDP_READER.c ****     void UART_OSDP_READER_PutString(const char8 string[]) 
1146:.\Generated_Source\PSoC5/UART_OSDP_READER.c ****     {
 1223              		.loc 1 1146 0
 1224              		.cfi_startproc
 1225              		@ args = 0, pretend = 0, frame = 16
 1226              		@ frame_needed = 1, uses_anonymous_args = 0
 1227 0000 80B5     		push	{r7, lr}
 1228              		.cfi_def_cfa_offset 8
 1229              		.cfi_offset 7, -8
 1230              		.cfi_offset 14, -4
 1231 0002 84B0     		sub	sp, sp, #16
 1232              		.cfi_def_cfa_offset 24
 1233 0004 00AF     		add	r7, sp, #0
 1234              		.cfi_def_cfa_register 7
 1235 0006 7860     		str	r0, [r7, #4]
1147:.\Generated_Source\PSoC5/UART_OSDP_READER.c ****         uint16 bufIndex = 0u;
 1236              		.loc 1 1147 0
 1237 0008 0023     		movs	r3, #0
 1238 000a FB81     		strh	r3, [r7, #14]	@ movhi
1148:.\Generated_Source\PSoC5/UART_OSDP_READER.c **** 
1149:.\Generated_Source\PSoC5/UART_OSDP_READER.c ****         /* If not Initialized then skip this function */
1150:.\Generated_Source\PSoC5/UART_OSDP_READER.c ****         if(UART_OSDP_READER_initVar != 0u)
 1239              		.loc 1 1150 0
ARM GAS  C:\Users\Yiquing\AppData\Local\Temp\ccF0cyIx.s 			page 43


 1240 000c 0B4B     		ldr	r3, .L89
 1241 000e 1B78     		ldrb	r3, [r3]	@ zero_extendqisi2
 1242 0010 002B     		cmp	r3, #0
 1243 0012 10D0     		beq	.L85
1151:.\Generated_Source\PSoC5/UART_OSDP_READER.c ****         {
1152:.\Generated_Source\PSoC5/UART_OSDP_READER.c ****             /* This is a blocking function, it will not exit until all data is sent */
1153:.\Generated_Source\PSoC5/UART_OSDP_READER.c ****             while(string[bufIndex] != (char8) 0)
 1244              		.loc 1 1153 0
 1245 0014 09E0     		b	.L87
 1246              	.L88:
1154:.\Generated_Source\PSoC5/UART_OSDP_READER.c ****             {
1155:.\Generated_Source\PSoC5/UART_OSDP_READER.c ****                 UART_OSDP_READER_PutChar((uint8)string[bufIndex]);
 1247              		.loc 1 1155 0
 1248 0016 FB89     		ldrh	r3, [r7, #14]
 1249 0018 7A68     		ldr	r2, [r7, #4]
 1250 001a 1344     		add	r3, r3, r2
 1251 001c 1B78     		ldrb	r3, [r3]	@ zero_extendqisi2
 1252 001e 1846     		mov	r0, r3
 1253 0020 FFF7FEFF 		bl	UART_OSDP_READER_PutChar
1156:.\Generated_Source\PSoC5/UART_OSDP_READER.c ****                 bufIndex++;
 1254              		.loc 1 1156 0
 1255 0024 FB89     		ldrh	r3, [r7, #14]
 1256 0026 0133     		adds	r3, r3, #1
 1257 0028 FB81     		strh	r3, [r7, #14]	@ movhi
 1258              	.L87:
1153:.\Generated_Source\PSoC5/UART_OSDP_READER.c ****             while(string[bufIndex] != (char8) 0)
 1259              		.loc 1 1153 0 discriminator 1
 1260 002a FB89     		ldrh	r3, [r7, #14]
 1261 002c 7A68     		ldr	r2, [r7, #4]
 1262 002e 1344     		add	r3, r3, r2
 1263 0030 1B78     		ldrb	r3, [r3]	@ zero_extendqisi2
 1264 0032 002B     		cmp	r3, #0
 1265 0034 EFD1     		bne	.L88
 1266              	.L85:
1157:.\Generated_Source\PSoC5/UART_OSDP_READER.c ****             }
1158:.\Generated_Source\PSoC5/UART_OSDP_READER.c ****         }
1159:.\Generated_Source\PSoC5/UART_OSDP_READER.c ****     }
 1267              		.loc 1 1159 0
 1268 0036 1037     		adds	r7, r7, #16
 1269 0038 BD46     		mov	sp, r7
 1270              		@ sp needed
 1271 003a 80BD     		pop	{r7, pc}
 1272              	.L90:
 1273              		.align	2
 1274              	.L89:
 1275 003c 00000000 		.word	UART_OSDP_READER_initVar
 1276              		.cfi_endproc
 1277              	.LFE20:
 1278              		.size	UART_OSDP_READER_PutString, .-UART_OSDP_READER_PutString
 1279              		.section	.text.UART_OSDP_READER_PutArray,"ax",%progbits
 1280              		.align	2
 1281              		.global	UART_OSDP_READER_PutArray
 1282              		.thumb
 1283              		.thumb_func
 1284              		.type	UART_OSDP_READER_PutArray, %function
 1285              	UART_OSDP_READER_PutArray:
 1286              	.LFB21:
ARM GAS  C:\Users\Yiquing\AppData\Local\Temp\ccF0cyIx.s 			page 44


1160:.\Generated_Source\PSoC5/UART_OSDP_READER.c **** 
1161:.\Generated_Source\PSoC5/UART_OSDP_READER.c **** 
1162:.\Generated_Source\PSoC5/UART_OSDP_READER.c ****     /*******************************************************************************
1163:.\Generated_Source\PSoC5/UART_OSDP_READER.c ****     * Function Name: UART_OSDP_READER_PutArray
1164:.\Generated_Source\PSoC5/UART_OSDP_READER.c ****     ********************************************************************************
1165:.\Generated_Source\PSoC5/UART_OSDP_READER.c ****     *
1166:.\Generated_Source\PSoC5/UART_OSDP_READER.c ****     * Summary:
1167:.\Generated_Source\PSoC5/UART_OSDP_READER.c ****     *  Places N bytes of data from a memory array into the TX buffer for
1168:.\Generated_Source\PSoC5/UART_OSDP_READER.c ****     *  transmission.
1169:.\Generated_Source\PSoC5/UART_OSDP_READER.c ****     *
1170:.\Generated_Source\PSoC5/UART_OSDP_READER.c ****     * Parameters:
1171:.\Generated_Source\PSoC5/UART_OSDP_READER.c ****     *  string[]: Address of the memory array residing in RAM or ROM.
1172:.\Generated_Source\PSoC5/UART_OSDP_READER.c ****     *  byteCount: Number of bytes to be transmitted. The type depends on TX Buffer
1173:.\Generated_Source\PSoC5/UART_OSDP_READER.c ****     *             Size parameter.
1174:.\Generated_Source\PSoC5/UART_OSDP_READER.c ****     *
1175:.\Generated_Source\PSoC5/UART_OSDP_READER.c ****     * Return:
1176:.\Generated_Source\PSoC5/UART_OSDP_READER.c ****     *  None.
1177:.\Generated_Source\PSoC5/UART_OSDP_READER.c ****     *
1178:.\Generated_Source\PSoC5/UART_OSDP_READER.c ****     * Global Variables:
1179:.\Generated_Source\PSoC5/UART_OSDP_READER.c ****     *  UART_OSDP_READER_initVar - checked to identify that the component has been
1180:.\Generated_Source\PSoC5/UART_OSDP_READER.c ****     *     initialized.
1181:.\Generated_Source\PSoC5/UART_OSDP_READER.c ****     *
1182:.\Generated_Source\PSoC5/UART_OSDP_READER.c ****     * Reentrant:
1183:.\Generated_Source\PSoC5/UART_OSDP_READER.c ****     *  No.
1184:.\Generated_Source\PSoC5/UART_OSDP_READER.c ****     *
1185:.\Generated_Source\PSoC5/UART_OSDP_READER.c ****     * Theory:
1186:.\Generated_Source\PSoC5/UART_OSDP_READER.c ****     *  If there is not enough memory in the TX buffer for the entire string, this
1187:.\Generated_Source\PSoC5/UART_OSDP_READER.c ****     *  function blocks until the last character of the string is loaded into the
1188:.\Generated_Source\PSoC5/UART_OSDP_READER.c ****     *  TX buffer.
1189:.\Generated_Source\PSoC5/UART_OSDP_READER.c ****     *
1190:.\Generated_Source\PSoC5/UART_OSDP_READER.c ****     *******************************************************************************/
1191:.\Generated_Source\PSoC5/UART_OSDP_READER.c ****     void UART_OSDP_READER_PutArray(const uint8 string[], uint8 byteCount)
1192:.\Generated_Source\PSoC5/UART_OSDP_READER.c ****                                                                     
1193:.\Generated_Source\PSoC5/UART_OSDP_READER.c ****     {
 1287              		.loc 1 1193 0
 1288              		.cfi_startproc
 1289              		@ args = 0, pretend = 0, frame = 16
 1290              		@ frame_needed = 1, uses_anonymous_args = 0
 1291 0000 80B5     		push	{r7, lr}
 1292              		.cfi_def_cfa_offset 8
 1293              		.cfi_offset 7, -8
 1294              		.cfi_offset 14, -4
 1295 0002 84B0     		sub	sp, sp, #16
 1296              		.cfi_def_cfa_offset 24
 1297 0004 00AF     		add	r7, sp, #0
 1298              		.cfi_def_cfa_register 7
 1299 0006 7860     		str	r0, [r7, #4]
 1300 0008 0B46     		mov	r3, r1
 1301 000a FB70     		strb	r3, [r7, #3]
1194:.\Generated_Source\PSoC5/UART_OSDP_READER.c ****         uint8 bufIndex = 0u;
 1302              		.loc 1 1194 0
 1303 000c 0023     		movs	r3, #0
 1304 000e FB73     		strb	r3, [r7, #15]
1195:.\Generated_Source\PSoC5/UART_OSDP_READER.c **** 
1196:.\Generated_Source\PSoC5/UART_OSDP_READER.c ****         /* If not Initialized then skip this function */
1197:.\Generated_Source\PSoC5/UART_OSDP_READER.c ****         if(UART_OSDP_READER_initVar != 0u)
 1305              		.loc 1 1197 0
ARM GAS  C:\Users\Yiquing\AppData\Local\Temp\ccF0cyIx.s 			page 45


 1306 0010 0A4B     		ldr	r3, .L95
 1307 0012 1B78     		ldrb	r3, [r3]	@ zero_extendqisi2
 1308 0014 002B     		cmp	r3, #0
 1309 0016 0ED0     		beq	.L91
1198:.\Generated_Source\PSoC5/UART_OSDP_READER.c ****         {
1199:.\Generated_Source\PSoC5/UART_OSDP_READER.c ****             while(bufIndex < byteCount)
 1310              		.loc 1 1199 0
 1311 0018 09E0     		b	.L93
 1312              	.L94:
1200:.\Generated_Source\PSoC5/UART_OSDP_READER.c ****             {
1201:.\Generated_Source\PSoC5/UART_OSDP_READER.c ****                 UART_OSDP_READER_PutChar(string[bufIndex]);
 1313              		.loc 1 1201 0
 1314 001a FB7B     		ldrb	r3, [r7, #15]	@ zero_extendqisi2
 1315 001c 7A68     		ldr	r2, [r7, #4]
 1316 001e 1344     		add	r3, r3, r2
 1317 0020 1B78     		ldrb	r3, [r3]	@ zero_extendqisi2
 1318 0022 1846     		mov	r0, r3
 1319 0024 FFF7FEFF 		bl	UART_OSDP_READER_PutChar
1202:.\Generated_Source\PSoC5/UART_OSDP_READER.c ****                 bufIndex++;
 1320              		.loc 1 1202 0
 1321 0028 FB7B     		ldrb	r3, [r7, #15]	@ zero_extendqisi2
 1322 002a 0133     		adds	r3, r3, #1
 1323 002c FB73     		strb	r3, [r7, #15]
 1324              	.L93:
1199:.\Generated_Source\PSoC5/UART_OSDP_READER.c ****             while(bufIndex < byteCount)
 1325              		.loc 1 1199 0 discriminator 1
 1326 002e FA7B     		ldrb	r2, [r7, #15]	@ zero_extendqisi2
 1327 0030 FB78     		ldrb	r3, [r7, #3]	@ zero_extendqisi2
 1328 0032 9A42     		cmp	r2, r3
 1329 0034 F1D3     		bcc	.L94
 1330              	.L91:
1203:.\Generated_Source\PSoC5/UART_OSDP_READER.c ****             }
1204:.\Generated_Source\PSoC5/UART_OSDP_READER.c ****         }
1205:.\Generated_Source\PSoC5/UART_OSDP_READER.c ****     }
 1331              		.loc 1 1205 0
 1332 0036 1037     		adds	r7, r7, #16
 1333 0038 BD46     		mov	sp, r7
 1334              		@ sp needed
 1335 003a 80BD     		pop	{r7, pc}
 1336              	.L96:
 1337              		.align	2
 1338              	.L95:
 1339 003c 00000000 		.word	UART_OSDP_READER_initVar
 1340              		.cfi_endproc
 1341              	.LFE21:
 1342              		.size	UART_OSDP_READER_PutArray, .-UART_OSDP_READER_PutArray
 1343              		.section	.text.UART_OSDP_READER_PutCRLF,"ax",%progbits
 1344              		.align	2
 1345              		.global	UART_OSDP_READER_PutCRLF
 1346              		.thumb
 1347              		.thumb_func
 1348              		.type	UART_OSDP_READER_PutCRLF, %function
 1349              	UART_OSDP_READER_PutCRLF:
 1350              	.LFB22:
1206:.\Generated_Source\PSoC5/UART_OSDP_READER.c **** 
1207:.\Generated_Source\PSoC5/UART_OSDP_READER.c **** 
1208:.\Generated_Source\PSoC5/UART_OSDP_READER.c ****     /*******************************************************************************
ARM GAS  C:\Users\Yiquing\AppData\Local\Temp\ccF0cyIx.s 			page 46


1209:.\Generated_Source\PSoC5/UART_OSDP_READER.c ****     * Function Name: UART_OSDP_READER_PutCRLF
1210:.\Generated_Source\PSoC5/UART_OSDP_READER.c ****     ********************************************************************************
1211:.\Generated_Source\PSoC5/UART_OSDP_READER.c ****     *
1212:.\Generated_Source\PSoC5/UART_OSDP_READER.c ****     * Summary:
1213:.\Generated_Source\PSoC5/UART_OSDP_READER.c ****     *  Writes a byte of data followed by a carriage return (0x0D) and line feed
1214:.\Generated_Source\PSoC5/UART_OSDP_READER.c ****     *  (0x0A) to the transmit buffer.
1215:.\Generated_Source\PSoC5/UART_OSDP_READER.c ****     *
1216:.\Generated_Source\PSoC5/UART_OSDP_READER.c ****     * Parameters:
1217:.\Generated_Source\PSoC5/UART_OSDP_READER.c ****     *  txDataByte: Data byte to transmit before the carriage return and line feed.
1218:.\Generated_Source\PSoC5/UART_OSDP_READER.c ****     *
1219:.\Generated_Source\PSoC5/UART_OSDP_READER.c ****     * Return:
1220:.\Generated_Source\PSoC5/UART_OSDP_READER.c ****     *  None.
1221:.\Generated_Source\PSoC5/UART_OSDP_READER.c ****     *
1222:.\Generated_Source\PSoC5/UART_OSDP_READER.c ****     * Global Variables:
1223:.\Generated_Source\PSoC5/UART_OSDP_READER.c ****     *  UART_OSDP_READER_initVar - checked to identify that the component has been
1224:.\Generated_Source\PSoC5/UART_OSDP_READER.c ****     *     initialized.
1225:.\Generated_Source\PSoC5/UART_OSDP_READER.c ****     *
1226:.\Generated_Source\PSoC5/UART_OSDP_READER.c ****     * Reentrant:
1227:.\Generated_Source\PSoC5/UART_OSDP_READER.c ****     *  No.
1228:.\Generated_Source\PSoC5/UART_OSDP_READER.c ****     *
1229:.\Generated_Source\PSoC5/UART_OSDP_READER.c ****     *******************************************************************************/
1230:.\Generated_Source\PSoC5/UART_OSDP_READER.c ****     void UART_OSDP_READER_PutCRLF(uint8 txDataByte) 
1231:.\Generated_Source\PSoC5/UART_OSDP_READER.c ****     {
 1351              		.loc 1 1231 0
 1352              		.cfi_startproc
 1353              		@ args = 0, pretend = 0, frame = 8
 1354              		@ frame_needed = 1, uses_anonymous_args = 0
 1355 0000 80B5     		push	{r7, lr}
 1356              		.cfi_def_cfa_offset 8
 1357              		.cfi_offset 7, -8
 1358              		.cfi_offset 14, -4
 1359 0002 82B0     		sub	sp, sp, #8
 1360              		.cfi_def_cfa_offset 16
 1361 0004 00AF     		add	r7, sp, #0
 1362              		.cfi_def_cfa_register 7
 1363 0006 0346     		mov	r3, r0
 1364 0008 FB71     		strb	r3, [r7, #7]
1232:.\Generated_Source\PSoC5/UART_OSDP_READER.c ****         /* If not Initialized then skip this function */
1233:.\Generated_Source\PSoC5/UART_OSDP_READER.c ****         if(UART_OSDP_READER_initVar != 0u)
 1365              		.loc 1 1233 0
 1366 000a 084B     		ldr	r3, .L99
 1367 000c 1B78     		ldrb	r3, [r3]	@ zero_extendqisi2
 1368 000e 002B     		cmp	r3, #0
 1369 0010 09D0     		beq	.L97
1234:.\Generated_Source\PSoC5/UART_OSDP_READER.c ****         {
1235:.\Generated_Source\PSoC5/UART_OSDP_READER.c ****             UART_OSDP_READER_PutChar(txDataByte);
 1370              		.loc 1 1235 0
 1371 0012 FB79     		ldrb	r3, [r7, #7]	@ zero_extendqisi2
 1372 0014 1846     		mov	r0, r3
 1373 0016 FFF7FEFF 		bl	UART_OSDP_READER_PutChar
1236:.\Generated_Source\PSoC5/UART_OSDP_READER.c ****             UART_OSDP_READER_PutChar(0x0Du);
 1374              		.loc 1 1236 0
 1375 001a 0D20     		movs	r0, #13
 1376 001c FFF7FEFF 		bl	UART_OSDP_READER_PutChar
1237:.\Generated_Source\PSoC5/UART_OSDP_READER.c ****             UART_OSDP_READER_PutChar(0x0Au);
 1377              		.loc 1 1237 0
 1378 0020 0A20     		movs	r0, #10
ARM GAS  C:\Users\Yiquing\AppData\Local\Temp\ccF0cyIx.s 			page 47


 1379 0022 FFF7FEFF 		bl	UART_OSDP_READER_PutChar
 1380              	.L97:
1238:.\Generated_Source\PSoC5/UART_OSDP_READER.c ****         }
1239:.\Generated_Source\PSoC5/UART_OSDP_READER.c ****     }
 1381              		.loc 1 1239 0
 1382 0026 0837     		adds	r7, r7, #8
 1383 0028 BD46     		mov	sp, r7
 1384              		@ sp needed
 1385 002a 80BD     		pop	{r7, pc}
 1386              	.L100:
 1387              		.align	2
 1388              	.L99:
 1389 002c 00000000 		.word	UART_OSDP_READER_initVar
 1390              		.cfi_endproc
 1391              	.LFE22:
 1392              		.size	UART_OSDP_READER_PutCRLF, .-UART_OSDP_READER_PutCRLF
 1393              		.section	.text.UART_OSDP_READER_GetTxBufferSize,"ax",%progbits
 1394              		.align	2
 1395              		.global	UART_OSDP_READER_GetTxBufferSize
 1396              		.thumb
 1397              		.thumb_func
 1398              		.type	UART_OSDP_READER_GetTxBufferSize, %function
 1399              	UART_OSDP_READER_GetTxBufferSize:
 1400              	.LFB23:
1240:.\Generated_Source\PSoC5/UART_OSDP_READER.c **** 
1241:.\Generated_Source\PSoC5/UART_OSDP_READER.c **** 
1242:.\Generated_Source\PSoC5/UART_OSDP_READER.c ****     /*******************************************************************************
1243:.\Generated_Source\PSoC5/UART_OSDP_READER.c ****     * Function Name: UART_OSDP_READER_GetTxBufferSize
1244:.\Generated_Source\PSoC5/UART_OSDP_READER.c ****     ********************************************************************************
1245:.\Generated_Source\PSoC5/UART_OSDP_READER.c ****     *
1246:.\Generated_Source\PSoC5/UART_OSDP_READER.c ****     * Summary:
1247:.\Generated_Source\PSoC5/UART_OSDP_READER.c ****     *  Returns the number of bytes in the TX buffer which are waiting to be 
1248:.\Generated_Source\PSoC5/UART_OSDP_READER.c ****     *  transmitted.
1249:.\Generated_Source\PSoC5/UART_OSDP_READER.c ****     *  * TX software buffer is disabled (TX Buffer Size parameter is equal to 4): 
1250:.\Generated_Source\PSoC5/UART_OSDP_READER.c ****     *    returns 0 for empty TX FIFO, 1 for not full TX FIFO or 4 for full TX FIFO.
1251:.\Generated_Source\PSoC5/UART_OSDP_READER.c ****     *  * TX software buffer is enabled: returns the number of bytes in the TX 
1252:.\Generated_Source\PSoC5/UART_OSDP_READER.c ****     *    software buffer which are waiting to be transmitted. Bytes available in the
1253:.\Generated_Source\PSoC5/UART_OSDP_READER.c ****     *    TX FIFO do not count.
1254:.\Generated_Source\PSoC5/UART_OSDP_READER.c ****     *
1255:.\Generated_Source\PSoC5/UART_OSDP_READER.c ****     * Parameters:
1256:.\Generated_Source\PSoC5/UART_OSDP_READER.c ****     *  None.
1257:.\Generated_Source\PSoC5/UART_OSDP_READER.c ****     *
1258:.\Generated_Source\PSoC5/UART_OSDP_READER.c ****     * Return:
1259:.\Generated_Source\PSoC5/UART_OSDP_READER.c ****     *  Number of bytes used in the TX buffer. Return value type depends on the TX 
1260:.\Generated_Source\PSoC5/UART_OSDP_READER.c ****     *  Buffer Size parameter.
1261:.\Generated_Source\PSoC5/UART_OSDP_READER.c ****     *
1262:.\Generated_Source\PSoC5/UART_OSDP_READER.c ****     * Global Variables:
1263:.\Generated_Source\PSoC5/UART_OSDP_READER.c ****     *  UART_OSDP_READER_txBufferWrite - used to calculate left space.
1264:.\Generated_Source\PSoC5/UART_OSDP_READER.c ****     *  UART_OSDP_READER_txBufferRead - used to calculate left space.
1265:.\Generated_Source\PSoC5/UART_OSDP_READER.c ****     *
1266:.\Generated_Source\PSoC5/UART_OSDP_READER.c ****     * Reentrant:
1267:.\Generated_Source\PSoC5/UART_OSDP_READER.c ****     *  No.
1268:.\Generated_Source\PSoC5/UART_OSDP_READER.c ****     *
1269:.\Generated_Source\PSoC5/UART_OSDP_READER.c ****     * Theory:
1270:.\Generated_Source\PSoC5/UART_OSDP_READER.c ****     *  Allows the user to find out how full the TX Buffer is.
1271:.\Generated_Source\PSoC5/UART_OSDP_READER.c ****     *
1272:.\Generated_Source\PSoC5/UART_OSDP_READER.c ****     *******************************************************************************/
ARM GAS  C:\Users\Yiquing\AppData\Local\Temp\ccF0cyIx.s 			page 48


1273:.\Generated_Source\PSoC5/UART_OSDP_READER.c ****     uint8 UART_OSDP_READER_GetTxBufferSize(void)
1274:.\Generated_Source\PSoC5/UART_OSDP_READER.c ****                                                             
1275:.\Generated_Source\PSoC5/UART_OSDP_READER.c ****     {
 1401              		.loc 1 1275 0
 1402              		.cfi_startproc
 1403              		@ args = 0, pretend = 0, frame = 8
 1404              		@ frame_needed = 1, uses_anonymous_args = 0
 1405              		@ link register save eliminated.
 1406 0000 80B4     		push	{r7}
 1407              		.cfi_def_cfa_offset 4
 1408              		.cfi_offset 7, -4
 1409 0002 83B0     		sub	sp, sp, #12
 1410              		.cfi_def_cfa_offset 16
 1411 0004 00AF     		add	r7, sp, #0
 1412              		.cfi_def_cfa_register 7
1276:.\Generated_Source\PSoC5/UART_OSDP_READER.c ****         uint8 size;
1277:.\Generated_Source\PSoC5/UART_OSDP_READER.c **** 
1278:.\Generated_Source\PSoC5/UART_OSDP_READER.c ****     #if (UART_OSDP_READER_TX_INTERRUPT_ENABLED)
1279:.\Generated_Source\PSoC5/UART_OSDP_READER.c **** 
1280:.\Generated_Source\PSoC5/UART_OSDP_READER.c ****         /* Protect variables that could change on interrupt. */
1281:.\Generated_Source\PSoC5/UART_OSDP_READER.c ****         UART_OSDP_READER_DisableTxInt();
1282:.\Generated_Source\PSoC5/UART_OSDP_READER.c **** 
1283:.\Generated_Source\PSoC5/UART_OSDP_READER.c ****         if(UART_OSDP_READER_txBufferRead == UART_OSDP_READER_txBufferWrite)
1284:.\Generated_Source\PSoC5/UART_OSDP_READER.c ****         {
1285:.\Generated_Source\PSoC5/UART_OSDP_READER.c ****             size = 0u;
1286:.\Generated_Source\PSoC5/UART_OSDP_READER.c ****         }
1287:.\Generated_Source\PSoC5/UART_OSDP_READER.c ****         else if(UART_OSDP_READER_txBufferRead < UART_OSDP_READER_txBufferWrite)
1288:.\Generated_Source\PSoC5/UART_OSDP_READER.c ****         {
1289:.\Generated_Source\PSoC5/UART_OSDP_READER.c ****             size = (UART_OSDP_READER_txBufferWrite - UART_OSDP_READER_txBufferRead);
1290:.\Generated_Source\PSoC5/UART_OSDP_READER.c ****         }
1291:.\Generated_Source\PSoC5/UART_OSDP_READER.c ****         else
1292:.\Generated_Source\PSoC5/UART_OSDP_READER.c ****         {
1293:.\Generated_Source\PSoC5/UART_OSDP_READER.c ****             size = (UART_OSDP_READER_TX_BUFFER_SIZE - UART_OSDP_READER_txBufferRead) +
1294:.\Generated_Source\PSoC5/UART_OSDP_READER.c ****                     UART_OSDP_READER_txBufferWrite;
1295:.\Generated_Source\PSoC5/UART_OSDP_READER.c ****         }
1296:.\Generated_Source\PSoC5/UART_OSDP_READER.c **** 
1297:.\Generated_Source\PSoC5/UART_OSDP_READER.c ****         UART_OSDP_READER_EnableTxInt();
1298:.\Generated_Source\PSoC5/UART_OSDP_READER.c **** 
1299:.\Generated_Source\PSoC5/UART_OSDP_READER.c ****     #else
1300:.\Generated_Source\PSoC5/UART_OSDP_READER.c **** 
1301:.\Generated_Source\PSoC5/UART_OSDP_READER.c ****         size = UART_OSDP_READER_TXSTATUS_REG;
 1413              		.loc 1 1301 0
 1414 0006 0E4B     		ldr	r3, .L106
 1415 0008 1B78     		ldrb	r3, [r3]
 1416 000a FB71     		strb	r3, [r7, #7]
1302:.\Generated_Source\PSoC5/UART_OSDP_READER.c **** 
1303:.\Generated_Source\PSoC5/UART_OSDP_READER.c ****         /* Is the fifo is full. */
1304:.\Generated_Source\PSoC5/UART_OSDP_READER.c ****         if((size & UART_OSDP_READER_TX_STS_FIFO_FULL) != 0u)
 1417              		.loc 1 1304 0
 1418 000c FB79     		ldrb	r3, [r7, #7]	@ zero_extendqisi2
 1419 000e 03F02003 		and	r3, r3, #32
 1420 0012 002B     		cmp	r3, #0
 1421 0014 02D0     		beq	.L102
1305:.\Generated_Source\PSoC5/UART_OSDP_READER.c ****         {
1306:.\Generated_Source\PSoC5/UART_OSDP_READER.c ****             size = UART_OSDP_READER_FIFO_LENGTH;
 1422              		.loc 1 1306 0
 1423 0016 0423     		movs	r3, #4
ARM GAS  C:\Users\Yiquing\AppData\Local\Temp\ccF0cyIx.s 			page 49


 1424 0018 FB71     		strb	r3, [r7, #7]
 1425 001a 09E0     		b	.L103
 1426              	.L102:
1307:.\Generated_Source\PSoC5/UART_OSDP_READER.c ****         }
1308:.\Generated_Source\PSoC5/UART_OSDP_READER.c ****         else if((size & UART_OSDP_READER_TX_STS_FIFO_EMPTY) != 0u)
 1427              		.loc 1 1308 0
 1428 001c FB79     		ldrb	r3, [r7, #7]	@ zero_extendqisi2
 1429 001e 03F00203 		and	r3, r3, #2
 1430 0022 002B     		cmp	r3, #0
 1431 0024 02D0     		beq	.L104
1309:.\Generated_Source\PSoC5/UART_OSDP_READER.c ****         {
1310:.\Generated_Source\PSoC5/UART_OSDP_READER.c ****             size = 0u;
 1432              		.loc 1 1310 0
 1433 0026 0023     		movs	r3, #0
 1434 0028 FB71     		strb	r3, [r7, #7]
 1435 002a 01E0     		b	.L103
 1436              	.L104:
1311:.\Generated_Source\PSoC5/UART_OSDP_READER.c ****         }
1312:.\Generated_Source\PSoC5/UART_OSDP_READER.c ****         else
1313:.\Generated_Source\PSoC5/UART_OSDP_READER.c ****         {
1314:.\Generated_Source\PSoC5/UART_OSDP_READER.c ****             /* We only know there is data in the fifo. */
1315:.\Generated_Source\PSoC5/UART_OSDP_READER.c ****             size = 1u;
 1437              		.loc 1 1315 0
 1438 002c 0123     		movs	r3, #1
 1439 002e FB71     		strb	r3, [r7, #7]
 1440              	.L103:
1316:.\Generated_Source\PSoC5/UART_OSDP_READER.c ****         }
1317:.\Generated_Source\PSoC5/UART_OSDP_READER.c **** 
1318:.\Generated_Source\PSoC5/UART_OSDP_READER.c ****     #endif /* (UART_OSDP_READER_TX_INTERRUPT_ENABLED) */
1319:.\Generated_Source\PSoC5/UART_OSDP_READER.c **** 
1320:.\Generated_Source\PSoC5/UART_OSDP_READER.c ****     return(size);
 1441              		.loc 1 1320 0
 1442 0030 FB79     		ldrb	r3, [r7, #7]	@ zero_extendqisi2
1321:.\Generated_Source\PSoC5/UART_OSDP_READER.c ****     }
 1443              		.loc 1 1321 0
 1444 0032 1846     		mov	r0, r3
 1445 0034 0C37     		adds	r7, r7, #12
 1446 0036 BD46     		mov	sp, r7
 1447              		@ sp needed
 1448 0038 5DF8047B 		ldr	r7, [sp], #4
 1449 003c 7047     		bx	lr
 1450              	.L107:
 1451 003e 00BF     		.align	2
 1452              	.L106:
 1453 0040 67640040 		.word	1073767527
 1454              		.cfi_endproc
 1455              	.LFE23:
 1456              		.size	UART_OSDP_READER_GetTxBufferSize, .-UART_OSDP_READER_GetTxBufferSize
 1457              		.section	.text.UART_OSDP_READER_ClearTxBuffer,"ax",%progbits
 1458              		.align	2
 1459              		.global	UART_OSDP_READER_ClearTxBuffer
 1460              		.thumb
 1461              		.thumb_func
 1462              		.type	UART_OSDP_READER_ClearTxBuffer, %function
 1463              	UART_OSDP_READER_ClearTxBuffer:
 1464              	.LFB24:
1322:.\Generated_Source\PSoC5/UART_OSDP_READER.c **** 
ARM GAS  C:\Users\Yiquing\AppData\Local\Temp\ccF0cyIx.s 			page 50


1323:.\Generated_Source\PSoC5/UART_OSDP_READER.c **** 
1324:.\Generated_Source\PSoC5/UART_OSDP_READER.c ****     /*******************************************************************************
1325:.\Generated_Source\PSoC5/UART_OSDP_READER.c ****     * Function Name: UART_OSDP_READER_ClearTxBuffer
1326:.\Generated_Source\PSoC5/UART_OSDP_READER.c ****     ********************************************************************************
1327:.\Generated_Source\PSoC5/UART_OSDP_READER.c ****     *
1328:.\Generated_Source\PSoC5/UART_OSDP_READER.c ****     * Summary:
1329:.\Generated_Source\PSoC5/UART_OSDP_READER.c ****     *  Clears all data from the TX buffer and hardware TX FIFO.
1330:.\Generated_Source\PSoC5/UART_OSDP_READER.c ****     *
1331:.\Generated_Source\PSoC5/UART_OSDP_READER.c ****     * Parameters:
1332:.\Generated_Source\PSoC5/UART_OSDP_READER.c ****     *  None.
1333:.\Generated_Source\PSoC5/UART_OSDP_READER.c ****     *
1334:.\Generated_Source\PSoC5/UART_OSDP_READER.c ****     * Return:
1335:.\Generated_Source\PSoC5/UART_OSDP_READER.c ****     *  None.
1336:.\Generated_Source\PSoC5/UART_OSDP_READER.c ****     *
1337:.\Generated_Source\PSoC5/UART_OSDP_READER.c ****     * Global Variables:
1338:.\Generated_Source\PSoC5/UART_OSDP_READER.c ****     *  UART_OSDP_READER_txBufferWrite - cleared to zero.
1339:.\Generated_Source\PSoC5/UART_OSDP_READER.c ****     *  UART_OSDP_READER_txBufferRead - cleared to zero.
1340:.\Generated_Source\PSoC5/UART_OSDP_READER.c ****     *
1341:.\Generated_Source\PSoC5/UART_OSDP_READER.c ****     * Reentrant:
1342:.\Generated_Source\PSoC5/UART_OSDP_READER.c ****     *  No.
1343:.\Generated_Source\PSoC5/UART_OSDP_READER.c ****     *
1344:.\Generated_Source\PSoC5/UART_OSDP_READER.c ****     * Theory:
1345:.\Generated_Source\PSoC5/UART_OSDP_READER.c ****     *  Setting the pointers to zero makes the system believe there is no data to
1346:.\Generated_Source\PSoC5/UART_OSDP_READER.c ****     *  read and writing will resume at address 0 overwriting any data that may have
1347:.\Generated_Source\PSoC5/UART_OSDP_READER.c ****     *  remained in the RAM.
1348:.\Generated_Source\PSoC5/UART_OSDP_READER.c ****     *
1349:.\Generated_Source\PSoC5/UART_OSDP_READER.c ****     * Side Effects:
1350:.\Generated_Source\PSoC5/UART_OSDP_READER.c ****     *  Data waiting in the transmit buffer is not sent; a byte that is currently
1351:.\Generated_Source\PSoC5/UART_OSDP_READER.c ****     *  transmitting finishes transmitting.
1352:.\Generated_Source\PSoC5/UART_OSDP_READER.c ****     *
1353:.\Generated_Source\PSoC5/UART_OSDP_READER.c ****     *******************************************************************************/
1354:.\Generated_Source\PSoC5/UART_OSDP_READER.c ****     void UART_OSDP_READER_ClearTxBuffer(void) 
1355:.\Generated_Source\PSoC5/UART_OSDP_READER.c ****     {
 1465              		.loc 1 1355 0
 1466              		.cfi_startproc
 1467              		@ args = 0, pretend = 0, frame = 8
 1468              		@ frame_needed = 1, uses_anonymous_args = 0
 1469 0000 80B5     		push	{r7, lr}
 1470              		.cfi_def_cfa_offset 8
 1471              		.cfi_offset 7, -8
 1472              		.cfi_offset 14, -4
 1473 0002 82B0     		sub	sp, sp, #8
 1474              		.cfi_def_cfa_offset 16
 1475 0004 00AF     		add	r7, sp, #0
 1476              		.cfi_def_cfa_register 7
1356:.\Generated_Source\PSoC5/UART_OSDP_READER.c ****         uint8 enableInterrupts;
1357:.\Generated_Source\PSoC5/UART_OSDP_READER.c **** 
1358:.\Generated_Source\PSoC5/UART_OSDP_READER.c ****         enableInterrupts = CyEnterCriticalSection();
 1477              		.loc 1 1358 0
 1478 0006 FFF7FEFF 		bl	CyEnterCriticalSection
 1479 000a 0346     		mov	r3, r0
 1480 000c FB71     		strb	r3, [r7, #7]
1359:.\Generated_Source\PSoC5/UART_OSDP_READER.c ****         /* Clear the HW FIFO */
1360:.\Generated_Source\PSoC5/UART_OSDP_READER.c ****         UART_OSDP_READER_TXDATA_AUX_CTL_REG |= (uint8)  UART_OSDP_READER_TX_FIFO_CLR;
 1481              		.loc 1 1360 0
 1482 000e 0B4B     		ldr	r3, .L109
 1483 0010 0A4A     		ldr	r2, .L109
ARM GAS  C:\Users\Yiquing\AppData\Local\Temp\ccF0cyIx.s 			page 51


 1484 0012 1278     		ldrb	r2, [r2]
 1485 0014 D2B2     		uxtb	r2, r2
 1486 0016 42F00202 		orr	r2, r2, #2
 1487 001a D2B2     		uxtb	r2, r2
 1488 001c 1A70     		strb	r2, [r3]
1361:.\Generated_Source\PSoC5/UART_OSDP_READER.c ****         UART_OSDP_READER_TXDATA_AUX_CTL_REG &= (uint8) ~UART_OSDP_READER_TX_FIFO_CLR;
 1489              		.loc 1 1361 0
 1490 001e 074B     		ldr	r3, .L109
 1491 0020 064A     		ldr	r2, .L109
 1492 0022 1278     		ldrb	r2, [r2]
 1493 0024 D2B2     		uxtb	r2, r2
 1494 0026 22F00202 		bic	r2, r2, #2
 1495 002a D2B2     		uxtb	r2, r2
 1496 002c 1A70     		strb	r2, [r3]
1362:.\Generated_Source\PSoC5/UART_OSDP_READER.c ****         CyExitCriticalSection(enableInterrupts);
 1497              		.loc 1 1362 0
 1498 002e FB79     		ldrb	r3, [r7, #7]	@ zero_extendqisi2
 1499 0030 1846     		mov	r0, r3
 1500 0032 FFF7FEFF 		bl	CyExitCriticalSection
1363:.\Generated_Source\PSoC5/UART_OSDP_READER.c **** 
1364:.\Generated_Source\PSoC5/UART_OSDP_READER.c ****     #if (UART_OSDP_READER_TX_INTERRUPT_ENABLED)
1365:.\Generated_Source\PSoC5/UART_OSDP_READER.c **** 
1366:.\Generated_Source\PSoC5/UART_OSDP_READER.c ****         /* Protect variables that could change on interrupt. */
1367:.\Generated_Source\PSoC5/UART_OSDP_READER.c ****         UART_OSDP_READER_DisableTxInt();
1368:.\Generated_Source\PSoC5/UART_OSDP_READER.c **** 
1369:.\Generated_Source\PSoC5/UART_OSDP_READER.c ****         UART_OSDP_READER_txBufferRead = 0u;
1370:.\Generated_Source\PSoC5/UART_OSDP_READER.c ****         UART_OSDP_READER_txBufferWrite = 0u;
1371:.\Generated_Source\PSoC5/UART_OSDP_READER.c **** 
1372:.\Generated_Source\PSoC5/UART_OSDP_READER.c ****         /* Enable Tx interrupt. */
1373:.\Generated_Source\PSoC5/UART_OSDP_READER.c ****         UART_OSDP_READER_EnableTxInt();
1374:.\Generated_Source\PSoC5/UART_OSDP_READER.c **** 
1375:.\Generated_Source\PSoC5/UART_OSDP_READER.c ****     #endif /* (UART_OSDP_READER_TX_INTERRUPT_ENABLED) */
1376:.\Generated_Source\PSoC5/UART_OSDP_READER.c ****     }
 1501              		.loc 1 1376 0
 1502 0036 0837     		adds	r7, r7, #8
 1503 0038 BD46     		mov	sp, r7
 1504              		@ sp needed
 1505 003a 80BD     		pop	{r7, pc}
 1506              	.L110:
 1507              		.align	2
 1508              	.L109:
 1509 003c 97640040 		.word	1073767575
 1510              		.cfi_endproc
 1511              	.LFE24:
 1512              		.size	UART_OSDP_READER_ClearTxBuffer, .-UART_OSDP_READER_ClearTxBuffer
 1513              		.section	.text.UART_OSDP_READER_SendBreak,"ax",%progbits
 1514              		.align	2
 1515              		.global	UART_OSDP_READER_SendBreak
 1516              		.thumb
 1517              		.thumb_func
 1518              		.type	UART_OSDP_READER_SendBreak, %function
 1519              	UART_OSDP_READER_SendBreak:
 1520              	.LFB25:
1377:.\Generated_Source\PSoC5/UART_OSDP_READER.c **** 
1378:.\Generated_Source\PSoC5/UART_OSDP_READER.c **** 
1379:.\Generated_Source\PSoC5/UART_OSDP_READER.c ****     /*******************************************************************************
1380:.\Generated_Source\PSoC5/UART_OSDP_READER.c ****     * Function Name: UART_OSDP_READER_SendBreak
ARM GAS  C:\Users\Yiquing\AppData\Local\Temp\ccF0cyIx.s 			page 52


1381:.\Generated_Source\PSoC5/UART_OSDP_READER.c ****     ********************************************************************************
1382:.\Generated_Source\PSoC5/UART_OSDP_READER.c ****     *
1383:.\Generated_Source\PSoC5/UART_OSDP_READER.c ****     * Summary:
1384:.\Generated_Source\PSoC5/UART_OSDP_READER.c ****     *  Transmits a break signal on the bus.
1385:.\Generated_Source\PSoC5/UART_OSDP_READER.c ****     *
1386:.\Generated_Source\PSoC5/UART_OSDP_READER.c ****     * Parameters:
1387:.\Generated_Source\PSoC5/UART_OSDP_READER.c ****     *  uint8 retMode:  Send Break return mode. See the following table for options.
1388:.\Generated_Source\PSoC5/UART_OSDP_READER.c ****     *   UART_OSDP_READER_SEND_BREAK - Initialize registers for break, send the Break
1389:.\Generated_Source\PSoC5/UART_OSDP_READER.c ****     *       signal and return immediately.
1390:.\Generated_Source\PSoC5/UART_OSDP_READER.c ****     *   UART_OSDP_READER_WAIT_FOR_COMPLETE_REINIT - Wait until break transmission is
1391:.\Generated_Source\PSoC5/UART_OSDP_READER.c ****     *       complete, reinitialize registers to normal transmission mode then return
1392:.\Generated_Source\PSoC5/UART_OSDP_READER.c ****     *   UART_OSDP_READER_REINIT - Reinitialize registers to normal transmission mode
1393:.\Generated_Source\PSoC5/UART_OSDP_READER.c ****     *       then return.
1394:.\Generated_Source\PSoC5/UART_OSDP_READER.c ****     *   UART_OSDP_READER_SEND_WAIT_REINIT - Performs both options: 
1395:.\Generated_Source\PSoC5/UART_OSDP_READER.c ****     *      UART_OSDP_READER_SEND_BREAK and UART_OSDP_READER_WAIT_FOR_COMPLETE_REINIT.
1396:.\Generated_Source\PSoC5/UART_OSDP_READER.c ****     *      This option is recommended for most cases.
1397:.\Generated_Source\PSoC5/UART_OSDP_READER.c ****     *
1398:.\Generated_Source\PSoC5/UART_OSDP_READER.c ****     * Return:
1399:.\Generated_Source\PSoC5/UART_OSDP_READER.c ****     *  None.
1400:.\Generated_Source\PSoC5/UART_OSDP_READER.c ****     *
1401:.\Generated_Source\PSoC5/UART_OSDP_READER.c ****     * Global Variables:
1402:.\Generated_Source\PSoC5/UART_OSDP_READER.c ****     *  UART_OSDP_READER_initVar - checked to identify that the component has been
1403:.\Generated_Source\PSoC5/UART_OSDP_READER.c ****     *     initialized.
1404:.\Generated_Source\PSoC5/UART_OSDP_READER.c ****     *  txPeriod - static variable, used for keeping TX period configuration.
1405:.\Generated_Source\PSoC5/UART_OSDP_READER.c ****     *
1406:.\Generated_Source\PSoC5/UART_OSDP_READER.c ****     * Reentrant:
1407:.\Generated_Source\PSoC5/UART_OSDP_READER.c ****     *  No.
1408:.\Generated_Source\PSoC5/UART_OSDP_READER.c ****     *
1409:.\Generated_Source\PSoC5/UART_OSDP_READER.c ****     * Theory:
1410:.\Generated_Source\PSoC5/UART_OSDP_READER.c ****     *  SendBreak function initializes registers to send 13-bit break signal. It is
1411:.\Generated_Source\PSoC5/UART_OSDP_READER.c ****     *  important to return the registers configuration to normal for continue 8-bit
1412:.\Generated_Source\PSoC5/UART_OSDP_READER.c ****     *  operation.
1413:.\Generated_Source\PSoC5/UART_OSDP_READER.c ****     *  There are 3 variants for this API usage:
1414:.\Generated_Source\PSoC5/UART_OSDP_READER.c ****     *  1) SendBreak(3) - function will send the Break signal and take care on the
1415:.\Generated_Source\PSoC5/UART_OSDP_READER.c ****     *     configuration returning. Function will block CPU until transmission
1416:.\Generated_Source\PSoC5/UART_OSDP_READER.c ****     *     complete.
1417:.\Generated_Source\PSoC5/UART_OSDP_READER.c ****     *  2) User may want to use blocking time if UART configured to the low speed
1418:.\Generated_Source\PSoC5/UART_OSDP_READER.c ****     *     operation
1419:.\Generated_Source\PSoC5/UART_OSDP_READER.c ****     *     Example for this case:
1420:.\Generated_Source\PSoC5/UART_OSDP_READER.c ****     *     SendBreak(0);     - initialize Break signal transmission
1421:.\Generated_Source\PSoC5/UART_OSDP_READER.c ****     *         Add your code here to use CPU time
1422:.\Generated_Source\PSoC5/UART_OSDP_READER.c ****     *     SendBreak(1);     - complete Break operation
1423:.\Generated_Source\PSoC5/UART_OSDP_READER.c ****     *  3) Same to 2) but user may want to initialize and use the interrupt to
1424:.\Generated_Source\PSoC5/UART_OSDP_READER.c ****     *     complete break operation.
1425:.\Generated_Source\PSoC5/UART_OSDP_READER.c ****     *     Example for this case:
1426:.\Generated_Source\PSoC5/UART_OSDP_READER.c ****     *     Initialize TX interrupt with "TX - On TX Complete" parameter
1427:.\Generated_Source\PSoC5/UART_OSDP_READER.c ****     *     SendBreak(0);     - initialize Break signal transmission
1428:.\Generated_Source\PSoC5/UART_OSDP_READER.c ****     *         Add your code here to use CPU time
1429:.\Generated_Source\PSoC5/UART_OSDP_READER.c ****     *     When interrupt appear with UART_OSDP_READER_TX_STS_COMPLETE status:
1430:.\Generated_Source\PSoC5/UART_OSDP_READER.c ****     *     SendBreak(2);     - complete Break operation
1431:.\Generated_Source\PSoC5/UART_OSDP_READER.c ****     *
1432:.\Generated_Source\PSoC5/UART_OSDP_READER.c ****     * Side Effects:
1433:.\Generated_Source\PSoC5/UART_OSDP_READER.c ****     *  The UART_OSDP_READER_SendBreak() function initializes registers to send a
1434:.\Generated_Source\PSoC5/UART_OSDP_READER.c ****     *  break signal.
1435:.\Generated_Source\PSoC5/UART_OSDP_READER.c ****     *  Break signal length depends on the break signal bits configuration.
1436:.\Generated_Source\PSoC5/UART_OSDP_READER.c ****     *  The register configuration should be reinitialized before normal 8-bit
1437:.\Generated_Source\PSoC5/UART_OSDP_READER.c ****     *  communication can continue.
ARM GAS  C:\Users\Yiquing\AppData\Local\Temp\ccF0cyIx.s 			page 53


1438:.\Generated_Source\PSoC5/UART_OSDP_READER.c ****     *
1439:.\Generated_Source\PSoC5/UART_OSDP_READER.c ****     *******************************************************************************/
1440:.\Generated_Source\PSoC5/UART_OSDP_READER.c ****     void UART_OSDP_READER_SendBreak(uint8 retMode) 
1441:.\Generated_Source\PSoC5/UART_OSDP_READER.c ****     {
 1521              		.loc 1 1441 0
 1522              		.cfi_startproc
 1523              		@ args = 0, pretend = 0, frame = 16
 1524              		@ frame_needed = 1, uses_anonymous_args = 0
 1525 0000 80B5     		push	{r7, lr}
 1526              		.cfi_def_cfa_offset 8
 1527              		.cfi_offset 7, -8
 1528              		.cfi_offset 14, -4
 1529 0002 84B0     		sub	sp, sp, #16
 1530              		.cfi_def_cfa_offset 24
 1531 0004 00AF     		add	r7, sp, #0
 1532              		.cfi_def_cfa_register 7
 1533 0006 0346     		mov	r3, r0
 1534 0008 FB71     		strb	r3, [r7, #7]
1442:.\Generated_Source\PSoC5/UART_OSDP_READER.c **** 
1443:.\Generated_Source\PSoC5/UART_OSDP_READER.c ****         /* If not Initialized then skip this function*/
1444:.\Generated_Source\PSoC5/UART_OSDP_READER.c ****         if(UART_OSDP_READER_initVar != 0u)
 1535              		.loc 1 1444 0
 1536 000a 214B     		ldr	r3, .L119
 1537 000c 1B78     		ldrb	r3, [r3]	@ zero_extendqisi2
 1538 000e 002B     		cmp	r3, #0
 1539 0010 3BD0     		beq	.L111
 1540              	.LBB2:
1445:.\Generated_Source\PSoC5/UART_OSDP_READER.c ****         {
1446:.\Generated_Source\PSoC5/UART_OSDP_READER.c ****             /* Set the Counter to 13-bits and transmit a 00 byte */
1447:.\Generated_Source\PSoC5/UART_OSDP_READER.c ****             /* When that is done then reset the counter value back */
1448:.\Generated_Source\PSoC5/UART_OSDP_READER.c ****             uint8 tmpStat;
1449:.\Generated_Source\PSoC5/UART_OSDP_READER.c **** 
1450:.\Generated_Source\PSoC5/UART_OSDP_READER.c ****         #if(UART_OSDP_READER_HD_ENABLED) /* Half Duplex mode*/
1451:.\Generated_Source\PSoC5/UART_OSDP_READER.c **** 
1452:.\Generated_Source\PSoC5/UART_OSDP_READER.c ****             if( (retMode == UART_OSDP_READER_SEND_BREAK) ||
 1541              		.loc 1 1452 0
 1542 0012 FB79     		ldrb	r3, [r7, #7]	@ zero_extendqisi2
 1543 0014 002B     		cmp	r3, #0
 1544 0016 02D0     		beq	.L113
 1545              		.loc 1 1452 0 is_stmt 0 discriminator 1
 1546 0018 FB79     		ldrb	r3, [r7, #7]	@ zero_extendqisi2
 1547 001a 032B     		cmp	r3, #3
 1548 001c 13D1     		bne	.L114
 1549              	.L113:
1453:.\Generated_Source\PSoC5/UART_OSDP_READER.c ****                 (retMode == UART_OSDP_READER_SEND_WAIT_REINIT ) )
1454:.\Generated_Source\PSoC5/UART_OSDP_READER.c ****             {
1455:.\Generated_Source\PSoC5/UART_OSDP_READER.c ****                 /* CTRL_HD_SEND_BREAK - sends break bits in HD mode */
1456:.\Generated_Source\PSoC5/UART_OSDP_READER.c ****                 UART_OSDP_READER_WriteControlRegister(UART_OSDP_READER_ReadControlRegister() |
 1550              		.loc 1 1456 0 is_stmt 1
 1551 001e FFF7FEFF 		bl	UART_OSDP_READER_ReadControlRegister
 1552 0022 0346     		mov	r3, r0
 1553 0024 43F00203 		orr	r3, r3, #2
 1554 0028 DBB2     		uxtb	r3, r3
 1555 002a 1846     		mov	r0, r3
 1556 002c FFF7FEFF 		bl	UART_OSDP_READER_WriteControlRegister
1457:.\Generated_Source\PSoC5/UART_OSDP_READER.c ****                                                       UART_OSDP_READER_CTRL_HD_SEND_BREAK);
1458:.\Generated_Source\PSoC5/UART_OSDP_READER.c ****                 /* Send zeros */
ARM GAS  C:\Users\Yiquing\AppData\Local\Temp\ccF0cyIx.s 			page 54


1459:.\Generated_Source\PSoC5/UART_OSDP_READER.c ****                 UART_OSDP_READER_TXDATA_REG = 0u;
 1557              		.loc 1 1459 0
 1558 0030 184B     		ldr	r3, .L119+4
 1559 0032 0022     		movs	r2, #0
 1560 0034 1A70     		strb	r2, [r3]
 1561              	.L115:
1460:.\Generated_Source\PSoC5/UART_OSDP_READER.c **** 
1461:.\Generated_Source\PSoC5/UART_OSDP_READER.c ****                 do /* Wait until transmit starts */
1462:.\Generated_Source\PSoC5/UART_OSDP_READER.c ****                 {
1463:.\Generated_Source\PSoC5/UART_OSDP_READER.c ****                     tmpStat = UART_OSDP_READER_TXSTATUS_REG;
 1562              		.loc 1 1463 0 discriminator 1
 1563 0036 184B     		ldr	r3, .L119+8
 1564 0038 1B78     		ldrb	r3, [r3]
 1565 003a FB73     		strb	r3, [r7, #15]
1464:.\Generated_Source\PSoC5/UART_OSDP_READER.c ****                 }
1465:.\Generated_Source\PSoC5/UART_OSDP_READER.c ****                 while((tmpStat & UART_OSDP_READER_TX_STS_FIFO_EMPTY) != 0u);
 1566              		.loc 1 1465 0 discriminator 1
 1567 003c FB7B     		ldrb	r3, [r7, #15]	@ zero_extendqisi2
 1568 003e 03F00203 		and	r3, r3, #2
 1569 0042 002B     		cmp	r3, #0
 1570 0044 F7D1     		bne	.L115
 1571              	.L114:
1466:.\Generated_Source\PSoC5/UART_OSDP_READER.c ****             }
1467:.\Generated_Source\PSoC5/UART_OSDP_READER.c **** 
1468:.\Generated_Source\PSoC5/UART_OSDP_READER.c ****             if( (retMode == UART_OSDP_READER_WAIT_FOR_COMPLETE_REINIT) ||
 1572              		.loc 1 1468 0
 1573 0046 FB79     		ldrb	r3, [r7, #7]	@ zero_extendqisi2
 1574 0048 012B     		cmp	r3, #1
 1575 004a 02D0     		beq	.L116
 1576              		.loc 1 1468 0 is_stmt 0 discriminator 1
 1577 004c FB79     		ldrb	r3, [r7, #7]	@ zero_extendqisi2
 1578 004e 032B     		cmp	r3, #3
 1579 0050 09D1     		bne	.L117
 1580              	.L116:
1469:.\Generated_Source\PSoC5/UART_OSDP_READER.c ****                 (retMode == UART_OSDP_READER_SEND_WAIT_REINIT) )
1470:.\Generated_Source\PSoC5/UART_OSDP_READER.c ****             {
1471:.\Generated_Source\PSoC5/UART_OSDP_READER.c ****                 do /* Wait until transmit complete */
1472:.\Generated_Source\PSoC5/UART_OSDP_READER.c ****                 {
1473:.\Generated_Source\PSoC5/UART_OSDP_READER.c ****                     tmpStat = UART_OSDP_READER_TXSTATUS_REG;
 1581              		.loc 1 1473 0 is_stmt 1 discriminator 1
 1582 0052 114B     		ldr	r3, .L119+8
 1583 0054 1B78     		ldrb	r3, [r3]
 1584 0056 FB73     		strb	r3, [r7, #15]
1474:.\Generated_Source\PSoC5/UART_OSDP_READER.c ****                 }
1475:.\Generated_Source\PSoC5/UART_OSDP_READER.c ****                 while(((uint8)~tmpStat & UART_OSDP_READER_TX_STS_COMPLETE) != 0u);
 1585              		.loc 1 1475 0 discriminator 1
 1586 0058 FB7B     		ldrb	r3, [r7, #15]
 1587 005a DB43     		mvns	r3, r3
 1588 005c DBB2     		uxtb	r3, r3
 1589 005e 03F00103 		and	r3, r3, #1
 1590 0062 002B     		cmp	r3, #0
 1591 0064 F5D1     		bne	.L116
 1592              	.L117:
1476:.\Generated_Source\PSoC5/UART_OSDP_READER.c ****             }
1477:.\Generated_Source\PSoC5/UART_OSDP_READER.c **** 
1478:.\Generated_Source\PSoC5/UART_OSDP_READER.c ****             if( (retMode == UART_OSDP_READER_WAIT_FOR_COMPLETE_REINIT) ||
 1593              		.loc 1 1478 0
ARM GAS  C:\Users\Yiquing\AppData\Local\Temp\ccF0cyIx.s 			page 55


 1594 0066 FB79     		ldrb	r3, [r7, #7]	@ zero_extendqisi2
 1595 0068 012B     		cmp	r3, #1
 1596 006a 05D0     		beq	.L118
 1597              		.loc 1 1478 0 is_stmt 0 discriminator 1
 1598 006c FB79     		ldrb	r3, [r7, #7]	@ zero_extendqisi2
 1599 006e 022B     		cmp	r3, #2
 1600 0070 02D0     		beq	.L118
1479:.\Generated_Source\PSoC5/UART_OSDP_READER.c ****                 (retMode == UART_OSDP_READER_REINIT) ||
 1601              		.loc 1 1479 0 is_stmt 1
 1602 0072 FB79     		ldrb	r3, [r7, #7]	@ zero_extendqisi2
 1603 0074 032B     		cmp	r3, #3
 1604 0076 08D1     		bne	.L111
 1605              	.L118:
1480:.\Generated_Source\PSoC5/UART_OSDP_READER.c ****                 (retMode == UART_OSDP_READER_SEND_WAIT_REINIT) )
1481:.\Generated_Source\PSoC5/UART_OSDP_READER.c ****             {
1482:.\Generated_Source\PSoC5/UART_OSDP_READER.c ****                 UART_OSDP_READER_WriteControlRegister(UART_OSDP_READER_ReadControlRegister() &
 1606              		.loc 1 1482 0
 1607 0078 FFF7FEFF 		bl	UART_OSDP_READER_ReadControlRegister
 1608 007c 0346     		mov	r3, r0
 1609 007e 23F00203 		bic	r3, r3, #2
 1610 0082 DBB2     		uxtb	r3, r3
 1611 0084 1846     		mov	r0, r3
 1612 0086 FFF7FEFF 		bl	UART_OSDP_READER_WriteControlRegister
 1613              	.L111:
 1614              	.LBE2:
1483:.\Generated_Source\PSoC5/UART_OSDP_READER.c ****                                               (uint8)~UART_OSDP_READER_CTRL_HD_SEND_BREAK);
1484:.\Generated_Source\PSoC5/UART_OSDP_READER.c ****             }
1485:.\Generated_Source\PSoC5/UART_OSDP_READER.c **** 
1486:.\Generated_Source\PSoC5/UART_OSDP_READER.c ****         #else /* UART_OSDP_READER_HD_ENABLED Full Duplex mode */
1487:.\Generated_Source\PSoC5/UART_OSDP_READER.c **** 
1488:.\Generated_Source\PSoC5/UART_OSDP_READER.c ****             static uint8 txPeriod;
1489:.\Generated_Source\PSoC5/UART_OSDP_READER.c **** 
1490:.\Generated_Source\PSoC5/UART_OSDP_READER.c ****             if( (retMode == UART_OSDP_READER_SEND_BREAK) ||
1491:.\Generated_Source\PSoC5/UART_OSDP_READER.c ****                 (retMode == UART_OSDP_READER_SEND_WAIT_REINIT) )
1492:.\Generated_Source\PSoC5/UART_OSDP_READER.c ****             {
1493:.\Generated_Source\PSoC5/UART_OSDP_READER.c ****                 /* CTRL_HD_SEND_BREAK - skip to send parity bit at Break signal in Full Duplex mode
1494:.\Generated_Source\PSoC5/UART_OSDP_READER.c ****                 #if( (UART_OSDP_READER_PARITY_TYPE != UART_OSDP_READER__B_UART__NONE_REVB) || \
1495:.\Generated_Source\PSoC5/UART_OSDP_READER.c ****                                     (UART_OSDP_READER_PARITY_TYPE_SW != 0u) )
1496:.\Generated_Source\PSoC5/UART_OSDP_READER.c ****                     UART_OSDP_READER_WriteControlRegister(UART_OSDP_READER_ReadControlRegister() |
1497:.\Generated_Source\PSoC5/UART_OSDP_READER.c ****                                                           UART_OSDP_READER_CTRL_HD_SEND_BREAK);
1498:.\Generated_Source\PSoC5/UART_OSDP_READER.c ****                 #endif /* End UART_OSDP_READER_PARITY_TYPE != UART_OSDP_READER__B_UART__NONE_REVB  
1499:.\Generated_Source\PSoC5/UART_OSDP_READER.c **** 
1500:.\Generated_Source\PSoC5/UART_OSDP_READER.c ****                 #if(UART_OSDP_READER_TXCLKGEN_DP)
1501:.\Generated_Source\PSoC5/UART_OSDP_READER.c ****                     txPeriod = UART_OSDP_READER_TXBITCLKTX_COMPLETE_REG;
1502:.\Generated_Source\PSoC5/UART_OSDP_READER.c ****                     UART_OSDP_READER_TXBITCLKTX_COMPLETE_REG = UART_OSDP_READER_TXBITCTR_BREAKBITS;
1503:.\Generated_Source\PSoC5/UART_OSDP_READER.c ****                 #else
1504:.\Generated_Source\PSoC5/UART_OSDP_READER.c ****                     txPeriod = UART_OSDP_READER_TXBITCTR_PERIOD_REG;
1505:.\Generated_Source\PSoC5/UART_OSDP_READER.c ****                     UART_OSDP_READER_TXBITCTR_PERIOD_REG = UART_OSDP_READER_TXBITCTR_BREAKBITS8X;
1506:.\Generated_Source\PSoC5/UART_OSDP_READER.c ****                 #endif /* End UART_OSDP_READER_TXCLKGEN_DP */
1507:.\Generated_Source\PSoC5/UART_OSDP_READER.c **** 
1508:.\Generated_Source\PSoC5/UART_OSDP_READER.c ****                 /* Send zeros */
1509:.\Generated_Source\PSoC5/UART_OSDP_READER.c ****                 UART_OSDP_READER_TXDATA_REG = 0u;
1510:.\Generated_Source\PSoC5/UART_OSDP_READER.c **** 
1511:.\Generated_Source\PSoC5/UART_OSDP_READER.c ****                 do /* Wait until transmit starts */
1512:.\Generated_Source\PSoC5/UART_OSDP_READER.c ****                 {
1513:.\Generated_Source\PSoC5/UART_OSDP_READER.c ****                     tmpStat = UART_OSDP_READER_TXSTATUS_REG;
1514:.\Generated_Source\PSoC5/UART_OSDP_READER.c ****                 }
ARM GAS  C:\Users\Yiquing\AppData\Local\Temp\ccF0cyIx.s 			page 56


1515:.\Generated_Source\PSoC5/UART_OSDP_READER.c ****                 while((tmpStat & UART_OSDP_READER_TX_STS_FIFO_EMPTY) != 0u);
1516:.\Generated_Source\PSoC5/UART_OSDP_READER.c ****             }
1517:.\Generated_Source\PSoC5/UART_OSDP_READER.c **** 
1518:.\Generated_Source\PSoC5/UART_OSDP_READER.c ****             if( (retMode == UART_OSDP_READER_WAIT_FOR_COMPLETE_REINIT) ||
1519:.\Generated_Source\PSoC5/UART_OSDP_READER.c ****                 (retMode == UART_OSDP_READER_SEND_WAIT_REINIT) )
1520:.\Generated_Source\PSoC5/UART_OSDP_READER.c ****             {
1521:.\Generated_Source\PSoC5/UART_OSDP_READER.c ****                 do /* Wait until transmit complete */
1522:.\Generated_Source\PSoC5/UART_OSDP_READER.c ****                 {
1523:.\Generated_Source\PSoC5/UART_OSDP_READER.c ****                     tmpStat = UART_OSDP_READER_TXSTATUS_REG;
1524:.\Generated_Source\PSoC5/UART_OSDP_READER.c ****                 }
1525:.\Generated_Source\PSoC5/UART_OSDP_READER.c ****                 while(((uint8)~tmpStat & UART_OSDP_READER_TX_STS_COMPLETE) != 0u);
1526:.\Generated_Source\PSoC5/UART_OSDP_READER.c ****             }
1527:.\Generated_Source\PSoC5/UART_OSDP_READER.c **** 
1528:.\Generated_Source\PSoC5/UART_OSDP_READER.c ****             if( (retMode == UART_OSDP_READER_WAIT_FOR_COMPLETE_REINIT) ||
1529:.\Generated_Source\PSoC5/UART_OSDP_READER.c ****                 (retMode == UART_OSDP_READER_REINIT) ||
1530:.\Generated_Source\PSoC5/UART_OSDP_READER.c ****                 (retMode == UART_OSDP_READER_SEND_WAIT_REINIT) )
1531:.\Generated_Source\PSoC5/UART_OSDP_READER.c ****             {
1532:.\Generated_Source\PSoC5/UART_OSDP_READER.c **** 
1533:.\Generated_Source\PSoC5/UART_OSDP_READER.c ****             #if(UART_OSDP_READER_TXCLKGEN_DP)
1534:.\Generated_Source\PSoC5/UART_OSDP_READER.c ****                 UART_OSDP_READER_TXBITCLKTX_COMPLETE_REG = txPeriod;
1535:.\Generated_Source\PSoC5/UART_OSDP_READER.c ****             #else
1536:.\Generated_Source\PSoC5/UART_OSDP_READER.c ****                 UART_OSDP_READER_TXBITCTR_PERIOD_REG = txPeriod;
1537:.\Generated_Source\PSoC5/UART_OSDP_READER.c ****             #endif /* End UART_OSDP_READER_TXCLKGEN_DP */
1538:.\Generated_Source\PSoC5/UART_OSDP_READER.c **** 
1539:.\Generated_Source\PSoC5/UART_OSDP_READER.c ****             #if( (UART_OSDP_READER_PARITY_TYPE != UART_OSDP_READER__B_UART__NONE_REVB) || \
1540:.\Generated_Source\PSoC5/UART_OSDP_READER.c ****                  (UART_OSDP_READER_PARITY_TYPE_SW != 0u) )
1541:.\Generated_Source\PSoC5/UART_OSDP_READER.c ****                 UART_OSDP_READER_WriteControlRegister(UART_OSDP_READER_ReadControlRegister() &
1542:.\Generated_Source\PSoC5/UART_OSDP_READER.c ****                                                       (uint8) ~UART_OSDP_READER_CTRL_HD_SEND_BREAK)
1543:.\Generated_Source\PSoC5/UART_OSDP_READER.c ****             #endif /* End UART_OSDP_READER_PARITY_TYPE != NONE */
1544:.\Generated_Source\PSoC5/UART_OSDP_READER.c ****             }
1545:.\Generated_Source\PSoC5/UART_OSDP_READER.c ****         #endif    /* End UART_OSDP_READER_HD_ENABLED */
1546:.\Generated_Source\PSoC5/UART_OSDP_READER.c ****         }
1547:.\Generated_Source\PSoC5/UART_OSDP_READER.c ****     }
 1615              		.loc 1 1547 0
 1616 008a 1037     		adds	r7, r7, #16
 1617 008c BD46     		mov	sp, r7
 1618              		@ sp needed
 1619 008e 80BD     		pop	{r7, pc}
 1620              	.L120:
 1621              		.align	2
 1622              	.L119:
 1623 0090 00000000 		.word	UART_OSDP_READER_initVar
 1624 0094 57640040 		.word	1073767511
 1625 0098 67640040 		.word	1073767527
 1626              		.cfi_endproc
 1627              	.LFE25:
 1628              		.size	UART_OSDP_READER_SendBreak, .-UART_OSDP_READER_SendBreak
 1629              		.section	.text.UART_OSDP_READER_SetTxAddressMode,"ax",%progbits
 1630              		.align	2
 1631              		.global	UART_OSDP_READER_SetTxAddressMode
 1632              		.thumb
 1633              		.thumb_func
 1634              		.type	UART_OSDP_READER_SetTxAddressMode, %function
 1635              	UART_OSDP_READER_SetTxAddressMode:
 1636              	.LFB26:
1548:.\Generated_Source\PSoC5/UART_OSDP_READER.c **** 
1549:.\Generated_Source\PSoC5/UART_OSDP_READER.c **** 
ARM GAS  C:\Users\Yiquing\AppData\Local\Temp\ccF0cyIx.s 			page 57


1550:.\Generated_Source\PSoC5/UART_OSDP_READER.c ****     /*******************************************************************************
1551:.\Generated_Source\PSoC5/UART_OSDP_READER.c ****     * Function Name: UART_OSDP_READER_SetTxAddressMode
1552:.\Generated_Source\PSoC5/UART_OSDP_READER.c ****     ********************************************************************************
1553:.\Generated_Source\PSoC5/UART_OSDP_READER.c ****     *
1554:.\Generated_Source\PSoC5/UART_OSDP_READER.c ****     * Summary:
1555:.\Generated_Source\PSoC5/UART_OSDP_READER.c ****     *  Configures the transmitter to signal the next bytes is address or data.
1556:.\Generated_Source\PSoC5/UART_OSDP_READER.c ****     *
1557:.\Generated_Source\PSoC5/UART_OSDP_READER.c ****     * Parameters:
1558:.\Generated_Source\PSoC5/UART_OSDP_READER.c ****     *  addressMode: 
1559:.\Generated_Source\PSoC5/UART_OSDP_READER.c ****     *       UART_OSDP_READER_SET_SPACE - Configure the transmitter to send the next
1560:.\Generated_Source\PSoC5/UART_OSDP_READER.c ****     *                                    byte as a data.
1561:.\Generated_Source\PSoC5/UART_OSDP_READER.c ****     *       UART_OSDP_READER_SET_MARK  - Configure the transmitter to send the next
1562:.\Generated_Source\PSoC5/UART_OSDP_READER.c ****     *                                    byte as an address.
1563:.\Generated_Source\PSoC5/UART_OSDP_READER.c ****     *
1564:.\Generated_Source\PSoC5/UART_OSDP_READER.c ****     * Return:
1565:.\Generated_Source\PSoC5/UART_OSDP_READER.c ****     *  None.
1566:.\Generated_Source\PSoC5/UART_OSDP_READER.c ****     *
1567:.\Generated_Source\PSoC5/UART_OSDP_READER.c ****     * Side Effects:
1568:.\Generated_Source\PSoC5/UART_OSDP_READER.c ****     *  This function sets and clears UART_OSDP_READER_CTRL_MARK bit in the Control
1569:.\Generated_Source\PSoC5/UART_OSDP_READER.c ****     *  register.
1570:.\Generated_Source\PSoC5/UART_OSDP_READER.c ****     *
1571:.\Generated_Source\PSoC5/UART_OSDP_READER.c ****     *******************************************************************************/
1572:.\Generated_Source\PSoC5/UART_OSDP_READER.c ****     void UART_OSDP_READER_SetTxAddressMode(uint8 addressMode) 
1573:.\Generated_Source\PSoC5/UART_OSDP_READER.c ****     {
 1637              		.loc 1 1573 0
 1638              		.cfi_startproc
 1639              		@ args = 0, pretend = 0, frame = 8
 1640              		@ frame_needed = 1, uses_anonymous_args = 0
 1641 0000 80B5     		push	{r7, lr}
 1642              		.cfi_def_cfa_offset 8
 1643              		.cfi_offset 7, -8
 1644              		.cfi_offset 14, -4
 1645 0002 82B0     		sub	sp, sp, #8
 1646              		.cfi_def_cfa_offset 16
 1647 0004 00AF     		add	r7, sp, #0
 1648              		.cfi_def_cfa_register 7
 1649 0006 0346     		mov	r3, r0
 1650 0008 FB71     		strb	r3, [r7, #7]
1574:.\Generated_Source\PSoC5/UART_OSDP_READER.c ****         /* Mark/Space sending enable */
1575:.\Generated_Source\PSoC5/UART_OSDP_READER.c ****         if(addressMode != 0u)
 1651              		.loc 1 1575 0
 1652 000a FB79     		ldrb	r3, [r7, #7]	@ zero_extendqisi2
 1653 000c 002B     		cmp	r3, #0
 1654 000e 09D0     		beq	.L122
1576:.\Generated_Source\PSoC5/UART_OSDP_READER.c ****         {
1577:.\Generated_Source\PSoC5/UART_OSDP_READER.c ****         #if( UART_OSDP_READER_CONTROL_REG_REMOVED == 0u )
1578:.\Generated_Source\PSoC5/UART_OSDP_READER.c ****             UART_OSDP_READER_WriteControlRegister(UART_OSDP_READER_ReadControlRegister() |
 1655              		.loc 1 1578 0
 1656 0010 FFF7FEFF 		bl	UART_OSDP_READER_ReadControlRegister
 1657 0014 0346     		mov	r3, r0
 1658 0016 43F00403 		orr	r3, r3, #4
 1659 001a DBB2     		uxtb	r3, r3
 1660 001c 1846     		mov	r0, r3
 1661 001e FFF7FEFF 		bl	UART_OSDP_READER_WriteControlRegister
 1662 0022 08E0     		b	.L121
 1663              	.L122:
1579:.\Generated_Source\PSoC5/UART_OSDP_READER.c ****                                                   UART_OSDP_READER_CTRL_MARK);
ARM GAS  C:\Users\Yiquing\AppData\Local\Temp\ccF0cyIx.s 			page 58


1580:.\Generated_Source\PSoC5/UART_OSDP_READER.c ****         #endif /* End UART_OSDP_READER_CONTROL_REG_REMOVED == 0u */
1581:.\Generated_Source\PSoC5/UART_OSDP_READER.c ****         }
1582:.\Generated_Source\PSoC5/UART_OSDP_READER.c ****         else
1583:.\Generated_Source\PSoC5/UART_OSDP_READER.c ****         {
1584:.\Generated_Source\PSoC5/UART_OSDP_READER.c ****         #if( UART_OSDP_READER_CONTROL_REG_REMOVED == 0u )
1585:.\Generated_Source\PSoC5/UART_OSDP_READER.c ****             UART_OSDP_READER_WriteControlRegister(UART_OSDP_READER_ReadControlRegister() &
 1664              		.loc 1 1585 0
 1665 0024 FFF7FEFF 		bl	UART_OSDP_READER_ReadControlRegister
 1666 0028 0346     		mov	r3, r0
 1667 002a 23F00403 		bic	r3, r3, #4
 1668 002e DBB2     		uxtb	r3, r3
 1669 0030 1846     		mov	r0, r3
 1670 0032 FFF7FEFF 		bl	UART_OSDP_READER_WriteControlRegister
 1671              	.L121:
1586:.\Generated_Source\PSoC5/UART_OSDP_READER.c ****                                                   (uint8) ~UART_OSDP_READER_CTRL_MARK);
1587:.\Generated_Source\PSoC5/UART_OSDP_READER.c ****         #endif /* End UART_OSDP_READER_CONTROL_REG_REMOVED == 0u */
1588:.\Generated_Source\PSoC5/UART_OSDP_READER.c ****         }
1589:.\Generated_Source\PSoC5/UART_OSDP_READER.c ****     }
 1672              		.loc 1 1589 0
 1673 0036 0837     		adds	r7, r7, #8
 1674 0038 BD46     		mov	sp, r7
 1675              		@ sp needed
 1676 003a 80BD     		pop	{r7, pc}
 1677              		.cfi_endproc
 1678              	.LFE26:
 1679              		.size	UART_OSDP_READER_SetTxAddressMode, .-UART_OSDP_READER_SetTxAddressMode
 1680              		.section	.text.UART_OSDP_READER_LoadRxConfig,"ax",%progbits
 1681              		.align	2
 1682              		.global	UART_OSDP_READER_LoadRxConfig
 1683              		.thumb
 1684              		.thumb_func
 1685              		.type	UART_OSDP_READER_LoadRxConfig, %function
 1686              	UART_OSDP_READER_LoadRxConfig:
 1687              	.LFB27:
1590:.\Generated_Source\PSoC5/UART_OSDP_READER.c **** 
1591:.\Generated_Source\PSoC5/UART_OSDP_READER.c **** #endif  /* EndUART_OSDP_READER_TX_ENABLED */
1592:.\Generated_Source\PSoC5/UART_OSDP_READER.c **** 
1593:.\Generated_Source\PSoC5/UART_OSDP_READER.c **** #if(UART_OSDP_READER_HD_ENABLED)
1594:.\Generated_Source\PSoC5/UART_OSDP_READER.c **** 
1595:.\Generated_Source\PSoC5/UART_OSDP_READER.c **** 
1596:.\Generated_Source\PSoC5/UART_OSDP_READER.c ****     /*******************************************************************************
1597:.\Generated_Source\PSoC5/UART_OSDP_READER.c ****     * Function Name: UART_OSDP_READER_LoadRxConfig
1598:.\Generated_Source\PSoC5/UART_OSDP_READER.c ****     ********************************************************************************
1599:.\Generated_Source\PSoC5/UART_OSDP_READER.c ****     *
1600:.\Generated_Source\PSoC5/UART_OSDP_READER.c ****     * Summary:
1601:.\Generated_Source\PSoC5/UART_OSDP_READER.c ****     *  Loads the receiver configuration in half duplex mode. After calling this
1602:.\Generated_Source\PSoC5/UART_OSDP_READER.c ****     *  function, the UART is ready to receive data.
1603:.\Generated_Source\PSoC5/UART_OSDP_READER.c ****     *
1604:.\Generated_Source\PSoC5/UART_OSDP_READER.c ****     * Parameters:
1605:.\Generated_Source\PSoC5/UART_OSDP_READER.c ****     *  None.
1606:.\Generated_Source\PSoC5/UART_OSDP_READER.c ****     *
1607:.\Generated_Source\PSoC5/UART_OSDP_READER.c ****     * Return:
1608:.\Generated_Source\PSoC5/UART_OSDP_READER.c ****     *  None.
1609:.\Generated_Source\PSoC5/UART_OSDP_READER.c ****     *
1610:.\Generated_Source\PSoC5/UART_OSDP_READER.c ****     * Side Effects:
1611:.\Generated_Source\PSoC5/UART_OSDP_READER.c ****     *  Valid only in half duplex mode. You must make sure that the previous
1612:.\Generated_Source\PSoC5/UART_OSDP_READER.c ****     *  transaction is complete and it is safe to unload the transmitter
ARM GAS  C:\Users\Yiquing\AppData\Local\Temp\ccF0cyIx.s 			page 59


1613:.\Generated_Source\PSoC5/UART_OSDP_READER.c ****     *  configuration.
1614:.\Generated_Source\PSoC5/UART_OSDP_READER.c ****     *
1615:.\Generated_Source\PSoC5/UART_OSDP_READER.c ****     *******************************************************************************/
1616:.\Generated_Source\PSoC5/UART_OSDP_READER.c ****     void UART_OSDP_READER_LoadRxConfig(void) 
1617:.\Generated_Source\PSoC5/UART_OSDP_READER.c ****     {
 1688              		.loc 1 1617 0
 1689              		.cfi_startproc
 1690              		@ args = 0, pretend = 0, frame = 0
 1691              		@ frame_needed = 1, uses_anonymous_args = 0
 1692 0000 80B5     		push	{r7, lr}
 1693              		.cfi_def_cfa_offset 8
 1694              		.cfi_offset 7, -8
 1695              		.cfi_offset 14, -4
 1696 0002 00AF     		add	r7, sp, #0
 1697              		.cfi_def_cfa_register 7
1618:.\Generated_Source\PSoC5/UART_OSDP_READER.c ****         UART_OSDP_READER_WriteControlRegister(UART_OSDP_READER_ReadControlRegister() &
 1698              		.loc 1 1618 0
 1699 0004 FFF7FEFF 		bl	UART_OSDP_READER_ReadControlRegister
 1700 0008 0346     		mov	r3, r0
 1701 000a 23F00103 		bic	r3, r3, #1
 1702 000e DBB2     		uxtb	r3, r3
 1703 0010 1846     		mov	r0, r3
 1704 0012 FFF7FEFF 		bl	UART_OSDP_READER_WriteControlRegister
1619:.\Generated_Source\PSoC5/UART_OSDP_READER.c ****                                                 (uint8)~UART_OSDP_READER_CTRL_HD_SEND);
1620:.\Generated_Source\PSoC5/UART_OSDP_READER.c ****         UART_OSDP_READER_RXBITCTR_PERIOD_REG = UART_OSDP_READER_HD_RXBITCTR_INIT;
 1705              		.loc 1 1620 0
 1706 0016 034B     		ldr	r3, .L125
 1707 0018 7222     		movs	r2, #114
 1708 001a 1A70     		strb	r2, [r3]
1621:.\Generated_Source\PSoC5/UART_OSDP_READER.c **** 
1622:.\Generated_Source\PSoC5/UART_OSDP_READER.c ****     #if (UART_OSDP_READER_RX_INTERRUPT_ENABLED)
1623:.\Generated_Source\PSoC5/UART_OSDP_READER.c ****         /* Enable RX interrupt after set RX configuration */
1624:.\Generated_Source\PSoC5/UART_OSDP_READER.c ****         UART_OSDP_READER_SetRxInterruptMode(UART_OSDP_READER_INIT_RX_INTERRUPTS_MASK);
 1709              		.loc 1 1624 0
 1710 001c 2020     		movs	r0, #32
 1711 001e FFF7FEFF 		bl	UART_OSDP_READER_SetRxInterruptMode
1625:.\Generated_Source\PSoC5/UART_OSDP_READER.c ****     #endif /* (UART_OSDP_READER_RX_INTERRUPT_ENABLED) */
1626:.\Generated_Source\PSoC5/UART_OSDP_READER.c ****     }
 1712              		.loc 1 1626 0
 1713 0022 80BD     		pop	{r7, pc}
 1714              	.L126:
 1715              		.align	2
 1716              	.L125:
 1717 0024 85650040 		.word	1073767813
 1718              		.cfi_endproc
 1719              	.LFE27:
 1720              		.size	UART_OSDP_READER_LoadRxConfig, .-UART_OSDP_READER_LoadRxConfig
 1721              		.section	.text.UART_OSDP_READER_LoadTxConfig,"ax",%progbits
 1722              		.align	2
 1723              		.global	UART_OSDP_READER_LoadTxConfig
 1724              		.thumb
 1725              		.thumb_func
 1726              		.type	UART_OSDP_READER_LoadTxConfig, %function
 1727              	UART_OSDP_READER_LoadTxConfig:
 1728              	.LFB28:
1627:.\Generated_Source\PSoC5/UART_OSDP_READER.c **** 
1628:.\Generated_Source\PSoC5/UART_OSDP_READER.c **** 
ARM GAS  C:\Users\Yiquing\AppData\Local\Temp\ccF0cyIx.s 			page 60


1629:.\Generated_Source\PSoC5/UART_OSDP_READER.c ****     /*******************************************************************************
1630:.\Generated_Source\PSoC5/UART_OSDP_READER.c ****     * Function Name: UART_OSDP_READER_LoadTxConfig
1631:.\Generated_Source\PSoC5/UART_OSDP_READER.c ****     ********************************************************************************
1632:.\Generated_Source\PSoC5/UART_OSDP_READER.c ****     *
1633:.\Generated_Source\PSoC5/UART_OSDP_READER.c ****     * Summary:
1634:.\Generated_Source\PSoC5/UART_OSDP_READER.c ****     *  Loads the transmitter configuration in half duplex mode. After calling this
1635:.\Generated_Source\PSoC5/UART_OSDP_READER.c ****     *  function, the UART is ready to transmit data.
1636:.\Generated_Source\PSoC5/UART_OSDP_READER.c ****     *
1637:.\Generated_Source\PSoC5/UART_OSDP_READER.c ****     * Parameters:
1638:.\Generated_Source\PSoC5/UART_OSDP_READER.c ****     *  None.
1639:.\Generated_Source\PSoC5/UART_OSDP_READER.c ****     *
1640:.\Generated_Source\PSoC5/UART_OSDP_READER.c ****     * Return:
1641:.\Generated_Source\PSoC5/UART_OSDP_READER.c ****     *  None.
1642:.\Generated_Source\PSoC5/UART_OSDP_READER.c ****     *
1643:.\Generated_Source\PSoC5/UART_OSDP_READER.c ****     * Side Effects:
1644:.\Generated_Source\PSoC5/UART_OSDP_READER.c ****     *  Valid only in half duplex mode. You must make sure that the previous
1645:.\Generated_Source\PSoC5/UART_OSDP_READER.c ****     *  transaction is complete and it is safe to unload the receiver configuration.
1646:.\Generated_Source\PSoC5/UART_OSDP_READER.c ****     *
1647:.\Generated_Source\PSoC5/UART_OSDP_READER.c ****     *******************************************************************************/
1648:.\Generated_Source\PSoC5/UART_OSDP_READER.c ****     void UART_OSDP_READER_LoadTxConfig(void) 
1649:.\Generated_Source\PSoC5/UART_OSDP_READER.c ****     {
 1729              		.loc 1 1649 0
 1730              		.cfi_startproc
 1731              		@ args = 0, pretend = 0, frame = 0
 1732              		@ frame_needed = 1, uses_anonymous_args = 0
 1733 0000 80B5     		push	{r7, lr}
 1734              		.cfi_def_cfa_offset 8
 1735              		.cfi_offset 7, -8
 1736              		.cfi_offset 14, -4
 1737 0002 00AF     		add	r7, sp, #0
 1738              		.cfi_def_cfa_register 7
1650:.\Generated_Source\PSoC5/UART_OSDP_READER.c ****     #if (UART_OSDP_READER_RX_INTERRUPT_ENABLED)
1651:.\Generated_Source\PSoC5/UART_OSDP_READER.c ****         /* Disable RX interrupts before set TX configuration */
1652:.\Generated_Source\PSoC5/UART_OSDP_READER.c ****         UART_OSDP_READER_SetRxInterruptMode(0u);
 1739              		.loc 1 1652 0
 1740 0004 0020     		movs	r0, #0
 1741 0006 FFF7FEFF 		bl	UART_OSDP_READER_SetRxInterruptMode
1653:.\Generated_Source\PSoC5/UART_OSDP_READER.c ****     #endif /* (UART_OSDP_READER_RX_INTERRUPT_ENABLED) */
1654:.\Generated_Source\PSoC5/UART_OSDP_READER.c **** 
1655:.\Generated_Source\PSoC5/UART_OSDP_READER.c ****         UART_OSDP_READER_WriteControlRegister(UART_OSDP_READER_ReadControlRegister() | UART_OSDP_RE
 1742              		.loc 1 1655 0
 1743 000a FFF7FEFF 		bl	UART_OSDP_READER_ReadControlRegister
 1744 000e 0346     		mov	r3, r0
 1745 0010 43F00103 		orr	r3, r3, #1
 1746 0014 DBB2     		uxtb	r3, r3
 1747 0016 1846     		mov	r0, r3
 1748 0018 FFF7FEFF 		bl	UART_OSDP_READER_WriteControlRegister
1656:.\Generated_Source\PSoC5/UART_OSDP_READER.c ****         UART_OSDP_READER_RXBITCTR_PERIOD_REG = UART_OSDP_READER_HD_TXBITCTR_INIT;
 1749              		.loc 1 1656 0
 1750 001c 014B     		ldr	r3, .L128
 1751 001e 6F22     		movs	r2, #111
 1752 0020 1A70     		strb	r2, [r3]
1657:.\Generated_Source\PSoC5/UART_OSDP_READER.c ****     }
 1753              		.loc 1 1657 0
 1754 0022 80BD     		pop	{r7, pc}
 1755              	.L129:
 1756              		.align	2
ARM GAS  C:\Users\Yiquing\AppData\Local\Temp\ccF0cyIx.s 			page 61


 1757              	.L128:
 1758 0024 85650040 		.word	1073767813
 1759              		.cfi_endproc
 1760              	.LFE28:
 1761              		.size	UART_OSDP_READER_LoadTxConfig, .-UART_OSDP_READER_LoadTxConfig
 1762              		.text
 1763              	.Letext0:
 1764              		.file 2 ".\\Generated_Source\\PSoC5\\cytypes.h"
 1765              		.section	.debug_info,"",%progbits
 1766              	.Ldebug_info0:
 1767 0000 F5050000 		.4byte	0x5f5
 1768 0004 0400     		.2byte	0x4
 1769 0006 00000000 		.4byte	.Ldebug_abbrev0
 1770 000a 04       		.byte	0x4
 1771 000b 01       		.uleb128 0x1
 1772 000c DA030000 		.4byte	.LASF73
 1773 0010 01       		.byte	0x1
 1774 0011 38020000 		.4byte	.LASF74
 1775 0015 07000000 		.4byte	.LASF75
 1776 0019 00000000 		.4byte	.Ldebug_ranges0+0
 1777 001d 00000000 		.4byte	0
 1778 0021 00000000 		.4byte	.Ldebug_line0
 1779 0025 02       		.uleb128 0x2
 1780 0026 01       		.byte	0x1
 1781 0027 06       		.byte	0x6
 1782 0028 87010000 		.4byte	.LASF0
 1783 002c 02       		.uleb128 0x2
 1784 002d 01       		.byte	0x1
 1785 002e 08       		.byte	0x8
 1786 002f B5040000 		.4byte	.LASF1
 1787 0033 02       		.uleb128 0x2
 1788 0034 02       		.byte	0x2
 1789 0035 05       		.byte	0x5
 1790 0036 E8040000 		.4byte	.LASF2
 1791 003a 02       		.uleb128 0x2
 1792 003b 02       		.byte	0x2
 1793 003c 07       		.byte	0x7
 1794 003d DC020000 		.4byte	.LASF3
 1795 0041 02       		.uleb128 0x2
 1796 0042 04       		.byte	0x4
 1797 0043 05       		.byte	0x5
 1798 0044 B2010000 		.4byte	.LASF4
 1799 0048 02       		.uleb128 0x2
 1800 0049 04       		.byte	0x4
 1801 004a 07       		.byte	0x7
 1802 004b AC020000 		.4byte	.LASF5
 1803 004f 02       		.uleb128 0x2
 1804 0050 08       		.byte	0x8
 1805 0051 05       		.byte	0x5
 1806 0052 79010000 		.4byte	.LASF6
 1807 0056 02       		.uleb128 0x2
 1808 0057 08       		.byte	0x8
 1809 0058 07       		.byte	0x7
 1810 0059 FC000000 		.4byte	.LASF7
 1811 005d 03       		.uleb128 0x3
 1812 005e 04       		.byte	0x4
 1813 005f 05       		.byte	0x5
ARM GAS  C:\Users\Yiquing\AppData\Local\Temp\ccF0cyIx.s 			page 62


 1814 0060 696E7400 		.ascii	"int\000"
 1815 0064 02       		.uleb128 0x2
 1816 0065 04       		.byte	0x4
 1817 0066 07       		.byte	0x7
 1818 0067 90020000 		.4byte	.LASF8
 1819 006b 04       		.uleb128 0x4
 1820 006c F3010000 		.4byte	.LASF9
 1821 0070 02       		.byte	0x2
 1822 0071 B3       		.byte	0xb3
 1823 0072 2C000000 		.4byte	0x2c
 1824 0076 04       		.uleb128 0x4
 1825 0077 00000000 		.4byte	.LASF10
 1826 007b 02       		.byte	0x2
 1827 007c B4       		.byte	0xb4
 1828 007d 3A000000 		.4byte	0x3a
 1829 0081 04       		.uleb128 0x4
 1830 0082 0C020000 		.4byte	.LASF11
 1831 0086 02       		.byte	0x2
 1832 0087 B5       		.byte	0xb5
 1833 0088 48000000 		.4byte	0x48
 1834 008c 02       		.uleb128 0x2
 1835 008d 04       		.byte	0x4
 1836 008e 04       		.byte	0x4
 1837 008f 89040000 		.4byte	.LASF12
 1838 0093 02       		.uleb128 0x2
 1839 0094 08       		.byte	0x8
 1840 0095 04       		.byte	0x4
 1841 0096 F9010000 		.4byte	.LASF13
 1842 009a 04       		.uleb128 0x4
 1843 009b FF050000 		.4byte	.LASF14
 1844 009f 02       		.byte	0x2
 1845 00a0 C4       		.byte	0xc4
 1846 00a1 A5000000 		.4byte	0xa5
 1847 00a5 02       		.uleb128 0x2
 1848 00a6 01       		.byte	0x1
 1849 00a7 08       		.byte	0x8
 1850 00a8 FA050000 		.4byte	.LASF15
 1851 00ac 05       		.uleb128 0x5
 1852 00ad B0040000 		.4byte	.LASF16
 1853 00b1 02       		.byte	0x2
 1854 00b2 5D01     		.2byte	0x15d
 1855 00b4 B8000000 		.4byte	0xb8
 1856 00b8 06       		.uleb128 0x6
 1857 00b9 6B000000 		.4byte	0x6b
 1858 00bd 05       		.uleb128 0x5
 1859 00be 82030000 		.4byte	.LASF17
 1860 00c2 02       		.byte	0x2
 1861 00c3 5F01     		.2byte	0x15f
 1862 00c5 C9000000 		.4byte	0xc9
 1863 00c9 06       		.uleb128 0x6
 1864 00ca 81000000 		.4byte	0x81
 1865 00ce 02       		.uleb128 0x2
 1866 00cf 04       		.byte	0x4
 1867 00d0 07       		.byte	0x7
 1868 00d1 A7030000 		.4byte	.LASF18
 1869 00d5 07       		.uleb128 0x7
 1870 00d6 90030000 		.4byte	.LASF19
ARM GAS  C:\Users\Yiquing\AppData\Local\Temp\ccF0cyIx.s 			page 63


 1871 00da 01       		.byte	0x1
 1872 00db 4C       		.byte	0x4c
 1873 00dc 00000000 		.4byte	.LFB0
 1874 00e0 20000000 		.4byte	.LFE0-.LFB0
 1875 00e4 01       		.uleb128 0x1
 1876 00e5 9C       		.byte	0x9c
 1877 00e6 07       		.uleb128 0x7
 1878 00e7 53030000 		.4byte	.LASF20
 1879 00eb 01       		.byte	0x1
 1880 00ec 6A       		.byte	0x6a
 1881 00ed 00000000 		.4byte	.LFB1
 1882 00f1 38000000 		.4byte	.LFE1-.LFB1
 1883 00f5 01       		.uleb128 0x1
 1884 00f6 9C       		.byte	0x9c
 1885 00f7 08       		.uleb128 0x8
 1886 00f8 7E000000 		.4byte	.LASF21
 1887 00fc 01       		.byte	0x1
 1888 00fd B7       		.byte	0xb7
 1889 00fe 00000000 		.4byte	.LFB2
 1890 0102 50000000 		.4byte	.LFE2-.LFB2
 1891 0106 01       		.uleb128 0x1
 1892 0107 9C       		.byte	0x9c
 1893 0108 1B010000 		.4byte	0x11b
 1894 010c 09       		.uleb128 0x9
 1895 010d 6F060000 		.4byte	.LASF23
 1896 0111 01       		.byte	0x1
 1897 0112 B9       		.byte	0xb9
 1898 0113 6B000000 		.4byte	0x6b
 1899 0117 02       		.uleb128 0x2
 1900 0118 91       		.byte	0x91
 1901 0119 77       		.sleb128 -9
 1902 011a 00       		.byte	0
 1903 011b 08       		.uleb128 0x8
 1904 011c C5000000 		.4byte	.LASF22
 1905 0120 01       		.byte	0x1
 1906 0121 F0       		.byte	0xf0
 1907 0122 00000000 		.4byte	.LFB3
 1908 0126 50000000 		.4byte	.LFE3-.LFB3
 1909 012a 01       		.uleb128 0x1
 1910 012b 9C       		.byte	0x9c
 1911 012c 3F010000 		.4byte	0x13f
 1912 0130 09       		.uleb128 0x9
 1913 0131 6F060000 		.4byte	.LASF23
 1914 0135 01       		.byte	0x1
 1915 0136 F2       		.byte	0xf2
 1916 0137 6B000000 		.4byte	0x6b
 1917 013b 02       		.uleb128 0x2
 1918 013c 91       		.byte	0x91
 1919 013d 77       		.sleb128 -9
 1920 013e 00       		.byte	0
 1921 013f 0A       		.uleb128 0xa
 1922 0140 C3040000 		.4byte	.LASF49
 1923 0144 01       		.byte	0x1
 1924 0145 2701     		.2byte	0x127
 1925 0147 6B000000 		.4byte	0x6b
 1926 014b 00000000 		.4byte	.LFB4
 1927 014f 18000000 		.4byte	.LFE4-.LFB4
ARM GAS  C:\Users\Yiquing\AppData\Local\Temp\ccF0cyIx.s 			page 64


 1928 0153 01       		.uleb128 0x1
 1929 0154 9C       		.byte	0x9c
 1930 0155 0B       		.uleb128 0xb
 1931 0156 13010000 		.4byte	.LASF24
 1932 015a 01       		.byte	0x1
 1933 015b 3F01     		.2byte	0x13f
 1934 015d 00000000 		.4byte	.LFB5
 1935 0161 20000000 		.4byte	.LFE5-.LFB5
 1936 0165 01       		.uleb128 0x1
 1937 0166 9C       		.byte	0x9c
 1938 0167 7B010000 		.4byte	0x17b
 1939 016b 0C       		.uleb128 0xc
 1940 016c 13020000 		.4byte	.LASF26
 1941 0170 01       		.byte	0x1
 1942 0171 3F01     		.2byte	0x13f
 1943 0173 6B000000 		.4byte	0x6b
 1944 0177 02       		.uleb128 0x2
 1945 0178 91       		.byte	0x91
 1946 0179 77       		.sleb128 -9
 1947 017a 00       		.byte	0
 1948 017b 0B       		.uleb128 0xb
 1949 017c B7050000 		.4byte	.LASF25
 1950 0180 01       		.byte	0x1
 1951 0181 6701     		.2byte	0x167
 1952 0183 00000000 		.4byte	.LFB6
 1953 0187 20000000 		.4byte	.LFE6-.LFB6
 1954 018b 01       		.uleb128 0x1
 1955 018c 9C       		.byte	0x9c
 1956 018d A1010000 		.4byte	0x1a1
 1957 0191 0C       		.uleb128 0xc
 1958 0192 30030000 		.4byte	.LASF27
 1959 0196 01       		.byte	0x1
 1960 0197 6701     		.2byte	0x167
 1961 0199 6B000000 		.4byte	0x6b
 1962 019d 02       		.uleb128 0x2
 1963 019e 91       		.byte	0x91
 1964 019f 77       		.sleb128 -9
 1965 01a0 00       		.byte	0
 1966 01a1 0D       		.uleb128 0xd
 1967 01a2 37030000 		.4byte	.LASF31
 1968 01a6 01       		.byte	0x1
 1969 01a7 8801     		.2byte	0x188
 1970 01a9 6B000000 		.4byte	0x6b
 1971 01ad 00000000 		.4byte	.LFB7
 1972 01b1 94000000 		.4byte	.LFE7-.LFB7
 1973 01b5 01       		.uleb128 0x1
 1974 01b6 9C       		.byte	0x9c
 1975 01b7 E9010000 		.4byte	0x1e9
 1976 01bb 0E       		.uleb128 0xe
 1977 01bc 91050000 		.4byte	.LASF28
 1978 01c0 01       		.byte	0x1
 1979 01c1 8A01     		.2byte	0x18a
 1980 01c3 6B000000 		.4byte	0x6b
 1981 01c7 02       		.uleb128 0x2
 1982 01c8 91       		.byte	0x91
 1983 01c9 77       		.sleb128 -9
 1984 01ca 0E       		.uleb128 0xe
ARM GAS  C:\Users\Yiquing\AppData\Local\Temp\ccF0cyIx.s 			page 65


 1985 01cb 5F060000 		.4byte	.LASF29
 1986 01cf 01       		.byte	0x1
 1987 01d0 8E01     		.2byte	0x18e
 1988 01d2 6B000000 		.4byte	0x6b
 1989 01d6 02       		.uleb128 0x2
 1990 01d7 91       		.byte	0x91
 1991 01d8 76       		.sleb128 -10
 1992 01d9 0E       		.uleb128 0xe
 1993 01da 56040000 		.4byte	.LASF30
 1994 01de 01       		.byte	0x1
 1995 01df 8F01     		.2byte	0x18f
 1996 01e1 6B000000 		.4byte	0x6b
 1997 01e5 02       		.uleb128 0x2
 1998 01e6 91       		.byte	0x91
 1999 01e7 75       		.sleb128 -11
 2000 01e8 00       		.byte	0
 2001 01e9 0D       		.uleb128 0xd
 2002 01ea 60000000 		.4byte	.LASF32
 2003 01ee 01       		.byte	0x1
 2004 01ef E501     		.2byte	0x1e5
 2005 01f1 6B000000 		.4byte	0x6b
 2006 01f5 00000000 		.4byte	.LFB8
 2007 01f9 40000000 		.4byte	.LFE8-.LFB8
 2008 01fd 01       		.uleb128 0x1
 2009 01fe 9C       		.byte	0x9c
 2010 01ff 13020000 		.4byte	0x213
 2011 0203 0E       		.uleb128 0xe
 2012 0204 80060000 		.4byte	.LASF33
 2013 0208 01       		.byte	0x1
 2014 0209 E701     		.2byte	0x1e7
 2015 020b 6B000000 		.4byte	0x6b
 2016 020f 02       		.uleb128 0x2
 2017 0210 91       		.byte	0x91
 2018 0211 77       		.sleb128 -9
 2019 0212 00       		.byte	0
 2020 0213 0D       		.uleb128 0xd
 2021 0214 BE020000 		.4byte	.LASF34
 2022 0218 01       		.byte	0x1
 2023 0219 1402     		.2byte	0x214
 2024 021b 6B000000 		.4byte	0x6b
 2025 021f 00000000 		.4byte	.LFB9
 2026 0223 BC000000 		.4byte	.LFE9-.LFB9
 2027 0227 01       		.uleb128 0x1
 2028 0228 9C       		.byte	0x9c
 2029 0229 6A020000 		.4byte	0x26a
 2030 022d 0E       		.uleb128 0xe
 2031 022e 91050000 		.4byte	.LASF28
 2032 0232 01       		.byte	0x1
 2033 0233 1602     		.2byte	0x216
 2034 0235 6B000000 		.4byte	0x6b
 2035 0239 02       		.uleb128 0x2
 2036 023a 91       		.byte	0x91
 2037 023b 77       		.sleb128 -9
 2038 023c 0E       		.uleb128 0xe
 2039 023d 67040000 		.4byte	.LASF35
 2040 0241 01       		.byte	0x1
 2041 0242 1702     		.2byte	0x217
ARM GAS  C:\Users\Yiquing\AppData\Local\Temp\ccF0cyIx.s 			page 66


 2042 0244 6B000000 		.4byte	0x6b
 2043 0248 02       		.uleb128 0x2
 2044 0249 91       		.byte	0x91
 2045 024a 74       		.sleb128 -12
 2046 024b 0E       		.uleb128 0xe
 2047 024c 5F060000 		.4byte	.LASF29
 2048 0250 01       		.byte	0x1
 2049 0251 1A02     		.2byte	0x21a
 2050 0253 6B000000 		.4byte	0x6b
 2051 0257 02       		.uleb128 0x2
 2052 0258 91       		.byte	0x91
 2053 0259 76       		.sleb128 -10
 2054 025a 0E       		.uleb128 0xe
 2055 025b 56040000 		.4byte	.LASF30
 2056 025f 01       		.byte	0x1
 2057 0260 1B02     		.2byte	0x21b
 2058 0262 6B000000 		.4byte	0x6b
 2059 0266 02       		.uleb128 0x2
 2060 0267 91       		.byte	0x91
 2061 0268 75       		.sleb128 -11
 2062 0269 00       		.byte	0
 2063 026a 0F       		.uleb128 0xf
 2064 026b 10050000 		.4byte	.LASF36
 2065 026f 01       		.byte	0x1
 2066 0270 7A02     		.2byte	0x27a
 2067 0272 76000000 		.4byte	0x76
 2068 0276 00000000 		.4byte	.LFB10
 2069 027a 44000000 		.4byte	.LFE10-.LFB10
 2070 027e 01       		.uleb128 0x1
 2071 027f 9C       		.byte	0x9c
 2072 0280 94020000 		.4byte	0x294
 2073 0284 0E       		.uleb128 0xe
 2074 0285 9D020000 		.4byte	.LASF37
 2075 0289 01       		.byte	0x1
 2076 028a 7E02     		.2byte	0x27e
 2077 028c 76000000 		.4byte	0x76
 2078 0290 02       		.uleb128 0x2
 2079 0291 91       		.byte	0x91
 2080 0292 6E       		.sleb128 -18
 2081 0293 00       		.byte	0
 2082 0294 0D       		.uleb128 0xd
 2083 0295 8F040000 		.4byte	.LASF38
 2084 0299 01       		.byte	0x1
 2085 029a AB02     		.2byte	0x2ab
 2086 029c 6B000000 		.4byte	0x6b
 2087 02a0 00000000 		.4byte	.LFB11
 2088 02a4 90000000 		.4byte	.LFE11-.LFB11
 2089 02a8 01       		.uleb128 0x1
 2090 02a9 9C       		.byte	0x9c
 2091 02aa BE020000 		.4byte	0x2be
 2092 02ae 0E       		.uleb128 0xe
 2093 02af D7020000 		.4byte	.LASF39
 2094 02b3 01       		.byte	0x1
 2095 02b4 AE02     		.2byte	0x2ae
 2096 02b6 6B000000 		.4byte	0x6b
 2097 02ba 02       		.uleb128 0x2
 2098 02bb 91       		.byte	0x91
ARM GAS  C:\Users\Yiquing\AppData\Local\Temp\ccF0cyIx.s 			page 67


 2099 02bc 77       		.sleb128 -9
 2100 02bd 00       		.byte	0
 2101 02be 10       		.uleb128 0x10
 2102 02bf 40060000 		.4byte	.LASF40
 2103 02c3 01       		.byte	0x1
 2104 02c4 F502     		.2byte	0x2f5
 2105 02c6 00000000 		.4byte	.LFB12
 2106 02ca 7C000000 		.4byte	.LFE12-.LFB12
 2107 02ce 01       		.uleb128 0x1
 2108 02cf 9C       		.byte	0x9c
 2109 02d0 E4020000 		.4byte	0x2e4
 2110 02d4 0E       		.uleb128 0xe
 2111 02d5 6F060000 		.4byte	.LASF23
 2112 02d9 01       		.byte	0x1
 2113 02da F702     		.2byte	0x2f7
 2114 02dc 6B000000 		.4byte	0x6b
 2115 02e0 02       		.uleb128 0x2
 2116 02e1 91       		.byte	0x91
 2117 02e2 77       		.sleb128 -9
 2118 02e3 00       		.byte	0
 2119 02e4 0B       		.uleb128 0xb
 2120 02e5 6F050000 		.4byte	.LASF41
 2121 02e9 01       		.byte	0x1
 2122 02ea 2D03     		.2byte	0x32d
 2123 02ec 00000000 		.4byte	.LFB13
 2124 02f0 14000000 		.4byte	.LFE13-.LFB13
 2125 02f4 01       		.uleb128 0x1
 2126 02f5 9C       		.byte	0x9c
 2127 02f6 0A030000 		.4byte	0x30a
 2128 02fa 0C       		.uleb128 0xc
 2129 02fb 00020000 		.4byte	.LASF42
 2130 02ff 01       		.byte	0x1
 2131 0300 2D03     		.2byte	0x32d
 2132 0302 6B000000 		.4byte	0x6b
 2133 0306 02       		.uleb128 0x2
 2134 0307 91       		.byte	0x91
 2135 0308 77       		.sleb128 -9
 2136 0309 00       		.byte	0
 2137 030a 0B       		.uleb128 0xb
 2138 030b DB050000 		.4byte	.LASF43
 2139 030f 01       		.byte	0x1
 2140 0310 5903     		.2byte	0x359
 2141 0312 00000000 		.4byte	.LFB14
 2142 0316 20000000 		.4byte	.LFE14-.LFB14
 2143 031a 01       		.uleb128 0x1
 2144 031b 9C       		.byte	0x9c
 2145 031c 30030000 		.4byte	0x330
 2146 0320 0C       		.uleb128 0xc
 2147 0321 B0030000 		.4byte	.LASF44
 2148 0325 01       		.byte	0x1
 2149 0326 5903     		.2byte	0x359
 2150 0328 6B000000 		.4byte	0x6b
 2151 032c 02       		.uleb128 0x2
 2152 032d 91       		.byte	0x91
 2153 032e 77       		.sleb128 -9
 2154 032f 00       		.byte	0
 2155 0330 0B       		.uleb128 0xb
ARM GAS  C:\Users\Yiquing\AppData\Local\Temp\ccF0cyIx.s 			page 68


 2156 0331 98050000 		.4byte	.LASF45
 2157 0335 01       		.byte	0x1
 2158 0336 6D03     		.2byte	0x36d
 2159 0338 00000000 		.4byte	.LFB15
 2160 033c 20000000 		.4byte	.LFE15-.LFB15
 2161 0340 01       		.uleb128 0x1
 2162 0341 9C       		.byte	0x9c
 2163 0342 56030000 		.4byte	0x356
 2164 0346 0C       		.uleb128 0xc
 2165 0347 B0030000 		.4byte	.LASF44
 2166 034b 01       		.byte	0x1
 2167 034c 6D03     		.2byte	0x36d
 2168 034e 6B000000 		.4byte	0x6b
 2169 0352 02       		.uleb128 0x2
 2170 0353 91       		.byte	0x91
 2171 0354 77       		.sleb128 -9
 2172 0355 00       		.byte	0
 2173 0356 0B       		.uleb128 0xb
 2174 0357 A1000000 		.4byte	.LASF46
 2175 035b 01       		.byte	0x1
 2176 035c 8C03     		.2byte	0x38c
 2177 035e 00000000 		.4byte	.LFB16
 2178 0362 20000000 		.4byte	.LFE16-.LFB16
 2179 0366 01       		.uleb128 0x1
 2180 0367 9C       		.byte	0x9c
 2181 0368 7C030000 		.4byte	0x37c
 2182 036c 0C       		.uleb128 0xc
 2183 036d 30030000 		.4byte	.LASF27
 2184 0371 01       		.byte	0x1
 2185 0372 8C03     		.2byte	0x38c
 2186 0374 6B000000 		.4byte	0x6b
 2187 0378 02       		.uleb128 0x2
 2188 0379 91       		.byte	0x91
 2189 037a 77       		.sleb128 -9
 2190 037b 00       		.byte	0
 2191 037c 0B       		.uleb128 0xb
 2192 037d 1B020000 		.4byte	.LASF47
 2193 0381 01       		.byte	0x1
 2194 0382 AE03     		.2byte	0x3ae
 2195 0384 00000000 		.4byte	.LFB17
 2196 0388 2C000000 		.4byte	.LFE17-.LFB17
 2197 038c 01       		.uleb128 0x1
 2198 038d 9C       		.byte	0x9c
 2199 038e A2030000 		.4byte	0x3a2
 2200 0392 0C       		.uleb128 0xc
 2201 0393 96000000 		.4byte	.LASF48
 2202 0397 01       		.byte	0x1
 2203 0398 AE03     		.2byte	0x3ae
 2204 039a 6B000000 		.4byte	0x6b
 2205 039e 02       		.uleb128 0x2
 2206 039f 91       		.byte	0x91
 2207 03a0 77       		.sleb128 -9
 2208 03a1 00       		.byte	0
 2209 03a2 0A       		.uleb128 0xa
 2210 03a3 51050000 		.4byte	.LASF50
 2211 03a7 01       		.byte	0x1
 2212 03a8 EB03     		.2byte	0x3eb
ARM GAS  C:\Users\Yiquing\AppData\Local\Temp\ccF0cyIx.s 			page 69


 2213 03aa 6B000000 		.4byte	0x6b
 2214 03ae 00000000 		.4byte	.LFB18
 2215 03b2 18000000 		.4byte	.LFE18-.LFB18
 2216 03b6 01       		.uleb128 0x1
 2217 03b7 9C       		.byte	0x9c
 2218 03b8 0B       		.uleb128 0xb
 2219 03b9 69030000 		.4byte	.LASF51
 2220 03bd 01       		.byte	0x1
 2221 03be 1104     		.2byte	0x411
 2222 03c0 00000000 		.4byte	.LFB19
 2223 03c4 34000000 		.4byte	.LFE19-.LFB19
 2224 03c8 01       		.uleb128 0x1
 2225 03c9 9C       		.byte	0x9c
 2226 03ca DE030000 		.4byte	0x3de
 2227 03ce 0C       		.uleb128 0xc
 2228 03cf 96000000 		.4byte	.LASF48
 2229 03d3 01       		.byte	0x1
 2230 03d4 1104     		.2byte	0x411
 2231 03d6 6B000000 		.4byte	0x6b
 2232 03da 02       		.uleb128 0x2
 2233 03db 91       		.byte	0x91
 2234 03dc 77       		.sleb128 -9
 2235 03dd 00       		.byte	0
 2236 03de 10       		.uleb128 0x10
 2237 03df BB010000 		.4byte	.LASF52
 2238 03e3 01       		.byte	0x1
 2239 03e4 7904     		.2byte	0x479
 2240 03e6 00000000 		.4byte	.LFB20
 2241 03ea 40000000 		.4byte	.LFE20-.LFB20
 2242 03ee 01       		.uleb128 0x1
 2243 03ef 9C       		.byte	0x9c
 2244 03f0 13040000 		.4byte	0x413
 2245 03f4 0C       		.uleb128 0xc
 2246 03f5 F5000000 		.4byte	.LASF53
 2247 03f9 01       		.byte	0x1
 2248 03fa 7904     		.2byte	0x479
 2249 03fc 13040000 		.4byte	0x413
 2250 0400 02       		.uleb128 0x2
 2251 0401 91       		.byte	0x91
 2252 0402 6C       		.sleb128 -20
 2253 0403 0E       		.uleb128 0xe
 2254 0404 EF020000 		.4byte	.LASF54
 2255 0408 01       		.byte	0x1
 2256 0409 7B04     		.2byte	0x47b
 2257 040b 76000000 		.4byte	0x76
 2258 040f 02       		.uleb128 0x2
 2259 0410 91       		.byte	0x91
 2260 0411 76       		.sleb128 -10
 2261 0412 00       		.byte	0
 2262 0413 11       		.uleb128 0x11
 2263 0414 04       		.byte	0x4
 2264 0415 19040000 		.4byte	0x419
 2265 0419 12       		.uleb128 0x12
 2266 041a 9A000000 		.4byte	0x9a
 2267 041e 10       		.uleb128 0x10
 2268 041f 26060000 		.4byte	.LASF55
 2269 0423 01       		.byte	0x1
ARM GAS  C:\Users\Yiquing\AppData\Local\Temp\ccF0cyIx.s 			page 70


 2270 0424 A704     		.2byte	0x4a7
 2271 0426 00000000 		.4byte	.LFB21
 2272 042a 40000000 		.4byte	.LFE21-.LFB21
 2273 042e 01       		.uleb128 0x1
 2274 042f 9C       		.byte	0x9c
 2275 0430 62040000 		.4byte	0x462
 2276 0434 0C       		.uleb128 0xc
 2277 0435 F5000000 		.4byte	.LASF53
 2278 0439 01       		.byte	0x1
 2279 043a A704     		.2byte	0x4a7
 2280 043c 62040000 		.4byte	0x462
 2281 0440 02       		.uleb128 0x2
 2282 0441 91       		.byte	0x91
 2283 0442 6C       		.sleb128 -20
 2284 0443 0C       		.uleb128 0xc
 2285 0444 29050000 		.4byte	.LASF56
 2286 0448 01       		.byte	0x1
 2287 0449 A704     		.2byte	0x4a7
 2288 044b 6B000000 		.4byte	0x6b
 2289 044f 02       		.uleb128 0x2
 2290 0450 91       		.byte	0x91
 2291 0451 6B       		.sleb128 -21
 2292 0452 0E       		.uleb128 0xe
 2293 0453 EF020000 		.4byte	.LASF54
 2294 0457 01       		.byte	0x1
 2295 0458 AA04     		.2byte	0x4aa
 2296 045a 6B000000 		.4byte	0x6b
 2297 045e 02       		.uleb128 0x2
 2298 045f 91       		.byte	0x91
 2299 0460 77       		.sleb128 -9
 2300 0461 00       		.byte	0
 2301 0462 11       		.uleb128 0x11
 2302 0463 04       		.byte	0x4
 2303 0464 68040000 		.4byte	0x468
 2304 0468 12       		.uleb128 0x12
 2305 0469 6B000000 		.4byte	0x6b
 2306 046d 10       		.uleb128 0x10
 2307 046e 70040000 		.4byte	.LASF57
 2308 0472 01       		.byte	0x1
 2309 0473 CE04     		.2byte	0x4ce
 2310 0475 00000000 		.4byte	.LFB22
 2311 0479 30000000 		.4byte	.LFE22-.LFB22
 2312 047d 01       		.uleb128 0x1
 2313 047e 9C       		.byte	0x9c
 2314 047f 93040000 		.4byte	0x493
 2315 0483 0C       		.uleb128 0xc
 2316 0484 96000000 		.4byte	.LASF48
 2317 0488 01       		.byte	0x1
 2318 0489 CE04     		.2byte	0x4ce
 2319 048b 6B000000 		.4byte	0x6b
 2320 048f 02       		.uleb128 0x2
 2321 0490 91       		.byte	0x91
 2322 0491 77       		.sleb128 -9
 2323 0492 00       		.byte	0
 2324 0493 0D       		.uleb128 0xd
 2325 0494 05060000 		.4byte	.LASF58
 2326 0498 01       		.byte	0x1
ARM GAS  C:\Users\Yiquing\AppData\Local\Temp\ccF0cyIx.s 			page 71


 2327 0499 F904     		.2byte	0x4f9
 2328 049b 6B000000 		.4byte	0x6b
 2329 049f 00000000 		.4byte	.LFB23
 2330 04a3 44000000 		.4byte	.LFE23-.LFB23
 2331 04a7 01       		.uleb128 0x1
 2332 04a8 9C       		.byte	0x9c
 2333 04a9 BD040000 		.4byte	0x4bd
 2334 04ad 0E       		.uleb128 0xe
 2335 04ae D7020000 		.4byte	.LASF39
 2336 04b2 01       		.byte	0x1
 2337 04b3 FC04     		.2byte	0x4fc
 2338 04b5 6B000000 		.4byte	0x6b
 2339 04b9 02       		.uleb128 0x2
 2340 04ba 91       		.byte	0x91
 2341 04bb 77       		.sleb128 -9
 2342 04bc 00       		.byte	0
 2343 04bd 10       		.uleb128 0x10
 2344 04be F8020000 		.4byte	.LASF59
 2345 04c2 01       		.byte	0x1
 2346 04c3 4A05     		.2byte	0x54a
 2347 04c5 00000000 		.4byte	.LFB24
 2348 04c9 40000000 		.4byte	.LFE24-.LFB24
 2349 04cd 01       		.uleb128 0x1
 2350 04ce 9C       		.byte	0x9c
 2351 04cf E3040000 		.4byte	0x4e3
 2352 04d3 0E       		.uleb128 0xe
 2353 04d4 6F060000 		.4byte	.LASF23
 2354 04d8 01       		.byte	0x1
 2355 04d9 4C05     		.2byte	0x54c
 2356 04db 6B000000 		.4byte	0x6b
 2357 04df 02       		.uleb128 0x2
 2358 04e0 91       		.byte	0x91
 2359 04e1 77       		.sleb128 -9
 2360 04e2 00       		.byte	0
 2361 04e3 10       		.uleb128 0x10
 2362 04e4 87060000 		.4byte	.LASF60
 2363 04e8 01       		.byte	0x1
 2364 04e9 A005     		.2byte	0x5a0
 2365 04eb 00000000 		.4byte	.LFB25
 2366 04ef 9C000000 		.4byte	.LFE25-.LFB25
 2367 04f3 01       		.uleb128 0x1
 2368 04f4 9C       		.byte	0x9c
 2369 04f5 22050000 		.4byte	0x522
 2370 04f9 0C       		.uleb128 0xc
 2371 04fa 88020000 		.4byte	.LASF61
 2372 04fe 01       		.byte	0x1
 2373 04ff A005     		.2byte	0x5a0
 2374 0501 6B000000 		.4byte	0x6b
 2375 0505 02       		.uleb128 0x2
 2376 0506 91       		.byte	0x91
 2377 0507 6F       		.sleb128 -17
 2378 0508 13       		.uleb128 0x13
 2379 0509 12000000 		.4byte	.LBB2
 2380 050d 78000000 		.4byte	.LBE2-.LBB2
 2381 0511 0E       		.uleb128 0xe
 2382 0512 88030000 		.4byte	.LASF62
 2383 0516 01       		.byte	0x1
ARM GAS  C:\Users\Yiquing\AppData\Local\Temp\ccF0cyIx.s 			page 72


 2384 0517 A805     		.2byte	0x5a8
 2385 0519 6B000000 		.4byte	0x6b
 2386 051d 02       		.uleb128 0x2
 2387 051e 91       		.byte	0x91
 2388 051f 77       		.sleb128 -9
 2389 0520 00       		.byte	0
 2390 0521 00       		.byte	0
 2391 0522 10       		.uleb128 0x10
 2392 0523 B8030000 		.4byte	.LASF63
 2393 0527 01       		.byte	0x1
 2394 0528 2406     		.2byte	0x624
 2395 052a 00000000 		.4byte	.LFB26
 2396 052e 3C000000 		.4byte	.LFE26-.LFB26
 2397 0532 01       		.uleb128 0x1
 2398 0533 9C       		.byte	0x9c
 2399 0534 48050000 		.4byte	0x548
 2400 0538 0C       		.uleb128 0xc
 2401 0539 00020000 		.4byte	.LASF42
 2402 053d 01       		.byte	0x1
 2403 053e 2406     		.2byte	0x624
 2404 0540 6B000000 		.4byte	0x6b
 2405 0544 02       		.uleb128 0x2
 2406 0545 91       		.byte	0x91
 2407 0546 77       		.sleb128 -9
 2408 0547 00       		.byte	0
 2409 0548 14       		.uleb128 0x14
 2410 0549 33050000 		.4byte	.LASF64
 2411 054d 01       		.byte	0x1
 2412 054e 5006     		.2byte	0x650
 2413 0550 00000000 		.4byte	.LFB27
 2414 0554 28000000 		.4byte	.LFE27-.LFB27
 2415 0558 01       		.uleb128 0x1
 2416 0559 9C       		.byte	0x9c
 2417 055a 14       		.uleb128 0x14
 2418 055b 39010000 		.4byte	.LASF65
 2419 055f 01       		.byte	0x1
 2420 0560 7006     		.2byte	0x670
 2421 0562 00000000 		.4byte	.LFB28
 2422 0566 28000000 		.4byte	.LFE28-.LFB28
 2423 056a 01       		.uleb128 0x1
 2424 056b 9C       		.byte	0x9c
 2425 056c 15       		.uleb128 0x15
 2426 056d 17030000 		.4byte	.LASF66
 2427 0571 01       		.byte	0x1
 2428 0572 1B       		.byte	0x1b
 2429 0573 6B000000 		.4byte	0x6b
 2430 0577 05       		.uleb128 0x5
 2431 0578 03       		.byte	0x3
 2432 0579 00000000 		.4byte	UART_OSDP_READER_initVar
 2433 057d 15       		.uleb128 0x15
 2434 057e D6010000 		.4byte	.LASF67
 2435 0582 01       		.byte	0x1
 2436 0583 24       		.byte	0x24
 2437 0584 6B000000 		.4byte	0x6b
 2438 0588 05       		.uleb128 0x5
 2439 0589 03       		.byte	0x3
 2440 058a 00000000 		.4byte	UART_OSDP_READER_errorStatus
ARM GAS  C:\Users\Yiquing\AppData\Local\Temp\ccF0cyIx.s 			page 73


 2441 058e 16       		.uleb128 0x16
 2442 058f 6B000000 		.4byte	0x6b
 2443 0593 9E050000 		.4byte	0x59e
 2444 0597 17       		.uleb128 0x17
 2445 0598 CE000000 		.4byte	0xce
 2446 059c 7F       		.byte	0x7f
 2447 059d 00       		.byte	0
 2448 059e 15       		.uleb128 0x15
 2449 059f DB000000 		.4byte	.LASF68
 2450 05a3 01       		.byte	0x1
 2451 05a4 25       		.byte	0x25
 2452 05a5 AF050000 		.4byte	0x5af
 2453 05a9 05       		.uleb128 0x5
 2454 05aa 03       		.byte	0x3
 2455 05ab 00000000 		.4byte	UART_OSDP_READER_rxBuffer
 2456 05af 06       		.uleb128 0x6
 2457 05b0 8E050000 		.4byte	0x58e
 2458 05b4 15       		.uleb128 0x15
 2459 05b5 F2040000 		.4byte	.LASF69
 2460 05b9 01       		.byte	0x1
 2461 05ba 26       		.byte	0x26
 2462 05bb B8000000 		.4byte	0xb8
 2463 05bf 05       		.uleb128 0x5
 2464 05c0 03       		.byte	0x3
 2465 05c1 00000000 		.4byte	UART_OSDP_READER_rxBufferRead
 2466 05c5 15       		.uleb128 0x15
 2467 05c6 93010000 		.4byte	.LASF70
 2468 05ca 01       		.byte	0x1
 2469 05cb 27       		.byte	0x27
 2470 05cc B8000000 		.4byte	0xb8
 2471 05d0 05       		.uleb128 0x5
 2472 05d1 03       		.byte	0x3
 2473 05d2 00000000 		.4byte	UART_OSDP_READER_rxBufferWrite
 2474 05d6 15       		.uleb128 0x15
 2475 05d7 64020000 		.4byte	.LASF71
 2476 05db 01       		.byte	0x1
 2477 05dc 28       		.byte	0x28
 2478 05dd B8000000 		.4byte	0xb8
 2479 05e1 05       		.uleb128 0x5
 2480 05e2 03       		.byte	0x3
 2481 05e3 00000000 		.4byte	UART_OSDP_READER_rxBufferLoopDetect
 2482 05e7 15       		.uleb128 0x15
 2483 05e8 57010000 		.4byte	.LASF72
 2484 05ec 01       		.byte	0x1
 2485 05ed 29       		.byte	0x29
 2486 05ee B8000000 		.4byte	0xb8
 2487 05f2 05       		.uleb128 0x5
 2488 05f3 03       		.byte	0x3
 2489 05f4 00000000 		.4byte	UART_OSDP_READER_rxBufferOverflow
 2490 05f8 00       		.byte	0
 2491              		.section	.debug_abbrev,"",%progbits
 2492              	.Ldebug_abbrev0:
 2493 0000 01       		.uleb128 0x1
 2494 0001 11       		.uleb128 0x11
 2495 0002 01       		.byte	0x1
 2496 0003 25       		.uleb128 0x25
 2497 0004 0E       		.uleb128 0xe
ARM GAS  C:\Users\Yiquing\AppData\Local\Temp\ccF0cyIx.s 			page 74


 2498 0005 13       		.uleb128 0x13
 2499 0006 0B       		.uleb128 0xb
 2500 0007 03       		.uleb128 0x3
 2501 0008 0E       		.uleb128 0xe
 2502 0009 1B       		.uleb128 0x1b
 2503 000a 0E       		.uleb128 0xe
 2504 000b 55       		.uleb128 0x55
 2505 000c 17       		.uleb128 0x17
 2506 000d 11       		.uleb128 0x11
 2507 000e 01       		.uleb128 0x1
 2508 000f 10       		.uleb128 0x10
 2509 0010 17       		.uleb128 0x17
 2510 0011 00       		.byte	0
 2511 0012 00       		.byte	0
 2512 0013 02       		.uleb128 0x2
 2513 0014 24       		.uleb128 0x24
 2514 0015 00       		.byte	0
 2515 0016 0B       		.uleb128 0xb
 2516 0017 0B       		.uleb128 0xb
 2517 0018 3E       		.uleb128 0x3e
 2518 0019 0B       		.uleb128 0xb
 2519 001a 03       		.uleb128 0x3
 2520 001b 0E       		.uleb128 0xe
 2521 001c 00       		.byte	0
 2522 001d 00       		.byte	0
 2523 001e 03       		.uleb128 0x3
 2524 001f 24       		.uleb128 0x24
 2525 0020 00       		.byte	0
 2526 0021 0B       		.uleb128 0xb
 2527 0022 0B       		.uleb128 0xb
 2528 0023 3E       		.uleb128 0x3e
 2529 0024 0B       		.uleb128 0xb
 2530 0025 03       		.uleb128 0x3
 2531 0026 08       		.uleb128 0x8
 2532 0027 00       		.byte	0
 2533 0028 00       		.byte	0
 2534 0029 04       		.uleb128 0x4
 2535 002a 16       		.uleb128 0x16
 2536 002b 00       		.byte	0
 2537 002c 03       		.uleb128 0x3
 2538 002d 0E       		.uleb128 0xe
 2539 002e 3A       		.uleb128 0x3a
 2540 002f 0B       		.uleb128 0xb
 2541 0030 3B       		.uleb128 0x3b
 2542 0031 0B       		.uleb128 0xb
 2543 0032 49       		.uleb128 0x49
 2544 0033 13       		.uleb128 0x13
 2545 0034 00       		.byte	0
 2546 0035 00       		.byte	0
 2547 0036 05       		.uleb128 0x5
 2548 0037 16       		.uleb128 0x16
 2549 0038 00       		.byte	0
 2550 0039 03       		.uleb128 0x3
 2551 003a 0E       		.uleb128 0xe
 2552 003b 3A       		.uleb128 0x3a
 2553 003c 0B       		.uleb128 0xb
 2554 003d 3B       		.uleb128 0x3b
ARM GAS  C:\Users\Yiquing\AppData\Local\Temp\ccF0cyIx.s 			page 75


 2555 003e 05       		.uleb128 0x5
 2556 003f 49       		.uleb128 0x49
 2557 0040 13       		.uleb128 0x13
 2558 0041 00       		.byte	0
 2559 0042 00       		.byte	0
 2560 0043 06       		.uleb128 0x6
 2561 0044 35       		.uleb128 0x35
 2562 0045 00       		.byte	0
 2563 0046 49       		.uleb128 0x49
 2564 0047 13       		.uleb128 0x13
 2565 0048 00       		.byte	0
 2566 0049 00       		.byte	0
 2567 004a 07       		.uleb128 0x7
 2568 004b 2E       		.uleb128 0x2e
 2569 004c 00       		.byte	0
 2570 004d 3F       		.uleb128 0x3f
 2571 004e 19       		.uleb128 0x19
 2572 004f 03       		.uleb128 0x3
 2573 0050 0E       		.uleb128 0xe
 2574 0051 3A       		.uleb128 0x3a
 2575 0052 0B       		.uleb128 0xb
 2576 0053 3B       		.uleb128 0x3b
 2577 0054 0B       		.uleb128 0xb
 2578 0055 27       		.uleb128 0x27
 2579 0056 19       		.uleb128 0x19
 2580 0057 11       		.uleb128 0x11
 2581 0058 01       		.uleb128 0x1
 2582 0059 12       		.uleb128 0x12
 2583 005a 06       		.uleb128 0x6
 2584 005b 40       		.uleb128 0x40
 2585 005c 18       		.uleb128 0x18
 2586 005d 9642     		.uleb128 0x2116
 2587 005f 19       		.uleb128 0x19
 2588 0060 00       		.byte	0
 2589 0061 00       		.byte	0
 2590 0062 08       		.uleb128 0x8
 2591 0063 2E       		.uleb128 0x2e
 2592 0064 01       		.byte	0x1
 2593 0065 3F       		.uleb128 0x3f
 2594 0066 19       		.uleb128 0x19
 2595 0067 03       		.uleb128 0x3
 2596 0068 0E       		.uleb128 0xe
 2597 0069 3A       		.uleb128 0x3a
 2598 006a 0B       		.uleb128 0xb
 2599 006b 3B       		.uleb128 0x3b
 2600 006c 0B       		.uleb128 0xb
 2601 006d 27       		.uleb128 0x27
 2602 006e 19       		.uleb128 0x19
 2603 006f 11       		.uleb128 0x11
 2604 0070 01       		.uleb128 0x1
 2605 0071 12       		.uleb128 0x12
 2606 0072 06       		.uleb128 0x6
 2607 0073 40       		.uleb128 0x40
 2608 0074 18       		.uleb128 0x18
 2609 0075 9642     		.uleb128 0x2116
 2610 0077 19       		.uleb128 0x19
 2611 0078 01       		.uleb128 0x1
ARM GAS  C:\Users\Yiquing\AppData\Local\Temp\ccF0cyIx.s 			page 76


 2612 0079 13       		.uleb128 0x13
 2613 007a 00       		.byte	0
 2614 007b 00       		.byte	0
 2615 007c 09       		.uleb128 0x9
 2616 007d 34       		.uleb128 0x34
 2617 007e 00       		.byte	0
 2618 007f 03       		.uleb128 0x3
 2619 0080 0E       		.uleb128 0xe
 2620 0081 3A       		.uleb128 0x3a
 2621 0082 0B       		.uleb128 0xb
 2622 0083 3B       		.uleb128 0x3b
 2623 0084 0B       		.uleb128 0xb
 2624 0085 49       		.uleb128 0x49
 2625 0086 13       		.uleb128 0x13
 2626 0087 02       		.uleb128 0x2
 2627 0088 18       		.uleb128 0x18
 2628 0089 00       		.byte	0
 2629 008a 00       		.byte	0
 2630 008b 0A       		.uleb128 0xa
 2631 008c 2E       		.uleb128 0x2e
 2632 008d 00       		.byte	0
 2633 008e 3F       		.uleb128 0x3f
 2634 008f 19       		.uleb128 0x19
 2635 0090 03       		.uleb128 0x3
 2636 0091 0E       		.uleb128 0xe
 2637 0092 3A       		.uleb128 0x3a
 2638 0093 0B       		.uleb128 0xb
 2639 0094 3B       		.uleb128 0x3b
 2640 0095 05       		.uleb128 0x5
 2641 0096 27       		.uleb128 0x27
 2642 0097 19       		.uleb128 0x19
 2643 0098 49       		.uleb128 0x49
 2644 0099 13       		.uleb128 0x13
 2645 009a 11       		.uleb128 0x11
 2646 009b 01       		.uleb128 0x1
 2647 009c 12       		.uleb128 0x12
 2648 009d 06       		.uleb128 0x6
 2649 009e 40       		.uleb128 0x40
 2650 009f 18       		.uleb128 0x18
 2651 00a0 9742     		.uleb128 0x2117
 2652 00a2 19       		.uleb128 0x19
 2653 00a3 00       		.byte	0
 2654 00a4 00       		.byte	0
 2655 00a5 0B       		.uleb128 0xb
 2656 00a6 2E       		.uleb128 0x2e
 2657 00a7 01       		.byte	0x1
 2658 00a8 3F       		.uleb128 0x3f
 2659 00a9 19       		.uleb128 0x19
 2660 00aa 03       		.uleb128 0x3
 2661 00ab 0E       		.uleb128 0xe
 2662 00ac 3A       		.uleb128 0x3a
 2663 00ad 0B       		.uleb128 0xb
 2664 00ae 3B       		.uleb128 0x3b
 2665 00af 05       		.uleb128 0x5
 2666 00b0 27       		.uleb128 0x27
 2667 00b1 19       		.uleb128 0x19
 2668 00b2 11       		.uleb128 0x11
ARM GAS  C:\Users\Yiquing\AppData\Local\Temp\ccF0cyIx.s 			page 77


 2669 00b3 01       		.uleb128 0x1
 2670 00b4 12       		.uleb128 0x12
 2671 00b5 06       		.uleb128 0x6
 2672 00b6 40       		.uleb128 0x40
 2673 00b7 18       		.uleb128 0x18
 2674 00b8 9742     		.uleb128 0x2117
 2675 00ba 19       		.uleb128 0x19
 2676 00bb 01       		.uleb128 0x1
 2677 00bc 13       		.uleb128 0x13
 2678 00bd 00       		.byte	0
 2679 00be 00       		.byte	0
 2680 00bf 0C       		.uleb128 0xc
 2681 00c0 05       		.uleb128 0x5
 2682 00c1 00       		.byte	0
 2683 00c2 03       		.uleb128 0x3
 2684 00c3 0E       		.uleb128 0xe
 2685 00c4 3A       		.uleb128 0x3a
 2686 00c5 0B       		.uleb128 0xb
 2687 00c6 3B       		.uleb128 0x3b
 2688 00c7 05       		.uleb128 0x5
 2689 00c8 49       		.uleb128 0x49
 2690 00c9 13       		.uleb128 0x13
 2691 00ca 02       		.uleb128 0x2
 2692 00cb 18       		.uleb128 0x18
 2693 00cc 00       		.byte	0
 2694 00cd 00       		.byte	0
 2695 00ce 0D       		.uleb128 0xd
 2696 00cf 2E       		.uleb128 0x2e
 2697 00d0 01       		.byte	0x1
 2698 00d1 3F       		.uleb128 0x3f
 2699 00d2 19       		.uleb128 0x19
 2700 00d3 03       		.uleb128 0x3
 2701 00d4 0E       		.uleb128 0xe
 2702 00d5 3A       		.uleb128 0x3a
 2703 00d6 0B       		.uleb128 0xb
 2704 00d7 3B       		.uleb128 0x3b
 2705 00d8 05       		.uleb128 0x5
 2706 00d9 27       		.uleb128 0x27
 2707 00da 19       		.uleb128 0x19
 2708 00db 49       		.uleb128 0x49
 2709 00dc 13       		.uleb128 0x13
 2710 00dd 11       		.uleb128 0x11
 2711 00de 01       		.uleb128 0x1
 2712 00df 12       		.uleb128 0x12
 2713 00e0 06       		.uleb128 0x6
 2714 00e1 40       		.uleb128 0x40
 2715 00e2 18       		.uleb128 0x18
 2716 00e3 9742     		.uleb128 0x2117
 2717 00e5 19       		.uleb128 0x19
 2718 00e6 01       		.uleb128 0x1
 2719 00e7 13       		.uleb128 0x13
 2720 00e8 00       		.byte	0
 2721 00e9 00       		.byte	0
 2722 00ea 0E       		.uleb128 0xe
 2723 00eb 34       		.uleb128 0x34
 2724 00ec 00       		.byte	0
 2725 00ed 03       		.uleb128 0x3
ARM GAS  C:\Users\Yiquing\AppData\Local\Temp\ccF0cyIx.s 			page 78


 2726 00ee 0E       		.uleb128 0xe
 2727 00ef 3A       		.uleb128 0x3a
 2728 00f0 0B       		.uleb128 0xb
 2729 00f1 3B       		.uleb128 0x3b
 2730 00f2 05       		.uleb128 0x5
 2731 00f3 49       		.uleb128 0x49
 2732 00f4 13       		.uleb128 0x13
 2733 00f5 02       		.uleb128 0x2
 2734 00f6 18       		.uleb128 0x18
 2735 00f7 00       		.byte	0
 2736 00f8 00       		.byte	0
 2737 00f9 0F       		.uleb128 0xf
 2738 00fa 2E       		.uleb128 0x2e
 2739 00fb 01       		.byte	0x1
 2740 00fc 3F       		.uleb128 0x3f
 2741 00fd 19       		.uleb128 0x19
 2742 00fe 03       		.uleb128 0x3
 2743 00ff 0E       		.uleb128 0xe
 2744 0100 3A       		.uleb128 0x3a
 2745 0101 0B       		.uleb128 0xb
 2746 0102 3B       		.uleb128 0x3b
 2747 0103 05       		.uleb128 0x5
 2748 0104 27       		.uleb128 0x27
 2749 0105 19       		.uleb128 0x19
 2750 0106 49       		.uleb128 0x49
 2751 0107 13       		.uleb128 0x13
 2752 0108 11       		.uleb128 0x11
 2753 0109 01       		.uleb128 0x1
 2754 010a 12       		.uleb128 0x12
 2755 010b 06       		.uleb128 0x6
 2756 010c 40       		.uleb128 0x40
 2757 010d 18       		.uleb128 0x18
 2758 010e 9642     		.uleb128 0x2116
 2759 0110 19       		.uleb128 0x19
 2760 0111 01       		.uleb128 0x1
 2761 0112 13       		.uleb128 0x13
 2762 0113 00       		.byte	0
 2763 0114 00       		.byte	0
 2764 0115 10       		.uleb128 0x10
 2765 0116 2E       		.uleb128 0x2e
 2766 0117 01       		.byte	0x1
 2767 0118 3F       		.uleb128 0x3f
 2768 0119 19       		.uleb128 0x19
 2769 011a 03       		.uleb128 0x3
 2770 011b 0E       		.uleb128 0xe
 2771 011c 3A       		.uleb128 0x3a
 2772 011d 0B       		.uleb128 0xb
 2773 011e 3B       		.uleb128 0x3b
 2774 011f 05       		.uleb128 0x5
 2775 0120 27       		.uleb128 0x27
 2776 0121 19       		.uleb128 0x19
 2777 0122 11       		.uleb128 0x11
 2778 0123 01       		.uleb128 0x1
 2779 0124 12       		.uleb128 0x12
 2780 0125 06       		.uleb128 0x6
 2781 0126 40       		.uleb128 0x40
 2782 0127 18       		.uleb128 0x18
ARM GAS  C:\Users\Yiquing\AppData\Local\Temp\ccF0cyIx.s 			page 79


 2783 0128 9642     		.uleb128 0x2116
 2784 012a 19       		.uleb128 0x19
 2785 012b 01       		.uleb128 0x1
 2786 012c 13       		.uleb128 0x13
 2787 012d 00       		.byte	0
 2788 012e 00       		.byte	0
 2789 012f 11       		.uleb128 0x11
 2790 0130 0F       		.uleb128 0xf
 2791 0131 00       		.byte	0
 2792 0132 0B       		.uleb128 0xb
 2793 0133 0B       		.uleb128 0xb
 2794 0134 49       		.uleb128 0x49
 2795 0135 13       		.uleb128 0x13
 2796 0136 00       		.byte	0
 2797 0137 00       		.byte	0
 2798 0138 12       		.uleb128 0x12
 2799 0139 26       		.uleb128 0x26
 2800 013a 00       		.byte	0
 2801 013b 49       		.uleb128 0x49
 2802 013c 13       		.uleb128 0x13
 2803 013d 00       		.byte	0
 2804 013e 00       		.byte	0
 2805 013f 13       		.uleb128 0x13
 2806 0140 0B       		.uleb128 0xb
 2807 0141 01       		.byte	0x1
 2808 0142 11       		.uleb128 0x11
 2809 0143 01       		.uleb128 0x1
 2810 0144 12       		.uleb128 0x12
 2811 0145 06       		.uleb128 0x6
 2812 0146 00       		.byte	0
 2813 0147 00       		.byte	0
 2814 0148 14       		.uleb128 0x14
 2815 0149 2E       		.uleb128 0x2e
 2816 014a 00       		.byte	0
 2817 014b 3F       		.uleb128 0x3f
 2818 014c 19       		.uleb128 0x19
 2819 014d 03       		.uleb128 0x3
 2820 014e 0E       		.uleb128 0xe
 2821 014f 3A       		.uleb128 0x3a
 2822 0150 0B       		.uleb128 0xb
 2823 0151 3B       		.uleb128 0x3b
 2824 0152 05       		.uleb128 0x5
 2825 0153 27       		.uleb128 0x27
 2826 0154 19       		.uleb128 0x19
 2827 0155 11       		.uleb128 0x11
 2828 0156 01       		.uleb128 0x1
 2829 0157 12       		.uleb128 0x12
 2830 0158 06       		.uleb128 0x6
 2831 0159 40       		.uleb128 0x40
 2832 015a 18       		.uleb128 0x18
 2833 015b 9642     		.uleb128 0x2116
 2834 015d 19       		.uleb128 0x19
 2835 015e 00       		.byte	0
 2836 015f 00       		.byte	0
 2837 0160 15       		.uleb128 0x15
 2838 0161 34       		.uleb128 0x34
 2839 0162 00       		.byte	0
ARM GAS  C:\Users\Yiquing\AppData\Local\Temp\ccF0cyIx.s 			page 80


 2840 0163 03       		.uleb128 0x3
 2841 0164 0E       		.uleb128 0xe
 2842 0165 3A       		.uleb128 0x3a
 2843 0166 0B       		.uleb128 0xb
 2844 0167 3B       		.uleb128 0x3b
 2845 0168 0B       		.uleb128 0xb
 2846 0169 49       		.uleb128 0x49
 2847 016a 13       		.uleb128 0x13
 2848 016b 3F       		.uleb128 0x3f
 2849 016c 19       		.uleb128 0x19
 2850 016d 02       		.uleb128 0x2
 2851 016e 18       		.uleb128 0x18
 2852 016f 00       		.byte	0
 2853 0170 00       		.byte	0
 2854 0171 16       		.uleb128 0x16
 2855 0172 01       		.uleb128 0x1
 2856 0173 01       		.byte	0x1
 2857 0174 49       		.uleb128 0x49
 2858 0175 13       		.uleb128 0x13
 2859 0176 01       		.uleb128 0x1
 2860 0177 13       		.uleb128 0x13
 2861 0178 00       		.byte	0
 2862 0179 00       		.byte	0
 2863 017a 17       		.uleb128 0x17
 2864 017b 21       		.uleb128 0x21
 2865 017c 00       		.byte	0
 2866 017d 49       		.uleb128 0x49
 2867 017e 13       		.uleb128 0x13
 2868 017f 2F       		.uleb128 0x2f
 2869 0180 0B       		.uleb128 0xb
 2870 0181 00       		.byte	0
 2871 0182 00       		.byte	0
 2872 0183 00       		.byte	0
 2873              		.section	.debug_aranges,"",%progbits
 2874 0000 FC000000 		.4byte	0xfc
 2875 0004 0200     		.2byte	0x2
 2876 0006 00000000 		.4byte	.Ldebug_info0
 2877 000a 04       		.byte	0x4
 2878 000b 00       		.byte	0
 2879 000c 0000     		.2byte	0
 2880 000e 0000     		.2byte	0
 2881 0010 00000000 		.4byte	.LFB0
 2882 0014 20000000 		.4byte	.LFE0-.LFB0
 2883 0018 00000000 		.4byte	.LFB1
 2884 001c 38000000 		.4byte	.LFE1-.LFB1
 2885 0020 00000000 		.4byte	.LFB2
 2886 0024 50000000 		.4byte	.LFE2-.LFB2
 2887 0028 00000000 		.4byte	.LFB3
 2888 002c 50000000 		.4byte	.LFE3-.LFB3
 2889 0030 00000000 		.4byte	.LFB4
 2890 0034 18000000 		.4byte	.LFE4-.LFB4
 2891 0038 00000000 		.4byte	.LFB5
 2892 003c 20000000 		.4byte	.LFE5-.LFB5
 2893 0040 00000000 		.4byte	.LFB6
 2894 0044 20000000 		.4byte	.LFE6-.LFB6
 2895 0048 00000000 		.4byte	.LFB7
 2896 004c 94000000 		.4byte	.LFE7-.LFB7
ARM GAS  C:\Users\Yiquing\AppData\Local\Temp\ccF0cyIx.s 			page 81


 2897 0050 00000000 		.4byte	.LFB8
 2898 0054 40000000 		.4byte	.LFE8-.LFB8
 2899 0058 00000000 		.4byte	.LFB9
 2900 005c BC000000 		.4byte	.LFE9-.LFB9
 2901 0060 00000000 		.4byte	.LFB10
 2902 0064 44000000 		.4byte	.LFE10-.LFB10
 2903 0068 00000000 		.4byte	.LFB11
 2904 006c 90000000 		.4byte	.LFE11-.LFB11
 2905 0070 00000000 		.4byte	.LFB12
 2906 0074 7C000000 		.4byte	.LFE12-.LFB12
 2907 0078 00000000 		.4byte	.LFB13
 2908 007c 14000000 		.4byte	.LFE13-.LFB13
 2909 0080 00000000 		.4byte	.LFB14
 2910 0084 20000000 		.4byte	.LFE14-.LFB14
 2911 0088 00000000 		.4byte	.LFB15
 2912 008c 20000000 		.4byte	.LFE15-.LFB15
 2913 0090 00000000 		.4byte	.LFB16
 2914 0094 20000000 		.4byte	.LFE16-.LFB16
 2915 0098 00000000 		.4byte	.LFB17
 2916 009c 2C000000 		.4byte	.LFE17-.LFB17
 2917 00a0 00000000 		.4byte	.LFB18
 2918 00a4 18000000 		.4byte	.LFE18-.LFB18
 2919 00a8 00000000 		.4byte	.LFB19
 2920 00ac 34000000 		.4byte	.LFE19-.LFB19
 2921 00b0 00000000 		.4byte	.LFB20
 2922 00b4 40000000 		.4byte	.LFE20-.LFB20
 2923 00b8 00000000 		.4byte	.LFB21
 2924 00bc 40000000 		.4byte	.LFE21-.LFB21
 2925 00c0 00000000 		.4byte	.LFB22
 2926 00c4 30000000 		.4byte	.LFE22-.LFB22
 2927 00c8 00000000 		.4byte	.LFB23
 2928 00cc 44000000 		.4byte	.LFE23-.LFB23
 2929 00d0 00000000 		.4byte	.LFB24
 2930 00d4 40000000 		.4byte	.LFE24-.LFB24
 2931 00d8 00000000 		.4byte	.LFB25
 2932 00dc 9C000000 		.4byte	.LFE25-.LFB25
 2933 00e0 00000000 		.4byte	.LFB26
 2934 00e4 3C000000 		.4byte	.LFE26-.LFB26
 2935 00e8 00000000 		.4byte	.LFB27
 2936 00ec 28000000 		.4byte	.LFE27-.LFB27
 2937 00f0 00000000 		.4byte	.LFB28
 2938 00f4 28000000 		.4byte	.LFE28-.LFB28
 2939 00f8 00000000 		.4byte	0
 2940 00fc 00000000 		.4byte	0
 2941              		.section	.debug_ranges,"",%progbits
 2942              	.Ldebug_ranges0:
 2943 0000 00000000 		.4byte	.LFB0
 2944 0004 20000000 		.4byte	.LFE0
 2945 0008 00000000 		.4byte	.LFB1
 2946 000c 38000000 		.4byte	.LFE1
 2947 0010 00000000 		.4byte	.LFB2
 2948 0014 50000000 		.4byte	.LFE2
 2949 0018 00000000 		.4byte	.LFB3
 2950 001c 50000000 		.4byte	.LFE3
 2951 0020 00000000 		.4byte	.LFB4
 2952 0024 18000000 		.4byte	.LFE4
 2953 0028 00000000 		.4byte	.LFB5
ARM GAS  C:\Users\Yiquing\AppData\Local\Temp\ccF0cyIx.s 			page 82


 2954 002c 20000000 		.4byte	.LFE5
 2955 0030 00000000 		.4byte	.LFB6
 2956 0034 20000000 		.4byte	.LFE6
 2957 0038 00000000 		.4byte	.LFB7
 2958 003c 94000000 		.4byte	.LFE7
 2959 0040 00000000 		.4byte	.LFB8
 2960 0044 40000000 		.4byte	.LFE8
 2961 0048 00000000 		.4byte	.LFB9
 2962 004c BC000000 		.4byte	.LFE9
 2963 0050 00000000 		.4byte	.LFB10
 2964 0054 44000000 		.4byte	.LFE10
 2965 0058 00000000 		.4byte	.LFB11
 2966 005c 90000000 		.4byte	.LFE11
 2967 0060 00000000 		.4byte	.LFB12
 2968 0064 7C000000 		.4byte	.LFE12
 2969 0068 00000000 		.4byte	.LFB13
 2970 006c 14000000 		.4byte	.LFE13
 2971 0070 00000000 		.4byte	.LFB14
 2972 0074 20000000 		.4byte	.LFE14
 2973 0078 00000000 		.4byte	.LFB15
 2974 007c 20000000 		.4byte	.LFE15
 2975 0080 00000000 		.4byte	.LFB16
 2976 0084 20000000 		.4byte	.LFE16
 2977 0088 00000000 		.4byte	.LFB17
 2978 008c 2C000000 		.4byte	.LFE17
 2979 0090 00000000 		.4byte	.LFB18
 2980 0094 18000000 		.4byte	.LFE18
 2981 0098 00000000 		.4byte	.LFB19
 2982 009c 34000000 		.4byte	.LFE19
 2983 00a0 00000000 		.4byte	.LFB20
 2984 00a4 40000000 		.4byte	.LFE20
 2985 00a8 00000000 		.4byte	.LFB21
 2986 00ac 40000000 		.4byte	.LFE21
 2987 00b0 00000000 		.4byte	.LFB22
 2988 00b4 30000000 		.4byte	.LFE22
 2989 00b8 00000000 		.4byte	.LFB23
 2990 00bc 44000000 		.4byte	.LFE23
 2991 00c0 00000000 		.4byte	.LFB24
 2992 00c4 40000000 		.4byte	.LFE24
 2993 00c8 00000000 		.4byte	.LFB25
 2994 00cc 9C000000 		.4byte	.LFE25
 2995 00d0 00000000 		.4byte	.LFB26
 2996 00d4 3C000000 		.4byte	.LFE26
 2997 00d8 00000000 		.4byte	.LFB27
 2998 00dc 28000000 		.4byte	.LFE27
 2999 00e0 00000000 		.4byte	.LFB28
 3000 00e4 28000000 		.4byte	.LFE28
 3001 00e8 00000000 		.4byte	0
 3002 00ec 00000000 		.4byte	0
 3003              		.section	.debug_line,"",%progbits
 3004              	.Ldebug_line0:
 3005 0000 45030000 		.section	.debug_str,"MS",%progbits,1
 3005      02004F00 
 3005      00000201 
 3005      FB0E0D00 
 3005      01010101 
 3006              	.LASF10:
ARM GAS  C:\Users\Yiquing\AppData\Local\Temp\ccF0cyIx.s 			page 83


 3007 0000 75696E74 		.ascii	"uint16\000"
 3007      313600
 3008              	.LASF75:
 3009 0007 433A5C55 		.ascii	"C:\\Users\\Yiquing\\Documents\\works\\NanoNXT\\osdp"
 3009      73657273 
 3009      5C596971 
 3009      75696E67 
 3009      5C446F63 
 3010 0034 20746573 		.ascii	" testing\\YQ\\nanoNxt_ICM3\\nanoNxt_ICM3.cydsn\000"
 3010      74696E67 
 3010      5C59515C 
 3010      6E616E6F 
 3010      4E78745F 
 3011              	.LASF32:
 3012 0060 55415254 		.ascii	"UART_OSDP_READER_ReadRxStatus\000"
 3012      5F4F5344 
 3012      505F5245 
 3012      41444552 
 3012      5F526561 
 3013              	.LASF21:
 3014 007e 55415254 		.ascii	"UART_OSDP_READER_Enable\000"
 3014      5F4F5344 
 3014      505F5245 
 3014      41444552 
 3014      5F456E61 
 3015              	.LASF48:
 3016 0096 74784461 		.ascii	"txDataByte\000"
 3016      74614279 
 3016      746500
 3017              	.LASF46:
 3018 00a1 55415254 		.ascii	"UART_OSDP_READER_SetTxInterruptMode\000"
 3018      5F4F5344 
 3018      505F5245 
 3018      41444552 
 3018      5F536574 
 3019              	.LASF22:
 3020 00c5 55415254 		.ascii	"UART_OSDP_READER_Stop\000"
 3020      5F4F5344 
 3020      505F5245 
 3020      41444552 
 3020      5F53746F 
 3021              	.LASF68:
 3022 00db 55415254 		.ascii	"UART_OSDP_READER_rxBuffer\000"
 3022      5F4F5344 
 3022      505F5245 
 3022      41444552 
 3022      5F727842 
 3023              	.LASF53:
 3024 00f5 73747269 		.ascii	"string\000"
 3024      6E6700
 3025              	.LASF7:
 3026 00fc 6C6F6E67 		.ascii	"long long unsigned int\000"
 3026      206C6F6E 
 3026      6720756E 
 3026      7369676E 
 3026      65642069 
 3027              	.LASF24:
ARM GAS  C:\Users\Yiquing\AppData\Local\Temp\ccF0cyIx.s 			page 84


 3028 0113 55415254 		.ascii	"UART_OSDP_READER_WriteControlRegister\000"
 3028      5F4F5344 
 3028      505F5245 
 3028      41444552 
 3028      5F577269 
 3029              	.LASF65:
 3030 0139 55415254 		.ascii	"UART_OSDP_READER_LoadTxConfig\000"
 3030      5F4F5344 
 3030      505F5245 
 3030      41444552 
 3030      5F4C6F61 
 3031              	.LASF72:
 3032 0157 55415254 		.ascii	"UART_OSDP_READER_rxBufferOverflow\000"
 3032      5F4F5344 
 3032      505F5245 
 3032      41444552 
 3032      5F727842 
 3033              	.LASF6:
 3034 0179 6C6F6E67 		.ascii	"long long int\000"
 3034      206C6F6E 
 3034      6720696E 
 3034      7400
 3035              	.LASF0:
 3036 0187 7369676E 		.ascii	"signed char\000"
 3036      65642063 
 3036      68617200 
 3037              	.LASF70:
 3038 0193 55415254 		.ascii	"UART_OSDP_READER_rxBufferWrite\000"
 3038      5F4F5344 
 3038      505F5245 
 3038      41444552 
 3038      5F727842 
 3039              	.LASF4:
 3040 01b2 6C6F6E67 		.ascii	"long int\000"
 3040      20696E74 
 3040      00
 3041              	.LASF52:
 3042 01bb 55415254 		.ascii	"UART_OSDP_READER_PutString\000"
 3042      5F4F5344 
 3042      505F5245 
 3042      41444552 
 3042      5F507574 
 3043              	.LASF67:
 3044 01d6 55415254 		.ascii	"UART_OSDP_READER_errorStatus\000"
 3044      5F4F5344 
 3044      505F5245 
 3044      41444552 
 3044      5F657272 
 3045              	.LASF9:
 3046 01f3 75696E74 		.ascii	"uint8\000"
 3046      3800
 3047              	.LASF13:
 3048 01f9 646F7562 		.ascii	"double\000"
 3048      6C6500
 3049              	.LASF42:
 3050 0200 61646472 		.ascii	"addressMode\000"
 3050      6573734D 
ARM GAS  C:\Users\Yiquing\AppData\Local\Temp\ccF0cyIx.s 			page 85


 3050      6F646500 
 3051              	.LASF11:
 3052 020c 75696E74 		.ascii	"uint32\000"
 3052      333200
 3053              	.LASF26:
 3054 0213 636F6E74 		.ascii	"control\000"
 3054      726F6C00 
 3055              	.LASF47:
 3056 021b 55415254 		.ascii	"UART_OSDP_READER_WriteTxData\000"
 3056      5F4F5344 
 3056      505F5245 
 3056      41444552 
 3056      5F577269 
 3057              	.LASF74:
 3058 0238 2E5C4765 		.ascii	".\\Generated_Source\\PSoC5\\UART_OSDP_READER.c\000"
 3058      6E657261 
 3058      7465645F 
 3058      536F7572 
 3058      63655C50 
 3059              	.LASF71:
 3060 0264 55415254 		.ascii	"UART_OSDP_READER_rxBufferLoopDetect\000"
 3060      5F4F5344 
 3060      505F5245 
 3060      41444552 
 3060      5F727842 
 3061              	.LASF61:
 3062 0288 7265744D 		.ascii	"retMode\000"
 3062      6F646500 
 3063              	.LASF8:
 3064 0290 756E7369 		.ascii	"unsigned int\000"
 3064      676E6564 
 3064      20696E74 
 3064      00
 3065              	.LASF37:
 3066 029d 6C6F6345 		.ascii	"locErrorStatus\000"
 3066      72726F72 
 3066      53746174 
 3066      757300
 3067              	.LASF5:
 3068 02ac 6C6F6E67 		.ascii	"long unsigned int\000"
 3068      20756E73 
 3068      69676E65 
 3068      6420696E 
 3068      7400
 3069              	.LASF34:
 3070 02be 55415254 		.ascii	"UART_OSDP_READER_GetChar\000"
 3070      5F4F5344 
 3070      505F5245 
 3070      41444552 
 3070      5F476574 
 3071              	.LASF39:
 3072 02d7 73697A65 		.ascii	"size\000"
 3072      00
 3073              	.LASF3:
 3074 02dc 73686F72 		.ascii	"short unsigned int\000"
 3074      7420756E 
 3074      7369676E 
ARM GAS  C:\Users\Yiquing\AppData\Local\Temp\ccF0cyIx.s 			page 86


 3074      65642069 
 3074      6E7400
 3075              	.LASF54:
 3076 02ef 62756649 		.ascii	"bufIndex\000"
 3076      6E646578 
 3076      00
 3077              	.LASF59:
 3078 02f8 55415254 		.ascii	"UART_OSDP_READER_ClearTxBuffer\000"
 3078      5F4F5344 
 3078      505F5245 
 3078      41444552 
 3078      5F436C65 
 3079              	.LASF66:
 3080 0317 55415254 		.ascii	"UART_OSDP_READER_initVar\000"
 3080      5F4F5344 
 3080      505F5245 
 3080      41444552 
 3080      5F696E69 
 3081              	.LASF27:
 3082 0330 696E7453 		.ascii	"intSrc\000"
 3082      726300
 3083              	.LASF31:
 3084 0337 55415254 		.ascii	"UART_OSDP_READER_ReadRxData\000"
 3084      5F4F5344 
 3084      505F5245 
 3084      41444552 
 3084      5F526561 
 3085              	.LASF20:
 3086 0353 55415254 		.ascii	"UART_OSDP_READER_Init\000"
 3086      5F4F5344 
 3086      505F5245 
 3086      41444552 
 3086      5F496E69 
 3087              	.LASF51:
 3088 0369 55415254 		.ascii	"UART_OSDP_READER_PutChar\000"
 3088      5F4F5344 
 3088      505F5245 
 3088      41444552 
 3088      5F507574 
 3089              	.LASF17:
 3090 0382 72656733 		.ascii	"reg32\000"
 3090      3200
 3091              	.LASF62:
 3092 0388 746D7053 		.ascii	"tmpStat\000"
 3092      74617400 
 3093              	.LASF19:
 3094 0390 55415254 		.ascii	"UART_OSDP_READER_Start\000"
 3094      5F4F5344 
 3094      505F5245 
 3094      41444552 
 3094      5F537461 
 3095              	.LASF18:
 3096 03a7 73697A65 		.ascii	"sizetype\000"
 3096      74797065 
 3096      00
 3097              	.LASF44:
 3098 03b0 61646472 		.ascii	"address\000"
ARM GAS  C:\Users\Yiquing\AppData\Local\Temp\ccF0cyIx.s 			page 87


 3098      65737300 
 3099              	.LASF63:
 3100 03b8 55415254 		.ascii	"UART_OSDP_READER_SetTxAddressMode\000"
 3100      5F4F5344 
 3100      505F5245 
 3100      41444552 
 3100      5F536574 
 3101              	.LASF73:
 3102 03da 474E5520 		.ascii	"GNU C 4.8.4 20140526 (release) [ARM/embedded-4_8-br"
 3102      4320342E 
 3102      382E3420 
 3102      32303134 
 3102      30353236 
 3103 040d 616E6368 		.ascii	"anch revision 211358] -mcpu=cortex-m3 -mthumb -g -O"
 3103      20726576 
 3103      6973696F 
 3103      6E203231 
 3103      31333538 
 3104 0440 30202D66 		.ascii	"0 -ffunction-sections\000"
 3104      66756E63 
 3104      74696F6E 
 3104      2D736563 
 3104      74696F6E 
 3105              	.LASF30:
 3106 0456 6C6F6352 		.ascii	"locRxBufferWrite\000"
 3106      78427566 
 3106      66657257 
 3106      72697465 
 3106      00
 3107              	.LASF35:
 3108 0467 72785374 		.ascii	"rxStatus\000"
 3108      61747573 
 3108      00
 3109              	.LASF57:
 3110 0470 55415254 		.ascii	"UART_OSDP_READER_PutCRLF\000"
 3110      5F4F5344 
 3110      505F5245 
 3110      41444552 
 3110      5F507574 
 3111              	.LASF12:
 3112 0489 666C6F61 		.ascii	"float\000"
 3112      7400
 3113              	.LASF38:
 3114 048f 55415254 		.ascii	"UART_OSDP_READER_GetRxBufferSize\000"
 3114      5F4F5344 
 3114      505F5245 
 3114      41444552 
 3114      5F476574 
 3115              	.LASF16:
 3116 04b0 72656738 		.ascii	"reg8\000"
 3116      00
 3117              	.LASF1:
 3118 04b5 756E7369 		.ascii	"unsigned char\000"
 3118      676E6564 
 3118      20636861 
 3118      7200
 3119              	.LASF49:
ARM GAS  C:\Users\Yiquing\AppData\Local\Temp\ccF0cyIx.s 			page 88


 3120 04c3 55415254 		.ascii	"UART_OSDP_READER_ReadControlRegister\000"
 3120      5F4F5344 
 3120      505F5245 
 3120      41444552 
 3120      5F526561 
 3121              	.LASF2:
 3122 04e8 73686F72 		.ascii	"short int\000"
 3122      7420696E 
 3122      7400
 3123              	.LASF69:
 3124 04f2 55415254 		.ascii	"UART_OSDP_READER_rxBufferRead\000"
 3124      5F4F5344 
 3124      505F5245 
 3124      41444552 
 3124      5F727842 
 3125              	.LASF36:
 3126 0510 55415254 		.ascii	"UART_OSDP_READER_GetByte\000"
 3126      5F4F5344 
 3126      505F5245 
 3126      41444552 
 3126      5F476574 
 3127              	.LASF56:
 3128 0529 62797465 		.ascii	"byteCount\000"
 3128      436F756E 
 3128      7400
 3129              	.LASF64:
 3130 0533 55415254 		.ascii	"UART_OSDP_READER_LoadRxConfig\000"
 3130      5F4F5344 
 3130      505F5245 
 3130      41444552 
 3130      5F4C6F61 
 3131              	.LASF50:
 3132 0551 55415254 		.ascii	"UART_OSDP_READER_ReadTxStatus\000"
 3132      5F4F5344 
 3132      505F5245 
 3132      41444552 
 3132      5F526561 
 3133              	.LASF41:
 3134 056f 55415254 		.ascii	"UART_OSDP_READER_SetRxAddressMode\000"
 3134      5F4F5344 
 3134      505F5245 
 3134      41444552 
 3134      5F536574 
 3135              	.LASF28:
 3136 0591 72784461 		.ascii	"rxData\000"
 3136      746100
 3137              	.LASF45:
 3138 0598 55415254 		.ascii	"UART_OSDP_READER_SetRxAddress2\000"
 3138      5F4F5344 
 3138      505F5245 
 3138      41444552 
 3138      5F536574 
 3139              	.LASF25:
 3140 05b7 55415254 		.ascii	"UART_OSDP_READER_SetRxInterruptMode\000"
 3140      5F4F5344 
 3140      505F5245 
 3140      41444552 
ARM GAS  C:\Users\Yiquing\AppData\Local\Temp\ccF0cyIx.s 			page 89


 3140      5F536574 
 3141              	.LASF43:
 3142 05db 55415254 		.ascii	"UART_OSDP_READER_SetRxAddress1\000"
 3142      5F4F5344 
 3142      505F5245 
 3142      41444552 
 3142      5F536574 
 3143              	.LASF15:
 3144 05fa 63686172 		.ascii	"char\000"
 3144      00
 3145              	.LASF14:
 3146 05ff 63686172 		.ascii	"char8\000"
 3146      3800
 3147              	.LASF58:
 3148 0605 55415254 		.ascii	"UART_OSDP_READER_GetTxBufferSize\000"
 3148      5F4F5344 
 3148      505F5245 
 3148      41444552 
 3148      5F476574 
 3149              	.LASF55:
 3150 0626 55415254 		.ascii	"UART_OSDP_READER_PutArray\000"
 3150      5F4F5344 
 3150      505F5245 
 3150      41444552 
 3150      5F507574 
 3151              	.LASF40:
 3152 0640 55415254 		.ascii	"UART_OSDP_READER_ClearRxBuffer\000"
 3152      5F4F5344 
 3152      505F5245 
 3152      41444552 
 3152      5F436C65 
 3153              	.LASF29:
 3154 065f 6C6F6352 		.ascii	"locRxBufferRead\000"
 3154      78427566 
 3154      66657252 
 3154      65616400 
 3155              	.LASF23:
 3156 066f 656E6162 		.ascii	"enableInterrupts\000"
 3156      6C65496E 
 3156      74657272 
 3156      75707473 
 3156      00
 3157              	.LASF33:
 3158 0680 73746174 		.ascii	"status\000"
 3158      757300
 3159              	.LASF60:
 3160 0687 55415254 		.ascii	"UART_OSDP_READER_SendBreak\000"
 3160      5F4F5344 
 3160      505F5245 
 3160      41444552 
 3160      5F53656E 
 3161              		.ident	"GCC: (GNU Tools for ARM Embedded Processors) 4.8.4 20140526 (release) [ARM/embedded-4_8-br
