ARM GAS  C:\Users\yqh\AppData\Local\Temp\ccVgexcN.s 			page 1


   1              		.syntax unified
   2              		.cpu cortex-m3
   3              		.fpu softvfp
   4              		.eabi_attribute 20, 1
   5              		.eabi_attribute 21, 1
   6              		.eabi_attribute 23, 3
   7              		.eabi_attribute 24, 1
   8              		.eabi_attribute 25, 1
   9              		.eabi_attribute 26, 1
  10              		.eabi_attribute 30, 4
  11              		.eabi_attribute 34, 1
  12              		.eabi_attribute 18, 4
  13              		.thumb
  14              		.file	"BootloadableI2C.c"
  15              		.text
  16              	.Ltext0:
  17              		.cfi_sections	.debug_frame
  18              		.section	.text.BootloadableI2C_Load,"ax",%progbits
  19              		.align	1
  20              		.global	BootloadableI2C_Load
  21              		.thumb
  22              		.thumb_func
  23              		.type	BootloadableI2C_Load, %function
  24              	BootloadableI2C_Load:
  25              	.LFB0:
  26              		.file 1 "Generated_Source\\PSoC5\\BootloadableI2C.c"
   1:Generated_Source\PSoC5/BootloadableI2C.c **** /*******************************************************************************
   2:Generated_Source\PSoC5/BootloadableI2C.c **** * File Name: BootloadableI2C.c
   3:Generated_Source\PSoC5/BootloadableI2C.c **** * Version 1.20
   4:Generated_Source\PSoC5/BootloadableI2C.c **** *
   5:Generated_Source\PSoC5/BootloadableI2C.c **** *  Description:
   6:Generated_Source\PSoC5/BootloadableI2C.c **** *   Provides an API for the Bootloadable application. The API includes a
   7:Generated_Source\PSoC5/BootloadableI2C.c **** *   single function for starting bootloader.
   8:Generated_Source\PSoC5/BootloadableI2C.c **** *
   9:Generated_Source\PSoC5/BootloadableI2C.c **** ********************************************************************************
  10:Generated_Source\PSoC5/BootloadableI2C.c **** * Copyright 2008-2013, Cypress Semiconductor Corporation.  All rights reserved.
  11:Generated_Source\PSoC5/BootloadableI2C.c **** * You may use this file only in accordance with the license, terms, conditions,
  12:Generated_Source\PSoC5/BootloadableI2C.c **** * disclaimers, and limitations in the end user license agreement accompanying
  13:Generated_Source\PSoC5/BootloadableI2C.c **** * the software package with which this file was provided.
  14:Generated_Source\PSoC5/BootloadableI2C.c **** *******************************************************************************/
  15:Generated_Source\PSoC5/BootloadableI2C.c **** 
  16:Generated_Source\PSoC5/BootloadableI2C.c **** #include "BootloadableI2C.h"
  17:Generated_Source\PSoC5/BootloadableI2C.c **** 
  18:Generated_Source\PSoC5/BootloadableI2C.c **** 
  19:Generated_Source\PSoC5/BootloadableI2C.c **** /*******************************************************************************
  20:Generated_Source\PSoC5/BootloadableI2C.c **** * Function Name: BootloadableI2C_Load
  21:Generated_Source\PSoC5/BootloadableI2C.c **** ********************************************************************************
  22:Generated_Source\PSoC5/BootloadableI2C.c **** * Summary:
  23:Generated_Source\PSoC5/BootloadableI2C.c **** *  Begins the bootloading algorithm, downloading a new ACD image from the host.
  24:Generated_Source\PSoC5/BootloadableI2C.c **** *
  25:Generated_Source\PSoC5/BootloadableI2C.c **** * Parameters:
  26:Generated_Source\PSoC5/BootloadableI2C.c **** *  None
  27:Generated_Source\PSoC5/BootloadableI2C.c **** *
  28:Generated_Source\PSoC5/BootloadableI2C.c **** * Returns:
  29:Generated_Source\PSoC5/BootloadableI2C.c **** *  This method will never return. It will load a new application and reset
  30:Generated_Source\PSoC5/BootloadableI2C.c **** *  the device.
  31:Generated_Source\PSoC5/BootloadableI2C.c **** *
ARM GAS  C:\Users\yqh\AppData\Local\Temp\ccVgexcN.s 			page 2


  32:Generated_Source\PSoC5/BootloadableI2C.c **** *******************************************************************************/
  33:Generated_Source\PSoC5/BootloadableI2C.c **** void BootloadableI2C_Load(void) 
  34:Generated_Source\PSoC5/BootloadableI2C.c **** {
  27              		.loc 1 34 0
  28              		.cfi_startproc
  29              		@ args = 0, pretend = 0, frame = 0
  30              		@ frame_needed = 0, uses_anonymous_args = 0
  31              		@ link register save eliminated.
  35:Generated_Source\PSoC5/BootloadableI2C.c ****     /* Schedule Bootloader to start after reset */
  36:Generated_Source\PSoC5/BootloadableI2C.c ****     BootloadableI2C_SET_RUN_TYPE(BootloadableI2C_START_BTLDR);
  32              		.loc 1 36 0
  33 0000 024B     		ldr	r3, .L2
  34 0002 4022     		movs	r2, #64
  35 0004 1A70     		strb	r2, [r3]
  37:Generated_Source\PSoC5/BootloadableI2C.c **** 
  38:Generated_Source\PSoC5/BootloadableI2C.c ****     CySoftwareReset();
  36              		.loc 1 38 0
  37 0006 FFF7FEBF 		b	CySoftwareReset
  38              	.LVL0:
  39              	.L3:
  40 000a 00BF     		.align	2
  41              	.L2:
  42 000c FA460040 		.word	1073759994
  43              		.cfi_endproc
  44              	.LFE0:
  45              		.size	BootloadableI2C_Load, .-BootloadableI2C_Load
  46              		.section	.text.BootloadableI2C_SetFlashByte,"ax",%progbits
  47              		.align	1
  48              		.global	BootloadableI2C_SetFlashByte
  49              		.thumb
  50              		.thumb_func
  51              		.type	BootloadableI2C_SetFlashByte, %function
  52              	BootloadableI2C_SetFlashByte:
  53              	.LFB1:
  39:Generated_Source\PSoC5/BootloadableI2C.c **** }
  40:Generated_Source\PSoC5/BootloadableI2C.c **** 
  41:Generated_Source\PSoC5/BootloadableI2C.c **** 
  42:Generated_Source\PSoC5/BootloadableI2C.c **** /*******************************************************************************
  43:Generated_Source\PSoC5/BootloadableI2C.c **** * Function Name: BootloadableI2C_SetFlashByte
  44:Generated_Source\PSoC5/BootloadableI2C.c **** ********************************************************************************
  45:Generated_Source\PSoC5/BootloadableI2C.c **** * Summary:
  46:Generated_Source\PSoC5/BootloadableI2C.c **** *  Sets byte at specified address in Flash.
  47:Generated_Source\PSoC5/BootloadableI2C.c **** *
  48:Generated_Source\PSoC5/BootloadableI2C.c **** * Parameters:
  49:Generated_Source\PSoC5/BootloadableI2C.c **** *  None
  50:Generated_Source\PSoC5/BootloadableI2C.c **** *
  51:Generated_Source\PSoC5/BootloadableI2C.c **** * Returns:
  52:Generated_Source\PSoC5/BootloadableI2C.c **** *  None
  53:Generated_Source\PSoC5/BootloadableI2C.c **** *
  54:Generated_Source\PSoC5/BootloadableI2C.c **** *******************************************************************************/
  55:Generated_Source\PSoC5/BootloadableI2C.c **** void BootloadableI2C_SetFlashByte(uint32 address, uint8 runType) 
  56:Generated_Source\PSoC5/BootloadableI2C.c **** {
  54              		.loc 1 56 0
  55              		.cfi_startproc
  56              		@ args = 0, pretend = 0, frame = 256
  57              		@ frame_needed = 0, uses_anonymous_args = 0
  58              	.LVL1:
ARM GAS  C:\Users\yqh\AppData\Local\Temp\ccVgexcN.s 			page 3


  59 0000 0346     		mov	r3, r0
  60 0002 F0B5     		push	{r4, r5, r6, r7, lr}
  61              		.cfi_def_cfa_offset 20
  62              		.cfi_offset 4, -20
  63              		.cfi_offset 5, -16
  64              		.cfi_offset 6, -12
  65              		.cfi_offset 7, -8
  66              		.cfi_offset 14, -4
  57:Generated_Source\PSoC5/BootloadableI2C.c ****     uint32 flsAddr = address - CYDEV_FLASH_BASE;
  58:Generated_Source\PSoC5/BootloadableI2C.c ****     uint8 rowData[CYDEV_FLS_ROW_SIZE];
  59:Generated_Source\PSoC5/BootloadableI2C.c **** 
  60:Generated_Source\PSoC5/BootloadableI2C.c ****     #if !(CY_PSOC4)
  61:Generated_Source\PSoC5/BootloadableI2C.c ****         uint8 arrayId = (uint8)(flsAddr / CYDEV_FLS_SECTOR_SIZE);
  62:Generated_Source\PSoC5/BootloadableI2C.c ****     #endif  /* !(CY_PSOC4) */
  63:Generated_Source\PSoC5/BootloadableI2C.c **** 
  64:Generated_Source\PSoC5/BootloadableI2C.c ****     uint16 rowNum = (uint16)((flsAddr % CYDEV_FLS_SECTOR_SIZE) / CYDEV_FLS_ROW_SIZE);
  65:Generated_Source\PSoC5/BootloadableI2C.c ****     uint32 baseAddr = address - (address % CYDEV_FLS_ROW_SIZE);
  67              		.loc 1 65 0
  68 0004 23F0FF05 		bic	r5, r3, #255
  56:Generated_Source\PSoC5/BootloadableI2C.c ****     uint32 flsAddr = address - CYDEV_FLASH_BASE;
  69              		.loc 1 56 0
  70 0008 0E46     		mov	r6, r1
  71 000a C1B0     		sub	sp, sp, #260
  72              		.cfi_def_cfa_offset 280
  61:Generated_Source\PSoC5/BootloadableI2C.c ****     #endif  /* !(CY_PSOC4) */
  73              		.loc 1 61 0
  74 000c C0F30740 		ubfx	r0, r0, #16, #8
  75              	.LVL2:
  64:Generated_Source\PSoC5/BootloadableI2C.c ****     uint32 baseAddr = address - (address % CYDEV_FLS_ROW_SIZE);
  76              		.loc 1 64 0
  77 0010 C3F30721 		ubfx	r1, r3, #8, #8
  78              	.LVL3:
  79 0014 6C1E     		subs	r4, r5, #1
  80 0016 05F1FF07 		add	r7, r5, #255
  81              	.LVL4:
  82              	.L5:
  83 001a 6A46     		mov	r2, sp
  66:Generated_Source\PSoC5/BootloadableI2C.c ****     uint16 idx;
  67:Generated_Source\PSoC5/BootloadableI2C.c **** 
  68:Generated_Source\PSoC5/BootloadableI2C.c **** 
  69:Generated_Source\PSoC5/BootloadableI2C.c ****     for (idx = 0u; idx < CYDEV_FLS_ROW_SIZE; idx++)
  70:Generated_Source\PSoC5/BootloadableI2C.c ****     {
  71:Generated_Source\PSoC5/BootloadableI2C.c ****         rowData[idx] = BootloadableI2C_GET_CODE_DATA(baseAddr + idx);
  84              		.loc 1 71 0 discriminator 3
  85 001c 14F801CF 		ldrb	ip, [r4, #1]!	@ zero_extendqisi2
  86              	.LVL5:
  87 0020 C5EB020E 		rsb	lr, r5, r2
  69:Generated_Source\PSoC5/BootloadableI2C.c ****     {
  88              		.loc 1 69 0 discriminator 3
  89 0024 BC42     		cmp	r4, r7
  90              		.loc 1 71 0 discriminator 3
  91 0026 0EF804C0 		strb	ip, [lr, r4]
  92              	.LVL6:
  69:Generated_Source\PSoC5/BootloadableI2C.c ****     {
  93              		.loc 1 69 0 discriminator 3
  94 002a F6D1     		bne	.L5
  72:Generated_Source\PSoC5/BootloadableI2C.c ****     }
ARM GAS  C:\Users\yqh\AppData\Local\Temp\ccVgexcN.s 			page 4


  73:Generated_Source\PSoC5/BootloadableI2C.c ****     rowData[address % CYDEV_FLS_ROW_SIZE] = runType;
  95              		.loc 1 73 0
  96 002c DBB2     		uxtb	r3, r3
  97              	.LVL7:
  98 002e 0DF80360 		strb	r6, [sp, r3]
  74:Generated_Source\PSoC5/BootloadableI2C.c **** 
  75:Generated_Source\PSoC5/BootloadableI2C.c **** 
  76:Generated_Source\PSoC5/BootloadableI2C.c ****     #if(CY_PSOC4)
  77:Generated_Source\PSoC5/BootloadableI2C.c ****         (void) CySysFlashWriteRow((uint32)rowNum, rowData);
  78:Generated_Source\PSoC5/BootloadableI2C.c ****     #else
  79:Generated_Source\PSoC5/BootloadableI2C.c ****         (void) CyWriteRowData(arrayId, rowNum, rowData);
  99              		.loc 1 79 0
 100 0032 FFF7FEFF 		bl	CyWriteRowData
 101              	.LVL8:
  80:Generated_Source\PSoC5/BootloadableI2C.c ****     #endif  /* (CY_PSOC4) */
  81:Generated_Source\PSoC5/BootloadableI2C.c **** }
 102              		.loc 1 81 0
 103 0036 41B0     		add	sp, sp, #260
 104              		.cfi_def_cfa_offset 20
 105              		@ sp needed
 106 0038 F0BD     		pop	{r4, r5, r6, r7, pc}
 107              		.cfi_endproc
 108              	.LFE1:
 109              		.size	BootloadableI2C_SetFlashByte, .-BootloadableI2C_SetFlashByte
 110              		.text
 111              	.Letext0:
 112              		.file 2 "Generated_Source\\PSoC5\\cytypes.h"
 113              		.file 3 "Generated_Source\\PSoC5\\CyLib.h"
 114              		.file 4 "Generated_Source\\PSoC5\\CyFlash.h"