ARM GAS  C:\Users\yqh\AppData\Local\Temp\ccqWcweW.s 			page 1


   1              		.syntax unified
   2              		.cpu cortex-m3
   3              		.fpu softvfp
   4              		.eabi_attribute 20, 1
   5              		.eabi_attribute 21, 1
   6              		.eabi_attribute 23, 3
   7              		.eabi_attribute 24, 1
   8              		.eabi_attribute 25, 1
   9              		.eabi_attribute 26, 1
  10              		.eabi_attribute 30, 4
  11              		.eabi_attribute 34, 1
  12              		.eabi_attribute 18, 4
  13              		.thumb
  14              		.file	"cyfitter_cfg.c"
  15              		.text
  16              	.Ltext0:
  17              		.cfi_sections	.debug_frame
  18              		.section	.text.SetAnalogRoutingPumps,"ax",%progbits
  19              		.align	1
  20              		.global	SetAnalogRoutingPumps
  21              		.thumb
  22              		.thumb_func
  23              		.type	SetAnalogRoutingPumps, %function
  24              	SetAnalogRoutingPumps:
  25              	.LFB7:
  26              		.file 1 "Generated_Source\\PSoC5\\cyfitter_cfg.c"
   1:Generated_Source\PSoC5/cyfitter_cfg.c **** /*******************************************************************************
   2:Generated_Source\PSoC5/cyfitter_cfg.c **** * File Name: cyfitter_cfg.c
   3:Generated_Source\PSoC5/cyfitter_cfg.c **** * 
   4:Generated_Source\PSoC5/cyfitter_cfg.c **** * PSoC Creator  4.0 Update 1
   5:Generated_Source\PSoC5/cyfitter_cfg.c **** *
   6:Generated_Source\PSoC5/cyfitter_cfg.c **** * Description:
   7:Generated_Source\PSoC5/cyfitter_cfg.c **** * This file contains device initialization code.
   8:Generated_Source\PSoC5/cyfitter_cfg.c **** * Except for the user defined sections in CyClockStartupError(), this file should not be modified.
   9:Generated_Source\PSoC5/cyfitter_cfg.c **** * This file is automatically generated by PSoC Creator.
  10:Generated_Source\PSoC5/cyfitter_cfg.c **** *
  11:Generated_Source\PSoC5/cyfitter_cfg.c **** ********************************************************************************
  12:Generated_Source\PSoC5/cyfitter_cfg.c **** * Copyright (c) 2007-2016 Cypress Semiconductor.  All rights reserved.
  13:Generated_Source\PSoC5/cyfitter_cfg.c **** * You may use this file only in accordance with the license, terms, conditions, 
  14:Generated_Source\PSoC5/cyfitter_cfg.c **** * disclaimers, and limitations in the end user license agreement accompanying 
  15:Generated_Source\PSoC5/cyfitter_cfg.c **** * the software package with which this file was provided.
  16:Generated_Source\PSoC5/cyfitter_cfg.c **** ********************************************************************************/
  17:Generated_Source\PSoC5/cyfitter_cfg.c **** 
  18:Generated_Source\PSoC5/cyfitter_cfg.c **** #include <string.h>
  19:Generated_Source\PSoC5/cyfitter_cfg.c **** #include "cytypes.h"
  20:Generated_Source\PSoC5/cyfitter_cfg.c **** #include "cydevice_trm.h"
  21:Generated_Source\PSoC5/cyfitter_cfg.c **** #include "cyfitter.h"
  22:Generated_Source\PSoC5/cyfitter_cfg.c **** #include "CyLib.h"
  23:Generated_Source\PSoC5/cyfitter_cfg.c **** #include "cyfitter_cfg.h"
  24:Generated_Source\PSoC5/cyfitter_cfg.c **** 
  25:Generated_Source\PSoC5/cyfitter_cfg.c **** #define CY_NEED_CYCLOCKSTARTUPERROR 1
  26:Generated_Source\PSoC5/cyfitter_cfg.c **** 
  27:Generated_Source\PSoC5/cyfitter_cfg.c **** 
  28:Generated_Source\PSoC5/cyfitter_cfg.c **** #if defined(__GNUC__) || defined(__ARMCC_VERSION)
  29:Generated_Source\PSoC5/cyfitter_cfg.c ****     #define CYPACKED 
  30:Generated_Source\PSoC5/cyfitter_cfg.c ****     #define CYPACKED_ATTR __attribute__ ((packed))
  31:Generated_Source\PSoC5/cyfitter_cfg.c ****     #define CYALIGNED __attribute__ ((aligned))
ARM GAS  C:\Users\yqh\AppData\Local\Temp\ccqWcweW.s 			page 2


  32:Generated_Source\PSoC5/cyfitter_cfg.c ****     #define CY_CFG_UNUSED __attribute__ ((unused))
  33:Generated_Source\PSoC5/cyfitter_cfg.c ****     #ifndef CY_CFG_SECTION
  34:Generated_Source\PSoC5/cyfitter_cfg.c ****         #define CY_CFG_SECTION __attribute__ ((section(".psocinit")))
  35:Generated_Source\PSoC5/cyfitter_cfg.c ****     #endif
  36:Generated_Source\PSoC5/cyfitter_cfg.c ****     
  37:Generated_Source\PSoC5/cyfitter_cfg.c ****     #if defined(__ARMCC_VERSION)
  38:Generated_Source\PSoC5/cyfitter_cfg.c ****         #define CY_CFG_MEMORY_BARRIER() __memory_changed()
  39:Generated_Source\PSoC5/cyfitter_cfg.c ****     #else
  40:Generated_Source\PSoC5/cyfitter_cfg.c ****         #define CY_CFG_MEMORY_BARRIER() __sync_synchronize()
  41:Generated_Source\PSoC5/cyfitter_cfg.c ****     #endif
  42:Generated_Source\PSoC5/cyfitter_cfg.c ****     
  43:Generated_Source\PSoC5/cyfitter_cfg.c **** #elif defined(__ICCARM__)
  44:Generated_Source\PSoC5/cyfitter_cfg.c ****     #include <intrinsics.h>
  45:Generated_Source\PSoC5/cyfitter_cfg.c **** 
  46:Generated_Source\PSoC5/cyfitter_cfg.c ****     #define CYPACKED __packed
  47:Generated_Source\PSoC5/cyfitter_cfg.c ****     #define CYPACKED_ATTR 
  48:Generated_Source\PSoC5/cyfitter_cfg.c ****     #define CYALIGNED _Pragma("data_alignment=4")
  49:Generated_Source\PSoC5/cyfitter_cfg.c ****     #define CY_CFG_UNUSED _Pragma("diag_suppress=Pe177")
  50:Generated_Source\PSoC5/cyfitter_cfg.c ****     #define CY_CFG_SECTION _Pragma("location=\".psocinit\"")
  51:Generated_Source\PSoC5/cyfitter_cfg.c ****     
  52:Generated_Source\PSoC5/cyfitter_cfg.c ****     #define CY_CFG_MEMORY_BARRIER() __DMB()
  53:Generated_Source\PSoC5/cyfitter_cfg.c ****     
  54:Generated_Source\PSoC5/cyfitter_cfg.c **** #else
  55:Generated_Source\PSoC5/cyfitter_cfg.c ****     #error Unsupported toolchain
  56:Generated_Source\PSoC5/cyfitter_cfg.c **** #endif
  57:Generated_Source\PSoC5/cyfitter_cfg.c **** 
  58:Generated_Source\PSoC5/cyfitter_cfg.c **** #if defined(__ARMCC_VERSION)
  59:Generated_Source\PSoC5/cyfitter_cfg.c ****     extern unsigned int Load$$LR$$CYCONFIGECC$$Base;
  60:Generated_Source\PSoC5/cyfitter_cfg.c ****     #pragma diag_suppress 170,1296
  61:Generated_Source\PSoC5/cyfitter_cfg.c ****     #define CYDEV_ECC_VIRT_BASE 0x80000000
  62:Generated_Source\PSoC5/cyfitter_cfg.c ****     #define CYAPP_ECC_OFFSET ((uint32)&Load$$LR$$CYCONFIGECC$$Base - CYDEV_ECC_VIRT_BASE)
  63:Generated_Source\PSoC5/cyfitter_cfg.c **** #elif defined (__GNUC__) || defined (__ICCARM__)
  64:Generated_Source\PSoC5/cyfitter_cfg.c ****     extern int CY_ECC_OFFSET;
  65:Generated_Source\PSoC5/cyfitter_cfg.c ****     #define CYAPP_ECC_OFFSET ((uint32)&CY_ECC_OFFSET)
  66:Generated_Source\PSoC5/cyfitter_cfg.c **** #endif
  67:Generated_Source\PSoC5/cyfitter_cfg.c **** 
  68:Generated_Source\PSoC5/cyfitter_cfg.c **** CY_CFG_UNUSED
  69:Generated_Source\PSoC5/cyfitter_cfg.c **** static void CYMEMZERO(void *s, size_t n);
  70:Generated_Source\PSoC5/cyfitter_cfg.c **** CY_CFG_UNUSED
  71:Generated_Source\PSoC5/cyfitter_cfg.c **** static void CYMEMZERO(void *s, size_t n)
  72:Generated_Source\PSoC5/cyfitter_cfg.c **** {
  73:Generated_Source\PSoC5/cyfitter_cfg.c **** 	(void)memset(s, 0, n);
  74:Generated_Source\PSoC5/cyfitter_cfg.c **** }
  75:Generated_Source\PSoC5/cyfitter_cfg.c **** CY_CFG_UNUSED
  76:Generated_Source\PSoC5/cyfitter_cfg.c **** static void CYCONFIGCPY(void *dest, const void *src, size_t n);
  77:Generated_Source\PSoC5/cyfitter_cfg.c **** CY_CFG_UNUSED
  78:Generated_Source\PSoC5/cyfitter_cfg.c **** static void CYCONFIGCPY(void *dest, const void *src, size_t n)
  79:Generated_Source\PSoC5/cyfitter_cfg.c **** {
  80:Generated_Source\PSoC5/cyfitter_cfg.c **** 	(void)memcpy(dest, src, n);
  81:Generated_Source\PSoC5/cyfitter_cfg.c **** }
  82:Generated_Source\PSoC5/cyfitter_cfg.c **** CY_CFG_UNUSED
  83:Generated_Source\PSoC5/cyfitter_cfg.c **** static void CYCONFIGCPYCODE(void *dest, const void *src, size_t n);
  84:Generated_Source\PSoC5/cyfitter_cfg.c **** CY_CFG_UNUSED
  85:Generated_Source\PSoC5/cyfitter_cfg.c **** static void CYCONFIGCPYCODE(void *dest, const void *src, size_t n)
  86:Generated_Source\PSoC5/cyfitter_cfg.c **** {
  87:Generated_Source\PSoC5/cyfitter_cfg.c **** 	(void)memcpy(dest, src, n);
  88:Generated_Source\PSoC5/cyfitter_cfg.c **** }
ARM GAS  C:\Users\yqh\AppData\Local\Temp\ccqWcweW.s 			page 3


  89:Generated_Source\PSoC5/cyfitter_cfg.c **** 
  90:Generated_Source\PSoC5/cyfitter_cfg.c **** 
  91:Generated_Source\PSoC5/cyfitter_cfg.c **** 
  92:Generated_Source\PSoC5/cyfitter_cfg.c **** 
  93:Generated_Source\PSoC5/cyfitter_cfg.c **** /* Clock startup error codes                                                   */
  94:Generated_Source\PSoC5/cyfitter_cfg.c **** #define CYCLOCKSTART_NO_ERROR    0u
  95:Generated_Source\PSoC5/cyfitter_cfg.c **** #define CYCLOCKSTART_XTAL_ERROR  1u
  96:Generated_Source\PSoC5/cyfitter_cfg.c **** #define CYCLOCKSTART_32KHZ_ERROR 2u
  97:Generated_Source\PSoC5/cyfitter_cfg.c **** #define CYCLOCKSTART_PLL_ERROR   3u
  98:Generated_Source\PSoC5/cyfitter_cfg.c **** 
  99:Generated_Source\PSoC5/cyfitter_cfg.c **** 
 100:Generated_Source\PSoC5/cyfitter_cfg.c **** #ifdef CY_NEED_CYCLOCKSTARTUPERROR
 101:Generated_Source\PSoC5/cyfitter_cfg.c **** /*******************************************************************************
 102:Generated_Source\PSoC5/cyfitter_cfg.c **** * Function Name: CyClockStartupError
 103:Generated_Source\PSoC5/cyfitter_cfg.c **** ********************************************************************************
 104:Generated_Source\PSoC5/cyfitter_cfg.c **** * Summary:
 105:Generated_Source\PSoC5/cyfitter_cfg.c **** *  If an error is encountered during clock configuration (crystal startup error,
 106:Generated_Source\PSoC5/cyfitter_cfg.c **** *  PLL lock error, etc.), the system will end up here.  Unless reimplemented by
 107:Generated_Source\PSoC5/cyfitter_cfg.c **** *  the customer, this function will stop in an infinite loop.
 108:Generated_Source\PSoC5/cyfitter_cfg.c **** *
 109:Generated_Source\PSoC5/cyfitter_cfg.c **** * Parameters:
 110:Generated_Source\PSoC5/cyfitter_cfg.c **** *   void
 111:Generated_Source\PSoC5/cyfitter_cfg.c **** *
 112:Generated_Source\PSoC5/cyfitter_cfg.c **** * Return:
 113:Generated_Source\PSoC5/cyfitter_cfg.c **** *   void
 114:Generated_Source\PSoC5/cyfitter_cfg.c **** *
 115:Generated_Source\PSoC5/cyfitter_cfg.c **** *******************************************************************************/
 116:Generated_Source\PSoC5/cyfitter_cfg.c **** CY_CFG_UNUSED
 117:Generated_Source\PSoC5/cyfitter_cfg.c **** static void CyClockStartupError(uint8 errorCode);
 118:Generated_Source\PSoC5/cyfitter_cfg.c **** CY_CFG_UNUSED
 119:Generated_Source\PSoC5/cyfitter_cfg.c **** static void CyClockStartupError(uint8 errorCode)
 120:Generated_Source\PSoC5/cyfitter_cfg.c **** {
 121:Generated_Source\PSoC5/cyfitter_cfg.c ****     /* To remove the compiler warning if errorCode not used.                */
 122:Generated_Source\PSoC5/cyfitter_cfg.c ****     errorCode = errorCode;
 123:Generated_Source\PSoC5/cyfitter_cfg.c **** 
 124:Generated_Source\PSoC5/cyfitter_cfg.c ****     /* If we have a clock startup error (bad MHz crystal, PLL lock, etc.),  */
 125:Generated_Source\PSoC5/cyfitter_cfg.c ****     /* we will end up here to allow the customer to implement something to  */
 126:Generated_Source\PSoC5/cyfitter_cfg.c ****     /* deal with the clock condition.                                       */
 127:Generated_Source\PSoC5/cyfitter_cfg.c **** 
 128:Generated_Source\PSoC5/cyfitter_cfg.c **** #ifdef CY_CFG_CLOCK_STARTUP_ERROR_CALLBACK
 129:Generated_Source\PSoC5/cyfitter_cfg.c **** 	CY_CFG_Clock_Startup_ErrorCallback();
 130:Generated_Source\PSoC5/cyfitter_cfg.c **** #else
 131:Generated_Source\PSoC5/cyfitter_cfg.c **** 	/*  If not using CY_CFG_CLOCK_STARTUP_ERROR_CALLBACK, place your clock startup code here. */
 132:Generated_Source\PSoC5/cyfitter_cfg.c ****     /* `#START CyClockStartupError` */
 133:Generated_Source\PSoC5/cyfitter_cfg.c **** 
 134:Generated_Source\PSoC5/cyfitter_cfg.c ****     /* If we have a clock startup error (bad MHz crystal, PLL lock, etc.),  */
 135:Generated_Source\PSoC5/cyfitter_cfg.c ****     /* we will end up here to allow the customer to implement something to  */
 136:Generated_Source\PSoC5/cyfitter_cfg.c ****     /* deal with the clock condition.                                       */
 137:Generated_Source\PSoC5/cyfitter_cfg.c **** 
 138:Generated_Source\PSoC5/cyfitter_cfg.c ****     /* `#END` */
 139:Generated_Source\PSoC5/cyfitter_cfg.c **** 
 140:Generated_Source\PSoC5/cyfitter_cfg.c ****     /* If nothing else, stop here since the clocks have not started         */
 141:Generated_Source\PSoC5/cyfitter_cfg.c ****     /* correctly.                                                           */
 142:Generated_Source\PSoC5/cyfitter_cfg.c ****     while(1) {}
 143:Generated_Source\PSoC5/cyfitter_cfg.c **** #endif /* CY_CFG_CLOCK_STARTUP_ERROR_CALLBACK */ 
 144:Generated_Source\PSoC5/cyfitter_cfg.c **** }
 145:Generated_Source\PSoC5/cyfitter_cfg.c **** #endif
ARM GAS  C:\Users\yqh\AppData\Local\Temp\ccqWcweW.s 			page 4


 146:Generated_Source\PSoC5/cyfitter_cfg.c **** 
 147:Generated_Source\PSoC5/cyfitter_cfg.c **** #define CY_CFG_BASE_ADDR_COUNT 40u
 148:Generated_Source\PSoC5/cyfitter_cfg.c **** CYPACKED typedef struct
 149:Generated_Source\PSoC5/cyfitter_cfg.c **** {
 150:Generated_Source\PSoC5/cyfitter_cfg.c **** 	uint8 offset;
 151:Generated_Source\PSoC5/cyfitter_cfg.c **** 	uint8 value;
 152:Generated_Source\PSoC5/cyfitter_cfg.c **** } CYPACKED_ATTR cy_cfg_addrvalue_t;
 153:Generated_Source\PSoC5/cyfitter_cfg.c **** 
 154:Generated_Source\PSoC5/cyfitter_cfg.c **** #define cy_cfg_addr_table ((const uint32 CYFAR *)(0x48000000u + CYAPP_ECC_OFFSET))
 155:Generated_Source\PSoC5/cyfitter_cfg.c **** #define cy_cfg_data_table ((const cy_cfg_addrvalue_t CYFAR *)(0x480000A0u + CYAPP_ECC_OFFSET))
 156:Generated_Source\PSoC5/cyfitter_cfg.c **** 
 157:Generated_Source\PSoC5/cyfitter_cfg.c **** /* UDB_1_4_0_CONFIG Address: CYDEV_UCFG_B0_P1_U1_BASE Size (bytes): 128 */
 158:Generated_Source\PSoC5/cyfitter_cfg.c **** #define BS_UDB_1_4_0_CONFIG_VAL ((const uint8 CYFAR *)(0x48000E50u + CYAPP_ECC_OFFSET))
 159:Generated_Source\PSoC5/cyfitter_cfg.c **** 
 160:Generated_Source\PSoC5/cyfitter_cfg.c **** /* UDB_1_2_1_CONFIG Address: CYDEV_UCFG_B0_P3_U0_BASE Size (bytes): 128 */
 161:Generated_Source\PSoC5/cyfitter_cfg.c **** #define BS_UDB_1_2_1_CONFIG_VAL ((const uint8 CYFAR *)(0x48000ED0u + CYAPP_ECC_OFFSET))
 162:Generated_Source\PSoC5/cyfitter_cfg.c **** 
 163:Generated_Source\PSoC5/cyfitter_cfg.c **** /* IOPINS0_0 Address: CYREG_PRT0_DR Size (bytes): 10 */
 164:Generated_Source\PSoC5/cyfitter_cfg.c **** #define BS_IOPINS0_0_VAL ((const uint8 CYFAR *)(0x48000F50u + CYAPP_ECC_OFFSET))
 165:Generated_Source\PSoC5/cyfitter_cfg.c **** 
 166:Generated_Source\PSoC5/cyfitter_cfg.c **** /* IOPINS0_7 Address: CYREG_PRT12_DR Size (bytes): 10 */
 167:Generated_Source\PSoC5/cyfitter_cfg.c **** #define BS_IOPINS0_7_VAL ((const uint8 CYFAR *)(0x48000F5Cu + CYAPP_ECC_OFFSET))
 168:Generated_Source\PSoC5/cyfitter_cfg.c **** 
 169:Generated_Source\PSoC5/cyfitter_cfg.c **** /* IOPINS1_7 Address: CYREG_PRT12_DR + 0x0000000Bu Size (bytes): 5 */
 170:Generated_Source\PSoC5/cyfitter_cfg.c **** #define BS_IOPINS1_7_VAL ((const uint8 CYFAR *)(0x48000F68u + CYAPP_ECC_OFFSET))
 171:Generated_Source\PSoC5/cyfitter_cfg.c **** 
 172:Generated_Source\PSoC5/cyfitter_cfg.c **** /* IOPINS0_8 Address: CYREG_PRT15_DR Size (bytes): 10 */
 173:Generated_Source\PSoC5/cyfitter_cfg.c **** #define BS_IOPINS0_8_VAL ((const uint8 CYFAR *)(0x48000F70u + CYAPP_ECC_OFFSET))
 174:Generated_Source\PSoC5/cyfitter_cfg.c **** 
 175:Generated_Source\PSoC5/cyfitter_cfg.c **** /* IOPINS0_1 Address: CYREG_PRT1_DR Size (bytes): 10 */
 176:Generated_Source\PSoC5/cyfitter_cfg.c **** #define BS_IOPINS0_1_VAL ((const uint8 CYFAR *)(0x48000F7Cu + CYAPP_ECC_OFFSET))
 177:Generated_Source\PSoC5/cyfitter_cfg.c **** 
 178:Generated_Source\PSoC5/cyfitter_cfg.c **** /* IOPINS0_2 Address: CYREG_PRT2_DR Size (bytes): 10 */
 179:Generated_Source\PSoC5/cyfitter_cfg.c **** #define BS_IOPINS0_2_VAL ((const uint8 CYFAR *)(0x48000F88u + CYAPP_ECC_OFFSET))
 180:Generated_Source\PSoC5/cyfitter_cfg.c **** 
 181:Generated_Source\PSoC5/cyfitter_cfg.c **** /* IOPINS0_3 Address: CYREG_PRT3_DR Size (bytes): 10 */
 182:Generated_Source\PSoC5/cyfitter_cfg.c **** #define BS_IOPINS0_3_VAL ((const uint8 CYFAR *)(0x48000F94u + CYAPP_ECC_OFFSET))
 183:Generated_Source\PSoC5/cyfitter_cfg.c **** 
 184:Generated_Source\PSoC5/cyfitter_cfg.c **** /* CYDEV_CLKDIST_ACFG0_CFG0 Address: CYREG_CLKDIST_ACFG0_CFG0 Size (bytes): 4 */
 185:Generated_Source\PSoC5/cyfitter_cfg.c **** #define BS_CYDEV_CLKDIST_ACFG0_CFG0_VAL ((const uint8 CYFAR *)(0x48000FA0u + CYAPP_ECC_OFFSET))
 186:Generated_Source\PSoC5/cyfitter_cfg.c **** 
 187:Generated_Source\PSoC5/cyfitter_cfg.c **** 
 188:Generated_Source\PSoC5/cyfitter_cfg.c **** /*******************************************************************************
 189:Generated_Source\PSoC5/cyfitter_cfg.c **** * Function Name: cfg_write_bytes32
 190:Generated_Source\PSoC5/cyfitter_cfg.c **** ********************************************************************************
 191:Generated_Source\PSoC5/cyfitter_cfg.c **** * Summary:
 192:Generated_Source\PSoC5/cyfitter_cfg.c **** *  This function is used for setting up the chip configuration areas that
 193:Generated_Source\PSoC5/cyfitter_cfg.c **** *  contain relatively sparse data.
 194:Generated_Source\PSoC5/cyfitter_cfg.c **** *
 195:Generated_Source\PSoC5/cyfitter_cfg.c **** * Parameters:
 196:Generated_Source\PSoC5/cyfitter_cfg.c **** *   void
 197:Generated_Source\PSoC5/cyfitter_cfg.c **** *
 198:Generated_Source\PSoC5/cyfitter_cfg.c **** * Return:
 199:Generated_Source\PSoC5/cyfitter_cfg.c **** *   void
 200:Generated_Source\PSoC5/cyfitter_cfg.c **** *
 201:Generated_Source\PSoC5/cyfitter_cfg.c **** *******************************************************************************/
 202:Generated_Source\PSoC5/cyfitter_cfg.c **** static void cfg_write_bytes32(const uint32 addr_table[], const cy_cfg_addrvalue_t data_table[]);
ARM GAS  C:\Users\yqh\AppData\Local\Temp\ccqWcweW.s 			page 5


 203:Generated_Source\PSoC5/cyfitter_cfg.c **** static void cfg_write_bytes32(const uint32 addr_table[], const cy_cfg_addrvalue_t data_table[])
 204:Generated_Source\PSoC5/cyfitter_cfg.c **** {
 205:Generated_Source\PSoC5/cyfitter_cfg.c **** 	/* For 32-bit little-endian architectures */
 206:Generated_Source\PSoC5/cyfitter_cfg.c **** 	uint32 i, j = 0u;
 207:Generated_Source\PSoC5/cyfitter_cfg.c **** 	for (i = 0u; i < CY_CFG_BASE_ADDR_COUNT; i++)
 208:Generated_Source\PSoC5/cyfitter_cfg.c **** 	{
 209:Generated_Source\PSoC5/cyfitter_cfg.c **** 		uint32 baseAddr = addr_table[i];
 210:Generated_Source\PSoC5/cyfitter_cfg.c **** 		uint8 count = (uint8)baseAddr;
 211:Generated_Source\PSoC5/cyfitter_cfg.c **** 		baseAddr &= 0xFFFFFF00u;
 212:Generated_Source\PSoC5/cyfitter_cfg.c **** 		while (count != 0u)
 213:Generated_Source\PSoC5/cyfitter_cfg.c **** 		{
 214:Generated_Source\PSoC5/cyfitter_cfg.c **** 			CY_SET_XTND_REG8((void CYFAR *)(baseAddr + data_table[j].offset), data_table[j].value);
 215:Generated_Source\PSoC5/cyfitter_cfg.c **** 			j++;
 216:Generated_Source\PSoC5/cyfitter_cfg.c **** 			count--;
 217:Generated_Source\PSoC5/cyfitter_cfg.c **** 		}
 218:Generated_Source\PSoC5/cyfitter_cfg.c **** 	}
 219:Generated_Source\PSoC5/cyfitter_cfg.c **** }
 220:Generated_Source\PSoC5/cyfitter_cfg.c **** 
 221:Generated_Source\PSoC5/cyfitter_cfg.c **** /*******************************************************************************
 222:Generated_Source\PSoC5/cyfitter_cfg.c **** * Function Name: ClockSetup
 223:Generated_Source\PSoC5/cyfitter_cfg.c **** ********************************************************************************
 224:Generated_Source\PSoC5/cyfitter_cfg.c **** *
 225:Generated_Source\PSoC5/cyfitter_cfg.c **** * Summary:
 226:Generated_Source\PSoC5/cyfitter_cfg.c **** *  Performs the initialization of all of the clocks in the device based on the
 227:Generated_Source\PSoC5/cyfitter_cfg.c **** *  settings in the Clock tab of the DWR.  This includes enabling the requested
 228:Generated_Source\PSoC5/cyfitter_cfg.c **** *  clocks and setting the necessary dividers to produce the desired frequency. 
 229:Generated_Source\PSoC5/cyfitter_cfg.c **** *
 230:Generated_Source\PSoC5/cyfitter_cfg.c **** * Parameters:
 231:Generated_Source\PSoC5/cyfitter_cfg.c **** *  void
 232:Generated_Source\PSoC5/cyfitter_cfg.c **** *
 233:Generated_Source\PSoC5/cyfitter_cfg.c **** * Return:
 234:Generated_Source\PSoC5/cyfitter_cfg.c **** *  void
 235:Generated_Source\PSoC5/cyfitter_cfg.c **** *
 236:Generated_Source\PSoC5/cyfitter_cfg.c **** *******************************************************************************/
 237:Generated_Source\PSoC5/cyfitter_cfg.c **** static void ClockSetup(void);
 238:Generated_Source\PSoC5/cyfitter_cfg.c **** static void ClockSetup(void)
 239:Generated_Source\PSoC5/cyfitter_cfg.c **** {
 240:Generated_Source\PSoC5/cyfitter_cfg.c **** 	uint32 timeout;
 241:Generated_Source\PSoC5/cyfitter_cfg.c **** 	uint8 pllLock;
 242:Generated_Source\PSoC5/cyfitter_cfg.c **** 
 243:Generated_Source\PSoC5/cyfitter_cfg.c **** 
 244:Generated_Source\PSoC5/cyfitter_cfg.c **** 	/* Configure Digital Clocks based on settings from Clock DWR */
 245:Generated_Source\PSoC5/cyfitter_cfg.c **** 	CY_SET_XTND_REG16((void CYFAR *)(CYREG_CLKDIST_DCFG0_CFG0), 0x0001u);
 246:Generated_Source\PSoC5/cyfitter_cfg.c **** 	CY_SET_XTND_REG8((void CYFAR *)(CYREG_CLKDIST_DCFG0_CFG0 + 0x2u), 0x18u);
 247:Generated_Source\PSoC5/cyfitter_cfg.c **** 	CY_SET_XTND_REG16((void CYFAR *)(CYREG_CLKDIST_DCFG1_CFG0), 0x005Fu);
 248:Generated_Source\PSoC5/cyfitter_cfg.c **** 	CY_SET_XTND_REG8((void CYFAR *)(CYREG_CLKDIST_DCFG1_CFG0 + 0x2u), 0x18u);
 249:Generated_Source\PSoC5/cyfitter_cfg.c **** 	CY_SET_XTND_REG16((void CYFAR *)(CYREG_CLKDIST_DCFG2_CFG0), 0x0067u);
 250:Generated_Source\PSoC5/cyfitter_cfg.c **** 	CY_SET_XTND_REG8((void CYFAR *)(CYREG_CLKDIST_DCFG2_CFG0 + 0x2u), 0x18u);
 251:Generated_Source\PSoC5/cyfitter_cfg.c **** 	CY_SET_XTND_REG16((void CYFAR *)(CYREG_CLKDIST_DCFG3_CFG0), 0x01DFu);
 252:Generated_Source\PSoC5/cyfitter_cfg.c **** 	CY_SET_XTND_REG8((void CYFAR *)(CYREG_CLKDIST_DCFG3_CFG0 + 0x2u), 0x18u);
 253:Generated_Source\PSoC5/cyfitter_cfg.c **** 	CY_SET_XTND_REG16((void CYFAR *)(CYREG_CLKDIST_DCFG4_CFG0), 0x04E1u);
 254:Generated_Source\PSoC5/cyfitter_cfg.c **** 	CY_SET_XTND_REG8((void CYFAR *)(CYREG_CLKDIST_DCFG4_CFG0 + 0x2u), 0x18u);
 255:Generated_Source\PSoC5/cyfitter_cfg.c **** 	CY_SET_XTND_REG16((void CYFAR *)(CYREG_CLKDIST_DCFG5_CFG0), 0xFFFFu);
 256:Generated_Source\PSoC5/cyfitter_cfg.c **** 	CY_SET_XTND_REG8((void CYFAR *)(CYREG_CLKDIST_DCFG5_CFG0 + 0x2u), 0x18u);
 257:Generated_Source\PSoC5/cyfitter_cfg.c **** 
 258:Generated_Source\PSoC5/cyfitter_cfg.c **** 	/* Configure Analog Clocks based on settings from Clock DWR */
 259:Generated_Source\PSoC5/cyfitter_cfg.c **** 	CYCONFIGCPY((void CYFAR *)(CYREG_CLKDIST_ACFG0_CFG0), (const void CYFAR *)(BS_CYDEV_CLKDIST_ACFG0_
ARM GAS  C:\Users\yqh\AppData\Local\Temp\ccqWcweW.s 			page 6


 260:Generated_Source\PSoC5/cyfitter_cfg.c **** 
 261:Generated_Source\PSoC5/cyfitter_cfg.c **** 	/* Configure ILO based on settings from Clock DWR */
 262:Generated_Source\PSoC5/cyfitter_cfg.c **** 	CY_SET_XTND_REG8((void CYFAR *)(CYREG_SLOWCLK_ILO_CR0), 0x26u);
 263:Generated_Source\PSoC5/cyfitter_cfg.c **** 	CY_SET_XTND_REG8((void CYFAR *)(CYREG_CLKDIST_CR), 0x04u);
 264:Generated_Source\PSoC5/cyfitter_cfg.c **** 
 265:Generated_Source\PSoC5/cyfitter_cfg.c **** 	/* Configure IMO based on settings from Clock DWR */
 266:Generated_Source\PSoC5/cyfitter_cfg.c **** 	CY_SET_XTND_REG8((void CYFAR *)(CYREG_FASTCLK_IMO_CR), 0x04u);
 267:Generated_Source\PSoC5/cyfitter_cfg.c **** 	CY_SET_XTND_REG8((void CYFAR *)(CYREG_IMO_TR1), (CY_GET_XTND_REG8((void CYFAR *)(CYREG_FLSHID_MFG_
 268:Generated_Source\PSoC5/cyfitter_cfg.c **** 
 269:Generated_Source\PSoC5/cyfitter_cfg.c **** 	/* Configure PLL based on settings from Clock DWR */
 270:Generated_Source\PSoC5/cyfitter_cfg.c **** 	CY_SET_XTND_REG16((void CYFAR *)(CYREG_FASTCLK_PLL_P), 0x0F10u);
 271:Generated_Source\PSoC5/cyfitter_cfg.c **** 	CY_SET_XTND_REG16((void CYFAR *)(CYREG_FASTCLK_PLL_CFG0), 0x1251u);
 272:Generated_Source\PSoC5/cyfitter_cfg.c **** 	/* Wait up to 250us for the PLL to lock */
 273:Generated_Source\PSoC5/cyfitter_cfg.c **** 	pllLock = 0u;
 274:Generated_Source\PSoC5/cyfitter_cfg.c **** 	for (timeout = 250u / 10u; (timeout > 0u) && (pllLock != 0x03u); timeout--)
 275:Generated_Source\PSoC5/cyfitter_cfg.c **** 	{ 
 276:Generated_Source\PSoC5/cyfitter_cfg.c **** 		pllLock = 0x03u & ((uint8)((uint8)pllLock << 1) | ((CY_GET_XTND_REG8((void CYFAR *)CYREG_FASTCLK_
 277:Generated_Source\PSoC5/cyfitter_cfg.c **** 		CyDelayCycles(10u * 48u); /* Delay 10us based on 48MHz clock */
 278:Generated_Source\PSoC5/cyfitter_cfg.c **** 	}
 279:Generated_Source\PSoC5/cyfitter_cfg.c **** 	/* If we ran out of time the PLL didn't lock so go to the error function */
 280:Generated_Source\PSoC5/cyfitter_cfg.c **** 	if (timeout == 0u)
 281:Generated_Source\PSoC5/cyfitter_cfg.c **** 	{
 282:Generated_Source\PSoC5/cyfitter_cfg.c **** 		CyClockStartupError(CYCLOCKSTART_PLL_ERROR);
 283:Generated_Source\PSoC5/cyfitter_cfg.c **** 	}
 284:Generated_Source\PSoC5/cyfitter_cfg.c **** 
 285:Generated_Source\PSoC5/cyfitter_cfg.c **** 	/* Configure Bus/Master Clock based on settings from Clock DWR */
 286:Generated_Source\PSoC5/cyfitter_cfg.c **** 	CY_SET_XTND_REG16((void CYFAR *)(CYREG_CLKDIST_MSTR0), 0x0100u);
 287:Generated_Source\PSoC5/cyfitter_cfg.c **** 	CY_SET_XTND_REG8((void CYFAR *)(CYREG_CLKDIST_MSTR0), 0x07u);
 288:Generated_Source\PSoC5/cyfitter_cfg.c **** 	CY_SET_XTND_REG8((void CYFAR *)(CYREG_CLKDIST_BCFG0), 0x00u);
 289:Generated_Source\PSoC5/cyfitter_cfg.c **** 	CY_SET_XTND_REG8((void CYFAR *)(CYREG_CLKDIST_BCFG2), 0x48u);
 290:Generated_Source\PSoC5/cyfitter_cfg.c **** 	CY_SET_XTND_REG8((void CYFAR *)(CYREG_CLKDIST_MSTR0), 0x00u);
 291:Generated_Source\PSoC5/cyfitter_cfg.c **** 	CY_SET_XTND_REG8((void CYFAR *)(CYREG_CLKDIST_LD), 0x02u);
 292:Generated_Source\PSoC5/cyfitter_cfg.c **** 	CY_SET_XTND_REG8((void CYFAR *)(CYREG_CLKDIST_DLY1), 0x04u);
 293:Generated_Source\PSoC5/cyfitter_cfg.c **** 
 294:Generated_Source\PSoC5/cyfitter_cfg.c **** 	CY_SET_XTND_REG8((void CYFAR *)(CYREG_PM_ACT_CFG2), ((CY_GET_XTND_REG8((void CYFAR *)CYREG_PM_ACT_
 295:Generated_Source\PSoC5/cyfitter_cfg.c **** 	CY_SET_XTND_REG8((void CYFAR *)(CYREG_PM_ACT_CFG1), ((CY_GET_XTND_REG8((void CYFAR *)CYREG_PM_ACT_
 296:Generated_Source\PSoC5/cyfitter_cfg.c **** 	CY_SET_XTND_REG8((void CYFAR *)(CYREG_PM_ACT_CFG0), ((CY_GET_XTND_REG8((void CYFAR *)CYREG_PM_ACT_
 297:Generated_Source\PSoC5/cyfitter_cfg.c **** }
 298:Generated_Source\PSoC5/cyfitter_cfg.c **** 
 299:Generated_Source\PSoC5/cyfitter_cfg.c **** 
 300:Generated_Source\PSoC5/cyfitter_cfg.c **** /* Analog API Functions */
 301:Generated_Source\PSoC5/cyfitter_cfg.c **** 
 302:Generated_Source\PSoC5/cyfitter_cfg.c **** 
 303:Generated_Source\PSoC5/cyfitter_cfg.c **** /*******************************************************************************
 304:Generated_Source\PSoC5/cyfitter_cfg.c **** * Function Name: AnalogSetDefault
 305:Generated_Source\PSoC5/cyfitter_cfg.c **** ********************************************************************************
 306:Generated_Source\PSoC5/cyfitter_cfg.c **** *
 307:Generated_Source\PSoC5/cyfitter_cfg.c **** * Summary:
 308:Generated_Source\PSoC5/cyfitter_cfg.c **** *  Sets up the analog portions of the chip to default values based on chip
 309:Generated_Source\PSoC5/cyfitter_cfg.c **** *  configuration options from the project.
 310:Generated_Source\PSoC5/cyfitter_cfg.c **** *
 311:Generated_Source\PSoC5/cyfitter_cfg.c **** * Parameters:
 312:Generated_Source\PSoC5/cyfitter_cfg.c **** *  void
 313:Generated_Source\PSoC5/cyfitter_cfg.c **** *
 314:Generated_Source\PSoC5/cyfitter_cfg.c **** * Return:
 315:Generated_Source\PSoC5/cyfitter_cfg.c **** *  void
 316:Generated_Source\PSoC5/cyfitter_cfg.c **** *
ARM GAS  C:\Users\yqh\AppData\Local\Temp\ccqWcweW.s 			page 7


 317:Generated_Source\PSoC5/cyfitter_cfg.c **** *******************************************************************************/
 318:Generated_Source\PSoC5/cyfitter_cfg.c **** static void AnalogSetDefault(void);
 319:Generated_Source\PSoC5/cyfitter_cfg.c **** static void AnalogSetDefault(void)
 320:Generated_Source\PSoC5/cyfitter_cfg.c **** {
 321:Generated_Source\PSoC5/cyfitter_cfg.c **** 	uint8 bg_xover_inl_trim = CY_GET_XTND_REG8((void CYFAR *)(CYREG_FLSHID_MFG_CFG_BG_XOVER_INL_TRIM +
 322:Generated_Source\PSoC5/cyfitter_cfg.c **** 	CY_SET_XTND_REG8((void CYFAR *)(CYREG_BG_DFT0), (bg_xover_inl_trim & 0x07u));
 323:Generated_Source\PSoC5/cyfitter_cfg.c **** 	CY_SET_XTND_REG8((void CYFAR *)(CYREG_BG_DFT1), ((bg_xover_inl_trim >> 4) & 0x0Fu));
 324:Generated_Source\PSoC5/cyfitter_cfg.c **** 	CY_SET_XTND_REG8((void CYFAR *)CYREG_PUMP_CR0, 0x44u);
 325:Generated_Source\PSoC5/cyfitter_cfg.c **** }
 326:Generated_Source\PSoC5/cyfitter_cfg.c **** 
 327:Generated_Source\PSoC5/cyfitter_cfg.c **** 
 328:Generated_Source\PSoC5/cyfitter_cfg.c **** /*******************************************************************************
 329:Generated_Source\PSoC5/cyfitter_cfg.c **** * Function Name: SetAnalogRoutingPumps
 330:Generated_Source\PSoC5/cyfitter_cfg.c **** ********************************************************************************
 331:Generated_Source\PSoC5/cyfitter_cfg.c **** *
 332:Generated_Source\PSoC5/cyfitter_cfg.c **** * Summary:
 333:Generated_Source\PSoC5/cyfitter_cfg.c **** * Enables or disables the analog pumps feeding analog routing switches.
 334:Generated_Source\PSoC5/cyfitter_cfg.c **** * Intended to be called at startup, based on the Vdda system configuration;
 335:Generated_Source\PSoC5/cyfitter_cfg.c **** * may be called during operation when the user informs us that the Vdda voltage
 336:Generated_Source\PSoC5/cyfitter_cfg.c **** * crossed the pump threshold.
 337:Generated_Source\PSoC5/cyfitter_cfg.c **** *
 338:Generated_Source\PSoC5/cyfitter_cfg.c **** * Parameters:
 339:Generated_Source\PSoC5/cyfitter_cfg.c **** *  enabled - 1 to enable the pumps, 0 to disable the pumps
 340:Generated_Source\PSoC5/cyfitter_cfg.c **** *
 341:Generated_Source\PSoC5/cyfitter_cfg.c **** * Return:
 342:Generated_Source\PSoC5/cyfitter_cfg.c **** *  void
 343:Generated_Source\PSoC5/cyfitter_cfg.c **** *
 344:Generated_Source\PSoC5/cyfitter_cfg.c **** *******************************************************************************/
 345:Generated_Source\PSoC5/cyfitter_cfg.c **** void SetAnalogRoutingPumps(uint8 enabled)
 346:Generated_Source\PSoC5/cyfitter_cfg.c **** {
  27              		.loc 1 346 0
  28              		.cfi_startproc
  29              		@ args = 0, pretend = 0, frame = 0
  30              		@ frame_needed = 0, uses_anonymous_args = 0
  31              		@ link register save eliminated.
  32              	.LVL0:
 347:Generated_Source\PSoC5/cyfitter_cfg.c **** 	uint8 regValue = CY_GET_XTND_REG8((void CYFAR *)CYREG_PUMP_CR0);
  33              		.loc 1 347 0
  34 0000 024A     		ldr	r2, .L2
  35 0002 1378     		ldrb	r3, [r2]	@ zero_extendqisi2
  36 0004 DBB2     		uxtb	r3, r3
  37              	.LVL1:
 348:Generated_Source\PSoC5/cyfitter_cfg.c **** 	if (enabled != 0u)
 349:Generated_Source\PSoC5/cyfitter_cfg.c **** 	{
 350:Generated_Source\PSoC5/cyfitter_cfg.c **** 		regValue |= 0x00u;
 351:Generated_Source\PSoC5/cyfitter_cfg.c **** 	}
 352:Generated_Source\PSoC5/cyfitter_cfg.c **** 	else
 353:Generated_Source\PSoC5/cyfitter_cfg.c **** 	{
 354:Generated_Source\PSoC5/cyfitter_cfg.c **** 		regValue &= (uint8)~0x00u;
 355:Generated_Source\PSoC5/cyfitter_cfg.c **** 	}
 356:Generated_Source\PSoC5/cyfitter_cfg.c **** 	CY_SET_XTND_REG8((void CYFAR *)CYREG_PUMP_CR0, regValue);
  38              		.loc 1 356 0
  39 0006 1370     		strb	r3, [r2]
  40 0008 7047     		bx	lr
  41              	.L3:
  42 000a 00BF     		.align	2
  43              	.L2:
ARM GAS  C:\Users\yqh\AppData\Local\Temp\ccqWcweW.s 			page 8


  44 000c 76580040 		.word	1073764470
  45              		.cfi_endproc
  46              	.LFE7:
  47              		.size	SetAnalogRoutingPumps, .-SetAnalogRoutingPumps
  48              		.section	.text.cyfitter_cfg,"ax",%progbits
  49              		.align	1
  50              		.global	cyfitter_cfg
  51              		.thumb
  52              		.thumb_func
  53              		.type	cyfitter_cfg, %function
  54              	cyfitter_cfg:
  55              	.LFB8:
 357:Generated_Source\PSoC5/cyfitter_cfg.c **** }
 358:Generated_Source\PSoC5/cyfitter_cfg.c **** 
 359:Generated_Source\PSoC5/cyfitter_cfg.c **** #define CY_AMUX_UNUSED CYREG_BOOST_SR
 360:Generated_Source\PSoC5/cyfitter_cfg.c **** 
 361:Generated_Source\PSoC5/cyfitter_cfg.c **** 
 362:Generated_Source\PSoC5/cyfitter_cfg.c **** /*******************************************************************************
 363:Generated_Source\PSoC5/cyfitter_cfg.c **** * Function Name: cyfitter_cfg
 364:Generated_Source\PSoC5/cyfitter_cfg.c **** ********************************************************************************
 365:Generated_Source\PSoC5/cyfitter_cfg.c **** * Summary:
 366:Generated_Source\PSoC5/cyfitter_cfg.c **** *  This function is called by the start-up code for the selected device. It
 367:Generated_Source\PSoC5/cyfitter_cfg.c **** *  performs all of the necessary device configuration based on the design
 368:Generated_Source\PSoC5/cyfitter_cfg.c **** *  settings.  This includes settings from the Design Wide Resources (DWR) such
 369:Generated_Source\PSoC5/cyfitter_cfg.c **** *  as Clocks and Pins as well as any component configuration that is necessary.
 370:Generated_Source\PSoC5/cyfitter_cfg.c **** *
 371:Generated_Source\PSoC5/cyfitter_cfg.c **** * Parameters:  
 372:Generated_Source\PSoC5/cyfitter_cfg.c **** *   void
 373:Generated_Source\PSoC5/cyfitter_cfg.c **** *
 374:Generated_Source\PSoC5/cyfitter_cfg.c **** * Return:
 375:Generated_Source\PSoC5/cyfitter_cfg.c **** *   void
 376:Generated_Source\PSoC5/cyfitter_cfg.c **** *
 377:Generated_Source\PSoC5/cyfitter_cfg.c **** *******************************************************************************/
 378:Generated_Source\PSoC5/cyfitter_cfg.c **** 
 379:Generated_Source\PSoC5/cyfitter_cfg.c **** void cyfitter_cfg(void)
 380:Generated_Source\PSoC5/cyfitter_cfg.c **** {
  56              		.loc 1 380 0
  57              		.cfi_startproc
  58              		@ args = 0, pretend = 0, frame = 0
  59              		@ frame_needed = 0, uses_anonymous_args = 0
  60 0000 F8B5     		push	{r3, r4, r5, r6, r7, lr}
  61              		.cfi_def_cfa_offset 24
  62              		.cfi_offset 3, -24
  63              		.cfi_offset 4, -20
  64              		.cfi_offset 5, -16
  65              		.cfi_offset 6, -12
  66              		.cfi_offset 7, -8
  67              		.cfi_offset 14, -4
 381:Generated_Source\PSoC5/cyfitter_cfg.c **** #ifdef CYGlobalIntDisable
 382:Generated_Source\PSoC5/cyfitter_cfg.c **** 	/* Disable interrupts by default. Let user enable if/when they want. */
 383:Generated_Source\PSoC5/cyfitter_cfg.c **** 	CYGlobalIntDisable
  68              		.loc 1 383 0
  69              	@ 383 "Generated_Source\PSoC5\cyfitter_cfg.c" 1
  70 0002 72B6     		CPSID   i
  71              	@ 0 "" 2
 384:Generated_Source\PSoC5/cyfitter_cfg.c **** #endif
 385:Generated_Source\PSoC5/cyfitter_cfg.c **** 
ARM GAS  C:\Users\yqh\AppData\Local\Temp\ccqWcweW.s 			page 9


 386:Generated_Source\PSoC5/cyfitter_cfg.c **** 	/* Enable/Disable Debug functionality based on settings from System DWR */
 387:Generated_Source\PSoC5/cyfitter_cfg.c **** 	CY_SET_XTND_REG8((void CYFAR *)CYREG_MLOGIC_DEBUG, (CY_GET_XTND_REG8((void CYFAR *)CYREG_MLOGIC_DE
  72              		.loc 1 387 0
  73              		.thumb
  74 0004 854A     		ldr	r2, .L20
  75 0006 0024     		movs	r4, #0
  76 0008 1378     		ldrb	r3, [r2]	@ zero_extendqisi2
  77 000a 43F00403 		orr	r3, r3, #4
  78 000e 1370     		strb	r3, [r2]
  79              	.LVL2:
  80              	.L5:
  81              	.LBB59:
  82              	.LBB60:
 388:Generated_Source\PSoC5/cyfitter_cfg.c **** 
 389:Generated_Source\PSoC5/cyfitter_cfg.c **** 	{
 390:Generated_Source\PSoC5/cyfitter_cfg.c **** 
 391:Generated_Source\PSoC5/cyfitter_cfg.c **** 		CYPACKED typedef struct {
 392:Generated_Source\PSoC5/cyfitter_cfg.c **** 			void CYFAR *address;
 393:Generated_Source\PSoC5/cyfitter_cfg.c **** 			uint16 size;
 394:Generated_Source\PSoC5/cyfitter_cfg.c **** 		} CYPACKED_ATTR cfg_memset_t;
 395:Generated_Source\PSoC5/cyfitter_cfg.c **** 
 396:Generated_Source\PSoC5/cyfitter_cfg.c **** 
 397:Generated_Source\PSoC5/cyfitter_cfg.c **** 		CYPACKED typedef struct {
 398:Generated_Source\PSoC5/cyfitter_cfg.c **** 			void CYFAR *dest;
 399:Generated_Source\PSoC5/cyfitter_cfg.c **** 			const void CYFAR *src;
 400:Generated_Source\PSoC5/cyfitter_cfg.c **** 			uint16 size;
 401:Generated_Source\PSoC5/cyfitter_cfg.c **** 		} CYPACKED_ATTR cfg_memcpy_t;
 402:Generated_Source\PSoC5/cyfitter_cfg.c **** 
 403:Generated_Source\PSoC5/cyfitter_cfg.c **** 		static const cfg_memset_t CYCODE cfg_memset_list [] = {
 404:Generated_Source\PSoC5/cyfitter_cfg.c **** 			/* address, size */
 405:Generated_Source\PSoC5/cyfitter_cfg.c **** 			{(void CYFAR *)(CYREG_I2C_XCFG), 25u},
 406:Generated_Source\PSoC5/cyfitter_cfg.c **** 			{(void CYFAR *)(CYREG_TMR0_CFG0), 24u},
 407:Generated_Source\PSoC5/cyfitter_cfg.c **** 			{(void CYFAR *)(CYREG_PRT4_DR), 48u},
 408:Generated_Source\PSoC5/cyfitter_cfg.c **** 			{(void CYFAR *)(CYDEV_UCFG_B0_P0_U0_BASE), 640u},
 409:Generated_Source\PSoC5/cyfitter_cfg.c **** 			{(void CYFAR *)(CYDEV_UCFG_B0_P1_ROUTE_BASE), 768u},
 410:Generated_Source\PSoC5/cyfitter_cfg.c **** 			{(void CYFAR *)(CYDEV_UCFG_B0_P3_U1_BASE), 2432u},
 411:Generated_Source\PSoC5/cyfitter_cfg.c **** 			{(void CYFAR *)(CYDEV_UCFG_B1_P2_U0_BASE), 2048u},
 412:Generated_Source\PSoC5/cyfitter_cfg.c **** 			{(void CYFAR *)(CYDEV_UCFG_DSI0_BASE), 2560u},
 413:Generated_Source\PSoC5/cyfitter_cfg.c **** 			{(void CYFAR *)(CYDEV_UCFG_DSI12_BASE), 512u},
 414:Generated_Source\PSoC5/cyfitter_cfg.c **** 			{(void CYFAR *)(CYREG_BCTL0_MDCLK_EN), 32u},
 415:Generated_Source\PSoC5/cyfitter_cfg.c **** 		};
 416:Generated_Source\PSoC5/cyfitter_cfg.c **** 
 417:Generated_Source\PSoC5/cyfitter_cfg.c **** 		static const cfg_memcpy_t CYCODE cfg_memcpy_list [] = {
 418:Generated_Source\PSoC5/cyfitter_cfg.c **** 			/* dest, src, size */
 419:Generated_Source\PSoC5/cyfitter_cfg.c **** 			{(void CYFAR *)(CYDEV_UCFG_B0_P1_U1_BASE), BS_UDB_1_4_0_CONFIG_VAL, 128u},
 420:Generated_Source\PSoC5/cyfitter_cfg.c **** 			{(void CYFAR *)(CYDEV_UCFG_B0_P3_U0_BASE), BS_UDB_1_2_1_CONFIG_VAL, 128u},
 421:Generated_Source\PSoC5/cyfitter_cfg.c **** 		};
 422:Generated_Source\PSoC5/cyfitter_cfg.c **** 
 423:Generated_Source\PSoC5/cyfitter_cfg.c **** 		uint8 CYDATA i;
 424:Generated_Source\PSoC5/cyfitter_cfg.c **** 
 425:Generated_Source\PSoC5/cyfitter_cfg.c **** 		/* Zero out critical memory blocks before beginning configuration */
 426:Generated_Source\PSoC5/cyfitter_cfg.c **** 		for (i = 0u; i < (sizeof(cfg_memset_list)/sizeof(cfg_memset_list[0])); i++)
 427:Generated_Source\PSoC5/cyfitter_cfg.c **** 		{
 428:Generated_Source\PSoC5/cyfitter_cfg.c **** 			const cfg_memset_t CYCODE * CYDATA ms = &cfg_memset_list[i];
 429:Generated_Source\PSoC5/cyfitter_cfg.c **** 			CYMEMZERO(ms->address, (size_t)(uint32)(ms->size));
  83              		.loc 1 429 0 discriminator 3
  84 0010 834D     		ldr	r5, .L20+4
ARM GAS  C:\Users\yqh\AppData\Local\Temp\ccqWcweW.s 			page 10


  85 0012 0623     		movs	r3, #6
  86 0014 03FB0453 		mla	r3, r3, r4, r5
  87              	.LBB61:
  88              	.LBB62:
  73:Generated_Source\PSoC5/cyfitter_cfg.c **** }
  89              		.loc 1 73 0 discriminator 3
  90 0018 0021     		movs	r1, #0
  91 001a 1868     		ldr	r0, [r3]	@ unaligned
  92 001c 9A88     		ldrh	r2, [r3, #4]	@ unaligned
  93 001e 0134     		adds	r4, r4, #1
  94              	.LVL3:
  95 0020 FFF7FEFF 		bl	memset
  96              	.LVL4:
  97              	.LBE62:
  98              	.LBE61:
  99              	.LBE60:
 426:Generated_Source\PSoC5/cyfitter_cfg.c **** 		{
 100              		.loc 1 426 0 discriminator 3
 101 0024 0A2C     		cmp	r4, #10
 102 0026 F3D1     		bne	.L5
 103              	.LVL5:
 104              	.LBB63:
 105              	.LBB64:
 106              	.LBB65:
  80:Generated_Source\PSoC5/cyfitter_cfg.c **** }
 107              		.loc 1 80 0 discriminator 1
 108 0028 296C     		ldr	r1, [r5, #64]	@ unaligned
 109 002a 8022     		movs	r2, #128
 110 002c 7D48     		ldr	r0, .L20+8
 111 002e FFF7FEFF 		bl	memcpy
 112              	.LVL6:
 113 0032 8022     		movs	r2, #128
 114 0034 7C48     		ldr	r0, .L20+12
 115 0036 D5F84A10 		ldr	r1, [r5, #74]	@ unaligned
 116 003a FFF7FEFF 		bl	memcpy
 117              	.LVL7:
 118              	.LBE65:
 119              	.LBE64:
 120              	.LBE63:
 121              	.LBB66:
 122              	.LBB67:
 206:Generated_Source\PSoC5/cyfitter_cfg.c **** 	for (i = 0u; i < CY_CFG_BASE_ADDR_COUNT; i++)
 123              		.loc 1 206 0 discriminator 1
 124 003e 0022     		movs	r2, #0
 207:Generated_Source\PSoC5/cyfitter_cfg.c **** 	{
 125              		.loc 1 207 0 discriminator 1
 126 0040 1046     		mov	r0, r2
 127 0042 7A4C     		ldr	r4, .L20+16
 128              	.LVL8:
 129              	.L8:
 130 0044 8300     		lsls	r3, r0, #2
 131 0046 03F19043 		add	r3, r3, #1207959552
 132              	.LBB68:
 209:Generated_Source\PSoC5/cyfitter_cfg.c **** 		uint8 count = (uint8)baseAddr;
 133              		.loc 1 209 0
 134 004a E158     		ldr	r1, [r4, r3]
 135              	.LVL9:
ARM GAS  C:\Users\yqh\AppData\Local\Temp\ccqWcweW.s 			page 11


 136 004c 04EB4203 		add	r3, r4, r2, lsl #1
 211:Generated_Source\PSoC5/cyfitter_cfg.c **** 		while (count != 0u)
 137              		.loc 1 211 0
 138 0050 21F0FF05 		bic	r5, r1, #255
 139              	.LVL10:
 140 0054 C9B2     		uxtb	r1, r1
 141 0056 0A44     		add	r2, r2, r1
 142              	.LVL11:
 143 0058 04EB4201 		add	r1, r4, r2, lsl #1
 144              	.LVL12:
 145 005c 03F19043 		add	r3, r3, #1207959552
 146 0060 01F19041 		add	r1, r1, #1207959552
 147 0064 A133     		adds	r3, r3, #161
 148 0066 A331     		adds	r1, r1, #163
 149              	.LVL13:
 150              	.L6:
 151 0068 0233     		adds	r3, r3, #2
 212:Generated_Source\PSoC5/cyfitter_cfg.c **** 		{
 152              		.loc 1 212 0
 153 006a 8B42     		cmp	r3, r1
 154 006c 05D0     		beq	.L19
 214:Generated_Source\PSoC5/cyfitter_cfg.c **** 			j++;
 155              		.loc 1 214 0
 156 006e 13F8036C 		ldrb	r6, [r3, #-3]	@ zero_extendqisi2
 157 0072 13F8027C 		ldrb	r7, [r3, #-2]	@ zero_extendqisi2
 158 0076 AF55     		strb	r7, [r5, r6]
 159 0078 F6E7     		b	.L6
 160              	.L19:
 161              	.LBE68:
 207:Generated_Source\PSoC5/cyfitter_cfg.c **** 	{
 162              		.loc 1 207 0
 163 007a 0130     		adds	r0, r0, #1
 164              	.LVL14:
 165 007c 2828     		cmp	r0, #40
 166 007e E1D1     		bne	.L8
 167              	.LBE67:
 168              	.LBE66:
 430:Generated_Source\PSoC5/cyfitter_cfg.c **** 		}
 431:Generated_Source\PSoC5/cyfitter_cfg.c **** 
 432:Generated_Source\PSoC5/cyfitter_cfg.c **** 		/* Copy device configuration data into registers */
 433:Generated_Source\PSoC5/cyfitter_cfg.c **** 		for (i = 0u; i < (sizeof(cfg_memcpy_list)/sizeof(cfg_memcpy_list[0])); i++)
 434:Generated_Source\PSoC5/cyfitter_cfg.c **** 		{
 435:Generated_Source\PSoC5/cyfitter_cfg.c **** 			const cfg_memcpy_t CYCODE * CYDATA mc = &cfg_memcpy_list[i];
 436:Generated_Source\PSoC5/cyfitter_cfg.c **** 			void * CYDATA destPtr = mc->dest;
 437:Generated_Source\PSoC5/cyfitter_cfg.c **** 			const void * CYDATA srcPtr = mc->src;
 438:Generated_Source\PSoC5/cyfitter_cfg.c **** 			uint16 CYDATA numBytes = mc->size;
 439:Generated_Source\PSoC5/cyfitter_cfg.c **** 			CYCONFIGCPY(destPtr, srcPtr, numBytes);
 440:Generated_Source\PSoC5/cyfitter_cfg.c **** 		}
 441:Generated_Source\PSoC5/cyfitter_cfg.c **** 
 442:Generated_Source\PSoC5/cyfitter_cfg.c **** 		cfg_write_bytes32(cy_cfg_addr_table, cy_cfg_data_table);
 443:Generated_Source\PSoC5/cyfitter_cfg.c **** 
 444:Generated_Source\PSoC5/cyfitter_cfg.c **** 		/* Enable digital routing */
 445:Generated_Source\PSoC5/cyfitter_cfg.c **** 		CY_SET_XTND_REG8((void CYFAR *)CYREG_BCTL0_BANK_CTL, CY_GET_XTND_REG8((void CYFAR *)CYREG_BCTL0_B
 169              		.loc 1 445 0
 170 0080 6B4A     		ldr	r2, .L20+20
 171              	.LVL15:
 446:Generated_Source\PSoC5/cyfitter_cfg.c **** 		CY_SET_XTND_REG8((void CYFAR *)CYREG_BCTL1_BANK_CTL, CY_GET_XTND_REG8((void CYFAR *)CYREG_BCTL1_B
ARM GAS  C:\Users\yqh\AppData\Local\Temp\ccqWcweW.s 			page 12


 447:Generated_Source\PSoC5/cyfitter_cfg.c **** 
 448:Generated_Source\PSoC5/cyfitter_cfg.c **** 		/* Enable UDB array */
 449:Generated_Source\PSoC5/cyfitter_cfg.c **** 		CY_SET_XTND_REG8((void CYFAR *)CYREG_PM_ACT_CFG0, CY_GET_XTND_REG8((void CYFAR *)CYREG_PM_ACT_CFG
 172              		.loc 1 449 0
 173 0082 6C4C     		ldr	r4, .L20+24
 445:Generated_Source\PSoC5/cyfitter_cfg.c **** 		CY_SET_XTND_REG8((void CYFAR *)CYREG_BCTL1_BANK_CTL, CY_GET_XTND_REG8((void CYFAR *)CYREG_BCTL1_B
 174              		.loc 1 445 0
 175 0084 1378     		ldrb	r3, [r2]	@ zero_extendqisi2
 176              	.LBE59:
 177              	.LBB69:
 178              	.LBB70:
  80:Generated_Source\PSoC5/cyfitter_cfg.c **** }
 179              		.loc 1 80 0
 180 0086 6C4D     		ldr	r5, .L20+28
 181              	.LVL16:
 182              	.LBE70:
 183              	.LBE69:
 184              	.LBB72:
 445:Generated_Source\PSoC5/cyfitter_cfg.c **** 		CY_SET_XTND_REG8((void CYFAR *)CYREG_BCTL1_BANK_CTL, CY_GET_XTND_REG8((void CYFAR *)CYREG_BCTL1_B
 185              		.loc 1 445 0
 186 0088 43F00203 		orr	r3, r3, #2
 187 008c 1370     		strb	r3, [r2]
 446:Generated_Source\PSoC5/cyfitter_cfg.c **** 		CY_SET_XTND_REG8((void CYFAR *)CYREG_BCTL1_BANK_CTL, CY_GET_XTND_REG8((void CYFAR *)CYREG_BCTL1_B
 188              		.loc 1 446 0
 189 008e 137C     		ldrb	r3, [r2, #16]	@ zero_extendqisi2
 190              	.LBE72:
 191              	.LBB73:
 192              	.LBB74:
 271:Generated_Source\PSoC5/cyfitter_cfg.c **** 	/* Wait up to 250us for the PLL to lock */
 193              		.loc 1 271 0
 194 0090 1926     		movs	r6, #25
 195              	.LBE74:
 196              	.LBE73:
 197              	.LBB84:
 446:Generated_Source\PSoC5/cyfitter_cfg.c **** 
 198              		.loc 1 446 0
 199 0092 43F00203 		orr	r3, r3, #2
 200 0096 1374     		strb	r3, [r2, #16]
 201              		.loc 1 449 0
 202 0098 2378     		ldrb	r3, [r4]	@ zero_extendqisi2
 450:Generated_Source\PSoC5/cyfitter_cfg.c **** 		CY_SET_XTND_REG8((void CYFAR *)CYREG_PM_AVAIL_CR2, CY_GET_XTND_REG8((void CYFAR *)CYREG_PM_AVAIL_
 203              		.loc 1 450 0
 204 009a A2F58632 		sub	r2, r2, #68608
 449:Generated_Source\PSoC5/cyfitter_cfg.c **** 		CY_SET_XTND_REG8((void CYFAR *)CYREG_PM_AVAIL_CR2, CY_GET_XTND_REG8((void CYFAR *)CYREG_PM_AVAIL_
 205              		.loc 1 449 0
 206 009e 43F04003 		orr	r3, r3, #64
 207 00a2 2370     		strb	r3, [r4]
 208              		.loc 1 450 0
 209 00a4 413A     		subs	r2, r2, #65
 210 00a6 1378     		ldrb	r3, [r2]	@ zero_extendqisi2
 211 00a8 43F01003 		orr	r3, r3, #16
 212 00ac 1370     		strb	r3, [r2]
 213              	.LVL17:
 214              	.LBE84:
 451:Generated_Source\PSoC5/cyfitter_cfg.c **** 	}
 452:Generated_Source\PSoC5/cyfitter_cfg.c **** 
 453:Generated_Source\PSoC5/cyfitter_cfg.c **** 
ARM GAS  C:\Users\yqh\AppData\Local\Temp\ccqWcweW.s 			page 13


 454:Generated_Source\PSoC5/cyfitter_cfg.c **** 	/* Perform second pass device configuration. These items must be configured in specific order afte
 455:Generated_Source\PSoC5/cyfitter_cfg.c **** 	CYCONFIGCPY((void CYFAR *)(CYREG_PRT0_DR), (const void CYFAR *)(BS_IOPINS0_0_VAL), 10u);
 215              		.loc 1 455 0
 216 00ae 634B     		ldr	r3, .L20+32
 217              	.LVL18:
 218 00b0 03F57562 		add	r2, r3, #3920
 219              	.LBB85:
 220              	.LBB71:
  80:Generated_Source\PSoC5/cyfitter_cfg.c **** }
 221              		.loc 1 80 0
 222 00b4 07CA     		ldmia	r2, {r0, r1, r2}
 223              	.LVL19:
 224 00b6 03C5     		stmia	r5!, {r0, r1}
 225 00b8 2A80     		strh	r2, [r5]	@ movhi
 226              	.LVL20:
 227              	.LBE71:
 228              	.LBE85:
 456:Generated_Source\PSoC5/cyfitter_cfg.c **** 	CYCONFIGCPY((void CYFAR *)(CYREG_PRT12_DR), (const void CYFAR *)(BS_IOPINS0_7_VAL), 10u);
 229              		.loc 1 456 0
 230 00ba 03F65C72 		addw	r2, r3, #3932
 231              	.LBB86:
 232              	.LBB87:
  80:Generated_Source\PSoC5/cyfitter_cfg.c **** }
 233              		.loc 1 80 0
 234 00be B835     		adds	r5, r5, #184
 235 00c0 07CA     		ldmia	r2, {r0, r1, r2}
 236 00c2 03C5     		stmia	r5!, {r0, r1}
 237 00c4 2A80     		strh	r2, [r5]	@ movhi
 238              	.LVL21:
 239              	.LBE87:
 240              	.LBE86:
 241              	.LBB88:
 242              	.LBB89:
 243 00c6 D3F8680F 		ldr	r0, [r3, #3944]	@ unaligned
 244 00ca 5D4A     		ldr	r2, .L20+36
 245              	.LBE89:
 246              	.LBE88:
 247              	.LBB91:
 248              	.LBB92:
 249 00cc 2835     		adds	r5, r5, #40
 250              	.LBE92:
 251              	.LBE91:
 252              	.LBB94:
 253              	.LBB90:
 254 00ce 1060     		str	r0, [r2]	@ unaligned
 255 00d0 93F86C1F 		ldrb	r1, [r3, #3948]	@ zero_extendqisi2
 256 00d4 1171     		strb	r1, [r2, #4]
 257              	.LVL22:
 258              	.LBE90:
 259              	.LBE94:
 457:Generated_Source\PSoC5/cyfitter_cfg.c **** 	CYCONFIGCPY((void CYFAR *)(CYREG_PRT12_DR + 0x0000000Bu), (const void CYFAR *)(BS_IOPINS1_7_VAL), 
 458:Generated_Source\PSoC5/cyfitter_cfg.c **** 	CYCONFIGCPY((void CYFAR *)(CYREG_PRT15_DR), (const void CYFAR *)(BS_IOPINS0_8_VAL), 10u);
 260              		.loc 1 458 0
 261 00d6 03F57762 		add	r2, r3, #3952
 262              	.LBB95:
 263              	.LBB93:
  80:Generated_Source\PSoC5/cyfitter_cfg.c **** }
ARM GAS  C:\Users\yqh\AppData\Local\Temp\ccqWcweW.s 			page 14


 264              		.loc 1 80 0
 265 00da 07CA     		ldmia	r2, {r0, r1, r2}
 266 00dc 03C5     		stmia	r5!, {r0, r1}
 267 00de 2A80     		strh	r2, [r5]	@ movhi
 268              	.LVL23:
 269              	.LBE93:
 270              	.LBE95:
 459:Generated_Source\PSoC5/cyfitter_cfg.c **** 	CYCONFIGCPY((void CYFAR *)(CYREG_PRT1_DR), (const void CYFAR *)(BS_IOPINS0_1_VAL), 10u);
 271              		.loc 1 459 0
 272 00e0 03F67C72 		addw	r2, r3, #3964
 273              	.LBB96:
 274              	.LBB97:
  80:Generated_Source\PSoC5/cyfitter_cfg.c **** }
 275              		.loc 1 80 0
 276 00e4 E83D     		subs	r5, r5, #232
 277 00e6 07CA     		ldmia	r2, {r0, r1, r2}
 278 00e8 03C5     		stmia	r5!, {r0, r1}
 279 00ea 2A80     		strh	r2, [r5]	@ movhi
 280              	.LVL24:
 281              	.LBE97:
 282              	.LBE96:
 460:Generated_Source\PSoC5/cyfitter_cfg.c **** 	CYCONFIGCPY((void CYFAR *)(CYREG_PRT2_DR), (const void CYFAR *)(BS_IOPINS0_2_VAL), 10u);
 283              		.loc 1 460 0
 284 00ec 03F68872 		addw	r2, r3, #3976
 285              	.LBB98:
 286              	.LBB99:
  80:Generated_Source\PSoC5/cyfitter_cfg.c **** }
 287              		.loc 1 80 0
 288 00f0 0835     		adds	r5, r5, #8
 289 00f2 07CA     		ldmia	r2, {r0, r1, r2}
 290 00f4 03C5     		stmia	r5!, {r0, r1}
 291 00f6 2A80     		strh	r2, [r5]	@ movhi
 292              	.LVL25:
 293              	.LBE99:
 294              	.LBE98:
 461:Generated_Source\PSoC5/cyfitter_cfg.c **** 	CYCONFIGCPY((void CYFAR *)(CYREG_PRT3_DR), (const void CYFAR *)(BS_IOPINS0_3_VAL), 10u);
 295              		.loc 1 461 0
 296 00f8 03F69472 		addw	r2, r3, #3988
 297              	.LBB100:
 298              	.LBB101:
  80:Generated_Source\PSoC5/cyfitter_cfg.c **** }
 299              		.loc 1 80 0
 300 00fc 0835     		adds	r5, r5, #8
 301 00fe 07CA     		ldmia	r2, {r0, r1, r2}
 302 0100 03C5     		stmia	r5!, {r0, r1}
 303 0102 2A80     		strh	r2, [r5]	@ movhi
 304              	.LBE101:
 305              	.LBE100:
 462:Generated_Source\PSoC5/cyfitter_cfg.c **** 	CY_SET_XTND_REG8((void CYFAR *)(CYREG_B1_P3_U1_CFG27), 0x4Bu);
 306              		.loc 1 462 0
 307 0104 4F4A     		ldr	r2, .L20+40
 308 0106 4B21     		movs	r1, #75
 309 0108 1170     		strb	r1, [r2]
 463:Generated_Source\PSoC5/cyfitter_cfg.c **** 	CY_SET_XTND_REG8((void CYFAR *)(CYREG_B1_P5_U0_CFG27), 0x44u);
 310              		.loc 1 463 0
 311 010a 4421     		movs	r1, #68
 312 010c 82F88013 		strb	r1, [r2, #896]
ARM GAS  C:\Users\yqh\AppData\Local\Temp\ccqWcweW.s 			page 15


 464:Generated_Source\PSoC5/cyfitter_cfg.c **** 	/* Switch Boost to the precision bandgap reference from its internal reference */
 465:Generated_Source\PSoC5/cyfitter_cfg.c **** 	CY_SET_REG8((void CYXDATA *)CYREG_BOOST_CR2, (CY_GET_REG8((void CYXDATA *)CYREG_BOOST_CR2) | 0x08u
 313              		.loc 1 465 0
 314 0110 4D49     		ldr	r1, .L20+44
 315              	.LBB102:
 316              	.LBB79:
 247:Generated_Source\PSoC5/cyfitter_cfg.c **** 	CY_SET_XTND_REG8((void CYFAR *)(CYREG_CLKDIST_DCFG1_CFG0 + 0x2u), 0x18u);
 317              		.loc 1 247 0
 318 0112 5F20     		movs	r0, #95
 319              	.LBE79:
 320              	.LBE102:
 321              		.loc 1 465 0
 322 0114 0A78     		ldrb	r2, [r1]	@ zero_extendqisi2
 323              	.LBB103:
 324              	.LBB80:
 245:Generated_Source\PSoC5/cyfitter_cfg.c **** 	CY_SET_XTND_REG8((void CYFAR *)(CYREG_CLKDIST_DCFG0_CFG0 + 0x2u), 0x18u);
 325              		.loc 1 245 0
 326 0116 A1F2A221 		subw	r1, r1, #674
 327              	.LBE80:
 328              	.LBE103:
 329              		.loc 1 465 0
 330 011a 42F00802 		orr	r2, r2, #8
 331 011e 81F8A222 		strb	r2, [r1, #674]
 466:Generated_Source\PSoC5/cyfitter_cfg.c **** 
 467:Generated_Source\PSoC5/cyfitter_cfg.c **** 	/* Set Flash Cycles based on max possible frequency in case a glitch occurs during ClockSetup(). *
 468:Generated_Source\PSoC5/cyfitter_cfg.c **** 	CY_SET_XTND_REG8((void CYFAR *)(CYREG_CACHE_CC_CTL), (((CYDEV_INSTRUCT_CACHE_ENABLED) != 0) ? 0x01
 332              		.loc 1 468 0
 333 0122 0122     		movs	r2, #1
 334 0124 81F88027 		strb	r2, [r1, #1920]
 335              	.LBB104:
 336              	.LBB81:
 245:Generated_Source\PSoC5/cyfitter_cfg.c **** 	CY_SET_XTND_REG8((void CYFAR *)(CYREG_CLKDIST_DCFG0_CFG0 + 0x2u), 0x18u);
 337              		.loc 1 245 0
 338 0128 0A80     		strh	r2, [r1]	@ movhi
 246:Generated_Source\PSoC5/cyfitter_cfg.c **** 	CY_SET_XTND_REG16((void CYFAR *)(CYREG_CLKDIST_DCFG1_CFG0), 0x005Fu);
 339              		.loc 1 246 0
 340 012a 1822     		movs	r2, #24
 341 012c 8A70     		strb	r2, [r1, #2]
 247:Generated_Source\PSoC5/cyfitter_cfg.c **** 	CY_SET_XTND_REG8((void CYFAR *)(CYREG_CLKDIST_DCFG1_CFG0 + 0x2u), 0x18u);
 342              		.loc 1 247 0
 343 012e 8880     		strh	r0, [r1, #4]	@ movhi
 249:Generated_Source\PSoC5/cyfitter_cfg.c **** 	CY_SET_XTND_REG8((void CYFAR *)(CYREG_CLKDIST_DCFG2_CFG0 + 0x2u), 0x18u);
 344              		.loc 1 249 0
 345 0130 6720     		movs	r0, #103
 248:Generated_Source\PSoC5/cyfitter_cfg.c **** 	CY_SET_XTND_REG16((void CYFAR *)(CYREG_CLKDIST_DCFG2_CFG0), 0x0067u);
 346              		.loc 1 248 0
 347 0132 8A71     		strb	r2, [r1, #6]
 249:Generated_Source\PSoC5/cyfitter_cfg.c **** 	CY_SET_XTND_REG8((void CYFAR *)(CYREG_CLKDIST_DCFG2_CFG0 + 0x2u), 0x18u);
 348              		.loc 1 249 0
 349 0134 0881     		strh	r0, [r1, #8]	@ movhi
 251:Generated_Source\PSoC5/cyfitter_cfg.c **** 	CY_SET_XTND_REG8((void CYFAR *)(CYREG_CLKDIST_DCFG3_CFG0 + 0x2u), 0x18u);
 350              		.loc 1 251 0
 351 0136 40F2DF10 		movw	r0, #479
 250:Generated_Source\PSoC5/cyfitter_cfg.c **** 	CY_SET_XTND_REG16((void CYFAR *)(CYREG_CLKDIST_DCFG3_CFG0), 0x01DFu);
 352              		.loc 1 250 0
 353 013a 8A72     		strb	r2, [r1, #10]
 251:Generated_Source\PSoC5/cyfitter_cfg.c **** 	CY_SET_XTND_REG8((void CYFAR *)(CYREG_CLKDIST_DCFG3_CFG0 + 0x2u), 0x18u);
ARM GAS  C:\Users\yqh\AppData\Local\Temp\ccqWcweW.s 			page 16


 354              		.loc 1 251 0
 355 013c 8881     		strh	r0, [r1, #12]	@ movhi
 253:Generated_Source\PSoC5/cyfitter_cfg.c **** 	CY_SET_XTND_REG8((void CYFAR *)(CYREG_CLKDIST_DCFG4_CFG0 + 0x2u), 0x18u);
 356              		.loc 1 253 0
 357 013e 40F2E140 		movw	r0, #1249
 252:Generated_Source\PSoC5/cyfitter_cfg.c **** 	CY_SET_XTND_REG16((void CYFAR *)(CYREG_CLKDIST_DCFG4_CFG0), 0x04E1u);
 358              		.loc 1 252 0
 359 0142 8A73     		strb	r2, [r1, #14]
 253:Generated_Source\PSoC5/cyfitter_cfg.c **** 	CY_SET_XTND_REG8((void CYFAR *)(CYREG_CLKDIST_DCFG4_CFG0 + 0x2u), 0x18u);
 360              		.loc 1 253 0
 361 0144 0882     		strh	r0, [r1, #16]	@ movhi
 255:Generated_Source\PSoC5/cyfitter_cfg.c **** 	CY_SET_XTND_REG8((void CYFAR *)(CYREG_CLKDIST_DCFG5_CFG0 + 0x2u), 0x18u);
 362              		.loc 1 255 0
 363 0146 4FF6FF70 		movw	r0, #65535
 254:Generated_Source\PSoC5/cyfitter_cfg.c **** 	CY_SET_XTND_REG16((void CYFAR *)(CYREG_CLKDIST_DCFG5_CFG0), 0xFFFFu);
 364              		.loc 1 254 0
 365 014a 8A74     		strb	r2, [r1, #18]
 255:Generated_Source\PSoC5/cyfitter_cfg.c **** 	CY_SET_XTND_REG8((void CYFAR *)(CYREG_CLKDIST_DCFG5_CFG0 + 0x2u), 0x18u);
 366              		.loc 1 255 0
 367 014c 8882     		strh	r0, [r1, #20]	@ movhi
 256:Generated_Source\PSoC5/cyfitter_cfg.c **** 
 368              		.loc 1 256 0
 369 014e 8A75     		strb	r2, [r1, #22]
 370              	.LVL26:
 371              	.LBB75:
 372              	.LBB76:
  80:Generated_Source\PSoC5/cyfitter_cfg.c **** }
 373              		.loc 1 80 0
 374 0150 D3F8A02F 		ldr	r2, [r3, #4000]
 375 0154 3D4B     		ldr	r3, .L20+48
 376              	.LVL27:
 377              	.LBE76:
 378              	.LBE75:
 273:Generated_Source\PSoC5/cyfitter_cfg.c **** 	for (timeout = 250u / 10u; (timeout > 0u) && (pllLock != 0x03u); timeout--)
 379              		.loc 1 273 0
 380 0156 0025     		movs	r5, #0
 381              	.LBB78:
 382              	.LBB77:
  80:Generated_Source\PSoC5/cyfitter_cfg.c **** }
 383              		.loc 1 80 0
 384 0158 1A60     		str	r2, [r3]
 385              	.LBE77:
 386              	.LBE78:
 262:Generated_Source\PSoC5/cyfitter_cfg.c **** 	CY_SET_XTND_REG8((void CYFAR *)(CYREG_CLKDIST_CR), 0x04u);
 387              		.loc 1 262 0
 388 015a 2622     		movs	r2, #38
 389 015c 83F80022 		strb	r2, [r3, #512]
 263:Generated_Source\PSoC5/cyfitter_cfg.c **** 
 390              		.loc 1 263 0
 391 0160 4FF04022 		mov	r2, #1073758208
 392 0164 0423     		movs	r3, #4
 393 0166 1370     		strb	r3, [r2]
 266:Generated_Source\PSoC5/cyfitter_cfg.c **** 	CY_SET_XTND_REG8((void CYFAR *)(CYREG_IMO_TR1), (CY_GET_XTND_REG8((void CYFAR *)(CYREG_FLSHID_MFG_
 394              		.loc 1 266 0
 395 0168 82F80032 		strb	r3, [r2, #512]
 267:Generated_Source\PSoC5/cyfitter_cfg.c **** 
 396              		.loc 1 267 0
ARM GAS  C:\Users\yqh\AppData\Local\Temp\ccqWcweW.s 			page 17


 397 016c 384B     		ldr	r3, .L20+52
 398 016e 1B78     		ldrb	r3, [r3]	@ zero_extendqisi2
 399 0170 DBB2     		uxtb	r3, r3
 400 0172 82F8A136 		strb	r3, [r2, #1697]
 270:Generated_Source\PSoC5/cyfitter_cfg.c **** 	CY_SET_XTND_REG16((void CYFAR *)(CYREG_FASTCLK_PLL_CFG0), 0x1251u);
 401              		.loc 1 270 0
 402 0176 374B     		ldr	r3, .L20+56
 403 0178 4FF47162 		mov	r2, #3856
 404 017c 1A80     		strh	r2, [r3]	@ movhi
 271:Generated_Source\PSoC5/cyfitter_cfg.c **** 	/* Wait up to 250us for the PLL to lock */
 405              		.loc 1 271 0
 406 017e 41F25122 		movw	r2, #4689
 407 0182 23F8022C 		strh	r2, [r3, #-2]	@ movhi
 408              	.LVL28:
 409              	.L10:
 276:Generated_Source\PSoC5/cyfitter_cfg.c **** 		CyDelayCycles(10u * 48u); /* Delay 10us based on 48MHz clock */
 410              		.loc 1 276 0
 411 0186 344B     		ldr	r3, .L20+60
 277:Generated_Source\PSoC5/cyfitter_cfg.c **** 	}
 412              		.loc 1 277 0
 413 0188 4FF4F070 		mov	r0, #480
 276:Generated_Source\PSoC5/cyfitter_cfg.c **** 		CyDelayCycles(10u * 48u); /* Delay 10us based on 48MHz clock */
 414              		.loc 1 276 0
 415 018c 1B78     		ldrb	r3, [r3]	@ zero_extendqisi2
 416 018e 03F00103 		and	r3, r3, #1
 417 0192 43EA4505 		orr	r5, r3, r5, lsl #1
 418              	.LVL29:
 277:Generated_Source\PSoC5/cyfitter_cfg.c **** 	}
 419              		.loc 1 277 0
 420 0196 FFF7FEFF 		bl	CyDelayCycles
 421              	.LVL30:
 274:Generated_Source\PSoC5/cyfitter_cfg.c **** 	{ 
 422              		.loc 1 274 0
 423 019a 013E     		subs	r6, r6, #1
 424              	.LVL31:
 276:Generated_Source\PSoC5/cyfitter_cfg.c **** 		CyDelayCycles(10u * 48u); /* Delay 10us based on 48MHz clock */
 425              		.loc 1 276 0
 426 019c 05F00305 		and	r5, r5, #3
 427              	.LVL32:
 274:Generated_Source\PSoC5/cyfitter_cfg.c **** 	{ 
 428              		.loc 1 274 0
 429 01a0 3BD0     		beq	.L9
 430              	.LVL33:
 431 01a2 032D     		cmp	r5, #3
 432 01a4 EFD1     		bne	.L10
 286:Generated_Source\PSoC5/cyfitter_cfg.c **** 	CY_SET_XTND_REG8((void CYFAR *)(CYREG_CLKDIST_MSTR0), 0x07u);
 433              		.loc 1 286 0
 434 01a6 2D4B     		ldr	r3, .L20+64
 435 01a8 4FF48072 		mov	r2, #256
 436 01ac 1A80     		strh	r2, [r3]	@ movhi
 288:Generated_Source\PSoC5/cyfitter_cfg.c **** 	CY_SET_XTND_REG8((void CYFAR *)(CYREG_CLKDIST_BCFG2), 0x48u);
 437              		.loc 1 288 0
 438 01ae 2C49     		ldr	r1, .L20+68
 287:Generated_Source\PSoC5/cyfitter_cfg.c **** 	CY_SET_XTND_REG8((void CYFAR *)(CYREG_CLKDIST_BCFG0), 0x00u);
 439              		.loc 1 287 0
 440 01b0 0722     		movs	r2, #7
 441 01b2 1A70     		strb	r2, [r3]
ARM GAS  C:\Users\yqh\AppData\Local\Temp\ccqWcweW.s 			page 18


 289:Generated_Source\PSoC5/cyfitter_cfg.c **** 	CY_SET_XTND_REG8((void CYFAR *)(CYREG_CLKDIST_MSTR0), 0x00u);
 442              		.loc 1 289 0
 443 01b4 4820     		movs	r0, #72
 288:Generated_Source\PSoC5/cyfitter_cfg.c **** 	CY_SET_XTND_REG8((void CYFAR *)(CYREG_CLKDIST_BCFG2), 0x48u);
 444              		.loc 1 288 0
 445 01b6 0022     		movs	r2, #0
 446 01b8 0A70     		strb	r2, [r1]
 289:Generated_Source\PSoC5/cyfitter_cfg.c **** 	CY_SET_XTND_REG8((void CYFAR *)(CYREG_CLKDIST_MSTR0), 0x00u);
 447              		.loc 1 289 0
 448 01ba 8870     		strb	r0, [r1, #2]
 290:Generated_Source\PSoC5/cyfitter_cfg.c **** 	CY_SET_XTND_REG8((void CYFAR *)(CYREG_CLKDIST_LD), 0x02u);
 449              		.loc 1 290 0
 450 01bc 1A70     		strb	r2, [r3]
 291:Generated_Source\PSoC5/cyfitter_cfg.c **** 	CY_SET_XTND_REG8((void CYFAR *)(CYREG_CLKDIST_DLY1), 0x04u);
 451              		.loc 1 291 0
 452 01be 0222     		movs	r2, #2
 453 01c0 03F8032C 		strb	r2, [r3, #-3]
 292:Generated_Source\PSoC5/cyfitter_cfg.c **** 
 454              		.loc 1 292 0
 455 01c4 0422     		movs	r2, #4
 456 01c6 DA71     		strb	r2, [r3, #7]
 294:Generated_Source\PSoC5/cyfitter_cfg.c **** 	CY_SET_XTND_REG8((void CYFAR *)(CYREG_PM_ACT_CFG1), ((CY_GET_XTND_REG8((void CYFAR *)CYREG_PM_ACT_
 457              		.loc 1 294 0
 458 01c8 264A     		ldr	r2, .L20+72
 459              	.LBE81:
 460              	.LBE104:
 461              	.LBB105:
 462              	.LBB106:
  80:Generated_Source\PSoC5/cyfitter_cfg.c **** }
 463              		.loc 1 80 0
 464 01ca 274D     		ldr	r5, .L20+76
 465              	.LVL34:
 466              	.LBE106:
 467              	.LBE105:
 468              	.LBB108:
 469              	.LBB82:
 294:Generated_Source\PSoC5/cyfitter_cfg.c **** 	CY_SET_XTND_REG8((void CYFAR *)(CYREG_PM_ACT_CFG1), ((CY_GET_XTND_REG8((void CYFAR *)CYREG_PM_ACT_
 470              		.loc 1 294 0
 471 01cc 1378     		ldrb	r3, [r2]	@ zero_extendqisi2
 472 01ce 43F03F03 		orr	r3, r3, #63
 473 01d2 1370     		strb	r3, [r2]
 295:Generated_Source\PSoC5/cyfitter_cfg.c **** 	CY_SET_XTND_REG8((void CYFAR *)(CYREG_PM_ACT_CFG0), ((CY_GET_XTND_REG8((void CYFAR *)CYREG_PM_ACT_
 474              		.loc 1 295 0
 475 01d4 12F8013C 		ldrb	r3, [r2, #-1]	@ zero_extendqisi2
 476 01d8 43F00103 		orr	r3, r3, #1
 477 01dc 02F8013C 		strb	r3, [r2, #-1]
 296:Generated_Source\PSoC5/cyfitter_cfg.c **** }
 478              		.loc 1 296 0
 479 01e0 2378     		ldrb	r3, [r4]	@ zero_extendqisi2
 480              	.LBE82:
 481              	.LBE108:
 469:Generated_Source\PSoC5/cyfitter_cfg.c **** 	/* Setup clocks based on selections from Clock DWR */
 470:Generated_Source\PSoC5/cyfitter_cfg.c **** 	ClockSetup();
 471:Generated_Source\PSoC5/cyfitter_cfg.c **** 	/* Set Flash Cycles based on newly configured 48.00MHz Bus Clock. */
 472:Generated_Source\PSoC5/cyfitter_cfg.c **** 	CY_SET_XTND_REG8((void CYFAR *)(CYREG_CACHE_CC_CTL), (((CYDEV_INSTRUCT_CACHE_ENABLED) != 0) ? 0xC1
 482              		.loc 1 472 0
 483 01e2 C122     		movs	r2, #193
ARM GAS  C:\Users\yqh\AppData\Local\Temp\ccqWcweW.s 			page 19


 484              	.LBB109:
 485              	.LBB83:
 296:Generated_Source\PSoC5/cyfitter_cfg.c **** }
 486              		.loc 1 296 0
 487 01e4 43F08003 		orr	r3, r3, #128
 488 01e8 2370     		strb	r3, [r4]
 489              	.LBE83:
 490              	.LBE109:
 491              		.loc 1 472 0
 492 01ea 204B     		ldr	r3, .L20+80
 493 01ec 1A70     		strb	r2, [r3]
 473:Generated_Source\PSoC5/cyfitter_cfg.c **** 	CY_SET_XTND_REG8((void CYFAR *)(CYREG_PANTHER_WAITPIPE), 0x01u);
 494              		.loc 1 473 0
 495 01ee 03F5F723 		add	r3, r3, #505856
 496 01f2 0122     		movs	r2, #1
 497 01f4 0433     		adds	r3, r3, #4
 498 01f6 1A70     		strb	r2, [r3]
 499              	.LBB110:
 500              	.LBB111:
 321:Generated_Source\PSoC5/cyfitter_cfg.c **** 	CY_SET_XTND_REG8((void CYFAR *)(CYREG_BG_DFT0), (bg_xover_inl_trim & 0x07u));
 501              		.loc 1 321 0
 502 01f8 1D4B     		ldr	r3, .L20+84
 322:Generated_Source\PSoC5/cyfitter_cfg.c **** 	CY_SET_XTND_REG8((void CYFAR *)(CYREG_BG_DFT1), ((bg_xover_inl_trim >> 4) & 0x0Fu));
 503              		.loc 1 322 0
 504 01fa 1E4A     		ldr	r2, .L20+88
 321:Generated_Source\PSoC5/cyfitter_cfg.c **** 	CY_SET_XTND_REG8((void CYFAR *)(CYREG_BG_DFT0), (bg_xover_inl_trim & 0x07u));
 505              		.loc 1 321 0
 506 01fc 1B78     		ldrb	r3, [r3]	@ zero_extendqisi2
 507 01fe DBB2     		uxtb	r3, r3
 508              	.LVL35:
 322:Generated_Source\PSoC5/cyfitter_cfg.c **** 	CY_SET_XTND_REG8((void CYFAR *)(CYREG_BG_DFT1), ((bg_xover_inl_trim >> 4) & 0x0Fu));
 509              		.loc 1 322 0
 510 0200 03F00701 		and	r1, r3, #7
 323:Generated_Source\PSoC5/cyfitter_cfg.c **** 	CY_SET_XTND_REG8((void CYFAR *)CYREG_PUMP_CR0, 0x44u);
 511              		.loc 1 323 0
 512 0204 1B09     		lsrs	r3, r3, #4
 513              	.LVL36:
 322:Generated_Source\PSoC5/cyfitter_cfg.c **** 	CY_SET_XTND_REG8((void CYFAR *)(CYREG_BG_DFT1), ((bg_xover_inl_trim >> 4) & 0x0Fu));
 514              		.loc 1 322 0
 515 0206 1170     		strb	r1, [r2]
 323:Generated_Source\PSoC5/cyfitter_cfg.c **** 	CY_SET_XTND_REG8((void CYFAR *)CYREG_PUMP_CR0, 0x44u);
 516              		.loc 1 323 0
 517 0208 5370     		strb	r3, [r2, #1]
 324:Generated_Source\PSoC5/cyfitter_cfg.c **** }
 518              		.loc 1 324 0
 519 020a 1B4B     		ldr	r3, .L20+92
 520 020c 4422     		movs	r2, #68
 521 020e 1A70     		strb	r2, [r3]
 522              	.LVL37:
 523              	.LBE111:
 524              	.LBE110:
 525              	.LBB112:
 526              	.LBB107:
  80:Generated_Source\PSoC5/cyfitter_cfg.c **** }
 527              		.loc 1 80 0
 528 0210 94E80F00 		ldmia	r4, {r0, r1, r2, r3}
 529 0214 07C5     		stmia	r5!, {r0, r1, r2}
ARM GAS  C:\Users\yqh\AppData\Local\Temp\ccqWcweW.s 			page 20


 530 0216 2B80     		strh	r3, [r5]	@ movhi
 531 0218 F8BD     		pop	{r3, r4, r5, r6, r7, pc}
 532              	.LVL38:
 533              	.L9:
 534 021a FEE7     		b	.L9
 535              	.L21:
 536              		.align	2
 537              	.L20:
 538 021c E8460040 		.word	1073759976
 539 0220 00000000 		.word	.LANCHOR0
 540 0224 80020140 		.word	1073808000
 541 0228 00060140 		.word	1073808896
 542 022c 00000000 		.word	CY_ECC_OFFSET
 543 0230 03500140 		.word	1073827843
 544 0234 A0430040 		.word	1073759136
 545 0238 00510040 		.word	1073762560
 546 023c 00000048 		.word	CY_ECC_OFFSET+1207959552
 547 0240 CB510040 		.word	1073762763
 548 0244 DB160140 		.word	1073813211
 549 0248 22430040 		.word	1073759010
 550 024c 00410040 		.word	1073758464
 551 0250 89010049 		.word	1224737161
 552 0254 22420040 		.word	1073758754
 553 0258 25420040 		.word	1073758757
 554 025c 04400040 		.word	1073758212
 555 0260 06400040 		.word	1073758214
 556 0264 A2430040 		.word	1073759138
 557 0268 B0430040 		.word	1073759152
 558 026c 00480040 		.word	1073760256
 559 0270 CF010049 		.word	1224737231
 560 0274 6E580040 		.word	1073764462
 561 0278 76580040 		.word	1073764470
 562              	.LBE107:
 563              	.LBE112:
 564              		.cfi_endproc
 565              	.LFE8:
 566              		.size	cyfitter_cfg, .-cyfitter_cfg
 567              		.section	.rodata
 568              		.set	.LANCHOR0,. + 0
 569              		.type	cfg_memset_list.4886, %object
 570              		.size	cfg_memset_list.4886, 60
 571              	cfg_memset_list.4886:
 572 0000 C8490040 		.4byte	1073760712
 573 0004 1900     		.2byte	25
 574 0006 004F0040 		.4byte	1073762048
 575 000a 1800     		.2byte	24
 576 000c 40510040 		.4byte	1073762624
 577 0010 3000     		.2byte	48
 578 0012 00000140 		.4byte	1073807360
 579 0016 8002     		.2byte	640
 580 0018 00030140 		.4byte	1073808128
 581 001c 0003     		.2byte	768
 582 001e 80060140 		.4byte	1073809024
 583 0022 8009     		.2byte	2432
 584 0024 00140140 		.4byte	1073812480
 585 0028 0008     		.2byte	2048
 586 002a 00400140 		.4byte	1073823744
ARM GAS  C:\Users\yqh\AppData\Local\Temp\ccqWcweW.s 			page 21


 587 002e 000A     		.2byte	2560
 588 0030 004C0140 		.4byte	1073826816
 589 0034 0002     		.2byte	512
 590 0036 00500140 		.4byte	1073827840
 591 003a 2000     		.2byte	32
 592              		.type	cfg_memcpy_list.4887, %object
 593              		.size	cfg_memcpy_list.4887, 20
 594              	cfg_memcpy_list.4887:
 595 003c 80020140 		.4byte	1073808000
 596 0040 500E0048 		.4byte	CY_ECC_OFFSET+1207963216
 597 0044 8000     		.2byte	128
 598 0046 00060140 		.4byte	1073808896
 599 004a D00E0048 		.4byte	CY_ECC_OFFSET+1207963344
 600 004e 8000     		.2byte	128
 601              		.text
 602              	.Letext0:
 603              		.file 2 "c:\\program files (x86)\\cypress\\psoc creator\\4.0\\psoc creator\\import\\gnu\\arm\\4.9.
 604              		.file 3 "Generated_Source\\PSoC5\\cytypes.h"
 605              		.file 4 "Generated_Source\\PSoC5\\CyLib.h"