ARM GAS  C:\Users\yqh\AppData\Local\Temp\cch5ILZG.s 			page 1


   1              		.syntax unified
   2              		.cpu cortex-m3
   3              		.fpu softvfp
   4              		.eabi_attribute 20, 1
   5              		.eabi_attribute 21, 1
   6              		.eabi_attribute 23, 3
   7              		.eabi_attribute 24, 1
   8              		.eabi_attribute 25, 1
   9              		.eabi_attribute 26, 1
  10              		.eabi_attribute 30, 4
  11              		.eabi_attribute 34, 1
  12              		.eabi_attribute 18, 4
  13              		.thumb
  14              		.file	"inout.c"
  15              		.text
  16              	.Ltext0:
  17              		.cfi_sections	.debug_frame
  18              		.section	.text.SetHardwareVals,"ax",%progbits
  19              		.align	1
  20              		.global	SetHardwareVals
  21              		.thumb
  22              		.thumb_func
  23              		.type	SetHardwareVals, %function
  24              	SetHardwareVals:
  25              	.LFB63:
  26              		.file 1 "inout.c"
   1:inout.c       **** /* ========================================
   2:inout.c       ****  *
   3:inout.c       ****  * Copyright YOUR COMPANY, THE YEAR
   4:inout.c       ****  * All Rights Reserved
   5:inout.c       ****  * UNPUBLISHED, LICENSED SOFTWARE.
   6:inout.c       ****  *
   7:inout.c       ****  * CONFIDENTIAL AND PROPRIETARY INFORMATION
   8:inout.c       ****  * WHICH IS THE PROPERTY OF your company.
   9:inout.c       ****  *
  10:inout.c       ****  * ========================================
  11:inout.c       **** */
  12:inout.c       **** 
  13:inout.c       **** // GRI 1-13-2015 - Revised for 3.1.1;  TAMPER_OUT must not be set in SetHardwareVals - has been mov
  14:inout.c       **** // GRI 2-04-2015 - Revised for 3.1.5;  Extensive revision to input signal checker to add debounce/n
  15:inout.c       **** 
  16:inout.c       **** #include <project.h>
  17:inout.c       **** #include "system.h"
  18:inout.c       **** #include "i2cuart.h"
  19:inout.c       **** #include "toc.h"
  20:inout.c       **** 
  21:inout.c       **** //int pwr_cnt;
  22:inout.c       **** 
  23:inout.c       **** // this function reads the current settings from the file register 
  24:inout.c       **** // and configures the outputs accordingly
  25:inout.c       **** void  SetHardwareVals(char val)
  26:inout.c       **** {
  27              		.loc 1 26 0
  28              		.cfi_startproc
  29              		@ args = 0, pretend = 0, frame = 0
  30              		@ frame_needed = 0, uses_anonymous_args = 0
  31              	.LVL0:
ARM GAS  C:\Users\yqh\AppData\Local\Temp\cch5ILZG.s 			page 2


  32 0000 10B5     		push	{r4, lr}
  33              		.cfi_def_cfa_offset 8
  34              		.cfi_offset 4, -8
  35              		.cfi_offset 14, -4
  36              		.loc 1 26 0
  37 0002 0446     		mov	r4, r0
  27:inout.c       ****     // 1 - low ; 0 - high
  28:inout.c       **** 
  29:inout.c       ****     if((val&LED_OUT_RED) == LED_OUT_RED) 
  38              		.loc 1 29 0
  39 0004 10F00100 		ands	r0, r0, #1
  40              	.LVL1:
  30:inout.c       **** 	    LEDR_OUT_Write(1);
  41              		.loc 1 30 0
  42 0008 18BF     		it	ne
  43 000a 0120     		movne	r0, #1
  31:inout.c       ****     else
  32:inout.c       ****         LEDR_OUT_Write(0);
  44              		.loc 1 32 0
  45 000c FFF7FEFF 		bl	LEDR_OUT_Write
  46              	.LVL2:
  33:inout.c       ****         
  34:inout.c       ****     if((val&LED_OUT_GRN) == LED_OUT_GRN) 
  47              		.loc 1 34 0
  48 0010 04F00203 		and	r3, r4, #2
  49 0014 03F0FF00 		and	r0, r3, #255
  50 0018 03B1     		cbz	r3, .L4
  35:inout.c       **** 	    LEDG_OUT_Write(1);
  51              		.loc 1 35 0
  52 001a 0120     		movs	r0, #1
  53              	.L4:
  36:inout.c       ****     else
  37:inout.c       ****         LEDG_OUT_Write(0);
  54              		.loc 1 37 0
  55 001c FFF7FEFF 		bl	LEDG_OUT_Write
  56              	.LVL3:
  38:inout.c       ****         
  39:inout.c       **** 	if((val&SOUNDER_OUT) == SOUNDER_OUT) 
  57              		.loc 1 39 0
  58 0020 04F00403 		and	r3, r4, #4
  59 0024 03F0FF00 		and	r0, r3, #255
  60 0028 03B1     		cbz	r3, .L6
  40:inout.c       **** 	    SOUND_OUT_Write(1);
  61              		.loc 1 40 0
  62 002a 0120     		movs	r0, #1
  63              	.L6:
  41:inout.c       ****     else
  42:inout.c       ****         SOUND_OUT_Write(0);
  64              		.loc 1 42 0
  65 002c FFF7FEFF 		bl	SOUND_OUT_Write
  66              	.LVL4:
  43:inout.c       **** 
  44:inout.c       ****     // TAMPER_OUT logic is now moved to HandleInputs.  (GRI 1-13-15, 2-3-15)
  45:inout.c       ****     // TAMPER_POL is incoming webconfig polarity bit for CR tamper.
  46:inout.c       ****     if((val&TAMPERCR_POL) == TAMPERCR_POL)  
  67              		.loc 1 46 0
  68 0030 04F00802 		and	r2, r4, #8
ARM GAS  C:\Users\yqh\AppData\Local\Temp\cch5ILZG.s 			page 3


  69 0034 02F0FF01 		and	r1, r2, #255
  70 0038 0E4B     		ldr	r3, .L18
  71 003a 12B1     		cbz	r2, .L8
  47:inout.c       ****         tamperCR_polarity = 1;
  72              		.loc 1 47 0
  73 003c 0122     		movs	r2, #1
  74 003e 1A60     		str	r2, [r3]
  75 0040 00E0     		b	.L9
  76              	.L8:
  48:inout.c       ****     else
  49:inout.c       ****         tamperCR_polarity = 0;
  77              		.loc 1 49 0
  78 0042 1960     		str	r1, [r3]
  79              	.L9:
  50:inout.c       ****                 
  51:inout.c       ****     if((val&RELAY_1_OUT) == RELAY_1_OUT) 
  80              		.loc 1 51 0
  81 0044 04F01003 		and	r3, r4, #16
  82 0048 03F0FF00 		and	r0, r3, #255
  83 004c 03B1     		cbz	r3, .L10
  52:inout.c       ****         RELAY_A_Write(1);
  84              		.loc 1 52 0
  85 004e 0120     		movs	r0, #1
  86              	.L10:
  53:inout.c       ****     else
  54:inout.c       ****         RELAY_A_Write(0);
  87              		.loc 1 54 0
  88 0050 FFF7FEFF 		bl	RELAY_A_Write
  89              	.LVL5:
  55:inout.c       ****         
  56:inout.c       ****     if((val&RELAY_2_OUT) == RELAY_2_OUT) 
  90              		.loc 1 56 0
  91 0054 04F02003 		and	r3, r4, #32
  92 0058 03F0FF00 		and	r0, r3, #255
  93 005c 03B1     		cbz	r3, .L12
  57:inout.c       ****         RELAY_B_Write(1);
  94              		.loc 1 57 0
  95 005e 0120     		movs	r0, #1
  96              	.L12:
  58:inout.c       ****     else
  59:inout.c       ****         RELAY_B_Write(0);
  97              		.loc 1 59 0
  98 0060 FFF7FEFF 		bl	RELAY_B_Write
  99              	.LVL6:
  60:inout.c       **** 	
  61:inout.c       ****     if((val&TAMPER_OUT) == TAMPER_OUT)  
 100              		.loc 1 61 0
 101 0064 14F0400F 		tst	r4, #64
 102 0068 034B     		ldr	r3, .L18+4
  62:inout.c       ****         tamper_out_polarity = 0;  //0 is high, same as input.
 103              		.loc 1 62 0
 104 006a 14BF     		ite	ne
 105 006c 0022     		movne	r2, #0
  63:inout.c       ****     else
  64:inout.c       ****         tamper_out_polarity = 1;
 106              		.loc 1 64 0
 107 006e 0122     		moveq	r2, #1
ARM GAS  C:\Users\yqh\AppData\Local\Temp\cch5ILZG.s 			page 4


 108 0070 1A60     		str	r2, [r3]
 109 0072 10BD     		pop	{r4, pc}
 110              	.L19:
 111              		.align	2
 112              	.L18:
 113 0074 00000000 		.word	tamperCR_polarity
 114 0078 00000000 		.word	tamper_out_polarity
 115              		.cfi_endproc
 116              	.LFE63:
 117              		.size	SetHardwareVals, .-SetHardwareVals
 118              		.section	.text.GetHardwareVals,"ax",%progbits
 119              		.align	1
 120              		.global	GetHardwareVals
 121              		.thumb
 122              		.thumb_func
 123              		.type	GetHardwareVals, %function
 124              	GetHardwareVals:
 125              	.LFB64:
  65:inout.c       **** 
  66:inout.c       **** } 
  67:inout.c       **** 
  68:inout.c       **** 
  69:inout.c       **** 
  70:inout.c       **** uint8 GetHardwareVals()
  71:inout.c       **** {
 126              		.loc 1 71 0
 127              		.cfi_startproc
 128              		@ args = 0, pretend = 0, frame = 0
 129              		@ frame_needed = 0, uses_anonymous_args = 0
 130              	.LVL7:
 131 0000 10B5     		push	{r4, lr}
 132              		.cfi_def_cfa_offset 8
 133              		.cfi_offset 4, -8
 134              		.cfi_offset 14, -4
  72:inout.c       **** 	uint8 val = 0xFF;
  73:inout.c       **** 	
  74:inout.c       **** 	if (LEDR_IN_Read() == 1)
 135              		.loc 1 74 0
 136 0002 FFF7FEFF 		bl	LEDR_IN_Read
 137              	.LVL8:
  75:inout.c       **** 	    val |= LED_IN_RED;
  76:inout.c       ****     else
  77:inout.c       ****         val &= ~LED_IN_RED;
 138              		.loc 1 77 0
 139 0006 0128     		cmp	r0, #1
 140 0008 14BF     		ite	ne
 141 000a FE24     		movne	r4, #254
 142 000c FF24     		moveq	r4, #255
 143              	.LVL9:
  78:inout.c       ****     
  79:inout.c       **** 	if (LEDG_IN_Read() == 1)
 144              		.loc 1 79 0
 145 000e FFF7FEFF 		bl	LEDG_IN_Read
 146              	.LVL10:
 147 0012 0128     		cmp	r0, #1
  80:inout.c       **** 	    val |= LED_IN_GRN;
  81:inout.c       ****     else
ARM GAS  C:\Users\yqh\AppData\Local\Temp\cch5ILZG.s 			page 5


  82:inout.c       ****        val &= ~LED_IN_GRN; 
 148              		.loc 1 82 0
 149 0014 18BF     		it	ne
 150 0016 04F0FD04 		andne	r4, r4, #253
 151              	.LVL11:
  83:inout.c       **** 
  84:inout.c       **** 	if (SOUND_IN_Read() == 1)
 152              		.loc 1 84 0
 153 001a FFF7FEFF 		bl	SOUND_IN_Read
 154              	.LVL12:
 155 001e 0128     		cmp	r0, #1
  85:inout.c       **** 	   val |= SOUNDER_IN;
  86:inout.c       ****     else
  87:inout.c       ****        val &= ~SOUNDER_IN;
 156              		.loc 1 87 0
 157 0020 18BF     		it	ne
 158 0022 04F0FB04 		andne	r4, r4, #251
 159              	.LVL13:
  88:inout.c       ****     
  89:inout.c       ****     return val;
  90:inout.c       **** }
 160              		.loc 1 90 0
 161 0026 2046     		mov	r0, r4
 162 0028 10BD     		pop	{r4, pc}
 163              		.cfi_endproc
 164              	.LFE64:
 165              		.size	GetHardwareVals, .-GetHardwareVals
 166              		.section	.text.GetResetButton,"ax",%progbits
 167              		.align	1
 168              		.global	GetResetButton
 169              		.thumb
 170              		.thumb_func
 171              		.type	GetResetButton, %function
 172              	GetResetButton:
 173              	.LFB65:
  91:inout.c       **** 
  92:inout.c       **** 
  93:inout.c       **** uint8 GetResetButton()
  94:inout.c       **** {
 174              		.loc 1 94 0
 175              		.cfi_startproc
 176              		@ args = 0, pretend = 0, frame = 0
 177              		@ frame_needed = 0, uses_anonymous_args = 0
 178              	.LVL14:
 179 0000 38B5     		push	{r3, r4, r5, lr}
 180              		.cfi_def_cfa_offset 16
 181              		.cfi_offset 3, -16
 182              		.cfi_offset 4, -12
 183              		.cfi_offset 5, -8
 184              		.cfi_offset 14, -4
  95:inout.c       **** 	uint8 val = 0;
  96:inout.c       ****     
  97:inout.c       ****     if (buttonReleased){
 185              		.loc 1 97 0
 186 0002 174B     		ldr	r3, .L36
 187 0004 0024     		movs	r4, #0
 188 0006 1878     		ldrb	r0, [r3]	@ zero_extendqisi2
ARM GAS  C:\Users\yqh\AppData\Local\Temp\cch5ILZG.s 			page 6


 189 0008 48B3     		cbz	r0, .L32
  98:inout.c       ****         buttonReleased = 0;
  99:inout.c       ****         if(buttonDuration < FCTRYRST_TIME_MS){ //less than 5 seconds, ignore
 190              		.loc 1 99 0
 191 000a 41F28732 		movw	r2, #4999
  98:inout.c       ****         buttonReleased = 0;
 192              		.loc 1 98 0
 193 000e 1C70     		strb	r4, [r3]
 194              		.loc 1 99 0
 195 0010 144B     		ldr	r3, .L36+4
 196 0012 154D     		ldr	r5, .L36+8
 197 0014 1B68     		ldr	r3, [r3]
 198 0016 9342     		cmp	r3, r2
 199 0018 02DC     		bgt	.L33
 100:inout.c       ****             val = 0; 
 101:inout.c       ****             MyI2C_Regs.factory_reset = 0;
 200              		.loc 1 101 0
 201 001a AC71     		strb	r4, [r5, #6]
 100:inout.c       ****             val = 0; 
 202              		.loc 1 100 0
 203 001c 2046     		mov	r0, r4
 204 001e 38BD     		pop	{r3, r4, r5, pc}
 205              	.L33:
 102:inout.c       ****         }else if(buttonDuration >=FCTRYRST_TIME_MS && buttonDuration < RSTR_TIME_MS){ //5~45 second
 206              		.loc 1 102 0
 207 0020 49F63F42 		movw	r2, #39999
 208 0024 A3F59C53 		sub	r3, r3, #4992
 209 0028 083B     		subs	r3, r3, #8
 210 002a 9342     		cmp	r3, r2
 103:inout.c       ****             LED_RED_Write(ON);
 211              		.loc 1 103 0
 212 002c 2046     		mov	r0, r4
 102:inout.c       ****         }else if(buttonDuration >=FCTRYRST_TIME_MS && buttonDuration < RSTR_TIME_MS){ //5~45 second
 213              		.loc 1 102 0
 214 002e 0BD8     		bhi	.L34
 215              		.loc 1 103 0
 216 0030 FFF7FEFF 		bl	LED_RED_Write
 217              	.LVL15:
 104:inout.c       ****             LED_GRN_Write(ON);
 218              		.loc 1 104 0
 219 0034 2046     		mov	r0, r4
 220 0036 FFF7FEFF 		bl	LED_GRN_Write
 221              	.LVL16:
 105:inout.c       ****             LED_YEL_Write(ON);
 222              		.loc 1 105 0
 223 003a 2046     		mov	r0, r4
 224 003c FFF7FEFF 		bl	LED_YEL_Write
 225              	.LVL17:
 106:inout.c       ****             val = BTN_STATUS_CHG | FCTRY_RST;  // active reset initiated
 107:inout.c       ****             MyI2C_Regs.factory_reset = FACRST_CODE;
 226              		.loc 1 107 0
 227 0040 C623     		movs	r3, #198
 228 0042 AB71     		strb	r3, [r5, #6]
 106:inout.c       ****             val = BTN_STATUS_CHG | FCTRY_RST;  // active reset initiated
 229              		.loc 1 106 0
 230 0044 0320     		movs	r0, #3
 231 0046 38BD     		pop	{r3, r4, r5, pc}
ARM GAS  C:\Users\yqh\AppData\Local\Temp\cch5ILZG.s 			page 7


 232              	.LVL18:
 233              	.L34:
 234              	.LBB4:
 235              	.LBB5:
 108:inout.c       ****         }else if(buttonDuration>=RSTR_TIME_MS){ //45 or more seconds, factory restore
 109:inout.c       ****             LED_RED_Write(ON);
 236              		.loc 1 109 0
 237 0048 FFF7FEFF 		bl	LED_RED_Write
 238              	.LVL19:
 110:inout.c       ****             LED_GRN_Write(ON);
 239              		.loc 1 110 0
 240 004c 2046     		mov	r0, r4
 241 004e FFF7FEFF 		bl	LED_GRN_Write
 242              	.LVL20:
 111:inout.c       ****             LED_YEL_Write(ON);
 243              		.loc 1 111 0
 244 0052 2046     		mov	r0, r4
 245 0054 FFF7FEFF 		bl	LED_YEL_Write
 246              	.LVL21:
 112:inout.c       ****             val = BTN_STATUS_CHG | FCTRY_RSTR; 
 113:inout.c       ****             MyI2C_Regs.factory_reset = RESTRE_CODE;
 247              		.loc 1 113 0
 248 0058 9923     		movs	r3, #153
 249 005a AB71     		strb	r3, [r5, #6]
 250 005c 0520     		movs	r0, #5
 251              	.LVL22:
 252              	.L32:
 253              	.LBE5:
 254              	.LBE4:
 114:inout.c       ****         }
 115:inout.c       ****     }
 116:inout.c       ****     return val;
 117:inout.c       **** }
 255              		.loc 1 117 0
 256 005e 38BD     		pop	{r3, r4, r5, pc}
 257              	.L37:
 258              		.align	2
 259              	.L36:
 260 0060 00000000 		.word	buttonReleased
 261 0064 00000000 		.word	buttonDuration
 262 0068 00000000 		.word	MyI2C_Regs
 263              		.cfi_endproc
 264              	.LFE65:
 265              		.size	GetResetButton, .-GetResetButton
 266              		.section	.text.GetTamperVals,"ax",%progbits
 267              		.align	1
 268              		.global	GetTamperVals
 269              		.thumb
 270              		.thumb_func
 271              		.type	GetTamperVals, %function
 272              	GetTamperVals:
 273              	.LFB66:
 118:inout.c       **** 
 119:inout.c       **** uint8 GetTamperVals()
 120:inout.c       **** {
 274              		.loc 1 120 0
 275              		.cfi_startproc
ARM GAS  C:\Users\yqh\AppData\Local\Temp\cch5ILZG.s 			page 8


 276              		@ args = 0, pretend = 0, frame = 0
 277              		@ frame_needed = 0, uses_anonymous_args = 0
 278              	.LVL23:
 279 0000 10B5     		push	{r4, lr}
 280              		.cfi_def_cfa_offset 8
 281              		.cfi_offset 4, -8
 282              		.cfi_offset 14, -4
 121:inout.c       **** 	uint8 val = 0;
 122:inout.c       **** 	
 123:inout.c       ****     if (TAMPER_IN_Read() == 1)   // Tamper coming from Card Reader
 283              		.loc 1 123 0
 284 0002 FFF7FEFF 		bl	TAMPER_IN_Read
 285              	.LVL24:
 124:inout.c       ****         val &= ~TAMPERCR_IN;  //set register bit to 0
 286              		.loc 1 124 0
 287 0006 10F1FF34 		adds	r4, r0, #-1
 288 000a 18BF     		it	ne
 289 000c 0124     		movne	r4, #1
 290              	.LVL25:
 125:inout.c       ****     else
 126:inout.c       **** 	    val |= TAMPERCR_IN;   //set register bit to 1
 127:inout.c       ****    
 128:inout.c       ****     if(REED_1_Read() == 1)  // Reed Switch 1 - local ICM tamper
 291              		.loc 1 128 0
 292 000e FFF7FEFF 		bl	REED_1_Read
 293              	.LVL26:
 294 0012 0128     		cmp	r0, #1
 129:inout.c       ****       val &= ~REED_1_IN;
 130:inout.c       ****     else
 131:inout.c       ****       val |= REED_1_IN;
 295              		.loc 1 131 0
 296 0014 1CBF     		itt	ne
 297 0016 44F00204 		orrne	r4, r4, #2
 298              	.LVL27:
 299 001a E4B2     		uxtbne	r4, r4
 300              	.LVL28:
 132:inout.c       **** 
 133:inout.c       ****     val &= ~REED_2_IN; // REED_2 is always set to 0 while defeated - remove this when re-enabled
 134:inout.c       ****    
 135:inout.c       ****     return val;
 136:inout.c       **** }
 301              		.loc 1 136 0
 302 001c 2046     		mov	r0, r4
 303 001e 10BD     		pop	{r4, pc}
 304              		.cfi_endproc
 305              	.LFE66:
 306              		.size	GetTamperVals, .-GetTamperVals
 307              		.section	.text.HandleOutputs,"ax",%progbits
 308              		.align	1
 309              		.global	HandleOutputs
 310              		.thumb
 311              		.thumb_func
 312              		.type	HandleOutputs, %function
 313              	HandleOutputs:
 314              	.LFB67:
 137:inout.c       **** 
 138:inout.c       **** void  HandleOutputs()   // this executes every 1 ms on Tamper_Timer_ISR_Interrupt
ARM GAS  C:\Users\yqh\AppData\Local\Temp\cch5ILZG.s 			page 9


 139:inout.c       **** {
 315              		.loc 1 139 0
 316              		.cfi_startproc
 317              		@ args = 0, pretend = 0, frame = 0
 318              		@ frame_needed = 0, uses_anonymous_args = 0
 319 0000 38B5     		push	{r3, r4, r5, lr}
 320              		.cfi_def_cfa_offset 16
 321              		.cfi_offset 3, -16
 322              		.cfi_offset 4, -12
 323              		.cfi_offset 5, -8
 324              		.cfi_offset 14, -4
 140:inout.c       **** 	char stat = MyI2C_Regs.status_in;
 325              		.loc 1 140 0
 326 0002 0A4C     		ldr	r4, .L56
 327 0004 6578     		ldrb	r5, [r4, #1]	@ zero_extendqisi2
 328              	.LVL29:
 141:inout.c       ****     if( stat & STAT_CHANGE)
 329              		.loc 1 141 0
 330 0006 E907     		lsls	r1, r5, #31
 331 0008 0FD5     		bpl	.L43
 142:inout.c       ****     {
 143:inout.c       ****         if(stat & STAT_ACS_OUT)
 332              		.loc 1 143 0
 333 000a AA07     		lsls	r2, r5, #30
 334 000c 02D5     		bpl	.L45
 144:inout.c       ****            SetHardwareVals(MyI2C_Regs.acs_inputs);
 335              		.loc 1 144 0
 336 000e 6079     		ldrb	r0, [r4, #5]	@ zero_extendqisi2
 337 0010 FFF7FEFF 		bl	SetHardwareVals
 338              	.LVL30:
 339              	.L45:
 145:inout.c       ****         
 146:inout.c       ****         if(stat & STAT_CARD_ACK){
 340              		.loc 1 146 0
 341 0014 2B07     		lsls	r3, r5, #28
 342 0016 06D5     		bpl	.L46
 147:inout.c       ****             MyI2C_Regs.status_in = 0;
 343              		.loc 1 147 0
 344 0018 0023     		movs	r3, #0
 345 001a 6370     		strb	r3, [r4, #1]
 148:inout.c       ****             card_ack = 1; //acked
 346              		.loc 1 148 0
 347 001c 044B     		ldr	r3, .L56+4
 348 001e 0122     		movs	r2, #1
 349 0020 1A60     		str	r2, [r3]
 149:inout.c       ****             resetImgBuf();
 350              		.loc 1 149 0
 351 0022 FFF7FEFF 		bl	resetImgBuf
 352              	.LVL31:
 353              	.L46:
 150:inout.c       ****         }
 151:inout.c       ****         MyI2C_Regs.status_in = 0; 
 354              		.loc 1 151 0
 355 0026 0023     		movs	r3, #0
 356 0028 6370     		strb	r3, [r4, #1]
 357              	.L43:
 358 002a 38BD     		pop	{r3, r4, r5, pc}
ARM GAS  C:\Users\yqh\AppData\Local\Temp\cch5ILZG.s 			page 10


 359              	.LVL32:
 360              	.L57:
 361              		.align	2
 362              	.L56:
 363 002c 00000000 		.word	MyI2C_Regs
 364 0030 00000000 		.word	card_ack
 365              		.cfi_endproc
 366              	.LFE67:
 367              		.size	HandleOutputs, .-HandleOutputs
 368              		.section	.text.HandleInputs,"ax",%progbits
 369              		.align	1
 370              		.global	HandleInputs
 371              		.thumb
 372              		.thumb_func
 373              		.type	HandleInputs, %function
 374              	HandleInputs:
 375              	.LFB68:
 152:inout.c       ****     }
 153:inout.c       ****     
 154:inout.c       **** }
 155:inout.c       **** 
 156:inout.c       **** 
 157:inout.c       **** void HandleInputs()   // this executes every 1 ms on Tamper_Timer_ISR_Interrupt
 158:inout.c       **** {
 376              		.loc 1 158 0
 377              		.cfi_startproc
 378              		@ args = 0, pretend = 0, frame = 0
 379              		@ frame_needed = 0, uses_anonymous_args = 0
 380 0000 38B5     		push	{r3, r4, r5, lr}
 381              		.cfi_def_cfa_offset 16
 382              		.cfi_offset 3, -16
 383              		.cfi_offset 4, -12
 384              		.cfi_offset 5, -8
 385              		.cfi_offset 14, -4
 159:inout.c       ****     char first_read;
 160:inout.c       ****     char second_read;
 161:inout.c       ****     /* TAMPER OUT signal to ACS Panel  GRI 1-13-15
 162:inout.c       ****        this accounts for configuration of tamper input from card reader  GRI 1-13-15 */
 163:inout.c       ****     if( (REED_1_Read() == 0)  
 386              		.loc 1 163 0
 387 0002 FFF7FEFF 		bl	REED_1_Read
 388              	.LVL33:
 389 0006 2A4C     		ldr	r4, .L89
 390 0008 18B9     		cbnz	r0, .L59
 391              	.L63:
 164:inout.c       ****         /*   || (REED_2_Read() == 0)  // disabled GRI 2-4-15 */
 165:inout.c       ****         || ((TAMPER_IN_Read() == 0) && (tamperCR_polarity == 1)) 
 166:inout.c       ****         || ((TAMPER_IN_Read() == 1) && (tamperCR_polarity == 0)) )  
 167:inout.c       ****         
 168:inout.c       ****     {
 169:inout.c       ****         if (tamper_out_polarity)
 392              		.loc 1 169 0
 393 000a 2368     		ldr	r3, [r4]
 394 000c 8BB1     		cbz	r3, .L88
 170:inout.c       ****             TAMPER_OUT_Write(TAMPERHIGH); 
 395              		.loc 1 170 0
 396 000e 0020     		movs	r0, #0
ARM GAS  C:\Users\yqh\AppData\Local\Temp\cch5ILZG.s 			page 11


 397 0010 10E0     		b	.L86
 398              	.L59:
 165:inout.c       ****         || ((TAMPER_IN_Read() == 1) && (tamperCR_polarity == 0)) )  
 399              		.loc 1 165 0
 400 0012 FFF7FEFF 		bl	TAMPER_IN_Read
 401              	.LVL34:
 402 0016 18B9     		cbnz	r0, .L62
 165:inout.c       ****         || ((TAMPER_IN_Read() == 1) && (tamperCR_polarity == 0)) )  
 403              		.loc 1 165 0 is_stmt 0 discriminator 1
 404 0018 264B     		ldr	r3, .L89+4
 405 001a 1B68     		ldr	r3, [r3]
 406 001c 012B     		cmp	r3, #1
 407 001e F4D0     		beq	.L63
 408              	.L62:
 166:inout.c       ****         
 409              		.loc 1 166 0 is_stmt 1
 410 0020 FFF7FEFF 		bl	TAMPER_IN_Read
 411              	.LVL35:
 412 0024 0128     		cmp	r0, #1
 413 0026 09D1     		bne	.L64
 166:inout.c       ****         
 414              		.loc 1 166 0 is_stmt 0 discriminator 1
 415 0028 224B     		ldr	r3, .L89+4
 416 002a 1B68     		ldr	r3, [r3]
 417 002c 002B     		cmp	r3, #0
 418 002e ECD0     		beq	.L63
 419 0030 04E0     		b	.L64
 420              	.L88:
 171:inout.c       ****         else
 172:inout.c       ****             TAMPER_OUT_Write(TAMPERLOW);
 421              		.loc 1 172 0 is_stmt 1
 422 0032 0120     		movs	r0, #1
 423              	.L86:
 424 0034 FFF7FEFF 		bl	TAMPER_OUT_Write
 425              	.LVL36:
 173:inout.c       ****         LED_RED_Write(ON); //LED on
 426              		.loc 1 173 0
 427 0038 0020     		movs	r0, #0
 428 003a 05E0     		b	.L87
 429              	.L64:
 174:inout.c       ****     }
 175:inout.c       ****     else
 176:inout.c       ****     {
 177:inout.c       ****         if(tamper_out_polarity)
 430              		.loc 1 177 0
 431 003c 2068     		ldr	r0, [r4]
 432 003e 00B1     		cbz	r0, .L67
 178:inout.c       ****             TAMPER_OUT_Write(TAMPERLOW); 
 433              		.loc 1 178 0
 434 0040 0120     		movs	r0, #1
 435              	.L67:
 179:inout.c       ****         else
 180:inout.c       ****             TAMPER_OUT_Write(TAMPERHIGH);
 436              		.loc 1 180 0
 437 0042 FFF7FEFF 		bl	TAMPER_OUT_Write
 438              	.LVL37:
 181:inout.c       ****         LED_RED_Write(OFF); //LED off
ARM GAS  C:\Users\yqh\AppData\Local\Temp\cch5ILZG.s 			page 12


 439              		.loc 1 181 0
 440 0046 0120     		movs	r0, #1
 441              	.L87:
 442 0048 FFF7FEFF 		bl	LED_RED_Write
 443              	.LVL38:
 182:inout.c       ****     }
 183:inout.c       **** 
 184:inout.c       ****     //This section checks for input signal changes
 185:inout.c       ****     first_read = GetHardwareVals();  // read inputs first time
 444              		.loc 1 185 0
 445 004c FFF7FEFF 		bl	GetHardwareVals
 446              	.LVL39:
 186:inout.c       **** 	if (first_read != hw_old)  //change occurred?
 447              		.loc 1 186 0
 448 0050 194D     		ldr	r5, .L89+8
 185:inout.c       **** 	if (first_read != hw_old)  //change occurred?
 449              		.loc 1 185 0
 450 0052 0446     		mov	r4, r0
 451              	.LVL40:
 452              		.loc 1 186 0
 453 0054 2B78     		ldrb	r3, [r5]	@ zero_extendqisi2
 454 0056 8342     		cmp	r3, r0
 455 0058 0ED0     		beq	.L70
 187:inout.c       **** 	{
 188:inout.c       ****         CyDelayUs(100); //delay 100us for debounce
 456              		.loc 1 188 0
 457 005a 6420     		movs	r0, #100
 458              	.LVL41:
 459 005c FFF7FEFF 		bl	CyDelayUs
 460              	.LVL42:
 189:inout.c       ****         second_read = GetHardwareVals();  // read inputs second time
 461              		.loc 1 189 0
 462 0060 FFF7FEFF 		bl	GetHardwareVals
 463              	.LVL43:
 190:inout.c       ****         
 191:inout.c       ****         if (first_read == second_read)    // data is stable?
 464              		.loc 1 191 0
 465 0064 8442     		cmp	r4, r0
 192:inout.c       ****         {   
 193:inout.c       ****             // If Data is stable, change the status reg
 194:inout.c       ****             
 195:inout.c       **** 	        MyI2C_Regs.acs_outputs = second_read;                //set output reg to MB
 466              		.loc 1 195 0
 467 0066 01BF     		itttt	eq
 468 0068 144B     		ldreq	r3, .L89+12
 196:inout.c       ****             hw_old = second_read;                                   //store latest value
 469              		.loc 1 196 0
 470 006a 2C70     		strbeq	r4, [r5]
 197:inout.c       **** 	        MyI2C_Regs.status_out |= (STAT_ACS_IN | STAT_CHANGE);   //indicate change in ACS_IN
 471              		.loc 1 197 0
 472 006c 1A78     		ldrbeq	r2, [r3]	@ zero_extendqisi2
 195:inout.c       ****             hw_old = second_read;                                   //store latest value
 473              		.loc 1 195 0
 474 006e 1C71     		strbeq	r4, [r3, #4]
 475              		.loc 1 197 0
 476 0070 04BF     		itt	eq
 477 0072 42F00502 		orreq	r2, r2, #5
ARM GAS  C:\Users\yqh\AppData\Local\Temp\cch5ILZG.s 			page 13


 478 0076 1A70     		strbeq	r2, [r3]
 479              	.LVL44:
 480              	.L70:
 198:inout.c       ****         }
 199:inout.c       **** 	}
 200:inout.c       ****     
 201:inout.c       ****     first_read = GetTamperVals();  // read inputs first time
 481              		.loc 1 201 0
 482 0078 FFF7FEFF 		bl	GetTamperVals
 483              	.LVL45:
 202:inout.c       **** 	if (first_read != tp_old)  //change occurred?
 484              		.loc 1 202 0
 485 007c 104D     		ldr	r5, .L89+16
 201:inout.c       **** 	if (first_read != tp_old)  //change occurred?
 486              		.loc 1 201 0
 487 007e 0446     		mov	r4, r0
 488              	.LVL46:
 489              		.loc 1 202 0
 490 0080 2B78     		ldrb	r3, [r5]	@ zero_extendqisi2
 491 0082 8342     		cmp	r3, r0
 492 0084 0ED0     		beq	.L73
 203:inout.c       **** 	{
 204:inout.c       ****         CyDelayUs(100); //delay 100us for debounce
 493              		.loc 1 204 0
 494 0086 6420     		movs	r0, #100
 495              	.LVL47:
 496 0088 FFF7FEFF 		bl	CyDelayUs
 497              	.LVL48:
 205:inout.c       ****         second_read = GetTamperVals();  // read inputs second time
 498              		.loc 1 205 0
 499 008c FFF7FEFF 		bl	GetTamperVals
 500              	.LVL49:
 206:inout.c       ****         
 207:inout.c       ****         if (first_read == second_read)    // data is stable?
 501              		.loc 1 207 0
 502 0090 8442     		cmp	r4, r0
 208:inout.c       ****         {   
 209:inout.c       ****             // If Data is stable, change the status reg
 210:inout.c       **** 	        MyI2C_Regs.tamper_in = second_read;                //set output reg to MB
 503              		.loc 1 210 0
 504 0092 01BF     		itttt	eq
 505 0094 094B     		ldreq	r3, .L89+12
 211:inout.c       ****             tp_old = second_read;                                   //store latest value
 506              		.loc 1 211 0
 507 0096 2C70     		strbeq	r4, [r5]
 212:inout.c       **** 	        MyI2C_Regs.status_out |= (STAT_TAMPER_IN | STAT_CHANGE);   //indicate change in ACS_IN
 508              		.loc 1 212 0
 509 0098 1A78     		ldrbeq	r2, [r3]	@ zero_extendqisi2
 210:inout.c       ****             tp_old = second_read;                                   //store latest value
 510              		.loc 1 210 0
 511 009a 9C72     		strbeq	r4, [r3, #10]
 512              		.loc 1 212 0
 513 009c 04BF     		itt	eq
 514 009e 42F00902 		orreq	r2, r2, #9
 515 00a2 1A70     		strbeq	r2, [r3]
 516              	.LVL50:
 517              	.L73:
ARM GAS  C:\Users\yqh\AppData\Local\Temp\cch5ILZG.s 			page 14


 213:inout.c       ****         }
 214:inout.c       **** 	}
 215:inout.c       ****     
 216:inout.c       ****     first_read = GetResetButton();
 518              		.loc 1 216 0
 519 00a4 FFF7FEFF 		bl	GetResetButton
 520              	.LVL51:
 217:inout.c       ****     if (first_read)
 521              		.loc 1 217 0
 522 00a8 08B1     		cbz	r0, .L58
 218:inout.c       ****     {
 219:inout.c       ****         MyI2C_Regs.pushbtn_in = first_read; //set the push button status
 523              		.loc 1 219 0
 524 00aa 044B     		ldr	r3, .L89+12
 525 00ac D872     		strb	r0, [r3, #11]
 526              	.L58:
 527 00ae 38BD     		pop	{r3, r4, r5, pc}
 528              	.L90:
 529              		.align	2
 530              	.L89:
 531 00b0 00000000 		.word	tamper_out_polarity
 532 00b4 00000000 		.word	tamperCR_polarity
 533 00b8 00000000 		.word	hw_old
 534 00bc 00000000 		.word	MyI2C_Regs
 535 00c0 00000000 		.word	tp_old
 536              		.cfi_endproc
 537              	.LFE68:
 538              		.size	HandleInputs, .-HandleInputs
 539              		.comm	card_in_buf,4,4
 540              		.comm	card_ack,4,4
 541              		.comm	tamper_out_polarity,4,4
 542              		.comm	tamperCR_polarity,4,4
 543              		.comm	tp_old,1,1
 544              		.comm	hw_old,1,1
 545              		.comm	currentAccessType,1,1
 546              		.comm	s,40,4
 547              		.text
 548              	.Letext0:
 549              		.file 2 "c:\\program files (x86)\\cypress\\psoc creator\\4.0\\psoc creator\\import\\gnu\\arm\\4.9.
 550              		.file 3 "c:\\program files (x86)\\cypress\\psoc creator\\4.0\\psoc creator\\import\\gnu\\arm\\4.9.
 551              		.file 4 "Generated_Source\\PSoC5/cytypes.h"
 552              		.file 5 "softuart.h"
 553              		.file 6 "system.h"
 554              		.file 7 "Generated_Source\\PSoC5/core_cm3.h"
 555              		.file 8 "Generated_Source\\PSoC5/LEDR_OUT.h"
 556              		.file 9 "Generated_Source\\PSoC5/LEDG_OUT.h"
 557              		.file 10 "Generated_Source\\PSoC5/SOUND_OUT.h"
 558              		.file 11 "Generated_Source\\PSoC5/RELAY_A.h"
 559              		.file 12 "Generated_Source\\PSoC5/RELAY_B.h"
 560              		.file 13 "Generated_Source\\PSoC5/LEDR_IN.h"
 561              		.file 14 "Generated_Source\\PSoC5/LEDG_IN.h"
 562              		.file 15 "Generated_Source\\PSoC5/SOUND_IN.h"
 563              		.file 16 "Generated_Source\\PSoC5/LED_RED.h"
 564              		.file 17 "Generated_Source\\PSoC5/LED_GRN.h"
 565              		.file 18 "Generated_Source\\PSoC5/LED_YEL.h"
 566              		.file 19 "Generated_Source\\PSoC5/TAMPER_IN.h"
 567              		.file 20 "Generated_Source\\PSoC5/REED_1.h"
ARM GAS  C:\Users\yqh\AppData\Local\Temp\cch5ILZG.s 			page 15


 568              		.file 21 "Generated_Source\\PSoC5/TAMPER_OUT.h"
 569              		.file 22 "toc.h"
 570              		.file 23 "Generated_Source\\PSoC5/CyLib.h"