ARM GAS  C:\Users\yqh\AppData\Local\Temp\ccbw8f9k.s 			page 1


   1              		.syntax unified
   2              		.cpu cortex-m3
   3              		.fpu softvfp
   4              		.eabi_attribute 20, 1
   5              		.eabi_attribute 21, 1
   6              		.eabi_attribute 23, 3
   7              		.eabi_attribute 24, 1
   8              		.eabi_attribute 25, 1
   9              		.eabi_attribute 26, 1
  10              		.eabi_attribute 30, 4
  11              		.eabi_attribute 34, 1
  12              		.eabi_attribute 18, 4
  13              		.thumb
  14              		.file	"main.c"
  15              		.text
  16              	.Ltext0:
  17              		.cfi_sections	.debug_frame
  18              		.section	.text.SetVersion,"ax",%progbits
  19              		.align	1
  20              		.global	SetVersion
  21              		.thumb
  22              		.thumb_func
  23              		.type	SetVersion, %function
  24              	SetVersion:
  25              	.LFB63:
  26              		.file 1 "main.c"
   1:main.c        **** /* ========================================
   2:main.c        ****  *
   3:main.c        ****  * NanoNXT Breakout Board
   4:main.c        ****  * Copyright Eyelock.Inc, 2014, 2015
   5:main.c        ****  * All Rights Reserved
   6:main.c        ****  * UNPUBLISHED, LICENSED SOFTWARE.
   7:main.c        ****  * CONFIDENTIAL AND PROPRIETARY INFORMATION
   8:main.c        ****  * 
   9:main.c        ****  * Version History:
  10:main.c        ****  * ================
  11:main.c        ****  * 3.0.0 : Ported Nano Breakout board functionality without HID/F2F.
  12:main.c        ****  * 3.0.1 : Relay output moved from regular output mode to auxillary output mode
  13:main.c        ****  * 3.0.2 : F2F functionality Added.
  14:main.c        ****  * 3.0.3 : HID functionality added using SW UART for 26 bit weigand & SW UART tested on PAC comapti
  15:main.c        ****  * 3.0.4 : Tamper In is directly routed to Tamper out
  16:main.c        ****  * 3.0.5 : Software Reset button functionality added
  17:main.c        ****  * 3.0.6 : HID functionality modified to support all types of weigand bit formats. 
  18:main.c        ****  * 3.0.7 : Bootloader functionality added.
  19:main.c        ****  * 3.0.8 : Reed Tamper Inverted for Beta.
  20:main.c        ****  * 3.0.9 : Ported code for ICM 3(PSOC 5).
  21:main.c        ****  * 3.1.0 : Bootloader functionality added to ICM3.
  22:main.c        ****  * 3.1.1 : GRI 1-13-15: Tamper signals repaired. Tamper moved to main code block.  Tamper polarity 
  23:main.c        ****  * 3.1.2 : GRI 1-28-15: Tamper moved to HandleInputs.  I2C bus clock was corrected to be 100kHz to 
  24:main.c        ****  * 3.1.3 : GRI 1-30-15: Removed all "ClearBuffer()" instances.
  25:main.c        ****  * 3.1.4 : GRI 2-02-15: Added ACK bit for card reads to prevent hanging after card read. PSoC will 
  26:main.c        ****  * 3.1.5 : GRI 2-04-15: Extensive revision to input signal handler to add noise immunity/debounce (
  27:main.c        ****  * 3.1.6 : Added F2F card reader functionality
  28:main.c        ****  * 3.1.7 : Debouncer added to WD0 && Functionality added to detect pulsewidth in F2F
  29:main.c        ****  * 3.1.8 : Added F2F conditionality to turn on timers
  30:main.c        ****  * 3.1.9 : Fixed the bootloader bug for PSOC creator 3.1  Use the debug NxtICM3_bootloader for refe
  31:main.c        ****  * 3.1.10 : Make F2F pulse timing adaptive to the input signal
ARM GAS  C:\Users\yqh\AppData\Local\Temp\ccbw8f9k.s 			page 2


  32:main.c        ****  * 3.1.15 : OSDP Dual Authentication
  33:main.c        ****  * 3.1.16 : support F2F variable length messages
  34:main.c        ****  * 3.2.0 : Fix F2F to accommodate prompt signal ATH-870
  35:main.c        ****  * 3.2.1 : support Tamper Out Polarity Settings in the Web
  36:main.c        ****  * 3.2.2 : reverse the tamper output polarity
  37:main.c        ****  * 3.2.3 : 16 bits I2C
  38:main.c        ****  * 3.2.4 : branched from 3.2.2, fixed pulse width narrowed by tamper interrupt problem
  39:main.c        ****  * 3.2.5 : help firmware set the card in status again in one second if no ack comming.
  40:main.c        ****  * 3.3.2 : same as 3.2.5 for GA release
  41:main.c        ****  * 3.4.3 : add TOC template on card
  42:main.c        ****  * 3.4.4 : add Pass Through mode
  43:main.c        ****  * 3.4.5 : Increased the timeout delay on PAC for Pass Through Mode.
  44:main.c        ****  * 3.4.6 : Add PAC for TOC Mode.
  45:main.c        ****  * 3.4.7 : Add RS485 sending function for the BLE Mode and the Iris Timeout interface commands.
  46:main.c        ****  * 3.4.8 : Fixed OSDP compiling issue, use osdp.h function prototype.
  47:main.c        ****  * 3.4.9 : Fixed ATH-1171 - Pass through (Iris or Card mode) does not 
  48:main.c        ****             authenticate two consecutive cards problem
  49:main.c        ****  * 5.0.2 : Add 200 bits Wiegand
  50:main.c        ****  * ========================================
  51:main.c        **** */
  52:main.c        **** #include <project.h>
  53:main.c        **** #include "system.h"
  54:main.c        **** #include "wiegand.h"
  55:main.c        **** #include "f2f.h"
  56:main.c        **** #include "power.h"
  57:main.c        **** #include "inout.h"
  58:main.c        **** #include "i2cuart.h"
  59:main.c        **** #include "osdp.h"
  60:main.c        **** #include "toc.h"
  61:main.c        **** 
  62:main.c        **** I2C_Regs MyI2C_Regs;
  63:main.c        **** char run_mode;
  64:main.c        **** int passmode_timeout;
  65:main.c        **** 
  66:main.c        **** void SU_Isr(SOFT_UART_STRUCT *s);
  67:main.c        **** void ReadImageCard(void);
  68:main.c        **** 
  69:main.c        **** /***********************************
  70:main.c        ****     Sets the breakout board version.
  71:main.c        **** *************************************/
  72:main.c        **** void SetVersion()
  73:main.c        **** {
  27              		.loc 1 73 0
  28              		.cfi_startproc
  29              		@ args = 0, pretend = 0, frame = 0
  30              		@ frame_needed = 0, uses_anonymous_args = 0
  31              		@ link register save eliminated.
  74:main.c        ****     MyI2C_Regs.hw_version[0] = 0x71;
  32              		.loc 1 74 0
  33 0000 094B     		ldr	r3, .L2
  34 0002 7122     		movs	r2, #113
  35 0004 83F84620 		strb	r2, [r3, #70]
  75:main.c        ****     MyI2C_Regs.hw_version[1] = 0x42;
  36              		.loc 1 75 0
  37 0008 4222     		movs	r2, #66
  38 000a 83F84720 		strb	r2, [r3, #71]
  76:main.c        ****     MyI2C_Regs.hw_version[2] = 0x0A;
ARM GAS  C:\Users\yqh\AppData\Local\Temp\ccbw8f9k.s 			page 3


  39              		.loc 1 76 0
  40 000e 0A22     		movs	r2, #10
  41 0010 83F84820 		strb	r2, [r3, #72]
  77:main.c        ****     
  78:main.c        ****     MyI2C_Regs.sw_version[0] = 5;
  42              		.loc 1 78 0
  43 0014 0522     		movs	r2, #5
  44 0016 83F84320 		strb	r2, [r3, #67]
  79:main.c        ****     MyI2C_Regs.sw_version[1] = 0;
  45              		.loc 1 79 0
  46 001a 0022     		movs	r2, #0
  47 001c 83F84420 		strb	r2, [r3, #68]
  80:main.c        ****     MyI2C_Regs.sw_version[2] = 3;
  48              		.loc 1 80 0
  49 0020 0322     		movs	r2, #3
  50 0022 83F84520 		strb	r2, [r3, #69]
  51 0026 7047     		bx	lr
  52              	.L3:
  53              		.align	2
  54              	.L2:
  55 0028 00000000 		.word	MyI2C_Regs
  56              		.cfi_endproc
  57              	.LFE63:
  58              		.size	SetVersion, .-SetVersion
  59              		.section	.text.SetBuffer,"ax",%progbits
  60              		.align	1
  61              		.global	SetBuffer
  62              		.thumb
  63              		.thumb_func
  64              		.type	SetBuffer, %function
  65              	SetBuffer:
  66              	.LFB64:
  81:main.c        **** }
  82:main.c        **** 
  83:main.c        **** 
  84:main.c        **** /**************************************
  85:main.c        ****   Debug Method: To Set I2C data buffer
  86:main.c        **** ***************************************/
  87:main.c        **** void SetBuffer()
  88:main.c        **** {
  67              		.loc 1 88 0
  68              		.cfi_startproc
  69              		@ args = 0, pretend = 0, frame = 0
  70              		@ frame_needed = 0, uses_anonymous_args = 0
  71              		@ link register save eliminated.
  89:main.c        ****     MyI2C_Regs.buffer[0] = 0x02;
  72              		.loc 1 89 0
  73 0000 104B     		ldr	r3, .L5
  74 0002 0222     		movs	r2, #2
  75 0004 83F84920 		strb	r2, [r3, #73]
  90:main.c        ****     MyI2C_Regs.buffer[1] = 0x32;
  91:main.c        ****     MyI2C_Regs.buffer[2] = 0x30;
  76              		.loc 1 91 0
  77 0008 3022     		movs	r2, #48
  78 000a 83F84B20 		strb	r2, [r3, #75]
  92:main.c        ****     MyI2C_Regs.buffer[3] = 0x42;
  79              		.loc 1 92 0
ARM GAS  C:\Users\yqh\AppData\Local\Temp\ccbw8f9k.s 			page 4


  80 000e 4222     		movs	r2, #66
  90:main.c        ****     MyI2C_Regs.buffer[1] = 0x32;
  81              		.loc 1 90 0
  82 0010 3220     		movs	r0, #50
  83              		.loc 1 92 0
  84 0012 83F84C20 		strb	r2, [r3, #76]
  93:main.c        ****     MyI2C_Regs.buffer[4] = 0x35;
  94:main.c        ****     MyI2C_Regs.buffer[5] = 0x32;
  95:main.c        ****     MyI2C_Regs.buffer[6] = 0x36;
  96:main.c        ****     MyI2C_Regs.buffer[7] = 0x42;
  85              		.loc 1 96 0
  86 0016 83F85020 		strb	r2, [r3, #80]
  97:main.c        ****     MyI2C_Regs.buffer[8] = 0x35;
  98:main.c        ****     MyI2C_Regs.buffer[9] = 0x42;
  87              		.loc 1 98 0
  88 001a 83F85220 		strb	r2, [r3, #82]
  99:main.c        ****     MyI2C_Regs.buffer[10] = 0x31;
  89              		.loc 1 99 0
  90 001e 3122     		movs	r2, #49
  93:main.c        ****     MyI2C_Regs.buffer[4] = 0x35;
  91              		.loc 1 93 0
  92 0020 3521     		movs	r1, #53
  90:main.c        ****     MyI2C_Regs.buffer[2] = 0x30;
  93              		.loc 1 90 0
  94 0022 83F84A00 		strb	r0, [r3, #74]
  94:main.c        ****     MyI2C_Regs.buffer[6] = 0x36;
  95              		.loc 1 94 0
  96 0026 83F84E00 		strb	r0, [r3, #78]
  97              		.loc 1 99 0
  98 002a 83F85320 		strb	r2, [r3, #83]
  95:main.c        ****     MyI2C_Regs.buffer[7] = 0x42;
  99              		.loc 1 95 0
 100 002e 3620     		movs	r0, #54
 100:main.c        ****     MyI2C_Regs.buffer[11] = 0x77;
 101              		.loc 1 100 0
 102 0030 7722     		movs	r2, #119
  93:main.c        ****     MyI2C_Regs.buffer[5] = 0x32;
 103              		.loc 1 93 0
 104 0032 83F84D10 		strb	r1, [r3, #77]
  95:main.c        ****     MyI2C_Regs.buffer[7] = 0x42;
 105              		.loc 1 95 0
 106 0036 83F84F00 		strb	r0, [r3, #79]
  97:main.c        ****     MyI2C_Regs.buffer[9] = 0x42;
 107              		.loc 1 97 0
 108 003a 83F85110 		strb	r1, [r3, #81]
 109              		.loc 1 100 0
 110 003e 83F85420 		strb	r2, [r3, #84]
 111 0042 7047     		bx	lr
 112              	.L6:
 113              		.align	2
 114              	.L5:
 115 0044 00000000 		.word	MyI2C_Regs
 116              		.cfi_endproc
 117              	.LFE64:
 118              		.size	SetBuffer, .-SetBuffer
 119              		.section	.text.ClearBuffer,"ax",%progbits
 120              		.align	1
ARM GAS  C:\Users\yqh\AppData\Local\Temp\ccbw8f9k.s 			page 5


 121              		.global	ClearBuffer
 122              		.thumb
 123              		.thumb_func
 124              		.type	ClearBuffer, %function
 125              	ClearBuffer:
 126              	.LFB65:
 101:main.c        **** }
 102:main.c        **** 
 103:main.c        **** void ClearBuffer()
 104:main.c        **** {
 127              		.loc 1 104 0
 128              		.cfi_startproc
 129              		@ args = 0, pretend = 0, frame = 0
 130              		@ frame_needed = 0, uses_anonymous_args = 0
 131              	.LVL0:
 132 0000 10B5     		push	{r4, lr}
 133              		.cfi_def_cfa_offset 8
 134              		.cfi_offset 4, -8
 135              		.cfi_offset 14, -4
 105:main.c        ****     int i;
 106:main.c        ****     for(i=0; i < BUFFER_LENGTH; i++)
 136              		.loc 1 106 0
 137 0002 0024     		movs	r4, #0
 138              	.LVL1:
 139              	.L8:
 140 0004 054B     		ldr	r3, .L11
 107:main.c        ****     {
 108:main.c        ****         MyI2C_Regs.buffer[i] = 0;
 141              		.loc 1 108 0 discriminator 3
 142 0006 0022     		movs	r2, #0
 143 0008 2344     		add	r3, r3, r4
 144 000a 83F84920 		strb	r2, [r3, #73]
 109:main.c        ****         CyDelayUs(1u); //need little delay for Release
 145              		.loc 1 109 0 discriminator 3
 146 000e 0120     		movs	r0, #1
 106:main.c        ****     {
 147              		.loc 1 106 0 discriminator 3
 148 0010 0134     		adds	r4, r4, #1
 149              	.LVL2:
 150              		.loc 1 109 0 discriminator 3
 151 0012 FFF7FEFF 		bl	CyDelayUs
 152              	.LVL3:
 106:main.c        ****     {
 153              		.loc 1 106 0 discriminator 3
 154 0016 142C     		cmp	r4, #20
 155 0018 F4D1     		bne	.L8
 110:main.c        ****     }
 111:main.c        **** }
 156              		.loc 1 111 0
 157 001a 10BD     		pop	{r4, pc}
 158              	.LVL4:
 159              	.L12:
 160              		.align	2
 161              	.L11:
 162 001c 00000000 		.word	MyI2C_Regs
 163              		.cfi_endproc
 164              	.LFE65:
ARM GAS  C:\Users\yqh\AppData\Local\Temp\ccbw8f9k.s 			page 6


 165              		.size	ClearBuffer, .-ClearBuffer
 166              		.section	.text.SendHID_SP533,"ax",%progbits
 167              		.align	1
 168              		.global	SendHID_SP533
 169              		.thumb
 170              		.thumb_func
 171              		.type	SendHID_SP533, %function
 172              	SendHID_SP533:
 173              	.LFB66:
 112:main.c        **** 
 113:main.c        **** /***********************************************
 114:main.c        ****             Weigand -HID Protocol
 115:main.c        ****   Procedure to send weigand data in serial format
 116:main.c        ****   Baud Rate: 57600 Databits: 8 
 117:main.c        ****   Stop Bits: 2 Parity: Even 
 118:main.c        ****   Bits to transmit : 18 bytes
 119:main.c        ****   Zero paddings to the left before the weigand data 
 120:main.c        **** 
 121:main.c        **** ************************************************/
 122:main.c        **** 
 123:main.c        **** void SendHID_SP533()
 124:main.c        **** {
 174              		.loc 1 124 0
 175              		.cfi_startproc
 176              		@ args = 0, pretend = 0, frame = 0
 177              		@ frame_needed = 0, uses_anonymous_args = 0
 178 0000 38B5     		push	{r3, r4, r5, lr}
 179              		.cfi_def_cfa_offset 16
 180              		.cfi_offset 3, -16
 181              		.cfi_offset 4, -12
 182              		.cfi_offset 5, -8
 183              		.cfi_offset 14, -4
 125:main.c        ****     int len;
 126:main.c        ****     len = (MyI2C_Regs.data_length[0] << 8) + MyI2C_Regs.data_length[1];
 184              		.loc 1 126 0
 185 0002 154D     		ldr	r5, .L14
 127:main.c        ****     Clock_5_SetDividerValue(CLKDV_9600); //set the baud rate to default 9600
 186              		.loc 1 127 0
 187 0004 0121     		movs	r1, #1
 126:main.c        ****     Clock_5_SetDividerValue(CLKDV_9600); //set the baud rate to default 9600
 188              		.loc 1 126 0
 189 0006 2B7A     		ldrb	r3, [r5, #8]	@ zero_extendqisi2
 190 0008 EC79     		ldrb	r4, [r5, #7]	@ zero_extendqisi2
 191              		.loc 1 127 0
 192 000a 4FF41C70 		mov	r0, #624
 126:main.c        ****     Clock_5_SetDividerValue(CLKDV_9600); //set the baud rate to default 9600
 193              		.loc 1 126 0
 194 000e 03EB0424 		add	r4, r3, r4, lsl #8
 195              	.LVL5:
 196              		.loc 1 127 0
 197 0012 FFF7FEFF 		bl	Clock_5_SetDividerRegister
 198              	.LVL6:
 128:main.c        ****     UART_ACS_Init();
 199              		.loc 1 128 0
 200 0016 FFF7FEFF 		bl	UART_ACS_Init
 201              	.LVL7:
 129:main.c        ****     CyDelay(20);
ARM GAS  C:\Users\yqh\AppData\Local\Temp\ccbw8f9k.s 			page 7


 202              		.loc 1 129 0
 203 001a 1420     		movs	r0, #20
 204 001c FFF7FEFF 		bl	CyDelay
 205              	.LVL8:
 130:main.c        ****     Mode_Sel_ACS_Write(0); //set io chip to RS232
 206              		.loc 1 130 0
 207 0020 0020     		movs	r0, #0
 208 0022 FFF7FEFF 		bl	Mode_Sel_ACS_Write
 209              	.LVL9:
 131:main.c        ****     TX_EN_Write(1);
 210              		.loc 1 131 0
 211 0026 0120     		movs	r0, #1
 212 0028 FFF7FEFF 		bl	TX_EN_Write
 213              	.LVL10:
 132:main.c        ****     UART_ACS_LoadTxConfig();
 214              		.loc 1 132 0
 215 002c FFF7FEFF 		bl	UART_ACS_LoadTxConfig
 216              	.LVL11:
 133:main.c        ****     CyDelay(1); //Driver Output Enable Time, do not reduce. 
 217              		.loc 1 133 0
 218 0030 0120     		movs	r0, #1
 219 0032 FFF7FEFF 		bl	CyDelay
 220              	.LVL12:
 134:main.c        ****     UART_ACS_PutArray(MyI2C_Regs.buffer,len/8); 
 221              		.loc 1 134 0
 222 0036 C4F3C701 		ubfx	r1, r4, #3, #8
 223 003a 05F14900 		add	r0, r5, #73
 224 003e FFF7FEFF 		bl	UART_ACS_PutArray
 225              	.LVL13:
 135:main.c        ****     CyDelay(5); //minmum 4m
 226              		.loc 1 135 0
 227 0042 0520     		movs	r0, #5
 228 0044 FFF7FEFF 		bl	CyDelay
 229              	.LVL14:
 136:main.c        ****     UART_ACS_LoadRxConfig();
 230              		.loc 1 136 0
 231 0048 FFF7FEFF 		bl	UART_ACS_LoadRxConfig
 232              	.LVL15:
 137:main.c        ****     TX_EN_Write(0);
 138:main.c        **** }
 233              		.loc 1 138 0
 234 004c BDE83840 		pop	{r3, r4, r5, lr}
 235              		.cfi_restore 14
 236              		.cfi_restore 5
 237              		.cfi_restore 4
 238              		.cfi_restore 3
 239              		.cfi_def_cfa_offset 0
 240              	.LVL16:
 137:main.c        ****     TX_EN_Write(0);
 241              		.loc 1 137 0
 242 0050 0020     		movs	r0, #0
 243 0052 FFF7FEBF 		b	TX_EN_Write
 244              	.LVL17:
 245              	.L15:
 246 0056 00BF     		.align	2
 247              	.L14:
 248 0058 00000000 		.word	MyI2C_Regs
ARM GAS  C:\Users\yqh\AppData\Local\Temp\ccbw8f9k.s 			page 8


 249              		.cfi_endproc
 250              	.LFE66:
 251              		.size	SendHID_SP533, .-SendHID_SP533
 252              		.section	.text.SendHID,"ax",%progbits
 253              		.align	1
 254              		.global	SendHID
 255              		.thumb
 256              		.thumb_func
 257              		.type	SendHID, %function
 258              	SendHID:
 259              	.LFB67:
 139:main.c        **** 
 140:main.c        **** 
 141:main.c        **** void SendHID()
 142:main.c        **** {
 260              		.loc 1 142 0
 261              		.cfi_startproc
 262              		@ args = 0, pretend = 0, frame = 0
 263              		@ frame_needed = 0, uses_anonymous_args = 0
 264 0000 38B5     		push	{r3, r4, r5, lr}
 265              		.cfi_def_cfa_offset 16
 266              		.cfi_offset 3, -16
 267              		.cfi_offset 4, -12
 268              		.cfi_offset 5, -8
 269              		.cfi_offset 14, -4
 143:main.c        ****     Tamper_Timer_Stop();
 270              		.loc 1 143 0
 271 0002 FFF7FEFF 		bl	Tamper_Timer_Stop
 272              	.LVL18:
 144:main.c        ****     
 145:main.c        ****     char serialOut[20];
 146:main.c        **** 	char tmp;
 147:main.c        **** 	int i,j;
 148:main.c        **** 	int padBytes;
 149:main.c        ****     int xbytes;
 150:main.c        ****     int ybits;
 151:main.c        ****     MyI2C_Regs.data_length[0] = 0;
 273              		.loc 1 151 0
 274 0006 134B     		ldr	r3, .L21
 275 0008 0022     		movs	r2, #0
 276 000a 1C46     		mov	r4, r3
 277 000c DA71     		strb	r2, [r3, #7]
 152:main.c        ****     MyI2C_Regs.data_length[1] = 26;
 278              		.loc 1 152 0
 279 000e 1A22     		movs	r2, #26
 280 0010 1A72     		strb	r2, [r3, #8]
 281              	.LVL19:
 282 0012 0E25     		movs	r5, #14
 283              	.LVL20:
 284              	.L17:
 153:main.c        ****     xbytes =  MyI2C_Regs.data_length[1]/8;
 154:main.c        ****     ybits =   MyI2C_Regs.data_length[1] - (xbytes*8);
 155:main.c        ****     padBytes = 18  -  xbytes;
 156:main.c        ****     
 157:main.c        ****     if(ybits  >  0)
 158:main.c        **** 	   padBytes = padBytes - 1;
 159:main.c        ****     
ARM GAS  C:\Users\yqh\AppData\Local\Temp\ccbw8f9k.s 			page 9


 160:main.c        ****     for (i = 0;i < padBytes;i++)
 161:main.c        ****     {
 162:main.c        ****        serialOut[i] = 0x00;
 163:main.c        ****        SU_PutChar(&s,serialOut[i]);
 285              		.loc 1 163 0 discriminator 3
 286 0014 1048     		ldr	r0, .L21+4
 287 0016 0021     		movs	r1, #0
 288 0018 FFF7FEFF 		bl	SU_PutChar
 289              	.LVL21:
 160:main.c        ****     {
 290              		.loc 1 160 0 discriminator 3
 291 001c 013D     		subs	r5, r5, #1
 292              	.LVL22:
 293 001e F9D1     		bne	.L17
 294              	.LVL23:
 164:main.c        ****     }
 165:main.c        **** 	
 166:main.c        ****     serialOut[14] = 0x01 << ybits;
 167:main.c        **** 	tmp = MyI2C_Regs.buffer[0] & (0xFF << (8-ybits));		
 295              		.loc 1 167 0
 296 0020 94F84910 		ldrb	r1, [r4, #73]	@ zero_extendqisi2
 168:main.c        ****     tmp = tmp >> (8-ybits);
 169:main.c        **** 	serialOut[i] |= tmp; 
 170:main.c        **** 	SU_PutChar(&s,serialOut[i]);
 297              		.loc 1 170 0
 298 0024 0C48     		ldr	r0, .L21+4
 168:main.c        ****     tmp = tmp >> (8-ybits);
 299              		.loc 1 168 0
 300 0026 8909     		lsrs	r1, r1, #6
 301              	.LVL24:
 302              		.loc 1 170 0
 303 0028 41F00401 		orr	r1, r1, #4
 304              	.LVL25:
 305 002c FFF7FEFF 		bl	SU_PutChar
 306              	.LVL26:
 307 0030 0A4C     		ldr	r4, .L21+8
 308 0032 E51C     		adds	r5, r4, #3
 309              	.LVL27:
 310              	.L18:
 171:main.c        **** 	i++;
 172:main.c        **** 		
 173:main.c        **** 	for (j = 1; j< (18- padBytes); j++)
 174:main.c        **** 	{
 175:main.c        **** 		serialOut[i] = (MyI2C_Regs.buffer[j-1] << ybits );// & (0xFF << ybits);
 311              		.loc 1 175 0 discriminator 3
 312 0034 2178     		ldrb	r1, [r4]	@ zero_extendqisi2
 313              	.LVL28:
 176:main.c        **** 		tmp = (MyI2C_Regs.buffer[j] >> (8-ybits));// & (0xFF >> (8-ybits));
 314              		.loc 1 176 0 discriminator 3
 315 0036 14F8013F 		ldrb	r3, [r4, #1]!	@ zero_extendqisi2
 316              	.LVL29:
 175:main.c        **** 		tmp = (MyI2C_Regs.buffer[j] >> (8-ybits));// & (0xFF >> (8-ybits));
 317              		.loc 1 175 0 discriminator 3
 318 003a 8900     		lsls	r1, r1, #2
 177:main.c        **** 		serialOut[i] |= tmp;
 319              		.loc 1 177 0 discriminator 3
 320 003c 41EA9311 		orr	r1, r1, r3, lsr #6
ARM GAS  C:\Users\yqh\AppData\Local\Temp\ccbw8f9k.s 			page 10


 178:main.c        **** 		SU_PutChar(&s,serialOut[i]);
 321              		.loc 1 178 0 discriminator 3
 322 0040 0548     		ldr	r0, .L21+4
 323 0042 C9B2     		uxtb	r1, r1
 324 0044 FFF7FEFF 		bl	SU_PutChar
 325              	.LVL30:
 173:main.c        **** 	{
 326              		.loc 1 173 0 discriminator 3
 327 0048 AC42     		cmp	r4, r5
 328 004a F3D1     		bne	.L18
 179:main.c        **** 		i++;
 180:main.c        **** 	}
 181:main.c        ****     
 182:main.c        ****     Tamper_Timer_Start();    
 183:main.c        ****     serialOut[i] = 0x00;
 184:main.c        **** }
 329              		.loc 1 184 0
 330 004c BDE83840 		pop	{r3, r4, r5, lr}
 331              		.cfi_restore 14
 332              		.cfi_restore 5
 333              		.cfi_restore 4
 334              		.cfi_restore 3
 335              		.cfi_def_cfa_offset 0
 336              	.LVL31:
 182:main.c        ****     serialOut[i] = 0x00;
 337              		.loc 1 182 0
 338 0050 FFF7FEBF 		b	Tamper_Timer_Start
 339              	.LVL32:
 340              	.L22:
 341              		.align	2
 342              	.L21:
 343 0054 00000000 		.word	MyI2C_Regs
 344 0058 00000000 		.word	s
 345 005c 49000000 		.word	MyI2C_Regs+73
 346              		.cfi_endproc
 347              	.LFE67:
 348              		.size	SendHID, .-SendHID
 349              		.section	.text.InitOSDP,"ax",%progbits
 350              		.align	1
 351              		.global	InitOSDP
 352              		.thumb
 353              		.thumb_func
 354              		.type	InitOSDP, %function
 355              	InitOSDP:
 356              	.LFB68:
 185:main.c        **** 
 186:main.c        **** 
 187:main.c        **** void InitOSDP(){
 357              		.loc 1 187 0
 358              		.cfi_startproc
 359              		@ args = 0, pretend = 0, frame = 0
 360              		@ frame_needed = 0, uses_anonymous_args = 0
 361 0000 08B5     		push	{r3, lr}
 362              		.cfi_def_cfa_offset 8
 363              		.cfi_offset 3, -8
 364              		.cfi_offset 14, -4
 188:main.c        ****     
ARM GAS  C:\Users\yqh\AppData\Local\Temp\ccbw8f9k.s 			page 11


 189:main.c        ****     //initialize the OSDP
 190:main.c        ****     Clock_5_Enable();
 365              		.loc 1 190 0
 366 0002 FFF7FEFF 		bl	Clock_5_Start
 367              	.LVL33:
 191:main.c        ****     Clock_5_SetDividerValue(CLKDV_9600); //set the baud rate to default 9600
 368              		.loc 1 191 0
 369 0006 4FF41C70 		mov	r0, #624
 370 000a 0121     		movs	r1, #1
 371 000c FFF7FEFF 		bl	Clock_5_SetDividerRegister
 372              	.LVL34:
 192:main.c        ****     UART_ACS_Start();
 373              		.loc 1 192 0
 374 0010 FFF7FEFF 		bl	UART_ACS_Start
 375              	.LVL35:
 193:main.c        ****     ClearOsdpBuffer();
 376              		.loc 1 193 0
 377 0014 FFF7FEFF 		bl	ClearOsdpBuffer
 378              	.LVL36:
 194:main.c        ****     
 195:main.c        ****     Clock_6_Enable();
 379              		.loc 1 195 0
 380 0018 FFF7FEFF 		bl	Clock_6_Start
 381              	.LVL37:
 196:main.c        ****     Clock_6_SetDividerValue(CLKDV_9600); //set the baud rate to default 9600
 382              		.loc 1 196 0
 383 001c 0121     		movs	r1, #1
 384 001e 4FF41C70 		mov	r0, #624
 385 0022 FFF7FEFF 		bl	Clock_6_SetDividerRegister
 386              	.LVL38:
 197:main.c        ****     UART_READER_Start();
 387              		.loc 1 197 0
 388 0026 FFF7FEFF 		bl	UART_READER_Start
 389              	.LVL39:
 198:main.c        ****     ClearOsdpReaderBuffer();
 390              		.loc 1 198 0
 391 002a FFF7FEFF 		bl	ClearOsdpReaderBuffer
 392              	.LVL40:
 199:main.c        ****     
 200:main.c        ****     isr_keepalive_StartEx(KeepAliveInterruptHandler);
 393              		.loc 1 200 0
 394 002e 0448     		ldr	r0, .L24
 395 0030 FFF7FEFF 		bl	isr_keepalive_StartEx
 396              	.LVL41:
 201:main.c        ****     OSDPReaderTimer_Start();
 397              		.loc 1 201 0
 398 0034 FFF7FEFF 		bl	OSDPReaderTimer_Start
 399              	.LVL42:
 202:main.c        ****     initOSDPReaderUART();
 203:main.c        **** }
 400              		.loc 1 203 0
 401 0038 BDE80840 		pop	{r3, lr}
 402              		.cfi_restore 14
 403              		.cfi_restore 3
 404              		.cfi_def_cfa_offset 0
 202:main.c        ****     initOSDPReaderUART();
 405              		.loc 1 202 0
ARM GAS  C:\Users\yqh\AppData\Local\Temp\ccbw8f9k.s 			page 12


 406 003c FFF7FEBF 		b	initOSDPReaderUART
 407              	.LVL43:
 408              	.L25:
 409              		.align	2
 410              	.L24:
 411 0040 00000000 		.word	KeepAliveInterruptHandler
 412              		.cfi_endproc
 413              	.LFE68:
 414              		.size	InitOSDP, .-InitOSDP
 415              		.section	.text.displayError,"ax",%progbits
 416              		.align	1
 417              		.global	displayError
 418              		.thumb
 419              		.thumb_func
 420              		.type	displayError, %function
 421              	displayError:
 422              	.LFB69:
 204:main.c        **** 
 205:main.c        ****  /***********************************************
 206:main.c        ****      Debug Code : Software UART for PAC Protocol
 207:main.c        ****   ************************************************
 208:main.c        ****  void SendPACTest()
 209:main.c        **** {
 210:main.c        ****       int i,j;
 211:main.c        ****     LED_GRN_Write(ON);
 212:main.c        ****     LED_YEL_Write(OFF);
 213:main.c        ****   
 214:main.c        ****     for( i = 0; i < 20; i++)
 215:main.c        ****     {
 216:main.c        ****         for( j= 0; j < 12 ; j++)
 217:main.c        ****         {
 218:main.c        ****             char c = MyI2C_Regs.buffer[j];
 219:main.c        ****          SU_PutChar(&s,c);
 220:main.c        ****         }
 221:main.c        ****     }
 222:main.c        **** 
 223:main.c        ****     LED_GRN_Write(OFF);
 224:main.c        ****     LED_YEL_Write(OFF);
 225:main.c        **** }
 226:main.c        **** 
 227:main.c        **** ****************************************************/
 228:main.c        **** 
 229:main.c        **** void displayError(int n){
 423              		.loc 1 229 0
 424              		.cfi_startproc
 425              		@ args = 0, pretend = 0, frame = 0
 426              		@ frame_needed = 0, uses_anonymous_args = 0
 427              	.LVL44:
 428 0000 38B5     		push	{r3, r4, r5, lr}
 429              		.cfi_def_cfa_offset 16
 430              		.cfi_offset 3, -16
 431              		.cfi_offset 4, -12
 432              		.cfi_offset 5, -8
 433              		.cfi_offset 14, -4
 434              		.loc 1 229 0
 435 0002 0546     		mov	r5, r0
 230:main.c        **** int i;
ARM GAS  C:\Users\yqh\AppData\Local\Temp\ccbw8f9k.s 			page 13


 231:main.c        ****     for (i = 0; i< n; i++) 
 436              		.loc 1 231 0
 437 0004 0024     		movs	r4, #0
 438              	.LVL45:
 439              	.L27:
 440              		.loc 1 231 0 is_stmt 0 discriminator 1
 441 0006 AC42     		cmp	r4, r5
 442 0008 0FDA     		bge	.L29
 232:main.c        ****     {
 233:main.c        ****         LED_RED_Write(OFF); //display error
 443              		.loc 1 233 0 is_stmt 1 discriminator 3
 444 000a 0120     		movs	r0, #1
 445 000c FFF7FEFF 		bl	LED_RED_Write
 446              	.LVL46:
 234:main.c        ****         CyDelay(300);
 447              		.loc 1 234 0 discriminator 3
 448 0010 4FF49670 		mov	r0, #300
 449 0014 FFF7FEFF 		bl	CyDelay
 450              	.LVL47:
 235:main.c        ****         LED_RED_Write(ON);
 451              		.loc 1 235 0 discriminator 3
 452 0018 0020     		movs	r0, #0
 453 001a FFF7FEFF 		bl	LED_RED_Write
 454              	.LVL48:
 236:main.c        ****         CyDelay(300);
 455              		.loc 1 236 0 discriminator 3
 456 001e 4FF49670 		mov	r0, #300
 457 0022 FFF7FEFF 		bl	CyDelay
 458              	.LVL49:
 231:main.c        ****     {
 459              		.loc 1 231 0 discriminator 3
 460 0026 0134     		adds	r4, r4, #1
 461              	.LVL50:
 462 0028 EDE7     		b	.L27
 463              	.L29:
 237:main.c        ****     } 
 238:main.c        **** }
 464              		.loc 1 238 0
 465 002a 38BD     		pop	{r3, r4, r5, pc}
 466              		.cfi_endproc
 467              	.LFE69:
 468              		.size	displayError, .-displayError
 469              		.section	.text.ReadImageCard,"ax",%progbits
 470              		.align	1
 471              		.global	ReadImageCard
 472              		.thumb
 473              		.thumb_func
 474              		.type	ReadImageCard, %function
 475              	ReadImageCard:
 476              	.LFB71:
 239:main.c        **** 
 240:main.c        **** 
 241:main.c        **** unsigned char f2f_alive_message[] = {0x0,0x34,0xE3,0xFD,0xA0,0x0,0x0,0x0,0x0};
 242:main.c        **** char TOC_port_init;
 243:main.c        **** char sendDebugMsg = 0;  //yqh debug mode
 244:main.c        **** int debug_msg_delay;
 245:main.c        **** /****************************************
ARM GAS  C:\Users\yqh\AppData\Local\Temp\ccbw8f9k.s 			page 14


 246:main.c        ****    Method to handle commands
 247:main.c        ****    coming from device
 248:main.c        **** 
 249:main.c        **** *****************************************/
 250:main.c        **** void HandleCommand()
 251:main.c        **** {
 252:main.c        ****     char cmd;
 253:main.c        ****     int len;
 254:main.c        ****     int i;
 255:main.c        **** /*    
 256:main.c        ****     if (sendDebugMsg) //debug mode
 257:main.c        ****     {
 258:main.c        ****         MyI2C_Regs.mode = BASE_TOC + MODE_WIEGAND;
 259:main.c        ****         MyI2C_Regs.cmd = CMD_SEND_TOC_READER;
 260:main.c        **** //        MyI2C_Regs.buffer[0] = CMD_PING;
 261:main.c        **** //        MyI2C_Regs.buffer[0] = CMD_CLEAR_EM_DATA;
 262:main.c        **** //        MyI2C_Regs.buffer[1] = 0;
 263:main.c        **** //        MyI2C_Regs.buffer[2] = 0;
 264:main.c        ****         //B1 01 4E
 265:main.c        **** //        MyI2C_Regs.buffer[0]=0xB1;
 266:main.c        **** //        MyI2C_Regs.buffer[1]=0x01;
 267:main.c        **** //        MyI2C_Regs.buffer[2]=0x4E;
 268:main.c        **** //
 269:main.c        ****         MyI2C_Regs.buffer[0]=0x6E;
 270:main.c        ****         MyI2C_Regs.buffer[1]=22;
 271:main.c        ****         MyI2C_Regs.buffer[2]=0;
 272:main.c        ****         MyI2C_Regs.buffer[3]=1;
 273:main.c        ****         MyI2C_Regs.buffer[4]=2;
 274:main.c        ****         MyI2C_Regs.buffer[5]=3;
 275:main.c        ****         MyI2C_Regs.buffer[6]=4;
 276:main.c        ****         MyI2C_Regs.buffer[7]=5;
 277:main.c        ****         MyI2C_Regs.buffer[8]=6;
 278:main.c        ****         MyI2C_Regs.buffer[9]=7;
 279:main.c        ****         MyI2C_Regs.buffer[10]=8;
 280:main.c        ****         MyI2C_Regs.buffer[11]=9;
 281:main.c        ****         MyI2C_Regs.buffer[12]=0x6E;
 282:main.c        ****         MyI2C_Regs.buffer[13]=0x0b;
 283:main.c        ****         MyI2C_Regs.buffer[14]=0;
 284:main.c        ****         MyI2C_Regs.buffer[15]=1;
 285:main.c        ****         MyI2C_Regs.buffer[16]=2;
 286:main.c        ****         MyI2C_Regs.buffer[17]=3;
 287:main.c        ****         MyI2C_Regs.buffer[18]=4;
 288:main.c        ****         MyI2C_Regs.buffer[19]=5;
 289:main.c        ****         MyI2C_Regs.buffer[20]=6;
 290:main.c        ****         MyI2C_Regs.buffer[21]=7;
 291:main.c        ****         MyI2C_Regs.buffer[22]=8;
 292:main.c        ****         MyI2C_Regs.buffer[23]=9;
 293:main.c        **** //        
 294:main.c        ****         MyI2C_Regs.data_length[0] = 0;
 295:main.c        **** //        MyI2C_Regs.data_length[1] = 2;
 296:main.c        **** //        MyI2C_Regs.data_length[1] = 3;
 297:main.c        ****         MyI2C_Regs.data_length[1] = 24;
 298:main.c        **** 
 299:main.c        ****         sendDebugMsg = 0;
 300:main.c        ****     }
 301:main.c        ****  */   
 302:main.c        ****     cmd = MyI2C_Regs.cmd;
ARM GAS  C:\Users\yqh\AppData\Local\Temp\ccbw8f9k.s 			page 15


 303:main.c        ****     run_mode = MyI2C_Regs.mode;
 304:main.c        ****     len = (MyI2C_Regs.data_length[0] << 8) + MyI2C_Regs.data_length[1];
 305:main.c        ****     
 306:main.c        **** 
 307:main.c        ****     switch (run_mode)
 308:main.c        ****     {
 309:main.c        ****         case MODE_OSDP:
 310:main.c        ****         case MODE_OSDP + BASE_PASS:
 311:main.c        ****         case MODE_OSDP + BASE_TOC:
 312:main.c        ****             if(0==isr_keepalive_GetState())
 313:main.c        ****             {
 314:main.c        ****                 InitOSDP();
 315:main.c        ****             }
 316:main.c        ****             HandleOSDP();
 317:main.c        ****             return;
 318:main.c        ****         case MODE_F2F:
 319:main.c        ****         case MODE_F2F + BASE_PASS:
 320:main.c        ****             if (f2f_send_alive)
 321:main.c        ****             {
 322:main.c        ****                 SendF2F(f2f_alive_message,5);
 323:main.c        ****                 Tamper_Timer_ISR_Disable();
 324:main.c        ****                 f2f_send_alive = 0;
 325:main.c        ****                 f2f_alive_delay_cnt = 0;
 326:main.c        ****                 Tamper_Timer_ISR_Enable();
 327:main.c        ****             }
 328:main.c        ****             break;
 329:main.c        ****         default:;
 330:main.c        ****     }                        
 331:main.c        **** 	switch (cmd)
 332:main.c        ****     {
 333:main.c        ****         case CMD_NONE: //caution:Fang use CMD_NONE as the pass through read
 334:main.c        ****                 // process mode
 335:main.c        ****                 switch (run_mode)
 336:main.c        ****                 {
 337:main.c        ****                     case MODE_OSDP:
 338:main.c        ****                     case MODE_OSDP + BASE_PASS:
 339:main.c        ****                     case MODE_OSDP + BASE_TOC:
 340:main.c        ****                         if(0==isr_keepalive_GetState())
 341:main.c        ****                         {
 342:main.c        ****                             InitOSDP();
 343:main.c        ****                         }
 344:main.c        ****                         HandleOSDP();
 345:main.c        ****                         return;
 346:main.c        ****                     case MODE_WIEGAND + BASE_PASS: //pass through
 347:main.c        ****                         LED_GRN_Write(OFF);
 348:main.c        ****                         for (i=0; i<10; i++){ //wait a while
 349:main.c        ****                             ReadWeigand(MyI2C_Regs.bits,1);
 350:main.c        ****                         }
 351:main.c        ****                         LED_GRN_Write(ON);
 352:main.c        ****                         break;
 353:main.c        ****                     case MODE_PAC + BASE_PASS:
 354:main.c        ****                         LED_GRN_Write(OFF);
 355:main.c        ****                         SetupUART(PAC);
 356:main.c        ****                         ReadPAC(1);
 357:main.c        ****                         LED_GRN_Write(ON);
 358:main.c        ****                         OptSelect_Write(1);
 359:main.c        ****                         break;
ARM GAS  C:\Users\yqh\AppData\Local\Temp\ccbw8f9k.s 			page 16


 360:main.c        ****                     case MODE_F2F + BASE_PASS:
 361:main.c        ****                         LED_GRN_Write(OFF);
 362:main.c        ****                         for (i=0; i<10; i++){ //wait a while
 363:main.c        ****                             ReadF2F(MyI2C_Regs.bits,1);
 364:main.c        ****                         }
 365:main.c        ****                         LED_GRN_Write(ON);
 366:main.c        ****                         break;
 367:main.c        ****                     default:;
 368:main.c        ****                 }                    
 369:main.c        ****                 break;
 370:main.c        ****         case CMD_BOOTLOAD:
 371:main.c        ****                 BootloadableI2C_Load();  //yqh debug mode
 372:main.c        ****                 break;
 373:main.c        ****         case CMD_READ:
 374:main.c        ****                 switch ( run_mode )
 375:main.c        ****                 {
 376:main.c        ****                     case MODE_WIEGAND:
 377:main.c        ****                         LED_GRN_Write(OFF);
 378:main.c        ****                         //ClearBuffer(); //seems better than without
 379:main.c        ****                         while(ReadWeigand(MyI2C_Regs.bits,0) == 0)
 380:main.c        ****                         {
 381:main.c        ****                             if(MyI2C_Regs.cmd !=CMD_READ ) 
 382:main.c        ****                                 break;
 383:main.c        ****                         };
 384:main.c        ****                         LED_GRN_Write(ON);
 385:main.c        ****                         break;
 386:main.c        ****                     case MODE_PAC:
 387:main.c        ****                         LED_GRN_Write(OFF);
 388:main.c        ****                         ClearBuffer(); // added here - GRI 2/2/15
 389:main.c        ****                         SetupUART(PAC);
 390:main.c        ****                         while(ReadPAC(0)== 0)
 391:main.c        ****                         {
 392:main.c        ****                             if(cmd != CMD_READ )
 393:main.c        ****                             break;
 394:main.c        ****                         }
 395:main.c        ****                         LED_GRN_Write(ON);
 396:main.c        ****                         OptSelect_Write(1);
 397:main.c        ****                         break;
 398:main.c        ****                     case MODE_F2F:
 399:main.c        ****                         LED_GRN_Write(OFF);
 400:main.c        ****                         while(ReadF2F(MyI2C_Regs.bits,0) == 0)
 401:main.c        ****                         {
 402:main.c        ****                             if( MyI2C_Regs.cmd != CMD_READ ) 
 403:main.c        ****                                 break;
 404:main.c        ****                         };
 405:main.c        ****                         LED_GRN_Write(ON);
 406:main.c        ****                         break;
 407:main.c        ****                     case MODE_OSDP:
 408:main.c        ****                         break;
 409:main.c        ****                     case BASE_TOC + MODE_WIEGAND:
 410:main.c        ****                     case BASE_TOC + MODE_PAC:
 411:main.c        ****                     case BASE_TOC + MODE_F2F:
 412:main.c        ****                     case BASE_TOC + MODE_HID:
 413:main.c        ****                     case BASE_TOC + MODE_OSDP:
 414:main.c        ****                         if (card_in_buf == 0 && card_ack == 1)
 415:main.c        ****                         {
 416:main.c        ****                             card_ack = 0;
ARM GAS  C:\Users\yqh\AppData\Local\Temp\ccbw8f9k.s 			page 17


 417:main.c        ****                             resetImgBuf();
 418:main.c        ****                         }
 419:main.c        ****                         if (TOC_port_init == 0)
 420:main.c        ****                         {
 421:main.c        ****                             initTocReaderUART();
 422:main.c        ****                             TOC_port_init = 1;
 423:main.c        ****                         }
 424:main.c        ****                         //initTocReaderUART();
 425:main.c        ****                         ReadImageCard();
 426:main.c        ****                         break;
 427:main.c        ****                     default:
 428:main.c        ****                         break;
 429:main.c        ****                 }
 430:main.c        ****                 break;
 431:main.c        **** 	    case CMD_SEND:
 432:main.c        ****                 if (run_mode == 0) run_mode = MODE_WIEGAND; //garbage in
 433:main.c        ****                 if (MyI2C_Regs.bits == 0) MyI2C_Regs.bits = 0x1A; //garbage in, right out
 434:main.c        ****                 switch( run_mode )
 435:main.c        ****                 {
 436:main.c        ****                     case MODE_PAC:
 437:main.c        ****                     case MODE_PAC + BASE_TOC:
 438:main.c        ****                     case MODE_PAC + BASE_PASS:
 439:main.c        ****                         LED_YEL_Write(OFF);
 440:main.c        ****                         SetupUART(PAC);
 441:main.c        ****                         SendPAC(MyI2C_Regs.buffer);
 442:main.c        ****                         MyI2C_Regs.cmd = CMD_NONE;
 443:main.c        ****                         LED_YEL_Write(ON);
 444:main.c        ****         				break;
 445:main.c        ****                         
 446:main.c        ****                     case MODE_F2F:
 447:main.c        ****                     case MODE_F2F + BASE_TOC:
 448:main.c        ****                     case MODE_F2F + BASE_PASS:    
 449:main.c        ****                         LED_YEL_Write(OFF);
 450:main.c        ****         				SendF2F(MyI2C_Regs.buffer, len);  //len is bytes
 451:main.c        ****                         MyI2C_Regs.cmd = CMD_NONE;
 452:main.c        ****                         LED_YEL_Write(ON);
 453:main.c        ****         			    break;        
 454:main.c        ****                         
 455:main.c        ****                     case MODE_HID:
 456:main.c        ****                     case MODE_HID + BASE_TOC:
 457:main.c        ****                     case MODE_HID + BASE_PASS:
 458:main.c        ****                        LED_YEL_Write(OFF);
 459:main.c        ****                        OptSelect_Write(1);
 460:main.c        ****         //               SendHID_SP533();
 461:main.c        ****                        SendHID();
 462:main.c        ****                        MyI2C_Regs.cmd = CMD_NONE;
 463:main.c        ****                        LED_YEL_Write(ON);
 464:main.c        ****         			   break;
 465:main.c        ****                     
 466:main.c        ****                     case MODE_WIEGAND:
 467:main.c        ****                     case MODE_WIEGAND + BASE_TOC:
 468:main.c        ****                     case MODE_WIEGAND + BASE_PASS:
 469:main.c        ****                         LED_YEL_Write(ON);
 470:main.c        ****             			SendWeigand(MyI2C_Regs.buffer, MyI2C_Regs.bits);
 471:main.c        ****                         MyI2C_Regs.cmd = CMD_NONE;
 472:main.c        ****                         LED_YEL_Write(OFF);
 473:main.c        ****         				break;  
ARM GAS  C:\Users\yqh\AppData\Local\Temp\ccbw8f9k.s 			page 18


 474:main.c        ****                     default:
 475:main.c        ****                         //displayError(100);
 476:main.c        ****                         break;
 477:main.c        ****                 }
 478:main.c        ****                 break;
 479:main.c        ****         case CMD_SEND_TOC_READER:
 480:main.c        ****                 switch ( run_mode )
 481:main.c        ****                 {
 482:main.c        ****                     case BASE_TOC + MODE_WIEGAND:
 483:main.c        ****                     case BASE_TOC + MODE_PAC:
 484:main.c        ****                     case BASE_TOC + MODE_F2F:
 485:main.c        ****                     case BASE_TOC + MODE_HID:
 486:main.c        ****                     case BASE_TOC + MODE_OSDP:
 487:main.c        ****                         card_ack = 1; //stop resending function
 488:main.c        ****                         MyI2C_Regs.status_out = 0; //clear old status.
 489:main.c        ****                         if (TOC_port_init == 0)
 490:main.c        ****                         {
 491:main.c        ****                             initTocReaderUART();
 492:main.c        ****                             TOC_port_init = 1;
 493:main.c        ****                         }
 494:main.c        ****                         //initTocReaderUART();
 495:main.c        ****                         SendWaveLynxReader(MyI2C_Regs.buffer,len);
 496:main.c        ****                         rxi = 0;
 497:main.c        ****                         tlv_ready=0;
 498:main.c        ****                         MyI2C_Regs.cmd = CMD_READ;
 499:main.c        ****                         break;
 500:main.c        ****                     default:
 501:main.c        ****                         break;
 502:main.c        ****                 }                
 503:main.c        ****                 break;
 504:main.c        ****         default:;   //cmd
 505:main.c        **** 	}
 506:main.c        **** }
 507:main.c        **** 
 508:main.c        **** void ReadImageCard()
 509:main.c        **** {
 477              		.loc 1 509 0
 478              		.cfi_startproc
 479              		@ args = 0, pretend = 0, frame = 0
 480              		@ frame_needed = 0, uses_anonymous_args = 0
 481 0000 38B5     		push	{r3, r4, r5, lr}
 482              		.cfi_def_cfa_offset 16
 483              		.cfi_offset 3, -16
 484              		.cfi_offset 4, -12
 485              		.cfi_offset 5, -8
 486              		.cfi_offset 14, -4
 510:main.c        ****     int k;
 511:main.c        ****     if(tlv_ready == 1)
 487              		.loc 1 511 0
 488 0002 184B     		ldr	r3, .L44
 489 0004 1A78     		ldrb	r2, [r3]	@ zero_extendqisi2
 490 0006 012A     		cmp	r2, #1
 491 0008 2BD1     		bne	.L30
 512:main.c        ****     {
 513:main.c        ****         tlv_ready = 0;
 492              		.loc 1 513 0
 493 000a 0024     		movs	r4, #0
ARM GAS  C:\Users\yqh\AppData\Local\Temp\ccbw8f9k.s 			page 19


 494 000c 1C70     		strb	r4, [r3]
 514:main.c        ****         if (rxi == 0) return; //wrong size
 495              		.loc 1 514 0
 496 000e 164B     		ldr	r3, .L44+4
 497 0010 1A68     		ldr	r2, [r3]
 498 0012 1D46     		mov	r5, r3
 499 0014 2AB3     		cbz	r2, .L30
 515:main.c        ****         if (rxi <= IMAGE_TEMP_SIZE )
 500              		.loc 1 515 0
 501 0016 41F2F441 		movw	r1, #5364
 502 001a 8A42     		cmp	r2, r1
 503 001c 20DC     		bgt	.L42
 504              	.L34:
 505              	.LVL51:
 506              	.LBB4:
 507              	.LBB5:
 516:main.c        ****         {
 517:main.c        ****             for (k=0; k<rxi; k++)
 508              		.loc 1 517 0
 509 001e 2B68     		ldr	r3, [r5]
 510 0020 9C42     		cmp	r4, r3
 511 0022 124B     		ldr	r3, .L44+8
 512 0024 09DA     		bge	.L43
 518:main.c        ****             {
 519:main.c        ****                 MyI2C_Regs.buffer[k] = ReaderRxBuffer[k];
 513              		.loc 1 519 0
 514 0026 124A     		ldr	r2, .L44+12
 515 0028 2344     		add	r3, r3, r4
 516 002a A25C     		ldrb	r2, [r4, r2]	@ zero_extendqisi2
 520:main.c        ****                 CyDelayUs(1);   //needed for Release Codes
 517              		.loc 1 520 0
 518 002c 0120     		movs	r0, #1
 519:main.c        ****                 CyDelayUs(1);   //needed for Release Codes
 519              		.loc 1 519 0
 520 002e 83F84920 		strb	r2, [r3, #73]
 521              		.loc 1 520 0
 522 0032 FFF7FEFF 		bl	CyDelayUs
 523              	.LVL52:
 517:main.c        ****             {
 524              		.loc 1 517 0
 525 0036 0134     		adds	r4, r4, #1
 526              	.LVL53:
 527 0038 F1E7     		b	.L34
 528              	.L43:
 521:main.c        ****             }
 522:main.c        ****             rxi = 0;  //ready for next image
 529              		.loc 1 522 0
 530 003a 0B49     		ldr	r1, .L44+4
 531 003c 0022     		movs	r2, #0
 532 003e 0A60     		str	r2, [r1]
 523:main.c        ****             MyI2C_Regs.data_length[0]= k>>8;   //higher 8 bits
 533              		.loc 1 523 0
 534 0040 2112     		asrs	r1, r4, #8
 535 0042 D971     		strb	r1, [r3, #7]
 524:main.c        ****             MyI2C_Regs.data_length[1]= k;        //lower 8 bits.
 525:main.c        ****             MyI2C_Regs.dummy0[0]= (k>>8) & 0xFF;   //higher 8 bits
 536              		.loc 1 525 0
ARM GAS  C:\Users\yqh\AppData\Local\Temp\ccbw8f9k.s 			page 20


 537 0044 9973     		strb	r1, [r3, #14]
 526:main.c        ****             MyI2C_Regs.dummy0[1]= k & 0xFF;        //lower 8 bits.
 527:main.c        ****             card_ack = 0;
 538              		.loc 1 527 0
 539 0046 0B49     		ldr	r1, .L44+16
 528:main.c        ****             card_in_buf = 1;
 540              		.loc 1 528 0
 541 0048 0120     		movs	r0, #1
 527:main.c        ****             card_in_buf = 1;
 542              		.loc 1 527 0
 543 004a 0A60     		str	r2, [r1]
 544              		.loc 1 528 0
 545 004c 0A49     		ldr	r1, .L44+20
 524:main.c        ****             MyI2C_Regs.dummy0[0]= (k>>8) & 0xFF;   //higher 8 bits
 546              		.loc 1 524 0
 547 004e 1C72     		strb	r4, [r3, #8]
 548              		.loc 1 528 0
 549 0050 0860     		str	r0, [r1]
 529:main.c        ****             MyI2C_Regs.status_out |= STAT_CHANGE | STAT_CARD_IN;
 550              		.loc 1 529 0
 551 0052 1978     		ldrb	r1, [r3]	@ zero_extendqisi2
 526:main.c        ****             card_ack = 0;
 552              		.loc 1 526 0
 553 0054 DC73     		strb	r4, [r3, #15]
 554              		.loc 1 529 0
 555 0056 41F00301 		orr	r1, r1, #3
 556 005a 1970     		strb	r1, [r3]
 530:main.c        ****             MyI2C_Regs.cmd = CMD_NONE; //prevent to read it again
 557              		.loc 1 530 0
 558 005c 9A70     		strb	r2, [r3, #2]
 559 005e 38BD     		pop	{r3, r4, r5, pc}
 560              	.LVL54:
 561              	.L42:
 562              	.LBE5:
 563              	.LBE4:
 531:main.c        ****         }
 532:main.c        ****         else
 533:main.c        ****         {
 534:main.c        ****             rxi = 0; //data is too big, read again
 564              		.loc 1 534 0
 565 0060 1C60     		str	r4, [r3]
 566              	.L30:
 567 0062 38BD     		pop	{r3, r4, r5, pc}
 568              	.L45:
 569              		.align	2
 570              	.L44:
 571 0064 00000000 		.word	tlv_ready
 572 0068 00000000 		.word	rxi
 573 006c 00000000 		.word	MyI2C_Regs
 574 0070 00000000 		.word	ReaderRxBuffer
 575 0074 00000000 		.word	card_ack
 576 0078 00000000 		.word	card_in_buf
 577              		.cfi_endproc
 578              	.LFE71:
 579              		.size	ReadImageCard, .-ReadImageCard
 580              		.section	.text.HandleCommand,"ax",%progbits
 581              		.align	1
ARM GAS  C:\Users\yqh\AppData\Local\Temp\ccbw8f9k.s 			page 21


 582              		.global	HandleCommand
 583              		.thumb
 584              		.thumb_func
 585              		.type	HandleCommand, %function
 586              	HandleCommand:
 587              	.LFB70:
 251:main.c        ****     char cmd;
 588              		.loc 1 251 0
 589              		.cfi_startproc
 590              		@ args = 0, pretend = 0, frame = 0
 591              		@ frame_needed = 0, uses_anonymous_args = 0
 592 0000 2DE9F843 		push	{r3, r4, r5, r6, r7, r8, r9, lr}
 593              		.cfi_def_cfa_offset 32
 594              		.cfi_offset 3, -32
 595              		.cfi_offset 4, -28
 596              		.cfi_offset 5, -24
 597              		.cfi_offset 6, -20
 598              		.cfi_offset 7, -16
 599              		.cfi_offset 8, -12
 600              		.cfi_offset 9, -8
 601              		.cfi_offset 14, -4
 302:main.c        ****     run_mode = MyI2C_Regs.mode;
 602              		.loc 1 302 0
 603 0004 A04C     		ldr	r4, .L172
 303:main.c        ****     len = (MyI2C_Regs.data_length[0] << 8) + MyI2C_Regs.data_length[1];
 604              		.loc 1 303 0
 605 0006 A14D     		ldr	r5, .L172+4
 606 0008 E378     		ldrb	r3, [r4, #3]	@ zero_extendqisi2
 302:main.c        ****     run_mode = MyI2C_Regs.mode;
 607              		.loc 1 302 0
 608 000a A778     		ldrb	r7, [r4, #2]	@ zero_extendqisi2
 609              	.LVL55:
 307:main.c        ****     {
 610              		.loc 1 307 0
 611 000c 342B     		cmp	r3, #52
 303:main.c        ****     len = (MyI2C_Regs.data_length[0] << 8) + MyI2C_Regs.data_length[1];
 612              		.loc 1 303 0
 613 000e 2B70     		strb	r3, [r5]
 304:main.c        ****     
 614              		.loc 1 304 0
 615 0010 94F80790 		ldrb	r9, [r4, #7]	@ zero_extendqisi2
 616 0014 94F80880 		ldrb	r8, [r4, #8]	@ zero_extendqisi2
 617              	.LVL56:
 307:main.c        ****     {
 618              		.loc 1 307 0
 619 0018 0CD0     		beq	.L48
 620 001a 03D8     		bhi	.L49
 621 001c 022B     		cmp	r3, #2
 622 001e 09D0     		beq	.L48
 623 0020 052B     		cmp	r3, #5
 624 0022 02E0     		b	.L167
 625              	.L49:
 626 0024 662B     		cmp	r3, #102
 627 0026 05D0     		beq	.L48
 628 0028 692B     		cmp	r3, #105
 629              	.L167:
 630 002a 0CD0     		beq	.L50
ARM GAS  C:\Users\yqh\AppData\Local\Temp\ccbw8f9k.s 			page 22


 631 002c 1AE0     		b	.L47
 632              	.L54:
 335:main.c        ****                 {
 633              		.loc 1 335 0
 634 002e 2B78     		ldrb	r3, [r5]	@ zero_extendqisi2
 635 0030 662B     		cmp	r3, #102
 636 0032 29D1     		bne	.L171
 637              	.L48:
 312:main.c        ****             {
 638              		.loc 1 312 0
 639 0034 FFF7FEFF 		bl	isr_keepalive_GetState
 640              	.LVL57:
 641 0038 08B9     		cbnz	r0, .L52
 314:main.c        ****             }
 642              		.loc 1 314 0
 643 003a FFF7FEFF 		bl	InitOSDP
 644              	.LVL58:
 645              	.L52:
 506:main.c        **** 
 646              		.loc 1 506 0
 647 003e BDE8F843 		pop	{r3, r4, r5, r6, r7, r8, r9, lr}
 648              		.cfi_remember_state
 649              		.cfi_restore 14
 650              		.cfi_restore 9
 651              		.cfi_restore 8
 652              		.cfi_restore 7
 653              		.cfi_restore 6
 654              		.cfi_restore 5
 655              		.cfi_restore 4
 656              		.cfi_restore 3
 657              		.cfi_def_cfa_offset 0
 658              	.LVL59:
 316:main.c        ****             return;
 659              		.loc 1 316 0
 660 0042 FFF7FEBF 		b	HandleOSDP
 661              	.LVL60:
 662              	.L50:
 663              		.cfi_restore_state
 320:main.c        ****             {
 664              		.loc 1 320 0
 665 0046 924E     		ldr	r6, .L172+8
 666 0048 3378     		ldrb	r3, [r6]	@ zero_extendqisi2
 667 004a 5BB1     		cbz	r3, .L47
 322:main.c        ****                 Tamper_Timer_ISR_Disable();
 668              		.loc 1 322 0
 669 004c 9148     		ldr	r0, .L172+12
 670 004e 0521     		movs	r1, #5
 671 0050 FFF7FEFF 		bl	SendF2F
 672              	.LVL61:
 323:main.c        ****                 f2f_send_alive = 0;
 673              		.loc 1 323 0
 674 0054 FFF7FEFF 		bl	Tamper_Timer_ISR_Disable
 675              	.LVL62:
 325:main.c        ****                 Tamper_Timer_ISR_Enable();
 676              		.loc 1 325 0
 677 0058 8F4A     		ldr	r2, .L172+16
 324:main.c        ****                 f2f_alive_delay_cnt = 0;
ARM GAS  C:\Users\yqh\AppData\Local\Temp\ccbw8f9k.s 			page 23


 678              		.loc 1 324 0
 679 005a 0023     		movs	r3, #0
 680 005c 3370     		strb	r3, [r6]
 325:main.c        ****                 Tamper_Timer_ISR_Enable();
 681              		.loc 1 325 0
 682 005e 1360     		str	r3, [r2]
 326:main.c        ****             }
 683              		.loc 1 326 0
 684 0060 FFF7FEFF 		bl	Tamper_Timer_ISR_Enable
 685              	.LVL63:
 686              	.L47:
 304:main.c        ****     
 687              		.loc 1 304 0
 688 0064 08EB0926 		add	r6, r8, r9, lsl #8
 331:main.c        ****     {
 689              		.loc 1 331 0
 690 0068 042F     		cmp	r7, #4
 691 006a 00F20A81 		bhi	.L46
 692 006e 01A3     		adr	r3, .L55
 693 0070 53F827F0 		ldr	pc, [r3, r7, lsl #2]
 694              		.p2align 2
 695              	.L55:
 696 0074 2F000000 		.word	.L54+1
 697 0078 ED000000 		.word	.L56+1
 698 007c F5000000 		.word	.L57+1
 699 0080 9F010000 		.word	.L58+1
 700 0084 4F020000 		.word	.L59+1
 701              		.p2align 1
 702              	.L171:
 335:main.c        ****                 {
 703              		.loc 1 335 0
 704 0088 05D8     		bhi	.L61
 705 008a 022B     		cmp	r3, #2
 706 008c D2D0     		beq	.L48
 707 008e 342B     		cmp	r3, #52
 708 0090 40F0F780 		bne	.L46
 709 0094 CEE7     		b	.L48
 710              	.L61:
 711 0096 692B     		cmp	r3, #105
 712 0098 1DD0     		beq	.L62
 713 009a 6A2B     		cmp	r3, #106
 714 009c 0CD0     		beq	.L63
 715 009e 682B     		cmp	r3, #104
 716 00a0 40F0EF80 		bne	.L46
 354:main.c        ****                         SetupUART(PAC);
 717              		.loc 1 354 0
 718 00a4 0120     		movs	r0, #1
 719 00a6 FFF7FEFF 		bl	LED_GRN_Write
 720              	.LVL64:
 355:main.c        ****                         ReadPAC(1);
 721              		.loc 1 355 0
 722 00aa 0C20     		movs	r0, #12
 723 00ac FFF7FEFF 		bl	SetupUART
 724              	.LVL65:
 356:main.c        ****                         LED_GRN_Write(ON);
 725              		.loc 1 356 0
 726 00b0 0120     		movs	r0, #1
ARM GAS  C:\Users\yqh\AppData\Local\Temp\ccbw8f9k.s 			page 24


 727 00b2 FFF7FEFF 		bl	ReadPAC
 728              	.LVL66:
 729 00b6 47E0     		b	.L168
 730              	.L63:
 347:main.c        ****                         for (i=0; i<10; i++){ //wait a while
 731              		.loc 1 347 0
 732 00b8 0120     		movs	r0, #1
 733 00ba FFF7FEFF 		bl	LED_GRN_Write
 734              	.LVL67:
 735 00be 0A25     		movs	r5, #10
 736              	.LVL68:
 737              	.L66:
 349:main.c        ****                         }
 738              		.loc 1 349 0 discriminator 3
 739 00c0 607A     		ldrb	r0, [r4, #9]	@ zero_extendqisi2
 740 00c2 0121     		movs	r1, #1
 741 00c4 FFF7FEFF 		bl	ReadWeigand
 742              	.LVL69:
 348:main.c        ****                             ReadWeigand(MyI2C_Regs.bits,1);
 743              		.loc 1 348 0 discriminator 3
 744 00c8 013D     		subs	r5, r5, #1
 745              	.LVL70:
 746 00ca F9D1     		bne	.L66
 747              	.LVL71:
 748              	.L68:
 506:main.c        **** 
 749              		.loc 1 506 0
 750 00cc BDE8F843 		pop	{r3, r4, r5, r6, r7, r8, r9, lr}
 751              		.cfi_remember_state
 752              		.cfi_restore 14
 753              		.cfi_restore 9
 754              		.cfi_restore 8
 755              		.cfi_restore 7
 756              		.cfi_restore 6
 757              		.cfi_restore 5
 758              		.cfi_restore 4
 759              		.cfi_restore 3
 760              		.cfi_def_cfa_offset 0
 761              	.LVL72:
 351:main.c        ****                         break;
 762              		.loc 1 351 0
 763 00d0 0020     		movs	r0, #0
 764 00d2 FFF7FEBF 		b	LED_GRN_Write
 765              	.LVL73:
 766              	.L62:
 767              		.cfi_restore_state
 361:main.c        ****                         for (i=0; i<10; i++){ //wait a while
 768              		.loc 1 361 0
 769 00d6 0120     		movs	r0, #1
 770 00d8 FFF7FEFF 		bl	LED_GRN_Write
 771              	.LVL74:
 772 00dc 0A25     		movs	r5, #10
 773              	.LVL75:
 774              	.L67:
 363:main.c        ****                         }
 775              		.loc 1 363 0 discriminator 3
 776 00de 607A     		ldrb	r0, [r4, #9]	@ zero_extendqisi2
ARM GAS  C:\Users\yqh\AppData\Local\Temp\ccbw8f9k.s 			page 25


 777 00e0 0121     		movs	r1, #1
 778 00e2 FFF7FEFF 		bl	ReadF2F
 779              	.LVL76:
 362:main.c        ****                             ReadF2F(MyI2C_Regs.bits,1);
 780              		.loc 1 362 0 discriminator 3
 781 00e6 013D     		subs	r5, r5, #1
 782              	.LVL77:
 783 00e8 F9D1     		bne	.L67
 784 00ea EFE7     		b	.L68
 785              	.LVL78:
 786              	.L56:
 506:main.c        **** 
 787              		.loc 1 506 0
 788 00ec BDE8F843 		pop	{r3, r4, r5, r6, r7, r8, r9, lr}
 789              		.cfi_remember_state
 790              		.cfi_restore 14
 791              		.cfi_restore 9
 792              		.cfi_restore 8
 793              		.cfi_restore 7
 794              		.cfi_restore 6
 795              		.cfi_restore 5
 796              		.cfi_restore 4
 797              		.cfi_restore 3
 798              		.cfi_def_cfa_offset 0
 799              	.LVL79:
 371:main.c        ****                 break;
 800              		.loc 1 371 0
 801 00f0 FFF7FEBF 		b	BootloadableI2C_Load
 802              	.LVL80:
 803              	.L57:
 804              		.cfi_restore_state
 374:main.c        ****                 {
 805              		.loc 1 374 0
 806 00f4 2B78     		ldrb	r3, [r5]	@ zero_extendqisi2
 807 00f6 062B     		cmp	r3, #6
 808 00f8 0BD0     		beq	.L69
 809 00fa 05D8     		bhi	.L70
 810 00fc 042B     		cmp	r3, #4
 811 00fe 16D0     		beq	.L71
 812 0100 052B     		cmp	r3, #5
 813 0102 29D0     		beq	.L72
 814 0104 BDE8F883 		pop	{r3, r4, r5, r6, r7, r8, r9, pc}
 815              	.LVL81:
 816              	.L70:
 817 0108 343B     		subs	r3, r3, #52
 818 010a 042B     		cmp	r3, #4
 819 010c 32D9     		bls	.L165
 820 010e BDE8F883 		pop	{r3, r4, r5, r6, r7, r8, r9, pc}
 821              	.LVL82:
 822              	.L69:
 377:main.c        ****                         //ClearBuffer(); //seems better than without
 823              		.loc 1 377 0
 824 0112 0120     		movs	r0, #1
 825 0114 FFF7FEFF 		bl	LED_GRN_Write
 826              	.LVL83:
 827              	.L74:
 379:main.c        ****                         {
ARM GAS  C:\Users\yqh\AppData\Local\Temp\ccbw8f9k.s 			page 26


 828              		.loc 1 379 0
 829 0118 607A     		ldrb	r0, [r4, #9]	@ zero_extendqisi2
 830 011a 0021     		movs	r1, #0
 831 011c FFF7FEFF 		bl	ReadWeigand
 832              	.LVL84:
 833 0120 0028     		cmp	r0, #0
 834 0122 D3D1     		bne	.L68
 381:main.c        ****                                 break;
 835              		.loc 1 381 0
 836 0124 584B     		ldr	r3, .L172
 837 0126 9B78     		ldrb	r3, [r3, #2]	@ zero_extendqisi2
 838 0128 022B     		cmp	r3, #2
 839 012a F5D0     		beq	.L74
 840 012c CEE7     		b	.L68
 841              	.L71:
 387:main.c        ****                         ClearBuffer(); // added here - GRI 2/2/15
 842              		.loc 1 387 0
 843 012e 0120     		movs	r0, #1
 844 0130 FFF7FEFF 		bl	LED_GRN_Write
 845              	.LVL85:
 388:main.c        ****                         SetupUART(PAC);
 846              		.loc 1 388 0
 847 0134 FFF7FEFF 		bl	ClearBuffer
 848              	.LVL86:
 389:main.c        ****                         while(ReadPAC(0)== 0)
 849              		.loc 1 389 0
 850 0138 0C20     		movs	r0, #12
 851 013a FFF7FEFF 		bl	SetupUART
 852              	.LVL87:
 853              	.L77:
 390:main.c        ****                         {
 854              		.loc 1 390 0
 855 013e 0020     		movs	r0, #0
 856 0140 FFF7FEFF 		bl	ReadPAC
 857              	.LVL88:
 858 0144 0028     		cmp	r0, #0
 859 0146 FAD0     		beq	.L77
 860              	.L168:
 395:main.c        ****                         OptSelect_Write(1);
 861              		.loc 1 395 0
 862 0148 0020     		movs	r0, #0
 863 014a FFF7FEFF 		bl	LED_GRN_Write
 864              	.LVL89:
 506:main.c        **** 
 865              		.loc 1 506 0
 866 014e BDE8F843 		pop	{r3, r4, r5, r6, r7, r8, r9, lr}
 867              		.cfi_remember_state
 868              		.cfi_restore 14
 869              		.cfi_restore 9
 870              		.cfi_restore 8
 871              		.cfi_restore 7
 872              		.cfi_restore 6
 873              		.cfi_restore 5
 874              		.cfi_restore 4
 875              		.cfi_restore 3
 876              		.cfi_def_cfa_offset 0
 877              	.LVL90:
ARM GAS  C:\Users\yqh\AppData\Local\Temp\ccbw8f9k.s 			page 27


 396:main.c        ****                         break;
 878              		.loc 1 396 0
 879 0152 0120     		movs	r0, #1
 880 0154 FFF7FEBF 		b	OptSelect_Write
 881              	.LVL91:
 882              	.L72:
 883              		.cfi_restore_state
 399:main.c        ****                         while(ReadF2F(MyI2C_Regs.bits,0) == 0)
 884              		.loc 1 399 0
 885 0158 0120     		movs	r0, #1
 886 015a FFF7FEFF 		bl	LED_GRN_Write
 887              	.LVL92:
 888              	.L78:
 400:main.c        ****                         {
 889              		.loc 1 400 0
 890 015e 607A     		ldrb	r0, [r4, #9]	@ zero_extendqisi2
 891 0160 0021     		movs	r1, #0
 892 0162 FFF7FEFF 		bl	ReadF2F
 893              	.LVL93:
 894 0166 0028     		cmp	r0, #0
 895 0168 B0D1     		bne	.L68
 402:main.c        ****                                 break;
 896              		.loc 1 402 0
 897 016a 474B     		ldr	r3, .L172
 898 016c 9B78     		ldrb	r3, [r3, #2]	@ zero_extendqisi2
 899 016e 022B     		cmp	r3, #2
 900 0170 F5D0     		beq	.L78
 901 0172 ABE7     		b	.L68
 902              	.L165:
 414:main.c        ****                         {
 903              		.loc 1 414 0
 904 0174 494B     		ldr	r3, .L172+20
 905 0176 1A68     		ldr	r2, [r3]
 906 0178 32B9     		cbnz	r2, .L80
 414:main.c        ****                         {
 907              		.loc 1 414 0 is_stmt 0 discriminator 1
 908 017a 494B     		ldr	r3, .L172+24
 909 017c 1968     		ldr	r1, [r3]
 910 017e 0129     		cmp	r1, #1
 911 0180 02D1     		bne	.L80
 416:main.c        ****                             resetImgBuf();
 912              		.loc 1 416 0 is_stmt 1
 913 0182 1A60     		str	r2, [r3]
 417:main.c        ****                         }
 914              		.loc 1 417 0
 915 0184 FFF7FEFF 		bl	resetImgBuf
 916              	.LVL94:
 917              	.L80:
 419:main.c        ****                         {
 918              		.loc 1 419 0
 919 0188 464C     		ldr	r4, .L172+28
 920 018a 2378     		ldrb	r3, [r4]	@ zero_extendqisi2
 921 018c 1BB9     		cbnz	r3, .L81
 421:main.c        ****                             TOC_port_init = 1;
 922              		.loc 1 421 0
 923 018e FFF7FEFF 		bl	initTocReaderUART
 924              	.LVL95:
ARM GAS  C:\Users\yqh\AppData\Local\Temp\ccbw8f9k.s 			page 28


 422:main.c        ****                         }
 925              		.loc 1 422 0
 926 0192 0123     		movs	r3, #1
 927 0194 2370     		strb	r3, [r4]
 928              	.L81:
 506:main.c        **** 
 929              		.loc 1 506 0
 930 0196 BDE8F843 		pop	{r3, r4, r5, r6, r7, r8, r9, lr}
 931              		.cfi_remember_state
 932              		.cfi_restore 14
 933              		.cfi_restore 9
 934              		.cfi_restore 8
 935              		.cfi_restore 7
 936              		.cfi_restore 6
 937              		.cfi_restore 5
 938              		.cfi_restore 4
 939              		.cfi_restore 3
 940              		.cfi_def_cfa_offset 0
 941              	.LVL96:
 425:main.c        ****                         break;
 942              		.loc 1 425 0
 943 019a FFF7FEBF 		b	ReadImageCard
 944              	.LVL97:
 945              	.L58:
 946              		.cfi_restore_state
 432:main.c        ****                 if (MyI2C_Regs.bits == 0) MyI2C_Regs.bits = 0x1A; //garbage in, right out
 947              		.loc 1 432 0
 948 019e 2B78     		ldrb	r3, [r5]	@ zero_extendqisi2
 949 01a0 13B9     		cbnz	r3, .L82
 432:main.c        ****                 if (MyI2C_Regs.bits == 0) MyI2C_Regs.bits = 0x1A; //garbage in, right out
 950              		.loc 1 432 0 is_stmt 0 discriminator 1
 951 01a2 3A4B     		ldr	r3, .L172+4
 952 01a4 0622     		movs	r2, #6
 953 01a6 1A70     		strb	r2, [r3]
 954              	.L82:
 433:main.c        ****                 switch( run_mode )
 955              		.loc 1 433 0 is_stmt 1
 956 01a8 637A     		ldrb	r3, [r4, #9]	@ zero_extendqisi2
 957 01aa 13B9     		cbnz	r3, .L83
 433:main.c        ****                 switch( run_mode )
 958              		.loc 1 433 0 is_stmt 0 discriminator 1
 959 01ac 364B     		ldr	r3, .L172
 960 01ae 1A22     		movs	r2, #26
 961 01b0 5A72     		strb	r2, [r3, #9]
 962              	.L83:
 434:main.c        ****                 {
 963              		.loc 1 434 0 is_stmt 1
 964 01b2 2B78     		ldrb	r3, [r5]	@ zero_extendqisi2
 965 01b4 362B     		cmp	r3, #54
 966 01b6 1FD0     		beq	.L84
 967 01b8 0ED8     		bhi	.L85
 968 01ba 052B     		cmp	r3, #5
 969 01bc 26D0     		beq	.L86
 970 01be 05D8     		bhi	.L87
 971 01c0 032B     		cmp	r3, #3
 972 01c2 2DD0     		beq	.L88
 973 01c4 042B     		cmp	r3, #4
ARM GAS  C:\Users\yqh\AppData\Local\Temp\ccbw8f9k.s 			page 29


 974 01c6 17D0     		beq	.L84
 975 01c8 BDE8F883 		pop	{r3, r4, r5, r6, r7, r8, r9, pc}
 976              	.LVL98:
 977              	.L87:
 978 01cc 062B     		cmp	r3, #6
 979 01ce 30D0     		beq	.L89
 980 01d0 352B     		cmp	r3, #53
 981 01d2 25D0     		beq	.L88
 982 01d4 BDE8F883 		pop	{r3, r4, r5, r6, r7, r8, r9, pc}
 983              	.LVL99:
 984              	.L85:
 985 01d8 672B     		cmp	r3, #103
 986 01da 21D0     		beq	.L88
 987 01dc 05D8     		bhi	.L90
 988 01de 372B     		cmp	r3, #55
 989 01e0 14D0     		beq	.L86
 990 01e2 382B     		cmp	r3, #56
 991 01e4 25D0     		beq	.L89
 992 01e6 BDE8F883 		pop	{r3, r4, r5, r6, r7, r8, r9, pc}
 993              	.LVL100:
 994              	.L90:
 995 01ea 692B     		cmp	r3, #105
 996 01ec 0ED0     		beq	.L86
 997 01ee 03D3     		bcc	.L84
 998 01f0 6A2B     		cmp	r3, #106
 999 01f2 1ED0     		beq	.L89
 1000 01f4 BDE8F883 		pop	{r3, r4, r5, r6, r7, r8, r9, pc}
 1001              	.LVL101:
 1002              	.L84:
 439:main.c        ****                         SetupUART(PAC);
 1003              		.loc 1 439 0
 1004 01f8 0120     		movs	r0, #1
 1005 01fa FFF7FEFF 		bl	LED_YEL_Write
 1006              	.LVL102:
 440:main.c        ****                         SendPAC(MyI2C_Regs.buffer);
 1007              		.loc 1 440 0
 1008 01fe 0C20     		movs	r0, #12
 1009 0200 FFF7FEFF 		bl	SetupUART
 1010              	.LVL103:
 441:main.c        ****                         MyI2C_Regs.cmd = CMD_NONE;
 1011              		.loc 1 441 0
 1012 0204 2848     		ldr	r0, .L172+32
 1013 0206 FFF7FEFF 		bl	SendPAC
 1014              	.LVL104:
 1015 020a 06E0     		b	.L170
 1016              	.L86:
 449:main.c        ****         				SendF2F(MyI2C_Regs.buffer, len);  //len is bytes
 1017              		.loc 1 449 0
 1018 020c 0120     		movs	r0, #1
 1019 020e FFF7FEFF 		bl	LED_YEL_Write
 1020              	.LVL105:
 450:main.c        ****                         MyI2C_Regs.cmd = CMD_NONE;
 1021              		.loc 1 450 0
 1022 0212 2548     		ldr	r0, .L172+32
 1023 0214 3146     		mov	r1, r6
 1024 0216 FFF7FEFF 		bl	SendF2F
 1025              	.LVL106:
ARM GAS  C:\Users\yqh\AppData\Local\Temp\ccbw8f9k.s 			page 30


 1026              	.L170:
 451:main.c        ****                         LED_YEL_Write(ON);
 1027              		.loc 1 451 0
 1028 021a 0020     		movs	r0, #0
 1029 021c A070     		strb	r0, [r4, #2]
 1030 021e 12E0     		b	.L169
 1031              	.L88:
 458:main.c        ****                        OptSelect_Write(1);
 1032              		.loc 1 458 0
 1033 0220 0120     		movs	r0, #1
 1034 0222 FFF7FEFF 		bl	LED_YEL_Write
 1035              	.LVL107:
 459:main.c        ****         //               SendHID_SP533();
 1036              		.loc 1 459 0
 1037 0226 0120     		movs	r0, #1
 1038 0228 FFF7FEFF 		bl	OptSelect_Write
 1039              	.LVL108:
 461:main.c        ****                        MyI2C_Regs.cmd = CMD_NONE;
 1040              		.loc 1 461 0
 1041 022c FFF7FEFF 		bl	SendHID
 1042              	.LVL109:
 1043 0230 F3E7     		b	.L170
 1044              	.L89:
 469:main.c        ****             			SendWeigand(MyI2C_Regs.buffer, MyI2C_Regs.bits);
 1045              		.loc 1 469 0
 1046 0232 0020     		movs	r0, #0
 1047 0234 FFF7FEFF 		bl	LED_YEL_Write
 1048              	.LVL110:
 470:main.c        ****                         MyI2C_Regs.cmd = CMD_NONE;
 1049              		.loc 1 470 0
 1050 0238 1B48     		ldr	r0, .L172+32
 1051 023a 617A     		ldrb	r1, [r4, #9]	@ zero_extendqisi2
 1052 023c FFF7FEFF 		bl	SendWeigand
 1053              	.LVL111:
 471:main.c        ****                         LED_YEL_Write(OFF);
 1054              		.loc 1 471 0
 1055 0240 0023     		movs	r3, #0
 1056 0242 A370     		strb	r3, [r4, #2]
 472:main.c        ****         				break;  
 1057              		.loc 1 472 0
 1058 0244 0120     		movs	r0, #1
 1059              	.L169:
 506:main.c        **** 
 1060              		.loc 1 506 0
 1061 0246 BDE8F843 		pop	{r3, r4, r5, r6, r7, r8, r9, lr}
 1062              		.cfi_remember_state
 1063              		.cfi_restore 14
 1064              		.cfi_restore 9
 1065              		.cfi_restore 8
 1066              		.cfi_restore 7
 1067              		.cfi_restore 6
 1068              		.cfi_restore 5
 1069              		.cfi_restore 4
 1070              		.cfi_restore 3
 1071              		.cfi_def_cfa_offset 0
 1072              	.LVL112:
 472:main.c        ****         				break;  
ARM GAS  C:\Users\yqh\AppData\Local\Temp\ccbw8f9k.s 			page 31


 1073              		.loc 1 472 0
 1074 024a FFF7FEBF 		b	LED_YEL_Write
 1075              	.LVL113:
 1076              	.L59:
 1077              		.cfi_restore_state
 480:main.c        ****                 {
 1078              		.loc 1 480 0
 1079 024e 2B78     		ldrb	r3, [r5]	@ zero_extendqisi2
 1080 0250 343B     		subs	r3, r3, #52
 1081 0252 042B     		cmp	r3, #4
 1082 0254 15D8     		bhi	.L46
 487:main.c        ****                         MyI2C_Regs.status_out = 0; //clear old status.
 1083              		.loc 1 487 0
 1084 0256 124B     		ldr	r3, .L172+24
 1085 0258 0127     		movs	r7, #1
 1086              	.LVL114:
 489:main.c        ****                         {
 1087              		.loc 1 489 0
 1088 025a 124D     		ldr	r5, .L172+28
 487:main.c        ****                         MyI2C_Regs.status_out = 0; //clear old status.
 1089              		.loc 1 487 0
 1090 025c 1F60     		str	r7, [r3]
 488:main.c        ****                         if (TOC_port_init == 0)
 1091              		.loc 1 488 0
 1092 025e 0023     		movs	r3, #0
 1093 0260 2370     		strb	r3, [r4]
 489:main.c        ****                         {
 1094              		.loc 1 489 0
 1095 0262 2B78     		ldrb	r3, [r5]	@ zero_extendqisi2
 1096 0264 13B9     		cbnz	r3, .L92
 491:main.c        ****                             TOC_port_init = 1;
 1097              		.loc 1 491 0
 1098 0266 FFF7FEFF 		bl	initTocReaderUART
 1099              	.LVL115:
 492:main.c        ****                         }
 1100              		.loc 1 492 0
 1101 026a 2F70     		strb	r7, [r5]
 1102              	.L92:
 495:main.c        ****                         rxi = 0;
 1103              		.loc 1 495 0
 1104 026c 0E48     		ldr	r0, .L172+32
 1105 026e 3146     		mov	r1, r6
 1106 0270 FFF7FEFF 		bl	SendWaveLynxReader
 1107              	.LVL116:
 496:main.c        ****                         tlv_ready=0;
 1108              		.loc 1 496 0
 1109 0274 0D4A     		ldr	r2, .L172+36
 1110 0276 0023     		movs	r3, #0
 1111 0278 1360     		str	r3, [r2]
 497:main.c        ****                         MyI2C_Regs.cmd = CMD_READ;
 1112              		.loc 1 497 0
 1113 027a 0D4A     		ldr	r2, .L172+40
 1114 027c 1370     		strb	r3, [r2]
 498:main.c        ****                         break;
 1115              		.loc 1 498 0
 1116 027e 0223     		movs	r3, #2
 1117 0280 A370     		strb	r3, [r4, #2]
ARM GAS  C:\Users\yqh\AppData\Local\Temp\ccbw8f9k.s 			page 32


 1118              	.L46:
 1119 0282 BDE8F883 		pop	{r3, r4, r5, r6, r7, r8, r9, pc}
 1120              	.LVL117:
 1121              	.L173:
 1122 0286 00BF     		.align	2
 1123              	.L172:
 1124 0288 00000000 		.word	MyI2C_Regs
 1125 028c 00000000 		.word	run_mode
 1126 0290 00000000 		.word	f2f_send_alive
 1127 0294 00000000 		.word	.LANCHOR0
 1128 0298 00000000 		.word	f2f_alive_delay_cnt
 1129 029c 00000000 		.word	card_in_buf
 1130 02a0 00000000 		.word	card_ack
 1131 02a4 00000000 		.word	TOC_port_init
 1132 02a8 49000000 		.word	MyI2C_Regs+73
 1133 02ac 00000000 		.word	rxi
 1134 02b0 00000000 		.word	tlv_ready
 1135              		.cfi_endproc
 1136              	.LFE70:
 1137              		.size	HandleCommand, .-HandleCommand
 1138              		.section	.text.startup.main,"ax",%progbits
 1139              		.align	1
 1140              		.global	main
 1141              		.thumb
 1142              		.thumb_func
 1143              		.type	main, %function
 1144              	main:
 1145              	.LFB72:
 535:main.c        ****         }
 536:main.c        ****     } //if
 537:main.c        **** }
 538:main.c        **** 
 539:main.c        **** 
 540:main.c        **** int main()
 541:main.c        **** {
 1146              		.loc 1 541 0
 1147              		.cfi_startproc
 1148              		@ args = 0, pretend = 0, frame = 0
 1149              		@ frame_needed = 0, uses_anonymous_args = 0
 1150 0000 70B5     		push	{r4, r5, r6, lr}
 1151              		.cfi_def_cfa_offset 16
 1152              		.cfi_offset 4, -16
 1153              		.cfi_offset 5, -12
 1154              		.cfi_offset 6, -8
 1155              		.cfi_offset 14, -4
 542:main.c        ****     int ack_time_cnt; // counter for acknowledge timeout
 543:main.c        ****     
 544:main.c        ****     CyGlobalIntEnable;  /* Uncomment this line to enable global interrupts. */
 1156              		.loc 1 544 0
 1157              	@ 544 "main.c" 1
 1158 0002 62B6     		CPSIE   i
 1159              	@ 0 "" 2
 545:main.c        **** 
 546:main.c        **** //    /* Intializing the Timers and interrupts */
 547:main.c        ****     UART_TIMER_Start();
 1160              		.loc 1 547 0
 1161              		.thumb
ARM GAS  C:\Users\yqh\AppData\Local\Temp\ccbw8f9k.s 			page 33


 1162 0004 FFF7FEFF 		bl	UART_TIMER_Start
 1163              	.LVL118:
 548:main.c        **** 	UART_TIMER_ISR_StartEx(UART_TIMER_ISR_Interrupt);
 1164              		.loc 1 548 0
 1165 0008 2D48     		ldr	r0, .L182
 1166 000a FFF7FEFF 		bl	UART_TIMER_ISR_StartEx
 1167              	.LVL119:
 549:main.c        ****     Tamper_Timer_Start();
 1168              		.loc 1 549 0
 1169 000e FFF7FEFF 		bl	Tamper_Timer_Start
 1170              	.LVL120:
 550:main.c        ****     Tamper_Timer_ISR_StartEx(Tamper_Timer_ISR_Interrupt);
 1171              		.loc 1 550 0
 1172 0012 2C48     		ldr	r0, .L182+4
 1173 0014 FFF7FEFF 		bl	Tamper_Timer_ISR_StartEx
 1174              	.LVL121:
 551:main.c        ****     Timeout_Timer_Start();
 1175              		.loc 1 551 0
 1176 0018 FFF7FEFF 		bl	Timeout_Timer_Start
 1177              	.LVL122:
 552:main.c        ****     Timeout_Timer_Isr_StartEx(Timeout_Timer_Isr_Interrupt);
 1178              		.loc 1 552 0
 1179 001c 2A48     		ldr	r0, .L182+8
 1180 001e FFF7FEFF 		bl	Timeout_Timer_Isr_StartEx
 1181              	.LVL123:
 553:main.c        **** 
 554:main.c        ****     /*Wiegand*/
 555:main.c        ****     Pulse_50us_Init();
 1182              		.loc 1 555 0
 1183 0022 FFF7FEFF 		bl	Pulse_50us_Init
 1184              	.LVL124:
 556:main.c        ****     isr_50us_StartEx(Pin_50us_Reset);
 1185              		.loc 1 556 0
 1186 0026 2948     		ldr	r0, .L182+12
 1187 0028 FFF7FEFF 		bl	isr_50us_StartEx
 1188              	.LVL125:
 557:main.c        **** 
 558:main.c        ****     /*F2F*/
 559:main.c        ****     isr_F2F_edge_StartEx(isr_F2F_edge_Interrupt);
 1189              		.loc 1 559 0
 1190 002c 2848     		ldr	r0, .L182+16
 1191 002e FFF7FEFF 		bl	isr_F2F_edge_StartEx
 1192              	.LVL126:
 560:main.c        ****     
 561:main.c        **** 	/* Starting EZI2C */
 562:main.c        **** 	EZI2Cs_Start();
 1193              		.loc 1 562 0
 1194 0032 FFF7FEFF 		bl	EZI2Cs_Start
 1195              	.LVL127:
 563:main.c        ****     EZI2Cs_SetBuffer1(sizeof(MyI2C_Regs), sizeof(MyI2C_Regs), (volatile uint8 *) &MyI2C_Regs );
 1196              		.loc 1 563 0
 1197 0036 41F6D400 		movw	r0, #6356
 1198 003a 264E     		ldr	r6, .L182+20
 1199 003c 0146     		mov	r1, r0
 1200 003e 3246     		mov	r2, r6
 1201 0040 FFF7FEFF 		bl	EZI2Cs_SetBuffer1
 1202              	.LVL128:
ARM GAS  C:\Users\yqh\AppData\Local\Temp\ccbw8f9k.s 			page 34


 564:main.c        ****     
 565:main.c        ****     /* Starting UART for PAC & HID */
 566:main.c        ****     UART_1_Start();
 1203              		.loc 1 566 0
 1204 0044 FFF7FEFF 		bl	UART_1_Start
 1205              	.LVL129:
 567:main.c        ****     SU_Start(&s,1,PARITY_EVEN,1);
 1206              		.loc 1 567 0
 1207 0048 0121     		movs	r1, #1
 1208 004a 0B46     		mov	r3, r1
 1209 004c 0222     		movs	r2, #2
 1210 004e 2248     		ldr	r0, .L182+24
 1211 0050 FFF7FEFF 		bl	SU_Start
 1212              	.LVL130:
 568:main.c        ****     
 569:main.c        ****     /* Turning off both LEDS */
 570:main.c        ****     LED_GRN_Write(OFF); // LED for signaling Output
 1213              		.loc 1 570 0
 1214 0054 0120     		movs	r0, #1
 1215 0056 FFF7FEFF 		bl	LED_GRN_Write
 1216              	.LVL131:
 571:main.c        ****     LED_YEL_Write(OFF); // LED for signaling Input
 1217              		.loc 1 571 0
 1218 005a 0120     		movs	r0, #1
 1219 005c FFF7FEFF 		bl	LED_YEL_Write
 1220              	.LVL132:
 572:main.c        ****     LED_RED_Write(OFF); // turn off tamper LED
 1221              		.loc 1 572 0
 1222 0060 0120     		movs	r0, #1
 573:main.c        ****     
 574:main.c        ****     /* Intializing the I2C Reg value */
 575:main.c        ****     MyI2C_Regs.factory_reset = 0;
 1223              		.loc 1 575 0
 1224 0062 0024     		movs	r4, #0
 572:main.c        ****     LED_RED_Write(OFF); // turn off tamper LED
 1225              		.loc 1 572 0
 1226 0064 FFF7FEFF 		bl	LED_RED_Write
 1227              	.LVL133:
 576:main.c        ****     SetHardwareVals(TAMPERCR_POL);  // TAMPER_POL defaulted to 1 (normal config with active tamper 
 1228              		.loc 1 576 0
 1229 0068 0820     		movs	r0, #8
 575:main.c        ****     SetHardwareVals(TAMPERCR_POL);  // TAMPER_POL defaulted to 1 (normal config with active tamper 
 1230              		.loc 1 575 0
 1231 006a B471     		strb	r4, [r6, #6]
 1232              		.loc 1 576 0
 1233 006c FFF7FEFF 		bl	SetHardwareVals
 1234              	.LVL134:
 577:main.c        ****     
 578:main.c        ****     SetVersion();
 1235              		.loc 1 578 0
 1236 0070 FFF7FEFF 		bl	SetVersion
 1237              	.LVL135:
 579:main.c        ****     
 580:main.c        ****     // initialize card reader tamper polarity bit:  1=normal
 581:main.c        ****     // This is only for TEST and must be set by webconfig/motherboard.
 582:main.c        ****     // tamperCR_polarity = 1;
 583:main.c        ****     hw_old = 0;
ARM GAS  C:\Users\yqh\AppData\Local\Temp\ccbw8f9k.s 			page 35


 1238              		.loc 1 583 0
 1239 0074 194B     		ldr	r3, .L182+28
 584:main.c        ****     tp_old = 0;
 585:main.c        ****     TOC_port_init = 0;
 586:main.c        ****     card_ack = 0;
 1240              		.loc 1 586 0
 1241 0076 1A4D     		ldr	r5, .L182+32
 583:main.c        ****     tp_old = 0;
 1242              		.loc 1 583 0
 1243 0078 1C70     		strb	r4, [r3]
 584:main.c        ****     tp_old = 0;
 1244              		.loc 1 584 0
 1245 007a 1A4B     		ldr	r3, .L182+36
 1246              		.loc 1 586 0
 1247 007c 2C60     		str	r4, [r5]
 584:main.c        ****     tp_old = 0;
 1248              		.loc 1 584 0
 1249 007e 1C70     		strb	r4, [r3]
 585:main.c        ****     card_ack = 0;
 1250              		.loc 1 585 0
 1251 0080 194B     		ldr	r3, .L182+40
 1252 0082 1C70     		strb	r4, [r3]
 587:main.c        ****     
 588:main.c        ****     InitOSDP();
 1253              		.loc 1 588 0
 1254 0084 FFF7FEFF 		bl	InitOSDP
 1255              	.LVL136:
 589:main.c        ****     
 590:main.c        ****     /* push button */
 591:main.c        ****     buttonPressed=0;
 1256              		.loc 1 591 0
 1257 0088 184B     		ldr	r3, .L182+44
 1258 008a 1C70     		strb	r4, [r3]
 592:main.c        ****     buttonReleased=0;
 1259              		.loc 1 592 0
 1260 008c 184B     		ldr	r3, .L182+48
 1261 008e 1C70     		strb	r4, [r3]
 593:main.c        ****     buttonDuration=0;
 1262              		.loc 1 593 0
 1263 0090 184B     		ldr	r3, .L182+52
 1264 0092 1C60     		str	r4, [r3]
 594:main.c        ****     isr_SW_Rst_Start(); 
 1265              		.loc 1 594 0
 1266 0094 FFF7FEFF 		bl	isr_SW_Rst_Start
 1267              	.LVL137:
 1268              	.L176:
 595:main.c        ****     
 596:main.c        ****     while(1)
 597:main.c        ****     {
 598:main.c        ****         HandleCommand();
 1269              		.loc 1 598 0
 1270 0098 FFF7FEFF 		bl	HandleCommand
 1271              	.LVL138:
 599:main.c        ****         if (card_in_buf == 1)  // card read requires ack from motherboard
 1272              		.loc 1 599 0
 1273 009c 164B     		ldr	r3, .L182+56
 1274 009e 1B68     		ldr	r3, [r3]
ARM GAS  C:\Users\yqh\AppData\Local\Temp\ccbw8f9k.s 			page 36


 1275 00a0 012B     		cmp	r3, #1
 1276 00a2 F9D1     		bne	.L176
 1277 00a4 6424     		movs	r4, #100
 1278              	.L175:
 1279              	.LVL139:
 600:main.c        ****         {
 601:main.c        ****             ack_time_cnt = 0;
 602:main.c        ****             while (card_ack == 0)   // waiting for card read acknowledge here
 1280              		.loc 1 602 0
 1281 00a6 2B68     		ldr	r3, [r5]
 1282 00a8 002B     		cmp	r3, #0
 1283 00aa F5D1     		bne	.L176
 603:main.c        ****             {
 604:main.c        ****                 CyDelay(10);    //
 1284              		.loc 1 604 0
 1285 00ac 0A20     		movs	r0, #10
 1286 00ae FFF7FEFF 		bl	CyDelay
 1287              	.LVL140:
 605:main.c        ****                 ack_time_cnt++;  // increment time counter every 10ms while waiting for ack
 606:main.c        ****                 if (ack_time_cnt >= 100)    //  re-notify and break.
 1288              		.loc 1 606 0
 1289 00b2 013C     		subs	r4, r4, #1
 1290              	.LVL141:
 1291 00b4 F7D1     		bne	.L175
 607:main.c        ****                 {
 608:main.c        ****                     MyI2C_Regs.status_out |= STAT_CHANGE | STAT_CARD_IN ;   // if timeout, set stat
 1292              		.loc 1 608 0
 1293 00b6 3378     		ldrb	r3, [r6]	@ zero_extendqisi2
 1294 00b8 43F00303 		orr	r3, r3, #3
 1295 00bc 3370     		strb	r3, [r6]
 609:main.c        ****                     break;
 1296              		.loc 1 609 0
 1297 00be EBE7     		b	.L176
 1298              	.L183:
 1299              		.align	2
 1300              	.L182:
 1301 00c0 00000000 		.word	UART_TIMER_ISR_Interrupt
 1302 00c4 00000000 		.word	Tamper_Timer_ISR_Interrupt
 1303 00c8 00000000 		.word	Timeout_Timer_Isr_Interrupt
 1304 00cc 00000000 		.word	Pin_50us_Reset
 1305 00d0 00000000 		.word	isr_F2F_edge_Interrupt
 1306 00d4 00000000 		.word	MyI2C_Regs
 1307 00d8 00000000 		.word	s
 1308 00dc 00000000 		.word	hw_old
 1309 00e0 00000000 		.word	card_ack
 1310 00e4 00000000 		.word	tp_old
 1311 00e8 00000000 		.word	TOC_port_init
 1312 00ec 00000000 		.word	buttonPressed
 1313 00f0 00000000 		.word	buttonReleased
 1314 00f4 00000000 		.word	buttonDuration
 1315 00f8 00000000 		.word	card_in_buf
 1316              		.cfi_endproc
 1317              	.LFE72:
 1318              		.size	main, .-main
 1319              		.comm	debug_msg_delay,4,4
 1320              		.global	sendDebugMsg
 1321              		.comm	TOC_port_init,1,1
ARM GAS  C:\Users\yqh\AppData\Local\Temp\ccbw8f9k.s 			page 37


 1322              		.global	f2f_alive_message
 1323              		.comm	passmode_timeout,4,4
 1324              		.comm	run_mode,1,1
 1325              		.comm	MyI2C_Regs,6356,1
 1326              		.comm	card_in_buf,4,4
 1327              		.comm	card_ack,4,4
 1328              		.comm	tamper_out_polarity,4,4
 1329              		.comm	tamperCR_polarity,4,4
 1330              		.comm	tp_old,1,1
 1331              		.comm	hw_old,1,1
 1332              		.comm	currentAccessType,1,1
 1333              		.comm	s,40,4
 1334              		.data
 1335              		.set	.LANCHOR0,. + 0
 1336              		.type	f2f_alive_message, %object
 1337              		.size	f2f_alive_message, 9
 1338              	f2f_alive_message:
 1339 0000 00       		.byte	0
 1340 0001 34       		.byte	52
 1341 0002 E3       		.byte	-29
 1342 0003 FD       		.byte	-3
 1343 0004 A0       		.byte	-96
 1344 0005 00       		.byte	0
 1345 0006 00       		.byte	0
 1346 0007 00       		.byte	0
 1347 0008 00       		.byte	0
 1348              		.bss
 1349              		.type	sendDebugMsg, %object
 1350              		.size	sendDebugMsg, 1
 1351              	sendDebugMsg:
 1352 0000 00       		.space	1
 1353              		.text
 1354              	.Letext0:
 1355              		.file 2 "c:\\program files (x86)\\cypress\\psoc creator\\4.0\\psoc creator\\import\\gnu\\arm\\4.9.
 1356              		.file 3 "c:\\program files (x86)\\cypress\\psoc creator\\4.0\\psoc creator\\import\\gnu\\arm\\4.9.
 1357              		.file 4 "Generated_Source\\PSoC5/cytypes.h"
 1358              		.file 5 "softuart.h"
 1359              		.file 6 "system.h"
 1360              		.file 7 "Generated_Source\\PSoC5/core_cm3.h"
 1361              		.file 8 "toc.h"
 1362              		.file 9 "Generated_Source\\PSoC5/CyLib.h"
 1363              		.file 10 "Generated_Source\\PSoC5/Clock_5.h"
 1364              		.file 11 "Generated_Source\\PSoC5/Mode_Sel_ACS.h"
 1365              		.file 12 "Generated_Source\\PSoC5/TX_EN.h"
 1366              		.file 13 "Generated_Source\\PSoC5/UART_ACS.h"
 1367              		.file 14 "Generated_Source\\PSoC5/Tamper_Timer.h"
 1368              		.file 15 "osdp.h"
 1369              		.file 16 "Generated_Source\\PSoC5/Clock_6.h"
 1370              		.file 17 "Generated_Source\\PSoC5/UART_READER.h"
 1371              		.file 18 "Generated_Source\\PSoC5/isr_keepalive.h"
 1372              		.file 19 "Generated_Source\\PSoC5/OSDPReaderTimer.h"
 1373              		.file 20 "Generated_Source\\PSoC5/LED_RED.h"
 1374              		.file 21 "f2f.h"
 1375              		.file 22 "Generated_Source\\PSoC5/Tamper_Timer_ISR.h"
 1376              		.file 23 "Generated_Source\\PSoC5/LED_GRN.h"
 1377              		.file 24 "i2cuart.h"
 1378              		.file 25 "wiegand.h"
ARM GAS  C:\Users\yqh\AppData\Local\Temp\ccbw8f9k.s 			page 38


 1379              		.file 26 "Generated_Source\\PSoC5/BootloadableI2C.h"
 1380              		.file 27 "Generated_Source\\PSoC5/OptSelect.h"
 1381              		.file 28 "Generated_Source\\PSoC5/LED_YEL.h"
 1382              		.file 29 "Generated_Source\\PSoC5/UART_TIMER.h"
 1383              		.file 30 "Generated_Source\\PSoC5/UART_TIMER_ISR.h"
 1384              		.file 31 "Generated_Source\\PSoC5/Timeout_Timer.h"
 1385              		.file 32 "Generated_Source\\PSoC5/Timeout_Timer_Isr.h"
 1386              		.file 33 "Generated_Source\\PSoC5/Pulse_50us.h"
 1387              		.file 34 "Generated_Source\\PSoC5/isr_50us.h"
 1388              		.file 35 "Generated_Source\\PSoC5/isr_F2F_edge.h"
 1389              		.file 36 "Generated_Source\\PSoC5/EZI2Cs.h"
 1390              		.file 37 "Generated_Source\\PSoC5/UART_1.h"
 1391              		.file 38 "inout.h"
 1392              		.file 39 "Generated_Source\\PSoC5/isr_SW_Rst.h"