ARM GAS  C:\Users\yqh\AppData\Local\Temp\ccoq5ygk.s 			page 1


   1              		.syntax unified
   2              		.cpu cortex-m3
   3              		.fpu softvfp
   4              		.eabi_attribute 20, 1
   5              		.eabi_attribute 21, 1
   6              		.eabi_attribute 23, 3
   7              		.eabi_attribute 24, 1
   8              		.eabi_attribute 25, 1
   9              		.eabi_attribute 26, 1
  10              		.eabi_attribute 30, 4
  11              		.eabi_attribute 34, 1
  12              		.eabi_attribute 18, 4
  13              		.thumb
  14              		.file	"UART_TIMER_ISR.c"
  15              		.text
  16              	.Ltext0:
  17              		.cfi_sections	.debug_frame
  18              		.section	.text.UART_TIMER_ISR_Interrupt,"ax",%progbits
  19              		.align	1
  20              		.global	UART_TIMER_ISR_Interrupt
  21              		.thumb
  22              		.thumb_func
  23              		.type	UART_TIMER_ISR_Interrupt, %function
  24              	UART_TIMER_ISR_Interrupt:
  25              	.LFB66:
  26              		.file 1 "Generated_Source\\PSoC5\\UART_TIMER_ISR.c"
   1:Generated_Source\PSoC5/UART_TIMER_ISR.c **** /*******************************************************************************
   2:Generated_Source\PSoC5/UART_TIMER_ISR.c **** * File Name: UART_TIMER_ISR.c  
   3:Generated_Source\PSoC5/UART_TIMER_ISR.c **** * Version 1.70
   4:Generated_Source\PSoC5/UART_TIMER_ISR.c **** *
   5:Generated_Source\PSoC5/UART_TIMER_ISR.c **** *  Description:
   6:Generated_Source\PSoC5/UART_TIMER_ISR.c **** *   API for controlling the state of an interrupt.
   7:Generated_Source\PSoC5/UART_TIMER_ISR.c **** *
   8:Generated_Source\PSoC5/UART_TIMER_ISR.c **** *
   9:Generated_Source\PSoC5/UART_TIMER_ISR.c **** *  Note:
  10:Generated_Source\PSoC5/UART_TIMER_ISR.c **** *
  11:Generated_Source\PSoC5/UART_TIMER_ISR.c **** ********************************************************************************
  12:Generated_Source\PSoC5/UART_TIMER_ISR.c **** * Copyright 2008-2015, Cypress Semiconductor Corporation.  All rights reserved.
  13:Generated_Source\PSoC5/UART_TIMER_ISR.c **** * You may use this file only in accordance with the license, terms, conditions, 
  14:Generated_Source\PSoC5/UART_TIMER_ISR.c **** * disclaimers, and limitations in the end user license agreement accompanying 
  15:Generated_Source\PSoC5/UART_TIMER_ISR.c **** * the software package with which this file was provided.
  16:Generated_Source\PSoC5/UART_TIMER_ISR.c **** *******************************************************************************/
  17:Generated_Source\PSoC5/UART_TIMER_ISR.c **** 
  18:Generated_Source\PSoC5/UART_TIMER_ISR.c **** 
  19:Generated_Source\PSoC5/UART_TIMER_ISR.c **** #include <cydevice_trm.h>
  20:Generated_Source\PSoC5/UART_TIMER_ISR.c **** #include <CyLib.h>
  21:Generated_Source\PSoC5/UART_TIMER_ISR.c **** #include <UART_TIMER_ISR.h>
  22:Generated_Source\PSoC5/UART_TIMER_ISR.c **** 
  23:Generated_Source\PSoC5/UART_TIMER_ISR.c **** 
  24:Generated_Source\PSoC5/UART_TIMER_ISR.c **** #if !defined(UART_TIMER_ISR__REMOVED) /* Check for removal by optimization */
  25:Generated_Source\PSoC5/UART_TIMER_ISR.c **** 
  26:Generated_Source\PSoC5/UART_TIMER_ISR.c **** /*******************************************************************************
  27:Generated_Source\PSoC5/UART_TIMER_ISR.c **** *  Place your includes, defines and code here 
  28:Generated_Source\PSoC5/UART_TIMER_ISR.c **** ********************************************************************************/
  29:Generated_Source\PSoC5/UART_TIMER_ISR.c **** /* `#START UART_TIMER_ISR_intc` */
  30:Generated_Source\PSoC5/UART_TIMER_ISR.c **** #include "UART_TIMER.h"
  31:Generated_Source\PSoC5/UART_TIMER_ISR.c **** #include "system.h"   
ARM GAS  C:\Users\yqh\AppData\Local\Temp\ccoq5ygk.s 			page 2


  32:Generated_Source\PSoC5/UART_TIMER_ISR.c **** /* `#END` */
  33:Generated_Source\PSoC5/UART_TIMER_ISR.c **** 
  34:Generated_Source\PSoC5/UART_TIMER_ISR.c **** #ifndef CYINT_IRQ_BASE
  35:Generated_Source\PSoC5/UART_TIMER_ISR.c **** #define CYINT_IRQ_BASE      16
  36:Generated_Source\PSoC5/UART_TIMER_ISR.c **** #endif /* CYINT_IRQ_BASE */
  37:Generated_Source\PSoC5/UART_TIMER_ISR.c **** #ifndef CYINT_VECT_TABLE
  38:Generated_Source\PSoC5/UART_TIMER_ISR.c **** #define CYINT_VECT_TABLE    ((cyisraddress **) CYREG_NVIC_VECT_OFFSET)
  39:Generated_Source\PSoC5/UART_TIMER_ISR.c **** #endif /* CYINT_VECT_TABLE */
  40:Generated_Source\PSoC5/UART_TIMER_ISR.c **** 
  41:Generated_Source\PSoC5/UART_TIMER_ISR.c **** /* Declared in startup, used to set unused interrupts to. */
  42:Generated_Source\PSoC5/UART_TIMER_ISR.c **** CY_ISR_PROTO(IntDefaultHandler);
  43:Generated_Source\PSoC5/UART_TIMER_ISR.c **** 
  44:Generated_Source\PSoC5/UART_TIMER_ISR.c **** 
  45:Generated_Source\PSoC5/UART_TIMER_ISR.c **** /*******************************************************************************
  46:Generated_Source\PSoC5/UART_TIMER_ISR.c **** * Function Name: UART_TIMER_ISR_Start
  47:Generated_Source\PSoC5/UART_TIMER_ISR.c **** ********************************************************************************
  48:Generated_Source\PSoC5/UART_TIMER_ISR.c **** *
  49:Generated_Source\PSoC5/UART_TIMER_ISR.c **** * Summary:
  50:Generated_Source\PSoC5/UART_TIMER_ISR.c **** *  Set up the interrupt and enable it. This function disables the interrupt, 
  51:Generated_Source\PSoC5/UART_TIMER_ISR.c **** *  sets the default interrupt vector, sets the priority from the value in the
  52:Generated_Source\PSoC5/UART_TIMER_ISR.c **** *  Design Wide Resources Interrupt Editor, then enables the interrupt to the 
  53:Generated_Source\PSoC5/UART_TIMER_ISR.c **** *  interrupt controller.
  54:Generated_Source\PSoC5/UART_TIMER_ISR.c **** *
  55:Generated_Source\PSoC5/UART_TIMER_ISR.c **** * Parameters:  
  56:Generated_Source\PSoC5/UART_TIMER_ISR.c **** *   None
  57:Generated_Source\PSoC5/UART_TIMER_ISR.c **** *
  58:Generated_Source\PSoC5/UART_TIMER_ISR.c **** * Return:
  59:Generated_Source\PSoC5/UART_TIMER_ISR.c **** *   None
  60:Generated_Source\PSoC5/UART_TIMER_ISR.c **** *
  61:Generated_Source\PSoC5/UART_TIMER_ISR.c **** *******************************************************************************/
  62:Generated_Source\PSoC5/UART_TIMER_ISR.c **** void UART_TIMER_ISR_Start(void)
  63:Generated_Source\PSoC5/UART_TIMER_ISR.c **** {
  64:Generated_Source\PSoC5/UART_TIMER_ISR.c ****     /* For all we know the interrupt is active. */
  65:Generated_Source\PSoC5/UART_TIMER_ISR.c ****     UART_TIMER_ISR_Disable();
  66:Generated_Source\PSoC5/UART_TIMER_ISR.c **** 
  67:Generated_Source\PSoC5/UART_TIMER_ISR.c ****     /* Set the ISR to point to the UART_TIMER_ISR Interrupt. */
  68:Generated_Source\PSoC5/UART_TIMER_ISR.c ****     UART_TIMER_ISR_SetVector(&UART_TIMER_ISR_Interrupt);
  69:Generated_Source\PSoC5/UART_TIMER_ISR.c **** 
  70:Generated_Source\PSoC5/UART_TIMER_ISR.c ****     /* Set the priority. */
  71:Generated_Source\PSoC5/UART_TIMER_ISR.c ****     UART_TIMER_ISR_SetPriority((uint8)UART_TIMER_ISR_INTC_PRIOR_NUMBER);
  72:Generated_Source\PSoC5/UART_TIMER_ISR.c **** 
  73:Generated_Source\PSoC5/UART_TIMER_ISR.c ****     /* Enable it. */
  74:Generated_Source\PSoC5/UART_TIMER_ISR.c ****     UART_TIMER_ISR_Enable();
  75:Generated_Source\PSoC5/UART_TIMER_ISR.c **** }
  76:Generated_Source\PSoC5/UART_TIMER_ISR.c **** 
  77:Generated_Source\PSoC5/UART_TIMER_ISR.c **** 
  78:Generated_Source\PSoC5/UART_TIMER_ISR.c **** /*******************************************************************************
  79:Generated_Source\PSoC5/UART_TIMER_ISR.c **** * Function Name: UART_TIMER_ISR_StartEx
  80:Generated_Source\PSoC5/UART_TIMER_ISR.c **** ********************************************************************************
  81:Generated_Source\PSoC5/UART_TIMER_ISR.c **** *
  82:Generated_Source\PSoC5/UART_TIMER_ISR.c **** * Summary:
  83:Generated_Source\PSoC5/UART_TIMER_ISR.c **** *  Sets up the interrupt and enables it. This function disables the interrupt,
  84:Generated_Source\PSoC5/UART_TIMER_ISR.c **** *  sets the interrupt vector based on the address passed in, sets the priority 
  85:Generated_Source\PSoC5/UART_TIMER_ISR.c **** *  from the value in the Design Wide Resources Interrupt Editor, then enables 
  86:Generated_Source\PSoC5/UART_TIMER_ISR.c **** *  the interrupt to the interrupt controller.
  87:Generated_Source\PSoC5/UART_TIMER_ISR.c **** *  
  88:Generated_Source\PSoC5/UART_TIMER_ISR.c **** *  When defining ISR functions, the CY_ISR and CY_ISR_PROTO macros should be 
ARM GAS  C:\Users\yqh\AppData\Local\Temp\ccoq5ygk.s 			page 3


  89:Generated_Source\PSoC5/UART_TIMER_ISR.c **** *  used to provide consistent definition across compilers:
  90:Generated_Source\PSoC5/UART_TIMER_ISR.c **** *  
  91:Generated_Source\PSoC5/UART_TIMER_ISR.c **** *  Function definition example:
  92:Generated_Source\PSoC5/UART_TIMER_ISR.c **** *   CY_ISR(MyISR)
  93:Generated_Source\PSoC5/UART_TIMER_ISR.c **** *   {
  94:Generated_Source\PSoC5/UART_TIMER_ISR.c **** *   }
  95:Generated_Source\PSoC5/UART_TIMER_ISR.c **** *   Function prototype example:
  96:Generated_Source\PSoC5/UART_TIMER_ISR.c **** *   CY_ISR_PROTO(MyISR);
  97:Generated_Source\PSoC5/UART_TIMER_ISR.c **** *
  98:Generated_Source\PSoC5/UART_TIMER_ISR.c **** * Parameters:  
  99:Generated_Source\PSoC5/UART_TIMER_ISR.c **** *   address: Address of the ISR to set in the interrupt vector table.
 100:Generated_Source\PSoC5/UART_TIMER_ISR.c **** *
 101:Generated_Source\PSoC5/UART_TIMER_ISR.c **** * Return:
 102:Generated_Source\PSoC5/UART_TIMER_ISR.c **** *   None
 103:Generated_Source\PSoC5/UART_TIMER_ISR.c **** *
 104:Generated_Source\PSoC5/UART_TIMER_ISR.c **** *******************************************************************************/
 105:Generated_Source\PSoC5/UART_TIMER_ISR.c **** void UART_TIMER_ISR_StartEx(cyisraddress address)
 106:Generated_Source\PSoC5/UART_TIMER_ISR.c **** {
 107:Generated_Source\PSoC5/UART_TIMER_ISR.c ****     /* For all we know the interrupt is active. */
 108:Generated_Source\PSoC5/UART_TIMER_ISR.c ****     UART_TIMER_ISR_Disable();
 109:Generated_Source\PSoC5/UART_TIMER_ISR.c **** 
 110:Generated_Source\PSoC5/UART_TIMER_ISR.c ****     /* Set the ISR to point to the UART_TIMER_ISR Interrupt. */
 111:Generated_Source\PSoC5/UART_TIMER_ISR.c ****     UART_TIMER_ISR_SetVector(address);
 112:Generated_Source\PSoC5/UART_TIMER_ISR.c **** 
 113:Generated_Source\PSoC5/UART_TIMER_ISR.c ****     /* Set the priority. */
 114:Generated_Source\PSoC5/UART_TIMER_ISR.c ****     UART_TIMER_ISR_SetPriority((uint8)UART_TIMER_ISR_INTC_PRIOR_NUMBER);
 115:Generated_Source\PSoC5/UART_TIMER_ISR.c **** 
 116:Generated_Source\PSoC5/UART_TIMER_ISR.c ****     /* Enable it. */
 117:Generated_Source\PSoC5/UART_TIMER_ISR.c ****     UART_TIMER_ISR_Enable();
 118:Generated_Source\PSoC5/UART_TIMER_ISR.c **** }
 119:Generated_Source\PSoC5/UART_TIMER_ISR.c **** 
 120:Generated_Source\PSoC5/UART_TIMER_ISR.c **** 
 121:Generated_Source\PSoC5/UART_TIMER_ISR.c **** /*******************************************************************************
 122:Generated_Source\PSoC5/UART_TIMER_ISR.c **** * Function Name: UART_TIMER_ISR_Stop
 123:Generated_Source\PSoC5/UART_TIMER_ISR.c **** ********************************************************************************
 124:Generated_Source\PSoC5/UART_TIMER_ISR.c **** *
 125:Generated_Source\PSoC5/UART_TIMER_ISR.c **** * Summary:
 126:Generated_Source\PSoC5/UART_TIMER_ISR.c **** *   Disables and removes the interrupt.
 127:Generated_Source\PSoC5/UART_TIMER_ISR.c **** *
 128:Generated_Source\PSoC5/UART_TIMER_ISR.c **** * Parameters:  
 129:Generated_Source\PSoC5/UART_TIMER_ISR.c **** *   None
 130:Generated_Source\PSoC5/UART_TIMER_ISR.c **** *
 131:Generated_Source\PSoC5/UART_TIMER_ISR.c **** * Return:
 132:Generated_Source\PSoC5/UART_TIMER_ISR.c **** *   None
 133:Generated_Source\PSoC5/UART_TIMER_ISR.c **** *
 134:Generated_Source\PSoC5/UART_TIMER_ISR.c **** *******************************************************************************/
 135:Generated_Source\PSoC5/UART_TIMER_ISR.c **** void UART_TIMER_ISR_Stop(void)
 136:Generated_Source\PSoC5/UART_TIMER_ISR.c **** {
 137:Generated_Source\PSoC5/UART_TIMER_ISR.c ****     /* Disable this interrupt. */
 138:Generated_Source\PSoC5/UART_TIMER_ISR.c ****     UART_TIMER_ISR_Disable();
 139:Generated_Source\PSoC5/UART_TIMER_ISR.c **** 
 140:Generated_Source\PSoC5/UART_TIMER_ISR.c ****     /* Set the ISR to point to the passive one. */
 141:Generated_Source\PSoC5/UART_TIMER_ISR.c ****     UART_TIMER_ISR_SetVector(&IntDefaultHandler);
 142:Generated_Source\PSoC5/UART_TIMER_ISR.c **** }
 143:Generated_Source\PSoC5/UART_TIMER_ISR.c **** 
 144:Generated_Source\PSoC5/UART_TIMER_ISR.c **** 
 145:Generated_Source\PSoC5/UART_TIMER_ISR.c **** /*******************************************************************************
ARM GAS  C:\Users\yqh\AppData\Local\Temp\ccoq5ygk.s 			page 4


 146:Generated_Source\PSoC5/UART_TIMER_ISR.c **** * Function Name: UART_TIMER_ISR_Interrupt
 147:Generated_Source\PSoC5/UART_TIMER_ISR.c **** ********************************************************************************
 148:Generated_Source\PSoC5/UART_TIMER_ISR.c **** *
 149:Generated_Source\PSoC5/UART_TIMER_ISR.c **** * Summary:
 150:Generated_Source\PSoC5/UART_TIMER_ISR.c **** *   The default Interrupt Service Routine for UART_TIMER_ISR.
 151:Generated_Source\PSoC5/UART_TIMER_ISR.c **** *
 152:Generated_Source\PSoC5/UART_TIMER_ISR.c **** *   Add custom code between the coments to keep the next version of this file
 153:Generated_Source\PSoC5/UART_TIMER_ISR.c **** *   from over writting your code.
 154:Generated_Source\PSoC5/UART_TIMER_ISR.c **** *
 155:Generated_Source\PSoC5/UART_TIMER_ISR.c **** * Parameters:  
 156:Generated_Source\PSoC5/UART_TIMER_ISR.c **** *
 157:Generated_Source\PSoC5/UART_TIMER_ISR.c **** * Return:
 158:Generated_Source\PSoC5/UART_TIMER_ISR.c **** *   None
 159:Generated_Source\PSoC5/UART_TIMER_ISR.c **** *
 160:Generated_Source\PSoC5/UART_TIMER_ISR.c **** *******************************************************************************/
 161:Generated_Source\PSoC5/UART_TIMER_ISR.c **** CY_ISR(UART_TIMER_ISR_Interrupt)
 162:Generated_Source\PSoC5/UART_TIMER_ISR.c **** {
  27              		.loc 1 162 0
  28              		.cfi_startproc
  29              		@ args = 0, pretend = 0, frame = 0
  30              		@ frame_needed = 0, uses_anonymous_args = 0
  31 0000 08B5     		push	{r3, lr}
  32              		.cfi_def_cfa_offset 8
  33              		.cfi_offset 3, -8
  34              		.cfi_offset 14, -4
 163:Generated_Source\PSoC5/UART_TIMER_ISR.c ****     #ifdef UART_TIMER_ISR_INTERRUPT_INTERRUPT_CALLBACK
 164:Generated_Source\PSoC5/UART_TIMER_ISR.c ****         UART_TIMER_ISR_Interrupt_InterruptCallback();
 165:Generated_Source\PSoC5/UART_TIMER_ISR.c ****     #endif /* UART_TIMER_ISR_INTERRUPT_INTERRUPT_CALLBACK */ 
 166:Generated_Source\PSoC5/UART_TIMER_ISR.c **** 
 167:Generated_Source\PSoC5/UART_TIMER_ISR.c ****     /*  Place your Interrupt code here. */
 168:Generated_Source\PSoC5/UART_TIMER_ISR.c ****     /* `#START UART_TIMER_ISR_Interrupt` */
 169:Generated_Source\PSoC5/UART_TIMER_ISR.c ****     SU_Isr(&s);
  35              		.loc 1 169 0
  36 0002 0348     		ldr	r0, .L2
  37 0004 FFF7FEFF 		bl	SU_Isr
  38              	.LVL0:
 170:Generated_Source\PSoC5/UART_TIMER_ISR.c ****     UART_TIMER_ReadStatusRegister();
 171:Generated_Source\PSoC5/UART_TIMER_ISR.c ****     /* `#END` */
 172:Generated_Source\PSoC5/UART_TIMER_ISR.c **** }
  39              		.loc 1 172 0
  40 0008 BDE80840 		pop	{r3, lr}
  41              		.cfi_restore 14
  42              		.cfi_restore 3
  43              		.cfi_def_cfa_offset 0
 170:Generated_Source\PSoC5/UART_TIMER_ISR.c ****     UART_TIMER_ReadStatusRegister();
  44              		.loc 1 170 0
  45 000c FFF7FEBF 		b	UART_TIMER_ReadStatusRegister
  46              	.LVL1:
  47              	.L3:
  48              		.align	2
  49              	.L2:
  50 0010 00000000 		.word	s
  51              		.cfi_endproc
  52              	.LFE66:
  53              		.size	UART_TIMER_ISR_Interrupt, .-UART_TIMER_ISR_Interrupt
  54              		.section	.text.UART_TIMER_ISR_Start,"ax",%progbits
  55              		.align	1
ARM GAS  C:\Users\yqh\AppData\Local\Temp\ccoq5ygk.s 			page 5


  56              		.global	UART_TIMER_ISR_Start
  57              		.thumb
  58              		.thumb_func
  59              		.type	UART_TIMER_ISR_Start, %function
  60              	UART_TIMER_ISR_Start:
  61              	.LFB63:
  63:Generated_Source\PSoC5/UART_TIMER_ISR.c ****     /* For all we know the interrupt is active. */
  62              		.loc 1 63 0
  63              		.cfi_startproc
  64              		@ args = 0, pretend = 0, frame = 0
  65              		@ frame_needed = 0, uses_anonymous_args = 0
  66              		@ link register save eliminated.
  67              	.LBB22:
  68              	.LBB23:
 173:Generated_Source\PSoC5/UART_TIMER_ISR.c **** 
 174:Generated_Source\PSoC5/UART_TIMER_ISR.c **** 
 175:Generated_Source\PSoC5/UART_TIMER_ISR.c **** /*******************************************************************************
 176:Generated_Source\PSoC5/UART_TIMER_ISR.c **** * Function Name: UART_TIMER_ISR_SetVector
 177:Generated_Source\PSoC5/UART_TIMER_ISR.c **** ********************************************************************************
 178:Generated_Source\PSoC5/UART_TIMER_ISR.c **** *
 179:Generated_Source\PSoC5/UART_TIMER_ISR.c **** * Summary:
 180:Generated_Source\PSoC5/UART_TIMER_ISR.c **** *   Change the ISR vector for the Interrupt. Note calling UART_TIMER_ISR_Start
 181:Generated_Source\PSoC5/UART_TIMER_ISR.c **** *   will override any effect this method would have had. To set the vector 
 182:Generated_Source\PSoC5/UART_TIMER_ISR.c **** *   before the component has been started use UART_TIMER_ISR_StartEx instead.
 183:Generated_Source\PSoC5/UART_TIMER_ISR.c **** * 
 184:Generated_Source\PSoC5/UART_TIMER_ISR.c **** *   When defining ISR functions, the CY_ISR and CY_ISR_PROTO macros should be 
 185:Generated_Source\PSoC5/UART_TIMER_ISR.c **** *   used to provide consistent definition across compilers:
 186:Generated_Source\PSoC5/UART_TIMER_ISR.c **** *
 187:Generated_Source\PSoC5/UART_TIMER_ISR.c **** *   Function definition example:
 188:Generated_Source\PSoC5/UART_TIMER_ISR.c **** *   CY_ISR(MyISR)
 189:Generated_Source\PSoC5/UART_TIMER_ISR.c **** *   {
 190:Generated_Source\PSoC5/UART_TIMER_ISR.c **** *   }
 191:Generated_Source\PSoC5/UART_TIMER_ISR.c **** *
 192:Generated_Source\PSoC5/UART_TIMER_ISR.c **** *   Function prototype example:
 193:Generated_Source\PSoC5/UART_TIMER_ISR.c **** *     CY_ISR_PROTO(MyISR);
 194:Generated_Source\PSoC5/UART_TIMER_ISR.c **** *
 195:Generated_Source\PSoC5/UART_TIMER_ISR.c **** * Parameters:
 196:Generated_Source\PSoC5/UART_TIMER_ISR.c **** *   address: Address of the ISR to set in the interrupt vector table.
 197:Generated_Source\PSoC5/UART_TIMER_ISR.c **** *
 198:Generated_Source\PSoC5/UART_TIMER_ISR.c **** * Return:
 199:Generated_Source\PSoC5/UART_TIMER_ISR.c **** *   None
 200:Generated_Source\PSoC5/UART_TIMER_ISR.c **** *
 201:Generated_Source\PSoC5/UART_TIMER_ISR.c **** *******************************************************************************/
 202:Generated_Source\PSoC5/UART_TIMER_ISR.c **** void UART_TIMER_ISR_SetVector(cyisraddress address)
 203:Generated_Source\PSoC5/UART_TIMER_ISR.c **** {
 204:Generated_Source\PSoC5/UART_TIMER_ISR.c ****     cyisraddress * ramVectorTable;
 205:Generated_Source\PSoC5/UART_TIMER_ISR.c **** 
 206:Generated_Source\PSoC5/UART_TIMER_ISR.c ****     ramVectorTable = (cyisraddress *) *CYINT_VECT_TABLE;
 207:Generated_Source\PSoC5/UART_TIMER_ISR.c **** 
 208:Generated_Source\PSoC5/UART_TIMER_ISR.c ****     ramVectorTable[CYINT_IRQ_BASE + (uint32)UART_TIMER_ISR__INTC_NUMBER] = address;
 209:Generated_Source\PSoC5/UART_TIMER_ISR.c **** }
 210:Generated_Source\PSoC5/UART_TIMER_ISR.c **** 
 211:Generated_Source\PSoC5/UART_TIMER_ISR.c **** 
 212:Generated_Source\PSoC5/UART_TIMER_ISR.c **** /*******************************************************************************
 213:Generated_Source\PSoC5/UART_TIMER_ISR.c **** * Function Name: UART_TIMER_ISR_GetVector
 214:Generated_Source\PSoC5/UART_TIMER_ISR.c **** ********************************************************************************
 215:Generated_Source\PSoC5/UART_TIMER_ISR.c **** *
ARM GAS  C:\Users\yqh\AppData\Local\Temp\ccoq5ygk.s 			page 6


 216:Generated_Source\PSoC5/UART_TIMER_ISR.c **** * Summary:
 217:Generated_Source\PSoC5/UART_TIMER_ISR.c **** *   Gets the "address" of the current ISR vector for the Interrupt.
 218:Generated_Source\PSoC5/UART_TIMER_ISR.c **** *
 219:Generated_Source\PSoC5/UART_TIMER_ISR.c **** * Parameters:
 220:Generated_Source\PSoC5/UART_TIMER_ISR.c **** *   None
 221:Generated_Source\PSoC5/UART_TIMER_ISR.c **** *
 222:Generated_Source\PSoC5/UART_TIMER_ISR.c **** * Return:
 223:Generated_Source\PSoC5/UART_TIMER_ISR.c **** *   Address of the ISR in the interrupt vector table.
 224:Generated_Source\PSoC5/UART_TIMER_ISR.c **** *
 225:Generated_Source\PSoC5/UART_TIMER_ISR.c **** *******************************************************************************/
 226:Generated_Source\PSoC5/UART_TIMER_ISR.c **** cyisraddress UART_TIMER_ISR_GetVector(void)
 227:Generated_Source\PSoC5/UART_TIMER_ISR.c **** {
 228:Generated_Source\PSoC5/UART_TIMER_ISR.c ****     cyisraddress * ramVectorTable;
 229:Generated_Source\PSoC5/UART_TIMER_ISR.c **** 
 230:Generated_Source\PSoC5/UART_TIMER_ISR.c ****     ramVectorTable = (cyisraddress *) *CYINT_VECT_TABLE;
 231:Generated_Source\PSoC5/UART_TIMER_ISR.c **** 
 232:Generated_Source\PSoC5/UART_TIMER_ISR.c ****     return ramVectorTable[CYINT_IRQ_BASE + (uint32)UART_TIMER_ISR__INTC_NUMBER];
 233:Generated_Source\PSoC5/UART_TIMER_ISR.c **** }
 234:Generated_Source\PSoC5/UART_TIMER_ISR.c **** 
 235:Generated_Source\PSoC5/UART_TIMER_ISR.c **** 
 236:Generated_Source\PSoC5/UART_TIMER_ISR.c **** /*******************************************************************************
 237:Generated_Source\PSoC5/UART_TIMER_ISR.c **** * Function Name: UART_TIMER_ISR_SetPriority
 238:Generated_Source\PSoC5/UART_TIMER_ISR.c **** ********************************************************************************
 239:Generated_Source\PSoC5/UART_TIMER_ISR.c **** *
 240:Generated_Source\PSoC5/UART_TIMER_ISR.c **** * Summary:
 241:Generated_Source\PSoC5/UART_TIMER_ISR.c **** *   Sets the Priority of the Interrupt. 
 242:Generated_Source\PSoC5/UART_TIMER_ISR.c **** *
 243:Generated_Source\PSoC5/UART_TIMER_ISR.c **** *   Note calling UART_TIMER_ISR_Start or UART_TIMER_ISR_StartEx will 
 244:Generated_Source\PSoC5/UART_TIMER_ISR.c **** *   override any effect this API would have had. This API should only be called
 245:Generated_Source\PSoC5/UART_TIMER_ISR.c **** *   after UART_TIMER_ISR_Start or UART_TIMER_ISR_StartEx has been called. 
 246:Generated_Source\PSoC5/UART_TIMER_ISR.c **** *   To set the initial priority for the component, use the Design-Wide Resources
 247:Generated_Source\PSoC5/UART_TIMER_ISR.c **** *   Interrupt Editor.
 248:Generated_Source\PSoC5/UART_TIMER_ISR.c **** *
 249:Generated_Source\PSoC5/UART_TIMER_ISR.c **** *   Note This API has no effect on Non-maskable interrupt NMI).
 250:Generated_Source\PSoC5/UART_TIMER_ISR.c **** *
 251:Generated_Source\PSoC5/UART_TIMER_ISR.c **** * Parameters:
 252:Generated_Source\PSoC5/UART_TIMER_ISR.c **** *   priority: Priority of the interrupt, 0 being the highest priority
 253:Generated_Source\PSoC5/UART_TIMER_ISR.c **** *             PSoC 3 and PSoC 5LP: Priority is from 0 to 7.
 254:Generated_Source\PSoC5/UART_TIMER_ISR.c **** *             PSoC 4: Priority is from 0 to 3.
 255:Generated_Source\PSoC5/UART_TIMER_ISR.c **** *
 256:Generated_Source\PSoC5/UART_TIMER_ISR.c **** * Return:
 257:Generated_Source\PSoC5/UART_TIMER_ISR.c **** *   None
 258:Generated_Source\PSoC5/UART_TIMER_ISR.c **** *
 259:Generated_Source\PSoC5/UART_TIMER_ISR.c **** *******************************************************************************/
 260:Generated_Source\PSoC5/UART_TIMER_ISR.c **** void UART_TIMER_ISR_SetPriority(uint8 priority)
 261:Generated_Source\PSoC5/UART_TIMER_ISR.c **** {
 262:Generated_Source\PSoC5/UART_TIMER_ISR.c ****     *UART_TIMER_ISR_INTC_PRIOR = priority << 5;
 263:Generated_Source\PSoC5/UART_TIMER_ISR.c **** }
 264:Generated_Source\PSoC5/UART_TIMER_ISR.c **** 
 265:Generated_Source\PSoC5/UART_TIMER_ISR.c **** 
 266:Generated_Source\PSoC5/UART_TIMER_ISR.c **** /*******************************************************************************
 267:Generated_Source\PSoC5/UART_TIMER_ISR.c **** * Function Name: UART_TIMER_ISR_GetPriority
 268:Generated_Source\PSoC5/UART_TIMER_ISR.c **** ********************************************************************************
 269:Generated_Source\PSoC5/UART_TIMER_ISR.c **** *
 270:Generated_Source\PSoC5/UART_TIMER_ISR.c **** * Summary:
 271:Generated_Source\PSoC5/UART_TIMER_ISR.c **** *   Gets the Priority of the Interrupt.
 272:Generated_Source\PSoC5/UART_TIMER_ISR.c **** *
ARM GAS  C:\Users\yqh\AppData\Local\Temp\ccoq5ygk.s 			page 7


 273:Generated_Source\PSoC5/UART_TIMER_ISR.c **** * Parameters:
 274:Generated_Source\PSoC5/UART_TIMER_ISR.c **** *   None
 275:Generated_Source\PSoC5/UART_TIMER_ISR.c **** *
 276:Generated_Source\PSoC5/UART_TIMER_ISR.c **** * Return:
 277:Generated_Source\PSoC5/UART_TIMER_ISR.c **** *   Priority of the interrupt, 0 being the highest priority
 278:Generated_Source\PSoC5/UART_TIMER_ISR.c **** *    PSoC 3 and PSoC 5LP: Priority is from 0 to 7.
 279:Generated_Source\PSoC5/UART_TIMER_ISR.c **** *    PSoC 4: Priority is from 0 to 3.
 280:Generated_Source\PSoC5/UART_TIMER_ISR.c **** *
 281:Generated_Source\PSoC5/UART_TIMER_ISR.c **** *******************************************************************************/
 282:Generated_Source\PSoC5/UART_TIMER_ISR.c **** uint8 UART_TIMER_ISR_GetPriority(void)
 283:Generated_Source\PSoC5/UART_TIMER_ISR.c **** {
 284:Generated_Source\PSoC5/UART_TIMER_ISR.c ****     uint8 priority;
 285:Generated_Source\PSoC5/UART_TIMER_ISR.c **** 
 286:Generated_Source\PSoC5/UART_TIMER_ISR.c **** 
 287:Generated_Source\PSoC5/UART_TIMER_ISR.c ****     priority = *UART_TIMER_ISR_INTC_PRIOR >> 5;
 288:Generated_Source\PSoC5/UART_TIMER_ISR.c **** 
 289:Generated_Source\PSoC5/UART_TIMER_ISR.c ****     return priority;
 290:Generated_Source\PSoC5/UART_TIMER_ISR.c **** }
 291:Generated_Source\PSoC5/UART_TIMER_ISR.c **** 
 292:Generated_Source\PSoC5/UART_TIMER_ISR.c **** 
 293:Generated_Source\PSoC5/UART_TIMER_ISR.c **** /*******************************************************************************
 294:Generated_Source\PSoC5/UART_TIMER_ISR.c **** * Function Name: UART_TIMER_ISR_Enable
 295:Generated_Source\PSoC5/UART_TIMER_ISR.c **** ********************************************************************************
 296:Generated_Source\PSoC5/UART_TIMER_ISR.c **** *
 297:Generated_Source\PSoC5/UART_TIMER_ISR.c **** * Summary:
 298:Generated_Source\PSoC5/UART_TIMER_ISR.c **** *   Enables the interrupt to the interrupt controller. Do not call this function
 299:Generated_Source\PSoC5/UART_TIMER_ISR.c **** *   unless ISR_Start() has been called or the functionality of the ISR_Start() 
 300:Generated_Source\PSoC5/UART_TIMER_ISR.c **** *   function, which sets the vector and the priority, has been called.
 301:Generated_Source\PSoC5/UART_TIMER_ISR.c **** *
 302:Generated_Source\PSoC5/UART_TIMER_ISR.c **** * Parameters:
 303:Generated_Source\PSoC5/UART_TIMER_ISR.c **** *   None
 304:Generated_Source\PSoC5/UART_TIMER_ISR.c **** *
 305:Generated_Source\PSoC5/UART_TIMER_ISR.c **** * Return:
 306:Generated_Source\PSoC5/UART_TIMER_ISR.c **** *   None
 307:Generated_Source\PSoC5/UART_TIMER_ISR.c **** *
 308:Generated_Source\PSoC5/UART_TIMER_ISR.c **** *******************************************************************************/
 309:Generated_Source\PSoC5/UART_TIMER_ISR.c **** void UART_TIMER_ISR_Enable(void)
 310:Generated_Source\PSoC5/UART_TIMER_ISR.c **** {
 311:Generated_Source\PSoC5/UART_TIMER_ISR.c ****     /* Enable the general interrupt. */
 312:Generated_Source\PSoC5/UART_TIMER_ISR.c ****     *UART_TIMER_ISR_INTC_SET_EN = UART_TIMER_ISR__INTC_MASK;
 313:Generated_Source\PSoC5/UART_TIMER_ISR.c **** }
 314:Generated_Source\PSoC5/UART_TIMER_ISR.c **** 
 315:Generated_Source\PSoC5/UART_TIMER_ISR.c **** 
 316:Generated_Source\PSoC5/UART_TIMER_ISR.c **** /*******************************************************************************
 317:Generated_Source\PSoC5/UART_TIMER_ISR.c **** * Function Name: UART_TIMER_ISR_GetState
 318:Generated_Source\PSoC5/UART_TIMER_ISR.c **** ********************************************************************************
 319:Generated_Source\PSoC5/UART_TIMER_ISR.c **** *
 320:Generated_Source\PSoC5/UART_TIMER_ISR.c **** * Summary:
 321:Generated_Source\PSoC5/UART_TIMER_ISR.c **** *   Gets the state (enabled, disabled) of the Interrupt.
 322:Generated_Source\PSoC5/UART_TIMER_ISR.c **** *
 323:Generated_Source\PSoC5/UART_TIMER_ISR.c **** * Parameters:
 324:Generated_Source\PSoC5/UART_TIMER_ISR.c **** *   None
 325:Generated_Source\PSoC5/UART_TIMER_ISR.c **** *
 326:Generated_Source\PSoC5/UART_TIMER_ISR.c **** * Return:
 327:Generated_Source\PSoC5/UART_TIMER_ISR.c **** *   1 if enabled, 0 if disabled.
 328:Generated_Source\PSoC5/UART_TIMER_ISR.c **** *
 329:Generated_Source\PSoC5/UART_TIMER_ISR.c **** *******************************************************************************/
ARM GAS  C:\Users\yqh\AppData\Local\Temp\ccoq5ygk.s 			page 8


 330:Generated_Source\PSoC5/UART_TIMER_ISR.c **** uint8 UART_TIMER_ISR_GetState(void)
 331:Generated_Source\PSoC5/UART_TIMER_ISR.c **** {
 332:Generated_Source\PSoC5/UART_TIMER_ISR.c ****     /* Get the state of the general interrupt. */
 333:Generated_Source\PSoC5/UART_TIMER_ISR.c ****     return ((*UART_TIMER_ISR_INTC_SET_EN & (uint32)UART_TIMER_ISR__INTC_MASK) != 0u) ? 1u:0u;
 334:Generated_Source\PSoC5/UART_TIMER_ISR.c **** }
 335:Generated_Source\PSoC5/UART_TIMER_ISR.c **** 
 336:Generated_Source\PSoC5/UART_TIMER_ISR.c **** 
 337:Generated_Source\PSoC5/UART_TIMER_ISR.c **** /*******************************************************************************
 338:Generated_Source\PSoC5/UART_TIMER_ISR.c **** * Function Name: UART_TIMER_ISR_Disable
 339:Generated_Source\PSoC5/UART_TIMER_ISR.c **** ********************************************************************************
 340:Generated_Source\PSoC5/UART_TIMER_ISR.c **** *
 341:Generated_Source\PSoC5/UART_TIMER_ISR.c **** * Summary:
 342:Generated_Source\PSoC5/UART_TIMER_ISR.c **** *   Disables the Interrupt in the interrupt controller.
 343:Generated_Source\PSoC5/UART_TIMER_ISR.c **** *
 344:Generated_Source\PSoC5/UART_TIMER_ISR.c **** * Parameters:
 345:Generated_Source\PSoC5/UART_TIMER_ISR.c **** *   None
 346:Generated_Source\PSoC5/UART_TIMER_ISR.c **** *
 347:Generated_Source\PSoC5/UART_TIMER_ISR.c **** * Return:
 348:Generated_Source\PSoC5/UART_TIMER_ISR.c **** *   None
 349:Generated_Source\PSoC5/UART_TIMER_ISR.c **** *
 350:Generated_Source\PSoC5/UART_TIMER_ISR.c **** *******************************************************************************/
 351:Generated_Source\PSoC5/UART_TIMER_ISR.c **** void UART_TIMER_ISR_Disable(void)
 352:Generated_Source\PSoC5/UART_TIMER_ISR.c **** {
 353:Generated_Source\PSoC5/UART_TIMER_ISR.c ****     /* Disable the general interrupt. */
 354:Generated_Source\PSoC5/UART_TIMER_ISR.c ****     *UART_TIMER_ISR_INTC_CLR_EN = UART_TIMER_ISR__INTC_MASK;
  69              		.loc 1 354 0
  70 0000 074A     		ldr	r2, .L5
  71 0002 0123     		movs	r3, #1
  72 0004 1360     		str	r3, [r2]
  73              	.LVL2:
  74              	.LBE23:
  75              	.LBE22:
  76              	.LBB24:
  77              	.LBB25:
 206:Generated_Source\PSoC5/UART_TIMER_ISR.c **** 
  78              		.loc 1 206 0
  79 0006 02F68832 		addw	r2, r2, #2952
  80 000a 1268     		ldr	r2, [r2]
  81              	.LVL3:
 208:Generated_Source\PSoC5/UART_TIMER_ISR.c **** }
  82              		.loc 1 208 0
  83 000c 0549     		ldr	r1, .L5+4
  84 000e 1164     		str	r1, [r2, #64]
  85              	.LVL4:
  86              	.LBE25:
  87              	.LBE24:
  88              	.LBB26:
  89              	.LBB27:
 262:Generated_Source\PSoC5/UART_TIMER_ISR.c **** }
  90              		.loc 1 262 0
  91 0010 054A     		ldr	r2, .L5+8
  92              	.LVL5:
  93 0012 E021     		movs	r1, #224
  94 0014 1170     		strb	r1, [r2]
  95              	.LBE27:
  96              	.LBE26:
  97              	.LBB28:
ARM GAS  C:\Users\yqh\AppData\Local\Temp\ccoq5ygk.s 			page 9


  98              	.LBB29:
 312:Generated_Source\PSoC5/UART_TIMER_ISR.c **** }
  99              		.loc 1 312 0
 100 0016 A2F54072 		sub	r2, r2, #768
 101 001a 1360     		str	r3, [r2]
 102 001c 7047     		bx	lr
 103              	.L6:
 104 001e 00BF     		.align	2
 105              	.L5:
 106 0020 80E100E0 		.word	-536813184
 107 0024 00000000 		.word	UART_TIMER_ISR_Interrupt
 108 0028 00E400E0 		.word	-536812544
 109              	.LBE29:
 110              	.LBE28:
 111              		.cfi_endproc
 112              	.LFE63:
 113              		.size	UART_TIMER_ISR_Start, .-UART_TIMER_ISR_Start
 114              		.section	.text.UART_TIMER_ISR_StartEx,"ax",%progbits
 115              		.align	1
 116              		.global	UART_TIMER_ISR_StartEx
 117              		.thumb
 118              		.thumb_func
 119              		.type	UART_TIMER_ISR_StartEx, %function
 120              	UART_TIMER_ISR_StartEx:
 121              	.LFB64:
 106:Generated_Source\PSoC5/UART_TIMER_ISR.c ****     /* For all we know the interrupt is active. */
 122              		.loc 1 106 0
 123              		.cfi_startproc
 124              		@ args = 0, pretend = 0, frame = 0
 125              		@ frame_needed = 0, uses_anonymous_args = 0
 126              		@ link register save eliminated.
 127              	.LVL6:
 128              	.LBB30:
 129              	.LBB31:
 130              		.loc 1 354 0
 131 0000 064A     		ldr	r2, .L8
 132 0002 0123     		movs	r3, #1
 133 0004 1360     		str	r3, [r2]
 134              	.LVL7:
 135              	.LBE31:
 136              	.LBE30:
 137              	.LBB32:
 138              	.LBB33:
 206:Generated_Source\PSoC5/UART_TIMER_ISR.c **** 
 139              		.loc 1 206 0
 140 0006 02F68832 		addw	r2, r2, #2952
 141 000a 1268     		ldr	r2, [r2]
 142              	.LVL8:
 143              	.LBE33:
 144              	.LBE32:
 145              	.LBB35:
 146              	.LBB36:
 262:Generated_Source\PSoC5/UART_TIMER_ISR.c **** }
 147              		.loc 1 262 0
 148 000c E021     		movs	r1, #224
 149              	.LBE36:
 150              	.LBE35:
ARM GAS  C:\Users\yqh\AppData\Local\Temp\ccoq5ygk.s 			page 10


 151              	.LBB38:
 152              	.LBB34:
 208:Generated_Source\PSoC5/UART_TIMER_ISR.c **** }
 153              		.loc 1 208 0
 154 000e 1064     		str	r0, [r2, #64]
 155              	.LVL9:
 156              	.LBE34:
 157              	.LBE38:
 158              	.LBB39:
 159              	.LBB37:
 262:Generated_Source\PSoC5/UART_TIMER_ISR.c **** }
 160              		.loc 1 262 0
 161 0010 034A     		ldr	r2, .L8+4
 162              	.LVL10:
 163 0012 1170     		strb	r1, [r2]
 164              	.LBE37:
 165              	.LBE39:
 166              	.LBB40:
 167              	.LBB41:
 312:Generated_Source\PSoC5/UART_TIMER_ISR.c **** }
 168              		.loc 1 312 0
 169 0014 A2F54072 		sub	r2, r2, #768
 170 0018 1360     		str	r3, [r2]
 171 001a 7047     		bx	lr
 172              	.L9:
 173              		.align	2
 174              	.L8:
 175 001c 80E100E0 		.word	-536813184
 176 0020 00E400E0 		.word	-536812544
 177              	.LBE41:
 178              	.LBE40:
 179              		.cfi_endproc
 180              	.LFE64:
 181              		.size	UART_TIMER_ISR_StartEx, .-UART_TIMER_ISR_StartEx
 182              		.section	.text.UART_TIMER_ISR_Stop,"ax",%progbits
 183              		.align	1
 184              		.global	UART_TIMER_ISR_Stop
 185              		.thumb
 186              		.thumb_func
 187              		.type	UART_TIMER_ISR_Stop, %function
 188              	UART_TIMER_ISR_Stop:
 189              	.LFB65:
 136:Generated_Source\PSoC5/UART_TIMER_ISR.c ****     /* Disable this interrupt. */
 190              		.loc 1 136 0
 191              		.cfi_startproc
 192              		@ args = 0, pretend = 0, frame = 0
 193              		@ frame_needed = 0, uses_anonymous_args = 0
 194              		@ link register save eliminated.
 195              	.LBB42:
 196              	.LBB43:
 197              		.loc 1 354 0
 198 0000 044B     		ldr	r3, .L11
 199 0002 0122     		movs	r2, #1
 200 0004 1A60     		str	r2, [r3]
 201              	.LVL11:
 202              	.LBE43:
 203              	.LBE42:
ARM GAS  C:\Users\yqh\AppData\Local\Temp\ccoq5ygk.s 			page 11


 204              	.LBB44:
 205              	.LBB45:
 206:Generated_Source\PSoC5/UART_TIMER_ISR.c **** 
 206              		.loc 1 206 0
 207 0006 03F68833 		addw	r3, r3, #2952
 208 000a 1B68     		ldr	r3, [r3]
 209              	.LVL12:
 208:Generated_Source\PSoC5/UART_TIMER_ISR.c **** }
 210              		.loc 1 208 0
 211 000c 024A     		ldr	r2, .L11+4
 212 000e 1A64     		str	r2, [r3, #64]
 213 0010 7047     		bx	lr
 214              	.L12:
 215 0012 00BF     		.align	2
 216              	.L11:
 217 0014 80E100E0 		.word	-536813184
 218 0018 00000000 		.word	IntDefaultHandler
 219              	.LBE45:
 220              	.LBE44:
 221              		.cfi_endproc
 222              	.LFE65:
 223              		.size	UART_TIMER_ISR_Stop, .-UART_TIMER_ISR_Stop
 224              		.section	.text.UART_TIMER_ISR_SetVector,"ax",%progbits
 225              		.align	1
 226              		.global	UART_TIMER_ISR_SetVector
 227              		.thumb
 228              		.thumb_func
 229              		.type	UART_TIMER_ISR_SetVector, %function
 230              	UART_TIMER_ISR_SetVector:
 231              	.LFB67:
 203:Generated_Source\PSoC5/UART_TIMER_ISR.c ****     cyisraddress * ramVectorTable;
 232              		.loc 1 203 0
 233              		.cfi_startproc
 234              		@ args = 0, pretend = 0, frame = 0
 235              		@ frame_needed = 0, uses_anonymous_args = 0
 236              		@ link register save eliminated.
 237              	.LVL13:
 206:Generated_Source\PSoC5/UART_TIMER_ISR.c **** 
 238              		.loc 1 206 0
 239 0000 014B     		ldr	r3, .L14
 240 0002 1B68     		ldr	r3, [r3]
 241              	.LVL14:
 208:Generated_Source\PSoC5/UART_TIMER_ISR.c **** }
 242              		.loc 1 208 0
 243 0004 1864     		str	r0, [r3, #64]
 244 0006 7047     		bx	lr
 245              	.L15:
 246              		.align	2
 247              	.L14:
 248 0008 08ED00E0 		.word	-536810232
 249              		.cfi_endproc
 250              	.LFE67:
 251              		.size	UART_TIMER_ISR_SetVector, .-UART_TIMER_ISR_SetVector
 252              		.section	.text.UART_TIMER_ISR_GetVector,"ax",%progbits
 253              		.align	1
 254              		.global	UART_TIMER_ISR_GetVector
 255              		.thumb
ARM GAS  C:\Users\yqh\AppData\Local\Temp\ccoq5ygk.s 			page 12


 256              		.thumb_func
 257              		.type	UART_TIMER_ISR_GetVector, %function
 258              	UART_TIMER_ISR_GetVector:
 259              	.LFB68:
 227:Generated_Source\PSoC5/UART_TIMER_ISR.c ****     cyisraddress * ramVectorTable;
 260              		.loc 1 227 0
 261              		.cfi_startproc
 262              		@ args = 0, pretend = 0, frame = 0
 263              		@ frame_needed = 0, uses_anonymous_args = 0
 264              		@ link register save eliminated.
 265              	.LVL15:
 230:Generated_Source\PSoC5/UART_TIMER_ISR.c **** 
 266              		.loc 1 230 0
 267 0000 014B     		ldr	r3, .L17
 268              	.LVL16:
 232:Generated_Source\PSoC5/UART_TIMER_ISR.c **** }
 269              		.loc 1 232 0
 270 0002 1B68     		ldr	r3, [r3]
 271              	.LVL17:
 233:Generated_Source\PSoC5/UART_TIMER_ISR.c **** 
 272              		.loc 1 233 0
 273 0004 186C     		ldr	r0, [r3, #64]
 274 0006 7047     		bx	lr
 275              	.L18:
 276              		.align	2
 277              	.L17:
 278 0008 08ED00E0 		.word	-536810232
 279              		.cfi_endproc
 280              	.LFE68:
 281              		.size	UART_TIMER_ISR_GetVector, .-UART_TIMER_ISR_GetVector
 282              		.section	.text.UART_TIMER_ISR_SetPriority,"ax",%progbits
 283              		.align	1
 284              		.global	UART_TIMER_ISR_SetPriority
 285              		.thumb
 286              		.thumb_func
 287              		.type	UART_TIMER_ISR_SetPriority, %function
 288              	UART_TIMER_ISR_SetPriority:
 289              	.LFB69:
 261:Generated_Source\PSoC5/UART_TIMER_ISR.c ****     *UART_TIMER_ISR_INTC_PRIOR = priority << 5;
 290              		.loc 1 261 0
 291              		.cfi_startproc
 292              		@ args = 0, pretend = 0, frame = 0
 293              		@ frame_needed = 0, uses_anonymous_args = 0
 294              		@ link register save eliminated.
 295              	.LVL18:
 262:Generated_Source\PSoC5/UART_TIMER_ISR.c **** }
 296              		.loc 1 262 0
 297 0000 4001     		lsls	r0, r0, #5
 298              	.LVL19:
 299 0002 024B     		ldr	r3, .L20
 300 0004 C0B2     		uxtb	r0, r0
 301 0006 1870     		strb	r0, [r3]
 302 0008 7047     		bx	lr
 303              	.L21:
 304 000a 00BF     		.align	2
 305              	.L20:
 306 000c 00E400E0 		.word	-536812544
ARM GAS  C:\Users\yqh\AppData\Local\Temp\ccoq5ygk.s 			page 13


 307              		.cfi_endproc
 308              	.LFE69:
 309              		.size	UART_TIMER_ISR_SetPriority, .-UART_TIMER_ISR_SetPriority
 310              		.section	.text.UART_TIMER_ISR_GetPriority,"ax",%progbits
 311              		.align	1
 312              		.global	UART_TIMER_ISR_GetPriority
 313              		.thumb
 314              		.thumb_func
 315              		.type	UART_TIMER_ISR_GetPriority, %function
 316              	UART_TIMER_ISR_GetPriority:
 317              	.LFB70:
 283:Generated_Source\PSoC5/UART_TIMER_ISR.c ****     uint8 priority;
 318              		.loc 1 283 0
 319              		.cfi_startproc
 320              		@ args = 0, pretend = 0, frame = 0
 321              		@ frame_needed = 0, uses_anonymous_args = 0
 322              		@ link register save eliminated.
 287:Generated_Source\PSoC5/UART_TIMER_ISR.c **** 
 323              		.loc 1 287 0
 324 0000 014B     		ldr	r3, .L23
 325 0002 1878     		ldrb	r0, [r3]	@ zero_extendqisi2
 326              	.LVL20:
 290:Generated_Source\PSoC5/UART_TIMER_ISR.c **** 
 327              		.loc 1 290 0
 328 0004 4009     		lsrs	r0, r0, #5
 329              	.LVL21:
 330 0006 7047     		bx	lr
 331              	.L24:
 332              		.align	2
 333              	.L23:
 334 0008 00E400E0 		.word	-536812544
 335              		.cfi_endproc
 336              	.LFE70:
 337              		.size	UART_TIMER_ISR_GetPriority, .-UART_TIMER_ISR_GetPriority
 338              		.section	.text.UART_TIMER_ISR_Enable,"ax",%progbits
 339              		.align	1
 340              		.global	UART_TIMER_ISR_Enable
 341              		.thumb
 342              		.thumb_func
 343              		.type	UART_TIMER_ISR_Enable, %function
 344              	UART_TIMER_ISR_Enable:
 345              	.LFB71:
 310:Generated_Source\PSoC5/UART_TIMER_ISR.c ****     /* Enable the general interrupt. */
 346              		.loc 1 310 0
 347              		.cfi_startproc
 348              		@ args = 0, pretend = 0, frame = 0
 349              		@ frame_needed = 0, uses_anonymous_args = 0
 350              		@ link register save eliminated.
 312:Generated_Source\PSoC5/UART_TIMER_ISR.c **** }
 351              		.loc 1 312 0
 352 0000 014B     		ldr	r3, .L26
 353 0002 0122     		movs	r2, #1
 354 0004 1A60     		str	r2, [r3]
 355 0006 7047     		bx	lr
 356              	.L27:
 357              		.align	2
 358              	.L26:
ARM GAS  C:\Users\yqh\AppData\Local\Temp\ccoq5ygk.s 			page 14


 359 0008 00E100E0 		.word	-536813312
 360              		.cfi_endproc
 361              	.LFE71:
 362              		.size	UART_TIMER_ISR_Enable, .-UART_TIMER_ISR_Enable
 363              		.section	.text.UART_TIMER_ISR_GetState,"ax",%progbits
 364              		.align	1
 365              		.global	UART_TIMER_ISR_GetState
 366              		.thumb
 367              		.thumb_func
 368              		.type	UART_TIMER_ISR_GetState, %function
 369              	UART_TIMER_ISR_GetState:
 370              	.LFB72:
 331:Generated_Source\PSoC5/UART_TIMER_ISR.c ****     /* Get the state of the general interrupt. */
 371              		.loc 1 331 0
 372              		.cfi_startproc
 373              		@ args = 0, pretend = 0, frame = 0
 374              		@ frame_needed = 0, uses_anonymous_args = 0
 375              		@ link register save eliminated.
 333:Generated_Source\PSoC5/UART_TIMER_ISR.c **** }
 376              		.loc 1 333 0
 377 0000 024B     		ldr	r3, .L29
 378 0002 1868     		ldr	r0, [r3]
 334:Generated_Source\PSoC5/UART_TIMER_ISR.c **** 
 379              		.loc 1 334 0
 380 0004 00F00100 		and	r0, r0, #1
 381 0008 7047     		bx	lr
 382              	.L30:
 383 000a 00BF     		.align	2
 384              	.L29:
 385 000c 00E100E0 		.word	-536813312
 386              		.cfi_endproc
 387              	.LFE72:
 388              		.size	UART_TIMER_ISR_GetState, .-UART_TIMER_ISR_GetState
 389              		.section	.text.UART_TIMER_ISR_Disable,"ax",%progbits
 390              		.align	1
 391              		.global	UART_TIMER_ISR_Disable
 392              		.thumb
 393              		.thumb_func
 394              		.type	UART_TIMER_ISR_Disable, %function
 395              	UART_TIMER_ISR_Disable:
 396              	.LFB73:
 352:Generated_Source\PSoC5/UART_TIMER_ISR.c ****     /* Disable the general interrupt. */
 397              		.loc 1 352 0
 398              		.cfi_startproc
 399              		@ args = 0, pretend = 0, frame = 0
 400              		@ frame_needed = 0, uses_anonymous_args = 0
 401              		@ link register save eliminated.
 402              		.loc 1 354 0
 403 0000 014B     		ldr	r3, .L32
 404 0002 0122     		movs	r2, #1
 405 0004 1A60     		str	r2, [r3]
 406 0006 7047     		bx	lr
 407              	.L33:
 408              		.align	2
 409              	.L32:
 410 0008 80E100E0 		.word	-536813184
 411              		.cfi_endproc
ARM GAS  C:\Users\yqh\AppData\Local\Temp\ccoq5ygk.s 			page 15


 412              	.LFE73:
 413              		.size	UART_TIMER_ISR_Disable, .-UART_TIMER_ISR_Disable
 414              		.section	.text.UART_TIMER_ISR_SetPending,"ax",%progbits
 415              		.align	1
 416              		.global	UART_TIMER_ISR_SetPending
 417              		.thumb
 418              		.thumb_func
 419              		.type	UART_TIMER_ISR_SetPending, %function
 420              	UART_TIMER_ISR_SetPending:
 421              	.LFB74:
 355:Generated_Source\PSoC5/UART_TIMER_ISR.c **** }
 356:Generated_Source\PSoC5/UART_TIMER_ISR.c **** 
 357:Generated_Source\PSoC5/UART_TIMER_ISR.c **** 
 358:Generated_Source\PSoC5/UART_TIMER_ISR.c **** /*******************************************************************************
 359:Generated_Source\PSoC5/UART_TIMER_ISR.c **** * Function Name: UART_TIMER_ISR_SetPending
 360:Generated_Source\PSoC5/UART_TIMER_ISR.c **** ********************************************************************************
 361:Generated_Source\PSoC5/UART_TIMER_ISR.c **** *
 362:Generated_Source\PSoC5/UART_TIMER_ISR.c **** * Summary:
 363:Generated_Source\PSoC5/UART_TIMER_ISR.c **** *   Causes the Interrupt to enter the pending state, a software method of
 364:Generated_Source\PSoC5/UART_TIMER_ISR.c **** *   generating the interrupt.
 365:Generated_Source\PSoC5/UART_TIMER_ISR.c **** *
 366:Generated_Source\PSoC5/UART_TIMER_ISR.c **** * Parameters:
 367:Generated_Source\PSoC5/UART_TIMER_ISR.c **** *   None
 368:Generated_Source\PSoC5/UART_TIMER_ISR.c **** *
 369:Generated_Source\PSoC5/UART_TIMER_ISR.c **** * Return:
 370:Generated_Source\PSoC5/UART_TIMER_ISR.c **** *   None
 371:Generated_Source\PSoC5/UART_TIMER_ISR.c **** *
 372:Generated_Source\PSoC5/UART_TIMER_ISR.c **** * Side Effects:
 373:Generated_Source\PSoC5/UART_TIMER_ISR.c **** *   If interrupts are enabled and the interrupt is set up properly, the ISR is
 374:Generated_Source\PSoC5/UART_TIMER_ISR.c **** *   entered (depending on the priority of this interrupt and other pending 
 375:Generated_Source\PSoC5/UART_TIMER_ISR.c **** *   interrupts).
 376:Generated_Source\PSoC5/UART_TIMER_ISR.c **** *
 377:Generated_Source\PSoC5/UART_TIMER_ISR.c **** *******************************************************************************/
 378:Generated_Source\PSoC5/UART_TIMER_ISR.c **** void UART_TIMER_ISR_SetPending(void)
 379:Generated_Source\PSoC5/UART_TIMER_ISR.c **** {
 422              		.loc 1 379 0
 423              		.cfi_startproc
 424              		@ args = 0, pretend = 0, frame = 0
 425              		@ frame_needed = 0, uses_anonymous_args = 0
 426              		@ link register save eliminated.
 380:Generated_Source\PSoC5/UART_TIMER_ISR.c ****     *UART_TIMER_ISR_INTC_SET_PD = UART_TIMER_ISR__INTC_MASK;
 427              		.loc 1 380 0
 428 0000 014B     		ldr	r3, .L35
 429 0002 0122     		movs	r2, #1
 430 0004 1A60     		str	r2, [r3]
 431 0006 7047     		bx	lr
 432              	.L36:
 433              		.align	2
 434              	.L35:
 435 0008 00E200E0 		.word	-536813056
 436              		.cfi_endproc
 437              	.LFE74:
 438              		.size	UART_TIMER_ISR_SetPending, .-UART_TIMER_ISR_SetPending
 439              		.section	.text.UART_TIMER_ISR_ClearPending,"ax",%progbits
 440              		.align	1
 441              		.global	UART_TIMER_ISR_ClearPending
 442              		.thumb
ARM GAS  C:\Users\yqh\AppData\Local\Temp\ccoq5ygk.s 			page 16


 443              		.thumb_func
 444              		.type	UART_TIMER_ISR_ClearPending, %function
 445              	UART_TIMER_ISR_ClearPending:
 446              	.LFB75:
 381:Generated_Source\PSoC5/UART_TIMER_ISR.c **** }
 382:Generated_Source\PSoC5/UART_TIMER_ISR.c **** 
 383:Generated_Source\PSoC5/UART_TIMER_ISR.c **** 
 384:Generated_Source\PSoC5/UART_TIMER_ISR.c **** /*******************************************************************************
 385:Generated_Source\PSoC5/UART_TIMER_ISR.c **** * Function Name: UART_TIMER_ISR_ClearPending
 386:Generated_Source\PSoC5/UART_TIMER_ISR.c **** ********************************************************************************
 387:Generated_Source\PSoC5/UART_TIMER_ISR.c **** *
 388:Generated_Source\PSoC5/UART_TIMER_ISR.c **** * Summary:
 389:Generated_Source\PSoC5/UART_TIMER_ISR.c **** *   Clears a pending interrupt in the interrupt controller.
 390:Generated_Source\PSoC5/UART_TIMER_ISR.c **** *
 391:Generated_Source\PSoC5/UART_TIMER_ISR.c **** *   Note Some interrupt sources are clear-on-read and require the block 
 392:Generated_Source\PSoC5/UART_TIMER_ISR.c **** *   interrupt/status register to be read/cleared with the appropriate block API 
 393:Generated_Source\PSoC5/UART_TIMER_ISR.c **** *   (GPIO, UART, and so on). Otherwise the ISR will continue to remain in 
 394:Generated_Source\PSoC5/UART_TIMER_ISR.c **** *   pending state even though the interrupt itself is cleared using this API.
 395:Generated_Source\PSoC5/UART_TIMER_ISR.c **** *
 396:Generated_Source\PSoC5/UART_TIMER_ISR.c **** * Parameters:
 397:Generated_Source\PSoC5/UART_TIMER_ISR.c **** *   None
 398:Generated_Source\PSoC5/UART_TIMER_ISR.c **** *
 399:Generated_Source\PSoC5/UART_TIMER_ISR.c **** * Return:
 400:Generated_Source\PSoC5/UART_TIMER_ISR.c **** *   None
 401:Generated_Source\PSoC5/UART_TIMER_ISR.c **** *
 402:Generated_Source\PSoC5/UART_TIMER_ISR.c **** *******************************************************************************/
 403:Generated_Source\PSoC5/UART_TIMER_ISR.c **** void UART_TIMER_ISR_ClearPending(void)
 404:Generated_Source\PSoC5/UART_TIMER_ISR.c **** {
 447              		.loc 1 404 0
 448              		.cfi_startproc
 449              		@ args = 0, pretend = 0, frame = 0
 450              		@ frame_needed = 0, uses_anonymous_args = 0
 451              		@ link register save eliminated.
 405:Generated_Source\PSoC5/UART_TIMER_ISR.c ****     *UART_TIMER_ISR_INTC_CLR_PD = UART_TIMER_ISR__INTC_MASK;
 452              		.loc 1 405 0
 453 0000 014B     		ldr	r3, .L38
 454 0002 0122     		movs	r2, #1
 455 0004 1A60     		str	r2, [r3]
 456 0006 7047     		bx	lr
 457              	.L39:
 458              		.align	2
 459              	.L38:
 460 0008 80E200E0 		.word	-536812928
 461              		.cfi_endproc
 462              	.LFE75:
 463              		.size	UART_TIMER_ISR_ClearPending, .-UART_TIMER_ISR_ClearPending
 464              		.comm	card_in_buf,4,4
 465              		.comm	card_ack,4,4
 466              		.comm	tamper_out_polarity,4,4
 467              		.comm	tamperCR_polarity,4,4
 468              		.comm	tp_old,1,1
 469              		.comm	hw_old,1,1
 470              		.comm	currentAccessType,1,1
 471              		.comm	s,40,4
 472              		.text
 473              	.Letext0:
 474              		.file 2 "c:\\program files (x86)\\cypress\\psoc creator\\4.0\\psoc creator\\import\\gnu\\arm\\4.9.
ARM GAS  C:\Users\yqh\AppData\Local\Temp\ccoq5ygk.s 			page 17


 475              		.file 3 "c:\\program files (x86)\\cypress\\psoc creator\\4.0\\psoc creator\\import\\gnu\\arm\\4.9.
 476              		.file 4 "Generated_Source\\PSoC5/cytypes.h"
 477              		.file 5 "./softuart.h"
 478              		.file 6 "Generated_Source\\PSoC5/core_cm3.h"
 479              		.file 7 "./system.h"
 480              		.file 8 "Generated_Source\\PSoC5\\UART_TIMER.h"