ARM GAS  C:\Users\yqh\AppData\Local\Temp\ccVcLyn3.s 			page 1


   1              		.syntax unified
   2              		.cpu cortex-m3
   3              		.fpu softvfp
   4              		.eabi_attribute 20, 1
   5              		.eabi_attribute 21, 1
   6              		.eabi_attribute 23, 3
   7              		.eabi_attribute 24, 1
   8              		.eabi_attribute 25, 1
   9              		.eabi_attribute 26, 1
  10              		.eabi_attribute 30, 4
  11              		.eabi_attribute 34, 1
  12              		.eabi_attribute 18, 4
  13              		.thumb
  14              		.file	"soft_uart.c"
  15              		.text
  16              	.Ltext0:
  17              		.cfi_sections	.debug_frame
  18              		.section	.text.SU_Start,"ax",%progbits
  19              		.align	1
  20              		.global	SU_Start
  21              		.thumb
  22              		.thumb_func
  23              		.type	SU_Start, %function
  24              	SU_Start:
  25              	.LFB63:
  26              		.file 1 "soft_uart.c"
   1:soft_uart.c   **** /* ========================================
   2:soft_uart.c   ****  *
   3:soft_uart.c   ****  * Copyright YOUR COMPANY, THE YEAR
   4:soft_uart.c   ****  * All Rights Reserved
   5:soft_uart.c   ****  * UNPUBLISHED, LICENSED SOFTWARE.
   6:soft_uart.c   ****  *
   7:soft_uart.c   ****  * CONFIDENTIAL AND PROPRIETARY INFORMATION
   8:soft_uart.c   ****  * WHICH IS THE PROPERTY OF your company.
   9:soft_uart.c   ****  *
  10:soft_uart.c   ****  * ========================================
  11:soft_uart.c   **** */
  12:soft_uart.c   **** #include <project.h>
  13:soft_uart.c   **** #include "softuart.h"
  14:soft_uart.c   **** 
  15:soft_uart.c   **** 
  16:soft_uart.c   **** 
  17:soft_uart.c   **** 
  18:soft_uart.c   **** void SU_Start(SOFT_UART_STRUCT *s, int baud, int  parity, int stop)
  19:soft_uart.c   **** {
  27              		.loc 1 19 0
  28              		.cfi_startproc
  29              		@ args = 0, pretend = 0, frame = 0
  30              		@ frame_needed = 0, uses_anonymous_args = 0
  31              		@ link register save eliminated.
  32              	.LVL0:
  20:soft_uart.c   **** 	s->baud = baud;
  21:soft_uart.c   **** 	s->parity = parity;
  33              		.loc 1 21 0
  34 0000 80E80600 		stmia	r0, {r1, r2}
  22:soft_uart.c   **** 	s->rx_bits = 0;
  23:soft_uart.c   **** 	s->tx_bits = 0;
ARM GAS  C:\Users\yqh\AppData\Local\Temp\ccVcLyn3.s 			page 2


  24:soft_uart.c   **** 	s->flags = TX_READY;
  25:soft_uart.c   **** 	s->timer_tx_ctr=0;
  26:soft_uart.c   **** 	s->timer_rx_ctr=0;
  27:soft_uart.c   **** 	s->stop_bits =stop;
  35              		.loc 1 27 0
  36 0004 8360     		str	r3, [r0, #8]
  22:soft_uart.c   **** 	s->rx_bits = 0;
  37              		.loc 1 22 0
  38 0006 0022     		movs	r2, #0
  39              	.LVL1:
  24:soft_uart.c   **** 	s->timer_tx_ctr=0;
  40              		.loc 1 24 0
  41 0008 0221     		movs	r1, #2
  42              	.LVL2:
  28:soft_uart.c   **** 	s->bits=8;
  43              		.loc 1 28 0
  44 000a 0823     		movs	r3, #8
  45              	.LVL3:
  23:soft_uart.c   **** 	s->flags = TX_READY;
  46              		.loc 1 23 0
  47 000c 8282     		strh	r2, [r0, #20]	@ movhi
  22:soft_uart.c   **** 	s->tx_bits = 0;
  48              		.loc 1 22 0
  49 000e C282     		strh	r2, [r0, #22]	@ movhi
  24:soft_uart.c   **** 	s->timer_tx_ctr=0;
  50              		.loc 1 24 0
  51 0010 8161     		str	r1, [r0, #24]
  52              		.loc 1 28 0
  53 0012 C360     		str	r3, [r0, #12]
  25:soft_uart.c   **** 	s->timer_rx_ctr=0;
  54              		.loc 1 25 0
  55 0014 C261     		str	r2, [r0, #28]
  26:soft_uart.c   **** 	s->stop_bits =stop;
  56              		.loc 1 26 0
  57 0016 0262     		str	r2, [r0, #32]
  58              		.loc 1 28 0
  59 0018 7047     		bx	lr
  60              		.cfi_endproc
  61              	.LFE63:
  62              		.size	SU_Start, .-SU_Start
  63              		.section	.text.SU_Isr,"ax",%progbits
  64              		.align	1
  65              		.global	SU_Isr
  66              		.thumb
  67              		.thumb_func
  68              		.type	SU_Isr, %function
  69              	SU_Isr:
  70              	.LFB64:
  29:soft_uart.c   **** 
  30:soft_uart.c   **** }
  31:soft_uart.c   **** 
  32:soft_uart.c   **** 
  33:soft_uart.c   **** 
  34:soft_uart.c   **** void SU_Isr(SOFT_UART_STRUCT *s)
  35:soft_uart.c   **** {
  71              		.loc 1 35 0
  72              		.cfi_startproc
ARM GAS  C:\Users\yqh\AppData\Local\Temp\ccVcLyn3.s 			page 3


  73              		@ args = 0, pretend = 0, frame = 0
  74              		@ frame_needed = 0, uses_anonymous_args = 0
  75              	.LVL4:
  36:soft_uart.c   **** 	uint8 rb;
  37:soft_uart.c   **** 	
  38:soft_uart.c   **** 	// this is where we tx
  39:soft_uart.c   **** 	if ( s->tx_bits)
  76              		.loc 1 39 0
  77 0000 838A     		ldrh	r3, [r0, #20]
  35:soft_uart.c   **** 	uint8 rb;
  78              		.loc 1 35 0
  79 0002 10B5     		push	{r4, lr}
  80              		.cfi_def_cfa_offset 8
  81              		.cfi_offset 4, -8
  82              		.cfi_offset 14, -4
  83              		.loc 1 39 0
  84 0004 9BB2     		uxth	r3, r3
  35:soft_uart.c   **** 	uint8 rb;
  85              		.loc 1 35 0
  86 0006 0446     		mov	r4, r0
  87              		.loc 1 39 0
  88 0008 0BB3     		cbz	r3, .L4
  40:soft_uart.c   **** 	{
  41:soft_uart.c   **** 		if ( --s->timer_tx_ctr<=0 )
  89              		.loc 1 41 0
  90 000a C369     		ldr	r3, [r0, #28]
  91 000c 013B     		subs	r3, r3, #1
  92 000e 002B     		cmp	r3, #0
  93 0010 C361     		str	r3, [r0, #28]
  94 0012 1CDC     		bgt	.L4
  42:soft_uart.c   **** 		{
  43:soft_uart.c   **** 			if ((s->tx_byte & 0x01) == 0x01)
  95              		.loc 1 43 0
  96 0014 438A     		ldrh	r3, [r0, #18]
  97 0016 DB07     		lsls	r3, r3, #31
  44:soft_uart.c   **** 			{
  45:soft_uart.c   ****                 OptSelect_Write(2);
  98              		.loc 1 45 0
  99 0018 4CBF     		ite	mi
 100 001a 0220     		movmi	r0, #2
 101              	.LVL5:
  46:soft_uart.c   **** 			}
  47:soft_uart.c   **** 			else
  48:soft_uart.c   **** 			{
  49:soft_uart.c   ****                 OptSelect_Write(3);
 102              		.loc 1 49 0
 103 001c 0320     		movpl	r0, #3
 104 001e FFF7FEFF 		bl	OptSelect_Write
 105              	.LVL6:
  50:soft_uart.c   **** 			}
  51:soft_uart.c   **** 			s->tx_byte = s->tx_byte >>1;
 106              		.loc 1 51 0
 107 0022 638A     		ldrh	r3, [r4, #18]
 108 0024 C3F34E03 		ubfx	r3, r3, #1, #15
 109 0028 6382     		strh	r3, [r4, #18]	@ movhi
  52:soft_uart.c   **** 			s->tx_bits--;
 110              		.loc 1 52 0
ARM GAS  C:\Users\yqh\AppData\Local\Temp\ccVcLyn3.s 			page 4


 111 002a A38A     		ldrh	r3, [r4, #20]
 112 002c 013B     		subs	r3, r3, #1
 113 002e 9BB2     		uxth	r3, r3
 114 0030 A382     		strh	r3, [r4, #20]	@ movhi
  53:soft_uart.c   **** 			if (s->tx_bits)
 115              		.loc 1 53 0
 116 0032 A38A     		ldrh	r3, [r4, #20]
 117 0034 9BB2     		uxth	r3, r3
 118 0036 33B1     		cbz	r3, .L8
  54:soft_uart.c   **** 			{
  55:soft_uart.c   **** 				s->flags &=~TX_READY;
 119              		.loc 1 55 0
 120 0038 A369     		ldr	r3, [r4, #24]
 121 003a 23F00203 		bic	r3, r3, #2
 122 003e A361     		str	r3, [r4, #24]
  56:soft_uart.c   **** 				s->timer_tx_ctr = 3;
 123              		.loc 1 56 0
 124 0040 0323     		movs	r3, #3
 125 0042 E361     		str	r3, [r4, #28]
 126 0044 03E0     		b	.L4
 127              	.L8:
  57:soft_uart.c   **** 		    }
  58:soft_uart.c   **** 			else
  59:soft_uart.c   **** 			   s->flags |=TX_READY;
 128              		.loc 1 59 0
 129 0046 A369     		ldr	r3, [r4, #24]
 130 0048 43F00203 		orr	r3, r3, #2
 131 004c A361     		str	r3, [r4, #24]
 132              	.L4:
  60:soft_uart.c   **** 		}	
  61:soft_uart.c   **** 	}
  62:soft_uart.c   **** 
  63:soft_uart.c   ****     rb = Pin_WD0_Read();
 133              		.loc 1 63 0
 134 004e FFF7FEFF 		bl	Pin_WD0_Read
 135              	.LVL7:
  64:soft_uart.c   **** 	if ( s->rx_bits==0)
 136              		.loc 1 64 0
 137 0052 E28A     		ldrh	r2, [r4, #22]
 138 0054 52B9     		cbnz	r2, .L9
  65:soft_uart.c   **** 	{
  66:soft_uart.c   **** 		if ( rb==0) // we got a start bit
 139              		.loc 1 66 0
 140 0056 0028     		cmp	r0, #0
 141 0058 32D1     		bne	.L2
  67:soft_uart.c   **** 		{
  68:soft_uart.c   **** 			s->timer_rx_ctr = 4;
 142              		.loc 1 68 0
 143 005a 0423     		movs	r3, #4
 144 005c 2362     		str	r3, [r4, #32]
  69:soft_uart.c   **** 			s->rx_bits = s->bits+s->stop_bits+s->parity;
 145              		.loc 1 69 0
 146 005e A268     		ldr	r2, [r4, #8]
 147 0060 E368     		ldr	r3, [r4, #12]
 148 0062 1A44     		add	r2, r2, r3
 149 0064 6368     		ldr	r3, [r4, #4]
 150 0066 1344     		add	r3, r3, r2
ARM GAS  C:\Users\yqh\AppData\Local\Temp\ccVcLyn3.s 			page 5


 151 0068 E382     		strh	r3, [r4, #22]	@ movhi
 152 006a 10BD     		pop	{r4, pc}
 153              	.LVL8:
 154              	.L9:
  70:soft_uart.c   **** 		}
  71:soft_uart.c   **** 	}
  72:soft_uart.c   **** 	else
  73:soft_uart.c   **** 	{
  74:soft_uart.c   **** 		if ( --s->timer_rx_ctr<=0 )
 155              		.loc 1 74 0
 156 006c 236A     		ldr	r3, [r4, #32]
 157 006e 013B     		subs	r3, r3, #1
 158 0070 002B     		cmp	r3, #0
 159 0072 2362     		str	r3, [r4, #32]
 160 0074 24DC     		bgt	.L2
  75:soft_uart.c   **** 		{				// rcv
  76:soft_uart.c   **** 			if ( rb )
 161              		.loc 1 76 0
 162 0076 28B1     		cbz	r0, .L13
  77:soft_uart.c   **** 			{	s->rx_byte |= 0x8000;	}
 163              		.loc 1 77 0
 164 0078 238A     		ldrh	r3, [r4, #16]
 165 007a 6FEA4343 		mvn	r3, r3, lsl #17
 166 007e 6FEA5343 		mvn	r3, r3, lsr #17
 167 0082 2382     		strh	r3, [r4, #16]	@ movhi
 168              	.L13:
  78:soft_uart.c   ****             
  79:soft_uart.c   **** 			s->rx_byte >>= 1;
 169              		.loc 1 79 0
 170 0084 238A     		ldrh	r3, [r4, #16]
  80:soft_uart.c   **** 			s->rx_bits--;
 171              		.loc 1 80 0
 172 0086 013A     		subs	r2, r2, #1
  79:soft_uart.c   **** 			s->rx_bits--;
 173              		.loc 1 79 0
 174 0088 5B08     		lsrs	r3, r3, #1
 175              		.loc 1 80 0
 176 008a 92B2     		uxth	r2, r2
  79:soft_uart.c   **** 			s->rx_bits--;
 177              		.loc 1 79 0
 178 008c 2382     		strh	r3, [r4, #16]	@ movhi
 179              		.loc 1 80 0
 180 008e E282     		strh	r2, [r4, #22]	@ movhi
  81:soft_uart.c   **** 					
  82:soft_uart.c   **** 			if ( s->rx_bits==0)
 181              		.loc 1 82 0
 182 0090 A2B9     		cbnz	r2, .L14
  83:soft_uart.c   **** 			{
  84:soft_uart.c   **** 				s->rx_recv =  (s->rx_byte>>(8-1-s->stop_bits-(s->parity?1:0)))&0xff;
 183              		.loc 1 84 0
 184 0092 A268     		ldr	r2, [r4, #8]
 185 0094 6168     		ldr	r1, [r4, #4]
 186 0096 C2F10702 		rsb	r2, r2, #7
 187 009a 0029     		cmp	r1, #0
 188 009c 18BF     		it	ne
 189 009e 013A     		subne	r2, r2, #1
 190 00a0 1341     		asrs	r3, r3, r2
ARM GAS  C:\Users\yqh\AppData\Local\Temp\ccVcLyn3.s 			page 6


 191 00a2 DBB2     		uxtb	r3, r3
 192 00a4 6362     		str	r3, [r4, #36]
  85:soft_uart.c   **** 				if (s->flags & RX_BYTE_READY)
 193              		.loc 1 85 0
 194 00a6 A369     		ldr	r3, [r4, #24]
 195 00a8 13F0010F 		tst	r3, #1
  86:soft_uart.c   **** 					 s->flags |=RX_OVERFLOW;
 196              		.loc 1 86 0
 197 00ac A369     		ldr	r3, [r4, #24]
 198 00ae 14BF     		ite	ne
 199 00b0 43F00403 		orrne	r3, r3, #4
  87:soft_uart.c   **** 				else
  88:soft_uart.c   **** 					 s->flags |=RX_BYTE_READY;
 200              		.loc 1 88 0
 201 00b4 43F00103 		orreq	r3, r3, #1
 202 00b8 A361     		str	r3, [r4, #24]
 203 00ba 10BD     		pop	{r4, pc}
 204              	.LVL9:
 205              	.L14:
  89:soft_uart.c   **** 			}
  90:soft_uart.c   **** 			else
  91:soft_uart.c   **** 				s->timer_rx_ctr = 3;
 206              		.loc 1 91 0
 207 00bc 0323     		movs	r3, #3
 208 00be 2362     		str	r3, [r4, #32]
 209              	.L2:
 210 00c0 10BD     		pop	{r4, pc}
 211              		.cfi_endproc
 212              	.LFE64:
 213              		.size	SU_Isr, .-SU_Isr
 214              		.section	.text.getOddParity,"ax",%progbits
 215              		.align	1
 216              		.global	getOddParity
 217              		.thumb
 218              		.thumb_func
 219              		.type	getOddParity, %function
 220              	getOddParity:
 221              	.LFB65:
  92:soft_uart.c   **** 		}
  93:soft_uart.c   **** 	}
  94:soft_uart.c   **** }
  95:soft_uart.c   **** 
  96:soft_uart.c   **** #define START_BIT 0
  97:soft_uart.c   **** 
  98:soft_uart.c   **** unsigned char getOddParity(unsigned char p)
  99:soft_uart.c   ****   {
 222              		.loc 1 99 0
 223              		.cfi_startproc
 224              		@ args = 0, pretend = 0, frame = 0
 225              		@ frame_needed = 0, uses_anonymous_args = 0
 226              		@ link register save eliminated.
 227              	.LVL10:
 100:soft_uart.c   ****       p = p ^ (p >> 4 | p << 4);
 228              		.loc 1 100 0
 229 0000 0309     		lsrs	r3, r0, #4
 230 0002 43EA0013 		orr	r3, r3, r0, lsl #4
 231 0006 5840     		eors	r0, r0, r3
ARM GAS  C:\Users\yqh\AppData\Local\Temp\ccVcLyn3.s 			page 7


 232              	.LVL11:
 233 0008 C0B2     		uxtb	r0, r0
 234              	.LVL12:
 101:soft_uart.c   ****       p = p ^ (p >> 2);
 235              		.loc 1 101 0
 236 000a 80EA9000 		eor	r0, r0, r0, lsr #2
 237              	.LVL13:
 102:soft_uart.c   ****       p = p ^ (p >> 1);
 238              		.loc 1 102 0
 239 000e 80EA5000 		eor	r0, r0, r0, lsr #1
 240              	.LVL14:
 103:soft_uart.c   ****       return p & 1;
 104:soft_uart.c   ****   }
 241              		.loc 1 104 0
 242 0012 00F00100 		and	r0, r0, #1
 243 0016 7047     		bx	lr
 244              		.cfi_endproc
 245              	.LFE65:
 246              		.size	getOddParity, .-getOddParity
 247              		.section	.text.SU_GetStat,"ax",%progbits
 248              		.align	1
 249              		.global	SU_GetStat
 250              		.thumb
 251              		.thumb_func
 252              		.type	SU_GetStat, %function
 253              	SU_GetStat:
 254              	.LFB66:
 105:soft_uart.c   **** 
 106:soft_uart.c   **** int SU_GetStat( SOFT_UART_STRUCT *s)
 107:soft_uart.c   **** {
 255              		.loc 1 107 0
 256              		.cfi_startproc
 257              		@ args = 0, pretend = 0, frame = 0
 258              		@ frame_needed = 0, uses_anonymous_args = 0
 259              		@ link register save eliminated.
 260              	.LVL15:
 108:soft_uart.c   **** 	return s->flags;
 261              		.loc 1 108 0
 262 0000 8069     		ldr	r0, [r0, #24]
 263              	.LVL16:
 109:soft_uart.c   **** }
 264              		.loc 1 109 0
 265 0002 7047     		bx	lr
 266              		.cfi_endproc
 267              	.LFE66:
 268              		.size	SU_GetStat, .-SU_GetStat
 269              		.section	.text.SU_GetChar,"ax",%progbits
 270              		.align	1
 271              		.global	SU_GetChar
 272              		.thumb
 273              		.thumb_func
 274              		.type	SU_GetChar, %function
 275              	SU_GetChar:
 276              	.LFB67:
 110:soft_uart.c   **** 
 111:soft_uart.c   **** int SU_GetChar( SOFT_UART_STRUCT *s)
 112:soft_uart.c   **** {
ARM GAS  C:\Users\yqh\AppData\Local\Temp\ccVcLyn3.s 			page 8


 277              		.loc 1 112 0
 278              		.cfi_startproc
 279              		@ args = 0, pretend = 0, frame = 0
 280              		@ frame_needed = 0, uses_anonymous_args = 0
 281              		@ link register save eliminated.
 282              	.LVL17:
 113:soft_uart.c   **** 	uint8 b;
 114:soft_uart.c   **** 	b = s->rx_recv;
 283              		.loc 1 114 0
 284 0000 426A     		ldr	r2, [r0, #36]
 285              	.LVL18:
 115:soft_uart.c   **** 	CyGlobalIntDisable;
 286              		.loc 1 115 0
 287              	@ 115 "soft_uart.c" 1
 288 0002 72B6     		CPSID   i
 289              	@ 0 "" 2
 116:soft_uart.c   **** 	s->flags &=~RX_BYTE_READY;
 290              		.loc 1 116 0
 291              		.thumb
 292 0004 8369     		ldr	r3, [r0, #24]
 293 0006 23F00103 		bic	r3, r3, #1
 294 000a 8361     		str	r3, [r0, #24]
 117:soft_uart.c   **** 	CyGlobalIntEnable;
 295              		.loc 1 117 0
 296              	@ 117 "soft_uart.c" 1
 297 000c 62B6     		CPSIE   i
 298              	@ 0 "" 2
 118:soft_uart.c   **** 	return b;
 119:soft_uart.c   **** }
 299              		.loc 1 119 0
 300              		.thumb
 301 000e D0B2     		uxtb	r0, r2
 302              	.LVL19:
 303 0010 7047     		bx	lr
 304              		.cfi_endproc
 305              	.LFE67:
 306              		.size	SU_GetChar, .-SU_GetChar
 307              		.section	.text.SU_PutChar,"ax",%progbits
 308              		.align	1
 309              		.global	SU_PutChar
 310              		.thumb
 311              		.thumb_func
 312              		.type	SU_PutChar, %function
 313              	SU_PutChar:
 314              	.LFB68:
 120:soft_uart.c   **** 
 121:soft_uart.c   **** void SU_PutChar( SOFT_UART_STRUCT *s, int c)
 122:soft_uart.c   **** {
 315              		.loc 1 122 0
 316              		.cfi_startproc
 317              		@ args = 0, pretend = 0, frame = 0
 318              		@ frame_needed = 0, uses_anonymous_args = 0
 319              	.LVL20:
 320 0000 F8B5     		push	{r3, r4, r5, r6, r7, lr}
 321              		.cfi_def_cfa_offset 24
 322              		.cfi_offset 3, -24
 323              		.cfi_offset 4, -20
ARM GAS  C:\Users\yqh\AppData\Local\Temp\ccVcLyn3.s 			page 9


 324              		.cfi_offset 5, -16
 325              		.cfi_offset 6, -12
 326              		.cfi_offset 7, -8
 327              		.cfi_offset 14, -4
 123:soft_uart.c   **** 	unsigned short data_tosend;
 124:soft_uart.c   **** 	int parity = 0;
 125:soft_uart.c   **** 	data_tosend = (c<<1) | START_BIT;
 126:soft_uart.c   **** 	if (s->parity==PARITY_ODD)
 328              		.loc 1 126 0
 329 0002 4668     		ldr	r6, [r0, #4]
 125:soft_uart.c   **** 	if (s->parity==PARITY_ODD)
 330              		.loc 1 125 0
 331 0004 4A00     		lsls	r2, r1, #1
 332              		.loc 1 126 0
 333 0006 012E     		cmp	r6, #1
 122:soft_uart.c   **** 	unsigned short data_tosend;
 334              		.loc 1 122 0
 335 0008 0546     		mov	r5, r0
 125:soft_uart.c   **** 	if (s->parity==PARITY_ODD)
 336              		.loc 1 125 0
 337 000a 97B2     		uxth	r7, r2
 338              	.LVL21:
 339 000c 8468     		ldr	r4, [r0, #8]
 340              		.loc 1 126 0
 341 000e 05D1     		bne	.L26
 127:soft_uart.c   **** 	  {
 128:soft_uart.c   ****         parity = getOddParity(c);
 342              		.loc 1 128 0
 343 0010 C8B2     		uxtb	r0, r1
 344              	.LVL22:
 345 0012 FFF7FEFF 		bl	getOddParity
 346              	.LVL23:
 129:soft_uart.c   **** 		data_tosend |= parity ? (0x300 << s->stop_bits) : (0x200 << s->stop_bits);
 347              		.loc 1 129 0
 348 0016 BAB2     		uxth	r2, r7
 349 0018 38B1     		cbz	r0, .L42
 350 001a 09E0     		b	.L31
 351              	.LVL24:
 352              	.L26:
 130:soft_uart.c   **** 	  }
 131:soft_uart.c   **** 	else if (s->parity==PARITY_EVEN)
 353              		.loc 1 131 0
 354 001c 022E     		cmp	r6, #2
 355 001e 0DD1     		bne	.L30
 132:soft_uart.c   **** 	  {
 133:soft_uart.c   ****          parity = getOddParity(c);
 356              		.loc 1 133 0
 357 0020 C8B2     		uxtb	r0, r1
 358              	.LVL25:
 359 0022 FFF7FEFF 		bl	getOddParity
 360              	.LVL26:
 134:soft_uart.c   **** 		data_tosend |= parity ?  (0x200 << s->stop_bits) : (0x300 << s->stop_bits);
 361              		.loc 1 134 0
 362 0026 BAB2     		uxth	r2, r7
 363 0028 10B1     		cbz	r0, .L31
 364              	.LVL27:
 365              	.L42:
ARM GAS  C:\Users\yqh\AppData\Local\Temp\ccVcLyn3.s 			page 10


 366              		.loc 1 134 0 is_stmt 0 discriminator 1
 367 002a 4FF40073 		mov	r3, #512
 368 002e 01E0     		b	.L39
 369              	.L31:
 370              		.loc 1 134 0 discriminator 2
 371 0030 4FF44073 		mov	r3, #768
 372              	.L39:
 373 0034 A340     		lsls	r3, r3, r4
 374 0036 9BB2     		uxth	r3, r3
 375 0038 1343     		orrs	r3, r3, r2
 376              	.LVL28:
 377 003a 06E0     		b	.L33
 378              	.LVL29:
 379              	.L30:
 135:soft_uart.c   **** 	  }
 136:soft_uart.c   **** 	else
 137:soft_uart.c   **** 		data_tosend |=  1<<(s->bits + s->stop_bits);
 380              		.loc 1 137 0 is_stmt 1
 381 003c C368     		ldr	r3, [r0, #12]
 382 003e 0121     		movs	r1, #1
 383              	.LVL30:
 384 0040 2344     		add	r3, r3, r4
 385 0042 9940     		lsls	r1, r1, r3
 386 0044 47EA0103 		orr	r3, r7, r1
 387 0048 9BB2     		uxth	r3, r3
 388              	.LVL31:
 389              	.L33:
 138:soft_uart.c   **** 	// wait for it to be ready
 139:soft_uart.c   **** 	while ((s->flags&TX_READY)==0);
 390              		.loc 1 139 0 discriminator 1
 391 004a AA69     		ldr	r2, [r5, #24]
 392 004c 9207     		lsls	r2, r2, #30
 393 004e FCD5     		bpl	.L33
 140:soft_uart.c   **** 
 141:soft_uart.c   **** 	CyGlobalIntDisable;
 394              		.loc 1 141 0
 395              	@ 141 "soft_uart.c" 1
 396 0050 72B6     		CPSID   i
 397              	@ 0 "" 2
 142:soft_uart.c   **** 	s->flags &=~TX_READY;
 398              		.loc 1 142 0
 399              		.thumb
 400 0052 AA69     		ldr	r2, [r5, #24]
 401 0054 22F00202 		bic	r2, r2, #2
 402 0058 AA61     		str	r2, [r5, #24]
 143:soft_uart.c   **** 	CyGlobalIntEnable;
 403              		.loc 1 143 0
 404              	@ 143 "soft_uart.c" 1
 405 005a 62B6     		CPSIE   i
 406              	@ 0 "" 2
 144:soft_uart.c   **** 	s->tx_byte = data_tosend;
 407              		.loc 1 144 0
 408              		.thumb
 409 005c 6B82     		strh	r3, [r5, #18]	@ movhi
 145:soft_uart.c   **** 	s->timer_tx_ctr = 3;
 410              		.loc 1 145 0
 411 005e 0323     		movs	r3, #3
ARM GAS  C:\Users\yqh\AppData\Local\Temp\ccVcLyn3.s 			page 11


 412 0060 EB61     		str	r3, [r5, #28]
 413 0062 EB68     		ldr	r3, [r5, #12]
 146:soft_uart.c   ****     if(s->parity != PARITY_NONE)
 147:soft_uart.c   ****     	s->tx_bits = s->bits+s->stop_bits+ 2;
 414              		.loc 1 147 0
 415 0064 1C44     		add	r4, r4, r3
 146:soft_uart.c   ****     if(s->parity != PARITY_NONE)
 416              		.loc 1 146 0
 417 0066 0EB1     		cbz	r6, .L34
 418              		.loc 1 147 0
 419 0068 0234     		adds	r4, r4, #2
 420 006a 00E0     		b	.L41
 421              	.L34:
 148:soft_uart.c   ****     else
 149:soft_uart.c   ****     	s->tx_bits = s->bits+s->stop_bits+ 1;
 422              		.loc 1 149 0
 423 006c 0134     		adds	r4, r4, #1
 424              	.L41:
 425 006e A4B2     		uxth	r4, r4
 426 0070 AC82     		strh	r4, [r5, #20]	@ movhi
 427 0072 F8BD     		pop	{r3, r4, r5, r6, r7, pc}
 428              		.cfi_endproc
 429              	.LFE68:
 430              		.size	SU_PutChar, .-SU_PutChar
 431              		.text
 432              	.Letext0:
 433              		.file 2 "c:\\program files (x86)\\cypress\\psoc creator\\4.0\\psoc creator\\import\\gnu\\arm\\4.9.
 434              		.file 3 "c:\\program files (x86)\\cypress\\psoc creator\\4.0\\psoc creator\\import\\gnu\\arm\\4.9.
 435              		.file 4 "Generated_Source\\PSoC5/cytypes.h"
 436              		.file 5 "softuart.h"
 437              		.file 6 "Generated_Source\\PSoC5/core_cm3.h"
 438              		.file 7 "Generated_Source\\PSoC5/OptSelect.h"
 439              		.file 8 "Generated_Source\\PSoC5/Pin_WD0.h"