ARM GAS  C:\Users\Rajesh\AppData\Local\Temp\ccoQU45k.s 			page 1


   1              		.syntax unified
   2              		.cpu cortex-m0
   3              		.fpu softvfp
   4              		.eabi_attribute 20, 1
   5              		.eabi_attribute 21, 1
   6              		.eabi_attribute 23, 3
   7              		.eabi_attribute 24, 1
   8              		.eabi_attribute 25, 1
   9              		.eabi_attribute 26, 1
  10              		.eabi_attribute 30, 1
  11              		.eabi_attribute 34, 0
  12              		.eabi_attribute 18, 4
  13              		.thumb
  14              		.syntax unified
  15              		.file	"IDAC_2_PM.c"
  16              		.text
  17              	.Ltext0:
  18              		.cfi_sections	.debug_frame
  19              		.section	.text.IDAC_2_SaveConfig,"ax",%progbits
  20              		.align	2
  21              		.global	IDAC_2_SaveConfig
  22              		.code	16
  23              		.thumb_func
  24              		.type	IDAC_2_SaveConfig, %function
  25              	IDAC_2_SaveConfig:
  26              	.LFB0:
  27              		.file 1 "Generated_Source\\PSoC4\\IDAC_2_PM.c"
   1:Generated_Source\PSoC4/IDAC_2_PM.c **** /*******************************************************************************
   2:Generated_Source\PSoC4/IDAC_2_PM.c **** * File Name: IDAC_2_PM.c
   3:Generated_Source\PSoC4/IDAC_2_PM.c **** * Version 1.10
   4:Generated_Source\PSoC4/IDAC_2_PM.c **** *
   5:Generated_Source\PSoC4/IDAC_2_PM.c **** * Description:
   6:Generated_Source\PSoC4/IDAC_2_PM.c **** *  This file provides Low power mode APIs for IDAC_P4 component.
   7:Generated_Source\PSoC4/IDAC_2_PM.c **** *
   8:Generated_Source\PSoC4/IDAC_2_PM.c **** ********************************************************************************
   9:Generated_Source\PSoC4/IDAC_2_PM.c **** * Copyright 2013-2015, Cypress Semiconductor Corporation.  All rights reserved.
  10:Generated_Source\PSoC4/IDAC_2_PM.c **** * You may use this file only in accordance with the license, terms, conditions,
  11:Generated_Source\PSoC4/IDAC_2_PM.c **** * disclaimers, and limitations in the end user license agreement accompanying
  12:Generated_Source\PSoC4/IDAC_2_PM.c **** * the software package with which this file was provided.
  13:Generated_Source\PSoC4/IDAC_2_PM.c **** *******************************************************************************/
  14:Generated_Source\PSoC4/IDAC_2_PM.c **** 
  15:Generated_Source\PSoC4/IDAC_2_PM.c **** #include "IDAC_2.h"
  16:Generated_Source\PSoC4/IDAC_2_PM.c **** 
  17:Generated_Source\PSoC4/IDAC_2_PM.c **** 
  18:Generated_Source\PSoC4/IDAC_2_PM.c **** static IDAC_2_BACKUP_STRUCT IDAC_2_backup;
  19:Generated_Source\PSoC4/IDAC_2_PM.c **** 
  20:Generated_Source\PSoC4/IDAC_2_PM.c **** 
  21:Generated_Source\PSoC4/IDAC_2_PM.c **** /*******************************************************************************
  22:Generated_Source\PSoC4/IDAC_2_PM.c **** * Function Name: IDAC_2_SaveConfig
  23:Generated_Source\PSoC4/IDAC_2_PM.c **** ********************************************************************************
  24:Generated_Source\PSoC4/IDAC_2_PM.c **** *
  25:Generated_Source\PSoC4/IDAC_2_PM.c **** * Summary:
  26:Generated_Source\PSoC4/IDAC_2_PM.c **** *  Saves component state before sleep
  27:Generated_Source\PSoC4/IDAC_2_PM.c **** * Parameters:
  28:Generated_Source\PSoC4/IDAC_2_PM.c **** *  None
  29:Generated_Source\PSoC4/IDAC_2_PM.c **** *
  30:Generated_Source\PSoC4/IDAC_2_PM.c **** * Return:
ARM GAS  C:\Users\Rajesh\AppData\Local\Temp\ccoQU45k.s 			page 2


  31:Generated_Source\PSoC4/IDAC_2_PM.c **** *  None
  32:Generated_Source\PSoC4/IDAC_2_PM.c **** *
  33:Generated_Source\PSoC4/IDAC_2_PM.c **** * Global Variables:
  34:Generated_Source\PSoC4/IDAC_2_PM.c **** *  None
  35:Generated_Source\PSoC4/IDAC_2_PM.c **** *
  36:Generated_Source\PSoC4/IDAC_2_PM.c **** *******************************************************************************/
  37:Generated_Source\PSoC4/IDAC_2_PM.c **** void IDAC_2_SaveConfig(void)
  38:Generated_Source\PSoC4/IDAC_2_PM.c **** {
  28              		.loc 1 38 0
  29              		.cfi_startproc
  30              		@ args = 0, pretend = 0, frame = 0
  31              		@ frame_needed = 0, uses_anonymous_args = 0
  32              		@ link register save eliminated.
  39:Generated_Source\PSoC4/IDAC_2_PM.c ****     /* All registers are retention - nothing to save */
  40:Generated_Source\PSoC4/IDAC_2_PM.c **** }
  33              		.loc 1 40 0
  34              		@ sp needed
  35 0000 7047     		bx	lr
  36              		.cfi_endproc
  37              	.LFE0:
  38              		.size	IDAC_2_SaveConfig, .-IDAC_2_SaveConfig
  39 0002 C046     		.section	.text.IDAC_2_Sleep,"ax",%progbits
  40              		.align	2
  41              		.global	IDAC_2_Sleep
  42              		.code	16
  43              		.thumb_func
  44              		.type	IDAC_2_Sleep, %function
  45              	IDAC_2_Sleep:
  46              	.LFB1:
  41:Generated_Source\PSoC4/IDAC_2_PM.c **** 
  42:Generated_Source\PSoC4/IDAC_2_PM.c **** 
  43:Generated_Source\PSoC4/IDAC_2_PM.c **** /*******************************************************************************
  44:Generated_Source\PSoC4/IDAC_2_PM.c **** * Function Name: IDAC_2_Sleep
  45:Generated_Source\PSoC4/IDAC_2_PM.c **** ********************************************************************************
  46:Generated_Source\PSoC4/IDAC_2_PM.c **** *
  47:Generated_Source\PSoC4/IDAC_2_PM.c **** * Summary:
  48:Generated_Source\PSoC4/IDAC_2_PM.c **** *  Calls _SaveConfig() function
  49:Generated_Source\PSoC4/IDAC_2_PM.c **** * Parameters:
  50:Generated_Source\PSoC4/IDAC_2_PM.c **** *  None
  51:Generated_Source\PSoC4/IDAC_2_PM.c **** *
  52:Generated_Source\PSoC4/IDAC_2_PM.c **** * Return:
  53:Generated_Source\PSoC4/IDAC_2_PM.c **** *  None
  54:Generated_Source\PSoC4/IDAC_2_PM.c **** *
  55:Generated_Source\PSoC4/IDAC_2_PM.c **** *******************************************************************************/
  56:Generated_Source\PSoC4/IDAC_2_PM.c **** void IDAC_2_Sleep(void)
  57:Generated_Source\PSoC4/IDAC_2_PM.c **** {
  47              		.loc 1 57 0
  48              		.cfi_startproc
  49              		@ args = 0, pretend = 0, frame = 0
  50              		@ frame_needed = 0, uses_anonymous_args = 0
  51 0000 10B5     		push	{r4, lr}
  52              		.cfi_def_cfa_offset 8
  53              		.cfi_offset 4, -8
  54              		.cfi_offset 14, -4
  58:Generated_Source\PSoC4/IDAC_2_PM.c ****         if(0u != (IDAC_2_IDAC_CONTROL_REG & ((uint32)IDAC_2_IDAC_MODE_MASK <<
  55              		.loc 1 58 0
  56 0002 084B     		ldr	r3, .L5
ARM GAS  C:\Users\Rajesh\AppData\Local\Temp\ccoQU45k.s 			page 3


  57 0004 1A68     		ldr	r2, [r3]
  58 0006 C023     		movs	r3, #192
  59 0008 9B04     		lsls	r3, r3, #18
  60 000a 1A42     		tst	r2, r3
  61 000c 03D0     		beq	.L3
  59:Generated_Source\PSoC4/IDAC_2_PM.c ****         IDAC_2_IDAC_MODE_POSITION)))
  60:Generated_Source\PSoC4/IDAC_2_PM.c ****         {
  61:Generated_Source\PSoC4/IDAC_2_PM.c ****             IDAC_2_backup.enableState = 1u;
  62              		.loc 1 61 0
  63 000e 0122     		movs	r2, #1
  64 0010 054B     		ldr	r3, .L5+4
  65 0012 1A70     		strb	r2, [r3]
  66 0014 02E0     		b	.L4
  67              	.L3:
  62:Generated_Source\PSoC4/IDAC_2_PM.c ****         }
  63:Generated_Source\PSoC4/IDAC_2_PM.c ****         else
  64:Generated_Source\PSoC4/IDAC_2_PM.c ****         {
  65:Generated_Source\PSoC4/IDAC_2_PM.c ****             IDAC_2_backup.enableState = 0u;
  68              		.loc 1 65 0
  69 0016 0022     		movs	r2, #0
  70 0018 034B     		ldr	r3, .L5+4
  71 001a 1A70     		strb	r2, [r3]
  72              	.L4:
  66:Generated_Source\PSoC4/IDAC_2_PM.c ****         }
  67:Generated_Source\PSoC4/IDAC_2_PM.c **** 
  68:Generated_Source\PSoC4/IDAC_2_PM.c ****     IDAC_2_Stop();
  73              		.loc 1 68 0
  74 001c FFF7FEFF 		bl	IDAC_2_Stop
  75              	.LVL0:
  69:Generated_Source\PSoC4/IDAC_2_PM.c ****     IDAC_2_SaveConfig();
  70:Generated_Source\PSoC4/IDAC_2_PM.c **** }
  76              		.loc 1 70 0
  77              		@ sp needed
  78 0020 10BD     		pop	{r4, pc}
  79              	.L6:
  80 0022 C046     		.align	2
  81              	.L5:
  82 0024 08000840 		.word	1074266120
  83 0028 00000000 		.word	.LANCHOR0
  84              		.cfi_endproc
  85              	.LFE1:
  86              		.size	IDAC_2_Sleep, .-IDAC_2_Sleep
  87              		.section	.text.IDAC_2_RestoreConfig,"ax",%progbits
  88              		.align	2
  89              		.global	IDAC_2_RestoreConfig
  90              		.code	16
  91              		.thumb_func
  92              		.type	IDAC_2_RestoreConfig, %function
  93              	IDAC_2_RestoreConfig:
  94              	.LFB2:
  71:Generated_Source\PSoC4/IDAC_2_PM.c **** 
  72:Generated_Source\PSoC4/IDAC_2_PM.c **** 
  73:Generated_Source\PSoC4/IDAC_2_PM.c **** /*******************************************************************************
  74:Generated_Source\PSoC4/IDAC_2_PM.c **** * Function Name: IDAC_2_RestoreConfig
  75:Generated_Source\PSoC4/IDAC_2_PM.c **** ********************************************************************************
  76:Generated_Source\PSoC4/IDAC_2_PM.c **** *
  77:Generated_Source\PSoC4/IDAC_2_PM.c **** * Summary:
ARM GAS  C:\Users\Rajesh\AppData\Local\Temp\ccoQU45k.s 			page 4


  78:Generated_Source\PSoC4/IDAC_2_PM.c **** *  Restores component state after wakeup
  79:Generated_Source\PSoC4/IDAC_2_PM.c **** * Parameters:
  80:Generated_Source\PSoC4/IDAC_2_PM.c **** *  None
  81:Generated_Source\PSoC4/IDAC_2_PM.c **** *
  82:Generated_Source\PSoC4/IDAC_2_PM.c **** * Return:
  83:Generated_Source\PSoC4/IDAC_2_PM.c **** *  None
  84:Generated_Source\PSoC4/IDAC_2_PM.c **** *
  85:Generated_Source\PSoC4/IDAC_2_PM.c **** * Global Variables:
  86:Generated_Source\PSoC4/IDAC_2_PM.c **** *  None
  87:Generated_Source\PSoC4/IDAC_2_PM.c **** *
  88:Generated_Source\PSoC4/IDAC_2_PM.c **** *******************************************************************************/
  89:Generated_Source\PSoC4/IDAC_2_PM.c **** void IDAC_2_RestoreConfig(void)
  90:Generated_Source\PSoC4/IDAC_2_PM.c **** {
  95              		.loc 1 90 0
  96              		.cfi_startproc
  97              		@ args = 0, pretend = 0, frame = 0
  98              		@ frame_needed = 0, uses_anonymous_args = 0
  99              		@ link register save eliminated.
  91:Generated_Source\PSoC4/IDAC_2_PM.c ****     /* All registers are retention - nothing to save */
  92:Generated_Source\PSoC4/IDAC_2_PM.c **** }
 100              		.loc 1 92 0
 101              		@ sp needed
 102 0000 7047     		bx	lr
 103              		.cfi_endproc
 104              	.LFE2:
 105              		.size	IDAC_2_RestoreConfig, .-IDAC_2_RestoreConfig
 106 0002 C046     		.section	.text.IDAC_2_Wakeup,"ax",%progbits
 107              		.align	2
 108              		.global	IDAC_2_Wakeup
 109              		.code	16
 110              		.thumb_func
 111              		.type	IDAC_2_Wakeup, %function
 112              	IDAC_2_Wakeup:
 113              	.LFB3:
  93:Generated_Source\PSoC4/IDAC_2_PM.c **** 
  94:Generated_Source\PSoC4/IDAC_2_PM.c **** 
  95:Generated_Source\PSoC4/IDAC_2_PM.c **** /*******************************************************************************
  96:Generated_Source\PSoC4/IDAC_2_PM.c **** * Function Name: IDAC_2_Wakeup
  97:Generated_Source\PSoC4/IDAC_2_PM.c **** ********************************************************************************
  98:Generated_Source\PSoC4/IDAC_2_PM.c **** *
  99:Generated_Source\PSoC4/IDAC_2_PM.c **** * Summary:
 100:Generated_Source\PSoC4/IDAC_2_PM.c **** *  Calls _RestoreConfig() function
 101:Generated_Source\PSoC4/IDAC_2_PM.c **** * Parameters:
 102:Generated_Source\PSoC4/IDAC_2_PM.c **** *  None
 103:Generated_Source\PSoC4/IDAC_2_PM.c **** *
 104:Generated_Source\PSoC4/IDAC_2_PM.c **** * Return:
 105:Generated_Source\PSoC4/IDAC_2_PM.c **** *  None
 106:Generated_Source\PSoC4/IDAC_2_PM.c **** *
 107:Generated_Source\PSoC4/IDAC_2_PM.c **** *******************************************************************************/
 108:Generated_Source\PSoC4/IDAC_2_PM.c **** void IDAC_2_Wakeup(void)
 109:Generated_Source\PSoC4/IDAC_2_PM.c **** {
 114              		.loc 1 109 0
 115              		.cfi_startproc
 116              		@ args = 0, pretend = 0, frame = 0
 117              		@ frame_needed = 0, uses_anonymous_args = 0
 118 0000 10B5     		push	{r4, lr}
 119              		.cfi_def_cfa_offset 8
ARM GAS  C:\Users\Rajesh\AppData\Local\Temp\ccoQU45k.s 			page 5


 120              		.cfi_offset 4, -8
 121              		.cfi_offset 14, -4
 110:Generated_Source\PSoC4/IDAC_2_PM.c ****     /* Restore IDAC register settings */
 111:Generated_Source\PSoC4/IDAC_2_PM.c ****     IDAC_2_RestoreConfig();
 112:Generated_Source\PSoC4/IDAC_2_PM.c ****     if(IDAC_2_backup.enableState == 1u)
 122              		.loc 1 112 0
 123 0002 034B     		ldr	r3, .L10
 124 0004 1B78     		ldrb	r3, [r3]
 125 0006 012B     		cmp	r3, #1
 126 0008 01D1     		bne	.L8
 113:Generated_Source\PSoC4/IDAC_2_PM.c ****     {
 114:Generated_Source\PSoC4/IDAC_2_PM.c ****         /* Enable operation */
 115:Generated_Source\PSoC4/IDAC_2_PM.c ****         IDAC_2_Enable();
 127              		.loc 1 115 0
 128 000a FFF7FEFF 		bl	IDAC_2_Enable
 129              	.LVL1:
 130              	.L8:
 116:Generated_Source\PSoC4/IDAC_2_PM.c ****     } /* Do nothing if the component was disabled before */
 117:Generated_Source\PSoC4/IDAC_2_PM.c **** 
 118:Generated_Source\PSoC4/IDAC_2_PM.c **** }
 131              		.loc 1 118 0
 132              		@ sp needed
 133 000e 10BD     		pop	{r4, pc}
 134              	.L11:
 135              		.align	2
 136              	.L10:
 137 0010 00000000 		.word	.LANCHOR0
 138              		.cfi_endproc
 139              	.LFE3:
 140              		.size	IDAC_2_Wakeup, .-IDAC_2_Wakeup
 141              		.bss
 142              		.align	2
 143              		.set	.LANCHOR0,. + 0
 144              		.type	IDAC_2_backup, %object
 145              		.size	IDAC_2_backup, 1
 146              	IDAC_2_backup:
 147 0000 00       		.space	1
 148              		.text
 149              	.Letext0:
 150              		.file 2 "Generated_Source\\PSoC4\\cytypes.h"
 151              		.file 3 "Generated_Source\\PSoC4\\IDAC_2.h"