ARM GAS  C:\Users\Rajesh\AppData\Local\Temp\ccFou9eL.s 			page 1


   1              		.syntax unified
   2              		.cpu cortex-m0
   3              		.fpu softvfp
   4              		.eabi_attribute 20, 1
   5              		.eabi_attribute 21, 1
   6              		.eabi_attribute 23, 3
   7              		.eabi_attribute 24, 1
   8              		.eabi_attribute 25, 1
   9              		.eabi_attribute 26, 1
  10              		.eabi_attribute 30, 1
  11              		.eabi_attribute 34, 0
  12              		.eabi_attribute 18, 4
  13              		.thumb
  14              		.syntax unified
  15              		.file	"vl53l0x_api_calibration.c"
  16              		.text
  17              	.Ltext0:
  18              		.cfi_sections	.debug_frame
  19              		.global	__aeabi_uidiv
  20              		.section	.text.VL53L0X_perform_xtalk_calibration,"ax",%progbits
  21              		.align	2
  22              		.global	VL53L0X_perform_xtalk_calibration
  23              		.code	16
  24              		.thumb_func
  25              		.type	VL53L0X_perform_xtalk_calibration, %function
  26              	VL53L0X_perform_xtalk_calibration:
  27              	.LFB1:
  28              		.file 1 "Api\\core\\src\\vl53l0x_api_calibration.c"
   1:Api\core\src/vl53l0x_api_calibration.c **** /*******************************************************************************
   2:Api\core\src/vl53l0x_api_calibration.c ****  Copyright © 2016, STMicroelectronics International N.V.
   3:Api\core\src/vl53l0x_api_calibration.c ****  All rights reserved.
   4:Api\core\src/vl53l0x_api_calibration.c **** 
   5:Api\core\src/vl53l0x_api_calibration.c ****  Redistribution and use in source and binary forms, with or without
   6:Api\core\src/vl53l0x_api_calibration.c ****  modification, are permitted provided that the following conditions are met:
   7:Api\core\src/vl53l0x_api_calibration.c ****  * Redistributions of source code must retain the above copyright
   8:Api\core\src/vl53l0x_api_calibration.c ****  notice, this list of conditions and the following disclaimer.
   9:Api\core\src/vl53l0x_api_calibration.c ****  * Redistributions in binary form must reproduce the above copyright
  10:Api\core\src/vl53l0x_api_calibration.c ****  notice, this list of conditions and the following disclaimer in the
  11:Api\core\src/vl53l0x_api_calibration.c ****  documentation and/or other materials provided with the distribution.
  12:Api\core\src/vl53l0x_api_calibration.c ****  * Neither the name of STMicroelectronics nor the
  13:Api\core\src/vl53l0x_api_calibration.c ****  names of its contributors may be used to endorse or promote products
  14:Api\core\src/vl53l0x_api_calibration.c ****  derived from this software without specific prior written permission.
  15:Api\core\src/vl53l0x_api_calibration.c **** 
  16:Api\core\src/vl53l0x_api_calibration.c ****  THIS SOFTWARE IS PROVIDED BY THE COPYRIGHT HOLDERS AND CONTRIBUTORS "AS IS" AND
  17:Api\core\src/vl53l0x_api_calibration.c ****  ANY EXPRESS OR IMPLIED WARRANTIES, INCLUDING, BUT NOT LIMITED TO, THE IMPLIED
  18:Api\core\src/vl53l0x_api_calibration.c ****  WARRANTIES OF MERCHANTABILITY, FITNESS FOR A PARTICULAR PURPOSE, AND
  19:Api\core\src/vl53l0x_api_calibration.c ****  NON-INFRINGEMENT OF INTELLECTUAL PROPERTY RIGHTS ARE DISCLAIMED.
  20:Api\core\src/vl53l0x_api_calibration.c ****  IN NO EVENT SHALL STMICROELECTRONICS INTERNATIONAL N.V. BE LIABLE FOR ANY
  21:Api\core\src/vl53l0x_api_calibration.c ****  DIRECT, INDIRECT, INCIDENTAL, SPECIAL, EXEMPLARY, OR CONSEQUENTIAL DAMAGES
  22:Api\core\src/vl53l0x_api_calibration.c ****  (INCLUDING, BUT NOT LIMITED TO, PROCUREMENT OF SUBSTITUTE GOODS OR SERVICES;
  23:Api\core\src/vl53l0x_api_calibration.c ****  LOSS OF USE, DATA, OR PROFITS; OR BUSINESS INTERRUPTION) HOWEVER CAUSED AND
  24:Api\core\src/vl53l0x_api_calibration.c ****  ON ANY THEORY OF LIABILITY, WHETHER IN CONTRACT, STRICT LIABILITY, OR TORT
  25:Api\core\src/vl53l0x_api_calibration.c ****  (INCLUDING NEGLIGENCE OR OTHERWISE) ARISING IN ANY WAY OUT OF THE USE OF THIS
  26:Api\core\src/vl53l0x_api_calibration.c ****  SOFTWARE, EVEN IF ADVISED OF THE POSSIBILITY OF SUCH DAMAGE.
  27:Api\core\src/vl53l0x_api_calibration.c ****  ******************************************************************************/
  28:Api\core\src/vl53l0x_api_calibration.c **** 
  29:Api\core\src/vl53l0x_api_calibration.c **** #include "vl53l0x_api.h"
ARM GAS  C:\Users\Rajesh\AppData\Local\Temp\ccFou9eL.s 			page 2


  30:Api\core\src/vl53l0x_api_calibration.c **** #include "vl53l0x_api_core.h"
  31:Api\core\src/vl53l0x_api_calibration.c **** #include "vl53l0x_api_calibration.h"
  32:Api\core\src/vl53l0x_api_calibration.c **** 
  33:Api\core\src/vl53l0x_api_calibration.c **** #ifndef __KERNEL__
  34:Api\core\src/vl53l0x_api_calibration.c **** #include <stdlib.h>
  35:Api\core\src/vl53l0x_api_calibration.c **** #endif
  36:Api\core\src/vl53l0x_api_calibration.c **** 
  37:Api\core\src/vl53l0x_api_calibration.c **** #define LOG_FUNCTION_START(fmt, ...) \
  38:Api\core\src/vl53l0x_api_calibration.c **** 	_LOG_FUNCTION_START(TRACE_MODULE_API, fmt, ##__VA_ARGS__)
  39:Api\core\src/vl53l0x_api_calibration.c **** #define LOG_FUNCTION_END(status, ...) \
  40:Api\core\src/vl53l0x_api_calibration.c **** 	_LOG_FUNCTION_END(TRACE_MODULE_API, status, ##__VA_ARGS__)
  41:Api\core\src/vl53l0x_api_calibration.c **** #define LOG_FUNCTION_END_FMT(status, fmt, ...) \
  42:Api\core\src/vl53l0x_api_calibration.c **** 	_LOG_FUNCTION_END_FMT(TRACE_MODULE_API, status, fmt, ##__VA_ARGS__)
  43:Api\core\src/vl53l0x_api_calibration.c **** 
  44:Api\core\src/vl53l0x_api_calibration.c **** #define REF_ARRAY_SPAD_0  0
  45:Api\core\src/vl53l0x_api_calibration.c **** #define REF_ARRAY_SPAD_5  5
  46:Api\core\src/vl53l0x_api_calibration.c **** #define REF_ARRAY_SPAD_10 10
  47:Api\core\src/vl53l0x_api_calibration.c **** 
  48:Api\core\src/vl53l0x_api_calibration.c **** uint32_t refArrayQuadrants[4] = {REF_ARRAY_SPAD_10, REF_ARRAY_SPAD_5,
  49:Api\core\src/vl53l0x_api_calibration.c **** 		REF_ARRAY_SPAD_0, REF_ARRAY_SPAD_5 };
  50:Api\core\src/vl53l0x_api_calibration.c **** 
  51:Api\core\src/vl53l0x_api_calibration.c **** VL53L0X_Error VL53L0X_perform_xtalk_calibration(VL53L0X_DEV Dev,
  52:Api\core\src/vl53l0x_api_calibration.c **** 			FixPoint1616_t XTalkCalDistance,
  53:Api\core\src/vl53l0x_api_calibration.c **** 			FixPoint1616_t *pXTalkCompensationRateMegaCps)
  54:Api\core\src/vl53l0x_api_calibration.c **** {
  29              		.loc 1 54 0
  30              		.cfi_startproc
  31              		@ args = 0, pretend = 0, frame = 40
  32              		@ frame_needed = 0, uses_anonymous_args = 0
  33              	.LVL0:
  34 0000 F0B5     		push	{r4, r5, r6, r7, lr}
  35              		.cfi_def_cfa_offset 20
  36              		.cfi_offset 4, -20
  37              		.cfi_offset 5, -16
  38              		.cfi_offset 6, -12
  39              		.cfi_offset 7, -8
  40              		.cfi_offset 14, -4
  41 0002 5F46     		mov	r7, fp
  42 0004 5646     		mov	r6, r10
  43 0006 4D46     		mov	r5, r9
  44 0008 4446     		mov	r4, r8
  45 000a F0B4     		push	{r4, r5, r6, r7}
  46              		.cfi_def_cfa_offset 36
  47              		.cfi_offset 8, -36
  48              		.cfi_offset 9, -32
  49              		.cfi_offset 10, -28
  50              		.cfi_offset 11, -24
  51 000c 8BB0     		sub	sp, sp, #44
  52              		.cfi_def_cfa_offset 80
  53 000e 0090     		str	r0, [sp]
  54 0010 8846     		mov	r8, r1
  55 0012 9246     		mov	r10, r2
  56              	.LVL1:
  55:Api\core\src/vl53l0x_api_calibration.c **** 	VL53L0X_Error Status = VL53L0X_ERROR_NONE;
  56:Api\core\src/vl53l0x_api_calibration.c **** 	uint16_t sum_ranging = 0;
  57:Api\core\src/vl53l0x_api_calibration.c **** 	uint16_t sum_spads = 0;
  58:Api\core\src/vl53l0x_api_calibration.c **** 	FixPoint1616_t sum_signalRate = 0;
ARM GAS  C:\Users\Rajesh\AppData\Local\Temp\ccFou9eL.s 			page 3


  59:Api\core\src/vl53l0x_api_calibration.c **** 	FixPoint1616_t total_count = 0;
  60:Api\core\src/vl53l0x_api_calibration.c **** 	uint8_t xtalk_meas = 0;
  61:Api\core\src/vl53l0x_api_calibration.c **** 	VL53L0X_RangingMeasurementData_t RangingMeasurementData;
  62:Api\core\src/vl53l0x_api_calibration.c **** 	FixPoint1616_t xTalkStoredMeanSignalRate;
  63:Api\core\src/vl53l0x_api_calibration.c **** 	FixPoint1616_t xTalkStoredMeanRange;
  64:Api\core\src/vl53l0x_api_calibration.c **** 	FixPoint1616_t xTalkStoredMeanRtnSpads;
  65:Api\core\src/vl53l0x_api_calibration.c **** 	uint32_t signalXTalkTotalPerSpad;
  66:Api\core\src/vl53l0x_api_calibration.c **** 	uint32_t xTalkStoredMeanRtnSpadsAsInt;
  67:Api\core\src/vl53l0x_api_calibration.c **** 	uint32_t xTalkCalDistanceAsInt;
  68:Api\core\src/vl53l0x_api_calibration.c **** 	FixPoint1616_t XTalkCompensationRateMegaCps;
  69:Api\core\src/vl53l0x_api_calibration.c **** 
  70:Api\core\src/vl53l0x_api_calibration.c **** 	if (XTalkCalDistance <= 0)
  57              		.loc 1 70 0
  58 0014 0029     		cmp	r1, #0
  59 0016 01D0     		beq	.L13
  55:Api\core\src/vl53l0x_api_calibration.c **** 	VL53L0X_Error Status = VL53L0X_ERROR_NONE;
  60              		.loc 1 55 0
  61 0018 0024     		movs	r4, #0
  62 001a 01E0     		b	.L2
  63              	.L13:
  71:Api\core\src/vl53l0x_api_calibration.c **** 		Status = VL53L0X_ERROR_INVALID_PARAMS;
  64              		.loc 1 71 0
  65 001c 0424     		movs	r4, #4
  66 001e 6442     		rsbs	r4, r4, #0
  67              	.L2:
  68              	.LVL2:
  72:Api\core\src/vl53l0x_api_calibration.c **** 
  73:Api\core\src/vl53l0x_api_calibration.c **** 	/* Disable the XTalk compensation */
  74:Api\core\src/vl53l0x_api_calibration.c **** 	if (Status == VL53L0X_ERROR_NONE)
  69              		.loc 1 74 0
  70 0020 002C     		cmp	r4, #0
  71 0022 04D1     		bne	.L3
  75:Api\core\src/vl53l0x_api_calibration.c **** 		Status = VL53L0X_SetXTalkCompensationEnable(Dev, 0);
  72              		.loc 1 75 0
  73 0024 0021     		movs	r1, #0
  74              	.LVL3:
  75 0026 0098     		ldr	r0, [sp]
  76              	.LVL4:
  77 0028 FFF7FEFF 		bl	VL53L0X_SetXTalkCompensationEnable
  78              	.LVL5:
  79 002c 0400     		movs	r4, r0
  80              	.LVL6:
  81              	.L3:
  76:Api\core\src/vl53l0x_api_calibration.c **** 
  77:Api\core\src/vl53l0x_api_calibration.c **** 	/* Disable the RIT */
  78:Api\core\src/vl53l0x_api_calibration.c **** 	if (Status == VL53L0X_ERROR_NONE) {
  82              		.loc 1 78 0
  83 002e 002C     		cmp	r4, #0
  84 0030 05D1     		bne	.L4
  79:Api\core\src/vl53l0x_api_calibration.c **** 		Status = VL53L0X_SetLimitCheckEnable(Dev,
  85              		.loc 1 79 0
  86 0032 0022     		movs	r2, #0
  87 0034 0321     		movs	r1, #3
  88 0036 0098     		ldr	r0, [sp]
  89 0038 FFF7FEFF 		bl	VL53L0X_SetLimitCheckEnable
  90              	.LVL7:
  91 003c 0400     		movs	r4, r0
ARM GAS  C:\Users\Rajesh\AppData\Local\Temp\ccFou9eL.s 			page 4


  92              	.LVL8:
  93              	.L4:
  80:Api\core\src/vl53l0x_api_calibration.c **** 				VL53L0X_CHECKENABLE_RANGE_IGNORE_THRESHOLD, 0);
  81:Api\core\src/vl53l0x_api_calibration.c **** 	}
  82:Api\core\src/vl53l0x_api_calibration.c **** 
  83:Api\core\src/vl53l0x_api_calibration.c **** 	/* Perform 50 measurements and compute the averages */
  84:Api\core\src/vl53l0x_api_calibration.c **** 	if (Status == VL53L0X_ERROR_NONE) {
  94              		.loc 1 84 0
  95 003e 002C     		cmp	r4, #0
  96 0040 1FD0     		beq	.L14
  59:Api\core\src/vl53l0x_api_calibration.c **** 	uint8_t xtalk_meas = 0;
  97              		.loc 1 59 0
  98 0042 0026     		movs	r6, #0
  58:Api\core\src/vl53l0x_api_calibration.c **** 	FixPoint1616_t total_count = 0;
  99              		.loc 1 58 0
 100 0044 0023     		movs	r3, #0
 101 0046 9B46     		mov	fp, r3
  57:Api\core\src/vl53l0x_api_calibration.c **** 	FixPoint1616_t sum_signalRate = 0;
 102              		.loc 1 57 0
 103 0048 0027     		movs	r7, #0
  56:Api\core\src/vl53l0x_api_calibration.c **** 	uint16_t sum_spads = 0;
 104              		.loc 1 56 0
 105 004a 9946     		mov	r9, r3
 106 004c 25E0     		b	.L6
 107              	.LVL9:
 108              	.L9:
  85:Api\core\src/vl53l0x_api_calibration.c **** 		sum_ranging = 0;
  86:Api\core\src/vl53l0x_api_calibration.c **** 		sum_spads = 0;
  87:Api\core\src/vl53l0x_api_calibration.c **** 		sum_signalRate = 0;
  88:Api\core\src/vl53l0x_api_calibration.c **** 		total_count = 0;
  89:Api\core\src/vl53l0x_api_calibration.c **** 		for (xtalk_meas = 0; xtalk_meas < 50; xtalk_meas++) {
  90:Api\core\src/vl53l0x_api_calibration.c **** 			Status = VL53L0X_PerformSingleRangingMeasurement(Dev,
 109              		.loc 1 90 0
 110 004e 03A9     		add	r1, sp, #12
 111 0050 0098     		ldr	r0, [sp]
 112 0052 FFF7FEFF 		bl	VL53L0X_PerformSingleRangingMeasurement
 113              	.LVL10:
 114 0056 041E     		subs	r4, r0, #0
 115              	.LVL11:
  91:Api\core\src/vl53l0x_api_calibration.c **** 				&RangingMeasurementData);
  92:Api\core\src/vl53l0x_api_calibration.c **** 
  93:Api\core\src/vl53l0x_api_calibration.c **** 			if (Status != VL53L0X_ERROR_NONE)
 116              		.loc 1 93 0
 117 0058 1BD1     		bne	.L7
  94:Api\core\src/vl53l0x_api_calibration.c **** 				break;
  95:Api\core\src/vl53l0x_api_calibration.c **** 
  96:Api\core\src/vl53l0x_api_calibration.c **** 			/* The range is valid when RangeStatus = 0 */
  97:Api\core\src/vl53l0x_api_calibration.c **** 			if (RangingMeasurementData.RangeStatus == 0) {
 118              		.loc 1 97 0
 119 005a 03AB     		add	r3, sp, #12
 120 005c 1B7E     		ldrb	r3, [r3, #24]
 121 005e 002B     		cmp	r3, #0
 122 0060 0CD1     		bne	.L8
  98:Api\core\src/vl53l0x_api_calibration.c **** 				sum_ranging = sum_ranging +
  99:Api\core\src/vl53l0x_api_calibration.c **** 					RangingMeasurementData.RangeMilliMeter;
 123              		.loc 1 99 0
 124 0062 03AB     		add	r3, sp, #12
ARM GAS  C:\Users\Rajesh\AppData\Local\Temp\ccFou9eL.s 			page 5


 125 0064 1889     		ldrh	r0, [r3, #8]
 126              	.LVL12:
  98:Api\core\src/vl53l0x_api_calibration.c **** 				sum_ranging = sum_ranging +
 127              		.loc 1 98 0
 128 0066 4844     		add	r0, r0, r9
 129 0068 82B2     		uxth	r2, r0
 130 006a 9146     		mov	r9, r2
 131              	.LVL13:
 100:Api\core\src/vl53l0x_api_calibration.c **** 				sum_signalRate = sum_signalRate +
 132              		.loc 1 100 0
 133 006c 069A     		ldr	r2, [sp, #24]
 134 006e 9446     		mov	ip, r2
 135 0070 E344     		add	fp, fp, ip
 136              	.LVL14:
 101:Api\core\src/vl53l0x_api_calibration.c **** 				RangingMeasurementData.SignalRateRtnMegaCps;
 102:Api\core\src/vl53l0x_api_calibration.c **** 				sum_spads = sum_spads +
 103:Api\core\src/vl53l0x_api_calibration.c **** 				RangingMeasurementData.EffectiveSpadRtnCount
 137              		.loc 1 103 0
 138 0072 988A     		ldrh	r0, [r3, #20]
 102:Api\core\src/vl53l0x_api_calibration.c **** 				RangingMeasurementData.EffectiveSpadRtnCount
 139              		.loc 1 102 0
 140 0074 000A     		lsrs	r0, r0, #8
 141 0076 3818     		adds	r0, r7, r0
 142 0078 87B2     		uxth	r7, r0
 143              	.LVL15:
 104:Api\core\src/vl53l0x_api_calibration.c **** 					/ 256;
 105:Api\core\src/vl53l0x_api_calibration.c **** 				total_count = total_count + 1;
 144              		.loc 1 105 0
 145 007a 0136     		adds	r6, r6, #1
 146              	.LVL16:
 147              	.L8:
  89:Api\core\src/vl53l0x_api_calibration.c **** 			Status = VL53L0X_PerformSingleRangingMeasurement(Dev,
 148              		.loc 1 89 0 discriminator 2
 149 007c 0135     		adds	r5, r5, #1
 150              	.LVL17:
 151 007e EDB2     		uxtb	r5, r5
 152              	.LVL18:
 153 0080 05E0     		b	.L5
 154              	.LVL19:
 155              	.L14:
 156 0082 0025     		movs	r5, #0
 157 0084 0026     		movs	r6, #0
 158 0086 0023     		movs	r3, #0
 159 0088 9B46     		mov	fp, r3
 160 008a 0027     		movs	r7, #0
 161 008c 9946     		mov	r9, r3
 162              	.LVL20:
 163              	.L5:
  89:Api\core\src/vl53l0x_api_calibration.c **** 			Status = VL53L0X_PerformSingleRangingMeasurement(Dev,
 164              		.loc 1 89 0 is_stmt 0 discriminator 1
 165 008e 312D     		cmp	r5, #49
 166 0090 DDD9     		bls	.L9
 167              	.LVL21:
 168              	.L7:
 106:Api\core\src/vl53l0x_api_calibration.c **** 			}
 107:Api\core\src/vl53l0x_api_calibration.c **** 		}
 108:Api\core\src/vl53l0x_api_calibration.c **** 
ARM GAS  C:\Users\Rajesh\AppData\Local\Temp\ccFou9eL.s 			page 6


 109:Api\core\src/vl53l0x_api_calibration.c **** 		/* no valid values found */
 110:Api\core\src/vl53l0x_api_calibration.c **** 		if (total_count == 0)
 169              		.loc 1 110 0 is_stmt 1
 170 0092 002E     		cmp	r6, #0
 171 0094 01D1     		bne	.L6
 111:Api\core\src/vl53l0x_api_calibration.c **** 			Status = VL53L0X_ERROR_RANGE_ERROR;
 172              		.loc 1 111 0
 173 0096 0624     		movs	r4, #6
 174              	.LVL22:
 175 0098 6442     		rsbs	r4, r4, #0
 176              	.LVL23:
 177              	.L6:
 112:Api\core\src/vl53l0x_api_calibration.c **** 
 113:Api\core\src/vl53l0x_api_calibration.c **** 	}
 114:Api\core\src/vl53l0x_api_calibration.c **** 
 115:Api\core\src/vl53l0x_api_calibration.c **** 
 116:Api\core\src/vl53l0x_api_calibration.c **** 	if (Status == VL53L0X_ERROR_NONE) {
 178              		.loc 1 116 0
 179 009a 002C     		cmp	r4, #0
 180 009c 42D1     		bne	.L10
 117:Api\core\src/vl53l0x_api_calibration.c **** 		/* FixPoint1616_t / uint16_t = FixPoint1616_t */
 118:Api\core\src/vl53l0x_api_calibration.c **** 		xTalkStoredMeanSignalRate = sum_signalRate / total_count;
 181              		.loc 1 118 0
 182 009e 3100     		movs	r1, r6
 183 00a0 5846     		mov	r0, fp
 184 00a2 FFF7FEFF 		bl	__aeabi_uidiv
 185              	.LVL24:
 186 00a6 0190     		str	r0, [sp, #4]
 187              	.LVL25:
 119:Api\core\src/vl53l0x_api_calibration.c **** 		xTalkStoredMeanRange = (FixPoint1616_t)((uint32_t)(
 120:Api\core\src/vl53l0x_api_calibration.c **** 			sum_ranging << 16) / total_count);
 188              		.loc 1 120 0
 189 00a8 4B46     		mov	r3, r9
 190 00aa 1804     		lsls	r0, r3, #16
 191              	.LVL26:
 119:Api\core\src/vl53l0x_api_calibration.c **** 		xTalkStoredMeanRange = (FixPoint1616_t)((uint32_t)(
 192              		.loc 1 119 0
 193 00ac 3100     		movs	r1, r6
 194 00ae FFF7FEFF 		bl	__aeabi_uidiv
 195              	.LVL27:
 196 00b2 0500     		movs	r5, r0
 197              	.LVL28:
 121:Api\core\src/vl53l0x_api_calibration.c **** 		xTalkStoredMeanRtnSpads = (FixPoint1616_t)((uint32_t)(
 122:Api\core\src/vl53l0x_api_calibration.c **** 			sum_spads << 16) / total_count);
 198              		.loc 1 122 0
 199 00b4 3804     		lsls	r0, r7, #16
 200              	.LVL29:
 121:Api\core\src/vl53l0x_api_calibration.c **** 		xTalkStoredMeanRtnSpads = (FixPoint1616_t)((uint32_t)(
 201              		.loc 1 121 0
 202 00b6 3100     		movs	r1, r6
 203 00b8 FFF7FEFF 		bl	__aeabi_uidiv
 204              	.LVL30:
 123:Api\core\src/vl53l0x_api_calibration.c **** 
 124:Api\core\src/vl53l0x_api_calibration.c **** 		/* Round Mean Spads to Whole Number.
 125:Api\core\src/vl53l0x_api_calibration.c **** 		 * Typically the calculated mean SPAD count is a whole number
 126:Api\core\src/vl53l0x_api_calibration.c **** 		 * or very close to a whole
 127:Api\core\src/vl53l0x_api_calibration.c **** 		 * number, therefore any truncation will not result in a
ARM GAS  C:\Users\Rajesh\AppData\Local\Temp\ccFou9eL.s 			page 7


 128:Api\core\src/vl53l0x_api_calibration.c **** 		 * significant loss in accuracy.
 129:Api\core\src/vl53l0x_api_calibration.c **** 		 * Also, for a grey target at a typical distance of around
 130:Api\core\src/vl53l0x_api_calibration.c **** 		 * 400mm, around 220 SPADs will
 131:Api\core\src/vl53l0x_api_calibration.c **** 		 * be enabled, therefore, any truncation will result in a loss
 132:Api\core\src/vl53l0x_api_calibration.c **** 		 * of accuracy of less than
 133:Api\core\src/vl53l0x_api_calibration.c **** 		 * 0.5%.
 134:Api\core\src/vl53l0x_api_calibration.c **** 		 */
 135:Api\core\src/vl53l0x_api_calibration.c **** 		xTalkStoredMeanRtnSpadsAsInt = (xTalkStoredMeanRtnSpads +
 205              		.loc 1 135 0
 206 00bc 8023     		movs	r3, #128
 207 00be 1B02     		lsls	r3, r3, #8
 208 00c0 C118     		adds	r1, r0, r3
 209 00c2 090C     		lsrs	r1, r1, #16
 210              	.LVL31:
 136:Api\core\src/vl53l0x_api_calibration.c **** 			0x8000) >> 16;
 137:Api\core\src/vl53l0x_api_calibration.c **** 
 138:Api\core\src/vl53l0x_api_calibration.c **** 		/* Round Cal Distance to Whole Number.
 139:Api\core\src/vl53l0x_api_calibration.c **** 		 * Note that the cal distance is in mm, therefore no resolution
 140:Api\core\src/vl53l0x_api_calibration.c **** 		 * is lost.*/
 141:Api\core\src/vl53l0x_api_calibration.c **** 		 xTalkCalDistanceAsInt = (XTalkCalDistance + 0x8000) >> 16;
 211              		.loc 1 141 0
 212 00c4 4344     		add	r3, r3, r8
 213 00c6 1E0C     		lsrs	r6, r3, #16
 214              	.LVL32:
 142:Api\core\src/vl53l0x_api_calibration.c **** 
 143:Api\core\src/vl53l0x_api_calibration.c **** 		if (xTalkStoredMeanRtnSpadsAsInt == 0 ||
 215              		.loc 1 143 0
 216 00c8 0029     		cmp	r1, #0
 217 00ca 16D0     		beq	.L16
 218              		.loc 1 143 0 is_stmt 0 discriminator 1
 219 00cc 002E     		cmp	r6, #0
 220 00ce 16D0     		beq	.L17
 144:Api\core\src/vl53l0x_api_calibration.c **** 		   xTalkCalDistanceAsInt == 0 ||
 221              		.loc 1 144 0 is_stmt 1
 222 00d0 A845     		cmp	r8, r5
 223 00d2 16D9     		bls	.L18
 145:Api\core\src/vl53l0x_api_calibration.c **** 		   xTalkStoredMeanRange >= XTalkCalDistance) {
 146:Api\core\src/vl53l0x_api_calibration.c **** 			XTalkCompensationRateMegaCps = 0;
 147:Api\core\src/vl53l0x_api_calibration.c **** 		} else {
 148:Api\core\src/vl53l0x_api_calibration.c **** 			/* Round Cal Distance to Whole Number.
 149:Api\core\src/vl53l0x_api_calibration.c **** 			   Note that the cal distance is in mm, therefore no
 150:Api\core\src/vl53l0x_api_calibration.c **** 			   resolution is lost.*/
 151:Api\core\src/vl53l0x_api_calibration.c **** 			xTalkCalDistanceAsInt = (XTalkCalDistance +
 152:Api\core\src/vl53l0x_api_calibration.c **** 				0x8000) >> 16;
 153:Api\core\src/vl53l0x_api_calibration.c **** 
 154:Api\core\src/vl53l0x_api_calibration.c **** 			/* Apply division by mean spad count early in the
 155:Api\core\src/vl53l0x_api_calibration.c **** 			 * calculation to keep the numbers small.
 156:Api\core\src/vl53l0x_api_calibration.c **** 			 * This ensures we can maintain a 32bit calculation.
 157:Api\core\src/vl53l0x_api_calibration.c **** 			 * Fixed1616 / int := Fixed1616 */
 158:Api\core\src/vl53l0x_api_calibration.c **** 			signalXTalkTotalPerSpad = (xTalkStoredMeanSignalRate) /
 224              		.loc 1 158 0
 225 00d4 0198     		ldr	r0, [sp, #4]
 226              	.LVL33:
 227 00d6 FFF7FEFF 		bl	__aeabi_uidiv
 228              	.LVL34:
 229 00da 8046     		mov	r8, r0
 230              	.LVL35:
ARM GAS  C:\Users\Rajesh\AppData\Local\Temp\ccFou9eL.s 			page 8


 159:Api\core\src/vl53l0x_api_calibration.c **** 				xTalkStoredMeanRtnSpadsAsInt;
 160:Api\core\src/vl53l0x_api_calibration.c **** 
 161:Api\core\src/vl53l0x_api_calibration.c **** 			/* Complete the calculation for total Signal XTalk per
 162:Api\core\src/vl53l0x_api_calibration.c **** 			 * SPAD
 163:Api\core\src/vl53l0x_api_calibration.c **** 			 * Fixed1616 * (Fixed1616 - Fixed1616/int) :=
 164:Api\core\src/vl53l0x_api_calibration.c **** 			 * (2^16 * Fixed1616)
 165:Api\core\src/vl53l0x_api_calibration.c **** 			 */
 166:Api\core\src/vl53l0x_api_calibration.c **** 			signalXTalkTotalPerSpad *= ((1 << 16) -
 167:Api\core\src/vl53l0x_api_calibration.c **** 				(xTalkStoredMeanRange / xTalkCalDistanceAsInt));
 231              		.loc 1 167 0
 232 00dc 3100     		movs	r1, r6
 233 00de 2800     		movs	r0, r5
 234              	.LVL36:
 235 00e0 FFF7FEFF 		bl	__aeabi_uidiv
 236              	.LVL37:
 166:Api\core\src/vl53l0x_api_calibration.c **** 				(xTalkStoredMeanRange / xTalkCalDistanceAsInt));
 237              		.loc 1 166 0
 238 00e4 8023     		movs	r3, #128
 239 00e6 5B02     		lsls	r3, r3, #9
 240 00e8 181A     		subs	r0, r3, r0
 241 00ea 4546     		mov	r5, r8
 242              	.LVL38:
 243 00ec 4543     		muls	r5, r0
 244              	.LVL39:
 168:Api\core\src/vl53l0x_api_calibration.c **** 
 169:Api\core\src/vl53l0x_api_calibration.c **** 			/* Round from 2^16 * Fixed1616, to Fixed1616. */
 170:Api\core\src/vl53l0x_api_calibration.c **** 			XTalkCompensationRateMegaCps = (signalXTalkTotalPerSpad
 171:Api\core\src/vl53l0x_api_calibration.c **** 				+ 0x8000) >> 16;
 245              		.loc 1 171 0
 246 00ee 8023     		movs	r3, #128
 247 00f0 1B02     		lsls	r3, r3, #8
 248 00f2 9C46     		mov	ip, r3
 249 00f4 6544     		add	r5, r5, ip
 250              	.LVL40:
 170:Api\core\src/vl53l0x_api_calibration.c **** 				+ 0x8000) >> 16;
 251              		.loc 1 170 0
 252 00f6 2D0C     		lsrs	r5, r5, #16
 253              	.LVL41:
 254 00f8 04E0     		b	.L11
 255              	.LVL42:
 256              	.L16:
 146:Api\core\src/vl53l0x_api_calibration.c **** 		} else {
 257              		.loc 1 146 0
 258 00fa 0025     		movs	r5, #0
 259              	.LVL43:
 260 00fc 02E0     		b	.L11
 261              	.LVL44:
 262              	.L17:
 263 00fe 0025     		movs	r5, #0
 264              	.LVL45:
 265 0100 00E0     		b	.L11
 266              	.LVL46:
 267              	.L18:
 268 0102 0025     		movs	r5, #0
 269              	.LVL47:
 270              	.L11:
 172:Api\core\src/vl53l0x_api_calibration.c **** 		}
ARM GAS  C:\Users\Rajesh\AppData\Local\Temp\ccFou9eL.s 			page 9


 173:Api\core\src/vl53l0x_api_calibration.c **** 
 174:Api\core\src/vl53l0x_api_calibration.c **** 		*pXTalkCompensationRateMegaCps = XTalkCompensationRateMegaCps;
 271              		.loc 1 174 0
 272 0104 5346     		mov	r3, r10
 273 0106 1D60     		str	r5, [r3]
 175:Api\core\src/vl53l0x_api_calibration.c **** 
 176:Api\core\src/vl53l0x_api_calibration.c **** 		/* Enable the XTalk compensation */
 177:Api\core\src/vl53l0x_api_calibration.c **** 		if (Status == VL53L0X_ERROR_NONE)
 274              		.loc 1 177 0
 275 0108 002C     		cmp	r4, #0
 276 010a 04D1     		bne	.L12
 277              	.LVL48:
 178:Api\core\src/vl53l0x_api_calibration.c **** 			Status = VL53L0X_SetXTalkCompensationEnable(Dev, 1);
 278              		.loc 1 178 0
 279 010c 0121     		movs	r1, #1
 280 010e 0098     		ldr	r0, [sp]
 281 0110 FFF7FEFF 		bl	VL53L0X_SetXTalkCompensationEnable
 282              	.LVL49:
 283 0114 0400     		movs	r4, r0
 284              	.LVL50:
 285              	.L12:
 179:Api\core\src/vl53l0x_api_calibration.c **** 
 180:Api\core\src/vl53l0x_api_calibration.c **** 		/* Enable the XTalk compensation */
 181:Api\core\src/vl53l0x_api_calibration.c **** 		if (Status == VL53L0X_ERROR_NONE)
 286              		.loc 1 181 0
 287 0116 002C     		cmp	r4, #0
 288 0118 04D1     		bne	.L10
 182:Api\core\src/vl53l0x_api_calibration.c **** 			Status = VL53L0X_SetXTalkCompensationRateMegaCps(Dev,
 289              		.loc 1 182 0
 290 011a 2900     		movs	r1, r5
 291 011c 0098     		ldr	r0, [sp]
 292 011e FFF7FEFF 		bl	VL53L0X_SetXTalkCompensationRateMegaCps
 293              	.LVL51:
 294 0122 0400     		movs	r4, r0
 295              	.LVL52:
 296              	.L10:
 183:Api\core\src/vl53l0x_api_calibration.c **** 					XTalkCompensationRateMegaCps);
 184:Api\core\src/vl53l0x_api_calibration.c **** 
 185:Api\core\src/vl53l0x_api_calibration.c **** 	}
 186:Api\core\src/vl53l0x_api_calibration.c **** 
 187:Api\core\src/vl53l0x_api_calibration.c **** 	return Status;
 188:Api\core\src/vl53l0x_api_calibration.c **** }
 297              		.loc 1 188 0
 298 0124 2000     		movs	r0, r4
 299 0126 0BB0     		add	sp, sp, #44
 300              	.LVL53:
 301              		@ sp needed
 302              	.LVL54:
 303              	.LVL55:
 304              	.LVL56:
 305              	.LVL57:
 306              	.LVL58:
 307 0128 3CBC     		pop	{r2, r3, r4, r5}
 308 012a 9046     		mov	r8, r2
 309 012c 9946     		mov	r9, r3
 310 012e A246     		mov	r10, r4
 311 0130 AB46     		mov	fp, r5
ARM GAS  C:\Users\Rajesh\AppData\Local\Temp\ccFou9eL.s 			page 10


 312 0132 F0BD     		pop	{r4, r5, r6, r7, pc}
 313              		.cfi_endproc
 314              	.LFE1:
 315              		.size	VL53L0X_perform_xtalk_calibration, .-VL53L0X_perform_xtalk_calibration
 316              		.section	.text.VL53L0X_perform_offset_calibration,"ax",%progbits
 317              		.align	2
 318              		.global	VL53L0X_perform_offset_calibration
 319              		.code	16
 320              		.thumb_func
 321              		.type	VL53L0X_perform_offset_calibration, %function
 322              	VL53L0X_perform_offset_calibration:
 323              	.LFB2:
 189:Api\core\src/vl53l0x_api_calibration.c **** 
 190:Api\core\src/vl53l0x_api_calibration.c **** VL53L0X_Error VL53L0X_perform_offset_calibration(VL53L0X_DEV Dev,
 191:Api\core\src/vl53l0x_api_calibration.c **** 			FixPoint1616_t CalDistanceMilliMeter,
 192:Api\core\src/vl53l0x_api_calibration.c **** 			int32_t *pOffsetMicroMeter)
 193:Api\core\src/vl53l0x_api_calibration.c **** {
 324              		.loc 1 193 0
 325              		.cfi_startproc
 326              		@ args = 0, pretend = 0, frame = 40
 327              		@ frame_needed = 0, uses_anonymous_args = 0
 328              	.LVL59:
 329 0000 F0B5     		push	{r4, r5, r6, r7, lr}
 330              		.cfi_def_cfa_offset 20
 331              		.cfi_offset 4, -20
 332              		.cfi_offset 5, -16
 333              		.cfi_offset 6, -12
 334              		.cfi_offset 7, -8
 335              		.cfi_offset 14, -4
 336 0002 4F46     		mov	r7, r9
 337 0004 4646     		mov	r6, r8
 338 0006 C0B4     		push	{r6, r7}
 339              		.cfi_def_cfa_offset 28
 340              		.cfi_offset 8, -28
 341              		.cfi_offset 9, -24
 342 0008 8BB0     		sub	sp, sp, #44
 343              		.cfi_def_cfa_offset 72
 344 000a 0190     		str	r0, [sp, #4]
 345 000c 8846     		mov	r8, r1
 346 000e 9146     		mov	r9, r2
 347              	.LVL60:
 194:Api\core\src/vl53l0x_api_calibration.c **** 	VL53L0X_Error Status = VL53L0X_ERROR_NONE;
 195:Api\core\src/vl53l0x_api_calibration.c **** 	uint16_t sum_ranging = 0;
 196:Api\core\src/vl53l0x_api_calibration.c **** 	FixPoint1616_t total_count = 0;
 197:Api\core\src/vl53l0x_api_calibration.c **** 	VL53L0X_RangingMeasurementData_t RangingMeasurementData;
 198:Api\core\src/vl53l0x_api_calibration.c **** 	FixPoint1616_t StoredMeanRange;
 199:Api\core\src/vl53l0x_api_calibration.c **** 	uint32_t StoredMeanRangeAsInt;
 200:Api\core\src/vl53l0x_api_calibration.c **** 	uint32_t CalDistanceAsInt_mm;
 201:Api\core\src/vl53l0x_api_calibration.c **** 	uint8_t SequenceStepEnabled;
 202:Api\core\src/vl53l0x_api_calibration.c **** 	int meas = 0;
 203:Api\core\src/vl53l0x_api_calibration.c **** 
 204:Api\core\src/vl53l0x_api_calibration.c **** 	if (CalDistanceMilliMeter <= 0)
 348              		.loc 1 204 0
 349 0010 0029     		cmp	r1, #0
 350 0012 01D0     		beq	.L32
 194:Api\core\src/vl53l0x_api_calibration.c **** 	VL53L0X_Error Status = VL53L0X_ERROR_NONE;
 351              		.loc 1 194 0
ARM GAS  C:\Users\Rajesh\AppData\Local\Temp\ccFou9eL.s 			page 11


 352 0014 0024     		movs	r4, #0
 353 0016 01E0     		b	.L20
 354              	.L32:
 205:Api\core\src/vl53l0x_api_calibration.c **** 		Status = VL53L0X_ERROR_INVALID_PARAMS;
 355              		.loc 1 205 0
 356 0018 0424     		movs	r4, #4
 357 001a 6442     		rsbs	r4, r4, #0
 358              	.L20:
 359              	.LVL61:
 206:Api\core\src/vl53l0x_api_calibration.c **** 
 207:Api\core\src/vl53l0x_api_calibration.c **** 	if (Status == VL53L0X_ERROR_NONE)
 360              		.loc 1 207 0
 361 001c 002C     		cmp	r4, #0
 362 001e 04D1     		bne	.L21
 208:Api\core\src/vl53l0x_api_calibration.c **** 		Status = VL53L0X_SetOffsetCalibrationDataMicroMeter(Dev, 0);
 363              		.loc 1 208 0
 364 0020 0021     		movs	r1, #0
 365              	.LVL62:
 366 0022 0198     		ldr	r0, [sp, #4]
 367              	.LVL63:
 368 0024 FFF7FEFF 		bl	VL53L0X_SetOffsetCalibrationDataMicroMeter
 369              	.LVL64:
 370 0028 0400     		movs	r4, r0
 371              	.LVL65:
 372              	.L21:
 209:Api\core\src/vl53l0x_api_calibration.c **** 
 210:Api\core\src/vl53l0x_api_calibration.c **** 
 211:Api\core\src/vl53l0x_api_calibration.c **** 	/* Get the value of the TCC */
 212:Api\core\src/vl53l0x_api_calibration.c **** 	if (Status == VL53L0X_ERROR_NONE)
 373              		.loc 1 212 0
 374 002a 002C     		cmp	r4, #0
 375 002c 06D1     		bne	.L22
 213:Api\core\src/vl53l0x_api_calibration.c **** 		Status = VL53L0X_GetSequenceStepEnable(Dev,
 376              		.loc 1 213 0
 377 002e 02AB     		add	r3, sp, #8
 378 0030 DA1C     		adds	r2, r3, #3
 379 0032 0021     		movs	r1, #0
 380 0034 0198     		ldr	r0, [sp, #4]
 381 0036 FFF7FEFF 		bl	VL53L0X_GetSequenceStepEnable
 382              	.LVL66:
 383 003a 0400     		movs	r4, r0
 384              	.LVL67:
 385              	.L22:
 214:Api\core\src/vl53l0x_api_calibration.c **** 				VL53L0X_SEQUENCESTEP_TCC, &SequenceStepEnabled);
 215:Api\core\src/vl53l0x_api_calibration.c **** 
 216:Api\core\src/vl53l0x_api_calibration.c **** 
 217:Api\core\src/vl53l0x_api_calibration.c **** 	/* Disable the TCC */
 218:Api\core\src/vl53l0x_api_calibration.c **** 	if (Status == VL53L0X_ERROR_NONE)
 386              		.loc 1 218 0
 387 003c 002C     		cmp	r4, #0
 388 003e 05D1     		bne	.L23
 219:Api\core\src/vl53l0x_api_calibration.c **** 		Status = VL53L0X_SetSequenceStepEnable(Dev,
 389              		.loc 1 219 0
 390 0040 0022     		movs	r2, #0
 391 0042 0021     		movs	r1, #0
 392 0044 0198     		ldr	r0, [sp, #4]
 393 0046 FFF7FEFF 		bl	VL53L0X_SetSequenceStepEnable
ARM GAS  C:\Users\Rajesh\AppData\Local\Temp\ccFou9eL.s 			page 12


 394              	.LVL68:
 395 004a 0400     		movs	r4, r0
 396              	.LVL69:
 397              	.L23:
 220:Api\core\src/vl53l0x_api_calibration.c **** 				VL53L0X_SEQUENCESTEP_TCC, 0);
 221:Api\core\src/vl53l0x_api_calibration.c **** 
 222:Api\core\src/vl53l0x_api_calibration.c **** 
 223:Api\core\src/vl53l0x_api_calibration.c **** 	/* Disable the RIT */
 224:Api\core\src/vl53l0x_api_calibration.c **** 	if (Status == VL53L0X_ERROR_NONE)
 398              		.loc 1 224 0
 399 004c 002C     		cmp	r4, #0
 400 004e 05D1     		bne	.L24
 225:Api\core\src/vl53l0x_api_calibration.c **** 		Status = VL53L0X_SetLimitCheckEnable(Dev,
 401              		.loc 1 225 0
 402 0050 0022     		movs	r2, #0
 403 0052 0321     		movs	r1, #3
 404 0054 0198     		ldr	r0, [sp, #4]
 405 0056 FFF7FEFF 		bl	VL53L0X_SetLimitCheckEnable
 406              	.LVL70:
 407 005a 0400     		movs	r4, r0
 408              	.LVL71:
 409              	.L24:
 226:Api\core\src/vl53l0x_api_calibration.c **** 				VL53L0X_CHECKENABLE_RANGE_IGNORE_THRESHOLD, 0);
 227:Api\core\src/vl53l0x_api_calibration.c **** 
 228:Api\core\src/vl53l0x_api_calibration.c **** 	/* Perform 50 measurements and compute the averages */
 229:Api\core\src/vl53l0x_api_calibration.c **** 	if (Status == VL53L0X_ERROR_NONE) {
 410              		.loc 1 229 0
 411 005c 002C     		cmp	r4, #0
 412 005e 13D0     		beq	.L33
 196:Api\core\src/vl53l0x_api_calibration.c **** 	VL53L0X_RangingMeasurementData_t RangingMeasurementData;
 413              		.loc 1 196 0
 414 0060 0027     		movs	r7, #0
 195:Api\core\src/vl53l0x_api_calibration.c **** 	FixPoint1616_t total_count = 0;
 415              		.loc 1 195 0
 416 0062 0026     		movs	r6, #0
 417 0064 19E0     		b	.L26
 418              	.LVL72:
 419              	.L29:
 230:Api\core\src/vl53l0x_api_calibration.c **** 		sum_ranging = 0;
 231:Api\core\src/vl53l0x_api_calibration.c **** 		total_count = 0;
 232:Api\core\src/vl53l0x_api_calibration.c **** 		for (meas = 0; meas < 50; meas++) {
 233:Api\core\src/vl53l0x_api_calibration.c **** 			Status = VL53L0X_PerformSingleRangingMeasurement(Dev,
 420              		.loc 1 233 0
 421 0066 03A9     		add	r1, sp, #12
 422 0068 0198     		ldr	r0, [sp, #4]
 423 006a FFF7FEFF 		bl	VL53L0X_PerformSingleRangingMeasurement
 424              	.LVL73:
 425 006e 041E     		subs	r4, r0, #0
 426              	.LVL74:
 234:Api\core\src/vl53l0x_api_calibration.c **** 					&RangingMeasurementData);
 235:Api\core\src/vl53l0x_api_calibration.c **** 
 236:Api\core\src/vl53l0x_api_calibration.c **** 			if (Status != VL53L0X_ERROR_NONE)
 427              		.loc 1 236 0
 428 0070 0FD1     		bne	.L27
 237:Api\core\src/vl53l0x_api_calibration.c **** 				break;
 238:Api\core\src/vl53l0x_api_calibration.c **** 
 239:Api\core\src/vl53l0x_api_calibration.c **** 			/* The range is valid when RangeStatus = 0 */
ARM GAS  C:\Users\Rajesh\AppData\Local\Temp\ccFou9eL.s 			page 13


 240:Api\core\src/vl53l0x_api_calibration.c **** 			if (RangingMeasurementData.RangeStatus == 0) {
 429              		.loc 1 240 0
 430 0072 03AB     		add	r3, sp, #12
 431 0074 1B7E     		ldrb	r3, [r3, #24]
 432 0076 002B     		cmp	r3, #0
 433 0078 04D1     		bne	.L28
 241:Api\core\src/vl53l0x_api_calibration.c **** 				sum_ranging = sum_ranging +
 242:Api\core\src/vl53l0x_api_calibration.c **** 					RangingMeasurementData.RangeMilliMeter;
 434              		.loc 1 242 0
 435 007a 03AB     		add	r3, sp, #12
 436 007c 1889     		ldrh	r0, [r3, #8]
 437              	.LVL75:
 241:Api\core\src/vl53l0x_api_calibration.c **** 				sum_ranging = sum_ranging +
 438              		.loc 1 241 0
 439 007e 3018     		adds	r0, r6, r0
 440 0080 86B2     		uxth	r6, r0
 441              	.LVL76:
 243:Api\core\src/vl53l0x_api_calibration.c **** 				total_count = total_count + 1;
 442              		.loc 1 243 0
 443 0082 0137     		adds	r7, r7, #1
 444              	.LVL77:
 445              	.L28:
 232:Api\core\src/vl53l0x_api_calibration.c **** 			Status = VL53L0X_PerformSingleRangingMeasurement(Dev,
 446              		.loc 1 232 0 discriminator 2
 447 0084 0135     		adds	r5, r5, #1
 448              	.LVL78:
 449 0086 02E0     		b	.L25
 450              	.LVL79:
 451              	.L33:
 452 0088 0025     		movs	r5, #0
 453 008a 0027     		movs	r7, #0
 454 008c 0026     		movs	r6, #0
 455              	.LVL80:
 456              	.L25:
 232:Api\core\src/vl53l0x_api_calibration.c **** 			Status = VL53L0X_PerformSingleRangingMeasurement(Dev,
 457              		.loc 1 232 0 is_stmt 0 discriminator 1
 458 008e 312D     		cmp	r5, #49
 459 0090 E9DD     		ble	.L29
 460              	.LVL81:
 461              	.L27:
 244:Api\core\src/vl53l0x_api_calibration.c **** 			}
 245:Api\core\src/vl53l0x_api_calibration.c **** 		}
 246:Api\core\src/vl53l0x_api_calibration.c **** 
 247:Api\core\src/vl53l0x_api_calibration.c **** 		/* no valid values found */
 248:Api\core\src/vl53l0x_api_calibration.c **** 		if (total_count == 0)
 462              		.loc 1 248 0 is_stmt 1
 463 0092 002F     		cmp	r7, #0
 464 0094 01D1     		bne	.L26
 249:Api\core\src/vl53l0x_api_calibration.c **** 			Status = VL53L0X_ERROR_RANGE_ERROR;
 465              		.loc 1 249 0
 466 0096 0624     		movs	r4, #6
 467              	.LVL82:
 468 0098 6442     		rsbs	r4, r4, #0
 469              	.LVL83:
 470              	.L26:
 250:Api\core\src/vl53l0x_api_calibration.c **** 	}
 251:Api\core\src/vl53l0x_api_calibration.c **** 
ARM GAS  C:\Users\Rajesh\AppData\Local\Temp\ccFou9eL.s 			page 14


 252:Api\core\src/vl53l0x_api_calibration.c **** 
 253:Api\core\src/vl53l0x_api_calibration.c **** 	if (Status == VL53L0X_ERROR_NONE) {
 471              		.loc 1 253 0
 472 009a 002C     		cmp	r4, #0
 473 009c 1AD1     		bne	.L30
 254:Api\core\src/vl53l0x_api_calibration.c **** 		/* FixPoint1616_t / uint16_t = FixPoint1616_t */
 255:Api\core\src/vl53l0x_api_calibration.c **** 		StoredMeanRange = (FixPoint1616_t)((uint32_t)(sum_ranging << 16)
 474              		.loc 1 255 0
 475 009e 3004     		lsls	r0, r6, #16
 476 00a0 3900     		movs	r1, r7
 477 00a2 FFF7FEFF 		bl	__aeabi_uidiv
 478              	.LVL84:
 256:Api\core\src/vl53l0x_api_calibration.c **** 			/ total_count);
 257:Api\core\src/vl53l0x_api_calibration.c **** 
 258:Api\core\src/vl53l0x_api_calibration.c **** 		StoredMeanRangeAsInt = (StoredMeanRange + 0x8000) >> 16;
 479              		.loc 1 258 0
 480 00a6 8023     		movs	r3, #128
 481 00a8 1B02     		lsls	r3, r3, #8
 482 00aa 9C46     		mov	ip, r3
 483 00ac 6044     		add	r0, r0, ip
 484              	.LVL85:
 485 00ae 000C     		lsrs	r0, r0, #16
 486              	.LVL86:
 259:Api\core\src/vl53l0x_api_calibration.c **** 
 260:Api\core\src/vl53l0x_api_calibration.c **** 		/* Round Cal Distance to Whole Number.
 261:Api\core\src/vl53l0x_api_calibration.c **** 		 * Note that the cal distance is in mm, therefore no resolution
 262:Api\core\src/vl53l0x_api_calibration.c **** 		 * is lost.*/
 263:Api\core\src/vl53l0x_api_calibration.c **** 		 CalDistanceAsInt_mm = (CalDistanceMilliMeter + 0x8000) >> 16;
 487              		.loc 1 263 0
 488 00b0 4344     		add	r3, r3, r8
 489 00b2 1B0C     		lsrs	r3, r3, #16
 490              	.LVL87:
 264:Api\core\src/vl53l0x_api_calibration.c **** 
 265:Api\core\src/vl53l0x_api_calibration.c **** 		 *pOffsetMicroMeter = (CalDistanceAsInt_mm -
 491              		.loc 1 265 0
 492 00b4 1B1A     		subs	r3, r3, r0
 493              	.LVL88:
 266:Api\core\src/vl53l0x_api_calibration.c **** 				 StoredMeanRangeAsInt) * 1000;
 494              		.loc 1 266 0
 495 00b6 FA22     		movs	r2, #250
 496 00b8 9200     		lsls	r2, r2, #2
 497 00ba 5343     		muls	r3, r2
 265:Api\core\src/vl53l0x_api_calibration.c **** 				 StoredMeanRangeAsInt) * 1000;
 498              		.loc 1 265 0
 499 00bc 4A46     		mov	r2, r9
 500 00be 1360     		str	r3, [r2]
 267:Api\core\src/vl53l0x_api_calibration.c **** 
 268:Api\core\src/vl53l0x_api_calibration.c **** 		/* Apply the calculated offset */
 269:Api\core\src/vl53l0x_api_calibration.c **** 		if (Status == VL53L0X_ERROR_NONE) {
 501              		.loc 1 269 0
 502 00c0 002C     		cmp	r4, #0
 503 00c2 07D1     		bne	.L30
 504              	.LVL89:
 270:Api\core\src/vl53l0x_api_calibration.c **** 			VL53L0X_SETPARAMETERFIELD(Dev, RangeOffsetMicroMeters,
 505              		.loc 1 270 0
 506 00c4 019A     		ldr	r2, [sp, #4]
 507              	.LVL90:
ARM GAS  C:\Users\Rajesh\AppData\Local\Temp\ccFou9eL.s 			page 15


 508 00c6 5362     		str	r3, [r2, #36]
 271:Api\core\src/vl53l0x_api_calibration.c **** 					*pOffsetMicroMeter);
 272:Api\core\src/vl53l0x_api_calibration.c **** 			Status = VL53L0X_SetOffsetCalibrationDataMicroMeter(Dev,
 509              		.loc 1 272 0
 510 00c8 4B46     		mov	r3, r9
 511 00ca 1968     		ldr	r1, [r3]
 512 00cc 1000     		movs	r0, r2
 513              	.LVL91:
 514 00ce FFF7FEFF 		bl	VL53L0X_SetOffsetCalibrationDataMicroMeter
 515              	.LVL92:
 516 00d2 0400     		movs	r4, r0
 517              	.LVL93:
 518              	.L30:
 273:Api\core\src/vl53l0x_api_calibration.c **** 					*pOffsetMicroMeter);
 274:Api\core\src/vl53l0x_api_calibration.c **** 		}
 275:Api\core\src/vl53l0x_api_calibration.c **** 
 276:Api\core\src/vl53l0x_api_calibration.c **** 	}
 277:Api\core\src/vl53l0x_api_calibration.c **** 
 278:Api\core\src/vl53l0x_api_calibration.c **** 	/* Restore the TCC */
 279:Api\core\src/vl53l0x_api_calibration.c **** 	if (Status == VL53L0X_ERROR_NONE) {
 519              		.loc 1 279 0
 520 00d4 002C     		cmp	r4, #0
 521 00d6 0AD1     		bne	.L31
 280:Api\core\src/vl53l0x_api_calibration.c **** 		if (SequenceStepEnabled != 0)
 522              		.loc 1 280 0
 523 00d8 02AB     		add	r3, sp, #8
 524 00da 0333     		adds	r3, r3, #3
 525 00dc 1B78     		ldrb	r3, [r3]
 526 00de 002B     		cmp	r3, #0
 527 00e0 05D0     		beq	.L31
 281:Api\core\src/vl53l0x_api_calibration.c **** 			Status = VL53L0X_SetSequenceStepEnable(Dev,
 528              		.loc 1 281 0
 529 00e2 0122     		movs	r2, #1
 530 00e4 0021     		movs	r1, #0
 531 00e6 0198     		ldr	r0, [sp, #4]
 532 00e8 FFF7FEFF 		bl	VL53L0X_SetSequenceStepEnable
 533              	.LVL94:
 534 00ec 0400     		movs	r4, r0
 535              	.LVL95:
 536              	.L31:
 282:Api\core\src/vl53l0x_api_calibration.c **** 					VL53L0X_SEQUENCESTEP_TCC, 1);
 283:Api\core\src/vl53l0x_api_calibration.c **** 	}
 284:Api\core\src/vl53l0x_api_calibration.c **** 
 285:Api\core\src/vl53l0x_api_calibration.c **** 	return Status;
 286:Api\core\src/vl53l0x_api_calibration.c **** }
 537              		.loc 1 286 0
 538 00ee 2000     		movs	r0, r4
 539 00f0 0BB0     		add	sp, sp, #44
 540              		@ sp needed
 541              	.LVL96:
 542              	.LVL97:
 543              	.LVL98:
 544              	.LVL99:
 545              	.LVL100:
 546 00f2 0CBC     		pop	{r2, r3}
 547 00f4 9046     		mov	r8, r2
 548 00f6 9946     		mov	r9, r3
ARM GAS  C:\Users\Rajesh\AppData\Local\Temp\ccFou9eL.s 			page 16


 549 00f8 F0BD     		pop	{r4, r5, r6, r7, pc}
 550              		.cfi_endproc
 551              	.LFE2:
 552              		.size	VL53L0X_perform_offset_calibration, .-VL53L0X_perform_offset_calibration
 553              		.global	__aeabi_idiv
 554 00fa C046     		.section	.text.VL53L0X_set_offset_calibration_data_micro_meter,"ax",%progbits
 555              		.align	2
 556              		.global	VL53L0X_set_offset_calibration_data_micro_meter
 557              		.code	16
 558              		.thumb_func
 559              		.type	VL53L0X_set_offset_calibration_data_micro_meter, %function
 560              	VL53L0X_set_offset_calibration_data_micro_meter:
 561              	.LFB3:
 287:Api\core\src/vl53l0x_api_calibration.c **** 
 288:Api\core\src/vl53l0x_api_calibration.c **** 
 289:Api\core\src/vl53l0x_api_calibration.c **** VL53L0X_Error VL53L0X_set_offset_calibration_data_micro_meter(VL53L0X_DEV Dev,
 290:Api\core\src/vl53l0x_api_calibration.c **** 		int32_t OffsetCalibrationDataMicroMeter)
 291:Api\core\src/vl53l0x_api_calibration.c **** {
 562              		.loc 1 291 0
 563              		.cfi_startproc
 564              		@ args = 0, pretend = 0, frame = 0
 565              		@ frame_needed = 0, uses_anonymous_args = 0
 566              	.LVL101:
 567 0000 10B5     		push	{r4, lr}
 568              		.cfi_def_cfa_offset 8
 569              		.cfi_offset 4, -8
 570              		.cfi_offset 14, -4
 571 0002 0400     		movs	r4, r0
 572 0004 0800     		movs	r0, r1
 573              	.LVL102:
 292:Api\core\src/vl53l0x_api_calibration.c **** 	VL53L0X_Error Status = VL53L0X_ERROR_NONE;
 293:Api\core\src/vl53l0x_api_calibration.c **** 	int32_t cMaxOffsetMicroMeter = 511000;
 294:Api\core\src/vl53l0x_api_calibration.c **** 	int32_t cMinOffsetMicroMeter = -512000;
 295:Api\core\src/vl53l0x_api_calibration.c **** 	int16_t cOffsetRange = 4096;
 296:Api\core\src/vl53l0x_api_calibration.c **** 	uint32_t encodedOffsetVal;
 297:Api\core\src/vl53l0x_api_calibration.c **** 
 298:Api\core\src/vl53l0x_api_calibration.c **** 	LOG_FUNCTION_START("");
 299:Api\core\src/vl53l0x_api_calibration.c **** 
 300:Api\core\src/vl53l0x_api_calibration.c **** 	if (OffsetCalibrationDataMicroMeter > cMaxOffsetMicroMeter)
 574              		.loc 1 300 0
 575 0006 0E4B     		ldr	r3, .L41
 576 0008 9942     		cmp	r1, r3
 577 000a 03DC     		bgt	.L39
 301:Api\core\src/vl53l0x_api_calibration.c **** 		OffsetCalibrationDataMicroMeter = cMaxOffsetMicroMeter;
 302:Api\core\src/vl53l0x_api_calibration.c **** 	else if (OffsetCalibrationDataMicroMeter < cMinOffsetMicroMeter)
 578              		.loc 1 302 0
 579 000c 0D4B     		ldr	r3, .L41+4
 580 000e 9942     		cmp	r1, r3
 581 0010 02DB     		blt	.L40
 582 0012 02E0     		b	.L36
 583              	.L39:
 301:Api\core\src/vl53l0x_api_calibration.c **** 		OffsetCalibrationDataMicroMeter = cMaxOffsetMicroMeter;
 584              		.loc 1 301 0
 585 0014 0A48     		ldr	r0, .L41
 586 0016 00E0     		b	.L36
 587              	.LVL103:
 588              	.L40:
ARM GAS  C:\Users\Rajesh\AppData\Local\Temp\ccFou9eL.s 			page 17


 303:Api\core\src/vl53l0x_api_calibration.c **** 		OffsetCalibrationDataMicroMeter = cMinOffsetMicroMeter;
 589              		.loc 1 303 0
 590 0018 0A48     		ldr	r0, .L41+4
 591              	.LVL104:
 592              	.L36:
 304:Api\core\src/vl53l0x_api_calibration.c **** 
 305:Api\core\src/vl53l0x_api_calibration.c **** 	/* The offset register is 10.2 format and units are mm
 306:Api\core\src/vl53l0x_api_calibration.c **** 	 * therefore conversion is applied by a division of
 307:Api\core\src/vl53l0x_api_calibration.c **** 	 * 250.
 308:Api\core\src/vl53l0x_api_calibration.c **** 	 */
 309:Api\core\src/vl53l0x_api_calibration.c **** 	if (OffsetCalibrationDataMicroMeter >= 0) {
 593              		.loc 1 309 0
 594 001a 0028     		cmp	r0, #0
 595 001c 03DB     		blt	.L37
 310:Api\core\src/vl53l0x_api_calibration.c **** 		encodedOffsetVal =
 311:Api\core\src/vl53l0x_api_calibration.c **** 			OffsetCalibrationDataMicroMeter/250;
 596              		.loc 1 311 0
 597 001e FA21     		movs	r1, #250
 598 0020 FFF7FEFF 		bl	__aeabi_idiv
 599              	.LVL105:
 600 0024 06E0     		b	.L38
 601              	.LVL106:
 602              	.L37:
 312:Api\core\src/vl53l0x_api_calibration.c **** 	} else {
 313:Api\core\src/vl53l0x_api_calibration.c **** 		encodedOffsetVal =
 314:Api\core\src/vl53l0x_api_calibration.c **** 			cOffsetRange +
 315:Api\core\src/vl53l0x_api_calibration.c **** 			OffsetCalibrationDataMicroMeter/250;
 603              		.loc 1 315 0
 604 0026 FA21     		movs	r1, #250
 605 0028 FFF7FEFF 		bl	__aeabi_idiv
 606              	.LVL107:
 314:Api\core\src/vl53l0x_api_calibration.c **** 			OffsetCalibrationDataMicroMeter/250;
 607              		.loc 1 314 0
 608 002c 8023     		movs	r3, #128
 609 002e 5B01     		lsls	r3, r3, #5
 610 0030 9C46     		mov	ip, r3
 611 0032 6044     		add	r0, r0, ip
 612              	.LVL108:
 613              	.L38:
 316:Api\core\src/vl53l0x_api_calibration.c **** 	}
 317:Api\core\src/vl53l0x_api_calibration.c **** 
 318:Api\core\src/vl53l0x_api_calibration.c **** 	Status = VL53L0X_WrWord(Dev,
 614              		.loc 1 318 0
 615 0034 82B2     		uxth	r2, r0
 616 0036 2821     		movs	r1, #40
 617 0038 2000     		movs	r0, r4
 618              	.LVL109:
 619 003a FFF7FEFF 		bl	VL53L0X_WrWord
 620              	.LVL110:
 319:Api\core\src/vl53l0x_api_calibration.c **** 		VL53L0X_REG_ALGO_PART_TO_PART_RANGE_OFFSET_MM,
 320:Api\core\src/vl53l0x_api_calibration.c **** 		encodedOffsetVal);
 321:Api\core\src/vl53l0x_api_calibration.c **** 
 322:Api\core\src/vl53l0x_api_calibration.c **** 	LOG_FUNCTION_END(Status);
 323:Api\core\src/vl53l0x_api_calibration.c **** 	return Status;
 324:Api\core\src/vl53l0x_api_calibration.c **** }
 621              		.loc 1 324 0
 622              		@ sp needed
ARM GAS  C:\Users\Rajesh\AppData\Local\Temp\ccFou9eL.s 			page 18


 623              	.LVL111:
 624 003e 10BD     		pop	{r4, pc}
 625              	.L42:
 626              		.align	2
 627              	.L41:
 628 0040 18CC0700 		.word	511000
 629 0044 0030F8FF 		.word	-512000
 630              		.cfi_endproc
 631              	.LFE3:
 632              		.size	VL53L0X_set_offset_calibration_data_micro_meter, .-VL53L0X_set_offset_calibration_data_micro
 633              		.section	.text.VL53L0X_get_offset_calibration_data_micro_meter,"ax",%progbits
 634              		.align	2
 635              		.global	VL53L0X_get_offset_calibration_data_micro_meter
 636              		.code	16
 637              		.thumb_func
 638              		.type	VL53L0X_get_offset_calibration_data_micro_meter, %function
 639              	VL53L0X_get_offset_calibration_data_micro_meter:
 640              	.LFB4:
 325:Api\core\src/vl53l0x_api_calibration.c **** 
 326:Api\core\src/vl53l0x_api_calibration.c **** VL53L0X_Error VL53L0X_get_offset_calibration_data_micro_meter(VL53L0X_DEV Dev,
 327:Api\core\src/vl53l0x_api_calibration.c **** 		int32_t *pOffsetCalibrationDataMicroMeter)
 328:Api\core\src/vl53l0x_api_calibration.c **** {
 641              		.loc 1 328 0
 642              		.cfi_startproc
 643              		@ args = 0, pretend = 0, frame = 8
 644              		@ frame_needed = 0, uses_anonymous_args = 0
 645              	.LVL112:
 646 0000 10B5     		push	{r4, lr}
 647              		.cfi_def_cfa_offset 8
 648              		.cfi_offset 4, -8
 649              		.cfi_offset 14, -4
 650 0002 82B0     		sub	sp, sp, #8
 651              		.cfi_def_cfa_offset 16
 652 0004 0C00     		movs	r4, r1
 653              	.LVL113:
 329:Api\core\src/vl53l0x_api_calibration.c **** 	VL53L0X_Error Status = VL53L0X_ERROR_NONE;
 330:Api\core\src/vl53l0x_api_calibration.c **** 	uint16_t RangeOffsetRegister;
 331:Api\core\src/vl53l0x_api_calibration.c **** 	int16_t cMaxOffset = 2047;
 332:Api\core\src/vl53l0x_api_calibration.c **** 	int16_t cOffsetRange = 4096;
 333:Api\core\src/vl53l0x_api_calibration.c **** 
 334:Api\core\src/vl53l0x_api_calibration.c **** 	/* Note that offset has 10.2 format */
 335:Api\core\src/vl53l0x_api_calibration.c **** 
 336:Api\core\src/vl53l0x_api_calibration.c **** 	Status = VL53L0X_RdWord(Dev,
 654              		.loc 1 336 0
 655 0006 6B46     		mov	r3, sp
 656 0008 9A1D     		adds	r2, r3, #6
 657 000a 2821     		movs	r1, #40
 658              	.LVL114:
 659 000c FFF7FEFF 		bl	VL53L0X_RdWord
 660              	.LVL115:
 337:Api\core\src/vl53l0x_api_calibration.c **** 				VL53L0X_REG_ALGO_PART_TO_PART_RANGE_OFFSET_MM,
 338:Api\core\src/vl53l0x_api_calibration.c **** 				&RangeOffsetRegister);
 339:Api\core\src/vl53l0x_api_calibration.c **** 
 340:Api\core\src/vl53l0x_api_calibration.c **** 	if (Status == VL53L0X_ERROR_NONE) {
 661              		.loc 1 340 0
 662 0010 0028     		cmp	r0, #0
 663 0012 11D1     		bne	.L44
ARM GAS  C:\Users\Rajesh\AppData\Local\Temp\ccFou9eL.s 			page 19


 341:Api\core\src/vl53l0x_api_calibration.c **** 		RangeOffsetRegister = (RangeOffsetRegister & 0x0fff);
 664              		.loc 1 341 0
 665 0014 6B46     		mov	r3, sp
 666 0016 0633     		adds	r3, r3, #6
 667 0018 1B88     		ldrh	r3, [r3]
 668 001a 1B05     		lsls	r3, r3, #20
 669 001c 1B0D     		lsrs	r3, r3, #20
 670              	.LVL116:
 342:Api\core\src/vl53l0x_api_calibration.c **** 
 343:Api\core\src/vl53l0x_api_calibration.c **** 		/* Apply 12 bit 2's compliment conversion */
 344:Api\core\src/vl53l0x_api_calibration.c **** 		if (RangeOffsetRegister > cMaxOffset)
 671              		.loc 1 344 0
 672 001e 074A     		ldr	r2, .L46
 673 0020 9342     		cmp	r3, r2
 674 0022 06DD     		ble	.L45
 345:Api\core\src/vl53l0x_api_calibration.c **** 			*pOffsetCalibrationDataMicroMeter =
 346:Api\core\src/vl53l0x_api_calibration.c **** 				(int16_t)(RangeOffsetRegister - cOffsetRange)
 675              		.loc 1 346 0
 676 0024 064A     		ldr	r2, .L46+4
 677 0026 9446     		mov	ip, r2
 678 0028 6344     		add	r3, r3, ip
 679              	.LVL117:
 347:Api\core\src/vl53l0x_api_calibration.c **** 					* 250;
 680              		.loc 1 347 0
 681 002a FA22     		movs	r2, #250
 682 002c 5343     		muls	r3, r2
 683              	.LVL118:
 345:Api\core\src/vl53l0x_api_calibration.c **** 			*pOffsetCalibrationDataMicroMeter =
 684              		.loc 1 345 0
 685 002e 2360     		str	r3, [r4]
 686              	.LVL119:
 687 0030 02E0     		b	.L44
 688              	.LVL120:
 689              	.L45:
 348:Api\core\src/vl53l0x_api_calibration.c **** 		else
 349:Api\core\src/vl53l0x_api_calibration.c **** 			*pOffsetCalibrationDataMicroMeter =
 350:Api\core\src/vl53l0x_api_calibration.c **** 				(int16_t)RangeOffsetRegister * 250;
 690              		.loc 1 350 0
 691 0032 FA22     		movs	r2, #250
 692 0034 5343     		muls	r3, r2
 693              	.LVL121:
 349:Api\core\src/vl53l0x_api_calibration.c **** 				(int16_t)RangeOffsetRegister * 250;
 694              		.loc 1 349 0
 695 0036 2360     		str	r3, [r4]
 696              	.LVL122:
 697              	.L44:
 351:Api\core\src/vl53l0x_api_calibration.c **** 
 352:Api\core\src/vl53l0x_api_calibration.c **** 	}
 353:Api\core\src/vl53l0x_api_calibration.c **** 
 354:Api\core\src/vl53l0x_api_calibration.c **** 	return Status;
 355:Api\core\src/vl53l0x_api_calibration.c **** }
 698              		.loc 1 355 0
 699 0038 02B0     		add	sp, sp, #8
 700              		@ sp needed
 701              	.LVL123:
 702 003a 10BD     		pop	{r4, pc}
 703              	.L47:
ARM GAS  C:\Users\Rajesh\AppData\Local\Temp\ccFou9eL.s 			page 20


 704              		.align	2
 705              	.L46:
 706 003c FF070000 		.word	2047
 707 0040 00F0FFFF 		.word	-4096
 708              		.cfi_endproc
 709              	.LFE4:
 710              		.size	VL53L0X_get_offset_calibration_data_micro_meter, .-VL53L0X_get_offset_calibration_data_micro
 711              		.section	.text.VL53L0X_apply_offset_adjustment,"ax",%progbits
 712              		.align	2
 713              		.global	VL53L0X_apply_offset_adjustment
 714              		.code	16
 715              		.thumb_func
 716              		.type	VL53L0X_apply_offset_adjustment, %function
 717              	VL53L0X_apply_offset_adjustment:
 718              	.LFB5:
 356:Api\core\src/vl53l0x_api_calibration.c **** 
 357:Api\core\src/vl53l0x_api_calibration.c **** 
 358:Api\core\src/vl53l0x_api_calibration.c **** VL53L0X_Error VL53L0X_apply_offset_adjustment(VL53L0X_DEV Dev)
 359:Api\core\src/vl53l0x_api_calibration.c **** {
 719              		.loc 1 359 0
 720              		.cfi_startproc
 721              		@ args = 0, pretend = 0, frame = 8
 722              		@ frame_needed = 0, uses_anonymous_args = 0
 723              	.LVL124:
 724 0000 30B5     		push	{r4, r5, lr}
 725              		.cfi_def_cfa_offset 12
 726              		.cfi_offset 4, -12
 727              		.cfi_offset 5, -8
 728              		.cfi_offset 14, -4
 729 0002 83B0     		sub	sp, sp, #12
 730              		.cfi_def_cfa_offset 24
 731 0004 0400     		movs	r4, r0
 732              	.LVL125:
 360:Api\core\src/vl53l0x_api_calibration.c **** 	VL53L0X_Error Status = VL53L0X_ERROR_NONE;
 361:Api\core\src/vl53l0x_api_calibration.c **** 	int32_t CorrectedOffsetMicroMeters;
 362:Api\core\src/vl53l0x_api_calibration.c **** 	int32_t CurrentOffsetMicroMeters;
 363:Api\core\src/vl53l0x_api_calibration.c **** 
 364:Api\core\src/vl53l0x_api_calibration.c **** 	/* if we run on this function we can read all the NVM info
 365:Api\core\src/vl53l0x_api_calibration.c **** 	 * used by the API */
 366:Api\core\src/vl53l0x_api_calibration.c **** 	Status = VL53L0X_get_info_from_device(Dev, 7);
 733              		.loc 1 366 0
 734 0006 0721     		movs	r1, #7
 735 0008 FFF7FEFF 		bl	VL53L0X_get_info_from_device
 736              	.LVL126:
 367:Api\core\src/vl53l0x_api_calibration.c **** 
 368:Api\core\src/vl53l0x_api_calibration.c **** 	/* Read back current device offset */
 369:Api\core\src/vl53l0x_api_calibration.c **** 	if (Status == VL53L0X_ERROR_NONE) {
 737              		.loc 1 369 0
 738 000c 0028     		cmp	r0, #0
 739 000e 03D1     		bne	.L49
 370:Api\core\src/vl53l0x_api_calibration.c **** 		Status = VL53L0X_GetOffsetCalibrationDataMicroMeter(Dev,
 740              		.loc 1 370 0
 741 0010 01A9     		add	r1, sp, #4
 742 0012 2000     		movs	r0, r4
 743              	.LVL127:
 744 0014 FFF7FEFF 		bl	VL53L0X_GetOffsetCalibrationDataMicroMeter
 745              	.LVL128:
ARM GAS  C:\Users\Rajesh\AppData\Local\Temp\ccFou9eL.s 			page 21


 746              	.L49:
 371:Api\core\src/vl53l0x_api_calibration.c **** 					&CurrentOffsetMicroMeters);
 372:Api\core\src/vl53l0x_api_calibration.c **** 	}
 373:Api\core\src/vl53l0x_api_calibration.c **** 
 374:Api\core\src/vl53l0x_api_calibration.c **** 	/* Apply Offset Adjustment derived from 400mm measurements */
 375:Api\core\src/vl53l0x_api_calibration.c **** 	if (Status == VL53L0X_ERROR_NONE) {
 747              		.loc 1 375 0
 748 0018 0028     		cmp	r0, #0
 749 001a 0BD1     		bne	.L50
 376:Api\core\src/vl53l0x_api_calibration.c **** 
 377:Api\core\src/vl53l0x_api_calibration.c **** 		/* Store initial device offset */
 378:Api\core\src/vl53l0x_api_calibration.c **** 		PALDevDataSet(Dev, Part2PartOffsetNVMMicroMeter,
 750              		.loc 1 378 0
 751 001c 019D     		ldr	r5, [sp, #4]
 752 001e A560     		str	r5, [r4, #8]
 379:Api\core\src/vl53l0x_api_calibration.c **** 			CurrentOffsetMicroMeters);
 380:Api\core\src/vl53l0x_api_calibration.c **** 
 381:Api\core\src/vl53l0x_api_calibration.c **** 		CorrectedOffsetMicroMeters = CurrentOffsetMicroMeters +
 753              		.loc 1 381 0
 754 0020 E368     		ldr	r3, [r4, #12]
 755 0022 9C46     		mov	ip, r3
 756 0024 6544     		add	r5, r5, ip
 757              	.LVL129:
 382:Api\core\src/vl53l0x_api_calibration.c **** 			(int32_t)PALDevDataGet(Dev,
 383:Api\core\src/vl53l0x_api_calibration.c **** 				Part2PartOffsetAdjustmentNVMMicroMeter);
 384:Api\core\src/vl53l0x_api_calibration.c **** 
 385:Api\core\src/vl53l0x_api_calibration.c **** 		Status = VL53L0X_SetOffsetCalibrationDataMicroMeter(Dev,
 758              		.loc 1 385 0
 759 0026 2900     		movs	r1, r5
 760 0028 2000     		movs	r0, r4
 761              	.LVL130:
 762 002a FFF7FEFF 		bl	VL53L0X_SetOffsetCalibrationDataMicroMeter
 763              	.LVL131:
 386:Api\core\src/vl53l0x_api_calibration.c **** 					CorrectedOffsetMicroMeters);
 387:Api\core\src/vl53l0x_api_calibration.c **** 
 388:Api\core\src/vl53l0x_api_calibration.c **** 		/* store current, adjusted offset */
 389:Api\core\src/vl53l0x_api_calibration.c **** 		if (Status == VL53L0X_ERROR_NONE) {
 764              		.loc 1 389 0
 765 002e 0028     		cmp	r0, #0
 766 0030 00D1     		bne	.L50
 390:Api\core\src/vl53l0x_api_calibration.c **** 			VL53L0X_SETPARAMETERFIELD(Dev, RangeOffsetMicroMeters,
 767              		.loc 1 390 0
 768 0032 6562     		str	r5, [r4, #36]
 769              	.LVL132:
 770              	.L50:
 391:Api\core\src/vl53l0x_api_calibration.c **** 					CorrectedOffsetMicroMeters);
 392:Api\core\src/vl53l0x_api_calibration.c **** 		}
 393:Api\core\src/vl53l0x_api_calibration.c **** 	}
 394:Api\core\src/vl53l0x_api_calibration.c **** 
 395:Api\core\src/vl53l0x_api_calibration.c **** 	return Status;
 396:Api\core\src/vl53l0x_api_calibration.c **** }
 771              		.loc 1 396 0
 772 0034 03B0     		add	sp, sp, #12
 773              		@ sp needed
 774              	.LVL133:
 775 0036 30BD     		pop	{r4, r5, pc}
 776              		.cfi_endproc
ARM GAS  C:\Users\Rajesh\AppData\Local\Temp\ccFou9eL.s 			page 22


 777              	.LFE5:
 778              		.size	VL53L0X_apply_offset_adjustment, .-VL53L0X_apply_offset_adjustment
 779              		.section	.text.get_next_good_spad,"ax",%progbits
 780              		.align	2
 781              		.global	get_next_good_spad
 782              		.code	16
 783              		.thumb_func
 784              		.type	get_next_good_spad, %function
 785              	get_next_good_spad:
 786              	.LFB6:
 397:Api\core\src/vl53l0x_api_calibration.c **** 
 398:Api\core\src/vl53l0x_api_calibration.c **** void get_next_good_spad(uint8_t goodSpadArray[], uint32_t size,
 399:Api\core\src/vl53l0x_api_calibration.c **** 			uint32_t curr, int32_t *next)
 400:Api\core\src/vl53l0x_api_calibration.c **** {
 787              		.loc 1 400 0
 788              		.cfi_startproc
 789              		@ args = 0, pretend = 0, frame = 0
 790              		@ frame_needed = 0, uses_anonymous_args = 0
 791              	.LVL134:
 792 0000 F0B5     		push	{r4, r5, r6, r7, lr}
 793              		.cfi_def_cfa_offset 20
 794              		.cfi_offset 4, -20
 795              		.cfi_offset 5, -16
 796              		.cfi_offset 6, -12
 797              		.cfi_offset 7, -8
 798              		.cfi_offset 14, -4
 799 0002 4746     		mov	r7, r8
 800 0004 80B4     		push	{r7}
 801              		.cfi_def_cfa_offset 24
 802              		.cfi_offset 8, -24
 803 0006 1400     		movs	r4, r2
 804 0008 9846     		mov	r8, r3
 805              	.LVL135:
 401:Api\core\src/vl53l0x_api_calibration.c **** 	uint32_t startIndex;
 402:Api\core\src/vl53l0x_api_calibration.c **** 	uint32_t fineOffset;
 403:Api\core\src/vl53l0x_api_calibration.c **** 	uint32_t cSpadsPerByte = 8;
 404:Api\core\src/vl53l0x_api_calibration.c **** 	uint32_t coarseIndex;
 405:Api\core\src/vl53l0x_api_calibration.c **** 	uint32_t fineIndex;
 406:Api\core\src/vl53l0x_api_calibration.c **** 	uint8_t dataByte;
 407:Api\core\src/vl53l0x_api_calibration.c **** 	uint8_t success = 0;
 408:Api\core\src/vl53l0x_api_calibration.c **** 
 409:Api\core\src/vl53l0x_api_calibration.c **** 	/*
 410:Api\core\src/vl53l0x_api_calibration.c **** 	 * Starting with the current good spad, loop through the array to find
 411:Api\core\src/vl53l0x_api_calibration.c **** 	 * the next. i.e. the next bit set in the sequence.
 412:Api\core\src/vl53l0x_api_calibration.c **** 	 *
 413:Api\core\src/vl53l0x_api_calibration.c **** 	 * The coarse index is the byte index of the array and the fine index is
 414:Api\core\src/vl53l0x_api_calibration.c **** 	 * the index of the bit within each byte.
 415:Api\core\src/vl53l0x_api_calibration.c **** 	 */
 416:Api\core\src/vl53l0x_api_calibration.c **** 
 417:Api\core\src/vl53l0x_api_calibration.c **** 	*next = -1;
 806              		.loc 1 417 0
 807 000a 0123     		movs	r3, #1
 808              	.LVL136:
 809 000c 5B42     		rsbs	r3, r3, #0
 810 000e 4246     		mov	r2, r8
 811              	.LVL137:
 812 0010 1360     		str	r3, [r2]
ARM GAS  C:\Users\Rajesh\AppData\Local\Temp\ccFou9eL.s 			page 23


 418:Api\core\src/vl53l0x_api_calibration.c **** 
 419:Api\core\src/vl53l0x_api_calibration.c **** 	startIndex = curr / cSpadsPerByte;
 813              		.loc 1 419 0
 814 0012 E308     		lsrs	r3, r4, #3
 815              	.LVL138:
 420:Api\core\src/vl53l0x_api_calibration.c **** 	fineOffset = curr % cSpadsPerByte;
 816              		.loc 1 420 0
 817 0014 0725     		movs	r5, #7
 818 0016 2540     		ands	r5, r4
 819 0018 AC46     		mov	ip, r5
 820              	.LVL139:
 421:Api\core\src/vl53l0x_api_calibration.c **** 
 422:Api\core\src/vl53l0x_api_calibration.c **** 	for (coarseIndex = startIndex; ((coarseIndex < size) && !success);
 821              		.loc 1 422 0
 822 001a 1E00     		movs	r6, r3
 407:Api\core\src/vl53l0x_api_calibration.c **** 
 823              		.loc 1 407 0
 824 001c 0027     		movs	r7, #0
 825              		.loc 1 422 0
 826 001e 16E0     		b	.L52
 827              	.LVL140:
 828              	.L59:
 423:Api\core\src/vl53l0x_api_calibration.c **** 				coarseIndex++) {
 424:Api\core\src/vl53l0x_api_calibration.c **** 		fineIndex = 0;
 425:Api\core\src/vl53l0x_api_calibration.c **** 		dataByte = goodSpadArray[coarseIndex];
 829              		.loc 1 425 0
 830 0020 855D     		ldrb	r5, [r0, r6]
 831              	.LVL141:
 426:Api\core\src/vl53l0x_api_calibration.c **** 
 427:Api\core\src/vl53l0x_api_calibration.c **** 		if (coarseIndex == startIndex) {
 832              		.loc 1 427 0
 833 0022 9E42     		cmp	r6, r3
 834 0024 04D1     		bne	.L60
 428:Api\core\src/vl53l0x_api_calibration.c **** 			/* locate the bit position of the provided current
 429:Api\core\src/vl53l0x_api_calibration.c **** 			 * spad bit before iterating */
 430:Api\core\src/vl53l0x_api_calibration.c **** 			dataByte >>= fineOffset;
 835              		.loc 1 430 0
 836 0026 6246     		mov	r2, ip
 837 0028 1541     		asrs	r5, r5, r2
 838              	.LVL142:
 839 002a EDB2     		uxtb	r5, r5
 840              	.LVL143:
 431:Api\core\src/vl53l0x_api_calibration.c **** 			fineIndex = fineOffset;
 841              		.loc 1 431 0
 842 002c 6446     		mov	r4, ip
 843 002e 0BE0     		b	.L54
 844              	.LVL144:
 845              	.L60:
 424:Api\core\src/vl53l0x_api_calibration.c **** 		dataByte = goodSpadArray[coarseIndex];
 846              		.loc 1 424 0
 847 0030 0024     		movs	r4, #0
 848 0032 09E0     		b	.L54
 849              	.LVL145:
 850              	.L57:
 432:Api\core\src/vl53l0x_api_calibration.c **** 		}
 433:Api\core\src/vl53l0x_api_calibration.c **** 
 434:Api\core\src/vl53l0x_api_calibration.c **** 		while (fineIndex < cSpadsPerByte) {
ARM GAS  C:\Users\Rajesh\AppData\Local\Temp\ccFou9eL.s 			page 24


 435:Api\core\src/vl53l0x_api_calibration.c **** 			if ((dataByte & 0x1) == 1) {
 851              		.loc 1 435 0
 852 0034 EA07     		lsls	r2, r5, #31
 853 0036 05D5     		bpl	.L55
 854              	.LVL146:
 436:Api\core\src/vl53l0x_api_calibration.c **** 				success = 1;
 437:Api\core\src/vl53l0x_api_calibration.c **** 				*next = coarseIndex * cSpadsPerByte + fineIndex;
 855              		.loc 1 437 0
 856 0038 F500     		lsls	r5, r6, #3
 857              	.LVL147:
 858 003a 6419     		adds	r4, r4, r5
 859              	.LVL148:
 860 003c 4246     		mov	r2, r8
 861 003e 1460     		str	r4, [r2]
 436:Api\core\src/vl53l0x_api_calibration.c **** 				success = 1;
 862              		.loc 1 436 0
 863 0040 0127     		movs	r7, #1
 438:Api\core\src/vl53l0x_api_calibration.c **** 				break;
 864              		.loc 1 438 0
 865 0042 03E0     		b	.L56
 866              	.LVL149:
 867              	.L55:
 439:Api\core\src/vl53l0x_api_calibration.c **** 			}
 440:Api\core\src/vl53l0x_api_calibration.c **** 			dataByte >>= 1;
 868              		.loc 1 440 0
 869 0044 6D08     		lsrs	r5, r5, #1
 870              	.LVL150:
 441:Api\core\src/vl53l0x_api_calibration.c **** 			fineIndex++;
 871              		.loc 1 441 0
 872 0046 0134     		adds	r4, r4, #1
 873              	.LVL151:
 874              	.L54:
 434:Api\core\src/vl53l0x_api_calibration.c **** 			if ((dataByte & 0x1) == 1) {
 875              		.loc 1 434 0
 876 0048 072C     		cmp	r4, #7
 877 004a F3D9     		bls	.L57
 878              	.LVL152:
 879              	.L56:
 423:Api\core\src/vl53l0x_api_calibration.c **** 		fineIndex = 0;
 880              		.loc 1 423 0
 881 004c 0136     		adds	r6, r6, #1
 882              	.LVL153:
 883              	.L52:
 422:Api\core\src/vl53l0x_api_calibration.c **** 				coarseIndex++) {
 884              		.loc 1 422 0 discriminator 1
 885 004e 8E42     		cmp	r6, r1
 886 0050 01D2     		bcs	.L51
 422:Api\core\src/vl53l0x_api_calibration.c **** 				coarseIndex++) {
 887              		.loc 1 422 0 is_stmt 0 discriminator 2
 888 0052 002F     		cmp	r7, #0
 889 0054 E4D0     		beq	.L59
 890              	.L51:
 442:Api\core\src/vl53l0x_api_calibration.c **** 		}
 443:Api\core\src/vl53l0x_api_calibration.c **** 	}
 444:Api\core\src/vl53l0x_api_calibration.c **** }
 891              		.loc 1 444 0 is_stmt 1
 892              		@ sp needed
ARM GAS  C:\Users\Rajesh\AppData\Local\Temp\ccFou9eL.s 			page 25


 893              	.LVL154:
 894              	.LVL155:
 895              	.LVL156:
 896 0056 04BC     		pop	{r2}
 897 0058 9046     		mov	r8, r2
 898 005a F0BD     		pop	{r4, r5, r6, r7, pc}
 899              		.cfi_endproc
 900              	.LFE6:
 901              		.size	get_next_good_spad, .-get_next_good_spad
 902              		.section	.text.is_aperture,"ax",%progbits
 903              		.align	2
 904              		.global	is_aperture
 905              		.code	16
 906              		.thumb_func
 907              		.type	is_aperture, %function
 908              	is_aperture:
 909              	.LFB7:
 445:Api\core\src/vl53l0x_api_calibration.c **** 
 446:Api\core\src/vl53l0x_api_calibration.c **** 
 447:Api\core\src/vl53l0x_api_calibration.c **** uint8_t is_aperture(uint32_t spadIndex)
 448:Api\core\src/vl53l0x_api_calibration.c **** {
 910              		.loc 1 448 0
 911              		.cfi_startproc
 912              		@ args = 0, pretend = 0, frame = 0
 913              		@ frame_needed = 0, uses_anonymous_args = 0
 914              		@ link register save eliminated.
 915              	.LVL157:
 449:Api\core\src/vl53l0x_api_calibration.c **** 	/*
 450:Api\core\src/vl53l0x_api_calibration.c **** 	 * This function reports if a given spad index is an aperture SPAD by
 451:Api\core\src/vl53l0x_api_calibration.c **** 	 * deriving the quadrant.
 452:Api\core\src/vl53l0x_api_calibration.c **** 	 */
 453:Api\core\src/vl53l0x_api_calibration.c **** 	uint32_t quadrant;
 454:Api\core\src/vl53l0x_api_calibration.c **** 	uint8_t isAperture = 1;
 455:Api\core\src/vl53l0x_api_calibration.c **** 	quadrant = spadIndex >> 6;
 916              		.loc 1 455 0
 917 0000 8009     		lsrs	r0, r0, #6
 918              	.LVL158:
 456:Api\core\src/vl53l0x_api_calibration.c **** 	if (refArrayQuadrants[quadrant] == REF_ARRAY_SPAD_0)
 919              		.loc 1 456 0
 920 0002 8000     		lsls	r0, r0, #2
 921              	.LVL159:
 922 0004 034B     		ldr	r3, .L64
 923 0006 C358     		ldr	r3, [r0, r3]
 924 0008 002B     		cmp	r3, #0
 925 000a 01D0     		beq	.L63
 454:Api\core\src/vl53l0x_api_calibration.c **** 	quadrant = spadIndex >> 6;
 926              		.loc 1 454 0
 927 000c 0120     		movs	r0, #1
 928 000e 00E0     		b	.L62
 929              	.L63:
 457:Api\core\src/vl53l0x_api_calibration.c **** 		isAperture = 0;
 930              		.loc 1 457 0
 931 0010 0020     		movs	r0, #0
 932              	.L62:
 933              	.LVL160:
 458:Api\core\src/vl53l0x_api_calibration.c **** 
 459:Api\core\src/vl53l0x_api_calibration.c **** 	return isAperture;
ARM GAS  C:\Users\Rajesh\AppData\Local\Temp\ccFou9eL.s 			page 26


 460:Api\core\src/vl53l0x_api_calibration.c **** }
 934              		.loc 1 460 0
 935              		@ sp needed
 936 0012 7047     		bx	lr
 937              	.L65:
 938              		.align	2
 939              	.L64:
 940 0014 00000000 		.word	.LANCHOR0
 941              		.cfi_endproc
 942              	.LFE7:
 943              		.size	is_aperture, .-is_aperture
 944              		.section	.text.enable_spad_bit,"ax",%progbits
 945              		.align	2
 946              		.global	enable_spad_bit
 947              		.code	16
 948              		.thumb_func
 949              		.type	enable_spad_bit, %function
 950              	enable_spad_bit:
 951              	.LFB8:
 461:Api\core\src/vl53l0x_api_calibration.c **** 
 462:Api\core\src/vl53l0x_api_calibration.c **** 
 463:Api\core\src/vl53l0x_api_calibration.c **** VL53L0X_Error enable_spad_bit(uint8_t spadArray[], uint32_t size,
 464:Api\core\src/vl53l0x_api_calibration.c **** 	uint32_t spadIndex)
 465:Api\core\src/vl53l0x_api_calibration.c **** {
 952              		.loc 1 465 0
 953              		.cfi_startproc
 954              		@ args = 0, pretend = 0, frame = 0
 955              		@ frame_needed = 0, uses_anonymous_args = 0
 956              	.LVL161:
 957 0000 10B5     		push	{r4, lr}
 958              		.cfi_def_cfa_offset 8
 959              		.cfi_offset 4, -8
 960              		.cfi_offset 14, -4
 961              	.LVL162:
 466:Api\core\src/vl53l0x_api_calibration.c **** 	VL53L0X_Error status = VL53L0X_ERROR_NONE;
 467:Api\core\src/vl53l0x_api_calibration.c **** 	uint32_t cSpadsPerByte = 8;
 468:Api\core\src/vl53l0x_api_calibration.c **** 	uint32_t coarseIndex;
 469:Api\core\src/vl53l0x_api_calibration.c **** 	uint32_t fineIndex;
 470:Api\core\src/vl53l0x_api_calibration.c **** 
 471:Api\core\src/vl53l0x_api_calibration.c **** 	coarseIndex = spadIndex / cSpadsPerByte;
 962              		.loc 1 471 0
 963 0002 D308     		lsrs	r3, r2, #3
 964              	.LVL163:
 472:Api\core\src/vl53l0x_api_calibration.c **** 	fineIndex = spadIndex % cSpadsPerByte;
 965              		.loc 1 472 0
 966 0004 0724     		movs	r4, #7
 967 0006 1440     		ands	r4, r2
 968              	.LVL164:
 473:Api\core\src/vl53l0x_api_calibration.c **** 	if (coarseIndex >= size)
 969              		.loc 1 473 0
 970 0008 8B42     		cmp	r3, r1
 971 000a 07D2     		bcs	.L68
 474:Api\core\src/vl53l0x_api_calibration.c **** 		status = VL53L0X_ERROR_REF_SPAD_INIT;
 475:Api\core\src/vl53l0x_api_calibration.c **** 	else
 476:Api\core\src/vl53l0x_api_calibration.c **** 		spadArray[coarseIndex] |= (1 << fineIndex);
 972              		.loc 1 476 0
 973 000c C318     		adds	r3, r0, r3
ARM GAS  C:\Users\Rajesh\AppData\Local\Temp\ccFou9eL.s 			page 27


 974              	.LVL165:
 975 000e 0122     		movs	r2, #1
 976              	.LVL166:
 977 0010 A240     		lsls	r2, r2, r4
 978 0012 1978     		ldrb	r1, [r3]
 979              	.LVL167:
 980 0014 0A43     		orrs	r2, r1
 981 0016 1A70     		strb	r2, [r3]
 466:Api\core\src/vl53l0x_api_calibration.c **** 	uint32_t cSpadsPerByte = 8;
 982              		.loc 1 466 0
 983 0018 0020     		movs	r0, #0
 984              	.LVL168:
 985 001a 01E0     		b	.L67
 986              	.LVL169:
 987              	.L68:
 474:Api\core\src/vl53l0x_api_calibration.c **** 		status = VL53L0X_ERROR_REF_SPAD_INIT;
 988              		.loc 1 474 0
 989 001c 3220     		movs	r0, #50
 990              	.LVL170:
 991 001e 4042     		rsbs	r0, r0, #0
 992              	.LVL171:
 993              	.L67:
 477:Api\core\src/vl53l0x_api_calibration.c **** 
 478:Api\core\src/vl53l0x_api_calibration.c **** 	return status;
 479:Api\core\src/vl53l0x_api_calibration.c **** }
 994              		.loc 1 479 0
 995              		@ sp needed
 996              	.LVL172:
 997 0020 10BD     		pop	{r4, pc}
 998              		.cfi_endproc
 999              	.LFE8:
 1000              		.size	enable_spad_bit, .-enable_spad_bit
 1001 0022 C046     		.section	.text.count_enabled_spads,"ax",%progbits
 1002              		.align	2
 1003              		.global	count_enabled_spads
 1004              		.code	16
 1005              		.thumb_func
 1006              		.type	count_enabled_spads, %function
 1007              	count_enabled_spads:
 1008              	.LFB9:
 480:Api\core\src/vl53l0x_api_calibration.c **** 
 481:Api\core\src/vl53l0x_api_calibration.c **** VL53L0X_Error count_enabled_spads(uint8_t spadArray[],
 482:Api\core\src/vl53l0x_api_calibration.c **** 		uint32_t byteCount, uint32_t maxSpads,
 483:Api\core\src/vl53l0x_api_calibration.c **** 		uint32_t *pTotalSpadsEnabled, uint8_t *pIsAperture)
 484:Api\core\src/vl53l0x_api_calibration.c **** {
 1009              		.loc 1 484 0
 1010              		.cfi_startproc
 1011              		@ args = 4, pretend = 0, frame = 8
 1012              		@ frame_needed = 0, uses_anonymous_args = 0
 1013              	.LVL173:
 1014 0000 F0B5     		push	{r4, r5, r6, r7, lr}
 1015              		.cfi_def_cfa_offset 20
 1016              		.cfi_offset 4, -20
 1017              		.cfi_offset 5, -16
 1018              		.cfi_offset 6, -12
 1019              		.cfi_offset 7, -8
 1020              		.cfi_offset 14, -4
ARM GAS  C:\Users\Rajesh\AppData\Local\Temp\ccFou9eL.s 			page 28


 1021 0002 4746     		mov	r7, r8
 1022 0004 80B4     		push	{r7}
 1023              		.cfi_def_cfa_offset 24
 1024              		.cfi_offset 8, -24
 1025 0006 82B0     		sub	sp, sp, #8
 1026              		.cfi_def_cfa_offset 32
 1027 0008 8446     		mov	ip, r0
 1028 000a 1500     		movs	r5, r2
 1029 000c 0898     		ldr	r0, [sp, #32]
 1030              	.LVL174:
 485:Api\core\src/vl53l0x_api_calibration.c **** 	VL53L0X_Error status = VL53L0X_ERROR_NONE;
 486:Api\core\src/vl53l0x_api_calibration.c **** 	uint32_t cSpadsPerByte = 8;
 487:Api\core\src/vl53l0x_api_calibration.c **** 	uint32_t lastByte;
 488:Api\core\src/vl53l0x_api_calibration.c **** 	uint32_t lastBit;
 489:Api\core\src/vl53l0x_api_calibration.c **** 	uint32_t byteIndex = 0;
 490:Api\core\src/vl53l0x_api_calibration.c **** 	uint32_t bitIndex = 0;
 491:Api\core\src/vl53l0x_api_calibration.c **** 	uint8_t tempByte;
 492:Api\core\src/vl53l0x_api_calibration.c **** 	uint8_t spadTypeIdentified = 0;
 493:Api\core\src/vl53l0x_api_calibration.c **** 
 494:Api\core\src/vl53l0x_api_calibration.c **** 	/* The entire array will not be used for spads, therefore the last
 495:Api\core\src/vl53l0x_api_calibration.c **** 	 * byte and last bit is determined from the max spads value.
 496:Api\core\src/vl53l0x_api_calibration.c **** 	 */
 497:Api\core\src/vl53l0x_api_calibration.c **** 
 498:Api\core\src/vl53l0x_api_calibration.c **** 	lastByte = maxSpads / cSpadsPerByte;
 1031              		.loc 1 498 0
 1032 000e D208     		lsrs	r2, r2, #3
 1033              	.LVL175:
 499:Api\core\src/vl53l0x_api_calibration.c **** 	lastBit = maxSpads % cSpadsPerByte;
 1034              		.loc 1 499 0
 1035 0010 0724     		movs	r4, #7
 1036 0012 2C40     		ands	r4, r5
 1037 0014 A046     		mov	r8, r4
 1038              	.LVL176:
 500:Api\core\src/vl53l0x_api_calibration.c **** 
 501:Api\core\src/vl53l0x_api_calibration.c **** 	/* Check that the max spads value does not exceed the array bounds. */
 502:Api\core\src/vl53l0x_api_calibration.c **** 	if (lastByte >= byteCount)
 1039              		.loc 1 502 0
 1040 0016 8A42     		cmp	r2, r1
 1041 0018 02D2     		bcs	.L79
 485:Api\core\src/vl53l0x_api_calibration.c **** 	uint32_t cSpadsPerByte = 8;
 1042              		.loc 1 485 0
 1043 001a 0021     		movs	r1, #0
 1044              	.LVL177:
 1045 001c 0191     		str	r1, [sp, #4]
 1046 001e 02E0     		b	.L70
 1047              	.LVL178:
 1048              	.L79:
 503:Api\core\src/vl53l0x_api_calibration.c **** 		status = VL53L0X_ERROR_REF_SPAD_INIT;
 1049              		.loc 1 503 0
 1050 0020 3221     		movs	r1, #50
 1051              	.LVL179:
 1052 0022 4942     		rsbs	r1, r1, #0
 1053 0024 0191     		str	r1, [sp, #4]
 1054              	.L70:
 1055              	.LVL180:
 504:Api\core\src/vl53l0x_api_calibration.c **** 
 505:Api\core\src/vl53l0x_api_calibration.c **** 	*pTotalSpadsEnabled = 0;
ARM GAS  C:\Users\Rajesh\AppData\Local\Temp\ccFou9eL.s 			page 29


 1056              		.loc 1 505 0
 1057 0026 0021     		movs	r1, #0
 1058 0028 1960     		str	r1, [r3]
 492:Api\core\src/vl53l0x_api_calibration.c **** 
 1059              		.loc 1 492 0
 1060 002a 0026     		movs	r6, #0
 506:Api\core\src/vl53l0x_api_calibration.c **** 
 507:Api\core\src/vl53l0x_api_calibration.c **** 	/* Count the bits enabled in the whole bytes */
 508:Api\core\src/vl53l0x_api_calibration.c **** 	for (byteIndex = 0; byteIndex <= (lastByte - 1); byteIndex++) {
 1061              		.loc 1 508 0
 1062 002c 0027     		movs	r7, #0
 1063 002e 1CE0     		b	.L71
 1064              	.LVL181:
 1065              	.L75:
 509:Api\core\src/vl53l0x_api_calibration.c **** 		tempByte = spadArray[byteIndex];
 1066              		.loc 1 509 0
 1067 0030 6146     		mov	r1, ip
 1068 0032 CC5D     		ldrb	r4, [r1, r7]
 1069              	.LVL182:
 510:Api\core\src/vl53l0x_api_calibration.c **** 
 511:Api\core\src/vl53l0x_api_calibration.c **** 		for (bitIndex = 0; bitIndex <= cSpadsPerByte; bitIndex++) {
 1070              		.loc 1 511 0
 1071 0034 0021     		movs	r1, #0
 1072 0036 15E0     		b	.L72
 1073              	.LVL183:
 1074              	.L74:
 512:Api\core\src/vl53l0x_api_calibration.c **** 			if ((tempByte & 0x01) == 1) {
 1075              		.loc 1 512 0
 1076 0038 E507     		lsls	r5, r4, #31
 1077 003a 11D5     		bpl	.L73
 513:Api\core\src/vl53l0x_api_calibration.c **** 				(*pTotalSpadsEnabled)++;
 1078              		.loc 1 513 0
 1079 003c 1D68     		ldr	r5, [r3]
 1080 003e 0135     		adds	r5, r5, #1
 1081 0040 1D60     		str	r5, [r3]
 514:Api\core\src/vl53l0x_api_calibration.c **** 
 515:Api\core\src/vl53l0x_api_calibration.c **** 				if (!spadTypeIdentified) {
 1082              		.loc 1 515 0
 1083 0042 002E     		cmp	r6, #0
 1084 0044 0CD1     		bne	.L73
 516:Api\core\src/vl53l0x_api_calibration.c **** 					*pIsAperture = 1;
 1085              		.loc 1 516 0
 1086 0046 0125     		movs	r5, #1
 1087 0048 0570     		strb	r5, [r0]
 517:Api\core\src/vl53l0x_api_calibration.c **** 					if ((byteIndex < 2) && (bitIndex < 4))
 1088              		.loc 1 517 0
 1089 004a 012F     		cmp	r7, #1
 1090 004c 05D8     		bhi	.L80
 1091              		.loc 1 517 0 is_stmt 0 discriminator 1
 1092 004e 0329     		cmp	r1, #3
 1093 0050 05D8     		bhi	.L81
 518:Api\core\src/vl53l0x_api_calibration.c **** 							*pIsAperture = 0;
 1094              		.loc 1 518 0 is_stmt 1
 1095 0052 0025     		movs	r5, #0
 1096 0054 0570     		strb	r5, [r0]
 519:Api\core\src/vl53l0x_api_calibration.c **** 					spadTypeIdentified = 1;
 1097              		.loc 1 519 0
ARM GAS  C:\Users\Rajesh\AppData\Local\Temp\ccFou9eL.s 			page 30


 1098 0056 0136     		adds	r6, r6, #1
 1099              	.LVL184:
 1100 0058 02E0     		b	.L73
 1101              	.LVL185:
 1102              	.L80:
 1103 005a 0126     		movs	r6, #1
 1104              	.LVL186:
 1105 005c 00E0     		b	.L73
 1106              	.LVL187:
 1107              	.L81:
 1108 005e 0126     		movs	r6, #1
 1109              	.LVL188:
 1110              	.L73:
 520:Api\core\src/vl53l0x_api_calibration.c **** 				}
 521:Api\core\src/vl53l0x_api_calibration.c **** 			}
 522:Api\core\src/vl53l0x_api_calibration.c **** 			tempByte >>= 1;
 1111              		.loc 1 522 0 discriminator 2
 1112 0060 6408     		lsrs	r4, r4, #1
 1113              	.LVL189:
 511:Api\core\src/vl53l0x_api_calibration.c **** 			if ((tempByte & 0x01) == 1) {
 1114              		.loc 1 511 0 discriminator 2
 1115 0062 0131     		adds	r1, r1, #1
 1116              	.LVL190:
 1117              	.L72:
 511:Api\core\src/vl53l0x_api_calibration.c **** 			if ((tempByte & 0x01) == 1) {
 1118              		.loc 1 511 0 is_stmt 0 discriminator 1
 1119 0064 0829     		cmp	r1, #8
 1120 0066 E7D9     		bls	.L74
 508:Api\core\src/vl53l0x_api_calibration.c **** 		tempByte = spadArray[byteIndex];
 1121              		.loc 1 508 0 is_stmt 1 discriminator 2
 1122 0068 0137     		adds	r7, r7, #1
 1123              	.LVL191:
 1124              	.L71:
 508:Api\core\src/vl53l0x_api_calibration.c **** 		tempByte = spadArray[byteIndex];
 1125              		.loc 1 508 0 is_stmt 0 discriminator 1
 1126 006a 511E     		subs	r1, r2, #1
 1127 006c 8F42     		cmp	r7, r1
 1128 006e DFD9     		bls	.L75
 523:Api\core\src/vl53l0x_api_calibration.c **** 		}
 524:Api\core\src/vl53l0x_api_calibration.c **** 	}
 525:Api\core\src/vl53l0x_api_calibration.c **** 
 526:Api\core\src/vl53l0x_api_calibration.c **** 	/* Count the number of bits enabled in the last byte accounting
 527:Api\core\src/vl53l0x_api_calibration.c **** 	 * for the fact that not all bits in the byte may be used.
 528:Api\core\src/vl53l0x_api_calibration.c **** 	 */
 529:Api\core\src/vl53l0x_api_calibration.c **** 	tempByte = spadArray[lastByte];
 1129              		.loc 1 529 0 is_stmt 1
 1130 0070 6146     		mov	r1, ip
 1131 0072 8C5C     		ldrb	r4, [r1, r2]
 1132              	.LVL192:
 530:Api\core\src/vl53l0x_api_calibration.c **** 
 531:Api\core\src/vl53l0x_api_calibration.c **** 	for (bitIndex = 0; bitIndex <= lastBit; bitIndex++) {
 1133              		.loc 1 531 0
 1134 0074 0021     		movs	r1, #0
 1135 0076 05E0     		b	.L76
 1136              	.LVL193:
 1137              	.L78:
 532:Api\core\src/vl53l0x_api_calibration.c **** 		if ((tempByte & 0x01) == 1)
ARM GAS  C:\Users\Rajesh\AppData\Local\Temp\ccFou9eL.s 			page 31


 1138              		.loc 1 532 0
 1139 0078 E207     		lsls	r2, r4, #31
 1140 007a 02D5     		bpl	.L77
 533:Api\core\src/vl53l0x_api_calibration.c **** 			(*pTotalSpadsEnabled)++;
 1141              		.loc 1 533 0
 1142 007c 1A68     		ldr	r2, [r3]
 1143 007e 501C     		adds	r0, r2, #1
 1144 0080 1860     		str	r0, [r3]
 1145              	.L77:
 531:Api\core\src/vl53l0x_api_calibration.c **** 		if ((tempByte & 0x01) == 1)
 1146              		.loc 1 531 0 discriminator 2
 1147 0082 0131     		adds	r1, r1, #1
 1148              	.LVL194:
 1149              	.L76:
 531:Api\core\src/vl53l0x_api_calibration.c **** 		if ((tempByte & 0x01) == 1)
 1150              		.loc 1 531 0 is_stmt 0 discriminator 1
 1151 0084 4145     		cmp	r1, r8
 1152 0086 F7D9     		bls	.L78
 534:Api\core\src/vl53l0x_api_calibration.c **** 	}
 535:Api\core\src/vl53l0x_api_calibration.c **** 
 536:Api\core\src/vl53l0x_api_calibration.c **** 	return status;
 537:Api\core\src/vl53l0x_api_calibration.c **** }
 1153              		.loc 1 537 0 is_stmt 1
 1154 0088 0198     		ldr	r0, [sp, #4]
 1155 008a 02B0     		add	sp, sp, #8
 1156              		@ sp needed
 1157              	.LVL195:
 1158              	.LVL196:
 1159              	.LVL197:
 1160              	.LVL198:
 1161 008c 04BC     		pop	{r2}
 1162 008e 9046     		mov	r8, r2
 1163 0090 F0BD     		pop	{r4, r5, r6, r7, pc}
 1164              		.cfi_endproc
 1165              	.LFE9:
 1166              		.size	count_enabled_spads, .-count_enabled_spads
 1167 0092 C046     		.section	.text.set_ref_spad_map,"ax",%progbits
 1168              		.align	2
 1169              		.global	set_ref_spad_map
 1170              		.code	16
 1171              		.thumb_func
 1172              		.type	set_ref_spad_map, %function
 1173              	set_ref_spad_map:
 1174              	.LFB10:
 538:Api\core\src/vl53l0x_api_calibration.c **** 
 539:Api\core\src/vl53l0x_api_calibration.c **** VL53L0X_Error set_ref_spad_map(VL53L0X_DEV Dev, uint8_t *refSpadArray)
 540:Api\core\src/vl53l0x_api_calibration.c **** {
 1175              		.loc 1 540 0
 1176              		.cfi_startproc
 1177              		@ args = 0, pretend = 0, frame = 0
 1178              		@ frame_needed = 0, uses_anonymous_args = 0
 1179              	.LVL199:
 1180 0000 10B5     		push	{r4, lr}
 1181              		.cfi_def_cfa_offset 8
 1182              		.cfi_offset 4, -8
 1183              		.cfi_offset 14, -4
 1184 0002 0A00     		movs	r2, r1
ARM GAS  C:\Users\Rajesh\AppData\Local\Temp\ccFou9eL.s 			page 32


 541:Api\core\src/vl53l0x_api_calibration.c **** 	VL53L0X_Error status = VL53L0X_WriteMulti(Dev,
 1185              		.loc 1 541 0
 1186 0004 0623     		movs	r3, #6
 1187 0006 B021     		movs	r1, #176
 1188              	.LVL200:
 1189 0008 FFF7FEFF 		bl	VL53L0X_WriteMulti
 1190              	.LVL201:
 542:Api\core\src/vl53l0x_api_calibration.c **** 				VL53L0X_REG_GLOBAL_CONFIG_SPAD_ENABLES_REF_0,
 543:Api\core\src/vl53l0x_api_calibration.c **** 				refSpadArray, 6);
 544:Api\core\src/vl53l0x_api_calibration.c **** 	return status;
 545:Api\core\src/vl53l0x_api_calibration.c **** }
 1191              		.loc 1 545 0
 1192              		@ sp needed
 1193 000c 10BD     		pop	{r4, pc}
 1194              		.cfi_endproc
 1195              	.LFE10:
 1196              		.size	set_ref_spad_map, .-set_ref_spad_map
 1197 000e C046     		.section	.text.get_ref_spad_map,"ax",%progbits
 1198              		.align	2
 1199              		.global	get_ref_spad_map
 1200              		.code	16
 1201              		.thumb_func
 1202              		.type	get_ref_spad_map, %function
 1203              	get_ref_spad_map:
 1204              	.LFB11:
 546:Api\core\src/vl53l0x_api_calibration.c **** 
 547:Api\core\src/vl53l0x_api_calibration.c **** VL53L0X_Error get_ref_spad_map(VL53L0X_DEV Dev, uint8_t *refSpadArray)
 548:Api\core\src/vl53l0x_api_calibration.c **** {
 1205              		.loc 1 548 0
 1206              		.cfi_startproc
 1207              		@ args = 0, pretend = 0, frame = 0
 1208              		@ frame_needed = 0, uses_anonymous_args = 0
 1209              	.LVL202:
 1210 0000 10B5     		push	{r4, lr}
 1211              		.cfi_def_cfa_offset 8
 1212              		.cfi_offset 4, -8
 1213              		.cfi_offset 14, -4
 1214 0002 0A00     		movs	r2, r1
 549:Api\core\src/vl53l0x_api_calibration.c **** 	VL53L0X_Error status = VL53L0X_ReadMulti(Dev,
 1215              		.loc 1 549 0
 1216 0004 0623     		movs	r3, #6
 1217 0006 B021     		movs	r1, #176
 1218              	.LVL203:
 1219 0008 FFF7FEFF 		bl	VL53L0X_ReadMulti
 1220              	.LVL204:
 550:Api\core\src/vl53l0x_api_calibration.c **** 				VL53L0X_REG_GLOBAL_CONFIG_SPAD_ENABLES_REF_0,
 551:Api\core\src/vl53l0x_api_calibration.c **** 				refSpadArray,
 552:Api\core\src/vl53l0x_api_calibration.c **** 				6);
 553:Api\core\src/vl53l0x_api_calibration.c **** 	return status;
 554:Api\core\src/vl53l0x_api_calibration.c **** }
 1221              		.loc 1 554 0
 1222              		@ sp needed
 1223 000c 10BD     		pop	{r4, pc}
 1224              		.cfi_endproc
 1225              	.LFE11:
 1226              		.size	get_ref_spad_map, .-get_ref_spad_map
 1227 000e C046     		.section	.text.enable_ref_spads,"ax",%progbits
ARM GAS  C:\Users\Rajesh\AppData\Local\Temp\ccFou9eL.s 			page 33


 1228              		.align	2
 1229              		.global	enable_ref_spads
 1230              		.code	16
 1231              		.thumb_func
 1232              		.type	enable_ref_spads, %function
 1233              	enable_ref_spads:
 1234              	.LFB12:
 555:Api\core\src/vl53l0x_api_calibration.c **** 
 556:Api\core\src/vl53l0x_api_calibration.c **** VL53L0X_Error enable_ref_spads(VL53L0X_DEV Dev,
 557:Api\core\src/vl53l0x_api_calibration.c **** 				uint8_t apertureSpads,
 558:Api\core\src/vl53l0x_api_calibration.c **** 				uint8_t goodSpadArray[],
 559:Api\core\src/vl53l0x_api_calibration.c **** 				uint8_t spadArray[],
 560:Api\core\src/vl53l0x_api_calibration.c **** 				uint32_t size,
 561:Api\core\src/vl53l0x_api_calibration.c **** 				uint32_t start,
 562:Api\core\src/vl53l0x_api_calibration.c **** 				uint32_t offset,
 563:Api\core\src/vl53l0x_api_calibration.c **** 				uint32_t spadCount,
 564:Api\core\src/vl53l0x_api_calibration.c **** 				uint32_t *lastSpad)
 565:Api\core\src/vl53l0x_api_calibration.c **** {
 1235              		.loc 1 565 0
 1236              		.cfi_startproc
 1237              		@ args = 20, pretend = 0, frame = 32
 1238              		@ frame_needed = 0, uses_anonymous_args = 0
 1239              	.LVL205:
 1240 0000 F0B5     		push	{r4, r5, r6, r7, lr}
 1241              		.cfi_def_cfa_offset 20
 1242              		.cfi_offset 4, -20
 1243              		.cfi_offset 5, -16
 1244              		.cfi_offset 6, -12
 1245              		.cfi_offset 7, -8
 1246              		.cfi_offset 14, -4
 1247 0002 5F46     		mov	r7, fp
 1248 0004 5646     		mov	r6, r10
 1249 0006 4546     		mov	r5, r8
 1250 0008 E0B4     		push	{r5, r6, r7}
 1251              		.cfi_def_cfa_offset 32
 1252              		.cfi_offset 8, -32
 1253              		.cfi_offset 10, -28
 1254              		.cfi_offset 11, -24
 1255 000a 88B0     		sub	sp, sp, #32
 1256              		.cfi_def_cfa_offset 64
 1257 000c 0390     		str	r0, [sp, #12]
 1258 000e 0292     		str	r2, [sp, #8]
 1259 0010 0193     		str	r3, [sp, #4]
 1260 0012 119B     		ldr	r3, [sp, #68]
 1261              	.LVL206:
 1262 0014 9A46     		mov	r10, r3
 1263 0016 129E     		ldr	r6, [sp, #72]
 1264 0018 139F     		ldr	r7, [sp, #76]
 1265              	.LVL207:
 566:Api\core\src/vl53l0x_api_calibration.c **** 	VL53L0X_Error status = VL53L0X_ERROR_NONE;
 567:Api\core\src/vl53l0x_api_calibration.c **** 	uint32_t index;
 568:Api\core\src/vl53l0x_api_calibration.c **** 	uint32_t i;
 569:Api\core\src/vl53l0x_api_calibration.c **** 	int32_t nextGoodSpad = offset;
 1266              		.loc 1 569 0
 1267 001a 0796     		str	r6, [sp, #28]
 1268              	.LVL208:
 570:Api\core\src/vl53l0x_api_calibration.c **** 	uint32_t currentSpad;
ARM GAS  C:\Users\Rajesh\AppData\Local\Temp\ccFou9eL.s 			page 34


 571:Api\core\src/vl53l0x_api_calibration.c **** 	uint8_t checkSpadArray[6];
 572:Api\core\src/vl53l0x_api_calibration.c **** 
 573:Api\core\src/vl53l0x_api_calibration.c **** 	/*
 574:Api\core\src/vl53l0x_api_calibration.c **** 	 * This function takes in a spad array which may or may not have SPADS
 575:Api\core\src/vl53l0x_api_calibration.c **** 	 * already enabled and appends from a given offset a requested number
 576:Api\core\src/vl53l0x_api_calibration.c **** 	 * of new SPAD enables. The 'good spad map' is applied to
 577:Api\core\src/vl53l0x_api_calibration.c **** 	 * determine the next SPADs to enable.
 578:Api\core\src/vl53l0x_api_calibration.c **** 	 *
 579:Api\core\src/vl53l0x_api_calibration.c **** 	 * This function applies to only aperture or only non-aperture spads.
 580:Api\core\src/vl53l0x_api_calibration.c **** 	 * Checks are performed to ensure this.
 581:Api\core\src/vl53l0x_api_calibration.c **** 	 */
 582:Api\core\src/vl53l0x_api_calibration.c **** 
 583:Api\core\src/vl53l0x_api_calibration.c **** 	currentSpad = offset;
 584:Api\core\src/vl53l0x_api_calibration.c **** 	for (index = 0; index < spadCount; index++) {
 1269              		.loc 1 584 0
 1270 001c 0025     		movs	r5, #0
 1271 001e B846     		mov	r8, r7
 1272 0020 2F00     		movs	r7, r5
 1273 0022 3500     		movs	r5, r6
 1274 0024 0E00     		movs	r6, r1
 1275              	.LVL209:
 1276 0026 15E0     		b	.L85
 1277              	.LVL210:
 1278              	.L87:
 585:Api\core\src/vl53l0x_api_calibration.c **** 		get_next_good_spad(goodSpadArray, size, currentSpad,
 1279              		.loc 1 585 0
 1280 0028 07AB     		add	r3, sp, #28
 1281 002a 2A00     		movs	r2, r5
 1282 002c 1099     		ldr	r1, [sp, #64]
 1283 002e 0298     		ldr	r0, [sp, #8]
 1284 0030 FFF7FEFF 		bl	get_next_good_spad
 1285              	.LVL211:
 586:Api\core\src/vl53l0x_api_calibration.c **** 			&nextGoodSpad);
 587:Api\core\src/vl53l0x_api_calibration.c **** 
 588:Api\core\src/vl53l0x_api_calibration.c **** 		if (nextGoodSpad == -1) {
 1286              		.loc 1 588 0
 1287 0034 079C     		ldr	r4, [sp, #28]
 1288 0036 631C     		adds	r3, r4, #1
 1289 0038 11D0     		beq	.L92
 589:Api\core\src/vl53l0x_api_calibration.c **** 			status = VL53L0X_ERROR_REF_SPAD_INIT;
 590:Api\core\src/vl53l0x_api_calibration.c **** 			break;
 591:Api\core\src/vl53l0x_api_calibration.c **** 		}
 592:Api\core\src/vl53l0x_api_calibration.c **** 
 593:Api\core\src/vl53l0x_api_calibration.c **** 		/* Confirm that the next good SPAD is non-aperture */
 594:Api\core\src/vl53l0x_api_calibration.c **** 		if (is_aperture(start + nextGoodSpad) != apertureSpads) {
 1290              		.loc 1 594 0
 1291 003a 5346     		mov	r3, r10
 1292 003c E018     		adds	r0, r4, r3
 1293 003e FFF7FEFF 		bl	is_aperture
 1294              	.LVL212:
 1295 0042 B042     		cmp	r0, r6
 1296 0044 0FD1     		bne	.L93
 1297              	.LVL213:
 595:Api\core\src/vl53l0x_api_calibration.c **** 			/* if we can't get the required number of good aperture
 596:Api\core\src/vl53l0x_api_calibration.c **** 			 * spads from the current quadrant then this is an error
 597:Api\core\src/vl53l0x_api_calibration.c **** 			 */
 598:Api\core\src/vl53l0x_api_calibration.c **** 			status = VL53L0X_ERROR_REF_SPAD_INIT;
ARM GAS  C:\Users\Rajesh\AppData\Local\Temp\ccFou9eL.s 			page 35


 599:Api\core\src/vl53l0x_api_calibration.c **** 			break;
 600:Api\core\src/vl53l0x_api_calibration.c **** 		}
 601:Api\core\src/vl53l0x_api_calibration.c **** 		currentSpad = (uint32_t)nextGoodSpad;
 602:Api\core\src/vl53l0x_api_calibration.c **** 		enable_spad_bit(spadArray, size, currentSpad);
 1298              		.loc 1 602 0 discriminator 2
 1299 0046 2200     		movs	r2, r4
 1300 0048 1099     		ldr	r1, [sp, #64]
 1301 004a 0198     		ldr	r0, [sp, #4]
 1302 004c FFF7FEFF 		bl	enable_spad_bit
 1303              	.LVL214:
 603:Api\core\src/vl53l0x_api_calibration.c **** 		currentSpad++;
 1304              		.loc 1 603 0 discriminator 2
 1305 0050 651C     		adds	r5, r4, #1
 1306              	.LVL215:
 584:Api\core\src/vl53l0x_api_calibration.c **** 		get_next_good_spad(goodSpadArray, size, currentSpad,
 1307              		.loc 1 584 0 discriminator 2
 1308 0052 0137     		adds	r7, r7, #1
 1309              	.LVL216:
 1310              	.L85:
 584:Api\core\src/vl53l0x_api_calibration.c **** 		get_next_good_spad(goodSpadArray, size, currentSpad,
 1311              		.loc 1 584 0 is_stmt 0 discriminator 1
 1312 0054 4745     		cmp	r7, r8
 1313 0056 E7D3     		bcc	.L87
 1314 0058 2E00     		movs	r6, r5
 566:Api\core\src/vl53l0x_api_calibration.c **** 	uint32_t index;
 1315              		.loc 1 566 0 is_stmt 1
 1316 005a 0020     		movs	r0, #0
 1317 005c 06E0     		b	.L86
 1318              	.L92:
 1319 005e 2E00     		movs	r6, r5
 589:Api\core\src/vl53l0x_api_calibration.c **** 			break;
 1320              		.loc 1 589 0
 1321 0060 3220     		movs	r0, #50
 1322 0062 4042     		rsbs	r0, r0, #0
 1323 0064 02E0     		b	.L86
 1324              	.L93:
 1325 0066 2E00     		movs	r6, r5
 598:Api\core\src/vl53l0x_api_calibration.c **** 			break;
 1326              		.loc 1 598 0
 1327 0068 3220     		movs	r0, #50
 1328 006a 4042     		rsbs	r0, r0, #0
 1329              	.L86:
 1330              	.LVL217:
 604:Api\core\src/vl53l0x_api_calibration.c **** 	}
 605:Api\core\src/vl53l0x_api_calibration.c **** 	*lastSpad = currentSpad;
 1331              		.loc 1 605 0
 1332 006c 149B     		ldr	r3, [sp, #80]
 1333 006e 1E60     		str	r6, [r3]
 606:Api\core\src/vl53l0x_api_calibration.c **** 
 607:Api\core\src/vl53l0x_api_calibration.c **** 	if (status == VL53L0X_ERROR_NONE)
 1334              		.loc 1 607 0
 1335 0070 0028     		cmp	r0, #0
 1336 0072 03D1     		bne	.L88
 608:Api\core\src/vl53l0x_api_calibration.c **** 		status = set_ref_spad_map(Dev, spadArray);
 1337              		.loc 1 608 0
 1338 0074 0199     		ldr	r1, [sp, #4]
 1339 0076 0398     		ldr	r0, [sp, #12]
ARM GAS  C:\Users\Rajesh\AppData\Local\Temp\ccFou9eL.s 			page 36


 1340              	.LVL218:
 1341 0078 FFF7FEFF 		bl	set_ref_spad_map
 1342              	.LVL219:
 1343              	.L88:
 609:Api\core\src/vl53l0x_api_calibration.c **** 
 610:Api\core\src/vl53l0x_api_calibration.c **** 
 611:Api\core\src/vl53l0x_api_calibration.c **** 	if (status == VL53L0X_ERROR_NONE) {
 1344              		.loc 1 611 0
 1345 007c 0028     		cmp	r0, #0
 1346 007e 12D1     		bne	.L89
 612:Api\core\src/vl53l0x_api_calibration.c **** 		status = get_ref_spad_map(Dev, checkSpadArray);
 1347              		.loc 1 612 0
 1348 0080 05A9     		add	r1, sp, #20
 1349 0082 0398     		ldr	r0, [sp, #12]
 1350              	.LVL220:
 1351 0084 FFF7FEFF 		bl	get_ref_spad_map
 1352              	.LVL221:
 613:Api\core\src/vl53l0x_api_calibration.c **** 
 614:Api\core\src/vl53l0x_api_calibration.c **** 		i = 0;
 1353              		.loc 1 614 0
 1354 0088 0023     		movs	r3, #0
 1355 008a 019D     		ldr	r5, [sp, #4]
 1356              	.LVL222:
 1357 008c 109C     		ldr	r4, [sp, #64]
 615:Api\core\src/vl53l0x_api_calibration.c **** 
 616:Api\core\src/vl53l0x_api_calibration.c **** 		/* Compare spad maps. If not equal report error. */
 617:Api\core\src/vl53l0x_api_calibration.c **** 		while (i < size) {
 1358              		.loc 1 617 0
 1359 008e 05E0     		b	.L90
 1360              	.LVL223:
 1361              	.L91:
 618:Api\core\src/vl53l0x_api_calibration.c **** 			if (spadArray[i] != checkSpadArray[i]) {
 1362              		.loc 1 618 0
 1363 0090 E95C     		ldrb	r1, [r5, r3]
 1364 0092 05AA     		add	r2, sp, #20
 1365 0094 D25C     		ldrb	r2, [r2, r3]
 1366 0096 9142     		cmp	r1, r2
 1367 0098 03D1     		bne	.L94
 619:Api\core\src/vl53l0x_api_calibration.c **** 				status = VL53L0X_ERROR_REF_SPAD_INIT;
 620:Api\core\src/vl53l0x_api_calibration.c **** 				break;
 621:Api\core\src/vl53l0x_api_calibration.c **** 			}
 622:Api\core\src/vl53l0x_api_calibration.c **** 			i++;
 1368              		.loc 1 622 0
 1369 009a 0133     		adds	r3, r3, #1
 1370              	.LVL224:
 1371              	.L90:
 617:Api\core\src/vl53l0x_api_calibration.c **** 			if (spadArray[i] != checkSpadArray[i]) {
 1372              		.loc 1 617 0
 1373 009c A342     		cmp	r3, r4
 1374 009e F7D3     		bcc	.L91
 1375 00a0 01E0     		b	.L89
 1376              	.L94:
 619:Api\core\src/vl53l0x_api_calibration.c **** 				status = VL53L0X_ERROR_REF_SPAD_INIT;
 1377              		.loc 1 619 0
 1378 00a2 3220     		movs	r0, #50
 1379              	.LVL225:
 1380 00a4 4042     		rsbs	r0, r0, #0
ARM GAS  C:\Users\Rajesh\AppData\Local\Temp\ccFou9eL.s 			page 37


 1381              	.LVL226:
 1382              	.L89:
 623:Api\core\src/vl53l0x_api_calibration.c **** 		}
 624:Api\core\src/vl53l0x_api_calibration.c **** 	}
 625:Api\core\src/vl53l0x_api_calibration.c **** 	return status;
 626:Api\core\src/vl53l0x_api_calibration.c **** }
 1383              		.loc 1 626 0
 1384 00a6 08B0     		add	sp, sp, #32
 1385              		@ sp needed
 1386              	.LVL227:
 1387              	.LVL228:
 1388 00a8 1CBC     		pop	{r2, r3, r4}
 1389 00aa 9046     		mov	r8, r2
 1390 00ac 9A46     		mov	r10, r3
 1391 00ae A346     		mov	fp, r4
 1392 00b0 F0BD     		pop	{r4, r5, r6, r7, pc}
 1393              		.cfi_endproc
 1394              	.LFE12:
 1395              		.size	enable_ref_spads, .-enable_ref_spads
 1396 00b2 C046     		.section	.text.perform_ref_signal_measurement,"ax",%progbits
 1397              		.align	2
 1398              		.global	perform_ref_signal_measurement
 1399              		.code	16
 1400              		.thumb_func
 1401              		.type	perform_ref_signal_measurement, %function
 1402              	perform_ref_signal_measurement:
 1403              	.LFB13:
 627:Api\core\src/vl53l0x_api_calibration.c **** 
 628:Api\core\src/vl53l0x_api_calibration.c **** 
 629:Api\core\src/vl53l0x_api_calibration.c **** VL53L0X_Error perform_ref_signal_measurement(VL53L0X_DEV Dev,
 630:Api\core\src/vl53l0x_api_calibration.c **** 		uint16_t *refSignalRate)
 631:Api\core\src/vl53l0x_api_calibration.c **** {
 1404              		.loc 1 631 0
 1405              		.cfi_startproc
 1406              		@ args = 0, pretend = 0, frame = 32
 1407              		@ frame_needed = 0, uses_anonymous_args = 0
 1408              	.LVL229:
 1409 0000 70B5     		push	{r4, r5, r6, lr}
 1410              		.cfi_def_cfa_offset 16
 1411              		.cfi_offset 4, -16
 1412              		.cfi_offset 5, -12
 1413              		.cfi_offset 6, -8
 1414              		.cfi_offset 14, -4
 1415 0002 88B0     		sub	sp, sp, #32
 1416              		.cfi_def_cfa_offset 48
 1417 0004 0400     		movs	r4, r0
 1418 0006 0D00     		movs	r5, r1
 1419              	.LVL230:
 632:Api\core\src/vl53l0x_api_calibration.c **** 	VL53L0X_Error status = VL53L0X_ERROR_NONE;
 633:Api\core\src/vl53l0x_api_calibration.c **** 	VL53L0X_RangingMeasurementData_t rangingMeasurementData;
 634:Api\core\src/vl53l0x_api_calibration.c **** 
 635:Api\core\src/vl53l0x_api_calibration.c **** 	uint8_t SequenceConfig = 0;
 636:Api\core\src/vl53l0x_api_calibration.c **** 
 637:Api\core\src/vl53l0x_api_calibration.c **** 	/* store the value of the sequence config,
 638:Api\core\src/vl53l0x_api_calibration.c **** 	 * this will be reset before the end of the function
 639:Api\core\src/vl53l0x_api_calibration.c **** 	 */
 640:Api\core\src/vl53l0x_api_calibration.c **** 
ARM GAS  C:\Users\Rajesh\AppData\Local\Temp\ccFou9eL.s 			page 38


 641:Api\core\src/vl53l0x_api_calibration.c **** 	SequenceConfig = PALDevDataGet(Dev, SequenceConfig);
 1420              		.loc 1 641 0
 1421 0008 9823     		movs	r3, #152
 1422 000a 5B00     		lsls	r3, r3, #1
 1423 000c C65C     		ldrb	r6, [r0, r3]
 1424              	.LVL231:
 642:Api\core\src/vl53l0x_api_calibration.c **** 
 643:Api\core\src/vl53l0x_api_calibration.c **** 	/*
 644:Api\core\src/vl53l0x_api_calibration.c **** 	 * This function performs a reference signal rate measurement.
 645:Api\core\src/vl53l0x_api_calibration.c **** 	 */
 646:Api\core\src/vl53l0x_api_calibration.c **** 	if (status == VL53L0X_ERROR_NONE)
 647:Api\core\src/vl53l0x_api_calibration.c **** 		status = VL53L0X_WrByte(Dev,
 1425              		.loc 1 647 0
 1426 000e C022     		movs	r2, #192
 1427 0010 0121     		movs	r1, #1
 1428              	.LVL232:
 1429 0012 FFF7FEFF 		bl	VL53L0X_WrByte
 1430              	.LVL233:
 648:Api\core\src/vl53l0x_api_calibration.c **** 			VL53L0X_REG_SYSTEM_SEQUENCE_CONFIG, 0xC0);
 649:Api\core\src/vl53l0x_api_calibration.c **** 
 650:Api\core\src/vl53l0x_api_calibration.c **** 	if (status == VL53L0X_ERROR_NONE)
 1431              		.loc 1 650 0
 1432 0016 0028     		cmp	r0, #0
 1433 0018 03D1     		bne	.L96
 651:Api\core\src/vl53l0x_api_calibration.c **** 		status = VL53L0X_PerformSingleRangingMeasurement(Dev,
 1434              		.loc 1 651 0
 1435 001a 01A9     		add	r1, sp, #4
 1436 001c 2000     		movs	r0, r4
 1437              	.LVL234:
 1438 001e FFF7FEFF 		bl	VL53L0X_PerformSingleRangingMeasurement
 1439              	.LVL235:
 1440              	.L96:
 652:Api\core\src/vl53l0x_api_calibration.c **** 				&rangingMeasurementData);
 653:Api\core\src/vl53l0x_api_calibration.c **** 
 654:Api\core\src/vl53l0x_api_calibration.c **** 	if (status == VL53L0X_ERROR_NONE)
 1441              		.loc 1 654 0
 1442 0022 0028     		cmp	r0, #0
 1443 0024 04D1     		bne	.L97
 655:Api\core\src/vl53l0x_api_calibration.c **** 		status = VL53L0X_WrByte(Dev, 0xFF, 0x01);
 1444              		.loc 1 655 0
 1445 0026 0122     		movs	r2, #1
 1446 0028 FF21     		movs	r1, #255
 1447 002a 2000     		movs	r0, r4
 1448              	.LVL236:
 1449 002c FFF7FEFF 		bl	VL53L0X_WrByte
 1450              	.LVL237:
 1451              	.L97:
 656:Api\core\src/vl53l0x_api_calibration.c **** 
 657:Api\core\src/vl53l0x_api_calibration.c **** 	if (status == VL53L0X_ERROR_NONE)
 1452              		.loc 1 657 0
 1453 0030 0028     		cmp	r0, #0
 1454 0032 04D1     		bne	.L98
 658:Api\core\src/vl53l0x_api_calibration.c **** 		status = VL53L0X_RdWord(Dev,
 1455              		.loc 1 658 0
 1456 0034 2A00     		movs	r2, r5
 1457 0036 B621     		movs	r1, #182
 1458 0038 2000     		movs	r0, r4
ARM GAS  C:\Users\Rajesh\AppData\Local\Temp\ccFou9eL.s 			page 39


 1459              	.LVL238:
 1460 003a FFF7FEFF 		bl	VL53L0X_RdWord
 1461              	.LVL239:
 1462              	.L98:
 659:Api\core\src/vl53l0x_api_calibration.c **** 			VL53L0X_REG_RESULT_PEAK_SIGNAL_RATE_REF,
 660:Api\core\src/vl53l0x_api_calibration.c **** 			refSignalRate);
 661:Api\core\src/vl53l0x_api_calibration.c **** 
 662:Api\core\src/vl53l0x_api_calibration.c **** 	if (status == VL53L0X_ERROR_NONE)
 1463              		.loc 1 662 0
 1464 003e 0028     		cmp	r0, #0
 1465 0040 04D1     		bne	.L99
 663:Api\core\src/vl53l0x_api_calibration.c **** 		status = VL53L0X_WrByte(Dev, 0xFF, 0x00);
 1466              		.loc 1 663 0
 1467 0042 0022     		movs	r2, #0
 1468 0044 FF21     		movs	r1, #255
 1469 0046 2000     		movs	r0, r4
 1470              	.LVL240:
 1471 0048 FFF7FEFF 		bl	VL53L0X_WrByte
 1472              	.LVL241:
 1473              	.L99:
 664:Api\core\src/vl53l0x_api_calibration.c **** 
 665:Api\core\src/vl53l0x_api_calibration.c **** 	if (status == VL53L0X_ERROR_NONE) {
 1474              		.loc 1 665 0
 1475 004c 0028     		cmp	r0, #0
 1476 004e 09D1     		bne	.L100
 666:Api\core\src/vl53l0x_api_calibration.c **** 		/* restore the previous Sequence Config */
 667:Api\core\src/vl53l0x_api_calibration.c **** 		status = VL53L0X_WrByte(Dev, VL53L0X_REG_SYSTEM_SEQUENCE_CONFIG,
 1477              		.loc 1 667 0
 1478 0050 3200     		movs	r2, r6
 1479 0052 0121     		movs	r1, #1
 1480 0054 2000     		movs	r0, r4
 1481              	.LVL242:
 1482 0056 FFF7FEFF 		bl	VL53L0X_WrByte
 1483              	.LVL243:
 668:Api\core\src/vl53l0x_api_calibration.c **** 				SequenceConfig);
 669:Api\core\src/vl53l0x_api_calibration.c **** 		if (status == VL53L0X_ERROR_NONE)
 1484              		.loc 1 669 0
 1485 005a 0028     		cmp	r0, #0
 1486 005c 02D1     		bne	.L100
 670:Api\core\src/vl53l0x_api_calibration.c **** 			PALDevDataSet(Dev, SequenceConfig, SequenceConfig);
 1487              		.loc 1 670 0
 1488 005e 9823     		movs	r3, #152
 1489 0060 5B00     		lsls	r3, r3, #1
 1490 0062 E654     		strb	r6, [r4, r3]
 1491              	.LVL244:
 1492              	.L100:
 671:Api\core\src/vl53l0x_api_calibration.c **** 	}
 672:Api\core\src/vl53l0x_api_calibration.c **** 
 673:Api\core\src/vl53l0x_api_calibration.c **** 	return status;
 674:Api\core\src/vl53l0x_api_calibration.c **** }
 1493              		.loc 1 674 0
 1494 0064 08B0     		add	sp, sp, #32
 1495              		@ sp needed
 1496              	.LVL245:
 1497              	.LVL246:
 1498              	.LVL247:
 1499 0066 70BD     		pop	{r4, r5, r6, pc}
ARM GAS  C:\Users\Rajesh\AppData\Local\Temp\ccFou9eL.s 			page 40


 1500              		.cfi_endproc
 1501              	.LFE13:
 1502              		.size	perform_ref_signal_measurement, .-perform_ref_signal_measurement
 1503              		.section	.text.VL53L0X_set_reference_spads,"ax",%progbits
 1504              		.align	2
 1505              		.global	VL53L0X_set_reference_spads
 1506              		.code	16
 1507              		.thumb_func
 1508              		.type	VL53L0X_set_reference_spads, %function
 1509              	VL53L0X_set_reference_spads:
 1510              	.LFB15:
 675:Api\core\src/vl53l0x_api_calibration.c **** 
 676:Api\core\src/vl53l0x_api_calibration.c **** VL53L0X_Error VL53L0X_perform_ref_spad_management(VL53L0X_DEV Dev,
 677:Api\core\src/vl53l0x_api_calibration.c **** 				uint32_t *refSpadCount,
 678:Api\core\src/vl53l0x_api_calibration.c **** 				uint8_t *isApertureSpads)
 679:Api\core\src/vl53l0x_api_calibration.c **** {
 680:Api\core\src/vl53l0x_api_calibration.c **** 	VL53L0X_Error Status = VL53L0X_ERROR_NONE;
 681:Api\core\src/vl53l0x_api_calibration.c **** 	uint8_t lastSpadArray[6];
 682:Api\core\src/vl53l0x_api_calibration.c **** 	uint8_t startSelect = 0xB4;
 683:Api\core\src/vl53l0x_api_calibration.c **** 	uint32_t minimumSpadCount = 3;
 684:Api\core\src/vl53l0x_api_calibration.c **** 	uint32_t maxSpadCount = 44;
 685:Api\core\src/vl53l0x_api_calibration.c **** 	uint32_t currentSpadIndex = 0;
 686:Api\core\src/vl53l0x_api_calibration.c **** 	uint32_t lastSpadIndex = 0;
 687:Api\core\src/vl53l0x_api_calibration.c **** 	int32_t nextGoodSpad = 0;
 688:Api\core\src/vl53l0x_api_calibration.c **** 	uint16_t targetRefRate = 0x0A00; /* 20 MCPS in 9:7 format */
 689:Api\core\src/vl53l0x_api_calibration.c **** 	uint16_t peakSignalRateRef;
 690:Api\core\src/vl53l0x_api_calibration.c **** 	uint32_t needAptSpads = 0;
 691:Api\core\src/vl53l0x_api_calibration.c **** 	uint32_t index = 0;
 692:Api\core\src/vl53l0x_api_calibration.c **** 	uint32_t spadArraySize = 6;
 693:Api\core\src/vl53l0x_api_calibration.c **** 	uint32_t signalRateDiff = 0;
 694:Api\core\src/vl53l0x_api_calibration.c **** 	uint32_t lastSignalRateDiff = 0;
 695:Api\core\src/vl53l0x_api_calibration.c **** 	uint8_t complete = 0;
 696:Api\core\src/vl53l0x_api_calibration.c **** 	uint8_t VhvSettings = 0;
 697:Api\core\src/vl53l0x_api_calibration.c **** 	uint8_t PhaseCal = 0;
 698:Api\core\src/vl53l0x_api_calibration.c **** 	uint32_t refSpadCount_int = 0;
 699:Api\core\src/vl53l0x_api_calibration.c **** 	uint8_t	 isApertureSpads_int = 0;
 700:Api\core\src/vl53l0x_api_calibration.c **** 
 701:Api\core\src/vl53l0x_api_calibration.c **** 	/*
 702:Api\core\src/vl53l0x_api_calibration.c **** 	 * The reference SPAD initialization procedure determines the minimum
 703:Api\core\src/vl53l0x_api_calibration.c **** 	 * amount of reference spads to be enables to achieve a target reference
 704:Api\core\src/vl53l0x_api_calibration.c **** 	 * signal rate and should be performed once during initialization.
 705:Api\core\src/vl53l0x_api_calibration.c **** 	 *
 706:Api\core\src/vl53l0x_api_calibration.c **** 	 * Either aperture or non-aperture spads are applied but never both.
 707:Api\core\src/vl53l0x_api_calibration.c **** 	 * Firstly non-aperture spads are set, begining with 5 spads, and
 708:Api\core\src/vl53l0x_api_calibration.c **** 	 * increased one spad at a time until the closest measurement to the
 709:Api\core\src/vl53l0x_api_calibration.c **** 	 * target rate is achieved.
 710:Api\core\src/vl53l0x_api_calibration.c **** 	 *
 711:Api\core\src/vl53l0x_api_calibration.c **** 	 * If the target rate is exceeded when 5 non-aperture spads are enabled,
 712:Api\core\src/vl53l0x_api_calibration.c **** 	 * initialization is performed instead with aperture spads.
 713:Api\core\src/vl53l0x_api_calibration.c **** 	 *
 714:Api\core\src/vl53l0x_api_calibration.c **** 	 * When setting spads, a 'Good Spad Map' is applied.
 715:Api\core\src/vl53l0x_api_calibration.c **** 	 *
 716:Api\core\src/vl53l0x_api_calibration.c **** 	 * This procedure operates within a SPAD window of interest of a maximum
 717:Api\core\src/vl53l0x_api_calibration.c **** 	 * 44 spads.
 718:Api\core\src/vl53l0x_api_calibration.c **** 	 * The start point is currently fixed to 180, which lies towards the end
 719:Api\core\src/vl53l0x_api_calibration.c **** 	 * of the non-aperture quadrant and runs in to the adjacent aperture
 720:Api\core\src/vl53l0x_api_calibration.c **** 	 * quadrant.
ARM GAS  C:\Users\Rajesh\AppData\Local\Temp\ccFou9eL.s 			page 41


 721:Api\core\src/vl53l0x_api_calibration.c **** 	 */
 722:Api\core\src/vl53l0x_api_calibration.c **** 
 723:Api\core\src/vl53l0x_api_calibration.c **** 
 724:Api\core\src/vl53l0x_api_calibration.c **** 	targetRefRate = PALDevDataGet(Dev, targetRefRate);
 725:Api\core\src/vl53l0x_api_calibration.c **** 
 726:Api\core\src/vl53l0x_api_calibration.c **** 	/*
 727:Api\core\src/vl53l0x_api_calibration.c **** 	 * Initialize Spad arrays.
 728:Api\core\src/vl53l0x_api_calibration.c **** 	 * Currently the good spad map is initialised to 'All good'.
 729:Api\core\src/vl53l0x_api_calibration.c **** 	 * This is a short term implementation. The good spad map will be
 730:Api\core\src/vl53l0x_api_calibration.c **** 	 * provided as an input.
 731:Api\core\src/vl53l0x_api_calibration.c **** 	 * Note that there are 6 bytes. Only the first 44 bits will be used to
 732:Api\core\src/vl53l0x_api_calibration.c **** 	 * represent spads.
 733:Api\core\src/vl53l0x_api_calibration.c **** 	 */
 734:Api\core\src/vl53l0x_api_calibration.c **** 	for (index = 0; index < spadArraySize; index++)
 735:Api\core\src/vl53l0x_api_calibration.c **** 		Dev->Data.SpadData.RefSpadEnables[index] = 0;
 736:Api\core\src/vl53l0x_api_calibration.c **** 
 737:Api\core\src/vl53l0x_api_calibration.c **** 
 738:Api\core\src/vl53l0x_api_calibration.c **** 	Status = VL53L0X_WrByte(Dev, 0xFF, 0x01);
 739:Api\core\src/vl53l0x_api_calibration.c **** 
 740:Api\core\src/vl53l0x_api_calibration.c **** 	if (Status == VL53L0X_ERROR_NONE)
 741:Api\core\src/vl53l0x_api_calibration.c **** 		Status = VL53L0X_WrByte(Dev,
 742:Api\core\src/vl53l0x_api_calibration.c **** 			VL53L0X_REG_DYNAMIC_SPAD_REF_EN_START_OFFSET, 0x00);
 743:Api\core\src/vl53l0x_api_calibration.c **** 
 744:Api\core\src/vl53l0x_api_calibration.c **** 	if (Status == VL53L0X_ERROR_NONE)
 745:Api\core\src/vl53l0x_api_calibration.c **** 		Status = VL53L0X_WrByte(Dev,
 746:Api\core\src/vl53l0x_api_calibration.c **** 			VL53L0X_REG_DYNAMIC_SPAD_NUM_REQUESTED_REF_SPAD, 0x2C);
 747:Api\core\src/vl53l0x_api_calibration.c **** 
 748:Api\core\src/vl53l0x_api_calibration.c **** 	if (Status == VL53L0X_ERROR_NONE)
 749:Api\core\src/vl53l0x_api_calibration.c **** 		Status = VL53L0X_WrByte(Dev, 0xFF, 0x00);
 750:Api\core\src/vl53l0x_api_calibration.c **** 
 751:Api\core\src/vl53l0x_api_calibration.c **** 	if (Status == VL53L0X_ERROR_NONE)
 752:Api\core\src/vl53l0x_api_calibration.c **** 		Status = VL53L0X_WrByte(Dev,
 753:Api\core\src/vl53l0x_api_calibration.c **** 			VL53L0X_REG_GLOBAL_CONFIG_REF_EN_START_SELECT,
 754:Api\core\src/vl53l0x_api_calibration.c **** 			startSelect);
 755:Api\core\src/vl53l0x_api_calibration.c **** 
 756:Api\core\src/vl53l0x_api_calibration.c **** 
 757:Api\core\src/vl53l0x_api_calibration.c **** 	if (Status == VL53L0X_ERROR_NONE)
 758:Api\core\src/vl53l0x_api_calibration.c **** 		Status = VL53L0X_WrByte(Dev,
 759:Api\core\src/vl53l0x_api_calibration.c **** 				VL53L0X_REG_POWER_MANAGEMENT_GO1_POWER_FORCE, 0);
 760:Api\core\src/vl53l0x_api_calibration.c **** 
 761:Api\core\src/vl53l0x_api_calibration.c **** 	/* Perform ref calibration */
 762:Api\core\src/vl53l0x_api_calibration.c **** 	if (Status == VL53L0X_ERROR_NONE)
 763:Api\core\src/vl53l0x_api_calibration.c **** 		Status = VL53L0X_perform_ref_calibration(Dev, &VhvSettings,
 764:Api\core\src/vl53l0x_api_calibration.c **** 			&PhaseCal, 0);
 765:Api\core\src/vl53l0x_api_calibration.c **** 
 766:Api\core\src/vl53l0x_api_calibration.c **** 	if (Status == VL53L0X_ERROR_NONE) {
 767:Api\core\src/vl53l0x_api_calibration.c **** 		/* Enable Minimum NON-APERTURE Spads */
 768:Api\core\src/vl53l0x_api_calibration.c **** 		currentSpadIndex = 0;
 769:Api\core\src/vl53l0x_api_calibration.c **** 		lastSpadIndex = currentSpadIndex;
 770:Api\core\src/vl53l0x_api_calibration.c **** 		needAptSpads = 0;
 771:Api\core\src/vl53l0x_api_calibration.c **** 		Status = enable_ref_spads(Dev,
 772:Api\core\src/vl53l0x_api_calibration.c **** 					needAptSpads,
 773:Api\core\src/vl53l0x_api_calibration.c **** 					Dev->Data.SpadData.RefGoodSpadMap,
 774:Api\core\src/vl53l0x_api_calibration.c **** 					Dev->Data.SpadData.RefSpadEnables,
 775:Api\core\src/vl53l0x_api_calibration.c **** 					spadArraySize,
 776:Api\core\src/vl53l0x_api_calibration.c **** 					startSelect,
 777:Api\core\src/vl53l0x_api_calibration.c **** 					currentSpadIndex,
ARM GAS  C:\Users\Rajesh\AppData\Local\Temp\ccFou9eL.s 			page 42


 778:Api\core\src/vl53l0x_api_calibration.c **** 					minimumSpadCount,
 779:Api\core\src/vl53l0x_api_calibration.c **** 					&lastSpadIndex);
 780:Api\core\src/vl53l0x_api_calibration.c **** 	}
 781:Api\core\src/vl53l0x_api_calibration.c **** 
 782:Api\core\src/vl53l0x_api_calibration.c **** 	if (Status == VL53L0X_ERROR_NONE) {
 783:Api\core\src/vl53l0x_api_calibration.c **** 		currentSpadIndex = lastSpadIndex;
 784:Api\core\src/vl53l0x_api_calibration.c **** 
 785:Api\core\src/vl53l0x_api_calibration.c **** 		Status = perform_ref_signal_measurement(Dev,
 786:Api\core\src/vl53l0x_api_calibration.c **** 			&peakSignalRateRef);
 787:Api\core\src/vl53l0x_api_calibration.c **** 		if ((Status == VL53L0X_ERROR_NONE) &&
 788:Api\core\src/vl53l0x_api_calibration.c **** 			(peakSignalRateRef > targetRefRate)) {
 789:Api\core\src/vl53l0x_api_calibration.c **** 			/* Signal rate measurement too high,
 790:Api\core\src/vl53l0x_api_calibration.c **** 			 * switch to APERTURE SPADs */
 791:Api\core\src/vl53l0x_api_calibration.c **** 
 792:Api\core\src/vl53l0x_api_calibration.c **** 			for (index = 0; index < spadArraySize; index++)
 793:Api\core\src/vl53l0x_api_calibration.c **** 				Dev->Data.SpadData.RefSpadEnables[index] = 0;
 794:Api\core\src/vl53l0x_api_calibration.c **** 
 795:Api\core\src/vl53l0x_api_calibration.c **** 
 796:Api\core\src/vl53l0x_api_calibration.c **** 			/* Increment to the first APERTURE spad */
 797:Api\core\src/vl53l0x_api_calibration.c **** 			while ((is_aperture(startSelect + currentSpadIndex)
 798:Api\core\src/vl53l0x_api_calibration.c **** 				== 0) && (currentSpadIndex < maxSpadCount)) {
 799:Api\core\src/vl53l0x_api_calibration.c **** 				currentSpadIndex++;
 800:Api\core\src/vl53l0x_api_calibration.c **** 			}
 801:Api\core\src/vl53l0x_api_calibration.c **** 
 802:Api\core\src/vl53l0x_api_calibration.c **** 			needAptSpads = 1;
 803:Api\core\src/vl53l0x_api_calibration.c **** 
 804:Api\core\src/vl53l0x_api_calibration.c **** 			Status = enable_ref_spads(Dev,
 805:Api\core\src/vl53l0x_api_calibration.c **** 					needAptSpads,
 806:Api\core\src/vl53l0x_api_calibration.c **** 					Dev->Data.SpadData.RefGoodSpadMap,
 807:Api\core\src/vl53l0x_api_calibration.c **** 					Dev->Data.SpadData.RefSpadEnables,
 808:Api\core\src/vl53l0x_api_calibration.c **** 					spadArraySize,
 809:Api\core\src/vl53l0x_api_calibration.c **** 					startSelect,
 810:Api\core\src/vl53l0x_api_calibration.c **** 					currentSpadIndex,
 811:Api\core\src/vl53l0x_api_calibration.c **** 					minimumSpadCount,
 812:Api\core\src/vl53l0x_api_calibration.c **** 					&lastSpadIndex);
 813:Api\core\src/vl53l0x_api_calibration.c **** 
 814:Api\core\src/vl53l0x_api_calibration.c **** 			if (Status == VL53L0X_ERROR_NONE) {
 815:Api\core\src/vl53l0x_api_calibration.c **** 				currentSpadIndex = lastSpadIndex;
 816:Api\core\src/vl53l0x_api_calibration.c **** 				Status = perform_ref_signal_measurement(Dev,
 817:Api\core\src/vl53l0x_api_calibration.c **** 						&peakSignalRateRef);
 818:Api\core\src/vl53l0x_api_calibration.c **** 
 819:Api\core\src/vl53l0x_api_calibration.c **** 				if ((Status == VL53L0X_ERROR_NONE) &&
 820:Api\core\src/vl53l0x_api_calibration.c **** 					(peakSignalRateRef > targetRefRate)) {
 821:Api\core\src/vl53l0x_api_calibration.c **** 					/* Signal rate still too high after
 822:Api\core\src/vl53l0x_api_calibration.c **** 					 * setting the minimum number of
 823:Api\core\src/vl53l0x_api_calibration.c **** 					 * APERTURE spads. Can do no more
 824:Api\core\src/vl53l0x_api_calibration.c **** 					 * therefore set the min number of
 825:Api\core\src/vl53l0x_api_calibration.c **** 					 * aperture spads as the result.
 826:Api\core\src/vl53l0x_api_calibration.c **** 					 */
 827:Api\core\src/vl53l0x_api_calibration.c **** 					isApertureSpads_int = 1;
 828:Api\core\src/vl53l0x_api_calibration.c **** 					refSpadCount_int = minimumSpadCount;
 829:Api\core\src/vl53l0x_api_calibration.c **** 				}
 830:Api\core\src/vl53l0x_api_calibration.c **** 			}
 831:Api\core\src/vl53l0x_api_calibration.c **** 		} else {
 832:Api\core\src/vl53l0x_api_calibration.c **** 			needAptSpads = 0;
 833:Api\core\src/vl53l0x_api_calibration.c **** 		}
 834:Api\core\src/vl53l0x_api_calibration.c **** 	}
ARM GAS  C:\Users\Rajesh\AppData\Local\Temp\ccFou9eL.s 			page 43


 835:Api\core\src/vl53l0x_api_calibration.c **** 
 836:Api\core\src/vl53l0x_api_calibration.c **** 	if ((Status == VL53L0X_ERROR_NONE) &&
 837:Api\core\src/vl53l0x_api_calibration.c **** 		(peakSignalRateRef < targetRefRate)) {
 838:Api\core\src/vl53l0x_api_calibration.c **** 		/* At this point, the minimum number of either aperture
 839:Api\core\src/vl53l0x_api_calibration.c **** 		 * or non-aperture spads have been set. Proceed to add
 840:Api\core\src/vl53l0x_api_calibration.c **** 		 * spads and perform measurements until the target
 841:Api\core\src/vl53l0x_api_calibration.c **** 		 * reference is reached.
 842:Api\core\src/vl53l0x_api_calibration.c **** 		 */
 843:Api\core\src/vl53l0x_api_calibration.c **** 		isApertureSpads_int = needAptSpads;
 844:Api\core\src/vl53l0x_api_calibration.c **** 		refSpadCount_int	= minimumSpadCount;
 845:Api\core\src/vl53l0x_api_calibration.c **** 
 846:Api\core\src/vl53l0x_api_calibration.c **** 		memcpy(lastSpadArray, Dev->Data.SpadData.RefSpadEnables,
 847:Api\core\src/vl53l0x_api_calibration.c **** 				spadArraySize);
 848:Api\core\src/vl53l0x_api_calibration.c **** 		lastSignalRateDiff = abs(peakSignalRateRef -
 849:Api\core\src/vl53l0x_api_calibration.c **** 			targetRefRate);
 850:Api\core\src/vl53l0x_api_calibration.c **** 		complete = 0;
 851:Api\core\src/vl53l0x_api_calibration.c **** 
 852:Api\core\src/vl53l0x_api_calibration.c **** 		while (!complete) {
 853:Api\core\src/vl53l0x_api_calibration.c **** 			get_next_good_spad(
 854:Api\core\src/vl53l0x_api_calibration.c **** 				Dev->Data.SpadData.RefGoodSpadMap,
 855:Api\core\src/vl53l0x_api_calibration.c **** 				spadArraySize, currentSpadIndex,
 856:Api\core\src/vl53l0x_api_calibration.c **** 				&nextGoodSpad);
 857:Api\core\src/vl53l0x_api_calibration.c **** 
 858:Api\core\src/vl53l0x_api_calibration.c **** 			if (nextGoodSpad == -1) {
 859:Api\core\src/vl53l0x_api_calibration.c **** 				Status = VL53L0X_ERROR_REF_SPAD_INIT;
 860:Api\core\src/vl53l0x_api_calibration.c **** 				break;
 861:Api\core\src/vl53l0x_api_calibration.c **** 			}
 862:Api\core\src/vl53l0x_api_calibration.c **** 
 863:Api\core\src/vl53l0x_api_calibration.c **** 			/* Cannot combine Aperture and Non-Aperture spads, so
 864:Api\core\src/vl53l0x_api_calibration.c **** 			 * ensure the current spad is of the correct type.
 865:Api\core\src/vl53l0x_api_calibration.c **** 			 */
 866:Api\core\src/vl53l0x_api_calibration.c **** 			if (is_aperture((uint32_t)startSelect + nextGoodSpad) !=
 867:Api\core\src/vl53l0x_api_calibration.c **** 					needAptSpads) {
 868:Api\core\src/vl53l0x_api_calibration.c **** 				/* At this point we have enabled the maximum
 869:Api\core\src/vl53l0x_api_calibration.c **** 				 * number of Aperture spads.
 870:Api\core\src/vl53l0x_api_calibration.c **** 				 */
 871:Api\core\src/vl53l0x_api_calibration.c **** 				complete = 1;
 872:Api\core\src/vl53l0x_api_calibration.c **** 				break;
 873:Api\core\src/vl53l0x_api_calibration.c **** 			}
 874:Api\core\src/vl53l0x_api_calibration.c **** 
 875:Api\core\src/vl53l0x_api_calibration.c **** 			(refSpadCount_int)++;
 876:Api\core\src/vl53l0x_api_calibration.c **** 
 877:Api\core\src/vl53l0x_api_calibration.c **** 			currentSpadIndex = nextGoodSpad;
 878:Api\core\src/vl53l0x_api_calibration.c **** 			Status = enable_spad_bit(
 879:Api\core\src/vl53l0x_api_calibration.c **** 					Dev->Data.SpadData.RefSpadEnables,
 880:Api\core\src/vl53l0x_api_calibration.c **** 					spadArraySize, currentSpadIndex);
 881:Api\core\src/vl53l0x_api_calibration.c **** 
 882:Api\core\src/vl53l0x_api_calibration.c **** 			if (Status == VL53L0X_ERROR_NONE) {
 883:Api\core\src/vl53l0x_api_calibration.c **** 				currentSpadIndex++;
 884:Api\core\src/vl53l0x_api_calibration.c **** 				/* Proceed to apply the additional spad and
 885:Api\core\src/vl53l0x_api_calibration.c **** 				 * perform measurement. */
 886:Api\core\src/vl53l0x_api_calibration.c **** 				Status = set_ref_spad_map(Dev,
 887:Api\core\src/vl53l0x_api_calibration.c **** 					Dev->Data.SpadData.RefSpadEnables);
 888:Api\core\src/vl53l0x_api_calibration.c **** 			}
 889:Api\core\src/vl53l0x_api_calibration.c **** 
 890:Api\core\src/vl53l0x_api_calibration.c **** 			if (Status != VL53L0X_ERROR_NONE)
 891:Api\core\src/vl53l0x_api_calibration.c **** 				break;
ARM GAS  C:\Users\Rajesh\AppData\Local\Temp\ccFou9eL.s 			page 44


 892:Api\core\src/vl53l0x_api_calibration.c **** 
 893:Api\core\src/vl53l0x_api_calibration.c **** 			Status = perform_ref_signal_measurement(Dev,
 894:Api\core\src/vl53l0x_api_calibration.c **** 					&peakSignalRateRef);
 895:Api\core\src/vl53l0x_api_calibration.c **** 
 896:Api\core\src/vl53l0x_api_calibration.c **** 			if (Status != VL53L0X_ERROR_NONE)
 897:Api\core\src/vl53l0x_api_calibration.c **** 				break;
 898:Api\core\src/vl53l0x_api_calibration.c **** 
 899:Api\core\src/vl53l0x_api_calibration.c **** 			signalRateDiff = abs(peakSignalRateRef - targetRefRate);
 900:Api\core\src/vl53l0x_api_calibration.c **** 
 901:Api\core\src/vl53l0x_api_calibration.c **** 			if (peakSignalRateRef > targetRefRate) {
 902:Api\core\src/vl53l0x_api_calibration.c **** 				/* Select the spad map that provides the
 903:Api\core\src/vl53l0x_api_calibration.c **** 				 * measurement closest to the target rate,
 904:Api\core\src/vl53l0x_api_calibration.c **** 				 * either above or below it.
 905:Api\core\src/vl53l0x_api_calibration.c **** 				 */
 906:Api\core\src/vl53l0x_api_calibration.c **** 				if (signalRateDiff > lastSignalRateDiff) {
 907:Api\core\src/vl53l0x_api_calibration.c **** 					/* Previous spad map produced a closer
 908:Api\core\src/vl53l0x_api_calibration.c **** 					 * measurement, so choose this. */
 909:Api\core\src/vl53l0x_api_calibration.c **** 					Status = set_ref_spad_map(Dev,
 910:Api\core\src/vl53l0x_api_calibration.c **** 							lastSpadArray);
 911:Api\core\src/vl53l0x_api_calibration.c **** 					memcpy(
 912:Api\core\src/vl53l0x_api_calibration.c **** 					Dev->Data.SpadData.RefSpadEnables,
 913:Api\core\src/vl53l0x_api_calibration.c **** 					lastSpadArray, spadArraySize);
 914:Api\core\src/vl53l0x_api_calibration.c **** 
 915:Api\core\src/vl53l0x_api_calibration.c **** 					(refSpadCount_int)--;
 916:Api\core\src/vl53l0x_api_calibration.c **** 				}
 917:Api\core\src/vl53l0x_api_calibration.c **** 				complete = 1;
 918:Api\core\src/vl53l0x_api_calibration.c **** 			} else {
 919:Api\core\src/vl53l0x_api_calibration.c **** 				/* Continue to add spads */
 920:Api\core\src/vl53l0x_api_calibration.c **** 				lastSignalRateDiff = signalRateDiff;
 921:Api\core\src/vl53l0x_api_calibration.c **** 				memcpy(lastSpadArray,
 922:Api\core\src/vl53l0x_api_calibration.c **** 					Dev->Data.SpadData.RefSpadEnables,
 923:Api\core\src/vl53l0x_api_calibration.c **** 					spadArraySize);
 924:Api\core\src/vl53l0x_api_calibration.c **** 			}
 925:Api\core\src/vl53l0x_api_calibration.c **** 
 926:Api\core\src/vl53l0x_api_calibration.c **** 		} /* while */
 927:Api\core\src/vl53l0x_api_calibration.c **** 	}
 928:Api\core\src/vl53l0x_api_calibration.c **** 
 929:Api\core\src/vl53l0x_api_calibration.c **** 	if (Status == VL53L0X_ERROR_NONE) {
 930:Api\core\src/vl53l0x_api_calibration.c **** 		*refSpadCount = refSpadCount_int;
 931:Api\core\src/vl53l0x_api_calibration.c **** 		*isApertureSpads = isApertureSpads_int;
 932:Api\core\src/vl53l0x_api_calibration.c **** 
 933:Api\core\src/vl53l0x_api_calibration.c **** 		VL53L0X_SETDEVICESPECIFICPARAMETER(Dev, RefSpadsInitialised, 1);
 934:Api\core\src/vl53l0x_api_calibration.c **** 		VL53L0X_SETDEVICESPECIFICPARAMETER(Dev,
 935:Api\core\src/vl53l0x_api_calibration.c **** 			ReferenceSpadCount, (uint8_t)(*refSpadCount));
 936:Api\core\src/vl53l0x_api_calibration.c **** 		VL53L0X_SETDEVICESPECIFICPARAMETER(Dev,
 937:Api\core\src/vl53l0x_api_calibration.c **** 			ReferenceSpadType, *isApertureSpads);
 938:Api\core\src/vl53l0x_api_calibration.c **** 	}
 939:Api\core\src/vl53l0x_api_calibration.c **** 
 940:Api\core\src/vl53l0x_api_calibration.c **** 	return Status;
 941:Api\core\src/vl53l0x_api_calibration.c **** }
 942:Api\core\src/vl53l0x_api_calibration.c **** 
 943:Api\core\src/vl53l0x_api_calibration.c **** VL53L0X_Error VL53L0X_set_reference_spads(VL53L0X_DEV Dev,
 944:Api\core\src/vl53l0x_api_calibration.c **** 				 uint32_t count, uint8_t isApertureSpads)
 945:Api\core\src/vl53l0x_api_calibration.c **** {
 1511              		.loc 1 945 0
 1512              		.cfi_startproc
 1513              		@ args = 0, pretend = 0, frame = 8
ARM GAS  C:\Users\Rajesh\AppData\Local\Temp\ccFou9eL.s 			page 45


 1514              		@ frame_needed = 0, uses_anonymous_args = 0
 1515              	.LVL248:
 1516 0000 F0B5     		push	{r4, r5, r6, r7, lr}
 1517              		.cfi_def_cfa_offset 20
 1518              		.cfi_offset 4, -20
 1519              		.cfi_offset 5, -16
 1520              		.cfi_offset 6, -12
 1521              		.cfi_offset 7, -8
 1522              		.cfi_offset 14, -4
 1523 0002 89B0     		sub	sp, sp, #36
 1524              		.cfi_def_cfa_offset 56
 1525 0004 0500     		movs	r5, r0
 1526 0006 0F00     		movs	r7, r1
 1527 0008 1600     		movs	r6, r2
 1528              	.LVL249:
 946:Api\core\src/vl53l0x_api_calibration.c **** 	VL53L0X_Error Status = VL53L0X_ERROR_NONE;
 947:Api\core\src/vl53l0x_api_calibration.c **** 	uint32_t currentSpadIndex = 0;
 948:Api\core\src/vl53l0x_api_calibration.c **** 	uint8_t startSelect = 0xB4;
 949:Api\core\src/vl53l0x_api_calibration.c **** 	uint32_t spadArraySize = 6;
 950:Api\core\src/vl53l0x_api_calibration.c **** 	uint32_t maxSpadCount = 44;
 951:Api\core\src/vl53l0x_api_calibration.c **** 	uint32_t lastSpadIndex;
 952:Api\core\src/vl53l0x_api_calibration.c **** 	uint32_t index;
 953:Api\core\src/vl53l0x_api_calibration.c **** 
 954:Api\core\src/vl53l0x_api_calibration.c **** 	/*
 955:Api\core\src/vl53l0x_api_calibration.c **** 	 * This function applies a requested number of reference spads, either
 956:Api\core\src/vl53l0x_api_calibration.c **** 	 * aperture or
 957:Api\core\src/vl53l0x_api_calibration.c **** 	 * non-aperture, as requested.
 958:Api\core\src/vl53l0x_api_calibration.c **** 	 * The good spad map will be applied.
 959:Api\core\src/vl53l0x_api_calibration.c **** 	 */
 960:Api\core\src/vl53l0x_api_calibration.c **** 
 961:Api\core\src/vl53l0x_api_calibration.c **** 	Status = VL53L0X_WrByte(Dev, 0xFF, 0x01);
 1529              		.loc 1 961 0
 1530 000a 0122     		movs	r2, #1
 1531              	.LVL250:
 1532 000c FF21     		movs	r1, #255
 1533              	.LVL251:
 1534 000e FFF7FEFF 		bl	VL53L0X_WrByte
 1535              	.LVL252:
 962:Api\core\src/vl53l0x_api_calibration.c **** 
 963:Api\core\src/vl53l0x_api_calibration.c **** 	if (Status == VL53L0X_ERROR_NONE)
 1536              		.loc 1 963 0
 1537 0012 0028     		cmp	r0, #0
 1538 0014 04D1     		bne	.L102
 964:Api\core\src/vl53l0x_api_calibration.c **** 		Status = VL53L0X_WrByte(Dev,
 1539              		.loc 1 964 0
 1540 0016 0022     		movs	r2, #0
 1541 0018 4F21     		movs	r1, #79
 1542 001a 2800     		movs	r0, r5
 1543              	.LVL253:
 1544 001c FFF7FEFF 		bl	VL53L0X_WrByte
 1545              	.LVL254:
 1546              	.L102:
 965:Api\core\src/vl53l0x_api_calibration.c **** 			VL53L0X_REG_DYNAMIC_SPAD_REF_EN_START_OFFSET, 0x00);
 966:Api\core\src/vl53l0x_api_calibration.c **** 
 967:Api\core\src/vl53l0x_api_calibration.c **** 	if (Status == VL53L0X_ERROR_NONE)
 1547              		.loc 1 967 0
 1548 0020 0028     		cmp	r0, #0
ARM GAS  C:\Users\Rajesh\AppData\Local\Temp\ccFou9eL.s 			page 46


 1549 0022 04D1     		bne	.L103
 968:Api\core\src/vl53l0x_api_calibration.c **** 		Status = VL53L0X_WrByte(Dev,
 1550              		.loc 1 968 0
 1551 0024 2C22     		movs	r2, #44
 1552 0026 4E21     		movs	r1, #78
 1553 0028 2800     		movs	r0, r5
 1554              	.LVL255:
 1555 002a FFF7FEFF 		bl	VL53L0X_WrByte
 1556              	.LVL256:
 1557              	.L103:
 969:Api\core\src/vl53l0x_api_calibration.c **** 			VL53L0X_REG_DYNAMIC_SPAD_NUM_REQUESTED_REF_SPAD, 0x2C);
 970:Api\core\src/vl53l0x_api_calibration.c **** 
 971:Api\core\src/vl53l0x_api_calibration.c **** 	if (Status == VL53L0X_ERROR_NONE)
 1558              		.loc 1 971 0
 1559 002e 0028     		cmp	r0, #0
 1560 0030 04D1     		bne	.L104
 972:Api\core\src/vl53l0x_api_calibration.c **** 		Status = VL53L0X_WrByte(Dev, 0xFF, 0x00);
 1561              		.loc 1 972 0
 1562 0032 0022     		movs	r2, #0
 1563 0034 FF21     		movs	r1, #255
 1564 0036 2800     		movs	r0, r5
 1565              	.LVL257:
 1566 0038 FFF7FEFF 		bl	VL53L0X_WrByte
 1567              	.LVL258:
 1568              	.L104:
 973:Api\core\src/vl53l0x_api_calibration.c **** 
 974:Api\core\src/vl53l0x_api_calibration.c **** 	if (Status == VL53L0X_ERROR_NONE)
 1569              		.loc 1 974 0
 1570 003c 0028     		cmp	r0, #0
 1571 003e 04D1     		bne	.L105
 975:Api\core\src/vl53l0x_api_calibration.c **** 		Status = VL53L0X_WrByte(Dev,
 1572              		.loc 1 975 0
 1573 0040 B422     		movs	r2, #180
 1574 0042 B621     		movs	r1, #182
 1575 0044 2800     		movs	r0, r5
 1576              	.LVL259:
 1577 0046 FFF7FEFF 		bl	VL53L0X_WrByte
 1578              	.LVL260:
 1579              	.L105:
 945:Api\core\src/vl53l0x_api_calibration.c **** 	VL53L0X_Error Status = VL53L0X_ERROR_NONE;
 1580              		.loc 1 945 0 discriminator 1
 1581 004a 0023     		movs	r3, #0
 1582 004c 05E0     		b	.L106
 1583              	.LVL261:
 1584              	.L107:
 976:Api\core\src/vl53l0x_api_calibration.c **** 			VL53L0X_REG_GLOBAL_CONFIG_REF_EN_START_SELECT,
 977:Api\core\src/vl53l0x_api_calibration.c **** 			startSelect);
 978:Api\core\src/vl53l0x_api_calibration.c **** 
 979:Api\core\src/vl53l0x_api_calibration.c **** 	for (index = 0; index < spadArraySize; index++)
 980:Api\core\src/vl53l0x_api_calibration.c **** 		Dev->Data.SpadData.RefSpadEnables[index] = 0;
 1585              		.loc 1 980 0 discriminator 3
 1586 004e EA18     		adds	r2, r5, r3
 1587 0050 2532     		adds	r2, r2, #37
 1588 0052 FF32     		adds	r2, r2, #255
 1589 0054 0021     		movs	r1, #0
 1590 0056 1170     		strb	r1, [r2]
 979:Api\core\src/vl53l0x_api_calibration.c **** 		Dev->Data.SpadData.RefSpadEnables[index] = 0;
ARM GAS  C:\Users\Rajesh\AppData\Local\Temp\ccFou9eL.s 			page 47


 1591              		.loc 1 979 0 discriminator 3
 1592 0058 0133     		adds	r3, r3, #1
 1593              	.LVL262:
 1594              	.L106:
 979:Api\core\src/vl53l0x_api_calibration.c **** 		Dev->Data.SpadData.RefSpadEnables[index] = 0;
 1595              		.loc 1 979 0 is_stmt 0 discriminator 1
 1596 005a 052B     		cmp	r3, #5
 1597 005c F7D9     		bls	.L107
 981:Api\core\src/vl53l0x_api_calibration.c **** 
 982:Api\core\src/vl53l0x_api_calibration.c **** 	if (isApertureSpads) {
 1598              		.loc 1 982 0 is_stmt 1
 1599 005e 002E     		cmp	r6, #0
 1600 0060 03D1     		bne	.L112
 947:Api\core\src/vl53l0x_api_calibration.c **** 	uint8_t startSelect = 0xB4;
 1601              		.loc 1 947 0
 1602 0062 0024     		movs	r4, #0
 1603 0064 0AE0     		b	.L109
 1604              	.LVL263:
 1605              	.L110:
 983:Api\core\src/vl53l0x_api_calibration.c **** 		/* Increment to the first APERTURE spad */
 984:Api\core\src/vl53l0x_api_calibration.c **** 		while ((is_aperture(startSelect + currentSpadIndex) == 0) &&
 985:Api\core\src/vl53l0x_api_calibration.c **** 			  (currentSpadIndex < maxSpadCount)) {
 986:Api\core\src/vl53l0x_api_calibration.c **** 			currentSpadIndex++;
 1606              		.loc 1 986 0
 1607 0066 0134     		adds	r4, r4, #1
 1608              	.LVL264:
 1609 0068 00E0     		b	.L108
 1610              	.LVL265:
 1611              	.L112:
 1612 006a 0024     		movs	r4, #0
 1613              	.LVL266:
 1614              	.L108:
 984:Api\core\src/vl53l0x_api_calibration.c **** 			  (currentSpadIndex < maxSpadCount)) {
 1615              		.loc 1 984 0
 1616 006c 2000     		movs	r0, r4
 1617 006e B430     		adds	r0, r0, #180
 1618 0070 FFF7FEFF 		bl	is_aperture
 1619              	.LVL267:
 1620 0074 0028     		cmp	r0, #0
 1621 0076 01D1     		bne	.L109
 984:Api\core\src/vl53l0x_api_calibration.c **** 			  (currentSpadIndex < maxSpadCount)) {
 1622              		.loc 1 984 0 is_stmt 0 discriminator 1
 1623 0078 2B2C     		cmp	r4, #43
 1624 007a F4D9     		bls	.L110
 1625              	.LVL268:
 1626              	.L109:
 987:Api\core\src/vl53l0x_api_calibration.c **** 		}
 988:Api\core\src/vl53l0x_api_calibration.c **** 	}
 989:Api\core\src/vl53l0x_api_calibration.c **** 	Status = enable_ref_spads(Dev,
 990:Api\core\src/vl53l0x_api_calibration.c **** 				isApertureSpads,
 991:Api\core\src/vl53l0x_api_calibration.c **** 				Dev->Data.SpadData.RefGoodSpadMap,
 992:Api\core\src/vl53l0x_api_calibration.c **** 				Dev->Data.SpadData.RefSpadEnables,
 1627              		.loc 1 992 0 is_stmt 1
 1628 007c 2B00     		movs	r3, r5
 1629 007e 2533     		adds	r3, r3, #37
 1630 0080 FF33     		adds	r3, r3, #255
 989:Api\core\src/vl53l0x_api_calibration.c **** 				isApertureSpads,
ARM GAS  C:\Users\Rajesh\AppData\Local\Temp\ccFou9eL.s 			page 48


 1631              		.loc 1 989 0
 1632 0082 07AA     		add	r2, sp, #28
 1633 0084 0492     		str	r2, [sp, #16]
 1634 0086 0397     		str	r7, [sp, #12]
 1635 0088 0294     		str	r4, [sp, #8]
 1636 008a B422     		movs	r2, #180
 1637 008c 0192     		str	r2, [sp, #4]
 1638 008e AE3A     		subs	r2, r2, #174
 1639 0090 0092     		str	r2, [sp]
 1640 0092 2A00     		movs	r2, r5
 1641 0094 2B32     		adds	r2, r2, #43
 1642 0096 FF32     		adds	r2, r2, #255
 1643 0098 3100     		movs	r1, r6
 1644 009a 2800     		movs	r0, r5
 1645 009c FFF7FEFF 		bl	enable_ref_spads
 1646              	.LVL269:
 993:Api\core\src/vl53l0x_api_calibration.c **** 				spadArraySize,
 994:Api\core\src/vl53l0x_api_calibration.c **** 				startSelect,
 995:Api\core\src/vl53l0x_api_calibration.c **** 				currentSpadIndex,
 996:Api\core\src/vl53l0x_api_calibration.c **** 				count,
 997:Api\core\src/vl53l0x_api_calibration.c **** 				&lastSpadIndex);
 998:Api\core\src/vl53l0x_api_calibration.c **** 
 999:Api\core\src/vl53l0x_api_calibration.c **** 	if (Status == VL53L0X_ERROR_NONE) {
 1647              		.loc 1 999 0
 1648 00a0 0028     		cmp	r0, #0
 1649 00a2 08D1     		bne	.L111
1000:Api\core\src/vl53l0x_api_calibration.c **** 		VL53L0X_SETDEVICESPECIFICPARAMETER(Dev, RefSpadsInitialised, 1);
 1650              		.loc 1 1000 0
 1651 00a4 0122     		movs	r2, #1
 1652 00a6 1623     		movs	r3, #22
 1653 00a8 FF33     		adds	r3, r3, #255
 1654 00aa EA54     		strb	r2, [r5, r3]
1001:Api\core\src/vl53l0x_api_calibration.c **** 		VL53L0X_SETDEVICESPECIFICPARAMETER(Dev,
 1655              		.loc 1 1001 0
 1656 00ac 1423     		movs	r3, #20
 1657 00ae FF33     		adds	r3, r3, #255
 1658 00b0 EF54     		strb	r7, [r5, r3]
1002:Api\core\src/vl53l0x_api_calibration.c **** 			ReferenceSpadCount, (uint8_t)(count));
1003:Api\core\src/vl53l0x_api_calibration.c **** 		VL53L0X_SETDEVICESPECIFICPARAMETER(Dev,
 1659              		.loc 1 1003 0
 1660 00b2 0133     		adds	r3, r3, #1
 1661 00b4 EE54     		strb	r6, [r5, r3]
 1662              	.L111:
1004:Api\core\src/vl53l0x_api_calibration.c **** 			ReferenceSpadType, isApertureSpads);
1005:Api\core\src/vl53l0x_api_calibration.c **** 	}
1006:Api\core\src/vl53l0x_api_calibration.c **** 
1007:Api\core\src/vl53l0x_api_calibration.c **** 	return Status;
1008:Api\core\src/vl53l0x_api_calibration.c **** }
 1663              		.loc 1 1008 0
 1664 00b6 09B0     		add	sp, sp, #36
 1665              		@ sp needed
 1666              	.LVL270:
 1667              	.LVL271:
 1668              	.LVL272:
 1669 00b8 F0BD     		pop	{r4, r5, r6, r7, pc}
 1670              		.cfi_endproc
 1671              	.LFE15:
ARM GAS  C:\Users\Rajesh\AppData\Local\Temp\ccFou9eL.s 			page 49


 1672              		.size	VL53L0X_set_reference_spads, .-VL53L0X_set_reference_spads
 1673 00ba C046     		.section	.text.VL53L0X_get_reference_spads,"ax",%progbits
 1674              		.align	2
 1675              		.global	VL53L0X_get_reference_spads
 1676              		.code	16
 1677              		.thumb_func
 1678              		.type	VL53L0X_get_reference_spads, %function
 1679              	VL53L0X_get_reference_spads:
 1680              	.LFB16:
1009:Api\core\src/vl53l0x_api_calibration.c **** 
1010:Api\core\src/vl53l0x_api_calibration.c **** VL53L0X_Error VL53L0X_get_reference_spads(VL53L0X_DEV Dev,
1011:Api\core\src/vl53l0x_api_calibration.c **** 			uint32_t *pSpadCount, uint8_t *pIsApertureSpads)
1012:Api\core\src/vl53l0x_api_calibration.c **** {
 1681              		.loc 1 1012 0
 1682              		.cfi_startproc
 1683              		@ args = 0, pretend = 0, frame = 16
 1684              		@ frame_needed = 0, uses_anonymous_args = 0
 1685              	.LVL273:
 1686 0000 70B5     		push	{r4, r5, r6, lr}
 1687              		.cfi_def_cfa_offset 16
 1688              		.cfi_offset 4, -16
 1689              		.cfi_offset 5, -12
 1690              		.cfi_offset 6, -8
 1691              		.cfi_offset 14, -4
 1692 0002 86B0     		sub	sp, sp, #24
 1693              		.cfi_def_cfa_offset 40
 1694 0004 0400     		movs	r4, r0
 1695 0006 0E00     		movs	r6, r1
 1696 0008 1500     		movs	r5, r2
 1697              	.LVL274:
1013:Api\core\src/vl53l0x_api_calibration.c **** 	VL53L0X_Error Status = VL53L0X_ERROR_NONE;
1014:Api\core\src/vl53l0x_api_calibration.c **** 	uint8_t refSpadsInitialised;
1015:Api\core\src/vl53l0x_api_calibration.c **** 	uint8_t refSpadArray[6];
1016:Api\core\src/vl53l0x_api_calibration.c **** 	uint32_t cMaxSpadCount = 44;
1017:Api\core\src/vl53l0x_api_calibration.c **** 	uint32_t cSpadArraySize = 6;
1018:Api\core\src/vl53l0x_api_calibration.c **** 	uint32_t spadsEnabled;
1019:Api\core\src/vl53l0x_api_calibration.c **** 	uint8_t isApertureSpads = 0;
 1698              		.loc 1 1019 0
 1699 000a 0022     		movs	r2, #0
 1700              	.LVL275:
 1701 000c 0B23     		movs	r3, #11
 1702 000e 6B44     		add	r3, r3, sp
 1703 0010 1A70     		strb	r2, [r3]
1020:Api\core\src/vl53l0x_api_calibration.c **** 
1021:Api\core\src/vl53l0x_api_calibration.c **** 	refSpadsInitialised = VL53L0X_GETDEVICESPECIFICPARAMETER(Dev,
 1704              		.loc 1 1021 0
 1705 0012 1623     		movs	r3, #22
 1706 0014 FF33     		adds	r3, r3, #255
 1707 0016 C35C     		ldrb	r3, [r0, r3]
 1708              	.LVL276:
1022:Api\core\src/vl53l0x_api_calibration.c **** 					RefSpadsInitialised);
1023:Api\core\src/vl53l0x_api_calibration.c **** 
1024:Api\core\src/vl53l0x_api_calibration.c **** 	if (refSpadsInitialised == 1) {
 1709              		.loc 1 1024 0
 1710 0018 012B     		cmp	r3, #1
 1711 001a 09D1     		bne	.L114
1025:Api\core\src/vl53l0x_api_calibration.c **** 
ARM GAS  C:\Users\Rajesh\AppData\Local\Temp\ccFou9eL.s 			page 50


1026:Api\core\src/vl53l0x_api_calibration.c **** 		*pSpadCount = (uint32_t)VL53L0X_GETDEVICESPECIFICPARAMETER(Dev,
 1712              		.loc 1 1026 0
 1713 001c 1423     		movs	r3, #20
 1714              	.LVL277:
 1715 001e FF33     		adds	r3, r3, #255
 1716 0020 C35C     		ldrb	r3, [r0, r3]
 1717 0022 0B60     		str	r3, [r1]
 1718              	.LVL278:
1027:Api\core\src/vl53l0x_api_calibration.c **** 			ReferenceSpadCount);
1028:Api\core\src/vl53l0x_api_calibration.c **** 		*pIsApertureSpads = VL53L0X_GETDEVICESPECIFICPARAMETER(Dev,
 1719              		.loc 1 1028 0
 1720 0024 8A23     		movs	r3, #138
 1721 0026 5B00     		lsls	r3, r3, #1
 1722 0028 C35C     		ldrb	r3, [r0, r3]
 1723 002a 2B70     		strb	r3, [r5]
1013:Api\core\src/vl53l0x_api_calibration.c **** 	uint8_t refSpadsInitialised;
 1724              		.loc 1 1013 0
 1725 002c 0020     		movs	r0, #0
 1726              	.LVL279:
 1727 002e 1FE0     		b	.L115
 1728              	.LVL280:
 1729              	.L114:
1029:Api\core\src/vl53l0x_api_calibration.c **** 			ReferenceSpadType);
1030:Api\core\src/vl53l0x_api_calibration.c **** 	} else {
1031:Api\core\src/vl53l0x_api_calibration.c **** 
1032:Api\core\src/vl53l0x_api_calibration.c **** 		/* obtain spad info from device.*/
1033:Api\core\src/vl53l0x_api_calibration.c **** 		Status = get_ref_spad_map(Dev, refSpadArray);
 1730              		.loc 1 1033 0
 1731 0030 04A9     		add	r1, sp, #16
 1732              	.LVL281:
 1733 0032 FFF7FEFF 		bl	get_ref_spad_map
 1734              	.LVL282:
1034:Api\core\src/vl53l0x_api_calibration.c **** 
1035:Api\core\src/vl53l0x_api_calibration.c **** 		if (Status == VL53L0X_ERROR_NONE) {
 1735              		.loc 1 1035 0
 1736 0036 0028     		cmp	r0, #0
 1737 0038 1AD1     		bne	.L115
1036:Api\core\src/vl53l0x_api_calibration.c **** 			/* count enabled spads within spad map array and
1037:Api\core\src/vl53l0x_api_calibration.c **** 			 * determine if Aperture or Non-Aperture.
1038:Api\core\src/vl53l0x_api_calibration.c **** 			 */
1039:Api\core\src/vl53l0x_api_calibration.c **** 			Status = count_enabled_spads(refSpadArray,
 1738              		.loc 1 1039 0
 1739 003a 0B23     		movs	r3, #11
 1740 003c 6B44     		add	r3, r3, sp
 1741 003e 0093     		str	r3, [sp]
 1742 0040 03AB     		add	r3, sp, #12
 1743 0042 2C22     		movs	r2, #44
 1744 0044 0621     		movs	r1, #6
 1745 0046 04A8     		add	r0, sp, #16
 1746              	.LVL283:
 1747 0048 FFF7FEFF 		bl	count_enabled_spads
 1748              	.LVL284:
1040:Api\core\src/vl53l0x_api_calibration.c **** 							cSpadArraySize,
1041:Api\core\src/vl53l0x_api_calibration.c **** 							cMaxSpadCount,
1042:Api\core\src/vl53l0x_api_calibration.c **** 							&spadsEnabled,
1043:Api\core\src/vl53l0x_api_calibration.c **** 							&isApertureSpads);
1044:Api\core\src/vl53l0x_api_calibration.c **** 
ARM GAS  C:\Users\Rajesh\AppData\Local\Temp\ccFou9eL.s 			page 51


1045:Api\core\src/vl53l0x_api_calibration.c **** 			if (Status == VL53L0X_ERROR_NONE) {
 1749              		.loc 1 1045 0
 1750 004c 0028     		cmp	r0, #0
 1751 004e 0FD1     		bne	.L115
1046:Api\core\src/vl53l0x_api_calibration.c **** 
1047:Api\core\src/vl53l0x_api_calibration.c **** 				*pSpadCount = spadsEnabled;
 1752              		.loc 1 1047 0
 1753 0050 039A     		ldr	r2, [sp, #12]
 1754 0052 3260     		str	r2, [r6]
1048:Api\core\src/vl53l0x_api_calibration.c **** 				*pIsApertureSpads = isApertureSpads;
 1755              		.loc 1 1048 0
 1756 0054 0B23     		movs	r3, #11
 1757 0056 6B44     		add	r3, r3, sp
 1758 0058 1B78     		ldrb	r3, [r3]
 1759 005a 2B70     		strb	r3, [r5]
1049:Api\core\src/vl53l0x_api_calibration.c **** 
1050:Api\core\src/vl53l0x_api_calibration.c **** 				VL53L0X_SETDEVICESPECIFICPARAMETER(Dev,
 1760              		.loc 1 1050 0
 1761 005c 0125     		movs	r5, #1
 1762              	.LVL285:
 1763 005e 1621     		movs	r1, #22
 1764 0060 FF31     		adds	r1, r1, #255
 1765 0062 6554     		strb	r5, [r4, r1]
1051:Api\core\src/vl53l0x_api_calibration.c **** 					RefSpadsInitialised, 1);
1052:Api\core\src/vl53l0x_api_calibration.c **** 				VL53L0X_SETDEVICESPECIFICPARAMETER(Dev,
 1766              		.loc 1 1052 0
 1767 0064 1421     		movs	r1, #20
 1768 0066 FF31     		adds	r1, r1, #255
 1769 0068 6254     		strb	r2, [r4, r1]
1053:Api\core\src/vl53l0x_api_calibration.c **** 					ReferenceSpadCount,
1054:Api\core\src/vl53l0x_api_calibration.c **** 					(uint8_t)spadsEnabled);
1055:Api\core\src/vl53l0x_api_calibration.c **** 				VL53L0X_SETDEVICESPECIFICPARAMETER(Dev,
 1770              		.loc 1 1055 0
 1771 006a 8A22     		movs	r2, #138
 1772 006c 5200     		lsls	r2, r2, #1
 1773 006e A354     		strb	r3, [r4, r2]
 1774              	.LVL286:
 1775              	.L115:
1056:Api\core\src/vl53l0x_api_calibration.c **** 					ReferenceSpadType, isApertureSpads);
1057:Api\core\src/vl53l0x_api_calibration.c **** 			}
1058:Api\core\src/vl53l0x_api_calibration.c **** 		}
1059:Api\core\src/vl53l0x_api_calibration.c **** 	}
1060:Api\core\src/vl53l0x_api_calibration.c **** 
1061:Api\core\src/vl53l0x_api_calibration.c **** 	return Status;
1062:Api\core\src/vl53l0x_api_calibration.c **** }
 1776              		.loc 1 1062 0
 1777 0070 06B0     		add	sp, sp, #24
 1778              		@ sp needed
 1779              	.LVL287:
 1780              	.LVL288:
 1781 0072 70BD     		pop	{r4, r5, r6, pc}
 1782              		.cfi_endproc
 1783              	.LFE16:
 1784              		.size	VL53L0X_get_reference_spads, .-VL53L0X_get_reference_spads
 1785              		.section	.text.VL53L0X_perform_single_ref_calibration,"ax",%progbits
 1786              		.align	2
 1787              		.global	VL53L0X_perform_single_ref_calibration
ARM GAS  C:\Users\Rajesh\AppData\Local\Temp\ccFou9eL.s 			page 52


 1788              		.code	16
 1789              		.thumb_func
 1790              		.type	VL53L0X_perform_single_ref_calibration, %function
 1791              	VL53L0X_perform_single_ref_calibration:
 1792              	.LFB17:
1063:Api\core\src/vl53l0x_api_calibration.c **** 
1064:Api\core\src/vl53l0x_api_calibration.c **** 
1065:Api\core\src/vl53l0x_api_calibration.c **** VL53L0X_Error VL53L0X_perform_single_ref_calibration(VL53L0X_DEV Dev,
1066:Api\core\src/vl53l0x_api_calibration.c **** 		uint8_t vhv_init_byte)
1067:Api\core\src/vl53l0x_api_calibration.c **** {
 1793              		.loc 1 1067 0
 1794              		.cfi_startproc
 1795              		@ args = 0, pretend = 0, frame = 0
 1796              		@ frame_needed = 0, uses_anonymous_args = 0
 1797              	.LVL289:
 1798 0000 10B5     		push	{r4, lr}
 1799              		.cfi_def_cfa_offset 8
 1800              		.cfi_offset 4, -8
 1801              		.cfi_offset 14, -4
 1802 0002 0400     		movs	r4, r0
 1803              	.LVL290:
1068:Api\core\src/vl53l0x_api_calibration.c **** 	VL53L0X_Error Status = VL53L0X_ERROR_NONE;
1069:Api\core\src/vl53l0x_api_calibration.c **** 
1070:Api\core\src/vl53l0x_api_calibration.c **** 	if (Status == VL53L0X_ERROR_NONE)
1071:Api\core\src/vl53l0x_api_calibration.c **** 		Status = VL53L0X_WrByte(Dev, VL53L0X_REG_SYSRANGE_START,
 1804              		.loc 1 1071 0
 1805 0004 0123     		movs	r3, #1
 1806 0006 1943     		orrs	r1, r3
 1807              	.LVL291:
 1808 0008 CAB2     		uxtb	r2, r1
 1809 000a 0021     		movs	r1, #0
 1810 000c FFF7FEFF 		bl	VL53L0X_WrByte
 1811              	.LVL292:
1072:Api\core\src/vl53l0x_api_calibration.c **** 				VL53L0X_REG_SYSRANGE_MODE_START_STOP |
1073:Api\core\src/vl53l0x_api_calibration.c **** 				vhv_init_byte);
1074:Api\core\src/vl53l0x_api_calibration.c **** 
1075:Api\core\src/vl53l0x_api_calibration.c **** 	if (Status == VL53L0X_ERROR_NONE)
 1812              		.loc 1 1075 0
 1813 0010 0028     		cmp	r0, #0
 1814 0012 02D1     		bne	.L117
1076:Api\core\src/vl53l0x_api_calibration.c **** 		Status = VL53L0X_measurement_poll_for_completion(Dev);
 1815              		.loc 1 1076 0
 1816 0014 2000     		movs	r0, r4
 1817              	.LVL293:
 1818 0016 FFF7FEFF 		bl	VL53L0X_measurement_poll_for_completion
 1819              	.LVL294:
 1820              	.L117:
1077:Api\core\src/vl53l0x_api_calibration.c **** 
1078:Api\core\src/vl53l0x_api_calibration.c **** 	if (Status == VL53L0X_ERROR_NONE)
 1821              		.loc 1 1078 0
 1822 001a 0028     		cmp	r0, #0
 1823 001c 03D1     		bne	.L118
1079:Api\core\src/vl53l0x_api_calibration.c **** 		Status = VL53L0X_ClearInterruptMask(Dev, 0);
 1824              		.loc 1 1079 0
 1825 001e 0021     		movs	r1, #0
 1826 0020 2000     		movs	r0, r4
 1827              	.LVL295:
ARM GAS  C:\Users\Rajesh\AppData\Local\Temp\ccFou9eL.s 			page 53


 1828 0022 FFF7FEFF 		bl	VL53L0X_ClearInterruptMask
 1829              	.LVL296:
 1830              	.L118:
1080:Api\core\src/vl53l0x_api_calibration.c **** 
1081:Api\core\src/vl53l0x_api_calibration.c **** 	if (Status == VL53L0X_ERROR_NONE)
 1831              		.loc 1 1081 0
 1832 0026 0028     		cmp	r0, #0
 1833 0028 04D1     		bne	.L119
1082:Api\core\src/vl53l0x_api_calibration.c **** 		Status = VL53L0X_WrByte(Dev, VL53L0X_REG_SYSRANGE_START, 0x00);
 1834              		.loc 1 1082 0
 1835 002a 0022     		movs	r2, #0
 1836 002c 0021     		movs	r1, #0
 1837 002e 2000     		movs	r0, r4
 1838              	.LVL297:
 1839 0030 FFF7FEFF 		bl	VL53L0X_WrByte
 1840              	.LVL298:
 1841              	.L119:
1083:Api\core\src/vl53l0x_api_calibration.c **** 
1084:Api\core\src/vl53l0x_api_calibration.c **** 	return Status;
1085:Api\core\src/vl53l0x_api_calibration.c **** }
 1842              		.loc 1 1085 0
 1843              		@ sp needed
 1844              	.LVL299:
 1845 0034 10BD     		pop	{r4, pc}
 1846              		.cfi_endproc
 1847              	.LFE17:
 1848              		.size	VL53L0X_perform_single_ref_calibration, .-VL53L0X_perform_single_ref_calibration
 1849 0036 C046     		.section	.text.VL53L0X_ref_calibration_io,"ax",%progbits
 1850              		.align	2
 1851              		.global	VL53L0X_ref_calibration_io
 1852              		.code	16
 1853              		.thumb_func
 1854              		.type	VL53L0X_ref_calibration_io, %function
 1855              	VL53L0X_ref_calibration_io:
 1856              	.LFB18:
1086:Api\core\src/vl53l0x_api_calibration.c **** 
1087:Api\core\src/vl53l0x_api_calibration.c **** 
1088:Api\core\src/vl53l0x_api_calibration.c **** VL53L0X_Error VL53L0X_ref_calibration_io(VL53L0X_DEV Dev, uint8_t read_not_write,
1089:Api\core\src/vl53l0x_api_calibration.c **** 	uint8_t VhvSettings, uint8_t PhaseCal,
1090:Api\core\src/vl53l0x_api_calibration.c **** 	uint8_t *pVhvSettings, uint8_t *pPhaseCal,
1091:Api\core\src/vl53l0x_api_calibration.c **** 	const uint8_t vhv_enable, const uint8_t phase_enable)
1092:Api\core\src/vl53l0x_api_calibration.c **** {
 1857              		.loc 1 1092 0
 1858              		.cfi_startproc
 1859              		@ args = 16, pretend = 0, frame = 24
 1860              		@ frame_needed = 0, uses_anonymous_args = 0
 1861              	.LVL300:
 1862 0000 F0B5     		push	{r4, r5, r6, r7, lr}
 1863              		.cfi_def_cfa_offset 20
 1864              		.cfi_offset 4, -20
 1865              		.cfi_offset 5, -16
 1866              		.cfi_offset 6, -12
 1867              		.cfi_offset 7, -8
 1868              		.cfi_offset 14, -4
 1869 0002 87B0     		sub	sp, sp, #28
 1870              		.cfi_def_cfa_offset 48
 1871 0004 0C00     		movs	r4, r1
ARM GAS  C:\Users\Rajesh\AppData\Local\Temp\ccFou9eL.s 			page 54


 1872 0006 0392     		str	r2, [sp, #12]
 1873 0008 0293     		str	r3, [sp, #8]
 1874 000a 0EAB     		add	r3, sp, #56
 1875              	.LVL301:
 1876 000c 1E78     		ldrb	r6, [r3]
 1877 000e 0FAB     		add	r3, sp, #60
 1878              	.LVL302:
 1879 0010 1F78     		ldrb	r7, [r3]
 1880              	.LVL303:
1093:Api\core\src/vl53l0x_api_calibration.c **** 	VL53L0X_Error Status = VL53L0X_ERROR_NONE;
1094:Api\core\src/vl53l0x_api_calibration.c **** 	uint8_t PhaseCalint = 0;
 1881              		.loc 1 1094 0
 1882 0012 0022     		movs	r2, #0
 1883              	.LVL304:
 1884 0014 04AB     		add	r3, sp, #16
 1885              	.LVL305:
 1886 0016 DA71     		strb	r2, [r3, #7]
1095:Api\core\src/vl53l0x_api_calibration.c **** 
1096:Api\core\src/vl53l0x_api_calibration.c **** 	/* Read VHV from device */
1097:Api\core\src/vl53l0x_api_calibration.c **** 	Status |= VL53L0X_WrByte(Dev, 0xFF, 0x01);
 1887              		.loc 1 1097 0
 1888 0018 0132     		adds	r2, r2, #1
 1889 001a FF21     		movs	r1, #255
 1890              	.LVL306:
 1891 001c 0190     		str	r0, [sp, #4]
 1892 001e FFF7FEFF 		bl	VL53L0X_WrByte
 1893              	.LVL307:
 1894 0022 0500     		movs	r5, r0
 1895              	.LVL308:
1098:Api\core\src/vl53l0x_api_calibration.c **** 	Status |= VL53L0X_WrByte(Dev, 0x00, 0x00);
 1896              		.loc 1 1098 0
 1897 0024 0022     		movs	r2, #0
 1898 0026 0021     		movs	r1, #0
 1899 0028 0198     		ldr	r0, [sp, #4]
 1900 002a FFF7FEFF 		bl	VL53L0X_WrByte
 1901              	.LVL309:
 1902 002e 2843     		orrs	r0, r5
 1903 0030 45B2     		sxtb	r5, r0
 1904              	.LVL310:
1099:Api\core\src/vl53l0x_api_calibration.c **** 	Status |= VL53L0X_WrByte(Dev, 0xFF, 0x00);
 1905              		.loc 1 1099 0
 1906 0032 0022     		movs	r2, #0
 1907 0034 FF21     		movs	r1, #255
 1908 0036 0198     		ldr	r0, [sp, #4]
 1909 0038 FFF7FEFF 		bl	VL53L0X_WrByte
 1910              	.LVL311:
 1911 003c 0543     		orrs	r5, r0
 1912              	.LVL312:
 1913 003e 6DB2     		sxtb	r5, r5
 1914              	.LVL313:
1100:Api\core\src/vl53l0x_api_calibration.c **** 
1101:Api\core\src/vl53l0x_api_calibration.c **** 	if (read_not_write) {
 1915              		.loc 1 1101 0
 1916 0040 002C     		cmp	r4, #0
 1917 0042 13D0     		beq	.L121
1102:Api\core\src/vl53l0x_api_calibration.c **** 		if (vhv_enable)
 1918              		.loc 1 1102 0
ARM GAS  C:\Users\Rajesh\AppData\Local\Temp\ccFou9eL.s 			page 55


 1919 0044 002E     		cmp	r6, #0
 1920 0046 06D0     		beq	.L122
1103:Api\core\src/vl53l0x_api_calibration.c **** 			Status |= VL53L0X_RdByte(Dev, 0xCB, pVhvSettings);
 1921              		.loc 1 1103 0
 1922 0048 0C9A     		ldr	r2, [sp, #48]
 1923 004a CB21     		movs	r1, #203
 1924 004c 0198     		ldr	r0, [sp, #4]
 1925 004e FFF7FEFF 		bl	VL53L0X_RdByte
 1926              	.LVL314:
 1927 0052 0543     		orrs	r5, r0
 1928              	.LVL315:
 1929 0054 6DB2     		sxtb	r5, r5
 1930              	.LVL316:
 1931              	.L122:
1104:Api\core\src/vl53l0x_api_calibration.c **** 		if (phase_enable)
 1932              		.loc 1 1104 0
 1933 0056 002F     		cmp	r7, #0
 1934 0058 1BD0     		beq	.L123
1105:Api\core\src/vl53l0x_api_calibration.c **** 			Status |= VL53L0X_RdByte(Dev, 0xEE, &PhaseCalint);
 1935              		.loc 1 1105 0
 1936 005a 04AB     		add	r3, sp, #16
 1937 005c DA1D     		adds	r2, r3, #7
 1938 005e EE21     		movs	r1, #238
 1939 0060 0198     		ldr	r0, [sp, #4]
 1940 0062 FFF7FEFF 		bl	VL53L0X_RdByte
 1941              	.LVL317:
 1942 0066 0543     		orrs	r5, r0
 1943              	.LVL318:
 1944 0068 6DB2     		sxtb	r5, r5
 1945              	.LVL319:
 1946 006a 12E0     		b	.L123
 1947              	.L121:
1106:Api\core\src/vl53l0x_api_calibration.c **** 	} else {
1107:Api\core\src/vl53l0x_api_calibration.c **** 		if (vhv_enable)
 1948              		.loc 1 1107 0
 1949 006c 002E     		cmp	r6, #0
 1950 006e 06D0     		beq	.L124
1108:Api\core\src/vl53l0x_api_calibration.c **** 			Status |= VL53L0X_WrByte(Dev, 0xCB, VhvSettings);
 1951              		.loc 1 1108 0
 1952 0070 039A     		ldr	r2, [sp, #12]
 1953 0072 CB21     		movs	r1, #203
 1954 0074 0198     		ldr	r0, [sp, #4]
 1955 0076 FFF7FEFF 		bl	VL53L0X_WrByte
 1956              	.LVL320:
 1957 007a 0543     		orrs	r5, r0
 1958              	.LVL321:
 1959 007c 6DB2     		sxtb	r5, r5
 1960              	.LVL322:
 1961              	.L124:
1109:Api\core\src/vl53l0x_api_calibration.c **** 		if (phase_enable)
 1962              		.loc 1 1109 0
 1963 007e 002F     		cmp	r7, #0
 1964 0080 07D0     		beq	.L123
1110:Api\core\src/vl53l0x_api_calibration.c **** 			Status |= VL53L0X_UpdateByte(Dev, 0xEE, 0x80, PhaseCal);
 1965              		.loc 1 1110 0
 1966 0082 029B     		ldr	r3, [sp, #8]
 1967 0084 8022     		movs	r2, #128
ARM GAS  C:\Users\Rajesh\AppData\Local\Temp\ccFou9eL.s 			page 56


 1968 0086 EE21     		movs	r1, #238
 1969 0088 0198     		ldr	r0, [sp, #4]
 1970 008a FFF7FEFF 		bl	VL53L0X_UpdateByte
 1971              	.LVL323:
 1972 008e 0543     		orrs	r5, r0
 1973              	.LVL324:
 1974 0090 6DB2     		sxtb	r5, r5
 1975              	.LVL325:
 1976              	.L123:
1111:Api\core\src/vl53l0x_api_calibration.c **** 	}
1112:Api\core\src/vl53l0x_api_calibration.c **** 
1113:Api\core\src/vl53l0x_api_calibration.c **** 	Status |= VL53L0X_WrByte(Dev, 0xFF, 0x01);
 1977              		.loc 1 1113 0
 1978 0092 0122     		movs	r2, #1
 1979 0094 FF21     		movs	r1, #255
 1980 0096 019C     		ldr	r4, [sp, #4]
 1981 0098 2000     		movs	r0, r4
 1982 009a FFF7FEFF 		bl	VL53L0X_WrByte
 1983              	.LVL326:
 1984 009e 0543     		orrs	r5, r0
 1985              	.LVL327:
 1986 00a0 6DB2     		sxtb	r5, r5
 1987              	.LVL328:
1114:Api\core\src/vl53l0x_api_calibration.c **** 	Status |= VL53L0X_WrByte(Dev, 0x00, 0x01);
 1988              		.loc 1 1114 0
 1989 00a2 0122     		movs	r2, #1
 1990 00a4 0021     		movs	r1, #0
 1991 00a6 2000     		movs	r0, r4
 1992 00a8 FFF7FEFF 		bl	VL53L0X_WrByte
 1993              	.LVL329:
 1994 00ac 2843     		orrs	r0, r5
 1995 00ae 45B2     		sxtb	r5, r0
 1996              	.LVL330:
1115:Api\core\src/vl53l0x_api_calibration.c **** 	Status |= VL53L0X_WrByte(Dev, 0xFF, 0x00);
 1997              		.loc 1 1115 0
 1998 00b0 0022     		movs	r2, #0
 1999 00b2 FF21     		movs	r1, #255
 2000 00b4 2000     		movs	r0, r4
 2001 00b6 FFF7FEFF 		bl	VL53L0X_WrByte
 2002              	.LVL331:
 2003 00ba 2843     		orrs	r0, r5
 2004 00bc 40B2     		sxtb	r0, r0
 2005              	.LVL332:
1116:Api\core\src/vl53l0x_api_calibration.c **** 
1117:Api\core\src/vl53l0x_api_calibration.c **** 	*pPhaseCal = (uint8_t)(PhaseCalint&0xEF);
 2006              		.loc 1 1117 0
 2007 00be 04AB     		add	r3, sp, #16
 2008 00c0 0733     		adds	r3, r3, #7
 2009 00c2 1B78     		ldrb	r3, [r3]
 2010 00c4 1022     		movs	r2, #16
 2011 00c6 9343     		bics	r3, r2
 2012 00c8 0D9A     		ldr	r2, [sp, #52]
 2013 00ca 1370     		strb	r3, [r2]
1118:Api\core\src/vl53l0x_api_calibration.c **** 
1119:Api\core\src/vl53l0x_api_calibration.c **** 	return Status;
1120:Api\core\src/vl53l0x_api_calibration.c **** }
 2014              		.loc 1 1120 0
ARM GAS  C:\Users\Rajesh\AppData\Local\Temp\ccFou9eL.s 			page 57


 2015 00cc 07B0     		add	sp, sp, #28
 2016              		@ sp needed
 2017 00ce F0BD     		pop	{r4, r5, r6, r7, pc}
 2018              		.cfi_endproc
 2019              	.LFE18:
 2020              		.size	VL53L0X_ref_calibration_io, .-VL53L0X_ref_calibration_io
 2021              		.section	.text.VL53L0X_perform_vhv_calibration,"ax",%progbits
 2022              		.align	2
 2023              		.global	VL53L0X_perform_vhv_calibration
 2024              		.code	16
 2025              		.thumb_func
 2026              		.type	VL53L0X_perform_vhv_calibration, %function
 2027              	VL53L0X_perform_vhv_calibration:
 2028              	.LFB19:
1121:Api\core\src/vl53l0x_api_calibration.c **** 
1122:Api\core\src/vl53l0x_api_calibration.c **** 
1123:Api\core\src/vl53l0x_api_calibration.c **** VL53L0X_Error VL53L0X_perform_vhv_calibration(VL53L0X_DEV Dev,
1124:Api\core\src/vl53l0x_api_calibration.c **** 	uint8_t *pVhvSettings, const uint8_t get_data_enable,
1125:Api\core\src/vl53l0x_api_calibration.c **** 	const uint8_t restore_config)
1126:Api\core\src/vl53l0x_api_calibration.c **** {
 2029              		.loc 1 1126 0
 2030              		.cfi_startproc
 2031              		@ args = 0, pretend = 0, frame = 16
 2032              		@ frame_needed = 0, uses_anonymous_args = 0
 2033              	.LVL333:
 2034 0000 F0B5     		push	{r4, r5, r6, r7, lr}
 2035              		.cfi_def_cfa_offset 20
 2036              		.cfi_offset 4, -20
 2037              		.cfi_offset 5, -16
 2038              		.cfi_offset 6, -12
 2039              		.cfi_offset 7, -8
 2040              		.cfi_offset 14, -4
 2041 0002 89B0     		sub	sp, sp, #36
 2042              		.cfi_def_cfa_offset 56
 2043 0004 0400     		movs	r4, r0
 2044 0006 0D00     		movs	r5, r1
 2045 0008 0592     		str	r2, [sp, #20]
 2046 000a 1F00     		movs	r7, r3
 2047              	.LVL334:
1127:Api\core\src/vl53l0x_api_calibration.c **** 	VL53L0X_Error Status = VL53L0X_ERROR_NONE;
1128:Api\core\src/vl53l0x_api_calibration.c **** 	uint8_t SequenceConfig = 0;
1129:Api\core\src/vl53l0x_api_calibration.c **** 	uint8_t VhvSettings = 0;
1130:Api\core\src/vl53l0x_api_calibration.c **** 	uint8_t PhaseCal = 0;
1131:Api\core\src/vl53l0x_api_calibration.c **** 	uint8_t PhaseCalInt = 0;
 2048              		.loc 1 1131 0
 2049 000c 0022     		movs	r2, #0
 2050              	.LVL335:
 2051 000e 1723     		movs	r3, #23
 2052              	.LVL336:
 2053 0010 02A9     		add	r1, sp, #8
 2054              	.LVL337:
 2055 0012 8C46     		mov	ip, r1
 2056 0014 6344     		add	r3, r3, ip
 2057 0016 1A70     		strb	r2, [r3]
1132:Api\core\src/vl53l0x_api_calibration.c **** 
1133:Api\core\src/vl53l0x_api_calibration.c **** 	/* store the value of the sequence config,
1134:Api\core\src/vl53l0x_api_calibration.c **** 	 * this will be reset before the end of the function
ARM GAS  C:\Users\Rajesh\AppData\Local\Temp\ccFou9eL.s 			page 58


1135:Api\core\src/vl53l0x_api_calibration.c **** 	 */
1136:Api\core\src/vl53l0x_api_calibration.c **** 
1137:Api\core\src/vl53l0x_api_calibration.c **** 	if (restore_config)
 2058              		.loc 1 1137 0
 2059 0018 002F     		cmp	r7, #0
 2060 001a 03D0     		beq	.L131
1138:Api\core\src/vl53l0x_api_calibration.c **** 		SequenceConfig = PALDevDataGet(Dev, SequenceConfig);
 2061              		.loc 1 1138 0
 2062 001c 9823     		movs	r3, #152
 2063 001e 5B00     		lsls	r3, r3, #1
 2064 0020 C65C     		ldrb	r6, [r0, r3]
 2065              	.LVL338:
 2066 0022 00E0     		b	.L126
 2067              	.LVL339:
 2068              	.L131:
1128:Api\core\src/vl53l0x_api_calibration.c **** 	uint8_t VhvSettings = 0;
 2069              		.loc 1 1128 0
 2070 0024 0026     		movs	r6, #0
 2071              	.LVL340:
 2072              	.L126:
1139:Api\core\src/vl53l0x_api_calibration.c **** 
1140:Api\core\src/vl53l0x_api_calibration.c **** 	/* Run VHV */
1141:Api\core\src/vl53l0x_api_calibration.c **** 	Status = VL53L0X_WrByte(Dev, VL53L0X_REG_SYSTEM_SEQUENCE_CONFIG, 0x01);
 2073              		.loc 1 1141 0
 2074 0026 0122     		movs	r2, #1
 2075 0028 0121     		movs	r1, #1
 2076 002a 2000     		movs	r0, r4
 2077              	.LVL341:
 2078 002c FFF7FEFF 		bl	VL53L0X_WrByte
 2079              	.LVL342:
1142:Api\core\src/vl53l0x_api_calibration.c **** 
1143:Api\core\src/vl53l0x_api_calibration.c **** 	if (Status == VL53L0X_ERROR_NONE)
 2080              		.loc 1 1143 0
 2081 0030 0028     		cmp	r0, #0
 2082 0032 03D1     		bne	.L127
1144:Api\core\src/vl53l0x_api_calibration.c **** 		Status = VL53L0X_perform_single_ref_calibration(Dev, 0x40);
 2083              		.loc 1 1144 0
 2084 0034 4021     		movs	r1, #64
 2085 0036 2000     		movs	r0, r4
 2086              	.LVL343:
 2087 0038 FFF7FEFF 		bl	VL53L0X_perform_single_ref_calibration
 2088              	.LVL344:
 2089              	.L127:
1145:Api\core\src/vl53l0x_api_calibration.c **** 
1146:Api\core\src/vl53l0x_api_calibration.c **** 	/* Read VHV from device */
1147:Api\core\src/vl53l0x_api_calibration.c **** 	if ((Status == VL53L0X_ERROR_NONE) && (get_data_enable == 1)) {
 2090              		.loc 1 1147 0
 2091 003c 0028     		cmp	r0, #0
 2092 003e 13D1     		bne	.L128
 2093              		.loc 1 1147 0 is_stmt 0 discriminator 1
 2094 0040 059B     		ldr	r3, [sp, #20]
 2095 0042 012B     		cmp	r3, #1
 2096 0044 10D1     		bne	.L128
1148:Api\core\src/vl53l0x_api_calibration.c **** 		Status = VL53L0X_ref_calibration_io(Dev, 1,
 2097              		.loc 1 1148 0 is_stmt 1
 2098 0046 0023     		movs	r3, #0
 2099 0048 0393     		str	r3, [sp, #12]
ARM GAS  C:\Users\Rajesh\AppData\Local\Temp\ccFou9eL.s 			page 59


 2100 004a 0133     		adds	r3, r3, #1
 2101 004c 0293     		str	r3, [sp, #8]
 2102 004e 1633     		adds	r3, r3, #22
 2103 0050 02AA     		add	r2, sp, #8
 2104 0052 9446     		mov	ip, r2
 2105 0054 6344     		add	r3, r3, ip
 2106 0056 0193     		str	r3, [sp, #4]
 2107 0058 0095     		str	r5, [sp]
 2108 005a 0023     		movs	r3, #0
 2109 005c 0022     		movs	r2, #0
 2110 005e 0121     		movs	r1, #1
 2111 0060 2000     		movs	r0, r4
 2112              	.LVL345:
 2113 0062 FFF7FEFF 		bl	VL53L0X_ref_calibration_io
 2114              	.LVL346:
 2115 0066 01E0     		b	.L129
 2116              	.L128:
1149:Api\core\src/vl53l0x_api_calibration.c **** 			VhvSettings, PhaseCal, /* Not used here */
1150:Api\core\src/vl53l0x_api_calibration.c **** 			pVhvSettings, &PhaseCalInt,
1151:Api\core\src/vl53l0x_api_calibration.c **** 			1, 0);
1152:Api\core\src/vl53l0x_api_calibration.c **** 	} else
1153:Api\core\src/vl53l0x_api_calibration.c **** 		*pVhvSettings = 0;
 2117              		.loc 1 1153 0
 2118 0068 0023     		movs	r3, #0
 2119 006a 2B70     		strb	r3, [r5]
 2120              	.LVL347:
 2121              	.L129:
1154:Api\core\src/vl53l0x_api_calibration.c **** 
1155:Api\core\src/vl53l0x_api_calibration.c **** 
1156:Api\core\src/vl53l0x_api_calibration.c **** 	if ((Status == VL53L0X_ERROR_NONE) && restore_config) {
 2122              		.loc 1 1156 0
 2123 006c 0028     		cmp	r0, #0
 2124 006e 0BD1     		bne	.L130
 2125              		.loc 1 1156 0 is_stmt 0 discriminator 1
 2126 0070 002F     		cmp	r7, #0
 2127 0072 09D0     		beq	.L130
1157:Api\core\src/vl53l0x_api_calibration.c **** 		/* restore the previous Sequence Config */
1158:Api\core\src/vl53l0x_api_calibration.c **** 		Status = VL53L0X_WrByte(Dev, VL53L0X_REG_SYSTEM_SEQUENCE_CONFIG,
 2128              		.loc 1 1158 0 is_stmt 1
 2129 0074 3200     		movs	r2, r6
 2130 0076 0121     		movs	r1, #1
 2131 0078 2000     		movs	r0, r4
 2132              	.LVL348:
 2133 007a FFF7FEFF 		bl	VL53L0X_WrByte
 2134              	.LVL349:
1159:Api\core\src/vl53l0x_api_calibration.c **** 				SequenceConfig);
1160:Api\core\src/vl53l0x_api_calibration.c **** 		if (Status == VL53L0X_ERROR_NONE)
 2135              		.loc 1 1160 0
 2136 007e 0028     		cmp	r0, #0
 2137 0080 02D1     		bne	.L130
1161:Api\core\src/vl53l0x_api_calibration.c **** 			PALDevDataSet(Dev, SequenceConfig, SequenceConfig);
 2138              		.loc 1 1161 0
 2139 0082 9823     		movs	r3, #152
 2140 0084 5B00     		lsls	r3, r3, #1
 2141 0086 E654     		strb	r6, [r4, r3]
 2142              	.LVL350:
 2143              	.L130:
ARM GAS  C:\Users\Rajesh\AppData\Local\Temp\ccFou9eL.s 			page 60


1162:Api\core\src/vl53l0x_api_calibration.c **** 
1163:Api\core\src/vl53l0x_api_calibration.c **** 	}
1164:Api\core\src/vl53l0x_api_calibration.c **** 
1165:Api\core\src/vl53l0x_api_calibration.c **** 	return Status;
1166:Api\core\src/vl53l0x_api_calibration.c **** }
 2144              		.loc 1 1166 0
 2145 0088 09B0     		add	sp, sp, #36
 2146              		@ sp needed
 2147              	.LVL351:
 2148              	.LVL352:
 2149              	.LVL353:
 2150 008a F0BD     		pop	{r4, r5, r6, r7, pc}
 2151              		.cfi_endproc
 2152              	.LFE19:
 2153              		.size	VL53L0X_perform_vhv_calibration, .-VL53L0X_perform_vhv_calibration
 2154              		.section	.text.VL53L0X_perform_phase_calibration,"ax",%progbits
 2155              		.align	2
 2156              		.global	VL53L0X_perform_phase_calibration
 2157              		.code	16
 2158              		.thumb_func
 2159              		.type	VL53L0X_perform_phase_calibration, %function
 2160              	VL53L0X_perform_phase_calibration:
 2161              	.LFB20:
1167:Api\core\src/vl53l0x_api_calibration.c **** 
1168:Api\core\src/vl53l0x_api_calibration.c **** VL53L0X_Error VL53L0X_perform_phase_calibration(VL53L0X_DEV Dev,
1169:Api\core\src/vl53l0x_api_calibration.c **** 	uint8_t *pPhaseCal, const uint8_t get_data_enable,
1170:Api\core\src/vl53l0x_api_calibration.c **** 	const uint8_t restore_config)
1171:Api\core\src/vl53l0x_api_calibration.c **** {
 2162              		.loc 1 1171 0
 2163              		.cfi_startproc
 2164              		@ args = 0, pretend = 0, frame = 16
 2165              		@ frame_needed = 0, uses_anonymous_args = 0
 2166              	.LVL354:
 2167 0000 F0B5     		push	{r4, r5, r6, r7, lr}
 2168              		.cfi_def_cfa_offset 20
 2169              		.cfi_offset 4, -20
 2170              		.cfi_offset 5, -16
 2171              		.cfi_offset 6, -12
 2172              		.cfi_offset 7, -8
 2173              		.cfi_offset 14, -4
 2174 0002 89B0     		sub	sp, sp, #36
 2175              		.cfi_def_cfa_offset 56
 2176 0004 0400     		movs	r4, r0
 2177 0006 0D00     		movs	r5, r1
 2178 0008 0592     		str	r2, [sp, #20]
 2179 000a 1F1E     		subs	r7, r3, #0
 2180              	.LVL355:
1172:Api\core\src/vl53l0x_api_calibration.c **** 	VL53L0X_Error Status = VL53L0X_ERROR_NONE;
1173:Api\core\src/vl53l0x_api_calibration.c **** 	uint8_t SequenceConfig = 0;
1174:Api\core\src/vl53l0x_api_calibration.c **** 	uint8_t VhvSettings = 0;
1175:Api\core\src/vl53l0x_api_calibration.c **** 	uint8_t PhaseCal = 0;
1176:Api\core\src/vl53l0x_api_calibration.c **** 	uint8_t VhvSettingsint;
1177:Api\core\src/vl53l0x_api_calibration.c **** 
1178:Api\core\src/vl53l0x_api_calibration.c **** 	/* store the value of the sequence config,
1179:Api\core\src/vl53l0x_api_calibration.c **** 	 * this will be reset before the end of the function
1180:Api\core\src/vl53l0x_api_calibration.c **** 	 */
1181:Api\core\src/vl53l0x_api_calibration.c **** 
ARM GAS  C:\Users\Rajesh\AppData\Local\Temp\ccFou9eL.s 			page 61


1182:Api\core\src/vl53l0x_api_calibration.c **** 	if (restore_config)
 2181              		.loc 1 1182 0
 2182 000c 03D0     		beq	.L138
1183:Api\core\src/vl53l0x_api_calibration.c **** 		SequenceConfig = PALDevDataGet(Dev, SequenceConfig);
 2183              		.loc 1 1183 0
 2184 000e 9823     		movs	r3, #152
 2185              	.LVL356:
 2186 0010 5B00     		lsls	r3, r3, #1
 2187 0012 C65C     		ldrb	r6, [r0, r3]
 2188              	.LVL357:
 2189 0014 00E0     		b	.L133
 2190              	.LVL358:
 2191              	.L138:
1173:Api\core\src/vl53l0x_api_calibration.c **** 	uint8_t VhvSettings = 0;
 2192              		.loc 1 1173 0
 2193 0016 0026     		movs	r6, #0
 2194              	.LVL359:
 2195              	.L133:
1184:Api\core\src/vl53l0x_api_calibration.c **** 
1185:Api\core\src/vl53l0x_api_calibration.c **** 	/* Run PhaseCal */
1186:Api\core\src/vl53l0x_api_calibration.c **** 	Status = VL53L0X_WrByte(Dev, VL53L0X_REG_SYSTEM_SEQUENCE_CONFIG, 0x02);
 2196              		.loc 1 1186 0
 2197 0018 0222     		movs	r2, #2
 2198              	.LVL360:
 2199 001a 0121     		movs	r1, #1
 2200              	.LVL361:
 2201 001c 2000     		movs	r0, r4
 2202              	.LVL362:
 2203 001e FFF7FEFF 		bl	VL53L0X_WrByte
 2204              	.LVL363:
1187:Api\core\src/vl53l0x_api_calibration.c **** 
1188:Api\core\src/vl53l0x_api_calibration.c **** 	if (Status == VL53L0X_ERROR_NONE)
 2205              		.loc 1 1188 0
 2206 0022 0028     		cmp	r0, #0
 2207 0024 03D1     		bne	.L134
1189:Api\core\src/vl53l0x_api_calibration.c **** 		Status = VL53L0X_perform_single_ref_calibration(Dev, 0x0);
 2208              		.loc 1 1189 0
 2209 0026 0021     		movs	r1, #0
 2210 0028 2000     		movs	r0, r4
 2211              	.LVL364:
 2212 002a FFF7FEFF 		bl	VL53L0X_perform_single_ref_calibration
 2213              	.LVL365:
 2214              	.L134:
1190:Api\core\src/vl53l0x_api_calibration.c **** 
1191:Api\core\src/vl53l0x_api_calibration.c **** 	/* Read PhaseCal from device */
1192:Api\core\src/vl53l0x_api_calibration.c **** 	if ((Status == VL53L0X_ERROR_NONE) && (get_data_enable == 1)) {
 2215              		.loc 1 1192 0
 2216 002e 0028     		cmp	r0, #0
 2217 0030 12D1     		bne	.L135
 2218              		.loc 1 1192 0 is_stmt 0 discriminator 1
 2219 0032 059B     		ldr	r3, [sp, #20]
 2220 0034 012B     		cmp	r3, #1
 2221 0036 0FD1     		bne	.L135
1193:Api\core\src/vl53l0x_api_calibration.c **** 		Status = VL53L0X_ref_calibration_io(Dev, 1,
 2222              		.loc 1 1193 0 is_stmt 1
 2223 0038 0393     		str	r3, [sp, #12]
 2224 003a 0023     		movs	r3, #0
ARM GAS  C:\Users\Rajesh\AppData\Local\Temp\ccFou9eL.s 			page 62


 2225 003c 0293     		str	r3, [sp, #8]
 2226 003e 0195     		str	r5, [sp, #4]
 2227 0040 1733     		adds	r3, r3, #23
 2228 0042 02AA     		add	r2, sp, #8
 2229 0044 9446     		mov	ip, r2
 2230 0046 6344     		add	r3, r3, ip
 2231 0048 0093     		str	r3, [sp]
 2232 004a 0023     		movs	r3, #0
 2233 004c 0022     		movs	r2, #0
 2234 004e 0121     		movs	r1, #1
 2235 0050 2000     		movs	r0, r4
 2236              	.LVL366:
 2237 0052 FFF7FEFF 		bl	VL53L0X_ref_calibration_io
 2238              	.LVL367:
 2239 0056 01E0     		b	.L136
 2240              	.L135:
1194:Api\core\src/vl53l0x_api_calibration.c **** 			VhvSettings, PhaseCal, /* Not used here */
1195:Api\core\src/vl53l0x_api_calibration.c **** 			&VhvSettingsint, pPhaseCal,
1196:Api\core\src/vl53l0x_api_calibration.c **** 			0, 1);
1197:Api\core\src/vl53l0x_api_calibration.c **** 	} else
1198:Api\core\src/vl53l0x_api_calibration.c **** 		*pPhaseCal = 0;
 2241              		.loc 1 1198 0
 2242 0058 0023     		movs	r3, #0
 2243 005a 2B70     		strb	r3, [r5]
 2244              	.LVL368:
 2245              	.L136:
1199:Api\core\src/vl53l0x_api_calibration.c **** 
1200:Api\core\src/vl53l0x_api_calibration.c **** 
1201:Api\core\src/vl53l0x_api_calibration.c **** 	if ((Status == VL53L0X_ERROR_NONE) && restore_config) {
 2246              		.loc 1 1201 0
 2247 005c 0028     		cmp	r0, #0
 2248 005e 0BD1     		bne	.L137
 2249              		.loc 1 1201 0 is_stmt 0 discriminator 1
 2250 0060 002F     		cmp	r7, #0
 2251 0062 09D0     		beq	.L137
1202:Api\core\src/vl53l0x_api_calibration.c **** 		/* restore the previous Sequence Config */
1203:Api\core\src/vl53l0x_api_calibration.c **** 		Status = VL53L0X_WrByte(Dev, VL53L0X_REG_SYSTEM_SEQUENCE_CONFIG,
 2252              		.loc 1 1203 0 is_stmt 1
 2253 0064 3200     		movs	r2, r6
 2254 0066 0121     		movs	r1, #1
 2255 0068 2000     		movs	r0, r4
 2256              	.LVL369:
 2257 006a FFF7FEFF 		bl	VL53L0X_WrByte
 2258              	.LVL370:
1204:Api\core\src/vl53l0x_api_calibration.c **** 				SequenceConfig);
1205:Api\core\src/vl53l0x_api_calibration.c **** 		if (Status == VL53L0X_ERROR_NONE)
 2259              		.loc 1 1205 0
 2260 006e 0028     		cmp	r0, #0
 2261 0070 02D1     		bne	.L137
1206:Api\core\src/vl53l0x_api_calibration.c **** 			PALDevDataSet(Dev, SequenceConfig, SequenceConfig);
 2262              		.loc 1 1206 0
 2263 0072 9823     		movs	r3, #152
 2264 0074 5B00     		lsls	r3, r3, #1
 2265 0076 E654     		strb	r6, [r4, r3]
 2266              	.LVL371:
 2267              	.L137:
1207:Api\core\src/vl53l0x_api_calibration.c **** 
ARM GAS  C:\Users\Rajesh\AppData\Local\Temp\ccFou9eL.s 			page 63


1208:Api\core\src/vl53l0x_api_calibration.c **** 	}
1209:Api\core\src/vl53l0x_api_calibration.c **** 
1210:Api\core\src/vl53l0x_api_calibration.c **** 	return Status;
1211:Api\core\src/vl53l0x_api_calibration.c **** }
 2268              		.loc 1 1211 0
 2269 0078 09B0     		add	sp, sp, #36
 2270              		@ sp needed
 2271              	.LVL372:
 2272              	.LVL373:
 2273              	.LVL374:
 2274 007a F0BD     		pop	{r4, r5, r6, r7, pc}
 2275              		.cfi_endproc
 2276              	.LFE20:
 2277              		.size	VL53L0X_perform_phase_calibration, .-VL53L0X_perform_phase_calibration
 2278              		.section	.text.VL53L0X_perform_ref_calibration,"ax",%progbits
 2279              		.align	2
 2280              		.global	VL53L0X_perform_ref_calibration
 2281              		.code	16
 2282              		.thumb_func
 2283              		.type	VL53L0X_perform_ref_calibration, %function
 2284              	VL53L0X_perform_ref_calibration:
 2285              	.LFB21:
1212:Api\core\src/vl53l0x_api_calibration.c **** 
1213:Api\core\src/vl53l0x_api_calibration.c **** VL53L0X_Error VL53L0X_perform_ref_calibration(VL53L0X_DEV Dev,
1214:Api\core\src/vl53l0x_api_calibration.c **** 	uint8_t *pVhvSettings, uint8_t *pPhaseCal, uint8_t get_data_enable)
1215:Api\core\src/vl53l0x_api_calibration.c **** {
 2286              		.loc 1 1215 0
 2287              		.cfi_startproc
 2288              		@ args = 0, pretend = 0, frame = 0
 2289              		@ frame_needed = 0, uses_anonymous_args = 0
 2290              	.LVL375:
 2291 0000 F8B5     		push	{r3, r4, r5, r6, r7, lr}
 2292              		.cfi_def_cfa_offset 24
 2293              		.cfi_offset 3, -24
 2294              		.cfi_offset 4, -20
 2295              		.cfi_offset 5, -16
 2296              		.cfi_offset 6, -12
 2297              		.cfi_offset 7, -8
 2298              		.cfi_offset 14, -4
 2299 0002 0400     		movs	r4, r0
 2300 0004 1600     		movs	r6, r2
 2301 0006 1D00     		movs	r5, r3
 2302              	.LVL376:
1216:Api\core\src/vl53l0x_api_calibration.c **** 	VL53L0X_Error Status = VL53L0X_ERROR_NONE;
1217:Api\core\src/vl53l0x_api_calibration.c **** 	uint8_t SequenceConfig = 0;
1218:Api\core\src/vl53l0x_api_calibration.c **** 
1219:Api\core\src/vl53l0x_api_calibration.c **** 	/* store the value of the sequence config,
1220:Api\core\src/vl53l0x_api_calibration.c **** 	 * this will be reset before the end of the function
1221:Api\core\src/vl53l0x_api_calibration.c **** 	 */
1222:Api\core\src/vl53l0x_api_calibration.c **** 
1223:Api\core\src/vl53l0x_api_calibration.c **** 	SequenceConfig = PALDevDataGet(Dev, SequenceConfig);
 2303              		.loc 1 1223 0
 2304 0008 9823     		movs	r3, #152
 2305              	.LVL377:
 2306 000a 5B00     		lsls	r3, r3, #1
 2307 000c C75C     		ldrb	r7, [r0, r3]
 2308              	.LVL378:
ARM GAS  C:\Users\Rajesh\AppData\Local\Temp\ccFou9eL.s 			page 64


1224:Api\core\src/vl53l0x_api_calibration.c **** 
1225:Api\core\src/vl53l0x_api_calibration.c **** 	/* In the following function we don't save the config to optimize
1226:Api\core\src/vl53l0x_api_calibration.c **** 	 * writes on device. Config is saved and restored only once. */
1227:Api\core\src/vl53l0x_api_calibration.c **** 	Status = VL53L0X_perform_vhv_calibration(
 2309              		.loc 1 1227 0
 2310 000e 0023     		movs	r3, #0
 2311 0010 2A00     		movs	r2, r5
 2312              	.LVL379:
 2313 0012 FFF7FEFF 		bl	VL53L0X_perform_vhv_calibration
 2314              	.LVL380:
1228:Api\core\src/vl53l0x_api_calibration.c **** 			Dev, pVhvSettings, get_data_enable, 0);
1229:Api\core\src/vl53l0x_api_calibration.c **** 
1230:Api\core\src/vl53l0x_api_calibration.c **** 
1231:Api\core\src/vl53l0x_api_calibration.c **** 	if (Status == VL53L0X_ERROR_NONE)
 2315              		.loc 1 1231 0
 2316 0016 0028     		cmp	r0, #0
 2317 0018 05D1     		bne	.L140
1232:Api\core\src/vl53l0x_api_calibration.c **** 		Status = VL53L0X_perform_phase_calibration(
 2318              		.loc 1 1232 0
 2319 001a 0023     		movs	r3, #0
 2320 001c 2A00     		movs	r2, r5
 2321 001e 3100     		movs	r1, r6
 2322 0020 2000     		movs	r0, r4
 2323              	.LVL381:
 2324 0022 FFF7FEFF 		bl	VL53L0X_perform_phase_calibration
 2325              	.LVL382:
 2326              	.L140:
1233:Api\core\src/vl53l0x_api_calibration.c **** 			Dev, pPhaseCal, get_data_enable, 0);
1234:Api\core\src/vl53l0x_api_calibration.c **** 
1235:Api\core\src/vl53l0x_api_calibration.c **** 
1236:Api\core\src/vl53l0x_api_calibration.c **** 	if (Status == VL53L0X_ERROR_NONE) {
 2327              		.loc 1 1236 0
 2328 0026 0028     		cmp	r0, #0
 2329 0028 09D1     		bne	.L141
1237:Api\core\src/vl53l0x_api_calibration.c **** 		/* restore the previous Sequence Config */
1238:Api\core\src/vl53l0x_api_calibration.c **** 		Status = VL53L0X_WrByte(Dev, VL53L0X_REG_SYSTEM_SEQUENCE_CONFIG,
 2330              		.loc 1 1238 0
 2331 002a 3A00     		movs	r2, r7
 2332 002c 0121     		movs	r1, #1
 2333 002e 2000     		movs	r0, r4
 2334              	.LVL383:
 2335 0030 FFF7FEFF 		bl	VL53L0X_WrByte
 2336              	.LVL384:
1239:Api\core\src/vl53l0x_api_calibration.c **** 				SequenceConfig);
1240:Api\core\src/vl53l0x_api_calibration.c **** 		if (Status == VL53L0X_ERROR_NONE)
 2337              		.loc 1 1240 0
 2338 0034 0028     		cmp	r0, #0
 2339 0036 02D1     		bne	.L141
1241:Api\core\src/vl53l0x_api_calibration.c **** 			PALDevDataSet(Dev, SequenceConfig, SequenceConfig);
 2340              		.loc 1 1241 0
 2341 0038 9823     		movs	r3, #152
 2342 003a 5B00     		lsls	r3, r3, #1
 2343 003c E754     		strb	r7, [r4, r3]
 2344              	.LVL385:
 2345              	.L141:
1242:Api\core\src/vl53l0x_api_calibration.c **** 
1243:Api\core\src/vl53l0x_api_calibration.c **** 	}
ARM GAS  C:\Users\Rajesh\AppData\Local\Temp\ccFou9eL.s 			page 65


1244:Api\core\src/vl53l0x_api_calibration.c **** 
1245:Api\core\src/vl53l0x_api_calibration.c **** 	return Status;
1246:Api\core\src/vl53l0x_api_calibration.c **** }
 2346              		.loc 1 1246 0
 2347              		@ sp needed
 2348              	.LVL386:
 2349              	.LVL387:
 2350              	.LVL388:
 2351 003e F8BD     		pop	{r3, r4, r5, r6, r7, pc}
 2352              		.cfi_endproc
 2353              	.LFE21:
 2354              		.size	VL53L0X_perform_ref_calibration, .-VL53L0X_perform_ref_calibration
 2355              		.section	.text.VL53L0X_perform_ref_spad_management,"ax",%progbits
 2356              		.align	2
 2357              		.global	VL53L0X_perform_ref_spad_management
 2358              		.code	16
 2359              		.thumb_func
 2360              		.type	VL53L0X_perform_ref_spad_management, %function
 2361              	VL53L0X_perform_ref_spad_management:
 2362              	.LFB14:
 679:Api\core\src/vl53l0x_api_calibration.c **** 	VL53L0X_Error Status = VL53L0X_ERROR_NONE;
 2363              		.loc 1 679 0
 2364              		.cfi_startproc
 2365              		@ args = 0, pretend = 0, frame = 56
 2366              		@ frame_needed = 0, uses_anonymous_args = 0
 2367              	.LVL389:
 2368 0000 F0B5     		push	{r4, r5, r6, r7, lr}
 2369              		.cfi_def_cfa_offset 20
 2370              		.cfi_offset 4, -20
 2371              		.cfi_offset 5, -16
 2372              		.cfi_offset 6, -12
 2373              		.cfi_offset 7, -8
 2374              		.cfi_offset 14, -4
 2375 0002 5F46     		mov	r7, fp
 2376 0004 5646     		mov	r6, r10
 2377 0006 4D46     		mov	r5, r9
 2378 0008 4446     		mov	r4, r8
 2379 000a F0B4     		push	{r4, r5, r6, r7}
 2380              		.cfi_def_cfa_offset 36
 2381              		.cfi_offset 8, -36
 2382              		.cfi_offset 9, -32
 2383              		.cfi_offset 10, -28
 2384              		.cfi_offset 11, -24
 2385 000c 95B0     		sub	sp, sp, #84
 2386              		.cfi_def_cfa_offset 120
 2387 000e 0500     		movs	r5, r0
 2388 0010 0C91     		str	r1, [sp, #48]
 2389 0012 0D92     		str	r2, [sp, #52]
 2390              	.LVL390:
 686:Api\core\src/vl53l0x_api_calibration.c **** 	int32_t nextGoodSpad = 0;
 2391              		.loc 1 686 0
 2392 0014 0023     		movs	r3, #0
 2393 0016 1193     		str	r3, [sp, #68]
 687:Api\core\src/vl53l0x_api_calibration.c **** 	uint16_t targetRefRate = 0x0A00; /* 20 MCPS in 9:7 format */
 2394              		.loc 1 687 0
 2395 0018 1093     		str	r3, [sp, #64]
 2396              	.LVL391:
ARM GAS  C:\Users\Rajesh\AppData\Local\Temp\ccFou9eL.s 			page 66


 696:Api\core\src/vl53l0x_api_calibration.c **** 	uint8_t PhaseCal = 0;
 2397              		.loc 1 696 0
 2398 001a 1D22     		movs	r2, #29
 2399              	.LVL392:
 2400 001c 08A9     		add	r1, sp, #32
 2401              	.LVL393:
 2402 001e 8C46     		mov	ip, r1
 2403 0020 6244     		add	r2, r2, ip
 2404 0022 1370     		strb	r3, [r2]
 697:Api\core\src/vl53l0x_api_calibration.c **** 	uint32_t refSpadCount_int = 0;
 2405              		.loc 1 697 0
 2406 0024 0FAA     		add	r2, sp, #60
 2407 0026 1370     		strb	r3, [r2]
 2408              	.LVL394:
 724:Api\core\src/vl53l0x_api_calibration.c **** 
 2409              		.loc 1 724 0
 2410 0028 3D33     		adds	r3, r3, #61
 2411 002a FF33     		adds	r3, r3, #255
 2412 002c C35A     		ldrh	r3, [r0, r3]
 2413 002e 9A46     		mov	r10, r3
 2414              	.LVL395:
 734:Api\core\src/vl53l0x_api_calibration.c **** 		Dev->Data.SpadData.RefSpadEnables[index] = 0;
 2415              		.loc 1 734 0
 2416 0030 0023     		movs	r3, #0
 2417 0032 05E0     		b	.L143
 2418              	.LVL396:
 2419              	.L144:
 735:Api\core\src/vl53l0x_api_calibration.c **** 
 2420              		.loc 1 735 0 discriminator 3
 2421 0034 EA18     		adds	r2, r5, r3
 2422 0036 2532     		adds	r2, r2, #37
 2423 0038 FF32     		adds	r2, r2, #255
 2424 003a 0021     		movs	r1, #0
 2425 003c 1170     		strb	r1, [r2]
 734:Api\core\src/vl53l0x_api_calibration.c **** 		Dev->Data.SpadData.RefSpadEnables[index] = 0;
 2426              		.loc 1 734 0 discriminator 3
 2427 003e 0133     		adds	r3, r3, #1
 2428              	.LVL397:
 2429              	.L143:
 734:Api\core\src/vl53l0x_api_calibration.c **** 		Dev->Data.SpadData.RefSpadEnables[index] = 0;
 2430              		.loc 1 734 0 is_stmt 0 discriminator 1
 2431 0040 052B     		cmp	r3, #5
 2432 0042 F7D9     		bls	.L144
 738:Api\core\src/vl53l0x_api_calibration.c **** 
 2433              		.loc 1 738 0 is_stmt 1
 2434 0044 0122     		movs	r2, #1
 2435 0046 FF21     		movs	r1, #255
 2436 0048 2800     		movs	r0, r5
 2437              	.LVL398:
 2438 004a FFF7FEFF 		bl	VL53L0X_WrByte
 2439              	.LVL399:
 2440 004e 041E     		subs	r4, r0, #0
 2441              	.LVL400:
 740:Api\core\src/vl53l0x_api_calibration.c **** 		Status = VL53L0X_WrByte(Dev,
 2442              		.loc 1 740 0
 2443 0050 05D1     		bne	.L145
 741:Api\core\src/vl53l0x_api_calibration.c **** 			VL53L0X_REG_DYNAMIC_SPAD_REF_EN_START_OFFSET, 0x00);
ARM GAS  C:\Users\Rajesh\AppData\Local\Temp\ccFou9eL.s 			page 67


 2444              		.loc 1 741 0
 2445 0052 0022     		movs	r2, #0
 2446 0054 4F21     		movs	r1, #79
 2447 0056 2800     		movs	r0, r5
 2448              	.LVL401:
 2449 0058 FFF7FEFF 		bl	VL53L0X_WrByte
 2450              	.LVL402:
 2451 005c 0400     		movs	r4, r0
 2452              	.LVL403:
 2453              	.L145:
 744:Api\core\src/vl53l0x_api_calibration.c **** 		Status = VL53L0X_WrByte(Dev,
 2454              		.loc 1 744 0
 2455 005e 002C     		cmp	r4, #0
 2456 0060 05D1     		bne	.L146
 745:Api\core\src/vl53l0x_api_calibration.c **** 			VL53L0X_REG_DYNAMIC_SPAD_NUM_REQUESTED_REF_SPAD, 0x2C);
 2457              		.loc 1 745 0
 2458 0062 2C22     		movs	r2, #44
 2459 0064 4E21     		movs	r1, #78
 2460 0066 2800     		movs	r0, r5
 2461 0068 FFF7FEFF 		bl	VL53L0X_WrByte
 2462              	.LVL404:
 2463 006c 0400     		movs	r4, r0
 2464              	.LVL405:
 2465              	.L146:
 748:Api\core\src/vl53l0x_api_calibration.c **** 		Status = VL53L0X_WrByte(Dev, 0xFF, 0x00);
 2466              		.loc 1 748 0
 2467 006e 002C     		cmp	r4, #0
 2468 0070 05D1     		bne	.L147
 749:Api\core\src/vl53l0x_api_calibration.c **** 
 2469              		.loc 1 749 0
 2470 0072 0022     		movs	r2, #0
 2471 0074 FF21     		movs	r1, #255
 2472 0076 2800     		movs	r0, r5
 2473 0078 FFF7FEFF 		bl	VL53L0X_WrByte
 2474              	.LVL406:
 2475 007c 0400     		movs	r4, r0
 2476              	.LVL407:
 2477              	.L147:
 751:Api\core\src/vl53l0x_api_calibration.c **** 		Status = VL53L0X_WrByte(Dev,
 2478              		.loc 1 751 0
 2479 007e 002C     		cmp	r4, #0
 2480 0080 05D1     		bne	.L148
 752:Api\core\src/vl53l0x_api_calibration.c **** 			VL53L0X_REG_GLOBAL_CONFIG_REF_EN_START_SELECT,
 2481              		.loc 1 752 0
 2482 0082 B422     		movs	r2, #180
 2483 0084 B621     		movs	r1, #182
 2484 0086 2800     		movs	r0, r5
 2485 0088 FFF7FEFF 		bl	VL53L0X_WrByte
 2486              	.LVL408:
 2487 008c 0400     		movs	r4, r0
 2488              	.LVL409:
 2489              	.L148:
 757:Api\core\src/vl53l0x_api_calibration.c **** 		Status = VL53L0X_WrByte(Dev,
 2490              		.loc 1 757 0
 2491 008e 002C     		cmp	r4, #0
 2492 0090 05D1     		bne	.L149
 758:Api\core\src/vl53l0x_api_calibration.c **** 				VL53L0X_REG_POWER_MANAGEMENT_GO1_POWER_FORCE, 0);
ARM GAS  C:\Users\Rajesh\AppData\Local\Temp\ccFou9eL.s 			page 68


 2493              		.loc 1 758 0
 2494 0092 0022     		movs	r2, #0
 2495 0094 8021     		movs	r1, #128
 2496 0096 2800     		movs	r0, r5
 2497 0098 FFF7FEFF 		bl	VL53L0X_WrByte
 2498              	.LVL410:
 2499 009c 0400     		movs	r4, r0
 2500              	.LVL411:
 2501              	.L149:
 762:Api\core\src/vl53l0x_api_calibration.c **** 		Status = VL53L0X_perform_ref_calibration(Dev, &VhvSettings,
 2502              		.loc 1 762 0
 2503 009e 002C     		cmp	r4, #0
 2504 00a0 09D1     		bne	.L150
 763:Api\core\src/vl53l0x_api_calibration.c **** 			&PhaseCal, 0);
 2505              		.loc 1 763 0
 2506 00a2 0023     		movs	r3, #0
 2507 00a4 0FAA     		add	r2, sp, #60
 2508 00a6 1D21     		movs	r1, #29
 2509 00a8 08A8     		add	r0, sp, #32
 2510 00aa 8446     		mov	ip, r0
 2511 00ac 6144     		add	r1, r1, ip
 2512 00ae 2800     		movs	r0, r5
 2513 00b0 FFF7FEFF 		bl	VL53L0X_perform_ref_calibration
 2514              	.LVL412:
 2515 00b4 0400     		movs	r4, r0
 2516              	.LVL413:
 2517              	.L150:
 766:Api\core\src/vl53l0x_api_calibration.c **** 		/* Enable Minimum NON-APERTURE Spads */
 2518              		.loc 1 766 0
 2519 00b6 002C     		cmp	r4, #0
 2520 00b8 15D1     		bne	.L151
 769:Api\core\src/vl53l0x_api_calibration.c **** 		needAptSpads = 0;
 2521              		.loc 1 769 0
 2522 00ba 0022     		movs	r2, #0
 2523 00bc 1192     		str	r2, [sp, #68]
 774:Api\core\src/vl53l0x_api_calibration.c **** 					spadArraySize,
 2524              		.loc 1 774 0
 2525 00be 2B00     		movs	r3, r5
 2526 00c0 2533     		adds	r3, r3, #37
 2527 00c2 FF33     		adds	r3, r3, #255
 771:Api\core\src/vl53l0x_api_calibration.c **** 					needAptSpads,
 2528              		.loc 1 771 0
 2529 00c4 11A9     		add	r1, sp, #68
 2530 00c6 0491     		str	r1, [sp, #16]
 2531 00c8 0321     		movs	r1, #3
 2532 00ca 0391     		str	r1, [sp, #12]
 2533 00cc 0292     		str	r2, [sp, #8]
 2534 00ce B432     		adds	r2, r2, #180
 2535 00d0 0192     		str	r2, [sp, #4]
 2536 00d2 AE3A     		subs	r2, r2, #174
 2537 00d4 0092     		str	r2, [sp]
 2538 00d6 2A00     		movs	r2, r5
 2539 00d8 2B32     		adds	r2, r2, #43
 2540 00da FF32     		adds	r2, r2, #255
 2541 00dc 0021     		movs	r1, #0
 2542 00de 2800     		movs	r0, r5
 2543 00e0 FFF7FEFF 		bl	enable_ref_spads
ARM GAS  C:\Users\Rajesh\AppData\Local\Temp\ccFou9eL.s 			page 69


 2544              	.LVL414:
 2545 00e4 0400     		movs	r4, r0
 2546              	.LVL415:
 2547              	.L151:
 782:Api\core\src/vl53l0x_api_calibration.c **** 		currentSpadIndex = lastSpadIndex;
 2548              		.loc 1 782 0
 2549 00e6 002C     		cmp	r4, #0
 2550 00e8 55D1     		bne	.L165
 783:Api\core\src/vl53l0x_api_calibration.c **** 
 2551              		.loc 1 783 0
 2552 00ea 119F     		ldr	r7, [sp, #68]
 2553              	.LVL416:
 785:Api\core\src/vl53l0x_api_calibration.c **** 			&peakSignalRateRef);
 2554              		.loc 1 785 0
 2555 00ec 1E21     		movs	r1, #30
 2556 00ee 08AB     		add	r3, sp, #32
 2557 00f0 9C46     		mov	ip, r3
 2558 00f2 6144     		add	r1, r1, ip
 2559 00f4 2800     		movs	r0, r5
 2560 00f6 FFF7FEFF 		bl	perform_ref_signal_measurement
 2561              	.LVL417:
 2562 00fa 041E     		subs	r4, r0, #0
 2563              	.LVL418:
 787:Api\core\src/vl53l0x_api_calibration.c **** 			(peakSignalRateRef > targetRefRate)) {
 2564              		.loc 1 787 0
 2565 00fc 51D1     		bne	.L166
 788:Api\core\src/vl53l0x_api_calibration.c **** 			/* Signal rate measurement too high,
 2566              		.loc 1 788 0 discriminator 1
 2567 00fe 1E23     		movs	r3, #30
 2568 0100 08AA     		add	r2, sp, #32
 2569 0102 9446     		mov	ip, r2
 2570 0104 6344     		add	r3, r3, ip
 2571 0106 1B88     		ldrh	r3, [r3]
 787:Api\core\src/vl53l0x_api_calibration.c **** 			(peakSignalRateRef > targetRefRate)) {
 2572              		.loc 1 787 0 discriminator 1
 2573 0108 9A45     		cmp	r10, r3
 2574 010a 0BD3     		bcc	.L167
 699:Api\core\src/vl53l0x_api_calibration.c **** 
 2575              		.loc 1 699 0
 2576 010c 0023     		movs	r3, #0
 2577 010e 0B93     		str	r3, [sp, #44]
 698:Api\core\src/vl53l0x_api_calibration.c **** 	uint8_t	 isApertureSpads_int = 0;
 2578              		.loc 1 698 0
 2579 0110 0793     		str	r3, [sp, #28]
 832:Api\core\src/vl53l0x_api_calibration.c **** 		}
 2580              		.loc 1 832 0
 2581 0112 9946     		mov	r9, r3
 2582 0114 5CE0     		b	.L152
 2583              	.LVL419:
 2584              	.L154:
 793:Api\core\src/vl53l0x_api_calibration.c **** 
 2585              		.loc 1 793 0 discriminator 3
 2586 0116 EA18     		adds	r2, r5, r3
 2587 0118 2532     		adds	r2, r2, #37
 2588 011a FF32     		adds	r2, r2, #255
 2589 011c 0021     		movs	r1, #0
 2590 011e 1170     		strb	r1, [r2]
ARM GAS  C:\Users\Rajesh\AppData\Local\Temp\ccFou9eL.s 			page 70


 792:Api\core\src/vl53l0x_api_calibration.c **** 				Dev->Data.SpadData.RefSpadEnables[index] = 0;
 2591              		.loc 1 792 0 discriminator 3
 2592 0120 0133     		adds	r3, r3, #1
 2593              	.LVL420:
 2594 0122 00E0     		b	.L153
 2595              	.LVL421:
 2596              	.L167:
 2597 0124 0023     		movs	r3, #0
 2598              	.L153:
 2599              	.LVL422:
 792:Api\core\src/vl53l0x_api_calibration.c **** 				Dev->Data.SpadData.RefSpadEnables[index] = 0;
 2600              		.loc 1 792 0 is_stmt 0 discriminator 1
 2601 0126 052B     		cmp	r3, #5
 2602 0128 F5D9     		bls	.L154
 2603 012a 00E0     		b	.L155
 2604              	.LVL423:
 2605              	.L157:
 799:Api\core\src/vl53l0x_api_calibration.c **** 			}
 2606              		.loc 1 799 0 is_stmt 1
 2607 012c 0137     		adds	r7, r7, #1
 2608              	.LVL424:
 2609              	.L155:
 797:Api\core\src/vl53l0x_api_calibration.c **** 				== 0) && (currentSpadIndex < maxSpadCount)) {
 2610              		.loc 1 797 0
 2611 012e 3800     		movs	r0, r7
 2612 0130 B430     		adds	r0, r0, #180
 2613 0132 FFF7FEFF 		bl	is_aperture
 2614              	.LVL425:
 2615 0136 0028     		cmp	r0, #0
 2616 0138 01D1     		bne	.L156
 798:Api\core\src/vl53l0x_api_calibration.c **** 				currentSpadIndex++;
 2617              		.loc 1 798 0
 2618 013a 2B2F     		cmp	r7, #43
 2619 013c F6D9     		bls	.L157
 2620              	.L156:
 2621              	.LVL426:
 807:Api\core\src/vl53l0x_api_calibration.c **** 					spadArraySize,
 2622              		.loc 1 807 0
 2623 013e 2B00     		movs	r3, r5
 2624 0140 2533     		adds	r3, r3, #37
 2625 0142 FF33     		adds	r3, r3, #255
 804:Api\core\src/vl53l0x_api_calibration.c **** 					needAptSpads,
 2626              		.loc 1 804 0
 2627 0144 11AA     		add	r2, sp, #68
 2628 0146 0492     		str	r2, [sp, #16]
 2629 0148 0322     		movs	r2, #3
 2630 014a 0392     		str	r2, [sp, #12]
 2631 014c 0297     		str	r7, [sp, #8]
 2632 014e B132     		adds	r2, r2, #177
 2633 0150 0192     		str	r2, [sp, #4]
 2634 0152 AE3A     		subs	r2, r2, #174
 2635 0154 0092     		str	r2, [sp]
 2636 0156 2A00     		movs	r2, r5
 2637 0158 2B32     		adds	r2, r2, #43
 2638 015a FF32     		adds	r2, r2, #255
 2639 015c 0121     		movs	r1, #1
 2640 015e 2800     		movs	r0, r5
ARM GAS  C:\Users\Rajesh\AppData\Local\Temp\ccFou9eL.s 			page 71


 2641 0160 FFF7FEFF 		bl	enable_ref_spads
 2642              	.LVL427:
 2643 0164 041E     		subs	r4, r0, #0
 2644              	.LVL428:
 814:Api\core\src/vl53l0x_api_calibration.c **** 				currentSpadIndex = lastSpadIndex;
 2645              		.loc 1 814 0
 2646 0166 21D1     		bne	.L168
 815:Api\core\src/vl53l0x_api_calibration.c **** 				Status = perform_ref_signal_measurement(Dev,
 2647              		.loc 1 815 0
 2648 0168 119F     		ldr	r7, [sp, #68]
 2649              	.LVL429:
 816:Api\core\src/vl53l0x_api_calibration.c **** 						&peakSignalRateRef);
 2650              		.loc 1 816 0
 2651 016a 1E21     		movs	r1, #30
 2652 016c 08AB     		add	r3, sp, #32
 2653 016e 9C46     		mov	ip, r3
 2654 0170 6144     		add	r1, r1, ip
 2655 0172 2800     		movs	r0, r5
 2656              	.LVL430:
 2657 0174 FFF7FEFF 		bl	perform_ref_signal_measurement
 2658              	.LVL431:
 2659 0178 041E     		subs	r4, r0, #0
 2660              	.LVL432:
 819:Api\core\src/vl53l0x_api_calibration.c **** 					(peakSignalRateRef > targetRefRate)) {
 2661              		.loc 1 819 0
 2662 017a 1DD1     		bne	.L169
 820:Api\core\src/vl53l0x_api_calibration.c **** 					/* Signal rate still too high after
 2663              		.loc 1 820 0 discriminator 1
 2664 017c 1E23     		movs	r3, #30
 2665 017e 08AA     		add	r2, sp, #32
 2666 0180 9446     		mov	ip, r2
 2667 0182 6344     		add	r3, r3, ip
 2668 0184 1B88     		ldrh	r3, [r3]
 819:Api\core\src/vl53l0x_api_calibration.c **** 					(peakSignalRateRef > targetRefRate)) {
 2669              		.loc 1 819 0 discriminator 1
 2670 0186 9A45     		cmp	r10, r3
 2671 0188 1CD3     		bcc	.L170
 699:Api\core\src/vl53l0x_api_calibration.c **** 
 2672              		.loc 1 699 0
 2673 018a 0023     		movs	r3, #0
 2674 018c 0B93     		str	r3, [sp, #44]
 698:Api\core\src/vl53l0x_api_calibration.c **** 	uint8_t	 isApertureSpads_int = 0;
 2675              		.loc 1 698 0
 2676 018e 0793     		str	r3, [sp, #28]
 802:Api\core\src/vl53l0x_api_calibration.c **** 
 2677              		.loc 1 802 0
 2678 0190 0133     		adds	r3, r3, #1
 2679 0192 9946     		mov	r9, r3
 2680 0194 1CE0     		b	.L152
 2681              	.LVL433:
 2682              	.L165:
 699:Api\core\src/vl53l0x_api_calibration.c **** 
 2683              		.loc 1 699 0
 2684 0196 0023     		movs	r3, #0
 2685 0198 0B93     		str	r3, [sp, #44]
 698:Api\core\src/vl53l0x_api_calibration.c **** 	uint8_t	 isApertureSpads_int = 0;
 2686              		.loc 1 698 0
ARM GAS  C:\Users\Rajesh\AppData\Local\Temp\ccFou9eL.s 			page 72


 2687 019a 0793     		str	r3, [sp, #28]
 2688 019c 9946     		mov	r9, r3
 2689 019e 0027     		movs	r7, #0
 2690 01a0 16E0     		b	.L152
 2691              	.LVL434:
 2692              	.L166:
 699:Api\core\src/vl53l0x_api_calibration.c **** 
 2693              		.loc 1 699 0
 2694 01a2 0023     		movs	r3, #0
 2695 01a4 0B93     		str	r3, [sp, #44]
 698:Api\core\src/vl53l0x_api_calibration.c **** 	uint8_t	 isApertureSpads_int = 0;
 2696              		.loc 1 698 0
 2697 01a6 0793     		str	r3, [sp, #28]
 832:Api\core\src/vl53l0x_api_calibration.c **** 		}
 2698              		.loc 1 832 0
 2699 01a8 9946     		mov	r9, r3
 2700 01aa 11E0     		b	.L152
 2701              	.LVL435:
 2702              	.L168:
 699:Api\core\src/vl53l0x_api_calibration.c **** 
 2703              		.loc 1 699 0
 2704 01ac 0023     		movs	r3, #0
 2705 01ae 0B93     		str	r3, [sp, #44]
 698:Api\core\src/vl53l0x_api_calibration.c **** 	uint8_t	 isApertureSpads_int = 0;
 2706              		.loc 1 698 0
 2707 01b0 0793     		str	r3, [sp, #28]
 802:Api\core\src/vl53l0x_api_calibration.c **** 
 2708              		.loc 1 802 0
 2709 01b2 0133     		adds	r3, r3, #1
 2710 01b4 9946     		mov	r9, r3
 2711 01b6 0BE0     		b	.L152
 2712              	.L169:
 699:Api\core\src/vl53l0x_api_calibration.c **** 
 2713              		.loc 1 699 0
 2714 01b8 0023     		movs	r3, #0
 2715 01ba 0B93     		str	r3, [sp, #44]
 698:Api\core\src/vl53l0x_api_calibration.c **** 	uint8_t	 isApertureSpads_int = 0;
 2716              		.loc 1 698 0
 2717 01bc 0793     		str	r3, [sp, #28]
 802:Api\core\src/vl53l0x_api_calibration.c **** 
 2718              		.loc 1 802 0
 2719 01be 0133     		adds	r3, r3, #1
 2720 01c0 9946     		mov	r9, r3
 2721 01c2 05E0     		b	.L152
 2722              	.L170:
 827:Api\core\src/vl53l0x_api_calibration.c **** 					refSpadCount_int = minimumSpadCount;
 2723              		.loc 1 827 0
 2724 01c4 0123     		movs	r3, #1
 2725 01c6 0B93     		str	r3, [sp, #44]
 828:Api\core\src/vl53l0x_api_calibration.c **** 				}
 2726              		.loc 1 828 0
 2727 01c8 0233     		adds	r3, r3, #2
 2728 01ca 0793     		str	r3, [sp, #28]
 802:Api\core\src/vl53l0x_api_calibration.c **** 
 2729              		.loc 1 802 0
 2730 01cc 023B     		subs	r3, r3, #2
 2731 01ce 9946     		mov	r9, r3
ARM GAS  C:\Users\Rajesh\AppData\Local\Temp\ccFou9eL.s 			page 73


 2732              	.LVL436:
 2733              	.L152:
 836:Api\core\src/vl53l0x_api_calibration.c **** 		(peakSignalRateRef < targetRefRate)) {
 2734              		.loc 1 836 0
 2735 01d0 002C     		cmp	r4, #0
 2736 01d2 00D0     		beq	.LCB3019
 2737 01d4 89E0     		b	.L158	@long jump
 2738              	.LCB3019:
 837:Api\core\src/vl53l0x_api_calibration.c **** 		/* At this point, the minimum number of either aperture
 2739              		.loc 1 837 0 discriminator 1
 2740 01d6 1E23     		movs	r3, #30
 2741 01d8 08AA     		add	r2, sp, #32
 2742 01da 9446     		mov	ip, r2
 2743 01dc 6344     		add	r3, r3, ip
 2744 01de 1E88     		ldrh	r6, [r3]
 836:Api\core\src/vl53l0x_api_calibration.c **** 		(peakSignalRateRef < targetRefRate)) {
 2745              		.loc 1 836 0 discriminator 1
 2746 01e0 B245     		cmp	r10, r6
 2747 01e2 00D8     		bhi	.LCB3026
 2748 01e4 81E0     		b	.L158	@long jump
 2749              	.LCB3026:
 843:Api\core\src/vl53l0x_api_calibration.c **** 		refSpadCount_int	= minimumSpadCount;
 2750              		.loc 1 843 0
 2751 01e6 4B46     		mov	r3, r9
 2752 01e8 6A46     		mov	r2, sp
 2753 01ea 1377     		strb	r3, [r2, #28]
 2754              	.LVL437:
 2755 01ec 137F     		ldrb	r3, [r2, #28]
 2756 01ee 0B93     		str	r3, [sp, #44]
 2757              	.LVL438:
 846:Api\core\src/vl53l0x_api_calibration.c **** 				spadArraySize);
 2758              		.loc 1 846 0
 2759 01f0 2900     		movs	r1, r5
 2760 01f2 2531     		adds	r1, r1, #37
 2761 01f4 FF31     		adds	r1, r1, #255
 2762 01f6 0622     		movs	r2, #6
 2763 01f8 12A8     		add	r0, sp, #72
 2764 01fa FFF7FEFF 		bl	memcpy
 2765              	.LVL439:
 848:Api\core\src/vl53l0x_api_calibration.c **** 			targetRefRate);
 2766              		.loc 1 848 0
 2767 01fe D046     		mov	r8, r10
 2768 0200 5346     		mov	r3, r10
 2769 0202 F61A     		subs	r6, r6, r3
 2770 0204 F217     		asrs	r2, r6, #31
 2771 0206 B318     		adds	r3, r6, r2
 2772 0208 5340     		eors	r3, r2
 2773 020a 0A93     		str	r3, [sp, #40]
 2774              	.LVL440:
 844:Api\core\src/vl53l0x_api_calibration.c **** 
 2775              		.loc 1 844 0
 2776 020c 0323     		movs	r3, #3
 2777 020e 0793     		str	r3, [sp, #28]
 850:Api\core\src/vl53l0x_api_calibration.c **** 
 2778              		.loc 1 850 0
 2779 0210 0023     		movs	r3, #0
 2780 0212 0897     		str	r7, [sp, #32]
ARM GAS  C:\Users\Rajesh\AppData\Local\Temp\ccFou9eL.s 			page 74


 2781 0214 1F00     		movs	r7, r3
 2782              	.LVL441:
 2783 0216 D346     		mov	fp, r10
 852:Api\core\src/vl53l0x_api_calibration.c **** 			get_next_good_spad(
 2784              		.loc 1 852 0
 2785 0218 5CE0     		b	.L159
 2786              	.LVL442:
 2787              	.L163:
 853:Api\core\src/vl53l0x_api_calibration.c **** 				Dev->Data.SpadData.RefGoodSpadMap,
 2788              		.loc 1 853 0
 2789 021a 10AB     		add	r3, sp, #64
 2790 021c 089A     		ldr	r2, [sp, #32]
 2791 021e 0621     		movs	r1, #6
 2792 0220 2800     		movs	r0, r5
 2793 0222 2B30     		adds	r0, r0, #43
 2794 0224 FF30     		adds	r0, r0, #255
 2795 0226 FFF7FEFF 		bl	get_next_good_spad
 2796              	.LVL443:
 858:Api\core\src/vl53l0x_api_calibration.c **** 				Status = VL53L0X_ERROR_REF_SPAD_INIT;
 2797              		.loc 1 858 0
 2798 022a 109E     		ldr	r6, [sp, #64]
 2799 022c 731C     		adds	r3, r6, #1
 2800 022e 54D0     		beq	.L171
 866:Api\core\src/vl53l0x_api_calibration.c **** 					needAptSpads) {
 2801              		.loc 1 866 0
 2802 0230 0896     		str	r6, [sp, #32]
 2803              	.LVL444:
 2804 0232 3000     		movs	r0, r6
 2805 0234 B430     		adds	r0, r0, #180
 2806 0236 FFF7FEFF 		bl	is_aperture
 2807              	.LVL445:
 2808 023a 8145     		cmp	r9, r0
 2809 023c 55D1     		bne	.L158
 875:Api\core\src/vl53l0x_api_calibration.c **** 
 2810              		.loc 1 875 0
 2811 023e 079B     		ldr	r3, [sp, #28]
 2812 0240 0133     		adds	r3, r3, #1
 2813 0242 0993     		str	r3, [sp, #36]
 2814              	.LVL446:
 879:Api\core\src/vl53l0x_api_calibration.c **** 					spadArraySize, currentSpadIndex);
 2815              		.loc 1 879 0
 2816 0244 9223     		movs	r3, #146
 2817              	.LVL447:
 2818 0246 5B00     		lsls	r3, r3, #1
 2819 0248 9A46     		mov	r10, r3
 2820 024a AA44     		add	r10, r10, r5
 878:Api\core\src/vl53l0x_api_calibration.c **** 					Dev->Data.SpadData.RefSpadEnables,
 2821              		.loc 1 878 0
 2822 024c 3200     		movs	r2, r6
 2823 024e 0621     		movs	r1, #6
 2824 0250 5046     		mov	r0, r10
 2825 0252 FFF7FEFF 		bl	enable_spad_bit
 2826              	.LVL448:
 2827 0256 041E     		subs	r4, r0, #0
 2828              	.LVL449:
 882:Api\core\src/vl53l0x_api_calibration.c **** 				currentSpadIndex++;
 2829              		.loc 1 882 0
ARM GAS  C:\Users\Rajesh\AppData\Local\Temp\ccFou9eL.s 			page 75


 2830 0258 06D1     		bne	.L160
 883:Api\core\src/vl53l0x_api_calibration.c **** 				/* Proceed to apply the additional spad and
 2831              		.loc 1 883 0
 2832 025a 731C     		adds	r3, r6, #1
 2833 025c 0893     		str	r3, [sp, #32]
 2834              	.LVL450:
 886:Api\core\src/vl53l0x_api_calibration.c **** 					Dev->Data.SpadData.RefSpadEnables);
 2835              		.loc 1 886 0
 2836 025e 5146     		mov	r1, r10
 2837 0260 2800     		movs	r0, r5
 2838              	.LVL451:
 2839 0262 FFF7FEFF 		bl	set_ref_spad_map
 2840              	.LVL452:
 2841 0266 0400     		movs	r4, r0
 2842              	.LVL453:
 2843              	.L160:
 890:Api\core\src/vl53l0x_api_calibration.c **** 				break;
 2844              		.loc 1 890 0
 2845 0268 002C     		cmp	r4, #0
 2846 026a 39D1     		bne	.L172
 893:Api\core\src/vl53l0x_api_calibration.c **** 					&peakSignalRateRef);
 2847              		.loc 1 893 0
 2848 026c 1E21     		movs	r1, #30
 2849 026e 08AB     		add	r3, sp, #32
 2850              	.LVL454:
 2851 0270 9C46     		mov	ip, r3
 2852 0272 6144     		add	r1, r1, ip
 2853 0274 2800     		movs	r0, r5
 2854 0276 FFF7FEFF 		bl	perform_ref_signal_measurement
 2855              	.LVL455:
 2856 027a 041E     		subs	r4, r0, #0
 2857              	.LVL456:
 896:Api\core\src/vl53l0x_api_calibration.c **** 				break;
 2858              		.loc 1 896 0
 2859 027c 33D1     		bne	.L173
 899:Api\core\src/vl53l0x_api_calibration.c **** 
 2860              		.loc 1 899 0
 2861 027e 1E23     		movs	r3, #30
 2862 0280 08AA     		add	r2, sp, #32
 2863              	.LVL457:
 2864 0282 9446     		mov	ip, r2
 2865 0284 6344     		add	r3, r3, ip
 2866 0286 1B88     		ldrh	r3, [r3]
 2867 0288 4246     		mov	r2, r8
 2868              	.LVL458:
 2869 028a 9E1A     		subs	r6, r3, r2
 2870 028c F217     		asrs	r2, r6, #31
 2871 028e B618     		adds	r6, r6, r2
 2872 0290 5640     		eors	r6, r2
 2873              	.LVL459:
 901:Api\core\src/vl53l0x_api_calibration.c **** 				/* Select the spad map that provides the
 2874              		.loc 1 901 0
 2875 0292 9B45     		cmp	fp, r3
 2876 0294 12D2     		bcs	.L161
 906:Api\core\src/vl53l0x_api_calibration.c **** 					/* Previous spad map produced a closer
 2877              		.loc 1 906 0
 2878 0296 0A9B     		ldr	r3, [sp, #40]
ARM GAS  C:\Users\Rajesh\AppData\Local\Temp\ccFou9eL.s 			page 76


 2879 0298 B342     		cmp	r3, r6
 2880 029a 18D2     		bcs	.L174
 909:Api\core\src/vl53l0x_api_calibration.c **** 							lastSpadArray);
 2881              		.loc 1 909 0
 2882 029c 12A9     		add	r1, sp, #72
 2883 029e 2800     		movs	r0, r5
 2884              	.LVL460:
 2885 02a0 FFF7FEFF 		bl	set_ref_spad_map
 2886              	.LVL461:
 2887 02a4 0400     		movs	r4, r0
 2888              	.LVL462:
 911:Api\core\src/vl53l0x_api_calibration.c **** 					Dev->Data.SpadData.RefSpadEnables,
 2889              		.loc 1 911 0
 2890 02a6 2800     		movs	r0, r5
 2891              	.LVL463:
 2892 02a8 2530     		adds	r0, r0, #37
 2893 02aa FF30     		adds	r0, r0, #255
 2894 02ac 0622     		movs	r2, #6
 2895 02ae 12A9     		add	r1, sp, #72
 2896 02b0 FFF7FEFF 		bl	memcpy
 2897              	.LVL464:
 915:Api\core\src/vl53l0x_api_calibration.c **** 				}
 2898              		.loc 1 915 0
 2899 02b4 079B     		ldr	r3, [sp, #28]
 2900 02b6 0993     		str	r3, [sp, #36]
 917:Api\core\src/vl53l0x_api_calibration.c **** 			} else {
 2901              		.loc 1 917 0
 2902 02b8 0127     		movs	r7, #1
 2903              	.LVL465:
 2904 02ba 09E0     		b	.L162
 2905              	.LVL466:
 2906              	.L161:
 921:Api\core\src/vl53l0x_api_calibration.c **** 					Dev->Data.SpadData.RefSpadEnables,
 2907              		.loc 1 921 0
 2908 02bc 2900     		movs	r1, r5
 2909 02be 2531     		adds	r1, r1, #37
 2910 02c0 FF31     		adds	r1, r1, #255
 2911 02c2 0622     		movs	r2, #6
 2912 02c4 12A8     		add	r0, sp, #72
 2913              	.LVL467:
 2914 02c6 FFF7FEFF 		bl	memcpy
 2915              	.LVL468:
 920:Api\core\src/vl53l0x_api_calibration.c **** 				memcpy(lastSpadArray,
 2916              		.loc 1 920 0
 2917 02ca 0A96     		str	r6, [sp, #40]
 2918 02cc 00E0     		b	.L162
 2919              	.LVL469:
 2920              	.L174:
 917:Api\core\src/vl53l0x_api_calibration.c **** 			} else {
 2921              		.loc 1 917 0
 2922 02ce 0127     		movs	r7, #1
 2923              	.LVL470:
 2924              	.L162:
 920:Api\core\src/vl53l0x_api_calibration.c **** 				memcpy(lastSpadArray,
 2925              		.loc 1 920 0
 2926 02d0 099B     		ldr	r3, [sp, #36]
 2927 02d2 0793     		str	r3, [sp, #28]
ARM GAS  C:\Users\Rajesh\AppData\Local\Temp\ccFou9eL.s 			page 77


 2928              	.LVL471:
 2929              	.L159:
 852:Api\core\src/vl53l0x_api_calibration.c **** 			get_next_good_spad(
 2930              		.loc 1 852 0
 2931 02d4 002F     		cmp	r7, #0
 2932 02d6 A0D0     		beq	.L163
 2933 02d8 07E0     		b	.L158
 2934              	.L171:
 859:Api\core\src/vl53l0x_api_calibration.c **** 				break;
 2935              		.loc 1 859 0
 2936 02da 3224     		movs	r4, #50
 2937              	.LVL472:
 2938 02dc 6442     		rsbs	r4, r4, #0
 2939 02de 04E0     		b	.L158
 2940              	.LVL473:
 2941              	.L172:
 875:Api\core\src/vl53l0x_api_calibration.c **** 
 2942              		.loc 1 875 0
 2943 02e0 099B     		ldr	r3, [sp, #36]
 2944 02e2 0793     		str	r3, [sp, #28]
 2945 02e4 01E0     		b	.L158
 2946              	.LVL474:
 2947              	.L173:
 2948 02e6 099B     		ldr	r3, [sp, #36]
 2949 02e8 0793     		str	r3, [sp, #28]
 2950              	.LVL475:
 2951              	.L158:
 929:Api\core\src/vl53l0x_api_calibration.c **** 		*refSpadCount = refSpadCount_int;
 2952              		.loc 1 929 0
 2953 02ea 002C     		cmp	r4, #0
 2954 02ec 14D1     		bne	.L164
 930:Api\core\src/vl53l0x_api_calibration.c **** 		*isApertureSpads = isApertureSpads_int;
 2955              		.loc 1 930 0
 2956 02ee 0C99     		ldr	r1, [sp, #48]
 2957 02f0 079A     		ldr	r2, [sp, #28]
 2958 02f2 0A60     		str	r2, [r1]
 931:Api\core\src/vl53l0x_api_calibration.c **** 
 2959              		.loc 1 931 0
 2960 02f4 0D98     		ldr	r0, [sp, #52]
 2961 02f6 6A46     		mov	r2, sp
 2962 02f8 2C26     		movs	r6, #44
 2963 02fa 9219     		adds	r2, r2, r6
 2964 02fc 1278     		ldrb	r2, [r2]
 2965 02fe 0270     		strb	r2, [r0]
 933:Api\core\src/vl53l0x_api_calibration.c **** 		VL53L0X_SETDEVICESPECIFICPARAMETER(Dev,
 2966              		.loc 1 933 0
 2967 0300 0122     		movs	r2, #1
 2968 0302 1623     		movs	r3, #22
 2969 0304 FF33     		adds	r3, r3, #255
 2970 0306 EA54     		strb	r2, [r5, r3]
 934:Api\core\src/vl53l0x_api_calibration.c **** 			ReferenceSpadCount, (uint8_t)(*refSpadCount));
 2971              		.loc 1 934 0
 2972 0308 0A78     		ldrb	r2, [r1]
 2973 030a 1423     		movs	r3, #20
 2974 030c FF33     		adds	r3, r3, #255
 2975 030e EA54     		strb	r2, [r5, r3]
 936:Api\core\src/vl53l0x_api_calibration.c **** 			ReferenceSpadType, *isApertureSpads);
ARM GAS  C:\Users\Rajesh\AppData\Local\Temp\ccFou9eL.s 			page 78


 2976              		.loc 1 936 0
 2977 0310 0278     		ldrb	r2, [r0]
 2978 0312 8A23     		movs	r3, #138
 2979 0314 5B00     		lsls	r3, r3, #1
 2980 0316 EA54     		strb	r2, [r5, r3]
 2981              	.L164:
 941:Api\core\src/vl53l0x_api_calibration.c **** 
 2982              		.loc 1 941 0
 2983 0318 2000     		movs	r0, r4
 2984 031a 15B0     		add	sp, sp, #84
 2985              		@ sp needed
 2986              	.LVL476:
 2987              	.LVL477:
 2988              	.LVL478:
 2989 031c 3CBC     		pop	{r2, r3, r4, r5}
 2990 031e 9046     		mov	r8, r2
 2991 0320 9946     		mov	r9, r3
 2992 0322 A246     		mov	r10, r4
 2993 0324 AB46     		mov	fp, r5
 2994 0326 F0BD     		pop	{r4, r5, r6, r7, pc}
 2995              		.cfi_endproc
 2996              	.LFE14:
 2997              		.size	VL53L0X_perform_ref_spad_management, .-VL53L0X_perform_ref_spad_management
 2998              		.section	.text.VL53L0X_set_ref_calibration,"ax",%progbits
 2999              		.align	2
 3000              		.global	VL53L0X_set_ref_calibration
 3001              		.code	16
 3002              		.thumb_func
 3003              		.type	VL53L0X_set_ref_calibration, %function
 3004              	VL53L0X_set_ref_calibration:
 3005              	.LFB22:
1247:Api\core\src/vl53l0x_api_calibration.c **** 
1248:Api\core\src/vl53l0x_api_calibration.c **** VL53L0X_Error VL53L0X_set_ref_calibration(VL53L0X_DEV Dev,
1249:Api\core\src/vl53l0x_api_calibration.c **** 		uint8_t VhvSettings, uint8_t PhaseCal)
1250:Api\core\src/vl53l0x_api_calibration.c **** {
 3006              		.loc 1 1250 0
 3007              		.cfi_startproc
 3008              		@ args = 0, pretend = 0, frame = 8
 3009              		@ frame_needed = 0, uses_anonymous_args = 0
 3010              	.LVL479:
 3011 0000 10B5     		push	{r4, lr}
 3012              		.cfi_def_cfa_offset 8
 3013              		.cfi_offset 4, -8
 3014              		.cfi_offset 14, -4
 3015 0002 86B0     		sub	sp, sp, #24
 3016              		.cfi_def_cfa_offset 32
 3017 0004 1300     		movs	r3, r2
 3018              	.LVL480:
1251:Api\core\src/vl53l0x_api_calibration.c **** 	VL53L0X_Error Status = VL53L0X_ERROR_NONE;
1252:Api\core\src/vl53l0x_api_calibration.c **** 	uint8_t pVhvSettings;
1253:Api\core\src/vl53l0x_api_calibration.c **** 	uint8_t pPhaseCal;
1254:Api\core\src/vl53l0x_api_calibration.c **** 
1255:Api\core\src/vl53l0x_api_calibration.c **** 	Status = VL53L0X_ref_calibration_io(Dev, 0,
 3019              		.loc 1 1255 0
 3020 0006 0124     		movs	r4, #1
 3021 0008 0394     		str	r4, [sp, #12]
 3022 000a 0294     		str	r4, [sp, #8]
ARM GAS  C:\Users\Rajesh\AppData\Local\Temp\ccFou9eL.s 			page 79


 3023 000c 1622     		movs	r2, #22
 3024              	.LVL481:
 3025 000e 6A44     		add	r2, r2, sp
 3026 0010 0192     		str	r2, [sp, #4]
 3027 0012 1722     		movs	r2, #23
 3028 0014 6A44     		add	r2, r2, sp
 3029 0016 0092     		str	r2, [sp]
 3030 0018 0A00     		movs	r2, r1
 3031 001a 0021     		movs	r1, #0
 3032              	.LVL482:
 3033 001c FFF7FEFF 		bl	VL53L0X_ref_calibration_io
 3034              	.LVL483:
1256:Api\core\src/vl53l0x_api_calibration.c **** 		VhvSettings, PhaseCal,
1257:Api\core\src/vl53l0x_api_calibration.c **** 		&pVhvSettings, &pPhaseCal,
1258:Api\core\src/vl53l0x_api_calibration.c **** 		1, 1);
1259:Api\core\src/vl53l0x_api_calibration.c **** 
1260:Api\core\src/vl53l0x_api_calibration.c **** 	return Status;
1261:Api\core\src/vl53l0x_api_calibration.c **** }
 3035              		.loc 1 1261 0
 3036 0020 06B0     		add	sp, sp, #24
 3037              		@ sp needed
 3038 0022 10BD     		pop	{r4, pc}
 3039              		.cfi_endproc
 3040              	.LFE22:
 3041              		.size	VL53L0X_set_ref_calibration, .-VL53L0X_set_ref_calibration
 3042              		.section	.text.VL53L0X_get_ref_calibration,"ax",%progbits
 3043              		.align	2
 3044              		.global	VL53L0X_get_ref_calibration
 3045              		.code	16
 3046              		.thumb_func
 3047              		.type	VL53L0X_get_ref_calibration, %function
 3048              	VL53L0X_get_ref_calibration:
 3049              	.LFB23:
1262:Api\core\src/vl53l0x_api_calibration.c **** 
1263:Api\core\src/vl53l0x_api_calibration.c **** VL53L0X_Error VL53L0X_get_ref_calibration(VL53L0X_DEV Dev,
1264:Api\core\src/vl53l0x_api_calibration.c **** 		uint8_t *pVhvSettings, uint8_t *pPhaseCal)
1265:Api\core\src/vl53l0x_api_calibration.c **** {
 3050              		.loc 1 1265 0
 3051              		.cfi_startproc
 3052              		@ args = 0, pretend = 0, frame = 0
 3053              		@ frame_needed = 0, uses_anonymous_args = 0
 3054              	.LVL484:
 3055 0000 00B5     		push	{lr}
 3056              		.cfi_def_cfa_offset 4
 3057              		.cfi_offset 14, -4
 3058 0002 85B0     		sub	sp, sp, #20
 3059              		.cfi_def_cfa_offset 24
 3060              	.LVL485:
1266:Api\core\src/vl53l0x_api_calibration.c **** 	VL53L0X_Error Status = VL53L0X_ERROR_NONE;
1267:Api\core\src/vl53l0x_api_calibration.c **** 	uint8_t VhvSettings = 0;
1268:Api\core\src/vl53l0x_api_calibration.c **** 	uint8_t PhaseCal = 0;
1269:Api\core\src/vl53l0x_api_calibration.c **** 
1270:Api\core\src/vl53l0x_api_calibration.c **** 	Status = VL53L0X_ref_calibration_io(Dev, 1,
 3061              		.loc 1 1270 0
 3062 0004 0123     		movs	r3, #1
 3063 0006 0393     		str	r3, [sp, #12]
 3064 0008 0293     		str	r3, [sp, #8]
ARM GAS  C:\Users\Rajesh\AppData\Local\Temp\ccFou9eL.s 			page 80


 3065 000a 0192     		str	r2, [sp, #4]
 3066 000c 0091     		str	r1, [sp]
 3067 000e 0023     		movs	r3, #0
 3068 0010 0022     		movs	r2, #0
 3069              	.LVL486:
 3070 0012 0121     		movs	r1, #1
 3071              	.LVL487:
 3072 0014 FFF7FEFF 		bl	VL53L0X_ref_calibration_io
 3073              	.LVL488:
1271:Api\core\src/vl53l0x_api_calibration.c **** 		VhvSettings, PhaseCal,
1272:Api\core\src/vl53l0x_api_calibration.c **** 		pVhvSettings, pPhaseCal,
1273:Api\core\src/vl53l0x_api_calibration.c **** 		1, 1);
1274:Api\core\src/vl53l0x_api_calibration.c **** 
1275:Api\core\src/vl53l0x_api_calibration.c **** 	return Status;
1276:Api\core\src/vl53l0x_api_calibration.c **** }
 3074              		.loc 1 1276 0
 3075 0018 05B0     		add	sp, sp, #20
 3076              		@ sp needed
 3077 001a 00BD     		pop	{pc}
 3078              		.cfi_endproc
 3079              	.LFE23:
 3080              		.size	VL53L0X_get_ref_calibration, .-VL53L0X_get_ref_calibration
 3081              		.global	refArrayQuadrants
 3082              		.data
 3083              		.align	2
 3084              		.set	.LANCHOR0,. + 0
 3085              		.type	refArrayQuadrants, %object
 3086              		.size	refArrayQuadrants, 16
 3087              	refArrayQuadrants:
 3088 0000 0A000000 		.word	10
 3089 0004 05000000 		.word	5
 3090 0008 00000000 		.word	0
 3091 000c 05000000 		.word	5
 3092              		.text
 3093              	.Letext0:
 3094              		.file 2 "c:\\program files (x86)\\cypress\\psoc creator\\4.2\\psoc creator\\import\\gnu\\arm\\5.4.
 3095              		.file 3 "c:\\program files (x86)\\cypress\\psoc creator\\4.2\\psoc creator\\import\\gnu\\arm\\5.4.
 3096              		.file 4 ".\\Api\\platform\\inc/vl53l0x_types.h"
 3097              		.file 5 ".\\Api\\core\\inc/vl53l0x_device.h"
 3098              		.file 6 ".\\Api\\core\\inc/vl53l0x_def.h"
 3099              		.file 7 ".\\Api\\platform\\inc/vl53l0x_platform.h"
 3100              		.file 8 ".\\Api\\core\\inc/vl53l0x_api.h"
 3101              		.file 9 ".\\Api\\core\\inc/vl53l0x_api_core.h"