ARM GAS  C:\Users\Rajesh\AppData\Local\Temp\ccFou9eL.s 			page 1


   1              		.syntax unified
   2              		.cpu cortex-m0
   3              		.fpu softvfp
   4              		.eabi_attribute 20, 1
   5              		.eabi_attribute 21, 1
   6              		.eabi_attribute 23, 3
   7              		.eabi_attribute 24, 1
   8              		.eabi_attribute 25, 1
   9              		.eabi_attribute 26, 1
  10              		.eabi_attribute 30, 1
  11              		.eabi_attribute 34, 0
  12              		.eabi_attribute 18, 4
  13              		.thumb
  14              		.syntax unified
  15              		.file	"vl53l0x_api_calibration.c"
  16              		.text
  17              	.Ltext0:
  18              		.cfi_sections	.debug_frame
  19              		.global	__aeabi_uidiv
  20              		.section	.text.VL53L0X_perform_xtalk_calibration,"ax",%progbits
  21              		.align	2
  22              		.global	VL53L0X_perform_xtalk_calibration
  23              		.code	16
  24              		.thumb_func
  25              		.type	VL53L0X_perform_xtalk_calibration, %function
  26              	VL53L0X_perform_xtalk_calibration:
  27              	.LFB1:
  28              		.file 1 "Api\\core\\src\\vl53l0x_api_calibration.c"
   1:Api\core\src/vl53l0x_api_calibration.c **** /*******************************************************************************
   2:Api\core\src/vl53l0x_api_calibration.c ****  Copyright © 2016, STMicroelectronics International N.V.
   3:Api\core\src/vl53l0x_api_calibration.c ****  All rights reserved.
   4:Api\core\src/vl53l0x_api_calibration.c **** 
   5:Api\core\src/vl53l0x_api_calibration.c ****  Redistribution and use in source and binary forms, with or without
   6:Api\core\src/vl53l0x_api_calibration.c ****  modification, are permitted provided that the following conditions are met:
   7:Api\core\src/vl53l0x_api_calibration.c ****  * Redistributions of source code must retain the above copyright
   8:Api\core\src/vl53l0x_api_calibration.c ****  notice, this list of conditions and the following disclaimer.
   9:Api\core\src/vl53l0x_api_calibration.c ****  * Redistributions in binary form must reproduce the above copyright
  10:Api\core\src/vl53l0x_api_calibration.c ****  notice, this list of conditions and the following disclaimer in the
  11:Api\core\src/vl53l0x_api_calibration.c ****  documentation and/or other materials provided with the distribution.
  12:Api\core\src/vl53l0x_api_calibration.c ****  * Neither the name of STMicroelectronics nor the
  13:Api\core\src/vl53l0x_api_calibration.c ****  names of its contributors may be used to endorse or promote products
  14:Api\core\src/vl53l0x_api_calibration.c ****  derived from this software without specific prior written permission.
  15:Api\core\src/vl53l0x_api_calibration.c **** 
  16:Api\core\src/vl53l0x_api_calibration.c ****  THIS SOFTWARE IS PROVIDED BY THE COPYRIGHT HOLDERS AND CONTRIBUTORS "AS IS" AND
  17:Api\core\src/vl53l0x_api_calibration.c ****  ANY EXPRESS OR IMPLIED WARRANTIES, INCLUDING, BUT NOT LIMITED TO, THE IMPLIED
  18:Api\core\src/vl53l0x_api_calibration.c ****  WARRANTIES OF MERCHANTABILITY, FITNESS FOR A PARTICULAR PURPOSE, AND
  19:Api\core\src/vl53l0x_api_calibration.c ****  NON-INFRINGEMENT OF INTELLECTUAL PROPERTY RIGHTS ARE DISCLAIMED.
  20:Api\core\src/vl53l0x_api_calibration.c ****  IN NO EVENT SHALL STMICROELECTRONICS INTERNATIONAL N.V. BE LIABLE FOR ANY
  21:Api\core\src/vl53l0x_api_calibration.c ****  DIRECT, INDIRECT, INCIDENTAL, SPECIAL, EXEMPLARY, OR CONSEQUENTIAL DAMAGES
  22:Api\core\src/vl53l0x_api_calibration.c ****  (INCLUDING, BUT NOT LIMITED TO, PROCUREMENT OF SUBSTITUTE GOODS OR SERVICES;
  23:Api\core\src/vl53l0x_api_calibration.c ****  LOSS OF USE, DATA, OR PROFITS; OR BUSINESS INTERRUPTION) HOWEVER CAUSED AND
  24:Api\core\src/vl53l0x_api_calibration.c ****  ON ANY THEORY OF LIABILITY, WHETHER IN CONTRACT, STRICT LIABILITY, OR TORT
  25:Api\core\src/vl53l0x_api_calibration.c ****  (INCLUDING NEGLIGENCE OR OTHERWISE) ARISING IN ANY WAY OUT OF THE USE OF THIS
  26:Api\core\src/vl53l0x_api_calibration.c ****  SOFTWARE, EVEN IF ADVISED OF THE POSSIBILITY OF SUCH DAMAGE.
  27:Api\core\src/vl53l0x_api_calibration.c ****  ******************************************************************************/
  28:Api\core\src/vl53l0x_api_calibration.c **** 
  29:Api\core\src/vl53l0x_api_calibration.c **** #include "vl53l0x_api.h"
ARM GAS  C:\Users\Rajesh\AppData\Local\Temp\ccFou9eL.s 			page 2


  30:Api\core\src/vl53l0x_api_calibration.c **** #include "vl53l0x_api_core.h"
  31:Api\core\src/vl53l0x_api_calibration.c **** #include "vl53l0x_api_calibration.h"
  32:Api\core\src/vl53l0x_api_calibration.c **** 
  33:Api\core\src/vl53l0x_api_calibration.c **** #ifndef __KERNEL__
  34:Api\core\src/vl53l0x_api_calibration.c **** #include <stdlib.h>
  35:Api\core\src/vl53l0x_api_calibration.c **** #endif
  36:Api\core\src/vl53l0x_api_calibration.c **** 
  37:Api\core\src/vl53l0x_api_calibration.c **** #define LOG_FUNCTION_START(fmt, ...) \
  38:Api\core\src/vl53l0x_api_calibration.c **** 	_LOG_FUNCTION_START(TRACE_MODULE_API, fmt, ##__VA_ARGS__)
  39:Api\core\src/vl53l0x_api_calibration.c **** #define LOG_FUNCTION_END(status, ...) \
  40:Api\core\src/vl53l0x_api_calibration.c **** 	_LOG_FUNCTION_END(TRACE_MODULE_API, status, ##__VA_ARGS__)
  41:Api\core\src/vl53l0x_api_calibration.c **** #define LOG_FUNCTION_END_FMT(status, fmt, ...) \
  42:Api\core\src/vl53l0x_api_calibration.c **** 	_LOG_FUNCTION_END_FMT(TRACE_MODULE_API, status, fmt, ##__VA_ARGS__)
  43:Api\core\src/vl53l0x_api_calibration.c **** 
  44:Api\core\src/vl53l0x_api_calibration.c **** #define REF_ARRAY_SPAD_0  0
  45:Api\core\src/vl53l0x_api_calibration.c **** #define REF_ARRAY_SPAD_5  5
  46:Api\core\src/vl53l0x_api_calibration.c **** #define REF_ARRAY_SPAD_10 10
  47:Api\core\src/vl53l0x_api_calibration.c **** 
  48:Api\core\src/vl53l0x_api_calibration.c **** uint32_t refArrayQuadrants[4] = {REF_ARRAY_SPAD_10, REF_ARRAY_SPAD_5,
  49:Api\core\src/vl53l0x_api_calibration.c **** 		REF_ARRAY_SPAD_0, REF_ARRAY_SPAD_5 };
  50:Api\core\src/vl53l0x_api_calibration.c **** 
  51:Api\core\src/vl53l0x_api_calibration.c **** VL53L0X_Error VL53L0X_perform_xtalk_calibration(VL53L0X_DEV Dev,
  52:Api\core\src/vl53l0x_api_calibration.c **** 			FixPoint1616_t XTalkCalDistance,
  53:Api\core\src/vl53l0x_api_calibration.c **** 			FixPoint1616_t *pXTalkCompensationRateMegaCps)
  54:Api\core\src/vl53l0x_api_calibration.c **** {
  29              		.loc 1 54 0
  30              		.cfi_startproc
  31              		@ args = 0, pretend = 0, frame = 40
  32              		@ frame_needed = 0, uses_anonymous_args = 0
  33              	.LVL0:
  34 0000 F0B5     		push	{r4, r5, r6, r7, lr}
  35              		.cfi_def_cfa_offset 20
  36              		.cfi_offset 4, -20
  37              		.cfi_offset 5, -16
  38              		.cfi_offset 6, -12
  39              		.cfi_offset 7, -8
  40              		.cfi_offset 14, -4
  41 0002 5F46     		mov	r7, fp
  42 0004 5646     		mov	r6, r10
  43 0006 4D46     		mov	r5, r9
  44 0008 4446     		mov	r4, r8
  45 000a F0B4     		push	{r4, r5, r6, r7}
  46              		.cfi_def_cfa_offset 36
  47              		.cfi_offset 8, -36
  48              		.cfi_offset 9, -32
  49              		.cfi_offset 10, -28
  50              		.cfi_offset 11, -24
  51 000c 8BB0     		sub	sp, sp, #44
  52              		.cfi_def_cfa_offset 80
  53 000e 0090     		str	r0, [sp]
  54 0010 8846     		mov	r8, r1
  55 0012 9246     		mov	r10, r2
  56              	.LVL1:
  55:Api\core\src/vl53l0x_api_calibration.c **** 	VL53L0X_Error Status = VL53L0X_ERROR_NONE;
  56:Api\core\src/vl53l0x_api_calibration.c **** 	uint16_t sum_ranging = 0;
  57:Api\core\src/vl53l0x_api_calibration.c **** 	uint16_t sum_spads = 0;
  58:Api\core\src/vl53l0x_api_calibration.c **** 	FixPoint1616_t sum_signalRate = 0;
ARM GAS  C:\Users\Rajesh\AppData\Local\Temp\ccFou9eL.s 			page 3


  59:Api\core\src/vl53l0x_api_calibration.c **** 	FixPoint1616_t total_count = 0;
  60:Api\core\src/vl53l0x_api_calibration.c **** 	uint8_t xtalk_meas = 0;
  61:Api\core\src/vl53l0x_api_calibration.c **** 	VL53L0X_RangingMeasurementData_t RangingMeasurementData;
  62:Api\core\src/vl53l0x_api_calibration.c **** 	FixPoint1616_t xTalkStoredMeanSignalRate;
  63:Api\core\src/vl53l0x_api_calibration.c **** 	FixPoint1616_t xTalkStoredMeanRange;
  64:Api\core\src/vl53l0x_api_calibration.c **** 	FixPoint1616_t xTalkStoredMeanRtnSpads;
  65:Api\core\src/vl53l0x_api_calibration.c **** 	uint32_t signalXTalkTotalPerSpad;
  66:Api\core\src/vl53l0x_api_calibration.c **** 	uint32_t xTalkStoredMeanRtnSpadsAsInt;
  67:Api\core\src/vl53l0x_api_calibration.c **** 	uint32_t xTalkCalDistanceAsInt;
  68:Api\core\src/vl53l0x_api_calibration.c **** 	FixPoint1616_t XTalkCompensationRateMegaCps;
  69:Api\core\src/vl53l0x_api_calibration.c **** 
  70:Api\core\src/vl53l0x_api_calibration.c **** 	if (XTalkCalDistance <= 0)
  57              		.loc 1 70 0
  58 0014 0029     		cmp	r1, #0
  59 0016 01D0     		beq	.L13
  55:Api\core\src/vl53l0x_api_calibration.c **** 	VL53L0X_Error Status = VL53L0X_ERROR_NONE;
  60              		.loc 1 55 0
  61 0018 0024     		movs	r4, #0
  62 001a 01E0     		b	.L2
  63              	.L13:
  71:Api\core\src/vl53l0x_api_calibration.c **** 		Status = VL53L0X_ERROR_INVALID_PARAMS;
  64              		.loc 1 71 0
  65 001c 0424     		movs	r4, #4
  66 001e 6442     		rsbs	r4, r4, #0
  67              	.L2:
  68              	.LVL2:
  72:Api\core\src/vl53l0x_api_calibration.c **** 
  73:Api\core\src/vl53l0x_api_calibration.c **** 	/* Disable the XTalk compensation */
  74:Api\core\src/vl53l0x_api_calibration.c **** 	if (Status == VL53L0X_ERROR_NONE)
  69              		.loc 1 74 0
  70 0020 002C     		cmp	r4, #0
  71 0022 04D1     		bne	.L3
  75:Api\core\src/vl53l0x_api_calibration.c **** 		Status = VL53L0X_SetXTalkCompensationEnable(Dev, 0);
  72              		.loc 1 75 0
  73 0024 0021     		movs	r1, #0
  74              	.LVL3:
  75 0026 0098     		ldr	r0, [sp]
  76              	.LVL4:
  77 0028 FFF7FEFF 		bl	VL53L0X_SetXTalkCompensationEnable
  78              	.LVL5:
  79 002c 0400     		movs	r4, r0
  80              	.LVL6:
  81              	.L3:
  76:Api\core\src/vl53l0x_api_calibration.c **** 
  77:Api\core\src/vl53l0x_api_calibration.c **** 	/* Disable the RIT */
  78:Api\core\src/vl53l0x_api_calibration.c **** 	if (Status == VL53L0X_ERROR_NONE) {
  82              		.loc 1 78 0
  83 002e 002C     		cmp	r4, #0
  84 0030 05D1     		bne	.L4
  79:Api\core\src/vl53l0x_api_calibration.c **** 		Status = VL53L0X_SetLimitCheckEnable(Dev,
  85              		.loc 1 79 0
  86 0032 0022     		movs	r2, #0
  87 0034 0321     		movs	r1, #3
  88 0036 0098     		ldr	r0, [sp]
  89 0038 FFF7FEFF 		bl	VL53L0X_SetLimitCheckEnable
  90              	.LVL7:
  91 003c 0400     		movs	r4, r0
ARM GAS  C:\Users\Rajesh\AppData\Local\Temp\ccFou9eL.s 			page 4


  92              	.LVL8:
  93              	.L4:
  80:Api\core\src/vl53l0x_api_calibration.c **** 				VL53L0X_CHECKENABLE_RANGE_IGNORE_THRESHOLD, 0);
  81:Api\core\src/vl53l0x_api_calibration.c **** 	}
  82:Api\core\src/vl53l0x_api_calibration.c **** 
  83:Api\core\src/vl53l0x_api_calibration.c **** 	/* Perform 50 measurements and compute the averages */
  84:Api\core\src/vl53l0x_api_calibration.c **** 	if (Status == VL53L0X_ERROR_NONE) {
  94              		.loc 1 84 0
  95 003e 002C     		cmp	r4, #0
  96 0040 1FD0     		beq	.L14
  59:Api\core\src/vl53l0x_api_calibration.c **** 	uint8_t xtalk_meas = 0;
  97              		.loc 1 59 0
  98 0042 0026     		movs	r6, #0
  58:Api\core\src/vl53l0x_api_calibration.c **** 	FixPoint1616_t total_count = 0;
  99              		.loc 1 58 0
 100 0044 0023     		movs	r3, #0
 101 0046 9B46     		mov	fp, r3
  57:Api\core\src/vl53l0x_api_calibration.c **** 	FixPoint1616_t sum_signalRate = 0;
 102              		.loc 1 57 0
 103 0048 0027     		movs	r7, #0
  56:Api\core\src/vl53l0x_api_calibration.c **** 	uint16_t sum_spads = 0;
 104              		.loc 1 56 0
 105 004a 9946     		mov	r9, r3
 106 004c 25E0     		b	.L6
 107              	.LVL9:
 108              	.L9:
  85:Api\core\src/vl53l0x_api_calibration.c **** 		sum_ranging = 0;
  86:Api\core\src/vl53l0x_api_calibration.c **** 		sum_spads = 0;
  87:Api\core\src/vl53l0x_api_calibration.c **** 		sum_signalRate = 0;
  88:Api\core\src/vl53l0x_api_calibration.c **** 		total_count = 0;
  89:Api\core\src/vl53l0x_api_calibration.c **** 		for (xtalk_meas = 0; xtalk_meas < 50; xtalk_meas++) {
  90:Api\core\src/vl53l0x_api_calibration.c **** 			Status = VL53L0X_PerformSingleRangingMeasurement(Dev,
 109              		.loc 1 90 0
 110 004e 03A9     		add	r1, sp, #12
 111 0050 0098     		ldr	r0, [sp]
 112 0052 FFF7FEFF 		bl	VL53L0X_PerformSingleRangingMeasurement
 113              	.LVL10:
 114 0056 041E     		subs	r4, r0, #0
 115              	.LVL11:
  91:Api\core\src/vl53l0x_api_calibration.c **** 				&RangingMeasurementData);
  92:Api\core\src/vl53l0x_api_calibration.c **** 
  93:Api\core\src/vl53l0x_api_calibration.c **** 			if (Status != VL53L0X_ERROR_NONE)
 116              		.loc 1 93 0
 117 0058 1BD1     		bne	.L7
  94:Api\core\src/vl53l0x_api_calibration.c **** 				break;
  95:Api\core\src/vl53l0x_api_calibration.c **** 
  96:Api\core\src/vl53l0x_api_calibration.c **** 			/* The range is valid when RangeStatus = 0 */
  97:Api\core\src/vl53l0x_api_calibration.c **** 			if (RangingMeasurementData.RangeStatus == 0) {
 118              		.loc 1 97 0
 119 005a 03AB     		add	r3, sp, #12
 120 005c 1B7E     		ldrb	r3, [r3, #24]
 121 005e 002B     		cmp	r3, #0
 122 0060 0CD1     		bne	.L8
  98:Api\core\src/vl53l0x_api_calibration.c **** 				sum_ranging = sum_ranging +
  99:Api\core\src/vl53l0x_api_calibration.c **** 					RangingMeasurementData.RangeMilliMeter;
 123              		.loc 1 99 0
 124 0062 03AB     		add	r3, sp, #12
ARM GAS  C:\Users\Rajesh\AppData\Local\Temp\ccFou9eL.s 			page 5


 125 0064 1889     		ldrh	r0, [r3, #8]
 126              	.LVL12:
  98:Api\core\src/vl53l0x_api_calibration.c **** 				sum_ranging = sum_ranging +
 127              		.loc 1 98 0
 128 0066 4844     		add	r0, r0, r9
 129 0068 82B2     		uxth	r2, r0
 130 006a 9146     		mov	r9, r2
 131              	.LVL13:
 100:Api\core\src/vl53l0x_api_calibration.c **** 				sum_signalRate = sum_signalRate +
 132              		.loc 1 100 0
 133 006c 069A     		ldr	r2, [sp, #24]
 134 006e 9446     		mov	ip, r2
 135 0070 E344     		add	fp, fp, ip
 136              	.LVL14:
 101:Api\core\src/vl53l0x_api_calibration.c **** 				RangingMeasurementData.SignalRateRtnMegaCps;
 102:Api\core\src/vl53l0x_api_calibration.c **** 				sum_spads = sum_spads +
 103:Api\core\src/vl53l0x_api_calibration.c **** 				RangingMeasurementData.EffectiveSpadRtnCount
 137              		.loc 1 103 0
 138 0072 988A     		ldrh	r0, [r3, #20]
 102:Api\core\src/vl53l0x_api_calibration.c **** 				RangingMeasurementData.EffectiveSpadRtnCount
 139              		.loc 1 102 0
 140 0074 000A     		lsrs	r0, r0, #8
 141 0076 3818     		adds	r0, r7, r0
 142 0078 87B2     		uxth	r7, r0
 143              	.LVL15:
 104:Api\core\src/vl53l0x_api_calibration.c **** 					/ 256;
 105:Api\core\src/vl53l0x_api_calibration.c **** 				total_count = total_count + 1;
 144              		.loc 1 105 0
 145 007a 0136     		adds	r6, r6, #1
 146              	.LVL16:
 147              	.L8:
  89:Api\core\src/vl53l0x_api_calibration.c **** 			Status = VL53L0X_PerformSingleRangingMeasurement(Dev,
 148              		.loc 1 89 0 discriminator 2
 149 007c 0135     		adds	r5, r5, #1
 150              	.LVL17:
 151 007e EDB2     		uxtb	r5, r5
 152              	.LVL18:
 153 0080 05E0     		b	.L5
 154              	.LVL19:
 155              	.L14:
 156 0082 0025     		movs	r5, #0
 157 0084 0026     		movs	r6, #0
 158 0086 0023     		movs	r3, #0
 159 0088 9B46     		mov	fp, r3
 160 008a 0027     		movs	r7, #0
 161 008c 9946     		mov	r9, r3
 162              	.LVL20:
 163              	.L5:
  89:Api\core\src/vl53l0x_api_calibration.c **** 			Status = VL53L0X_PerformSingleRangingMeasurement(Dev,
 164              		.loc 1 89 0 is_stmt 0 discriminator 1
 165 008e 312D     		cmp	r5, #49
 166 0090 DDD9     		bls	.L9
 167              	.LVL21:
 168              	.L7:
 106:Api\core\src/vl53l0x_api_calibration.c **** 			}
 107:Api\core\src/vl53l0x_api_calibration.c **** 		}
 108:Api\core\src/vl53l0x_api_calibration.c **** 
ARM GAS  C:\Users\Rajesh\AppData\Local\Temp\ccFou9eL.s 			page 6


 109:Api\core\src/vl53l0x_api_calibration.c **** 		/* no valid values found */
 110:Api\core\src/vl53l0x_api_calibration.c **** 		if (total_count == 0)
 169              		.loc 1 110 0 is_stmt 1
 170 0092 002E     		cmp	r6, #0
 171 0094 01D1     		bne	.L6
 111:Api\core\src/vl53l0x_api_calibration.c **** 			Status = VL53L0X_ERROR_RANGE_ERROR;
 172              		.loc 1 111 0
 173 0096 0624     		movs	r4, #6
 174              	.LVL22:
 175 0098 6442     		rsbs	r4, r4, #0
 176              	.LVL23:
 177              	.L6:
 112:Api\core\src/vl53l0x_api_calibration.c **** 
 113:Api\core\src/vl53l0x_api_calibration.c **** 	}
 114:Api\core\src/vl53l0x_api_calibration.c **** 
 115:Api\core\src/vl53l0x_api_calibration.c **** 
 116:Api\core\src/vl53l0x_api_calibration.c **** 	if (Status == VL53L0X_ERROR_NONE) {
 178              		.loc 1 116 0
 179 009a 002C     		cmp	r4, #0
 180 009c 42D1     		bne	.L10
 117:Api\core\src/vl53l0x_api_calibration.c **** 		/* FixPoint1616_t / uint16_t = FixPoint1616_t */
 118:Api\core\src/vl53l0x_api_calibration.c **** 		xTalkStoredMeanSignalRate = sum_signalRate / total_count;
 181              		.loc 1 118 0
 182 009e 3100     		movs	r1, r6
 183 00a0 5846     		mov	r0, fp
 184 00a2 FFF7FEFF 		bl	__aeabi_uidiv
 185              	.LVL24:
 186 00a6 0190     		str	r0, [sp, #4]
 187              	.LVL25:
 119:Api\core\src/vl53l0x_api_calibration.c **** 		xTalkStoredMeanRange = (FixPoint1616_t)((uint32_t)(
 120:Api\core\src/vl53l0x_api_calibration.c **** 			sum_ranging << 16) / total_count);
 188              		.loc 1 120 0
 189 00a8 4B46     		mov	r3, r9
 190 00aa 1804     		lsls	r0, r3, #16
 191              	.LVL26:
 119:Api\core\src/vl53l0x_api_calibration.c **** 		xTalkStoredMeanRange = (FixPoint1616_t)((uint32_t)(
 192              		.loc 1 119 0
 193 00ac 3100     		movs	r1, r6
 194 00ae FFF7FEFF 		bl	__aeabi_uidiv
 195              	.LVL27:
 196 00b2 0500     		movs	r5, r0
 197              	.LVL28:
 121:Api\core\src/vl53l0x_api_calibration.c **** 		xTalkStoredMeanRtnSpads = (FixPoint1616_t)((uint32_t)(
 122:Api\core\src/vl53l0x_api_calibration.c **** 			sum_spads << 16) / total_count);
 198              		.loc 1 122 0
 199 00b4 3804     		lsls	r0, r7, #16
 200              	.LVL29:
 121:Api\core\src/vl53l0x_api_calibration.c **** 		xTalkStoredMeanRtnSpads = (FixPoint1616_t)((uint32_t)(
 201              		.loc 1 121 0
 202 00b6 3100     		movs	r1, r6
 203 00b8 FFF7FEFF 		bl	__aeabi_uidiv
 204              	.LVL30:
 123:Api\core\src/vl53l0x_api_calibration.c **** 
 124:Api\core\src/vl53l0x_api_calibration.c **** 		/* Round Mean Spads to Whole Number.
 125:Api\core\src/vl53l0x_api_calibration.c **** 		 * Typically the calculated mean SPAD count is a whole number
 126:Api\core\src/vl53l0x_api_calibration.c **** 		 * or very close to a whole
 127:Api\core\src/vl53l0x_api_calibration.c **** 		 * number, therefore any truncation will not result in a
ARM GAS  C:\Users\Rajesh\AppData\Local\Temp\ccFou9eL.s 			page 7


 128:Api\core\src/vl53l0x_api_calibration.c **** 		 * significant loss in accuracy.
 129:Api\core\src/vl53l0x_api_calibration.c **** 		 * Also, for a grey target at a typical distance of around
 130:Api\core\src/vl53l0x_api_calibration.c **** 		 * 400mm, around 220 SPADs will
 131:Api\core\src/vl53l0x_api_calibration.c **** 		 * be enabled, therefore, any truncation will result in a loss
 132:Api\core\src/vl53l0x_api_calibration.c **** 		 * of accuracy of less than
 133:Api\core\src/vl53l0x_api_calibration.c **** 		 * 0.5%.
 134:Api\core\src/vl53l0x_api_calibration.c **** 		 */
 135:Api\core\src/vl53l0x_api_calibration.c **** 		xTalkStoredMeanRtnSpadsAsInt = (xTalkStoredMeanRtnSpads +
 205              		.loc 1 135 0
 206 00bc 8023     		movs	r3, #128
 207 00be 1B02     		lsls	r3, r3, #8
 208 00c0 C118     		adds	r1, r0, r3
 209 00c2 090C     		lsrs	r1, r1, #16
 210              	.LVL31:
 136:Api\core\src/vl53l0x_api_calibration.c **** 			0x8000) >> 16;
 137:Api\core\src/vl53l0x_api_calibration.c **** 
 138:Api\core\src/vl53l0x_api_calibration.c **** 		/* Round Cal Distance to Whole Number.
 139:Api\core\src/vl53l0x_api_calibration.c **** 		 * Note that the cal distance is in mm, therefore no resolution
 140:Api\core\src/vl53l0x_api_calibration.c **** 		 * is lost.*/
 141:Api\core\src/vl53l0x_api_calibration.c **** 		 xTalkCalDistanceAsInt = (XTalkCalDistance + 0x8000) >> 16;
 211              		.loc 1 141 0
 212 00c4 4344     		add	r3, r3, r8
 213 00c6 1E0C     		lsrs	r6, r3, #16
 214              	.LVL32:
 142:Api\core\src/vl53l0x_api_calibration.c **** 
 143:Api\core\src/vl53l0x_api_calibration.c **** 		if (xTalkStoredMeanRtnSpadsAsInt == 0 ||
 215              		.loc 1 143 0
 216 00c8 0029     		cmp	r1, #0
 217 00ca 16D0     		beq	.L16
 218              		.loc 1 143 0 is_stmt 0 discriminator 1
 219 00cc 002E     		cmp	r6, #0
 220 00ce 16D0     		beq	.L17
 144:Api\core\src/vl53l0x_api_calibration.c **** 		   xTalkCalDistanceAsInt == 0 ||
 221              		.loc 1 144 0 is_stmt 1
 222 00d0 A845     		cmp	r8, r5
 223 00d2 16D9     		bls	.L18
 145:Api\core\src/vl53l0x_api_calibration.c **** 		   xTalkStoredMeanRange >= XTalkCalDistance) {
 146:Api\core\src/vl53l0x_api_calibration.c **** 			XTalkCompensationRateMegaCps = 0;
 147:Api\core\src/vl53l0x_api_calibration.c **** 		} else {
 148:Api\core\src/vl53l0x_api_calibration.c **** 			/* Round Cal Distance to Whole Number.
 149:Api\core\src/vl53l0x_api_calibration.c **** 			   Note that the cal distance is in mm, therefore no
 150:Api\core\src/vl53l0x_api_calibration.c **** 			   resolution is lost.*/
 151:Api\core\src/vl53l0x_api_calibration.c **** 			xTalkCalDistanceAsInt = (XTalkCalDistance +
 152:Api\core\src/vl53l0x_api_calibration.c **** 				0x8000) >> 16;
 153:Api\core\src/vl53l0x_api_calibration.c **** 
 154:Api\core\src/vl53l0x_api_calibration.c **** 			/* Apply division by mean spad count early in the
 155:Api\core\src/vl53l0x_api_calibration.c **** 			 * calculation to keep the numbers small.
 156:Api\core\src/vl53l0x_api_calibration.c **** 			 * This ensures we can maintain a 32bit calculation.
 157:Api\core\src/vl53l0x_api_calibration.c **** 			 * Fixed1616 / int := Fixed1616 */
 158:Api\core\src/vl53l0x_api_calibration.c **** 			signalXTalkTotalPerSpad = (xTalkStoredMeanSignalRate) /
 224              		.loc 1 158 0
 225 00d4 0198     		ldr	r0, [sp, #4]
 226              	.LVL33:
 227 00d6 FFF7FEFF 		bl	__aeabi_uidiv
 228              	.LVL34:
 229 00da 8046     		mov	r8, r0
 230              	.LVL35:
ARM GAS  C:\Users\Rajesh\AppData\Local\Temp\ccFou9eL.s 			page 8


 159:Api\core\src/vl53l0x_api_calibration.c **** 				xTalkStoredMeanRtnSpadsAsInt;
 160:Api\core\src/vl53l0x_api_calibration.c **** 
 161:Api\core\src/vl53l0x_api_calibration.c **** 			/* Complete the calculation for total Signal XTalk per
 162:Api\core\src/vl53l0x_api_calibration.c **** 			 * SPAD
 163:Api\core\src/vl53l0x_api_calibration.c **** 			 * Fixed1616 * (Fixed1616 - Fixed1616/int) :=
 164:Api\core\src/vl53l0x_api_calibration.c **** 			 * (2^16 * Fixed1616)
 165:Api\core\src/vl53l0x_api_calibration.c **** 			 */
 166:Api\core\src/vl53l0x_api_calibration.c **** 			signalXTalkTotalPerSpad *= ((1 << 16) -
 167:Api\core\src/vl53l0x_api_calibration.c **** 				(xTalkStoredMeanRange / xTalkCalDistanceAsInt));
 231              		.loc 1 167 0
 232 00dc 3100     		movs	r1, r6
 233 00de 2800     		movs	r0, r5
 234              	.LVL36:
 235 00e0 FFF7FEFF 		bl	__aeabi_uidiv
 236              	.LVL37:
 166:Api\core\src/vl53l0x_api_calibration.c **** 				(xTalkStoredMeanRange / xTalkCalDistanceAsInt));
 237              		.loc 1 166 0
 238 00e4 8023     		movs	r3, #128
 239 00e6 5B02     		lsls	r3, r3, #9
 240 00e8 181A     		subs	r0, r3, r0
 241 00ea 4546     		mov	r5, r8
 242              	.LVL38:
 243 00ec 4543     		muls	r5, r0
 244              	.LVL39:
 168:Api\core\src/vl53l0x_api_calibration.c **** 
 169:Api\core\src/vl53l0x_api_calibration.c **** 			/* Round from 2^16 * Fixed1616, to Fixed1616. */
 170:Api\core\src/vl53l0x_api_calibration.c **** 			XTalkCompensationRateMegaCps = (signalXTalkTotalPerSpad
 171:Api\core\src/vl53l0x_api_calibration.c **** 				+ 0x8000) >> 16;
 245              		.loc 1 171 0
 246 00ee 8023     		movs	r3, #128
 247 00f0 1B02     		lsls	r3, r3, #8
 248 00f2 9C46     		mov	ip, r3
 249 00f4 6544     		add	r5, r5, ip
 250              	.LVL40:
 170:Api\core\src/vl53l0x_api_calibration.c **** 				+ 0x8000) >> 16;
 251              		.loc 1 170 0
 252 00f6 2D0C     		lsrs	r5, r5, #16
 253              	.LVL41:
 254 00f8 04E0     		b	.L11
 255              	.LVL42:
 256              	.L16:
 146:Api\core\src/vl53l0x_api_calibration.c **** 		} else {
 257              		.loc 1 146 0
 258 00fa 0025     		movs	r5, #0
 259              	.LVL43:
 260 00fc 02E0     		b	.L11
 261              	.LVL44:
 262              	.L17:
 263 00fe 0025     		movs	r5, #0
 264              	.LVL45:
 265 0100 00E0     		b	.L11
 266              	.LVL46:
 267              	.L18:
 268 0102 0025     		movs	r5, #0
 269              	.LVL47:
 270              	.L11:
 172:Api\core\src/vl53l0x_api_calibration.c **** 		}
ARM GAS  C:\Users\Rajesh\AppData\Local\Temp\ccFou9eL.s 			page 9


 173:Api\core\src/vl53l0x_api_calibration.c **** 
 174:Api\core\src/vl53l0x_api_calibration.c **** 		*pXTalkCompensationRateMegaCps = XTalkCompensationRateMegaCps;
 271              		.loc 1 174 0
 272 0104 5346     		mov	r3, r10
 273 0106 1D60     		str	r5, [r3]
 175:Api\core\src/vl53l0x_api_calibration.c **** 
 176:Api\core\src/vl53l0x_api_calibration.c **** 		/* Enable the XTalk compensation */
 177:Api\core\src/vl53l0x_api_calibration.c **** 		if (Status == VL53L0X_ERROR_NONE)
 274              		.loc 1 177 0
 275 0108 002C     		cmp	r4, #0
 276 010a 04D1     		bne	.L12
 277              	.LVL48:
 178:Api\core\src/vl53l0x_api_calibration.c **** 			Status = VL53L0X_SetXTalkCompensationEnable(Dev, 1);
 278              		.loc 1 178 0
 279 010c 0121     		movs	r1, #1
 280 010e 0098     		ldr	r0, [sp]
 281 0110 FFF7FEFF 		bl	VL53L0X_SetXTalkCompensationEnable
 282              	.LVL49:
 283 0114 0400     		movs	r4, r0
 284              	.LVL50:
 285              	.L12:
 179:Api\core\src/vl53l0x_api_calibration.c **** 
 180:Api\core\src/vl53l0x_api_calibration.c **** 		/* Enable the XTalk compensation */
 181:Api\core\src/vl53l0x_api_calibration.c **** 		if (Status == VL53L0X_ERROR_NONE)
 286              		.loc 1 181 0
 287 0116 002C     		cmp	r4, #0
 288 0118 04D1     		bne	.L10
 182:Api\core\src/vl53l0x_api_calibration.c **** 			Status = VL53L0X_SetXTalkCompensationRateMegaCps(Dev,
 289              		.loc 1 182 0
 290 011a 2900     		movs	r1, r5
 291 011c 0098     		ldr	r0, [sp]
 292 011e FFF7FEFF 		bl	VL53L0X_SetXTalkCompensationRateMegaCps
 293              	.LVL51:
 294 0122 0400     		movs	r4, r0
 295              	.LVL52:
 296              	.L10:
 183:Api\core\src/vl53l0x_api_calibration.c **** 					XTalkCompensationRateMegaCps);
 184:Api\core\src/vl53l0x_api_calibration.c **** 
 185:Api\core\src/vl53l0x_api_calibration.c **** 	}
 186:Api\core\src/vl53l0x_api_calibration.c **** 
 187:Api\core\src/vl53l0x_api_calibration.c **** 	return Status;
 188:Api\core\src/vl53l0x_api_calibration.c **** }
 297              		.loc 1 188 0
 298 0124 2000     		movs	r0, r4
 299 0126 0BB0     		add	sp, sp, #44
 300              	.LVL53:
 301              		@ sp needed
 302              	.LVL54:
 303              	.LVL55:
 304              	.LVL56:
 305              	.LVL57:
 306              	.LVL58:
 307 0128 3CBC     		pop	{r2, r3, r4, r5}
 308 012a 9046     		mov	r8, r2
 309 012c 9946     		mov	r9, r3
 310 012e A246     		mov	r10, r4
 311 0130 AB46     		mov	fp, r5
ARM GAS  C:\Users\Rajesh\AppData\Local\Temp\ccFou9eL.s 			page 10


 312 0132 F0BD     		pop	{r4, r5, r6, r7, pc}
 313              		.cfi_endproc
 314              	.LFE1:
 315              		.size	VL53L0X_perform_xtalk_calibration, .-VL53L0X_perform_xtalk_calibration
 316              		.section	.text.VL53L0X_perform_offset_calibration,"ax",%progbits
 317              		.align	2
 318              		.global	VL53L0X_perform_offset_calibration
 319              		.code	16
 320              		.thumb_func
 321              		.type	VL53L0X_perform_offset_calibration, %function
 322              	VL53L0X_perform_offset_calibration:
 323              	.LFB2:
 189:Api\core\src/vl53l0x_api_calibration.c **** 
 190:Api\core\src/vl53l0x_api_calibration.c **** VL53L0X_Error VL53L0X_perform_offset_calibration(VL53L0X_DEV Dev,
 191:Api\core\src/vl53l0x_api_calibration.c **** 			FixPoint1616_t CalDistanceMilliMeter,
 192:Api\core\src/vl53l0x_api_calibration.c **** 			int32_t *pOffsetMicroMeter)
 193:Api\core\src/vl53l0x_api_calibration.c **** {
 324              		.loc 1 193 0
 325              		.cfi_startproc
 326              		@ args = 0, pretend = 0, frame = 40
 327              		@ frame_needed = 0, uses_anonymous_args = 0
 328              	.LVL59:
 329 0000 F0B5     		push	{r4, r5, r6, r7, lr}
 330              		.cfi_def_cfa_offset 20
 331              		.cfi_offset 4, -20
 332              		.cfi_offset 5, -16
 333              		.cfi_offset 6, -12
 334              		.cfi_offset 7, -8
 335              		.cfi_offset 14, -4
 336 0002 4F46     		mov	r7, r9
 337 0004 4646     		mov	r6, r8
 338 0006 C0B4     		push	{r6, r7}
 339              		.cfi_def_cfa_offset 28
 340              		.cfi_offset 8, -28
 341              		.cfi_offset 9, -24
 342 0008 8BB0     		sub	sp, sp, #44
 343              		.cfi_def_cfa_offset 72
 344 000a 0190     		str	r0, [sp, #4]
 345 000c 8846     		mov	r8, r1
 346 000e 9146     		mov	r9, r2
 347              	.LVL60:
 194:Api\core\src/vl53l0x_api_calibration.c **** 	VL53L0X_Error Status = VL53L0X_ERROR_NONE;
 195:Api\core\src/vl53l0x_api_calibration.c **** 	uint16_t sum_ranging = 0;
 196:Api\core\src/vl53l0x_api_calibration.c **** 	FixPoint1616_t total_count = 0;
 197:Api\core\src/vl53l0x_api_calibration.c **** 	VL53L0X_RangingMeasurementData_t RangingMeasurementData;
 198:Api\core\src/vl53l0x_api_calibration.c **** 	FixPoint1616_t StoredMeanRange;
 199:Api\core\src/vl53l0x_api_calibration.c **** 	uint32_t StoredMeanRangeAsInt;
 200:Api\core\src/vl53l0x_api_calibration.c **** 	uint32_t CalDistanceAsInt_mm;
 201:Api\core\src/vl53l0x_api_calibration.c **** 	uint8_t SequenceStepEnabled;
 202:Api\core\src/vl53l0x_api_calibration.c **** 	int meas = 0;
 203:Api\core\src/vl53l0x_api_calibration.c **** 
 204:Api\core\src/vl53l0x_api_calibration.c **** 	if (CalDistanceMilliMeter <= 0)
 348              		.loc 1 204 0
 349 0010 0029     		cmp	r1, #0
 350 0012 01D0     		beq	.L32
 194:Api\core\src/vl53l0x_api_calibration.c **** 	VL53L0X_Error Status = VL53L0X_ERROR_NONE;
 351              		.loc 1 194 0
ARM GAS  C:\Users\Rajesh\AppData\Local\Temp\ccFou9eL.s 			page 11


 352 0014 0024     		movs	r4, #0
 353 0016 01E0     		b	.L20
 354              	.L32:
 205:Api\core\src/vl53l0x_api_calibration.c **** 		Status = VL53L0X_ERROR_INVALID_PARAMS;
 355              		.loc 1 205 0
 356 0018 0424     		movs	r4, #4
 357 001a 6442     		rsbs	r4, r4, #0
 358              	.L20:
 359              	.LVL61:
 206:Api\core\src/vl53l0x_api_calibration.c **** 
 207:Api\core\src/vl53l0x_api_calibration.c **** 	if (Status == VL53L0X_ERROR_NONE)
 360              		.loc 1 207 0
 361 001c 002C     		cmp	r4, #0
 362 001e 04D1     		bne	.L21
 208:Api\core\src/vl53l0x_api_calibration.c **** 		Status = VL53L0X_SetOffsetCalibrationDataMicroMeter(Dev, 0);
 363              		.loc 1 208 0
 364 0020 0021     		movs	r1, #0
 365              	.LVL62:
 366 0022 0198     		ldr	r0, [sp, #4]
 367              	.LVL63:
 368 0024 FFF7FEFF 		bl	VL53L0X_SetOffsetCalibrationDataMicroMeter
 369              	.LVL64:
 370 0028 0400     		movs	r4, r0
 371              	.LVL65:
 372              	.L21:
 209:Api\core\src/vl53l0x_api_calibration.c **** 
 210:Api\core\src/vl53l0x_api_calibration.c **** 
 211:Api\core\src/vl53l0x_api_calibration.c **** 	/* Get the value of the TCC */
 212:Api\core\src/vl53l0x_api_calibration.c **** 	if (Status == VL53L0X_ERROR_NONE)
 373              		.loc 1 212 0
 374 002a 002C     		cmp	r4, #0
 375 002c 06D1     		bne	.L22
 213:Api\core\src/vl53l0x_api_calibration.c **** 		Status = VL53L0X_GetSequenceStepEnable(Dev,
 376              		.loc 1 213 0
 377 002e 02AB     		add	r3, sp, #8
 378 0030 DA1C     		adds	r2, r3, #3
 379 0032 0021     		movs	r1, #0
 380 0034 0198     		ldr	r0, [sp, #4]
 381 0036 FFF7FEFF 		bl	VL53L0X_GetSequenceStepEnable
 382              	.LVL66:
 383 003a 0400     		movs	r4, r0
 384              	.LVL67:
 385              	.L22:
 214:Api\core\src/vl53l0x_api_calibration.c **** 				VL53L0X_SEQUENCESTEP_TCC, &SequenceStepEnabled);
 215:Api\core\src/vl53l0x_api_calibration.c **** 
 216:Api\core\src/vl53l0x_api_calibration.c **** 
 217:Api\core\src/vl53l0x_api_calibration.c **** 	/* Disable the TCC */
 218:Api\core\src/vl53l0x_api_calibration.c **** 	if (Status == VL53L0X_ERROR_NONE)
 386              		.loc 1 218 0
 387 003c 002C     		cmp	r4, #0
 388 003e 05D1     		bne	.L23
 219:Api\core\src/vl53l0x_api_calibration.c **** 		Status = VL53L0X_SetSequenceStepEnable(Dev,
 389              		.loc 1 219 0
 390 0040 0022     		movs	r2, #0
 391 0042 0021     		movs	r1, #0
 392 0044 0198     		ldr	r0, [sp, #4]
 393 0046 FFF7FEFF 		bl	VL53L0X_SetSequenceStepEnable
ARM GAS  C:\Users\Rajesh\AppData\Local\Temp\ccFou9eL.s 			page 12


 394              	.LVL68:
 395 004a 0400     		movs	r4, r0
 396              	.LVL69:
 397              	.L23:
 220:Api\core\src/vl53l0x_api_calibration.c **** 				VL53L0X_SEQUENCESTEP_TCC, 0);
 221:Api\core\src/vl53l0x_api_calibration.c **** 
 222:Api\core\src/vl53l0x_api_calibration.c **** 
 223:Api\core\src/vl53l0x_api_calibration.c **** 	/* Disable the RIT */
 224:Api\core\src/vl53l0x_api_calibration.c **** 	if (Status == VL53L0X_ERROR_NONE)
 398              		.loc 1 224 0
 399 004c 002C     		cmp	r4, #0
 400 004e 05D1     		bne	.L24
 225:Api\core\src/vl53l0x_api_calibration.c **** 		Status = VL53L0X_SetLimitCheckEnable(Dev,
 401              		.loc 1 225 0
 402 0050 0022     		movs	r2, #0
 403 0052 0321     		movs	r1, #3
 404 0054 0198     		ldr	r0, [sp, #4]
 405 0056 FFF7FEFF 		bl	VL53L0X_SetLimitCheckEnable
 406              	.LVL70:
 407 005a 0400     		movs	r4, r0
 408              	.LVL71:
 409              	.L24:
 226:Api\core\src/vl53l0x_api_calibration.c **** 				VL53L0X_CHECKENABLE_RANGE_IGNORE_THRESHOLD, 0);
 227:Api\core\src/vl53l0x_api_calibration.c **** 
 228:Api\core\src/vl53l0x_api_calibration.c **** 	/* Perform 50 measurements and compute the averages */
 229:Api\core\src/vl53l0x_api_calibration.c **** 	if (Status == VL53L0X_ERROR_NONE) {
 410              		.loc 1 229 0
 411 005c 002C     		cmp	r4, #0
 412 005e 13D0     		beq	.L33
 196:Api\core\src/vl53l0x_api_calibration.c **** 	VL53L0X_RangingMeasurementData_t RangingMeasurementData;
 413              		.loc 1 196 0
 414 0060 0027     		movs	r7, #0
 195:Api\core\src/vl53l0x_api_calibration.c **** 	FixPoint1616_t total_count = 0;
 415              		.loc 1 195 0
 416 0062 0026     		movs	r6, #0
 417 0064 19E0     		b	.L26
 418              	.LVL72:
 419              	.L29:
 230:Api\core\src/vl53l0x_api_calibration.c **** 		sum_ranging = 0;
 231:Api\core\src/vl53l0x_api_calibration.c **** 		total_count = 0;
 232:Api\core\src/vl53l0x_api_calibration.c **** 		for (meas = 0; meas < 50; meas++) {
 233:Api\core\src/vl53l0x_api_calibration.c **** 			Status = VL53L0X_PerformSingleRangingMeasurement(Dev,
 420              		.loc 1 233 0
 421 0066 03A9     		add	r1, sp, #12
 422 0068 0198     		ldr	r0, [sp, #4]
 423 006a FFF7FEFF 		bl	VL53L0X_PerformSingleRangingMeasurement
 424              	.LVL73:
 425 006e 041E     		subs	r4, r0, #0
 426              	.LVL74:
 234:Api\core\src/vl53l0x_api_calibration.c **** 					&RangingMeasurementData);
 235:Api\core\src/vl53l0x_api_calibration.c **** 
 236:Api\core\src/vl53l0x_api_calibration.c **** 			if (Status != VL53L0X_ERROR_NONE)
 427              		.loc 1 236 0
 428 0070 0FD1     		bne	.L27
 237:Api\core\src/vl53l0x_api_calibration.c **** 				break;
 238:Api\core\src/vl53l0x_api_calibration.c **** 
 239:Api\core\src/vl53l0x_api_calibration.c **** 			/* The range is valid when RangeStatus = 0 */
ARM GAS  C:\Users\Rajesh\AppData\Local\Temp\ccFou9eL.s 			page 13


 240:Api\core\src/vl53l0x_api_calibration.c **** 			if (RangingMeasurementData.RangeStatus == 0) {
 429              		.loc 1 240 0
 430 0072 03AB     		add	r3, sp, #12
 431 0074 1B7E     		ldrb	r3, [r3, #24]
 432 0076 002B     		cmp	r3, #0
 433 0078 04D1     		bne	.L28
 241:Api\core\src/vl53l0x_api_calibration.c **** 				sum_ranging = sum_ranging +
 242:Api\core\src/vl53l0x_api_calibration.c **** 					RangingMeasurementData.RangeMilliMeter;
 434              		.loc 1 242 0
 435 007a 03AB     		add	r3, sp, #12
 436 007c 1889     		ldrh	r0, [r3, #8]
 437              	.LVL75:
 241:Api\core\src/vl53l0x_api_calibration.c **** 				sum_ranging = sum_ranging +
 438              		.loc 1 241 0
 439 007e 3018     		adds	r0, r6, r0
 440 0080 86B2     		uxth	r6, r0
 441              	.LVL76:
 243:Api\core\src/vl53l0x_api_calibration.c **** 				total_count = total_count + 1;
 442              		.loc 1 243 0
 443 0082 0137     		adds	r7, r7, #1
 444              	.LVL77:
 445              	.L28:
 232:Api\core\src/vl53l0x_api_calibration.c **** 			Status = VL53L0X_PerformSingleRangingMeasurement(Dev,
 446              		.loc 1 232 0 discriminator 2
 447 0084 0135     		adds	r5, r5, #1
 448              	.LVL78:
 449 0086 02E0     		b	.L25
 450              	.LVL79:
 451              	.L33:
 452 0088 0025     		movs	r5, #0
 453 008a 0027     		movs	r7, #0
 454 008c 0026     		movs	r6, #0
 455              	.LVL80:
 456              	.L25:
 232:Api\core\src/vl53l0x_api_calibration.c **** 			Status = VL53L0X_PerformSingleRangingMeasurement(Dev,
 457              		.loc 1 232 0 is_stmt 0 discriminator 1
 458 008e 312D     		cmp	r5, #49
 459 0090 E9DD     		ble	.L29
 460              	.LVL81:
 461              	.L27:
 244:Api\core\src/vl53l0x_api_calibration.c **** 			}
 245:Api\core\src/vl53l0x_api_calibration.c **** 		}
 246:Api\core\src/vl53l0x_api_calibration.c **** 
 247:Api\core\src/vl53l0x_api_calibration.c **** 		/* no valid values found */
 248:Api\core\src/vl53l0x_api_calibration.c **** 		if (total_count == 0)
 462              		.loc 1 248 0 is_stmt 1
 463 0092 002F     		cmp	r7, #0
 464 0094 01D1     		bne	.L26
 249:Api\core\src/vl53l0x_api_calibration.c **** 			Status = VL53L0X_ERROR_RANGE_ERROR;
 465              		.loc 1 249 0
 466 0096 0624     		movs	r4, #6
 467              	.LVL82:
 468 0098 6442     		rsbs	r4, r4, #0
 469              	.LVL83:
 470              	.L26:
 250:Api\core\src/vl53l0x_api_calibration.c **** 	}
 251:Api\core\src/vl53l0x_api_calibration.c **** 
ARM GAS  C:\Users\Rajesh\AppData\Local\Temp\ccFou9eL.s 			page 14


 252:Api\core\src/vl53l0x_api_calibration.c **** 
 253:Api\core\src/vl53l0x_api_calibration.c **** 	if (Status == VL53L0X_ERROR_NONE) {
 471              		.loc 1 253 0
 472 009a 002C     		cmp	r4, #0
 473 009c 1AD1     		bne	.L30
 254:Api\core\src/vl53l0x_api_calibration.c **** 		/* FixPoint1616_t / uint16_t = FixPoint1616_t */
 255:Api\core\src/vl53l0x_api_calibration.c **** 		StoredMeanRange = (FixPoint1616_t)((uint32_t)(sum_ranging << 16)
 474              		.loc 1 255 0
 475 009e 3004     		lsls	r0, r6, #16
 476 00a0 3900     		movs	r1, r7
 477 00a2 FFF7FEFF 		bl	__aeabi_uidiv
 478              	.LVL84:
 256:Api\core\src/vl53l0x_api_calibration.c **** 			/ total_count);
 257:Api\core\src/vl53l0x_api_calibration.c **** 
 258:Api\core\src/vl53l0x_api_calibration.c **** 		StoredMeanRangeAsInt = (StoredMeanRange + 0x8000) >> 16;
 479              		.loc 1 258 0
 480 00a6 8023     		movs	r3, #128
 481 00a8 1B02     		lsls	r3, r3, #8
 482 00aa 9C46     		mov	ip, r3
 483 00ac 6044     		add	r0, r0, ip
 484              	.LVL85:
 485 00ae 000C     		lsrs	r0, r0, #16
 486              	.LVL86:
 259:Api\core\src/vl53l0x_api_calibration.c **** 
 260:Api\core\src/vl53l0x_api_calibration.c **** 		/* Round Cal Distance to Whole Number.
 261:Api\core\src/vl53l0x_api_calibration.c **** 		 * Note that the cal distance is in mm, therefore no resolution
 262:Api\core\src/vl53l0x_api_calibration.c **** 		 * is lost.*/
 263:Api\core\src/vl53l0x_api_calibration.c **** 		 CalDistanceAsInt_mm = (CalDistanceMilliMeter + 0x8000) >> 16;
 487              		.loc 1 263 0
 488 00b0 4344     		add	r3, r3, r8
 489 00b2 1B0C     		lsrs	r3, r3, #16
 490              	.LVL87:
 264:Api\core\src/vl53l0x_api_calibration.c **** 
 265:Api\core\src/vl53l0x_api_calibration.c **** 		 *pOffsetMicroMeter = (CalDistanceAsInt_mm -
 491              		.loc 1 265 0
 492 00b4 1B1A     		subs	r3, r3, r0
 493              	.LVL88:
 266:Api\core\src/vl53l0x_api_calibration.c **** 				 StoredMeanRangeAsInt) * 1000;
 494              		.loc 1 266 0
 495 00b6 FA22     		movs	r2, #250
 496 00b8 9200     		lsls	r2, r2, #2
 497 00ba 5343     		muls	r3, r2
 265:Api\core\src/vl53l0x_api_calibration.c **** 				 StoredMeanRangeAsInt) * 1000;
 498              		.loc 1 265 0
 499 00bc 4A46     		mov	r2, r9
 500 00be 1360     		str	r3, [r2]
 267:Api\core\src/vl53l0x_api_calibration.c **** 
 268:Api\core\src/vl53l0x_api_calibration.c **** 		/* Apply the calculated offset */
 269:Api\core\src/vl53l0x_api_calibration.c **** 		if (Status == VL53L0X_ERROR_NONE) {
 501              		.loc 1 269 0
 502 00c0 002C     		cmp	r4, #0
 503 00c2 07D1     		bne	.L30
 504              	.LVL89:
 270:Api\core\src/vl53l0x_api_calibration.c **** 			VL53L0X_SETPARAMETERFIELD(Dev, RangeOffsetMicroMeters,
 505              		.loc 1 270 0
 506 00c4 019A     		ldr	r2, [sp, #4]
 507              	.LVL90:
ARM GAS  C:\Users\Rajesh\AppData\Local\Temp\ccFou9eL.s 			page 15


 508 00c6 5362     		str	r3, [r2, #36]
 271:Api\core\src/vl53l0x_api_calibration.c **** 					*pOffsetMicroMeter);
 272:Api\core\src/vl53l0x_api_calibration.c **** 			Status = VL53L0X_SetOffsetCalibrationDataMicroMeter(Dev,
 509              		.loc 1 272 0
 510 00c8 4B46     		mov	r3, r9
 511 00ca 1968     		ldr	r1, [r3]
 512 00cc 1000     		movs	r0, r2
 513              	.LVL91:
 514 00ce FFF7FEFF 		bl	VL53L0X_SetOffsetCalibrationDataMicroMeter
 515              	.LVL92:
 516 00d2 0400     		movs	r4, r0
 517              	.LVL93:
 518              	.L30:
 273:Api\core\src/vl53l0x_api_calibration.c **** 					*pOffsetMicroMeter);
 274:Api\core\src/vl53l0x_api_calibration.c **** 		}
 275:Api\core\src/vl53l0x_api_calibration.c **** 
 276:Api\core\src/vl53l0x_api_calibration.c **** 	}
 277:Api\core\src/vl53l0x_api_calibration.c **** 
 278:Api\core\src/vl53l0x_api_calibration.c **** 	/* Restore the TCC */
 279:Api\core\src/vl53l0x_api_calibration.c **** 	if (Status == VL53L0X_ERROR_NONE) {
 519              		.loc 1 279 0
 520 00d4 002C     		cmp	r4, #0
 521 00d6 0AD1     		bne	.L31
 280:Api\core\src/vl53l0x_api_calibration.c **** 		if (SequenceStepEnabled != 0)
 522              		.loc 1 280 0
 523 00d8 02AB     		add	r3, sp, #8
 524 00da 0333     		adds	r3, r3, #3
 525 00dc 1B78     		ldrb	r3, [r3]
 526 00de 002B     		cmp	r3, #0
 527 00e0 05D0     		beq	.L31
 281:Api\core\src/vl53l0x_api_calibration.c **** 			Status = VL53L0X_SetSequenceStepEnable(Dev,
 528              		.loc 1 281 0
 529 00e2 0122     		movs	r2, #1
 530 00e4 0021     		movs	r1, #0
 531 00e6 0198     		ldr	r0, [sp, #4]
 532 00e8 FFF7FEFF 		bl	VL53L0X_SetSequenceStepEnable
 533              	.LVL94:
 534 00ec 0400     		movs	r4, r0
 535              	.LVL95:
 536              	.L31:
 282:Api\core\src/vl53l0x_api_calibration.c **** 					VL53L0X_SEQUENCESTEP_TCC, 1);
 283:Api\core\src/vl53l0x_api_calibration.c **** 	}
 284:Api\core\src/vl53l0x_api_calibration.c **** 
 285:Api\core\src/vl53l0x_api_calibration.c **** 	return Status;
 286:Api\core\src/vl53l0x_api_calibration.c **** }
 537              		.loc 1 286 0
 538 00ee 2000     		movs	r0, r4
 539 00f0 0BB0     		add	sp, sp, #44
 540              		@ sp needed
 541              	.LVL96:
 542              	.LVL97:
 543              	.LVL98:
 544              	.LVL99:
 545              	.LVL100:
 546 00f2 0CBC     		pop	{r2, r3}
 547 00f4 9046     		mov	r8, r2
 548 00f6 9946     		mov	r9, r3
ARM GAS  C:\Users\Rajesh\AppData\Local\Temp\ccFou9eL.s 			page 16


 549 00f8 F0BD     		pop	{r4, r5, r6, r7, pc}
 550              		.cfi_endproc
 551              	.LFE2:
 552              		.size	VL53L0X_perform_offset_calibration, .-VL53L0X_perform_offset_calibration
 553              		.global	__aeabi_idiv
 554 00fa C046     		.section	.text.VL53L0X_set_offset_calibration_data_micro_meter,"ax",%progbits
 555              		.align	2
 556              		.global	VL53L0X_set_offset_calibration_data_micro_meter
 557              		.code	16
 558              		.thumb_func
 559              		.type	VL53L0X_set_offset_calibration_data_micro_meter, %function
 560              	VL53L0X_set_offset_calibration_data_micro_meter:
 561              	.LFB3:
 287:Api\core\src/vl53l0x_api_calibration.c **** 
 288:Api\core\src/vl53l0x_api_calibration.c **** 
 289:Api\core\src/vl53l0x_api_calibration.c **** VL53L0X_Error VL53L0X_set_offset_calibration_data_micro_meter(VL53L0X_DEV Dev,
 290:Api\core\src/vl53l0x_api_calibration.c **** 		int32_t OffsetCalibrationDataMicroMeter)
 291:Api\core\src/vl53l0x_api_calibration.c **** {
 562              		.loc 1 291 0
 563              		.cfi_startproc
 564              		@ args = 0, pretend = 0, frame = 0
 565              		@ frame_needed = 0, uses_anonymous_args = 0
 566              	.LVL101:
 567 0000 10B5     		push	{r4, lr}
 568              		.cfi_def_cfa_offset 8
 569              		.cfi_offset 4, -8
 570              		.cfi_offset 14, -4
 571 0002 0400     		movs	r4, r0
 572 0004 0800     		movs	r0, r1
 573              	.LVL102:
 292:Api\core\src/vl53l0x_api_calibration.c **** 	VL53L0X_Error Status = VL53L0X_ERROR_NONE;
 293:Api\core\src/vl53l0x_api_calibration.c **** 	int32_t cMaxOffsetMicroMeter = 511000;
 294:Api\core\src/vl53l0x_api_calibration.c **** 	int32_t cMinOffsetMicroMeter = -512000;
 295:Api\core\src/vl53l0x_api_calibration.c **** 	int16_t cOffsetRange = 4096;
 296:Api\core\src/vl53l0x_api_calibration.c **** 	uint32_t encodedOffsetVal;
 297:Api\core\src/vl53l0x_api_calibration.c **** 
 298:Api\core\src/vl53l0x_api_calibration.c **** 	LOG_FUNCTION_START("");
 299:Api\core\src/vl53l0x_api_calibration.c **** 
 300:Api\core\src/vl53l0x_api_calibration.c **** 	if (OffsetCalibrationDataMicroMeter > cMaxOffsetMicroMeter)
 574              		.loc 1 300 0
 575 0006 0E4B     		ldr	r3, .L41
 576 0008 9942     		cmp	r1, r3
 577 000a 03DC     		bgt	.L39
 301:Api\core\src/vl53l0x_api_calibration.c **** 		OffsetCalibrationDataMicroMeter = cMaxOffsetMicroMeter;
 302:Api\core\src/vl53l0x_api_calibration.c **** 	else if (OffsetCalibrationDataMicroMeter < cMinOffsetMicroMeter)
 578              		.loc 1 302 0
 579 000c 0D4B     		ldr	r3, .L41+4
 580 000e 9942     		cmp	r1, r3
 581 0010 02DB     		blt	.L40
 582 0012 02E0     		b	.L36
 583              	.L39:
 301:Api\core\src/vl53l0x_api_calibration.c **** 		OffsetCalibrationDataMicroMeter = cMaxOffsetMicroMeter;
 584              		.loc 1 301 0
 585 0014 0A48     		ldr	r0, .L41
 586 0016 00E0     		b	.L36
 587              	.LVL103:
 588              	.L40:
ARM GAS  C:\Users\Rajesh\AppData\Local\Temp\ccFou9eL.s 			page 17


 303:Api\core\src/vl53l0x_api_calibration.c **** 		OffsetCalibrationDataMicroMeter = cMinOffsetMicroMeter;
 589              		.loc 1 303 0
 590 0018 0A48     		ldr	r0, .L41+4
 591              	.LVL104:
 592              	.L36:
 304:Api\core\src/vl53l0x_api_calibration.c **** 
 305:Api\core\src/vl53l0x_api_calibration.c **** 	/* The offset register is 10.2 format and units are mm
 306:Api\core\src/vl53l0x_api_calibration.c **** 	 * therefore conversion is applied by a division of
 307:Api\core\src/vl53l0x_api_calibration.c **** 	 * 250.
 308:Api\core\src/vl53l0x_api_calibration.c **** 	 */
 309:Api\core\src/vl53l0x_api_calibration.c **** 	if (OffsetCalibrationDataMicroMeter >= 0) {
 593              		.loc 1 309 0
 594 001a 0028     		cmp	r0, #0
 595 001c 03DB     		blt	.L37
 310:Api\core\src/vl53l0x_api_calibration.c **** 		encodedOffsetVal =
 311:Api\core\src/vl53l0x_api_calibration.c **** 			OffsetCalibrationDataMicroMeter/250;
 596              		.loc 1 311 0
 597 001e FA21     		movs	r1, #250
 598 0020 FFF7FEFF 		bl	__aeabi_idiv
 599              	.LVL105:
 600 0024 06E0     		b	.L38
 601              	.LVL106:
 602              	.L37:
 312:Api\core\src/vl53l0x_api_calibration.c **** 	} else {
 313:Api\core\src/vl53l0x_api_calibration.c **** 		encodedOffsetVal =
 314:Api\core\src/vl53l0x_api_calibration.c **** 			cOffsetRange +
 315:Api\core\src/vl53l0x_api_calibration.c **** 			OffsetCalibrationDataMicroMeter/250;
 603              		.loc 1 315 0
 604 0026 FA21     		movs	r1, #250
 605 0028 FFF7FEFF 		bl	__aeabi_idiv
 606              	.LVL107:
 314:Api\core\src/vl53l0x_api_calibration.c **** 			OffsetCalibrationDataMicroMeter/250;
 607              		.loc 1 314 0
 608 002c 8023     		movs	r3, #128
 609 002e 5B01     		lsls	r3, r3, #5
 610 0030 9C46     		mov	ip, r3
 611 0032 6044     		add	r0, r0, ip
 612              	.LVL108:
 613              	.L38:
 316:Api\core\src/vl53l0x_api_calibration.c **** 	}
 317:Api\core\src/vl53l0x_api_calibration.c **** 
 318:Api\core\src/vl53l0x_api_calibration.c **** 	Status = VL53L0X_WrWord(Dev,
 614              		.loc 1 318 0
 615 0034 82B2     		uxth	r2, r0
 616 0036 2821     		movs	r1, #40
 617 0038 2000     		movs	r0, r4
 618              	.LVL109:
 619 003a FFF7FEFF 		bl	VL53L0X_WrWord
 620              	.LVL110:
 319:Api\core\src/vl53l0x_api_calibration.c **** 		VL53L0X_REG_ALGO_PART_TO_PART_RANGE_OFFSET_MM,
 320:Api\core\src/vl53l0x_api_calibration.c **** 		encodedOffsetVal);
 321:Api\core\src/vl53l0x_api_calibration.c **** 
 322:Api\core\src/vl53l0x_api_calibration.c **** 	LOG_FUNCTION_END(Status);
 323:Api\core\src/vl53l0x_api_calibration.c **** 	return Status;
 324:Api\core\src/vl53l0x_api_calibration.c **** }
 621              		.loc 1 324 0
 622              		@ sp needed
ARM GAS  C:\Users\Rajesh\AppData\Local\Temp\ccFou9eL.s 			page 18


 623              	.LVL111:
 624 003e 10BD     		pop	{r4, pc}
 625              	.L42:
 626              		.align	2
 627              	.L41:
 628 0040 18CC0700 		.word	511000
 629 0044 0030F8FF 		.word	-512000
 630              		.cfi_endproc
 631              	.LFE3:
 632              		.size	VL53L0X_set_offset_calibration_data_micro_meter, .-VL53L0X_set_offset_calibration_data_micro
 633              		.section	.text.VL53L0X_get_offset_calibration_data_micro_meter,"ax",%progbits
 634              		.align	2
 635              		.global	VL53L0X_get_offset_calibration_data_micro_meter
 636              		.code	16
 637              		.thumb_func
 638              		.type	VL53L0X_get_offset_calibration_data_micro_meter, %function
 639              	VL53L0X_get_offset_calibration_data_micro_meter:
 640              	.LFB4:
 325:Api\core\src/vl53l0x_api_calibration.c **** 
 326:Api\core\src/vl53l0x_api_calibration.c **** VL53L0X_Error VL53L0X_get_offset_calibration_data_micro_meter(VL53L0X_DEV Dev,
 327:Api\core\src/vl53l0x_api_calibration.c **** 		int32_t *pOffsetCalibrationDataMicroMeter)
 328:Api\core\src/vl53l0x_api_calibration.c **** {
 641              		.loc 1 328 0
 642              		.cfi_startproc
 643              		@ args = 0, pretend = 0, frame = 8
 644              		@ frame_needed = 0, uses_anonymous_args = 0
 645              	.LVL112:
 646 0000 10B5     		push	{r4, lr}
 647              		.cfi_def_cfa_offset 8
 648              		.cfi_offset 4, -8
 649              		.cfi_offset 14, -4
 650 0002 82B0     		sub	sp, sp, #8
 651              		.cfi_def_cfa_offset 16
 652 0004 0C00     		movs	r4, r1
 653              	.LVL113:
 329:Api\core\src/vl53l0x_api_calibration.c **** 	VL53L0X_Error Status = VL53L0X_ERROR_NONE;
 330:Api\core\src/vl53l0x_api_calibration.c **** 	uint16_t RangeOffsetRegister;
 331:Api\core\src/vl53l0x_api_calibration.c **** 	int16_t cMaxOffset = 2047;
 332:Api\core\src/vl53l0x_api_calibration.c **** 	int16_t cOffsetRange = 4096;
 333:Api\core\src/vl53l0x_api_calibration.c **** 
 334:Api\core\src/vl53l0x_api_calibration.c **** 	/* Note that offset has 10.2 format */
 335:Api\core\src/vl53l0x_api_calibration.c **** 
 336:Api\core\src/vl53l0x_api_calibration.c **** 	Status = VL53L0X_RdWord(Dev,
 654              		.loc 1 336 0
 655 0006 6B46     		mov	r3, sp
 656 0008 9A1D     		adds	r2, r3, #6
 657 000a 2821     		movs	r1, #40
 658              	.LVL114:
 659 000c FFF7FEFF 		bl	VL53L0X_RdWord
 660              	.LVL115:
 337:Api\core\src/vl53l0x_api_calibration.c **** 				VL53L0X_REG_ALGO_PART_TO_PART_RANGE_OFFSET_MM,
 338:Api\core\src/vl53l0x_api_calibration.c **** 				&RangeOffsetRegister);
 339:Api\core\src/vl53l0x_api_calibration.c **** 
 340:Api\core\src/vl53l0x_api_calibration.c **** 	if (Status == VL53L0X_ERROR_NONE) {
 661              		.loc 1 340 0
 662 0010 0028     		cmp	r0, #0
 663 0012 11D1     		bne	.L44
ARM GAS  C:\Users\Rajesh\AppData\Local\Temp\ccFou9eL.s 			page 19


 341:Api\core\src/vl53l0x_api_calibration.c **** 		RangeOffsetRegister = (RangeOffsetRegister & 0x0fff);
 664              		.loc 1 341 0
 665 0014 6B46     		mov	r3, sp
 666 0016 0633     		adds	r3, r3, #6
 667 0018 1B88     		ldrh	r3, [r3]
 668 001a 1B05     		lsls	r3, r3, #20
 669 001c 1B0D     		lsrs	r3, r3, #20
 670              	.LVL116:
 342:Api\core\src/vl53l0x_api_calibration.c **** 
 343:Api\core\src/vl53l0x_api_calibration.c **** 		/* Apply 12 bit 2's compliment conversion */
 344:Api\core\src/vl53l0x_api_calibration.c **** 		if (RangeOffsetRegister > cMaxOffset)
 671              		.loc 1 344 0
 672 001e 074A     		ldr	r2, .L46
 673 0020 9342     		cmp	r3, r2
 674 0022 06DD     		ble	.L45
 345:Api\core\src/vl53l0x_api_calibration.c **** 			*pOffsetCalibrationDataMicroMeter =
 346:Api\core\src/vl53l0x_api_calibration.c **** 				(int16_t)(RangeOffsetRegister - cOffsetRange)
 675              		.loc 1 346 0
 676 0024 064A     		ldr	r2, .L46+4
 677 0026 9446     		mov	ip, r2
 678 0028 6344     		add	r3, r3, ip
 679              	.LVL117:
 347:Api\core\src/vl53l0x_api_calibration.c **** 					* 250;
 680              		.loc 1 347 0
 681 002a FA22     		movs	r2, #250
 682 002c 5343     		muls	r3, r2
 683              	.LVL118:
 345:Api\core\src/vl53l0x_api_calibration.c **** 			*pOffsetCalibrationDataMicroMeter =
 684              		.loc 1 345 0
 685 002e 2360     		str	r3, [r4]
 686              	.LVL119:
 687 0030 02E0     		b	.L44
 688              	.LVL120:
 689              	.L45:
 348:Api\core\src/vl53l0x_api_calibration.c **** 		else
 349:Api\core\src/vl53l0x_api_calibration.c **** 			*pOffsetCalibrationDataMicroMeter =
 350:Api\core\src/vl53l0x_api_calibration.c **** 				(int16_t)RangeOffsetRegister * 250;
 690              		.loc 1 350 0
 691 0032 FA22     		movs	r2, #250
 692 0034 5343     		muls	r3, r2
 693              	.LVL121:
 349:Api\core\src/vl53l0x_api_calibration.c **** 				(int16_t)RangeOffsetRegister * 250;
 694              		.loc 1 349 0
 695 0036 2360     		str	r3, [r4]
 696              	.LVL122:
 697              	.L44:
 351:Api\core\src/vl53l0x_api_calibration.c **** 
 352:Api\core\src/vl53l0x_api_calibration.c **** 	}
 353:Api\core\src/vl53l0x_api_calibration.c **** 
 354:Api\core\src/vl53l0x_api_calibration.c **** 	return Status;
 355:Api\core\src/vl53l0x_api_calibration.c **** }
 698              		.loc 1 355 0
 699 0038 02B0     		add	sp, sp, #8
 700              		@ sp needed
 701              	.LVL123:
 702 003a 10BD     		pop	{r4, pc}
 703              	.L47:
ARM GAS  C:\Users\Rajesh\AppData\Local\Temp\ccFou9eL.s 			page 20


 704              		.align	2
 705              	.L46:
 706 003c FF070000 		.word	2047
 707 0040 00F0FFFF 		.word	-4096
 708              		.cfi_endproc
 709              	.LFE4:
 710              		.size	VL53L0X_get_offset_calibration_data_micro_meter, .-VL53L0X_get_offset_calibration_data_micro
 711              		.section	.text.VL53L0X_apply_offset_adjustment,"ax",%progbits
 712              		.align	2
 713              		.global	VL53L0X_apply_offset_adjustment
 714              		.code	16
 715              		.thumb_func
 716              		.type	VL53L0X_apply_offset_adjustment, %function
 717              	VL53L0X_apply_offset_adjustment:
 718              	.LFB5:
 356:Api\core\src/vl53l0x_api_calibration.c **** 
 357:Api\core\src/vl53l0x_api_calibration.c **** 
 358:Api\core\src/vl53l0x_api_calibration.c **** VL53L0X_Error VL53L0X_apply_offset_adjustment(VL53L0X_DEV Dev)
 359:Api\core\src/vl53l0x_api_calibration.c **** {
 719              		.loc 1 359 0
 720              		.cfi_startproc
 721              		@ args = 0, pretend = 0, frame = 8
 722              		@ frame_needed = 0, uses_anonymous_args = 0
 723              	.LVL124:
 724 0000 30B5     		push	{r4, r5, lr}
 725              		.cfi_def_cfa_offset 12
 726              		.cfi_offset 4, -12
 727              		.cfi_offset 5, -8
 728              		.cfi_offset 14, -4
 729 0002 83B0     		sub	sp, sp, #12
 730              		.cfi_def_cfa_offset 24
 731 0004 0400     		movs	r4, r0
 732              	.LVL125:
 360:Api\core\src/vl53l0x_api_calibration.c **** 	VL53L0X_Error Status = VL53L0X_ERROR_NONE;
 361:Api\core\src/vl53l0x_api_calibration.c **** 	int32_t CorrectedOffsetMicroMeters;
 362:Api\core\src/vl53l0x_api_calibration.c **** 	int32_t CurrentOffsetMicroMeters;
 363:Api\core\src/vl53l0x_api_calibration.c **** 
 364:Api\core\src/vl53l0x_api_calibration.c **** 	/* if we run on this function we can read all the NVM info
 365:Api\core\src/vl53l0x_api_calibration.c **** 	 * used by the API */
 366:Api\core\src/vl53l0x_api_calibration.c **** 	Status = VL53L0X_get_info_from_device(Dev, 7);
 733              		.loc 1 366 0
 734 0006 0721     		movs	r1, #7
 735 0008 FFF7FEFF 		bl	VL53L0X_get_info_from_device
 736              	.LVL126:
 367:Api\core\src/vl53l0x_api_calibration.c **** 
 368:Api\core\src/vl53l0x_api_calibration.c **** 	/* Read back current device offset */
 369:Api\core\src/vl53l0x_api_calibration.c **** 	if (Status == VL53L0X_ERROR_NONE) {
 737              		.loc 1 369 0
 738 000c 0028     		cmp	r0, #0
 739 000e 03D1     		bne	.L49
 370:Api\core\src/vl53l0x_api_calibration.c **** 		Status = VL53L0X_GetOffsetCalibrationDataMicroMeter(Dev,
 740              		.loc 1 370 0
 741 0010 01A9     		add	r1, sp, #4
 742 0012 2000     		movs	r0, r4
 743              	.LVL127:
 744 0014 FFF7FEFF 		bl	VL53L0X_GetOffsetCalibrationDataMicroMeter
 745              	.LVL128:
ARM GAS  C:\Users\Rajesh\AppData\Local\Temp\ccFou9eL.s 			page 21


 746              	.L49:
 371:Api\core\src/vl53l0x_api_calibration.c **** 					&CurrentOffsetMicroMeters);
 372:Api\core\src/vl53l0x_api_calibration.c **** 	}
 373:Api\core\src/vl53l0x_api_calibration.c **** 
 374:Api\core\src/vl53l0x_api_calibration.c **** 	/* Apply Offset Adjustment derived from 400mm measurements */
 375:Api\core\src/vl53l0x_api_calibration.c **** 	if (Status == VL53L0X_ERROR_NONE) {
 747              		.loc 1 375 0
 748 0018 0028     		cmp	r0, #0
 749 001a 0BD1     		bne	.L50
 376:Api\core\src/vl53l0x_api_calibration.c **** 
 377:Api\core\src/vl53l0x_api_calibration.c **** 		/* Store initial device offset */
 378:Api\core\src/vl53l0x_api_calibration.c **** 		PALDevDataSet(Dev, Part2PartOffsetNVMMicroMeter,
 750              		.loc 1 378 0
 751 001c 019D     		ldr	r5, [sp, #4]
 752 001e A560     		str	r5, [r4, #8]
 379:Api\core\src/vl53l0x_api_calibration.c **** 			CurrentOffsetMicroMeters);
 380:Api\core\src/vl53l0x_api_calibration.c **** 
 381:Api\core\src/vl53l0x_api_calibration.c **** 		CorrectedOffsetMicroMeters = CurrentOffsetMicroMeters +
 753              		.loc 1 381 0
 754 0020 E368     		ldr	r3, [r4, #12]
 755 0022 9C46     		mov	ip, r3
 756 0024 6544     		add	r5, r5, ip
 757              	.LVL129:
 382:Api\core\src/vl53l0x_api_calibration.c **** 			(int32_t)PALDevDataGet(Dev,
 383:Api\core\src/vl53l0x_api_calibration.c **** 				Part2PartOffsetAdjustmentNVMMicroMeter);
 384:Api\core\src/vl53l0x_api_calibration.c **** 
 385:Api\core\src/vl53l0x_api_calibration.c **** 		Status = VL53L0X_SetOffsetCalibrationDataMicroMeter(Dev,
 758              		.loc 1 385 0
 759 0026 2900     		movs	r1, r5
 760 0028 2000     		movs	r0, r4
 761              	.LVL130:
 762 002a FFF7FEFF 		bl	VL53L0X_SetOffsetCalibrationDataMicroMeter
 763              	.LVL131:
 386:Api\core\src/vl53l0x_api_calibration.c **** 					CorrectedOffsetMicroMeters);
 387:Api\core\src/vl53l0x_api_calibration.c **** 
 388:Api\core\src/vl53l0x_api_calibration.c **** 		/* store current, adjusted offset */
 389:Api\core\src/vl53l0x_api_calibration.c **** 		if (Status == VL53L0X_ERROR_NONE) {
 764              		.loc 1 389 0
 765 002e 0028     		cmp	r0, #0
 766 0030 00D1     		bne	.L50
 390:Api\core\src/vl53l0x_api_calibration.c **** 			VL53L0X_SETPARAMETERFIELD(Dev, RangeOffsetMicroMeters,
 767              		.loc 1 390 0
 768 0032 6562     		str	r5, [r4, #36]
 769              	.LVL132:
 770              	.L50:
 391:Api\core\src/vl53l0x_api_calibration.c **** 					CorrectedOffsetMicroMeters);
 392:Api\core\src/vl53l0x_api_calibration.c **** 		}
 393:Api\core\src/vl53l0x_api_calibration.c **** 	}
 394:Api\core\src/vl53l0x_api_calibration.c **** 
 395:Api\core\src/vl53l0x_api_calibration.c **** 	return Status;
 396:Api\core\src/vl53l0x_api_calibration.c **** }
 771              		.loc 1 396 0
 772 0034 03B0     		add	sp, sp, #12
 773              		@ sp needed
 774              	.LVL133:
 775 0036 30BD     		pop	{r4, r5, pc}
 776              		.cfi_endproc
ARM GAS  C:\Users\Rajesh\AppData\Local\Temp\ccFou9eL.s 			page 22


 777              	.LFE5:
 778              		.size	VL53L0X_apply_offset_adjustment, .-VL53L0X_apply_offset_adjustment
 779              		.section	.text.get_next_good_spad,"ax",%progbits
 780              		.align	2
 781              		.global	get_next_good_spad
 782              		.code	16
 783              		.thumb_func
 784              		.type	get_next_good_spad, %function
 785              	get_next_good_spad:
 786              	.LFB6:
 397:Api\core\src/vl53l0x_api_calibration.c **** 
 398:Api\core\src/vl53l0x_api_calibration.c **** void get_next_good_spad(uint8_t goodSpadArray[], uint32_t size,
 399:Api\core\src/vl53l0x_api_calibration.c **** 			uint32_t curr, int32_t *next)
 400:Api\core\src/vl53l0x_api_calibration.c **** {
 787              		.loc 1 400 0
 788              		.cfi_startproc
 789              		@ args = 0, pretend = 0, frame = 0
 790              		@ frame_needed = 0, uses_anonymous_args = 0
 791              	.LVL134:
 792 0000 F0B5     		push	{r4, r5, r6, r7, lr}
 793              		.cfi_def_cfa_offset 20
 794              		.cfi_offset 4, -20
 795              		.cfi_offset 5, -16
 796              		.cfi_offset 6, -12
 797              		.cfi_offset 7, -8
 798              		.cfi_offset 14, -4
 799 0002 4746     		mov	r7, r8
 800 0004 80B4     		push	{r7}
 801              		.cfi_def_cfa_offset 24
 802              		.cfi_offset 8, -24
 803 0006 1400     		movs	r4, r2
 804 0008 9846     		mov	r8, r3
 805              	.LVL135:
 401:Api\core\src/vl53l0x_api_calibration.c **** 	uint32_t startIndex;
 402:Api\core\src/vl53l0x_api_calibration.c **** 	uint32_t fineOffset;
 403:Api\core\src/vl53l0x_api_calibration.c **** 	uint32_t cSpadsPerByte = 8;
 404:Api\core\src/vl53l0x_api_calibration.c **** 	uint32_t coarseIndex;
 405:Api\core\src/vl53l0x_api_calibration.c **** 	uint32_t fineIndex;
 406:Api\core\src/vl53l0x_api_calibration.c **** 	uint8_t dataByte;
 407:Api\core\src/vl53l0x_api_calibration.c **** 	uint8_t success = 0;
 408:Api\core\src/vl53l0x_api_calibration.c **** 
 409:Api\core\src/vl53l0x_api_calibration.c **** 	/*
 410:Api\core\src/vl53l0x_api_calibration.c **** 	 * Starting with the current good spad, loop through the array to find
 411:Api\core\src/vl53l0x_api_calibration.c **** 	 * the next. i.e. the next bit set in the sequence.
 412:Api\core\src/vl53l0x_api_calibration.c **** 	 *
 413:Api\core\src/vl53l0x_api_calibration.c **** 	 * The coarse index is the byte index of the array and the fine index is
 414:Api\core\src/vl53l0x_api_calibration.c **** 	 * the index of the bit within each byte.
 415:Api\core\src/vl53l0x_api_calibration.c **** 	 */
 416:Api\core\src/vl53l0x_api_calibration.c **** 
 417:Api\core\src/vl53l0x_api_calibration.c **** 	*next = -1;
 806              		.loc 1 417 0
 807 000a 0123     		movs	r3, #1
 808              	.LVL136:
 809 000c 5B42     		rsbs	r3, r3, #0
 810 000e 4246     		mov	r2, r8
 811              	.LVL137:
 812 0010 1360     		str	r3, [r2]
ARM GAS  C:\Users\Rajesh\AppData\Local\Temp\ccFou9eL.s 			page 23


 418:Api\core\src/vl53l0x_api_calibration.c **** 
 419:Api\core\src/vl53l0x_api_calibration.c **** 	startIndex = curr / cSpadsPerByte;
 813              		.loc 1 419 0
 814 0012 E308     		lsrs	r3, r4, #3
 815              	.LVL138:
 420:Api\core\src/vl53l0x_api_calibration.c **** 	fineOffset = curr % cSpadsPerByte;
 816              		.loc 1 420 0
 817 0014 0725     		movs	r5, #7
 818 0016 2540     		ands	r5, r4
 819 0018 AC46     		mov	ip, r5
 820              	.LVL139:
 421:Api\core\src/vl53l0x_api_calibration.c **** 
 422:Api\core\src/vl53l0x_api_calibration.c **** 	for (coarseIndex = startIndex; ((coarseIndex < size) && !success);
 821              		.loc 1 422 0
 822 001a 1E00     		movs	r6, r3
 407:Api\core\src/vl53l0x_api_calibration.c **** 
 823              		.loc 1 407 0
 824 001c 0027     		movs	r7, #0
 825              		.loc 1 422 0
 826 001e 16E0     		b	.L52
 827              	.LVL140:
 828              	.L59:
 423:Api\core\src/vl53l0x_api_calibration.c **** 				coarseIndex++) {
 424:Api\core\src/vl53l0x_api_calibration.c **** 		fineIndex = 0;
 425:Api\core\src/vl53l0x_api_calibration.c **** 		dataByte = goodSpadArray[coarseIndex];
 829              		.loc 1 425 0
 830 0020 855D     		ldrb	r5, [r0, r6]
 831              	.LVL141:
 426:Api\core\src/vl53l0x_api_calibration.c **** 
 427:Api\core\src/vl53l0x_api_calibration.c **** 		if (coarseIndex == startIndex) {
 832              		.loc 1 427 0
 833 0022 9E42     		cmp	r6, r3
 834 0024 04D1     		bne	.L60
 428:Api\core\src/vl53l0x_api_calibration.c **** 			/* locate the bit position of the provided current
 429:Api\core\src/vl53l0x_api_calibration.c **** 			 * spad bit before iterating */
 430:Api\core\src/vl53l0x_api_calibration.c **** 			dataByte >>= fineOffset;
 835              		.loc 1 430 0
 836 0026 6246     		mov	r2, ip
 837 0028 1541     		asrs	r5, r5, r2
 838              	.LVL142:
 839 002a EDB2     		uxtb	r5, r5
 840              	.LVL143:
 431:Api\core\src/vl53l0x_api_calibration.c **** 			fineIndex = fineOffset;
 841              		.loc 1 431 0
 842 002c 6446     		mov	r4, ip
 843 002e 0BE0     		b	.L54
 844              	.LVL144:
 845              	.L60:
 424:Api\core\src/vl53l0x_api_calibration.c **** 		dataByte = goodSpadArray[coarseIndex];
 846              		.loc 1 424 0
 847 0030 0024     		movs	r4, #0
 848 0032 09E0     		b	.L54
 849              	.LVL145:
 850              	.L57:
 432:Api\core\src/vl53l0x_api_calibration.c **** 		}
 433:Api\core\src/vl53l0x_api_calibration.c **** 
 434:Api\core\src/vl53l0x_api_calibration.c **** 		while (fineIndex < cSpadsPerByte) {
ARM GAS  C:\Users\Rajesh\AppData\Local\Temp\ccFou9eL.s 			page 24


 435:Api\core\src/vl53l0x_api_calibration.c **** 			if ((dataByte & 0x1) == 1) {
 851              		.loc 1 435 0
 852 0034 EA07     		lsls	r2, r5, #31
 853 0036 05D5     		bpl	.L55
 854              	.LVL146:
 436:Api\core\src/vl53l0x_api_calibration.c **** 				success = 1;
 437:Api\core\src/vl53l0x_api_calibration.c **** 				*next = coarseIndex * cSpadsPerByte + fineIndex;
 855              		.loc 1 437 0
 856 0038 F500     		lsls	r5, r6, #3
 857              	.LVL147:
 858 003a 6419     		adds	r4, r4, r5
 859              	.LVL148:
 860 003c 4246     		mov	r2, r8
 861 003e 1460     		str	r4, [r2]
 436:Api\core\src/vl53l0x_api_calibration.c **** 				success = 1;
 862              		.loc 1 436 0
 863 0040 0127     		movs	r7, #1
 438:Api\core\src/vl53l0x_api_calibration.c **** 				break;
 864              		.loc 1 438 0
 865 0042 03E0     		b	.L56
 866              	.LVL149:
 867              	.L55:
 439:Api\core\src/vl53l0x_api_calibration.c **** 			}
 440:Api\core\src/vl53l0x_api_calibration.c **** 			dataByte >>= 1;
 868              		.loc 1 440 0
 869 0044 6D08     		lsrs	r5, r5, #1
 870              	.LVL150:
 441:Api\core\src/vl53l0x_api_calibration.c **** 			fineIndex++;
 871              		.loc 1 441 0
 872 0046 0134     		adds	r4, r4, #1
 873              	.LVL151:
 874              	.L54:
 434:Api\core\src/vl53l0x_api_calibration.c **** 			if ((dataByte & 0x1) == 1) {
 875              		.loc 1 434 0
 876 0048 072C     		cmp	r4, #7
 877 004a F3D9     		bls	.L57
 878              	.LVL152:
 879              	.L56:
 423:Api\core\src/vl53l0x_api_calibration.c **** 		fineIndex = 0;
 880              		.loc 1 423 0
 881 004c 0136     		adds	r6, r6, #1
 882              	.LVL153:
 883              	.L52:
 422:Api\core\src/vl53l0x_api_calibration.c **** 				coarseIndex++) {
 884              		.loc 1 422 0 discriminator 1
 885 004e 8E42     		cmp	r6, r1
 886 0050 01D2     		bcs	.L51
 422:Api\core\src/vl53l0x_api_calibration.c **** 				coarseIndex++) {
 887              		.loc 1 422 0 is_stmt 0 discriminator 2
 888 0052 002F     		cmp	r7, #0
 889 0054 E4D0     		beq	.L59
 890              	.L51:
 442:Api\core\src/vl53l0x_api_calibration.c **** 		}
 443:Api\core\src/vl53l0x_api_calibration.c **** 	}
 444:Api\core\src/vl53l0x_api_calibration.c **** }
 891              		.loc 1 444 0 is_stmt 1
 892              		@ sp needed
ARM GAS  C:\Users\Rajesh\AppData\Local\Temp\ccFou9eL.s 			page 25


 893              	.LVL154:
 894              	.LVL155:
 895              	.LVL156:
 896 0056 04BC     		pop	{r2}
 897 0058 9046     		mov	r8, r2
 898 005a F0BD     		pop	{r4, r5, r6, r7, pc}
 899              		.cfi_endproc
 900              	.LFE6:
 901              		.size	get_next_good_spad, .-get_next_good_spad
 902              		.section	.text.is_aperture,"ax",%progbits
 903              		.align	2
 904              		.global	is_aperture
 905              		.code	16
 906              		.thumb_func
 907              		.type	is_aperture, %function
 908              	is_aperture:
 909              	.LFB7:
 445:Api\core\src/vl53l0x_api_calibration.c **** 
 446:Api\core\src/vl53l0x_api_calibration.c **** 
 447:Api\core\src/vl53l0x_api_calibration.c **** uint8_t is_aperture(uint32_t spadIndex)
 448:Api\core\src/vl53l0x_api_calibration.c **** {
 910              		.loc 1 448 0
 911              		.cfi_startproc
 912              		@ args = 0, pretend = 0, frame = 0
 913              		@ frame_needed = 0, uses_anonymous_args = 0
 914              		@ link register save eliminated.
 915              	.LVL157:
 449:Api\core\src/vl53l0x_api_calibration.c **** 	/*
 450:Api\core\src/vl53l0x_api_calibration.c **** 	 * This function reports if a given spad index is an aperture SPAD by
 451:Api\core\src/vl53l0x_api_calibration.c **** 	 * deriving the quadrant.
 452:Api\core\src/vl53l0x_api_calibration.c **** 	 */
 453:Api\core\src/vl53l0x_api_calibration.c **** 	uint32_t quadrant;
 454:Api\core\src/vl53l0x_api_calibration.c **** 	uint8_t isAperture = 1;
 455:Api\core\src/vl53l0x_api_calibration.c **** 	quadrant = spadIndex >> 6;
 916              		.loc 1 455 0
 917 0000 8009     		lsrs	r0, r0, #6
 918              	.LVL158:
 456:Api\core\src/vl53l0x_api_calibration.c **** 	if (refArrayQuadrants[quadrant] == REF_ARRAY_SPAD_0)
 919              		.loc 1 456 0
 920 0002 8000     		lsls	r0, r0, #2
 921              	.LVL159:
 922 0004 034B     		ldr	r3, .L64
 923 0006 C358     		ldr	r3, [r0, r3]
 924 0008 002B     		cmp	r3, #0
 925 000a 01D0     		beq	.L63
 454:Api\core\src/vl53l0x_api_calibration.c **** 	quadrant = spadIndex >> 6;
 926              		.loc 1 454 0
 927 000c 0120     		movs	r0, #1
 928 000e 00E0     		b	.L62
 929              	.L63:
 457:Api\core\src/vl53l0x_api_calibration.c **** 		isAperture = 0;
 930              		.loc 1 457 0
 931 0010 0020     		movs	r0, #0
 932              	.L62:
 933              	.LVL160:
 458:Api\core\src/vl53l0x_api_calibration.c **** 
 459:Api\core\src/vl53l0x_api_calibration.c **** 	return isAperture;
ARM GAS  C:\Users\Rajesh\AppData\Local\Temp\ccFou9eL.s 			page 26


 460:Api\core\src/vl53l0x_api_calibration.c **** }
 934              		.loc 1 460 0
 935              		@ sp needed
 936 0012 7047     		bx	lr
 937              	.L65:
 938              		.align	2
 939              	.L64:
 940 0014 00000000 		.word	.LANCHOR0
 941              		.cfi_endproc
 942              	.LFE7:
 943              		.size	is_aperture, .-is_aperture
 944              		.section	.text.enable_spad_bit,"ax",%progbits
 945              		.align	2
 946              		.global	enable_spad_bit
 947              		.code	16
 948              		.thumb_func
 949              		.type	enable_spad_bit, %function
 950              	enable_spad_bit:
 951              	.LFB8:
 461:Api\core\src/vl53l0x_api_calibration.c **** 
 462:Api\core\src/vl53l0x_api_calibration.c **** 
 463:Api\core\src/vl53l0x_api_calibration.c **** VL53L0X_Error enable_spad_bit(uint8_t spadArray[], uint32_t size,
 464:Api\core\src/vl53l0x_api_calibration.c **** 	uint32_t spadIndex)
 465:Api\core\src/vl53l0x_api_calibration.c **** {
 952              		.loc 1 465 0
 953              		.cfi_startproc
 954              		@ args = 0, pretend = 0, frame = 0
 955              		@ frame_needed = 0, uses_anonymous_args = 0
 956              	.LVL161:
 957 0000 10B5     		push	{r4, lr}
 958              		.cfi_def_cfa_offset 8
 959              		.cfi_offset 4, -8
 960              		.cfi_offset 14, -4
 961              	.LVL162:
 466:Api\core\src/vl53l0x_api_calibration.c **** 	VL53L0X_Error status = VL53L0X_ERROR_NONE;
 467:Api\core\src/vl53l0x_api_calibration.c **** 	uint32_t cSpadsPerByte = 8;
 468:Api\core\src/vl53l0x_api_calibration.c **** 	uint32_t coarseIndex;
 469:Api\core\src/vl53l0x_api_calibration.c **** 	uint32_t fineIndex;
 470:Api\core\src/vl53l0x_api_calibration.c **** 
 471:Api\core\src/vl53l0x_api_calibration.c **** 	coarseIndex = spadIndex / cSpadsPerByte;
 962              		.loc 1 471 0
 963 0002 D308     		lsrs	r3, r2, #3
 964              	.LVL163:
 472:Api\core\src/vl53l0x_api_calibration.c **** 	fineIndex = spadIndex % cSpadsPerByte;
 965              		.loc 1 472 0
 966 0004 0724     		movs	r4, #7
 967 0006 1440     		ands	r4, r2
 968              	.LVL164:
 473:Api\core\src/vl53l0x_api_calibration.c **** 	if (coarseIndex >= size)
 969              		.loc 1 473 0
 970 0008 8B42     		cmp	r3, r1
 971 000a 07D2     		bcs	.L68
 474:Api\core\src/vl53l0x_api_calibration.c **** 		status = VL53L0X_ERROR_REF_SPAD_INIT;
 475:Api\core\src/vl53l0x_api_calibration.c **** 	else
 476:Api\core\src/vl53l0x_api_calibration.c **** 		spadArray[coarseIndex] |= (1 << fineIndex);
 972              		.loc 1 476 0
 973 000c C318     		adds	r3, r0, r3
ARM GAS  C:\Users\Rajesh\AppData\Local\Temp\ccFou9eL.s 			page 27


 974              	.LVL165:
 975 000e 0122     		movs	r2, #1
 976              	.LVL166:
 977 0010 A240     		lsls	r2, r2, r4
 978 0012 1978     		ldrb	r1, [r3]
 979              	.LVL167:
 980 0014 0A43     		orrs	r2, r1
 981 0016 1A70     		strb	r2, [r3]
 466:Api\core\src/vl53l0x_api_calibration.c **** 	uint32_t cSpadsPerByte = 8;
 982              		.loc 1 466 0
 983 0018 0020     		movs	r0, #0
 984              	.LVL168:
 985 001a 01E0     		b	.L67
 986              	.LVL169:
 987              	.L68:
 474:Api\core\src/vl53l0x_api_calibration.c **** 		status = VL53L0X_ERROR_REF_SPAD_INIT;
 988              		.loc 1 474 0
 989 001c 3220     		movs	r0, #50
 990              	.LVL170:
 991 001e 4042     		rsbs	r0, r0, #0
 992              	.LVL171:
 993              	.L67:
 477:Api\core\src/vl53l0x_api_calibration.c **** 
 478:Api\core\src/vl53l0x_api_calibration.c **** 	return status;
 479:Api\core\src/vl53l0x_api_calibration.c **** }
 994              		.loc 1 479 0
 995              		@ sp needed
 996              	.LVL172:
 997 0020 10BD     		pop	{r4, pc}
 998              		.cfi_endproc
 999              	.LFE8:
 1000              		.size	enable_spad_bit, .-enable_spad_bit
 1001 0022 C046     		.section	.text.count_enabled_spads,"ax",%progbits
 1002              		.align	2
 1003              		.global	count_enabled_spads
 1004              		.code	16
 1005              		.thumb_func
 1006              		.type	count_enabled_spads, %function
 1007              	count_enabled_spads:
 1008              	.LFB9:
 480:Api\core\src/vl53l0x_api_calibration.c **** 
 481:Api\core\src/vl53l0x_api_calibration.c **** VL53L0X_Error count_enabled_spads(uint8_t spadArray[],
 482:Api\core\src/vl53l0x_api_calibration.c **** 		uint32_t byteCount, uint32_t maxSpads,
 483:Api\core\src/vl53l0x_api_calibration.c **** 		uint32_t *pTotalSpadsEnabled, uint8_t *pIsAperture)
 484:Api\core\src/vl53l0x_api_calibration.c **** {
 1009              		.loc 1 484 0
 1010              		.cfi_startproc
 1011              		@ args = 4, pretend = 0, frame = 8
 1012              		@ frame_needed = 0, uses_anonymous_args = 0
 1013              	.LVL173:
 1014 0000 F0B5     		push	{r4, r5, r6, r7, lr}
 1015              		.cfi_def_cfa_offset 20
 1016              		.cfi_offset 4, -20
 1017              		.cfi_offset 5, -16
 1018              		.cfi_offset 6, -12
 1019              		.cfi_offset 7, -8
 1020              		.cfi_offset 14, -4
ARM GAS  C:\Users\Rajesh\AppData\Local\Temp\ccFou9eL.s 			page 28


 1021 0002 4746     		mov	r7, r8
 1022 0004 80B4     		push	{r7}
 1023              		.cfi_def_cfa_offset 24
 1024              		.cfi_offset 8, -24
 1025 0006 82B0     		sub	sp, sp, #8
 1026              		.cfi_def_cfa_offset 32
 1027 0008 8446     		mov	ip, r0
 1028 000a 1500     		movs	r5, r2
 1029 000c 0898     		ldr	r0, [sp, #32]
 1030              	.LVL174:
 485:Api\core\src/vl53l0x_api_calibration.c **** 	VL53L0X_Error status = VL53L0X_ERROR_NONE;
 486:Api\core\src/vl53l0x_api_calibration.c **** 	uint32_t cSpadsPerByte = 8;
 487:Api\core\src/vl53l0x_api_calibration.c **** 	uint32_t lastByte;
 488:Api\core\src/vl53l0x_api_calibration.c **** 	uint32_t lastBit;
 489:Api\core\src/vl53l0x_api_calibration.c **** 	uint32_t byteIndex = 0;
 490:Api\core\src/vl53l0x_api_calibration.c **** 	uint32_t bitIndex = 0;
 491:Api\core\src/vl53l0x_api_calibration.c **** 	uint8_t tempByte;
 492:Api\core\src/vl53l0x_api_calibration.c **** 	uint8_t spadTypeIdentified = 0;
 493:Api\core\src/vl53l0x_api_calibration.c **** 
 494:Api\core\src/vl53l0x_api_calibration.c **** 	/* The entire array will not be used for spads, therefore the last
 495:Api\core\src/vl53l0x_api_calibration.c **** 	 * byte and last bit is determined from the max spads value.
 496:Api\core\src/vl53l0x_api_calibration.c **** 	 */
 497:Api\core\src/vl53l0x_api_calibration.c **** 
 498:Api\core\src/vl53l0x_api_calibration.c **** 	lastByte = maxSpads / cSpadsPerByte;
 1031              		.loc 1 498 0
 1032 000e D208     		lsrs	r2, r2, #3
 1033              	.LVL175:
 499:Api\core\src/vl53l0x_api_calibration.c **** 	lastBit = maxSpads % cSpadsPerByte;
 1034              		.loc 1 499 0
 1035 0010 0724     		movs	r4, #7
 1036 0012 2C40     		ands	r4, r5
 1037 0014 A046     		mov	r8, r4
 1038              	.LVL176:
 500:Api\core\src/vl53l0x_api_calibration.c **** 
 501:Api\core\src/vl53l0x_api_calibration.c **** 	/* Check that the max spads value does not exceed the array bounds. */
 502:Api\core\src/vl53l0x_api_calibration.c **** 	if (lastByte >= byteCount)
 1039              		.loc 1 502 0
 1040 0016 8A42     		cmp	r2, r1
 1041 0018 02D2     		bcs	.L79
 485:Api\core\src/vl53l0x_api_calibration.c **** 	uint32_t cSpadsPerByte = 8;
 1042              		.loc 1 485 0
 1043 001a 0021     		movs	r1, #0
 1044              	.LVL177:
 1045 001c 0191     		str	r1, [sp, #4]
 1046 001e 02E0     		b	.L70
 1047              	.LVL178:
 1048              	.L79:
 503:Api\core\src/vl53l0x_api_calibration.c **** 		status = VL53L0X_ERROR_REF_SPAD_INIT;
 1049              		.loc 1 503 0
 1050 0020 3221     		movs	r1, #50
 1051              	.LVL179:
 1052 0022 4942     		rsbs	r1, r1, #0
 1053 0024 0191     		str	r1, [sp, #4]
 1054              	.L70:
 1055              	.LVL180:
 504:Api\core\src/vl53l0x_api_calibration.c **** 
 505:Api\core\src/vl53l0x_api_calibration.c **** 	*pTotalSpadsEnabled = 0;
ARM GAS  C:\Users\Rajesh\AppData\Local\Temp\ccFou9eL.s 			page 29


 1056              		.loc 1 505 0
 1057 0026 0021     		movs	r1, #0
 1058 0028 1960     		str	r1, [r3]
 492:Api\core\src/vl53l0x_api_calibration.c **** 
 1059              		.loc 1 492 0
 1060 002a 0026     		movs	r6, #0
 506:Api\core\src/vl53l0x_api_calibration.c **** 
 507:Api\core\src/vl53l0x_api_calibration.c **** 	/* Count the bits enabled in the whole bytes */
 508:Api\core\src/vl53l0x_api_calibration.c **** 	for (byteIndex = 0; byteIndex <= (lastByte - 1); byteIndex++) {
 1061              		.loc 1 508 0
 1062 002c 0027     		movs	r7, #0
 1063 002e 1CE0     		b	.L71
 1064              	.LVL181:
 1065              	.L75:
 509:Api\core\src/vl53l0x_api_calibration.c **** 		tempByte = spadArray[byteIndex];
 1066              		.loc 1 509 0
 1067 0030 6146     		mov	r1, ip
 1068 0032 CC5D     		ldrb	r4, [r1, r7]
 1069              	.LVL182:
 510:Api\core\src/vl53l0x_api_calibration.c **** 
 511:Api\core\src/vl53l0x_api_calibration.c **** 		for (bitIndex = 0; bitIndex <= cSpadsPerByte; bitIndex++) {
 1070              		.loc 1 511 0
 1071 0034 0021     		movs	r1, #0
 1072 0036 15E0     		b	.L72
 1073              	.LVL183:
 1074              	.L74:
 512:Api\core\src/vl53l0x_api_calibration.c **** 			if ((tempByte & 0x01) == 1) {
 1075              		.loc 1 512 0
 1076 0038 E507     		lsls	r5, r4, #31
 1077 003a 11D5     		bpl	.L73
 513:Api\core\src/vl53l0x_api_calibration.c **** 				(*pTotalSpadsEnabled)++;
 1078              		.loc 1 513 0
 1079 003c 1D68     		ldr	r5, [r3]
 1080 003e 0135     		adds	r5, r5, #1
 1081 0040 1D60     		str	r5, [r3]
 514:Api\core\src/vl53l0x_api_calibration.c **** 
 515:Api\core\src/vl53l0x_api_calibration.c **** 				if (!spadTypeIdentified) {
 1082              		.loc 1 515 0
 1083 0042 002E     		cmp	r6, #0
 1084 0044 0CD1     		bne	.L73
 516:Api\core\src/vl53l0x_api_calibration.c **** 					*pIsAperture = 1;
 1085              		.loc 1 516 0
 1086 0046 0125     		movs	r5, #1
 1087 0048 0570     		strb	r5, [r0]
 517:Api\core\src/vl53l0x_api_calibration.c **** 					if ((byteIndex < 2) && (bitIndex < 4))
 1088              		.loc 1 517 0
 1089 004a 012F     		cmp	r7, #1
 1090 004c 05D8     		bhi	.L80
 1091              		.loc 1 517 0 is_stmt 0 discriminator 1
 1092 004e 0329     		cmp	r1, #3
 1093 0050 05D8     		bhi	.L81
 518:Api\core\src/vl53l0x_api_calibration.c **** 							*pIsAperture = 0;
 1094              		.loc 1 518 0 is_stmt 1
 1095 0052 0025     		movs	r5, #0
 1096 0054 0570     		strb	r5, [r0]
 519:Api\core\src/vl53l0x_api_calibration.c **** 					spadTypeIdentified = 1;
 1097              		.loc 1 519 0
ARM GAS  C:\Users\Rajesh\AppData\Local\Temp\ccFou9eL.s 			page 30


 1098 0056 0136     		adds	r6, r6, #1
 1099              	.LVL184:
 1100 0058 02E0     		b	.L73
 1101              	.LVL185:
 1102              	.L80:
 1103 005a 0126     		movs	r6, #1
 1104              	.LVL186:
 1105 005c 00E0     		b	.L73
 1106              	.LVL187:
 1107              	.L81:
 1108 005e 0126     		movs	r6, #1
 1109              	.LVL188:
 1110              	.L73:
 520:Api\core\src/vl53l0x_api_calibration.c **** 				}
 521:Api\core\src/vl53l0x_api_calibration.c **** 			}
 522:Api\core\src/vl53l0x_api_calibration.c **** 			tempByte >>= 1;
 1111              		.loc 1 522 0 discriminator 2
 1112 0060 6408     		lsrs	r4, r4, #1
 1113              	.LVL189:
 511:Api\core\src/vl53l0x_api_calibration.c **** 			if ((tempByte & 0x01) == 1) {
 1114              		.loc 1 511 0 discriminator 2
 1115 0062 0131     		adds	r1, r1, #1
 1116              	.LVL190:
 1117              	.L72:
 511:Api\core\src/vl53l0x_api_calibration.c **** 			if ((tempByte & 0x01) == 1) {
 1118              		.loc 1 511 0 is_stmt 0 discriminator 1
 1119 0064 0829     		cmp	r1, #8
 1120 0066 E7D9     		bls	.L74
 508:Api\core\src/vl53l0x_api_calibration.c **** 		tempByte = spadArray[byteIndex];
 1121              		.loc 1 508 0 is_stmt 1 discriminator 2
 1122 0068 0137     		adds	r7, r7, #1
 1123              	.LVL191:
 1124              	.L71:
 508:Api\core\src/vl53l0x_api_calibration.c **** 		tempByte = spadArray[byteIndex];
 1125              		.loc 1 508 0 is_stmt 0 discriminator 1
 1126 006a 511E     		subs	r1, r2, #1
 1127 006c 8F42     		cmp	r7, r1
 1128 006e DFD9     		bls	.L75
 523:Api\core\src/vl53l0x_api_calibration.c **** 		}
 524:Api\core\src/vl53l0x_api_calibration.c **** 	}
 525:Api\core\src/vl53l0x_api_calibration.c **** 
 526:Api\core\src/vl53l0x_api_calibration.c **** 	/* Count the number of bits enabled in the last byte accounting
 527:Api\core\src/vl53l0x_api_calibration.c **** 	 * for the fact that not all bits in the byte may be used.
 528:Api\core\src/vl53l0x_api_calibration.c **** 	 */
 529:Api\core\src/vl53l0x_api_calibration.c **** 	tempByte = spadArray[lastByte];
 1129              		.loc 1 529 0 is_stmt 1
 1130 0070 6146     		mov	r1, ip
 1131 0072 8C5C     		ldrb	r4, [r1, r2]
 1132              	.LVL192:
 530:Api\core\src/vl53l0x_api_calibration.c **** 
 531:Api\core\src/vl53l0x_api_calibration.c **** 	for (bitIndex = 0; bitIndex <= lastBit; bitIndex++) {
 1133              		.loc 1 531 0
 1134 0074 0021     		movs	r1, #0
 1135 0076 05E0     		b	.L76
 1136              	.LVL193:
 1137              	.L78:
 532:Api\core\src/vl53l0x_api_calibration.c **** 		if ((tempByte & 0x01) == 1)
ARM GAS  C:\Users\Rajesh\AppData\Local\Temp\ccFou9eL.s 			page 31


 1138              		.loc 1 532 0
 1139 0078 E207     		lsls	r2, r4, #31
 1140 007a 02D5     		bpl	.L77
 533:Api\core\src/vl53l0x_api_calibration.c **** 			(*pTotalSpadsEnabled)++;
 1141              		.loc 1 533 0
 1142 007c 1A68     		ldr	r2, [r3]
 1143 007e 501C     		adds	r0, r2, #1
 1144 0080 1860     		str	r0, [r3]
 1145              	.L77:
 531:Api\core\src/vl53l0x_api_calibration.c **** 		if ((tempByte & 0x01) == 1)
 1146              		.loc 1 531 0 discriminator 2
 1147 0082 0131     		adds	r1, r1, #1
 1148              	.LVL194:
 1149              	.L76:
 531:Api\core\src/vl53l0x_api_calibration.c **** 		if ((tempByte & 0x01) == 1)
 1150              		.loc 1 531 0 is_stmt 0 discriminator 1
 1151 0084 4145     		cmp	r1, r8
 1152 0086 F7D9     		bls	.L78
 534:Api\core\src/vl53l0x_api_calibration.c **** 	}
 535:Api\core\src/vl53l0x_api_calibration.c **** 
 536:Api\core\src/vl53l0x_api_calibration.c **** 	return status;
 537:Api\core\src/vl53l0x_api_calibration.c **** }
 1153              		.loc 1 537 0 is_stmt 1
 1154 0088 0198     		ldr	r0, [sp, #4]
 1155 008a 02B0     		add	sp, sp, #8
 1156              		@ sp needed
 1157              	.LVL195:
 1158              	.LVL196:
 1159              	.LVL197:
 1160              	.LVL198:
 1161 008c 04BC     		pop	{r2}
 1162 008e 9046     		mov	r8, r2
 1163 0090 F0BD     		pop	{r4, r5, r6, r7, pc}
 1164              		.cfi_endproc
 1165              	.LFE9:
 1166              		.size	count_enabled_spads, .-count_enabled_spads
 1167 0092 C046     		.section	.text.set_ref_spad_map,"ax",%progbits
 1168              		.align	2
 1169              		.global	set_ref_spad_map
 1170              		.code	16
 1171              		.thumb_func
 1172              		.type	set_ref_spad_map, %function
 1173              	set_ref_spad_map:
 1174              	.LFB10:
 538:Api\core\src/vl53l0x_api_calibration.c **** 
 539:Api\core\src/vl53l0x_api_calibration.c **** VL53L0X_Error set_ref_spad_map(VL53L0X_DEV Dev, uint8_t *refSpadArray)
 540:Api\core\src/vl53l0x_api_calibration.c **** {
 1175              		.loc 1 540 0
 1176              		.cfi_startproc
 1177              		@ args = 0, pretend = 0, frame = 0
 1178              		@ frame_needed = 0, uses_anonymous_args = 0
 1179              	.LVL199:
 1180 0000 10B5     		push	{r4, lr}
 1181              		.cfi_def_cfa_offset 8
 1182              		.cfi_offset 4, -8
 1183              		.cfi_offset 14, -4
 1184 0002 0A00     		movs	r2, r1
ARM GAS  C:\Users\Rajesh\AppData\Local\Temp\ccFou9eL.s 			page 32


 541:Api\core\src/vl53l0x_api_calibration.c **** 	VL53L0X_Error status = VL53L0X_WriteMulti(Dev,
 1185              		.loc 1 541 0
 1186 0004 0623     		movs	r3, #6
 1187 0006 B021     		movs	r1, #176
 1188              	.LVL200:
 1189 0008 FFF7FEFF 		bl	VL53L0X_WriteMulti
 1190              	.LVL201:
 542:Api\core\src/vl53l0x_api_calibration.c **** 				VL53L0X_REG_GLOBAL_CONFIG_SPAD_ENABLES_REF_0,
 543:Api\core\src/vl53l0x_api_calibration.c **** 				refSpadArray, 6);
 544:Api\core\src/vl53l0x_api_calibration.c **** 	return status;
 545:Api\core\src/vl53l0x_api_calibration.c **** }
 1191              		.loc 1 545 0
 1192              		@ sp needed
 1193 000c 10BD     		pop	{r4, pc}
 1194              		.cfi_endproc
 1195              	.LFE10:
 1196              		.size	set_ref_spad_map, .-set_ref_spad_map
 1197 000e C046     		.section	.text.get_ref_spad_map,"ax",%progbits
 1198              		.align	2
 1199              		.global	get_ref_spad_map
 1200              		.code	16
 1201              		.thumb_func
 1202              		.type	get_ref_spad_map, %function
 1203              	get_ref_spad_map:
 1204              	.LFB11:
 546:Api\core\src/vl53l0x_api_calibration.c **** 
 547:Api\core\src/vl53l0x_api_calibration.c **** VL53L0X_Error get_ref_spad_map(VL53L0X_DEV Dev, uint8_t *refSpadArray)
 548:Api\core\src/vl53l0x_api_calibration.c **** {
 1205              		.loc 1 548 0
 1206              		.cfi_startproc
 1207              		@ args = 0, pretend = 0, frame = 0
 1208              		@ frame_needed = 0, uses_anonymous_args = 0
 1209              	.LVL202:
 1210 0000 10B5     		push	{r4, lr}
 1211              		.cfi_def_cfa_offset 8
 1212              		.cfi_offset 4, -8
 1213              		.cfi_offset 14, -4
 1214 0002 0A00     		movs	r2, r1
 549:Api\core\src/vl53l0x_api_calibration.c **** 	VL53L0X_Error status = VL53L0X_ReadMulti(Dev,
 1215              		.loc 1 549 0
 1216 0004 0623     		movs	r3, #6
 1217 0006 B021     		movs	r1, #176
 1218              	.LVL203:
 1219 0008 FFF7FEFF 		bl	VL53L0X_ReadMulti
 1220              	.LVL204:
 550:Api\core\src/vl53l0x_api_calibration.c **** 				VL53L0X_REG_GLOBAL_CONFIG_SPAD_ENABLES_REF_0,
 551:Api\core\src/vl53l0x_api_calibration.c **** 				refSpadArray,
 552:Api\core\src/vl53l0x_api_calibration.c **** 				6);
 553:Api\core\src/vl53l0x_api_calibration.c **** 	return status;
 554:Api\core\src/vl53l0x_api_calibration.c **** }
 1221              		.loc 1 554 0
 1222              		@ sp needed
 1223 000c 10BD     		pop	{r4, pc}
 1224              		.cfi_endproc
 1225              	.LFE11:
 1226              		.size	get_ref_spad_map, .-get_ref_spad_map
 1227 000e C046     		.section	.text.enable_ref_spads,"ax",%progbits
ARM GAS  C:\Users\Rajesh\AppData\Local\Temp\ccFou9eL.s 			page 33


 1228              		.align	2
 1229              		.global	enable_ref_spads
 1230              		.code	16
 1231              		.thumb_func
 1232              		.type	enable_ref_spads, %function
 1233              	enable_ref_spads:
 1234              	.LFB12:
 555:Api\core\src/vl53l0x_api_calibration.c **** 
 556:Api\core\src/vl53l0x_api_calibration.c **** VL53L0X_Error enable_ref_spads(VL53L0X_DEV Dev,
 557:Api\core\src/vl53l0x_api_calibration.c **** 				uint8_t apertureSpads,
 558:Api\core\src/vl53l0x_api_calibration.c **** 				uint8_t goodSpadArray[],
 559:Api\core\src/vl53l0x_api_calibration.c **** 				uint8_t spadArray[],
 560:Api\core\src/vl53l0x_api_calibration.c **** 				uint32_t size,
 561:Api\core\src/vl53l0x_api_calibration.c **** 				uint32_t start,
 562:Api\core\src/vl53l0x_api_calibration.c **** 				uint32_t offset,
 563:Api\core\src/vl53l0x_api_calibration.c **** 				uint32_t spadCount,
 564:Api\core\src/vl53l0x_api_calibration.c **** 				uint32_t *lastSpad)
 565:Api\core\src/vl53l0x_api_calibration.c **** {
 1235              		.loc 1 565 0
 1236              		.cfi_startproc
 1237              		@ args = 20, pretend = 0, frame = 32
 1238              		@ frame_needed = 0, uses_anonymous_args = 0
 1239              	.LVL205:
 1240 0000 F0B5     		push	{r4, r5, r6, r7, lr}
 1241              		.cfi_def_cfa_offset 20
 1242              		.cfi_offset 4, -20
 1243              		.cfi_offset 5, -16
 1244              		.cfi_offset 6, -12
 1245              		.cfi_offset 7, -8
 1246              		.cfi_offset 14, -4
 1247 0002 5F46     		mov	r7, fp
 1248 0004 5646     		mov	r6, r10
 1249 0006 4546     		mov	r5, r8
 1250 0008 E0B4     		push	{r5, r6, r7}
 1251              		.cfi_def_cfa_offset 32
 1252              		.cfi_offset 8, -32
 1253              		.cfi_offset 10, -28
 1254              		.cfi_offset 11, -24
 1255 000a 88B0     		sub	sp, sp, #32
 1256              		.cfi_def_cfa_offset 64
 1257 000c 0390     		str	r0, [sp, #12]
 1258 000e 0292     		str	r2, [sp, #8]
 1259 0010 0193     		str	r3, [sp, #4]
 1260 0012 119B     		ldr	r3, [sp, #68]
 1261              	.LVL206:
 1262 0014 9A46     		mov	r10, r3
 1263 0016 129E     		ldr	r6, [sp, #72]
 1264 0018 139F     		ldr	r7, [sp, #76]
 1265              	.LVL207:
 566:Api\core\src/vl53l0x_api_calibration.c **** 	VL53L0X_Error status = VL53L0X_ERROR_NONE;
 567:Api\core\src/vl53l0x_api_calibration.c **** 	uint32_t index;
 568:Api\core\src/vl53l0x_api_calibration.c **** 	uint32_t i;
 569:Api\core\src/vl53l0x_api_calibration.c **** 	int32_t nextGoodSpad = offset;
 1266              		.loc 1 569 0
 1267 001a 0796     		str	r6, [sp, #28]
 1268              	.LVL208:
 570:Api\core\src/vl53l0x_api_calibration.c **** 	uint32_t currentSpad;
ARM GAS  C:\Users\Rajesh\AppData\Local\Temp\ccFou9eL.s 			page 34


 571:Api\core\src/vl53l0x_api_calibration.c **** 	uint8_t checkSpadArray[6];
 572:Api\core\src/vl53l0x_api_calibration.c **** 
 573:Api\core\src/vl53l0x_api_calibration.c **** 	/*
 574:Api\core\src/vl53l0x_api_calibration.c **** 	 * This function takes in a spad array which may or may not have SPADS
 575:Api\core\src/vl53l0x_api_calibration.c **** 	 * already enabled and appends from a given offset a requested number
 576:Api\core\src/vl53l0x_api_calibration.c **** 	 * of new SPAD enables. The 'good spad map' is applied to
 577:Api\core\src/vl53l0x_api_calibration.c **** 	 * determine the next SPADs to enable.
 578:Api\core\src/vl53l0x_api_calibration.c **** 	 *
 579:Api\core\src/vl53l0x_api_calibration.c **** 	 * This function applies to only aperture or only non-aperture spads.
 580:Api\core\src/vl53l0x_api_calibration.c **** 	 * Checks are performed to ensure this.
 581:Api\core\src/vl53l0x_api_calibration.c **** 	 */
 582:Api\core\src/vl53l0x_api_calibration.c **** 
 583:Api\core\src/vl53l0x_api_calibration.c **** 	currentSpad = offset;
 584:Api\core\src/vl53l0x_api_calibration.c **** 	for (index = 0; index < spadCount; index++) {
 1269              		.loc 1 584 0
 1270 001c 0025     		movs	r5, #0
 1271 001e B846     		mov	r8, r7
 1272 0020 2F00     		movs	r7, r5
 1273 0022 3500     		movs	r5, r6
 1274 0024 0E00     		movs	r6, r1
 1275              	.LVL209:
 1276 0026 15E0     		b	.L85
 1277              	.LVL210:
 1278              	.L87:
 585:Api\core\src/vl53l0x_api_calibration.c **** 		get_next_good_spad(goodSpadArray, size, currentSpad,
 1279              		.loc 1 585 0
 1280 0028 07AB     		add	r3, sp, #28
 1281 002a 2A00     		movs	r2, r5
 1282 002c 1099     		ldr	r1, [sp, #64]
 1283 002e 0298     		ldr	r0, [sp, #8]
 1284 0030 FFF7FEFF 		bl	get_next_good_spad
 1285              	.LVL211:
 586:Api\core\src/vl53l0x_api_calibration.c **** 			&nextGoodSpad);
 587:Api\core\src/vl53l0x_api_calibration.c **** 
 588:Api\core\src/vl53l0x_api_calibration.c **** 		if (nextGoodSpad == -1) {
 1286              		.loc 1 588 0
 1287 0034 079C     		ldr	r4, [sp, #28]
 1288 0036 631C     		adds	r3, r4, #1
 1289 0038 11D0     		beq	.L92
 589:Api\core\src/vl53l0x_api_calibration.c **** 			status = VL53L0X_ERROR_REF_SPAD_INIT;
 590:Api\core\src/vl53l0x_api_calibration.c **** 			break;
 591:Api\core\src/vl53l0x_api_calibration.c **** 		}
 592:Api\core\src/vl53l0x_api_calibration.c **** 
 593:Api\core\src/vl53l0x_api_calibration.c **** 		/* Confirm that the next good SPAD is non-aperture */
 594:Api\core\src/vl53l0x_api_calibration.c **** 		if (is_aperture(start + nextGoodSpad) != apertureSpads) {
 1290              		.loc 1 594 0
 1291 003a 5346     		mov	r3, r10
 1292 003c E018     		adds	r0, r4, r3
 1293 003e FFF7FEFF 		bl	is_aperture
 1294              	.LVL212:
 1295 0042 B042     		cmp	r0, r6
 1296 0044 0FD1     		bne	.L93
 1297              	.LVL213:
 595:Api\core\src/vl53l0x_api_calibration.c **** 			/* if we can't get the required number of good aperture
 596:Api\core\src/vl53l0x_api_calibration.c **** 			 * spads from the current quadrant then this is an error
 597:Api\core\src/vl53l0x_api_calibration.c **** 			 */
 598:Api\core\src/vl53l0x_api_calibration.c **** 			status = VL53L0X_ERROR_REF_SPAD_INIT;
ARM GAS  C:\Users\Rajesh\AppData\Local\Temp\ccFou9eL.s 			page 35


 599:Api\core\src/vl53l0x_api_calibration.c **** 			break;
 600:Api\core\src/vl53l0x_api_calibration.c **** 		}
 601:Api\core\src/vl53l0x_api_calibration.c **** 		currentSpad = (uint32_t)nextGoodSpad;
 602:Api\core\src/vl53l0x_api_calibration.c **** 		enable_spad_bit(spadArray, size, currentSpad);
 1298              		.loc 1 602 0 discriminator 2
 1299 0046 2200     		movs	r2, r4
 1300 0048 1099     		ldr	r1, [sp, #64]
 1301 004a 0198     		ldr	r0, [sp, #4]
 1302 004c FFF7FEFF 		bl	enable_spad_bit
 1303              	.LVL214:
 603:Api\core\src/vl53l0x_api_calibration.c **** 		currentSpad++;
 1304              		.loc 1 603 0 discriminator 2
 1305 0050 651C     		adds	r5, r4, #1
 1306              	.LVL215:
 584:Api\core\src/vl53l0x_api_calibration.c **** 		get_next_good_spad(goodSpadArray, size, currentSpad,
 1307              		.loc 1 584 0 discriminator 2
 1308 0052 0137     		adds	r7, r7, #1
 1309              	.LVL216:
 1310              	.L85:
 584:Api\core\src/vl53l0x_api_calibration.c **** 		get_next_good_spad(goodSpadArray, size, currentSpad,
 1311              		.loc 1 584 0 is_stmt 0 discriminator 1
 1312 0054 4745     		cmp	r7, r8
 1313 0056 E7D3     		bcc	.L87
 1314 0058 2E00     		movs	r6, r5
 566:Api\core\src/vl53l0x_api_calibration.c **** 	uint32_t index;
 1315              		.loc 1 566 0 is_stmt 1
 1316 005a 0020     		movs	r0, #0
 1317 005c 06E0     		b	.L86
 1318              	.L92:
 1319 005e 2E00     		movs	r6, r5
 589:Api\core\src/vl53l0x_api_calibration.c **** 			break;
 1320              		.loc 1 589 0
 1321 0060 3220     		movs	r0, #50
 1322 0062 4042     		rsbs	r0, r0, #0
 1323 0064 02E0     		b	.L86
 1324              	.L93:
 1325 0066 2E00     		movs	r6, r5
 598:Api\core\src/vl53l0x_api_calibration.c **** 			break;
 1326              		.loc 1 598 0
 1327 0068 3220     		movs	r0, #50
 1328 006a 4042     		rsbs	r0, r0, #0
 1329              	.L86:
 1330              	.LVL217:
 604:Api\core\src/vl53l0x_api_calibration.c **** 	}
 605:Api\core\src/vl53l0x_api_calibration.c **** 	*lastSpad = currentSpad;
 1331              		.loc 1 605 0
 1332 006c 149B     		ldr	r3, [sp, #80]
 1333 006e 1E60     		str	r6, [r3]
 606:Api\core\src/vl53l0x_api_calibration.c **** 
 607:Api\core\src/vl53l0x_api_calibration.c **** 	if (status == VL53L0X_ERROR_NONE)
 1334              		.loc 1 607 0
 1335 0070 0028     		cmp	r0, #0
 1336 0072 03D1     		bne	.L88
 608:Api\core\src/vl53l0x_api_calibration.c **** 		status = set_ref_spad_map(Dev, spadArray);
 1337              		.loc 1 608 0
 1338 0074 0199     		ldr	r1, [sp, #4]
 1339 0076 0398     		ldr	r0, [sp, #12]
ARM GAS  C:\Users\Rajesh\AppData\Local\Temp\ccFou9eL.s 			page 36


 1340              	.LVL218:
 1341 0078 FFF7FEFF 		bl	set_ref_spad_map
 1342              	.LVL219:
 1343              	.L88:
 609:Api\core\src/vl53l0x_api_calibration.c **** 
 610:Api\core\src/vl53l0x_api_calibration.c **** 
 611:Api\core\src/vl53l0x_api_calibration.c **** 	if (status == VL53L0X_ERROR_NONE) {
 1344              		.loc 1 611 0
 1345 007c 0028     		cmp	r0, #0
 1346 007e 12D1     		bne	.L89
 612:Api\core\src/vl53l0x_api_calibration.c **** 		status = get_ref_spad_map(Dev, checkSpadArray);
 1347              		.loc 1 612 0
 1348 0080 05A9     		add	r1, sp, #20
 1349 0082 0398     		ldr	r0, [sp, #12]
 1350              	.LVL220:
 1351 0084 FFF7FEFF 		bl	get_ref_spad_map
 1352              	.LVL221:
 613:Api\core\src/vl53l0x_api_calibration.c **** 
 614:Api\core\src/vl53l0x_api_calibration.c **** 		i = 0;
 1353              		.loc 1 614 0
 1354 0088 0023     		movs	r3, #0
 1355 008a 019D     		ldr	r5, [sp, #4]
 1356              	.LVL222:
 1357 008c 109C     		ldr	r4, [sp, #64]
 615:Api\core\src/vl53l0x_api_calibration.c **** 
 616:Api\core\src/vl53l0x_api_calibration.c **** 		/* Compare spad maps. If not equal report error. */
 617:Api\core\src/vl53l0x_api_calibration.c **** 		while (i < size) {
 1358              		.loc 1 617 0
 1359 008e 05E0     		b	.L90
 1360              	.LVL223:
 1361              	.L91:
 618:Api\core\src/vl53l0x_api_calibration.c **** 			if (spadArray[i] != checkSpadArray[i]) {
 1362              		.loc 1 618 0
 1363 0090 E95C     		ldrb	r1, [r5, r3]
 1364 0092 05AA     		add	r2, sp, #20
 1365 0094 D25C     		ldrb	r2, [r2, r3]
 1366 0096 9142     		cmp	r1, r2
 1367 0098 03D1     		bne	.L94
 619:Api\core\src/vl53l0x_api_calibration.c **** 				status = VL53L0X_ERROR_REF_SPAD_INIT;
 620:Api\core\src/vl53l0x_api_calibration.c **** 				break;
 621:Api\core\src/vl53l0x_api_calibration.c **** 			}
 622:Api\core\src/vl53l0x_api_calibration.c **** 			i++;
 1368              		.loc 1 622 0
 1369 009a 0133     		adds	r3, r3, #1
 1370              	.LVL224:
 1371              	.L90:
 617:Api\core\src/vl53l0x_api_calibration.c **** 			if (spadArray[i] != checkSpadArray[i]) {
 1372              		.loc 1 617 0
 1373 009c A342     		cmp	r3, r4
 1374 009e F7D3     		bcc	.L91
 1375 00a0 01E0     		b	.L89
 1376              	.L94:
 619:Api\core\src/vl53l0x_api_calibration.c **** 				status = VL53L0X_ERROR_REF_SPAD_INIT;
 1377              		.loc 1 619 0
 1378 00a2 3220     		movs	r0, #50
 1379              	.LVL225:
 1380 00a4 4042     		rsbs	r0, r0, #0
ARM GAS  C:\Users\Rajesh\AppData\Local\Temp\ccFou9eL.s 			page 37


 1381              	.LVL226:
 1382              	.L89:
 623:Api\core\src/vl53l0x_api_calibration.c **** 		}
 624:Api\core\src/vl53l0x_api_calibration.c **** 	}
 625:Api\core\src/vl53l0x_api_calibration.c **** 	return status;
 626:Api\core\src/vl53l0x_api_calibration.c **** }
 1383              		.loc 1 626 0
 1384 00a6 08B0     		add	sp, sp, #32
 1385              		@ sp needed
 1386              	.LVL227:
 1387              	.LVL228:
 1388 00a8 1CBC     		pop	{r2, r3, r4}
 1389 00aa 9046     		mov	r8, r2
 1390 00ac 9A46     		mov	r10, r3
 1391 00ae A346     		mov	fp, r4
 1392 00b0 F0BD     		pop	{r4, r5, r6, r7, pc}
 1393              		.cfi_endproc
 1394              	.LFE12:
 1395              		.size	enable_ref_spads, .-enable_ref_spads
 1396 00b2 C046     		.section	.text.perform_ref_signal_measurement,"ax",%progbits
 1397              		.align	2
 1398              		.global	perform_ref_signal_measurement
 1399              		.code	16
 1400              		.thumb_func
 1401              		.type	perform_ref_signal_measurement, %function
 1402              	perform_ref_signal_measurement:
 1403              	.LFB13:
 627:Api\core\src/vl53l0x_api_calibration.c **** 
 628:Api\core\src/vl53l0x_api_calibration.c **** 
 629:Api\core\src/vl53l0x_api_calibration.c **** VL53L0X_Error perform_ref_signal_measurement(VL53L0X_DEV Dev,
 630:Api\core\src/vl53l0x_api_calibration.c **** 		uint16_t *refSignalRate)
 631:Api\core\src/vl53l0x_api_calibration.c **** {
 1404              		.loc 1 631 0
 1405              		.cfi_startproc
 1406              		@ args = 0, pretend = 0, frame = 32
 1407              		@ frame_needed = 0, uses_anonymous_args = 0
 1408              	.LVL229:
 1409 0000 70B5     		push	{r4, r5, r6, lr}
 1410              		.cfi_def_cfa_offset 16
 1411              		.cfi_offset 4, -16
 1412              		.cfi_offset 5, -12
 1413              		.cfi_offset 6, -8
 1414              		.cfi_offset 14, -4
 1415 0002 88B0     		sub	sp, sp, #32
 1416              		.cfi_def_cfa_offset 48
 1417 0004 0400     		movs	r4, r0
 1418 0006 0D00     		movs	r5, r1
 1419              	.LVL230:
 632:Api\core\src/vl53l0x_api_calibration.c **** 	VL53L0X_Error status = VL53L0X_ERROR_NONE;
 633:Api\core\src/vl53l0x_api_calibration.c **** 	VL53L0X_RangingMeasurementData_t rangingMeasurementData;
 634:Api\core\src/vl53l0x_api_calibration.c **** 
 635:Api\core\src/vl53l0x_api_calibration.c **** 	uint8_t SequenceConfig = 0;
 636:Api\core\src/vl53l0x_api_calibration.c **** 
 637:Api\core\src/vl53l0x_api_calibration.c **** 	/* store the value of the sequence config,
 638:Api\core\src/vl53l0x_api_calibration.c **** 	 * this will be reset before the end of the function
 639:Api\core\src/vl53l0x_api_calibration.c **** 	 */
 640:Api\core\src/vl53l0x_api_calibration.c **** 
ARM GAS  C:\Users\Rajesh\AppData\Local\Temp\ccFou9eL.s 			page 38


 641:Api\core\src/vl53l0x_api_calibration.c **** 	SequenceConfig = PALDevDataGet(Dev, SequenceConfig);
 1420              		.loc 1 641 0
 1421 0008 9823     		movs	r3, #152
 1422 000a 5B00     		lsls	r3, r3, #1
 1423 000c C65C     		ldrb	r6, [r0, r3]
 1424              	.LVL231:
 642:Api\core\src/vl53l0x_api_calibration.c **** 
 643:Api\core\src/vl53l0x_api_calibration.c **** 	/*
 644:Api\core\src/vl53l0x_api_calibration.c **** 	 * This function performs a reference signal rate measurement.
 645:Api\core\src/vl53l0x_api_calibration.c **** 	 */
 646:Api\core\src/vl53l0x_api_calibration.c **** 	if (status == VL53L0X_ERROR_NONE)
 647:Api\core\src/vl53l0x_api_calibration.c **** 		status = VL53L0X_WrByte(Dev,
 1425              		.loc 1 647 0
 1426 000e C022     		movs	r2, #192
 1427 0010 0121     		movs	r1, #1
 1428              	.LVL232:
 1429 0012 FFF7FEFF 		bl	VL53L0X_WrByte
 1430              	.LVL233:
 648:Api\core\src/vl53l0x_api_calibration.c **** 			VL53L0X_REG_SYSTEM_SEQUENCE_CONFIG, 0xC0);
 649:Api\core\src/vl53l0x_api_calibration.c **** 
 650:Api\core\src/vl53l0x_api_calibration.c **** 	if (status == VL53L0X_ERROR_NONE)
 1431              		.loc 1 650 0
 1432 0016 0028     		cmp	r0, #0
 1433 0018 03D1     		bne	.L96
 651:Api\core\src/vl53l0x_api_calibration.c **** 		status = VL53L0X_PerformSingleRangingMeasurement(Dev,
 1434              		.loc 1 651 0
 1435 001a 01A9     		add	r1, sp, #4
 1436 001c 2000     		movs	r0, r4
 1437              	.LVL234:
 1438 001e FFF7FEFF 		bl	VL53L0X_PerformSingleRangingMeasurement
 1439              	.LVL235:
 1440              	.L96:
 652:Api\core\src/vl53l0x_api_calibration.c **** 				&rangingMeasurementData);
 653:Api\core\src/vl53l0x_api_calibration.c **** 
 654:Api\core\src/vl53l0x_api_calibration.c **** 	if (status == VL53L0X_ERROR_NONE)
 1441              		.loc 1 654 0
 1442 0022 0028     		cmp	r0, #0
 1443 0024 04D1     		bne	.L97
 655:Api\core\src/vl53l0x_api_calibration.c **** 		status = VL53L0X_WrByte(Dev, 0xFF, 0x01);
 1444              		.loc 1 655 0
 1445 0026 0122     		movs	r2, #1
 1446 0028 FF21     		movs	r1, #255
 1447 002a 2000     		movs	r0, r4
 1448              	.LVL236:
 1449 002c FFF7FEFF 		bl	VL53L0X_WrByte
 1450              	.LVL237:
 1451              	.L97:
 656:Api\core\src/vl53l0x_api_calibration.c **** 
 657:Api\core\src/vl53l0x_api_calibration.c **** 	if (status == VL53L0X_ERROR_NONE)
 1452              		.loc 1 657 0
 1453 0030 0028     		cmp	r0, #0
 1454 0032 04D1     		bne	.L98
 658:Api\core\src/vl53l0x_api_calibration.c **** 		status = VL53L0X_RdWord(Dev,
 1455              		.loc 1 658 0
 1456 0034 2A00     		movs	r2, r5
 1457 0036 B621     		movs	r1, #182
 1458 0038 2000     		movs	r0, r4
ARM GAS  C:\Users\Rajesh\AppData\Local\Temp\ccFou9eL.s 			page 39


 1459              	.LVL238:
 1460 003a FFF7FEFF 		bl	VL53L0X_RdWord
 1461              	.LVL239:
 1462              	.L98:
 659:Api\core\src/vl53l0x_api_calibration.c **** 			VL53L0X_REG_RESULT_PEAK_SIGNAL_RATE_REF,
 660:Api\core\src/vl53l0x_api_calibration.c **** 			refSignalRate);
 661:Api\core\src/vl53l0x_api_calibration.c **** 
 662:Api\core\src/vl53l0x_api_calibration.c **** 	if (status == VL53L0X_ERROR_NONE)
 1463              		.loc 1 662 0
 1464 003e 0028     		cmp	r0, #0
 1465 0040 04D1     		bne	.L99
 663:Api\core\src/vl53l0x_api_calibration.c **** 		status = VL53L0X_WrByte(Dev, 0xFF, 0x00);
 1466              		.loc 1 663 0
 1467 0042 0022     		movs	r2, #0
 1468 0044 FF21     		movs	r1, #255
 1469 0046 2000     		movs	r0, r4
 1470              	.LVL240:
 1471 0048 FFF7FEFF 		bl	VL53L0X_WrByte
 1472              	.LVL241:
 1473              	.L99:
 664:Api\core\src/vl53l0x_api_calibration.c **** 
 665:Api\core\src/vl53l0x_api_calibration.c **** 	if (status == VL53L0X_ERROR_NONE) {
 1474              		.loc 1 665 0
 1475 004c 0028     		cmp	r0, #0
 1476 004e 09D1     		bne	.L100
 666:Api\core\src/vl53l0x_api_calibration.c **** 		/* restore the previous Sequence Config */
 667:Api\core\src/vl53l0x_api_calibration.c **** 		status = VL53L0X_WrByte(Dev, VL53L0X_REG_SYSTEM_SEQUENCE_CONFIG,
 1477              		.loc 1 667 0
 1478 0050 3200     		movs	r2, r6
 1479 0052 0121     		movs	r1, #1
 1480 0054 2000     		movs	r0, r4
 1481              	.LVL242:
 1482 0056 FFF7FEFF 		bl	VL53L0X_WrByte
 1483              	.LVL243:
 668:Api\core\src/vl53l0x_api_calibration.c **** 				SequenceConfig);
 669:Api\core\src/vl53l0x_api_calibration.c **** 		if (status == VL53L0X_ERROR_NONE)
 1484              		.loc 1 669 0
 1485 005a 0028     		cmp	r0, #0
 1486 005c 02D1     		bne	.L100
 670:Api\core\src/vl53l0x_api_calibration.c **** 			PALDevDataSet(Dev, SequenceConfig, SequenceConfig);
 1487              		.loc 1 670 0
 1488 005e 9823     		movs	r3, #152
 1489 0060 5B00     		lsls	r3, r3, #1
 1490 0062 E654     		strb	r6, [r4, r3]
 1491              	.LVL244:
 1492              	.L100:
 671:Api\core\src/vl53l0x_api_calibration.c **** 	}
 672:Api\core\src/vl53l0x_api_calibration.c **** 
 673:Api\core\src/vl53l0x_api_calibration.c **** 	return status;
 674:Api\core\src/vl53l0x_api_calibration.c **** }
 1493              		.loc 1 674 0
 1494 0064 08B0     		add	sp, sp, #32
 1495              		@ sp needed
 1496              	.LVL245:
 1497              	.LVL246:
 1498              	.LVL247:
 1499 0066 70BD     		pop	{r4, r5, r6, pc}
ARM GAS  C:\Users\Rajesh\AppData\Local\Temp\ccFou9eL.s 			page 40


 1500              		.cfi_endproc
 1501              	.LFE13:
 1502              		.size	perform_ref_signal_measurement, .-perform_ref_signal_measurement
 1503              		.section	.text.VL53L0X_set_reference_spads,"ax",%progbits
 1504              		.align	2
 1505              		.global	VL53L0X_set_reference_spads
 1506              		.code	16
 1507              		.thumb_func
 1508              		.type	VL53L0X_set_reference_spads, %function
 1509              	VL53L0X_set_reference_spads:
 1510              	.LFB15:
 675:Api\core\src/vl53l0x_api_calibration.c **** 
 676:Api\core\src/vl53l0x_api_calibration.c **** VL53L0X_Error VL53L0X_perform_ref_spad_management(VL53L0X_DEV Dev,
 677:Api\core\src/vl53l0x_api_calibration.c **** 				uint32_t *refSpadCount,
 678:Api\core\src/vl53l0x_api_calibration.c **** 				uint8_t *isApertureSpads)
 679:Api\core\src/vl53l0x_api_calibration.c **** {
 680:Api\core\src/vl53l0x_api_calibration.c **** 	VL53L0X_Error Status = VL53L0X_ERROR_NONE;
 681:Api\core\src/vl53l0x_api_calibration.c **** 	uint8_t lastSpadArray[6];
 682:Api\core\src/vl53l0x_api_calibration.c **** 	uint8_t startSelect = 0xB4;
 683:Api\core\src/vl53l0x_api_calibration.c **** 	uint32_t minimumSpadCount = 3;
 684:Api\core\src/vl53l0x_api_calibration.c **** 	uint32_t maxSpadCount = 44;
 685:Api\core\src/vl53l0x_api_calibration.c **** 	uint32_t currentSpadIndex = 0;
 686:Api\core\src/vl53l0x_api_calibration.c **** 	uint32_t lastSpadIndex = 0;
 687:Api\core\src/vl53l0x_api_calibration.c **** 	int32_t nextGoodSpad = 0;
 688:Api\core\src/vl53l0x_api_calibration.c **** 	uint16_t targetRefRate = 0x0A00; /* 20 MCPS in 9:7 format */
 689:Api\core\src/vl53l0x_api_calibration.c **** 	uint16_t peakSignalRateRef;
 690:Api\core\src/vl53l0x_api_calibration.c **** 	uint32_t needAptSpads = 0;
 691:Api\core\src/vl53l0x_api_calibration.c **** 	uint32_t index = 0;
 692:Api\core\src/vl53l0x_api_calibration.c **** 	uint32_t spadArraySize = 6;
 693:Api\core\src/vl53l0x_api_calibration.c **** 	uint32_t signalRateDiff = 0;
 694:Api\core\src/vl53l0x_api_calibration.c **** 	uint32_t lastSignalRateDiff = 0;
 695:Api\core\src/vl53l0x_api_calibration.c **** 	uint8_t complete = 0;
 696:Api\core\src/vl53l0x_api_calibration.c **** 	uint8_t VhvSettings = 0;
 697:Api\core\src/vl53l0x_api_calibration.c **** 	uint8_t PhaseCal = 0;
 698:Api\core\src/vl53l0x_api_calibration.c **** 	uint32_t refSpadCount_int = 0;
 699:Api\core\src/vl53l0x_api_calibration.c **** 	uint8_t	 isApertureSpads_int = 0;
 700:Api\core\src/vl53l0x_api_calibration.c **** 
 701:Api\core\src/vl53l0x_api_calibration.c **** 	/*
 702:Api\core\src/vl53l0x_api_calibration.c **** 	 * The reference SPAD initialization procedure determines the minimum
 703:Api\core\src/vl53l0x_api_calibration.c **** 	 * amount of reference spads to be enables to achieve a target reference
 704:Api\core\src/vl53l0x_api_calibration.c **** 	 * signal rate and should be performed once during initialization.
 705:Api\core\src/vl53l0x_api_calibration.c **** 	 *
 706:Api\core\src/vl53l0x_api_calibration.c **** 	 * Either aperture or non-aperture spads are applied but never both.
 707:Api\core\src/vl53l0x_api_calibration.c **** 	 * Firstly non-aperture spads are set, begining with 5 spads, and
 708:Api\core\src/vl53l0x_api_calibration.c **** 	 * increased one spad at a time until the closest measurement to the
 709:Api\core\src/vl53l0x_api_calibration.c **** 	 * target rate is achieved.
 710:Api\core\src/vl53l0x_api_calibration.c **** 	 *
 711:Api\core\src/vl53l0x_api_calibration.c **** 	 * If the target rate is exceeded when 5 non-aperture spads are enabled,
 712:Api\core\src/vl53l0x_api_calibration.c **** 	 * initialization is performed instead with aperture spads.
 713:Api\core\src/vl53l0x_api_calibration.c **** 	 *
 714:Api\core\src/vl53l0x_api_calibration.c **** 	 * When setting spads, a 'Good Spad Map' is applied.
 715:Api\core\src/vl53l0x_api_calibration.c **** 	 *
 716:Api\core\src/vl53l0x_api_calibration.c **** 	 * This procedure operates within a SPAD window of interest of a maximum
 717:Api\core\src/vl53l0x_api_calibration.c **** 	 * 44 spads.
 718:Api\core\src/vl53l0x_api_calibration.c **** 	 * The start point is currently fixed to 180, which lies towards the end
 719:Api\core\src/vl53l0x_api_calibration.c **** 	 * of the non-aperture quadrant and runs in to the adjacent aperture
 720:Api\core\src/vl53l0x_api_calibration.c **** 	 * quadrant.
ARM GAS  C:\Users\Rajesh\AppData\Local\Temp\ccFou9eL.s 			page 41


 721:Api\core\src/vl53l0x_api_calibration.c **** 	 */
 722:Api\core\src/vl53l0x_api_calibration.c **** 
 723:Api\core\src/vl53l0x_api_calibration.c **** 
 724:Api\core\src/vl53l0x_api_calibration.c **** 	targetRefRate = PALDevDataGet(Dev, targetRefRate);
 725:Api\core\src/vl53l0x_api_calibration.c **** 
 726:Api\core\src/vl53l0x_api_calibration.c **** 	/*
 727:Api\core\src/vl53l0x_api_calibration.c **** 	 * Initialize Spad arrays.
 728:Api\core\src/vl53l0x_api_calibration.c **** 	 * Currently the good spad map is initialised to 'All good'.
 729:Api\core\src/vl53l0x_api_calibration.c **** 	 * This is a short term implementation. The good spad map will be
 730:Api\core\src/vl53l0x_api_calibration.c **** 	 * provided as an input.
 731:Api\core\src/vl53l0x_api_calibration.c **** 	 * Note that there are 6 bytes. Only the first 44 bits will be used to
 732:Api\core\src/vl53l0x_api_calibration.c **** 	 * represent spads.
 733:Api\core\src/vl53l0x_api_calibration.c **** 	 */
 734:Api\core\src/vl53l0x_api_calibration.c **** 	for (index = 0; index < spadArraySize; index++)
 735:Api\core\src/vl53l0x_api_calibration.c **** 		Dev->Data.SpadData.RefSpadEnables[index] = 0;
 736:Api\core\src/vl53l0x_api_calibration.c **** 
 737:Api\core\src/vl53l0x_api_calibration.c **** 
 738:Api\core\src/vl53l0x_api_calibration.c **** 	Status = VL53L0X_WrByte(Dev, 0xFF, 0x01);
 739:Api\core\src/vl53l0x_api_calibration.c **** 
 740:Api\core\src/vl53l0x_api_calibration.c **** 	if (Status == VL53L0X_ERROR_NONE)
 741:Api\core\src/vl53l0x_api_calibration.c **** 		Status = VL53L0X_WrByte(Dev,
 742:Api\core\src/vl53l0x_api_calibration.c **** 			VL53L0X_REG_DYNAMIC_SPAD_REF_EN_START_OFFSET, 0x00);
 743:Api\core\src/vl53l0x_api_calibration.c **** 
 744:Api\core\src/vl53l0x_api_calibration.c **** 	if (Status == VL53L0X_ERROR_NONE)
 745:Api\core\src/vl53l0x_api_calibration.c **** 		Status = VL53L0X_WrByte(Dev,
 746:Api\core\src/vl53l0x_api_calibration.c **** 			VL53L0X_REG_DYNAMIC_SPAD_NUM_REQUESTED_REF_SPAD, 0x2C);
 747:Api\core\src/vl53l0x_api_calibration.c **** 
 748:Api\core\src/vl53l0x_api_calibration.c **** 	if (Status == VL53L0X_ERROR_NONE)
 749:Api\core\src/vl53l0x_api_calibration.c **** 		Status = VL53L0X_WrByte(Dev, 0xFF, 0x00);
 750:Api\core\src/vl53l0x_api_calibration.c **** 
 751:Api\core\src/vl53l0x_api_calibration.c **** 	if (Status == VL53L0X_ERROR_NONE)
 752:Api\core\src/vl53l0x_api_calibration.c **** 		Status = VL53L0X_WrByte(Dev,
 753:Api\core\src/vl53l0x_api_calibration.c **** 			VL53L0X_REG_GLOBAL_CONFIG_REF_EN_START_SELECT,
 754:Api\core\src/vl53l0x_api_calibration.c **** 			startSelect);
 755:Api\core\src/vl53l0x_api_calibration.c **** 
 756:Api\core\src/vl53l0x_api_calibration.c **** 
 757:Api\core\src/vl53l0x_api_calibration.c **** 	if (Status == VL53L0X_ERROR_NONE)
 758:Api\core\src/vl53l0x_api_calibration.c **** 		Status = VL53L0X_WrByte(Dev,
 759:Api\core\src/vl53l0x_api_calibration.c **** 				VL53L0X_REG_POWER_MANAGEMENT_GO1_POWER_FORCE, 0);
 760:Api\core\src/vl53l0x_api_calibration.c **** 
 761:Api\core\src/vl53l0x_api_calibration.c **** 	/* Perform ref calibration */
 762:Api\core\src/vl53l0x_api_calibration.c **** 	if (Status == VL53L0X_ERROR_NONE)
 763:Api\core\src/vl53l0x_api_calibration.c **** 		Status = VL53L0X_perform_ref_calibration(Dev, &VhvSettings,
 764:Api\core\src/vl53l0x_api_calibration.c **** 			&PhaseCal, 0);
 765:Api\core\src/vl53l0x_api_calibration.c **** 
 766:Api\core\src/vl53l0x_api_calibration.c **** 	if (Status == VL53L0X_ERROR_NONE) {
 767:Api\core\src/vl53l0x_api_calibration.c **** 		/* Enable Minimum NON-APERTURE Spads */
 768:Api\core\src/vl53l0x_api_calibration.c **** 		currentSpadIndex = 0;
 769:Api\core\src/vl53l0x_api_calibration.c **** 		lastSpadIndex = currentSpadIndex;
 770:Api\core\src/vl53l0x_api_calibration.c **** 		needAptSpads = 0;
 771:Api\core\src/vl53l0x_api_calibration.c **** 		Status = enable_ref_spads(Dev,
 772:Api\core\src/vl53l0x_api_calibration.c **** 					needAptSpads,
 773:Api\core\src/vl53l0x_api_calibration.c **** 					Dev->Data.SpadData.RefGoodSpadMap,
 774:Api\core\src/vl53l0x_api_calibration.c **** 					Dev->Data.SpadData.RefSpadEnables,
 775:Api\core\src/vl53l0x_api_calibration.c **** 					spadArraySize,
 776:Api\core\src/vl53l0x_api_calibration.c **** 					startSelect,
 777:Api\core\src/vl53l0x_api_calibration.c **** 					currentSpadIndex,
ARM GAS  C:\Users\Rajesh\AppData\Local\Temp\ccFou9eL.s 			page 42


 778:Api\core\src/vl53l0x_api_calibration.c **** 					minimumSpadCount,
 779:Api\core\src/vl53l0x_api_calibration.c **** 					&lastSpadIndex);
 780:Api\core\src/vl53l0x_api_calibration.c **** 	}
 781:Api\core\src/vl53l0x_api_calibration.c **** 
 782:Api\core\src/vl53l0x_api_calibration.c **** 	if (Status == VL53L0X_ERROR_NONE) {
 783:Api\core\src/vl53l0x_api_calibration.c **** 		currentSpadIndex = lastSpadIndex;
 784:Api\core\src/vl53l0x_api_calibration.c **** 
 785:Api\core\src/vl53l0x_api_calibration.c **** 		Status = perform_ref_signal_measurement(Dev,
 786:Api\core\src/vl53l0x_api_calibration.c **** 			&peakSignalRateRef);
 787:Api\core\src/vl53l0x_api_calibration.c **** 		if ((Status == VL53L0X_ERROR_NONE) &&
 788:Api\core\src/vl53l0x_api_calibration.c **** 			(peakSignalRateRef > targetRefRate)) {
 789:Api\core\src/vl53l0x_api_calibration.c **** 			/* Signal rate measurement too high,
 790:Api\core\src/vl53l0x_api_calibration.c **** 			 * switch to APERTURE SPADs */
 791:Api\core\src/vl53l0x_api_calibration.c **** 
 792:Api\core\src/vl53l0x_api_calibration.c **** 			for (index = 0; index < spadArraySize; index++)
 793:Api\core\src/vl53l0x_api_calibration.c **** 				Dev->Data.SpadData.RefSpadEnables[index] = 0;
 794:Api\core\src/vl53l0x_api_calibration.c **** 
 795:Api\core\src/vl53l0x_api_calibration.c **** 
 796:Api\core\src/vl53l0x_api_calibration.c **** 			/* Increment to the first APERTURE spad */
 797:Api\core\src/vl53l0x_api_calibration.c **** 			while ((is_aperture(startSelect + currentSpadIndex)
 798:Api\core\src/vl53l0x_api_calibration.c **** 				== 0) && (currentSpadIndex < maxSpadCount)) {
 799:Api\core\src/vl53l0x_api_calibration.c **** 				currentSpadIndex++;
 800:Api\core\src/vl53l0x_api_calibration.c **** 			}
 801:Api\core\src/vl53l0x_api_calibration.c **** 
 802:Api\core\src/vl53l0x_api_calibration.c **** 			needAptSpads = 1;
 803:Api\core\src/vl53l0x_api_calibration.c **** 
 804:Api\core\src/vl53l0x_api_calibration.c **** 			Status = enable_ref_spads(Dev,
 805:Api\core\src/vl53l0x_api_calibration.c **** 					needAptSpads,
 806:Api\core\src/vl53l0x_api_calibration.c **** 					Dev->Data.SpadData.RefGoodSpadMap,
 807:Api\core\src/vl53l0x_api_calibration.c **** 					Dev->Data.SpadData.RefSpadEnables,
 808:Api\core\src/vl53l0x_api_calibration.c **** 					spadArraySize,
 809:Api\core\src/vl53l0x_api_calibration.c **** 					startSelect,
 810:Api\core\src/vl53l0x_api_calibration.c **** 					currentSpadIndex,
 811:Api\core\src/vl53l0x_api_calibration.c **** 					minimumSpadCount,
 812:Api\core\src/vl53l0x_api_calibration.c **** 					&lastSpadIndex);
 813:Api\core\src/vl53l0x_api_calibration.c **** 
 814:Api\core\src/vl53l0x_api_calibration.c **** 			if (Status == VL53L0X_ERROR_NONE) {
 815:Api\core\src/vl53l0x_api_calibration.c **** 				currentSpadIndex = lastSpadIndex;
 816:Api\core\src/vl53l0x_api_calibration.c **** 				Status = perform_ref_signal_measurement(Dev,
 817:Api\core\src/vl53l0x_api_calibration.c **** 						&peakSignalRateRef);
 818:Api\core\src/vl53l0x_api_calibration.c **** 
 819:Api\core\src/vl53l0x_api_calibration.c **** 				if ((Status == VL53L0X_ERROR_NONE) &&
 820:Api\core\src/vl53l0x_api_calibration.c **** 					(peakSignalRateRef > targetRefRate)) {
 821:Api\core\src/vl53l0x_api_calibration.c **** 					/* Signal rate still too high after
 822:Api\core\src/vl53l0x_api_calibration.c **** 					 * setting the minimum number of
 823:Api\core\src/vl53l0x_api_calibration.c **** 					 * APERTURE spads. Can do no more
 824:Api\core\src/vl53l0x_api_calibration.c **** 					 * therefore set the min number of
 825:Api\core\src/vl53l0x_api_calibration.c **** 					 * aperture spads as the result.
 826:Api\core\src/vl53l0x_api_calibration.c **** 					 */
 827:Api\core\src/vl53l0x_api_calibration.c **** 					isApertureSpads_int = 1;
 828:Api\core\src/vl53l0x_api_calibration.c **** 					refSpadCount_int = minimumSpadCount;
 829:Api\core\src/vl53l0x_api_calibration.c **** 				}
 830:Api\core\src/vl53l0x_api_calibration.c **** 			}
 831:Api\core\src/vl53l0x_api_calibration.c **** 		} else {
 832:Api\core\src/vl53l0x_api_calibration.c **** 			needAptSpads = 0;
 833:Api\core\src/vl53l0x_api_calibration.c **** 		}
 834:Api\core\src/vl53l0x_api_calibration.c **** 	}
ARM GAS  C:\Users\Rajesh\AppData\Local\Temp\ccFou9eL.s 			page 43


 835:Api\core\src/vl53l0x_api_calibration.c **** 
 836:Api\core\src/vl53l0x_api_calibration.c **** 	if ((Status == VL53L0X_ERROR_NONE) &&
 837:Api\core\src/vl53l0x_api_calibration.c **** 		(peakSignalRateRef < targetRefRate)) {
 838:Api\core\src/vl53l0x_api_calibration.c **** 		/* At this point, the minimum number of either aperture
 839:Api\core\src/vl53l0x_api_calibration.c **** 		 * or non-aperture spads have been set. Proceed to add
 840:Api\core\src/vl53l0x_api_calibration.c **** 		 * spads and perform measurements until the target
 841:Api\core\src/vl53l0x_api_calibration.c **** 		 * reference is reached.
 842:Api\core\src/vl53l0x_api_calibration.c **** 		 */
 843:Api\core\src/vl53l0x_api_calibration.c **** 		isApertureSpads_int = needAptSpads;
 844:Api\core\src/vl53l0x_api_calibration.c **** 		refSpadCount_int	= minimumSpadCount;
 845:Api\core\src/vl53l0x_api_calibration.c **** 
 846:Api\core\src/vl53l0x_api_calibration.c **** 		memcpy(lastSpadArray, Dev->Data.SpadData.RefSpadEnables,
 847:Api\core\src/vl53l0x_api_calibration.c **** 				spadArraySize);
 848:Api\core\src/vl53l0x_api_calibration.c **** 		lastSignalRateDiff = abs(peakSignalRateRef -
 849:Api\core\src/vl53l0x_api_calibration.c **** 			targetRefRate);
 850:Api\core\src/vl53l0x_api_calibration.c **** 		complete = 0;
 851:Api\core\src/vl53l0x_api_calibration.c **** 
 852:Api\core\src/vl53l0x_api_calibration.c **** 		while (!complete) {
 853:Api\core\src/vl53l0x_api_calibration.c **** 			get_next_good_spad(
 854:Api\core\src/vl53l0x_api_calibration.c **** 				Dev->Data.SpadData.RefGoodSpadMap,
 855:Api\core\src/vl53l0x_api_calibration.c **** 				spadArraySize, currentSpadIndex,
 856:Api\core\src/vl53l0x_api_calibration.c **** 				&nextGoodSpad);
 857:Api\core\src/vl53l0x_api_calibration.c **** 
 858:Api\core\src/vl53l0x_api_calibration.c **** 			if (nextGoodSpad == -1) {
 859:Api\core\src/vl53l0x_api_calibration.c **** 				Status = VL53L0X_ERROR_REF_SPAD_INIT;
 860:Api\core\src/vl53l0x_api_calibration.c **** 				break;
 861:Api\core\src/vl53l0x_api_calibration.c **** 			}
 862:Api\core\src/vl53l0x_api_calibration.c **** 
 863:Api\core\src/vl53l0x_api_calibration.c **** 			/* Cannot combine Aperture and Non-Aperture spads, so
 864:Api\core\src/vl53l0x_api_calibration.c **** 			 * ensure the current spad is of the correct type.
 865:Api\core\src/vl53l0x_api_calibration.c **** 			 */
 866:Api\core\src/vl53l0x_api_calibration.c **** 			if (is_aperture((uint32_t)startSelect + nextGoodSpad) !=
 867:Api\core\src/vl53l0x_api_calibration.c **** 					needAptSpads) {
 868:Api\core\src/vl53l0x_api_calibration.c **** 				/* At this point we have enabled the maximum
 869:Api\core\src/vl53l0x_api_calibration.c **** 				 * number of Aperture spads.
 870:Api\core\src/vl53l0x_api_calibration.c **** 				 */
 871:Api\core\src/vl53l0x_api_calibration.c **** 				complete = 1;
 872:Api\core\src/vl53l0x_api_calibration.c **** 				break;
 873:Api\core\src/vl53l0x_api_calibration.c **** 			}
 874:Api\core\src/vl53l0x_api_calibration.c **** 
 875:Api\core\src/vl53l0x_api_calibration.c **** 			(refSpadCount_int)++;
 876:Api\core\src/vl53l0x_api_calibration.c **** 
 877:Api\core\src/vl53l0x_api_calibration.c **** 			currentSpadIndex = nextGoodSpad;
 878:Api\core\src/vl53l0x_api_calibration.c **** 			Status = enable_spad_bit(
 879:Api\core\src/vl53l0x_api_calibration.c **** 					Dev->Data.SpadData.RefSpadEnables,
 880:Api\core\src/vl53l0x_api_calibration.c **** 					spadArraySize, currentSpadIndex);
 881:Api\core\src/vl53l0x_api_calibration.c **** 
 882:Api\core\src/vl53l0x_api_calibration.c **** 			if (Status == VL53L0X_ERROR_NONE) {
 883:Api\core\src/vl53l0x_api_calibration.c **** 				currentSpadIndex++;
 884:Api\core\src/vl53l0x_api_calibration.c **** 				/* Proceed to apply the additional spad and
 885:Api\core\src/vl53l0x_api_calibration.c **** 				 * perform measurement. */
 886:Api\core\src/vl53l0x_api_calibration.c **** 				Status = set_ref_spad_map(Dev,
 887:Api\core\src/vl53l0x_api_calibration.c **** 					Dev->Data.SpadData.RefSpadEnables);
 888:Api\core\src/vl53l0x_api_calibration.c **** 			}
 889:Api\core\src/vl53l0x_api_calibration.c **** 
 890:Api\core\src/vl53l0x_api_calibration.c **** 			if (Status != VL53L0X_ERROR_NONE)
 891:Api\core\src/vl53l0x_api_calibration.c **** 				break;
ARM GAS  C:\Users\Rajesh\AppData\Local\Temp\ccFou9eL.s 			page 44


 892:Api\core\src/vl53l0x_api_calibration.c **** 
 893:Api\core\src/vl53l0x_api_calibration.c **** 			Status = perform_ref_signal_measurement(Dev,
 894:Api\core\src/vl53l0x_api_calibration.c **** 					&peakSignalRateRef);
 895:Api\core\src/vl53l0x_api_calibration.c **** 
 896:Api\core\src/vl53l0x_api_calibration.c **** 			if (Status != VL53L0X_ERROR_NONE)
 897:Api\core\src/vl53l0x_api_calibration.c **** 				break;
 898:Api\core\src/vl53l0x_api_calibration.c **** 
 899:Api\core\src/vl53l0x_api_calibration.c **** 			signalRateDiff = abs(peakSignalRateRef - targetRefRate);
 900:Api\core\src/vl53l0x_api_calibration.c **** 
 901:Api\core\src/vl53l0x_api_calibration.c **** 			if (peakSignalRateRef > targetRefRate) {
 902:Api\core\src/vl53l0x_api_calibration.c **** 				/* Select the spad map that provides the
 903:Api\core\src/vl53l0x_api_calibration.c **** 				 * measurement closest to the target rate,
 904:Api\core\src/vl53l0x_api_calibration.c **** 				 * either above or below it.
 905:Api\core\src/vl53l0x_api_calibration.c **** 				 */
 906:Api\core\src/vl53l0x_api_calibration.c **** 				if (signalRateDiff > lastSignalRateDiff) {
 907:Api\core\src/vl53l0x_api_calibration.c **** 					/* Previous spad map produced a closer
 908:Api\core\src/vl53l0x_api_calibration.c **** 					 * measurement, so choose this. */
 909:Api\core\src/vl53l0x_api_calibration.c **** 					Status = set_ref_spad_map(Dev,
 910:Api\core\src/vl53l0x_api_calibration.c **** 							lastSpadArray);
 911:Api\core\src/vl53l0x_api_calibration.c **** 					memcpy(
 912:Api\core\src/vl53l0x_api_calibration.c **** 					Dev->Data.SpadData.RefSpadEnables,
 913:Api\core\src/vl53l0x_api_calibration.c **** 					lastSpadArray, spadArraySize);
 914:Api\core\src/vl53l0x_api_calibration.c **** 
 915:Api\core\src/vl53l0x_api_calibration.c **** 					(refSpadCount_int)--;
 916:Api\core\src/vl53l0x_api_calibration.c **** 				}
 917:Api\core\src/vl53l0x_api_calibration.c **** 				complete = 1;
 918:Api\core\src/vl53l0x_api_calibration.c **** 			} else {
 919:Api\core\src/vl53l0x_api_calibration.c **** 				/* Continue to add spads */
 920:Api\core\src/vl53l0x_api_calibration.c **** 				lastSignalRateDiff = signalRateDiff;
 921:Api\core\src/vl53l0x_api_calibration.c **** 				memcpy(lastSpadArray,
 922:Api\core\src/vl53l0x_api_calibration.c **** 					Dev->Data.SpadData.RefSpadEnables,
 923:Api\core\src/vl53l0x_api_calibration.c **** 					spadArraySize);
 924:Api\core\src/vl53l0x_api_calibration.c **** 			}
 925:Api\core\src/vl53l0x_api_calibration.c **** 
 926:Api\core\src/vl53l0x_api_calibration.c **** 		} /* while */
 927:Api\core\src/vl53l0x_api_calibration.c **** 	}
 928:Api\core\src/vl53l0x_api_calibration.c **** 
 929:Api\core\src/vl53l0x_api_calibration.c **** 	if (Status == VL53L0X_ERROR_NONE) {
 930:Api\core\src/vl53l0x_api_calibration.c **** 		*refSpadCount = refSpadCount_int;
 931:Api\core\src/vl53l0x_api_calibration.c **** 		*isApertureSpads = isApertureSpads_int;
 932:Api\core\src/vl53l0x_api_calibration.c **** 
 933:Api\core\src/vl53l0x_api_calibration.c **** 		VL53L0X_SETDEVICESPECIFICPARAMETER(Dev, RefSpadsInitialised, 1);
 934:Api\core\src/vl53l0x_api_calibration.c **** 		VL53L0X_SETDEVICESPECIFICPARAMETER(Dev,
 935:Api\core\src/vl53l0x_api_calibration.c **** 			ReferenceSpadCount, (uint8_t)(*refSpadCount));
 936:Api\core\src/vl53l0x_api_calibration.c **** 		VL53L0X_SETDEVICESPECIFICPARAMETER(Dev,
 937:Api\core\src/vl53l0x_api_calibration.c **** 			ReferenceSpadType, *isApertureSpads);
 938:Api\core\src/vl53l0x_api_calibration.c **** 	}
 939:Api\core\src/vl53l0x_api_calibration.c **** 
 940:Api\core\src/vl53l0x_api_calibration.c **** 	return Status;
 941:Api\core\src/vl53l0x_api_calibration.c **** }
 942:Api\core\src/vl53l0x_api_calibration.c **** 
 943:Api\core\src/vl53l0x_api_calibration.c **** VL53L0X_Error VL53L0X_set_reference_spads(VL53L0X_DEV Dev,
 944:Api\core\src/vl53l0x_api_calibration.c **** 				 uint32_t count, uint8_t isApertureSpads)
 945:Api\core\src/vl53l0x_api_calibration.c **** {
 1511              		.loc 1 945 0
 1512              		.cfi_startproc
 1513              		@ args = 0, pretend = 0, frame = 8
ARM GAS  C:\Users\Rajesh\AppData\Local\Temp\ccFou9eL.s 			page 45


 1514              		@ frame_needed = 0, uses_anonymous_args = 0
 1515              	.LVL248:
 1516 0000 F0B5     		push	{r4, r5, r6, r7, lr}
 1517              		.cfi_def_cfa_offset 20
 1518              		.cfi_offset 4, -20
 1519              		.cfi_offset 5, -16
 1520              		.cfi_offset 6, -12
 1521              		.cfi_offset 7, -8
 1522              		.cfi_offset 14, -4
 1523 0002 89B0     		sub	sp, sp, #36
 1524              		.cfi_def_cfa_offset 56
 1525 0004 0500     		movs	r5, r0
 1526 0006 0F00     		movs	r7, r1
 1527 0008 1600     		movs	r6, r2
 1528              	.LVL249:
 946:Api\core\src/vl53l0x_api_calibration.c **** 	VL53L0X_Error Status = VL53L0X_ERROR_NONE;
 947:Api\core\src/vl53l0x_api_calibration.c **** 	uint32_t currentSpadIndex = 0;
 948:Api\core\src/vl53l0x_api_calibration.c **** 	uint8_t startSelect = 0xB4;
 949:Api\core\src/vl53l0x_api_calibration.c **** 	uint32_t spadArraySize = 6;
 950:Api\core\src/vl53l0x_api_calibration.c **** 	uint32_t maxSpadCount = 44;
 951:Api\core\src/vl53l0x_api_calibration.c **** 	uint32_t lastSpadIndex;
 952:Api\core\src/vl53l0x_api_calibration.c **** 	uint32_t index;
 953:Api\core\src/vl53l0x_api_calibration.c **** 
 954:Api\core\src/vl53l0x_api_calibration.c **** 	/*
 955:Api\core\src/vl53l0x_api_calibration.c **** 	 * This function applies a requested number of reference spads, either
 956:Api\core\src/vl53l0x_api_calibration.c **** 	 * aperture or
 957:Api\core\src/vl53l0x_api_calibration.c **** 	 * non-aperture, as requested.
 958:Api\core\src/vl53l0x_api_calibration.c **** 	 * The good spad map will be applied.
 959:Api\core\src/vl53l0x_api_calibration.c **** 	 */
 960:Api\core\src/vl53l0x_api_calibration.c **** 
 961:Api\core\src/vl53l0x_api_calibration.c **** 	Status = VL53L0X_WrByte(Dev, 0xFF, 0x01);
 1529              		.loc 1 961 0
 1530 000a 0122     		movs	r2, #1
 1531              	.LVL250:
 1532 000c FF21     		movs	r1, #255
 1533              	.LVL251:
 1534 000e FFF7FEFF 		bl	VL53L0X_WrByte
 1535              	.LVL252:
 962:Api\core\src/vl53l0x_api_calibration.c **** 
 963:Api\core\src/vl53l0x_api_calibration.c **** 	if (Status == VL53L0X_ERROR_NONE)
 1536              		.loc 1 963 0
 1537 0012 0028     		cmp	r0, #0
 1538 0014 04D1     		bne	.L102
 964:Api\core\src/vl53l0x_api_calibration.c **** 		Status = VL53L0X_WrByte(Dev,
 1539              		.loc 1 964 0
 1540 0016 0022     		movs	r2, #0
 1541 0018 4F21     		movs	r1, #79
 1542 001a 2800     		movs	r0, r5
 1543              	.LVL253:
 1544 001c FFF7FEFF 		bl	VL53L0X_WrByte
 1545              	.LVL254:
 1546              	.L102:
 965:Api\core\src/vl53l0x_api_calibration.c **** 			VL53L0X_REG_DYNAMIC_SPAD_REF_EN_START_OFFSET, 0x00);
 966:Api\core\src/vl53l0x_api_calibration.c **** 
 967:Api\core\src/vl53l0x_api_calibration.c **** 	if (Status == VL53L0X_ERROR_NONE)
 1547              		.loc 1 967 0
 1548 0020 0028     		cmp	r0, #0
ARM GAS  C:\Users\Rajesh\AppData\Local\Temp\ccFou9eL.s 			page 46


 1549 0022 04D1     		bne	.L103
 968:Api\core\src/vl53l0x_api_calibration.c **** 		Status = VL53L0X_WrByte(Dev,
 1550              		.loc 1 968 0
 1551 0024 2C22     		movs	r2, #44
 1552 0026 4E21     		movs	r1, #78
 1553 0028 2800     		movs	r0, r5
 1554              	.LVL255:
 1555 002a FFF7FEFF 		bl	VL53L0X_WrByte
 1556              	.LVL256:
 1557              	.L103:
 969:Api\core\src/vl53l0x_api_calibration.c **** 			VL53L0X_REG_DYNAMIC_SPAD_NUM_REQUESTED_REF_SPAD, 0x2C);
 970:Api\core\src/vl53l0x_api_calibration.c **** 
 971:Api\core\src/vl53l0x_api_calibration.c **** 	if (Status == VL53L0X_ERROR_NONE)
 1558              		.loc 1 971 0
 1559 002e 0028     		cmp	r0, #0
 1560 0030 04D1     		bne	.L104
 972:Api\core\src/vl53l0x_api_calibration.c **** 		Status = VL53L0X_WrByte(Dev, 0xFF, 0x00);
 1561              		.loc 1 972 0
 1562 0032 0022     		movs	r2, #0
 1563 0034 FF21     		movs	r1, #255
 1564 0036 2800     		movs	r0, r5
 1565              	.LVL257:
 1566 0038 FFF7FEFF 		bl	VL53L0X_WrByte
 1567              	.LVL258:
 1568              	.L104:
 973:Api\core\src/vl53l0x_api_calibration.c **** 
 974:Api\core\src/vl53l0x_api_calibration.c **** 	if (Status == VL53L0X_ERROR_NONE)
 1569              		.loc 1 974 0
 1570 003c 0028     		cmp	r0, #0
 1571 003e 04D1     		bne	.L105
 975:Api\core\src/vl53l0x_api_calibration.c **** 		Status = VL53L0X_WrByte(Dev,
 1572              		.loc 1 975 0
 1573 0040 B422     		movs	r2, #180
 1574 0042 B621     		movs	r1, #182
 1575 0044 2800     		movs	r0, r5
 1576              	.LVL259:
 1577 0046 FFF7FEFF 		bl	VL53L0X_WrByte
 1578              	.LVL260:
 1579              	.L105:
 945:Api\core\src/vl53l0x_api_calibration.c **** 	VL53L0X_Error Status = VL53L0X_ERROR_NONE;
 1580              		.loc 1 945 0 discriminator 1
 1581 004a 0023     		movs	r3, #0
 1582 004c 05E0     		b	.L106
 1583              	.LVL261:
 1584              	.L107:
 976:Api\core\src/vl53l0x_api_calibration.c **** 			VL53L0X_REG_GLOBAL_CONFIG_REF_EN_START_SELECT,
 977:Api\core\src/vl53l0x_api_calibration.c **** 			startSelect);
 978:Api\core\src/vl53l0x_api_calibration.c **** 
 979:Api\core\src/vl53l0x_api_calibration.c **** 	for (index = 0; index < spadArraySize; index++)
 980:Api\core\src/vl53l0x_api_calibration.c **** 		Dev->Data.SpadData.RefSpadEnables[index] = 0;
 1585              		.loc 1 980 0 discriminator 3
 1586 004e EA18     		adds	r2, r5, r3
 1587 0050 2532     		adds	r2, r2, #37
 1588 0052 FF32     		adds	r2, r2, #255
 1589 0054 0021     		movs	r1, #0
 1590 0056 1170     		strb	r1, [r2]
 979:Api\core\src/vl53l0x_api_calibration.c **** 		Dev->Data.SpadData.RefSpadEnables[index] = 0;
ARM GAS  C:\Users\Rajesh\AppData\Local\Temp\ccFou9eL.s 			page 47


 1591              		.loc 1 979 0 discriminator 3
 1592 0058 0133     		adds	r3, r3, #1
 1593              	.LVL262:
 1594              	.L106:
 979:Api\core\src/vl53l0x_api_calibration.c **** 		Dev->Data.SpadData.RefSpadEnables[index] = 0;
 1595              		.loc 1 979 0 is_stmt 0 discriminator 1
 1596 005a 052B     		cmp	r3, #5
 1597 005c F7D9     		bls	.L107
 981:Api\core\src/vl53l0x_api_calibration.c **** 
 982:Api\core\src/vl53l0x_api_calibration.c **** 	if (isApertureSpads) {
 1598              		.loc 1 982 0 is_stmt 1
 1599 005e 002E     		cmp	r6, #0
 1600 0060 03D1     		bne	.L112
 947:Api\core\src/vl53l0x_api_calibration.c **** 	uint8_t startSelect = 0xB4;
 1601              		.loc 1 947 0
 1602 0062 0024     		movs	r4, #0
 1603 0064 0AE0     		b	.L109
 1604              	.LVL263:
 1605              	.L110:
 983:Api\core\src/vl53l0x_api_calibration.c **** 		/* Increment to the first APERTURE spad */
 984:Api\core\src/vl53l0x_api_calibration.c **** 		while ((is_aperture(startSelect + currentSpadIndex) == 0) &&
 985:Api\core\src/vl53l0x_api_calibration.c **** 			  (currentSpadIndex < maxSpadCount)) {
 986:Api\core\src/vl53l0x_api_calibration.c **** 			currentSpadIndex++;
 1606              		.loc 1 986 0
 1607 0066 0134     		adds	r4, r4, #1
 1608              	.LVL264:
 1609 0068 00E0     		b	.L108
 1610              	.LVL265:
 1611              	.L112:
 1612 006a 0024     		movs	r4, #0
 1613              	.LVL266:
 1614              	.L108:
 984:Api\core\src/vl53l0x_api_calibration.c **** 			  (currentSpadIndex < maxSpadCount)) {
 1615              		.loc 1 984 0
 1616 006c 2000     		movs	r0, r4
 1617 006e B430     		adds	r0, r0, #180
 1618 0070 FFF7FEFF 		bl	is_aperture
 1619              	.LVL267:
 1620 0074 0028     		cmp	r0, #0
 1621 0076 01D1     		bne	.L109
 984:Api\core\src/vl53l0x_api_calibration.c **** 			  (currentSpadIndex < maxSpadCount)) {
 1622              		.loc 1 984 0 is_stmt 0 discriminator 1
 1623 0078 2B2C     		cmp	r4, #43
 1624 007a F4D9     		bls	.L110
 1625              	.LVL268:
 1626              	.L109:
 987:Api\core\src/vl53l0x_api_calibration.c **** 		}
 988:Api\core\src/vl53l0x_api_calibration.c **** 	}
 989:Api\core\src/vl53l0x_api_calibration.c **** 	Status = enable_ref_spads(Dev,
 990:Api\core\src/vl53l0x_api_calibration.c **** 				isApertureSpads,
 991:Api\core\src/vl53l0x_api_calibration.c **** 				Dev->Data.SpadData.RefGoodSpadMap,
 992:Api\core\src/vl53l0x_api_calibration.c **** 				Dev->Data.SpadData.RefSpadEnables,
 1627              		.loc 1 992 0 is_stmt 1
 1628 007c 2B00     		movs	r3, r5
 1629 007e 2533     		adds	r3, r3, #37
 1630 0080 FF33     		adds	r3, r3, #255
 989:Api\core\src/vl53l0x_api_calibration.c **** 				isApertureSpads,
ARM GAS  C:\Users\Rajesh\AppData\Local\Temp\ccFou9eL.s 			page 48


 1631              		.loc 1 989 0
 1632 0082 07AA     		add	r2, sp, #28
 1633 0084 0492     		str	r2, [sp, #16]
 1634 0086 0397     		str	r7, [sp, #12]
 1635 0088 0294     		str	r4, [sp, #8]
 1636 008a B422     		movs	r2, #180
 1637 008c 0192     		str	r2, [sp, #4]
 1638 008e AE3A     		subs	r2, r2, #174
 1639 0090 0092     		str	r2, [sp]
 1640 0092 2A00     		movs	r2, r5
 1641 0094 2B32     		adds	r2, r2, #43
 1642 0096 FF32     		adds	r2, r2, #255
 1643 0098 3100     		movs	r1, r6
 1644 009a 2800     		movs	r0, r5
 1645 009c FFF7FEFF 		bl	enable_ref_spads
 1646              	.LVL269:
 993:Api\core\src/vl53l0x_api_calibration.c **** 				spadArraySize,
 994:Api\core\src/vl53l0x_api_calibration.c **** 				startSelect,
 995:Api\core\src/vl53l0x_api_calibration.c **** 				currentSpadIndex,
 996:Api\core\src/vl53l0x_api_calibration.c **** 				count,
 997:Api\core\src/vl53l0x_api_calibration.c **** 				&lastSpadIndex);
 998:Api\core\src/vl53l0x_api_calibration.c **** 
 999:Api\core\src/vl53l0x_api_calibration.c **** 	if (Status == VL53L0X_ERROR_NONE) {
 1647              		.loc 1 999 0
 1648 00a0 0028     		cmp	r0, #0
 1649 00a2 08D1     		bne	.L111
1000:Api\core\src/vl53l0x_api_calibration.c **** 		VL53L0X_SETDEVICESPECIFICPARAMETER(Dev, RefSpadsInitialised, 1);
 1650              		.loc 1 1000 0
 1651 00a4 0122     		movs	r2, #1
 1652 00a6 1623     		movs	r3, #22
 1653 00a8 FF33     		adds	r3, r3, #255
 1654 00aa EA54     		strb	r2, [r5, r3]
1001:Api\core\src/vl53l0x_api_calibration.c **** 		VL53L0X_SETDEVICESPECIFICPARAMETER(Dev,
 1655              		.loc 1 1001 0
 1656 00ac 1423     		movs	r3, #20
 1657 00ae FF33     		adds	r3, r3, #255
 1658 00b0 EF54     		strb	r7, [r5, r3]
1002:Api\core\src/vl53l0x_api_calibration.c **** 			ReferenceSpadCount, (uint8_t)(count));
1003:Api\core\src/vl53l0x_api_calibration.c **** 		VL53L0X_SETDEVICESPECIFICPARAMETER(Dev,
 1659              		.loc 1 1003 0
 1660 00b2 0133     		adds	r3, r3, #1
 1661 00b4 EE54     		strb	r6, [r5, r3]
 1662              	.L111:
1004:Api\core\src/vl53l0x_api_calibration.c **** 			ReferenceSpadType, isApertureSpads);
1005:Api\core\src/vl53l0x_api_calibration.c **** 	}
1006:Api\core\src/vl53l0x_api_calibration.c **** 
1007:Api\core\src/vl53l0x_api_calibration.c **** 	return Status;
1008:Api\core\src/vl53l0x_api_calibration.c **** }
 1663              		.loc 1 1008 0
 1664 00b6 09B0     		add	sp, sp, #36
 1665              		@ sp needed
 1666              	.LVL270:
 1667              	.LVL271:
 1668              	.LVL272:
 1669 00b8 F0BD     		pop	{r4, r5, r6, r7, pc}
 1670              		.cfi_endproc
 1671              	.LFE15:
ARM GAS  C:\Users\Rajesh\AppData\Local\Temp\ccFou9eL.s 			page 49


 1672              		.size	VL53L0X_set_reference_spads, .-VL53L0X_set_reference_spads
 1673 00ba C046     		.section	.text.VL53L0X_get_reference_spads,"ax",%progbits
 1674              		.align	2
 1675              		.global	VL53L0X_get_reference_spads
 1676              		.code	16
 1677              		.thumb_func
 1678              		.type	VL53L0X_get_reference_spads, %function
 1679              	VL53L0X_get_reference_spads:
 1680              	.LFB16:
1009:Api\core\src/vl53l0x_api_calibration.c **** 
1010:Api\core\src/vl53l0x_api_calibration.c **** VL53L0X_Error VL53L0X_get_reference_spads(VL53L0X_DEV Dev,
1011:Api\core\src/vl53l0x_api_calibration.c **** 			uint32_t *pSpadCount, uint8_t *pIsApertureSpads)
1012:Api\core\src/vl53l0x_api_calibration.c **** {
 1681              		.loc 1 1012 0
 1682              		.cfi_startproc
 1683              		@ args = 0, pretend = 0, frame = 16
 1684              		@ frame_needed = 0, uses_anonymous_args = 0
 1685              	.LVL273:
 1686 0000 70B5     		push	{r4, r5, r6, lr}
 1687              		.cfi_def_cfa_offset 16
 1688              		.cfi_offset 4, -16
 1689              		.cfi_offset 5, -12
 1690              		.cfi_offset 6, -8
 1691              		.cfi_offset 14, -4
 1692 0002 86B0     		sub	sp, sp, #24
 1693              		.cfi_def_cfa_offset 40
 1694 0004 0400     		movs	r4, r0
 1695 0006 0E00     		movs	r6, r1
 1696 0008 1500     		movs	r5, r2
 1697              	.LVL274:
1013:Api\core\src/vl53l0x_api_calibration.c **** 	VL53L0X_Error Status = VL53L0X_ERROR_NONE;
1014:Api\core\src/vl53l0x_api_calibration.c **** 	uint8_t refSpadsInitialised;
1015:Api\core\src/vl53l0x_api_calibration.c **** 	uint8_t refSpadArray[6];
1016:Api\core\src/vl53l0x_api_calibration.c **** 	uint32_t cMaxSpadCount = 44;
1017:Api\core\src/vl53l0x_api_calibration.c **** 	uint32_t cSpadArraySize = 6;
1018:Api\core\src/vl53l0x_api_calibration.c **** 	uint32_t spadsEnabled;
1019:Api\core\src/vl53l0x_api_calibration.c **** 	uint8_t isApertureSpads = 0;
 1698              		.loc 1 1019 0
 1699 000a 0022     		movs	r2, #0
 1700              	.LVL275:
 1701 000c 0B23     		movs	r3, #11
 1702 000e 6B44     		add	r3, r3, sp
 1703 0010 1A70     		strb	r2, [r3]
1020:Api\core\src/vl53l0x_api_calibration.c **** 
1021:Api\core\src/vl53l0x_api_calibration.c **** 	refSpadsInitialised = VL53L0X_GETDEVICESPECIFICPARAMETER(Dev,
 1704              		.loc 1 1021 0
 1705 0012 1623     		movs	r3, #22
 1706 0014 FF33     		adds	r3, r3, #255
 1707 0016 C35C     		ldrb	r3, [r0, r3]
 1708              	.LVL276:
1022:Api\core\src/vl53l0x_api_calibration.c **** 					RefSpadsInitialised);
1023:Api\core\src/vl53l0x_api_calibration.c **** 
1024:Api\core\src/vl53l0x_api_calibration.c **** 	if (refSpadsInitialised == 1) {
 1709              		.loc 1 1024 0
 1710 0018 012B     		cmp	r3, #1
 1711 001a 09D1     		bne	.L114
1025:Api\core\src/vl53l0x_api_calibration.c **** 
ARM GAS  C:\Users\Rajesh\AppData\Local\Temp\ccFou9eL.s 			page 50


1026:Api\core\src/vl53l0x_api_calibration.c **** 		*pSpadCount = (uint32_t)VL53L0X_GETDEVICESPECIFICPARAMETER(Dev,
 1712              		.loc 1 1026 0
 1713 001c 1423     		movs	r3, #20
 1714              	.LVL277:
 1715 001e FF33     		adds	r3, r3, #255
 1716 0020 C35C     		ldrb	r3, [r0, r3]
 1717 0022 0B60     		str	r3, [r1]
 1718              	.LVL278:
1027:Api\core\src/vl53l0x_api_calibration.c **** 			ReferenceSpadCount);
1028:Api\core\src/vl53l0x_api_calibration.c **** 		*pIsApertureSpads = VL53L0X_GETDEVICESPECIFICPARAMETER(Dev,
 1719              		.loc 1 1028 0
 1720 0024 8A23     		movs	r3, #138
 1721 0026 5B00     		lsls	r3, r3, #1
 1722 0028 C35C     		ldrb	r3, [r0, r3]
 1723 002a 2B70     		strb	r3, [r5]
1013:Api\core\src/vl53l0x_api_calibration.c **** 	uint8_t refSpadsInitialised;
 1724              		.loc 1 1013 0
 1725 002c 0020     		movs	r0, #0
 1726              	.LVL279:
 1727 002e 1FE0     		b	.L115
 1728              	.LVL280:
 1729              	.L114:
1029:Api\core\src/vl53l0x_api_calibration.c **** 			ReferenceSpadType);
1030:Api\core\src/vl53l0x_api_calibration.c **** 	} else {
1031:Api\core\src/vl53l0x_api_calibration.c **** 
1032:Api\core\src/vl53l0x_api_calibration.c **** 		/* obtain spad info from device.*/
1033:Api\core\src/vl53l0x_api_calibration.c **** 		Status = get_ref_spad_map(Dev, refSpadArray);
 1730              		.loc 1 1033 0
 1731 0030 04A9     		add	r1, sp, #16
 1732              	.LVL281:
 1733 0032 FFF7FEFF 		bl	get_ref_spad_map
 1734              	.LVL282:
1034:Api\core\src/vl53l0x_api_calibration.c **** 
1035:Api\core\src/vl53l0x_api_calibration.c **** 		if (Status == VL53L0X_ERROR_NONE) {
 1735              		.loc 1 1035 0
 1736 0036 0028     		cmp	r0, #0
 1737 0038 1AD1     		bne	.L115
1036:Api\core\src/vl53l0x_api_calibration.c **** 			/* count enabled spads within spad map array and
1037:Api\core\src/vl53l0x_api_calibration.c **** 			 * determine if Aperture or Non-Aperture.
1038:Api\core\src/vl53l0x_api_calibration.c **** 			 */
1039:Api\core\src/vl53l0x_api_calibration.c **** 			Status = count_enabled_spads(refSpadArray,
 1738              		.loc 1 1039 0
 1739 003a 0B23     		movs	r3, #11
 1740 003c 6B44     		add	r3, r3, sp
 1741 003e 0093     		str	r3, [sp]
 1742 0040 03AB     		add	r3, sp, #12
 1743 0042 2C22     		movs	r2, #44
 1744 0044 0621     		movs	r1, #6
 1745 0046 04A8     		add	r0, sp, #16
 1746              	.LVL283:
 1747 0048 FFF7FEFF 		bl	count_enabled_spads
 1748              	.LVL284:
1040:Api\core\src/vl53l0x_api_calibration.c **** 							cSpadArraySize,
1041:Api\core\src/vl53l0x_api_calibration.c **** 							cMaxSpadCount,
1042:Api\core\src/vl53l0x_api_calibration.c **** 							&spadsEnabled,
1043:Api\core\src/vl53l0x_api_calibration.c **** 							&isApertureSpads);
1044:Api\core\src/vl53l0x_api_calibration.c **** 
ARM GAS  C:\Users\Rajesh\AppData\Local\Temp\ccFou9eL.s 			page 51


1045:Api\core\src/vl53l0x_api_calibration.c **** 			if (Status == VL53L0X_ERROR_NONE) {
 1749              		.loc 1 1045 0
 1750 004c 0028     		cmp	r0, #0
 1751 004e 0FD1     		bne	.L115
1046:Api\core\src/vl53l0x_api_calibration.c **** 
1047:Api\core\src/vl53l0x_api_calibration.c **** 				*pSpadCount = spadsEnabled;
 1752              		.loc 1 1047 0
 1753 0050 039A     		ldr	r2, [sp, #12]
 1754 0052 3260     		str	r2, [r6]
1048:Api\core\src/vl53l0x_api_calibration.c **** 				*pIsApertureSpads = isApertureSpads;
 1755              		.loc 1 1048 0
 1756 0054 0B23     		movs	r3, #11
 1757 0056 6B44     		add	r3, r3, sp
 1758 0058 1B78     		ldrb	r3, [r3]
 1759 005a 2B70     		strb	r3, [r5]
1049:Api\core\src/vl53l0x_api_calibration.c **** 
1050:Api\core\src/vl53l0x_api_calibration.c **** 				VL53L0X_SETDEVICESPECIFICPARAMETER(Dev,
 1760              		.loc 1 1050 0
 1761 005c 0125     		movs	r5, #1
 1762              	.LVL285:
 1763 005e 1621     		movs	r1, #22
 1764 0060 FF31     		adds	r1, r1, #255
 1765 0062 6554     		strb	r5, [r4, r1]
1051:Api\core\src/vl53l0x_api_calibration.c **** 					RefSpadsInitialised, 1);
1052:Api\core\src/vl53l0x_api_calibration.c **** 				VL53L0X_SETDEVICESPECIFICPARAMETER(Dev,
 1766              		.loc 1 1052 0
 1767 0064 1421     		movs	r1, #20
 1768 0066 FF31     		adds	r1, r1, #255
 1769 0068 6254     		strb	r2, [r4, r1]
1053:Api\core\src/vl53l0x_api_calibration.c **** 					ReferenceSpadCount,
1054:Api\core\src/vl53l0x_api_calibration.c **** 					(uint8_t)spadsEnabled);
1055:Api\core\src/vl53l0x_api_calibration.c **** 				VL53L0X_SETDEVICESPECIFICPARAMETER(Dev,
 1770              		.loc 1 1055 0
 1771 006a 8A22     		movs	r2, #138
 1772 006c 5200     		lsls	r2, r2, #1
 1773 006e A354     		strb	r3, [r4, r2]
 1774              	.LVL286:
 1775              	.L115:
1056:Api\core\src/vl53l0x_api_calibration.c **** 					ReferenceSpadType, isApertureSpads);
1057:Api\core\src/vl53l0x_api_calibration.c **** 			}
1058:Api\core\src/vl53l0x_api_calibration.c **** 		}
1059:Api\core\src/vl53l0x_api_calibration.c **** 	}
1060:Api\core\src/vl53l0x_api_calibration.c **** 
1061:Api\core\src/vl53l0x_api_calibration.c **** 	return Status;
1062:Api\core\src/vl53l0x_api_calibration.c **** }
 1776              		.loc 1 1062 0
 1777 0070 06B0     		add	sp, sp, #24
 1778              		@ sp needed
 1779              	.LVL287:
 1780              	.LVL288:
 1781 0072 70BD     		pop	{r4, r5, r6, pc}
 1782              		.cfi_endproc
 1783              	.LFE16:
 1784              		.size	VL53L0X_get_reference_spads, .-VL53L0X_get_reference_spads
 1785              		.section	.text.VL53L0X_perform_single_ref_calibration,"ax",%progbits
 1786              		.align	2
 1787              		.global	VL53L0X_perform_single_ref_calibration
ARM GAS  C:\Users\Rajesh\AppData\Local\Temp\ccFou9eL.s 			page 52


 1788              		.code	16
 1789              		.thumb_func
 1790              		.type	VL53L0X_perform_single_ref_calibration, %function
 1791              	VL53L0X_perform_single_ref_calibration:
 1792              	.LFB17:
1063:Api\core\src/vl53l0x_api_calibration.c **** 
1064:Api\core\src/vl53l0x_api_calibration.c **** 
1065:Api\core\src/vl53l0x_api_calibration.c **** VL53L0X_Error VL53L0X_perform_single_ref_calibration(VL53L0X_DEV Dev,
1066:Api\core\src/vl53l0x_api_calibration.c **** 		uint8_t vhv_init_byte)
1067:Api\core\src/vl53l0x_api_calibration.c **** {
 1793              		.loc 1 1067 0
 1794              		.cfi_startproc
 1795              		@ args = 0, pretend = 0, frame = 0
 1796              		@ frame_needed = 0, uses_anonymous_args = 0
 1797              	.LVL289:
 1798 0000 10B5     		push	{r4, lr}
 1799              		.cfi_def_cfa_offset 8
 1800              		.cfi_offset 4, -8
 1801              		.cfi_offset 14, -4
 1802 0002 0400     		movs	r4, r0
 1803              	.LVL290:
1068:Api\core\src/vl53l0x_api_calibration.c **** 	VL53L0X_Error Status = VL53L0X_ERROR_NONE;
1069:Api\core\src/vl53l0x_api_calibration.c **** 
1070:Api\core\src/vl53l0x_api_calibration.c **** 	if (Status == VL53L0X_ERROR_NONE)
1071:Api\core\src/vl53l0x_api_calibration.c **** 		Status = VL53L0X_WrByte(Dev, VL53L0X_REG_SYSRANGE_START,
 1804              		.loc 1 1071 0
 1805 0004 0123     		movs	r3, #1
 1806 0006 1943     		orrs	r1, r3
 1807              	.LVL291:
 1808 0008 CAB2     		uxtb	r2, r1
 1809 000a 0021     		movs	r1, #0
 1810 000c FFF7FEFF 		bl	VL53L0X_WrByte
 1811              	.LVL292:
1072:Api\core\src/vl53l0x_api_calibration.c **** 				VL53L0X_REG_SYSRANGE_MODE_START_STOP |
1073:Api\core\src/vl53l0x_api_calibration.c **** 				vhv_init_byte);
1074:Api\core\src/vl53l0x_api_calibration.c **** 
1075:Api\core\src/vl53l0x_api_calibration.c **** 	if (Status == VL53L0X_ERROR_NONE)
 1812              		.loc 1 1075 0
 1813 0010 0028     		cmp	r0, #0
 1814 0012 02D1     		bne	.L117
1076:Api\core\src/vl53l0x_api_calibration.c **** 		Status = VL53L0X_measurement_poll_for_completion(Dev);
 1815              		.loc 1 1076 0
 1816 0014 2000     		movs	r0, r4
 1817              	.LVL293:
 1818 0016 FFF7FEFF 		bl	VL53L0X_measurement_poll_for_completion
 1819              	.LVL294:
 1820              	.L117:
1077:Api\core\src/vl53l0x_api_calibration.c **** 
1078:Api\core\src/vl53l0x_api_calibration.c **** 	if (Status == VL53L0X_ERROR_NONE)
 1821              		.loc 1 1078 0
 1822 001a 0028     		cmp	r0, #0
 1823 001c 03D1     		bne	.L118
1079:Api\core\src/vl53l0x_api_calibration.c **** 		Status = VL53L0X_ClearInterruptMask(Dev, 0);
 1824              		.loc 1 1079 0
 1825 001e 0021     		movs	r1, #0
 1826 0020 2000     		movs	r0, r4
 1827              	.LVL295:
ARM GAS  C:\Users\Rajesh\AppData\Local\Temp\ccFou9eL.s 			page 53


 1828 0022 FFF7FEFF 		bl	VL53L0X_ClearInterruptMask
 1829              	.LVL296:
 1830              	.L118:
1080:Api\core\src/vl53l0x_api_calibration.c **** 
1081:Api\core\src/vl53l0x_api_calibration.c **** 	if (Status == VL53L0X_ERROR_NONE)
 1831              		.loc 1 1081 0
 1832 0026 0028     		cmp	r0, #0
 1833 0028 04D1     		bne	.L119
1082:Api\core\src/vl53l0x_api_calibration.c **** 		Status = VL53L0X_WrByte(Dev, VL53L0X_REG_SYSRANGE_START, 0x00);
 1834              		.loc 1 1082 0
 1835 002a 0022     		movs	r2, #0
 1836 002c 0021     		movs	r1, #0
 1837 002e 2000     		movs	r0, r4
 1838              	.LVL297:
 1839 0030 FFF7FEFF 		bl	VL53L0X_WrByte
 1840              	.LVL298:
 1841              	.L119:
1083:Api\core\src/vl53l0x_api_calibration.c **** 
1084:Api\core\src/vl53l0x_api_calibration.c **** 	return Status;
1085:Api\core\src/vl53l0x_api_calibration.c **** }
 1842              		.loc 1 1085 0
 1843              		@ sp needed
 1844              	.LVL299:
 1845 0034 10BD     		pop	{r4, pc}
 1846              		.cfi_endproc
 1847              	.LFE17:
 1848              		.size	VL53L0X_perform_single_ref_calibration, .-VL53L0X_perform_single_ref_calibration
 1849 0036 C046     		.section	.text.VL53L0X_ref_calibration_io,"ax",%progbits
 1850              		.align	2
 1851              		.global	VL53L0X_ref_calibration_io
 1852              		.code	16
 1853              		.thumb_func
 1854              		.type	VL53L0X_ref_calibration_io, %function
 1855              	VL53L0X_ref_calibration_io:
 1856              	.LFB18:
1086:Api\core\src/vl53l0x_api_calibration.c **** 
1087:Api\core\src/vl53l0x_api_calibration.c **** 
1088:Api\core\src/vl53l0x_api_calibration.c **** VL53L0X_Error VL53L0X_ref_calibration_io(VL53L0X_DEV Dev, uint8_t read_not_write,
1089:Api\core\src/vl53l0x_api_calibration.c **** 	uint8_t VhvSettings, uint8_t PhaseCal,
1090:Api\core\src/vl53l0x_api_calibration.c **** 	uint8_t *pVhvSettings, uint8_t *pPhaseCal,
1091:Api\core\src/vl53l0x_api_calibration.c **** 	const uint8_t vhv_enable, const uint8_t phase_enable)
1092:Api\core\src/vl53l0x_api_calibration.c **** {
 1857              		.loc 1 1092 0
 1858              		.cfi_startproc
 1859              		@ args = 16, pretend = 0, frame = 24
 1860              		@ frame_needed = 0, uses_anonymous_args = 0
 1861              	.LVL300:
 1862 0000 F0B5     		push	{r4, r5, r6, r7, lr}
 1863              		.cfi_def_cfa_offset 20
 1864              		.cfi_offset 4, -20
 1865              		.cfi_offset 5, -16
 1866              		.cfi_offset 6, -12
 1867              		.cfi_offset 7, -8
 1868              		.cfi_offset 14, -4
 1869 0002 87B0     		sub	sp, sp, #28
 1870              		.cfi_def_cfa_offset 48
 1871 0004 0C00     		movs	r4, r1
ARM GAS  C:\Users\Rajesh\AppData\Local\Temp\ccFou9eL.s 			page 54


 1872 0006 0392     		str	r2, [sp, #12]
 1873 0008 0293     		str	r3, [sp, #8]
 1874 000a 0EAB     		add	r3, sp, #56
 1875              	.LVL301:
 1876 000c 1E78     		ldrb	r6, [r3]
 1877 000e 0FAB     		add	r3, sp, #60
 1878              	.LVL302:
 1879 0010 1F78     		ldrb	r7, [r3]
 1880              	.LVL303:
1093:Api\core\src/vl53l0x_api_calibration.c **** 	VL53L0X_Error Status = VL53L0X_ERROR_NONE;
1094:Api\core\src/vl53l0x_api_calibration.c **** 	uint8_t PhaseCalint = 0;
 1881              		.loc 1 1094 0
 1882 0012 0022     		movs	r2, #0
 1883              	.LVL304:
 1884 0014 04AB     		add	r3, sp, #16
 1885              	.LVL305:
 1886 0016 DA71     		strb	r2, [r3, #7]
1095:Api\core\src/vl53l0x_api_calibration.c **** 
1096:Api\core\src/vl53l0x_api_calibration.c **** 	/* Read VHV from device */
1097:Api\core\src/vl53l0x_api_calibration.c **** 	Status |= VL53L0X_WrByte(Dev, 0xFF, 0x01);
 1887              		.loc 1 1097 0
 1888 0018 0132     		adds	r2, r2, #1
 1889 001a FF21     		movs	r1, #255
 1890              	.LVL306:
 1891 001c 0190     		str	r0, [sp, #4]
 1892 001e FFF7FEFF 		bl	VL53L0X_WrByte
 1893              	.LVL307:
 1894 0022 0500     		movs	r5, r0
 1895              	.LVL308:
1098:Api\core\src/vl53l0x_api_calibration.c **** 	Status |= VL53L0X_WrByte(Dev, 0x00, 0x00);
 1896              		.loc 1 1098 0
 1897 0024 0022     		movs	r2, #0
 1898 0026 0021     		movs	r1, #0
 1899 0028 0198     		ldr	r0, [sp, #4]
 1900 002a FFF7FEFF 		bl	VL53L0X_WrByte
 1901              	.LVL309:
 1902 002e 2843     		orrs	r0, r5
 1903 0030 45B2     		sxtb	r5, r0
 1904              	.LVL310:
1099:Api\core\src/vl53l0x_api_calibration.c **** 	Status |= VL53L0X_WrByte(Dev, 0xFF, 0x00);
 1905              		.loc 1 1099 0
 1906 0032 0022     		movs	r2, #0
 1907 0034 FF21     		movs	r1, #255
 1908 0036 0198     		ldr	r0, [sp, #4]
 1909 0038 FFF7FEFF 		bl	VL53L0X_WrByte
 1910              	.LVL311:
 1911 003c 0543     		orrs	r5, r0
 1912              	.LVL312:
 1913 003e 6DB2     		sxtb	r5, r5
 1914              	.LVL313:
1100:Api\core\src/vl53l0x_api_calibration.c **** 
1101:Api\core\src/vl53l0x_api_calibration.c **** 	if (read_not_write) {
 1915              		.loc 1 1101 0
 1916 0040 002C     		cmp	r4, #0
 1917 0042 13D0     		beq	.L121
1102:Api\core\src/vl53l0x_api_calibration.c **** 		if (vhv_enable)
 1918              		.loc 1 1102 0
ARM GAS  C:\Users\Rajesh\AppData\Local\Temp\ccFou9eL.s 			page 55


 1919 0044 002E     		cmp	r6, #0
 1920 0046 06D0     		beq	.L122
1103:Api\core\src/vl53l0x_api_calibration.c **** 			Status |= VL53L0X_RdByte(Dev, 0xCB, pVhvSettings);
 1921              		.loc 1 1103 0
 1922 0048 0C9A     		ldr	r2, [sp, #48]
 1923 004a CB21     		movs	r1, #203
 1924 004c 0198     		ldr	r0, [sp, #4]
 1925 004e FFF7FEFF 		bl	VL53L0X_RdByte
 1926              	.LVL314:
 1927 0052 0543     		orrs	r5, r0
 1928              	.LVL315:
 1929 0054 6DB2     		sxtb	r5, r5
 1930              	.LVL316:
 1931              	.L122:
1104:Api\core\src/vl53l0x_api_calibration.c **** 		if (phase_enable)
 1932              		.loc 1 1104 0
 1933 0056 002F     		cmp	r7, #0
 1934 0058 1BD0     		beq	.L123
1105:Api\core\src/vl53l0x_api_calibration.c **** 			Status |= VL53L0X_RdByte(Dev, 0xEE, &PhaseCalint);
 1935              		.loc 1 1105 0
 1936 005a 04AB     		add	r3, sp, #16
 1937 005c DA1D     		adds	r2, r3, #7
 1938 005e EE21     		movs	r1, #238
 1939 0060 0198     		ldr	r0, [sp, #4]
 1940 0062 FFF7FEFF 		bl	VL53L0X_RdByte
 1941              	.LVL317:
 1942 0066 0543     		orrs	r5, r0
 1943              	.LVL318:
 1944 0068 6DB2     		sxtb	r5, r5
 1945              	.LVL319:
 1946 006a 12E0     		b	.L123
 1947              	.L121:
1106:Api\core\src/vl53l0x_api_calibration.c **** 	} else {
1107:Api\core\src/vl53l0x_api_calibration.c **** 		if (vhv_enable)
 1948              		.loc 1 1107 0
 1949 006c 002E     		cmp	r6, #0
 1950 006e 06D0     		beq	.L124
1108:Api\core\src/vl53l0x_api_calibration.c **** 			Status |= VL53L0X_WrByte(Dev, 0xCB, VhvSettings);
 1951              		.loc 1 1108 0
 1952 0070 039A     		ldr	r2, [sp, #12]
 1953 0072 CB21     		movs	r1, #203
 1954 0074 0198     		ldr	r0, [sp, #4]
 1955 0076 FFF7FEFF 		bl	VL53L0X_WrByte
 1956              	.LVL320:
 1957 007a 0543     		orrs	r5, r0
 1958              	.LVL321:
 1959 007c 6DB2     		sxtb	r5, r5
 1960              	.LVL322:
 1961              	.L124:
1109:Api\core\src/vl53l0x_api_calibration.c **** 		if (phase_enable)
 1962              		.loc 1 1109 0
 1963 007e 002F     		cmp	r7, #0
 1964 0080 07D0     		beq	.L123
1110:Api\core\src/vl53l0x_api_calibration.c **** 			Status |= VL53L0X_UpdateByte(Dev, 0xEE, 0x80, PhaseCal);
 1965              		.loc 1 1110 0
 1966 0082 029B     		ldr	r3, [sp, #8]
 1967 0084 8022     		movs	r2, #128
ARM GAS  C:\Users\Rajesh\AppData\Local\Temp\ccFou9eL.s 			page 56


 1968 0086 EE21     		movs	r1, #238
 1969 0088 0198     		ldr	r0, [sp, #4]
 1970 008a FFF7FEFF 		bl	VL53L0X_UpdateByte
 1971              	.LVL323:
 1972 008e 0543     		orrs	r5, r0
 1973              	.LVL324:
 1974 0090 6DB2     		sxtb	r5, r5
 1975              	.LVL325:
 1976              	.L123:
1111:Api\core\src/vl53l0x_api_calibration.c **** 	}
1112:Api\core\src/vl53l0x_api_calibration.c **** 
1113:Api\core\src/vl53l0x_api_calibration.c **** 	Status |= VL53L0X_WrByte(Dev, 0xFF, 0x01);
 1977              		.loc 1 1113 0
 1978 0092 0122     		movs	r2, #1
 1979 0094 FF21     		movs	r1, #255
 1980 0096 019C     		ldr	r4, [sp, #4]
 1981 0098 2000     		movs	r0, r4
 1982 009a FFF7FEFF 		bl	VL53L0X_WrByte
 1983              	.LVL326:
 1984 009e 0543     		orrs	r5, r0
 1985              	.LVL327:
 1986 00a0 6DB2     		sxtb	r5, r5
 1987              	.LVL328:
1114:Api\core\src/vl53l0x_api_calibration.c **** 	Status |= VL53L0X_WrByte(Dev, 0x00, 0x01);
 1988              		.loc 1 1114 0
 1989 00a2 0122     		movs	r2, #1
 1990 00a4 0021     		movs	r1, #0
 1991 00a6 2000     		movs	r0, r4
 1992 00a8 FFF7FEFF 		bl	VL53L0X_WrByte
 1993              	.LVL329:
 1994 00ac 2843     		orrs	r0, r5
 1995 00ae 45B2     		sxtb	r5, r0
 1996              	.LVL330:
1115:Api\core\src/vl53l0x_api_calibration.c **** 	Status |= VL53L0X_WrByte(Dev, 0xFF, 0x00);
 1997              		.loc 1 1115 0
 1998 00b0 0022     		movs	r2, #0
 1999 00b2 FF21     		movs	r1, #255
 2000 00b4 2000     		movs	r0, r4
 2001 00b6 FFF7FEFF 		bl	VL53L0X_WrByte
 2002              	.LVL331:
 2003 00ba 2843     		orrs	r0, r5
 2004 00bc 40B2     		sxtb	r0, r0
 2005              	.LVL332:
1116:Api\core\src/vl53l0x_api_calibration.c **** 
1117:Api\core\src/vl53l0x_api_calibration.c **** 	*pPhaseCal = (uint8_t)(PhaseCalint&0xEF);
 2006              		.loc 1 1117 0
 2007 00be 04AB     		add	r3, sp, #16
 2008 00c0 0733     		adds	r3, r3, #7
 2009 00c2 1B78     		ldrb	r3, [r3]
 2010 00c4 1022     		movs	r2, #16
 2011 00c6 9343     		bics	r3, r2
 2012 00c8 0D9A     		ldr	r2, [sp, #52]
 2013 00ca 1370     		strb	r3, [r2]
1118:Api\core\src/vl53l0x_api_calibration.c **** 
1119:Api\core\src/vl53l0x_api_calibration.c **** 	return Status;
1120:Api\core\src/vl53l0x_api_calibration.c **** }
 2014              		.loc 1 1120 0
ARM GAS  C:\Users\Rajesh\AppData\Local\Temp\ccFou9eL.s 			page 57


 2015 00cc 07B0     		add	sp, sp, #28
 2016              		@ sp needed
 2017 00ce F0BD     		pop	{r4, r5, r6, r7, pc}
 2018              		.cfi_endproc
 2019              	.LFE18:
 2020              		.size	VL53L0X_ref_calibration_io, .-VL53L0X_ref_calibration_io
 2021              		.section	.text.VL53L0X_perform_vhv_calibration,"ax",%progbits
 2022              		.align	2
 2023              		.global	VL53L0X_perform_vhv_calibration
 2024              		.code	16
 2025              		.thumb_func
 2026              		.type	VL53L0X_perform_vhv_calibration, %function
 2027              	VL53L0X_perform_vhv_calibration:
 2028              	.LFB19:
1121:Api\core\src/vl53l0x_api_calibration.c **** 
1122:Api\core\src/vl53l0x_api_calibration.c **** 
1123:Api\core\src/vl53l0x_api_calibration.c **** VL53L0X_Error VL53L0X_perform_vhv_calibration(VL53L0X_DEV Dev,
1124:Api\core\src/vl53l0x_api_calibration.c **** 	uint8_t *pVhvSettings, const uint8_t get_data_enable,
1125:Api\core\src/vl53l0x_api_calibration.c **** 	const uint8_t restore_config)
1126:Api\core\src/vl53l0x_api_calibration.c **** {
 2029              		.loc 1 1126 0
 2030              		.cfi_startproc
 2031              		@ args = 0, pretend = 0, frame = 16
 2032              		@ frame_needed = 0, uses_anonymous_args = 0
 2033              	.LVL333:
 2034 0000 F0B5     		push	{r4, r5, r6, r7, lr}
 2035              		.cfi_def_cfa_offset 20
 2036              		.cfi_offset 4, -20
 2037              		.cfi_offset 5, -16
 2038              		.cfi_offset 6, -12
 2039              		.cfi_offset 7, -8
 2040              		.cfi_offset 14, -4
 2041 0002 89B0     		sub	sp, sp, #36
 2042              		.cfi_def_cfa_offset 56
 2043 0004 0400     		movs	r4, r0
 2044 0006 0D00     		movs	r5, r1
 2045 0008 0592     		str	r2, [sp, #20]
 2046 000a 1F00     		movs	r7, r3
 2047              	.LVL334:
1127:Api\core\src/vl53l0x_api_calibration.c **** 	VL53L0X_Error Status = VL53L0X_ERROR_NONE;
1128:Api\core\src/vl53l0x_api_calibration.c **** 	uint8_t SequenceConfig = 0;
1129:Api\core\src/vl53l0x_api_calibration.c **** 	uint8_t VhvSettings = 0;
1130:Api\core\src/vl53l0x_api_calibration.c **** 	uint8_t PhaseCal = 0;
1131:Api\core\src/vl53l0x_api_calibration.c **** 	uint8_t PhaseCalInt = 0;
 2048              		.loc 1 1131 0
 2049 000c 0022     		movs	r2, #0
 2050              	.LVL335:
 2051 000e 1723     		movs	r3, #23
 2052              	.LVL336:
 2053 0010 02A9     		add	r1, sp, #8
 2054              	.LVL337:
 2055 0012 8C46     		mov	ip, r1
 2056 0014 6344     		add	r3, r3, ip
 2057 0016 1A70     		strb	r2, [r3]
1132:Api\core\src/vl53l0x_api_calibration.c **** 
1133:Api\core\src/vl53l0x_api_calibration.c **** 	/* store the value of the sequence config,
1134:Api\core\src/vl53l0x_api_calibration.c **** 	 * this will be reset before the end of the function
ARM GAS  C:\Users\Rajesh\AppData\Local\Temp\ccFou9eL.s 			page 58


1135:Api\core\src/vl53l0x_api_calibration.c **** 	 */
1136:Api\core\src/vl53l0x_api_calibration.c **** 
1137:Api\core\src/vl53l0x_api_calibration.c **** 	if (restore_config)
 2058              		.loc 1 1137 0
 2059 0018 002F     		cmp	r7, #0
 2060 001a 03D0     		beq	.L131
1138:Api\core\src/vl53l0x_api_calibration.c **** 		SequenceConfig = PALDevDataGet(Dev, SequenceConfig);
 2061              		.loc 1 1138 0
 2062 001c 9823     		movs	r3, #152
 2063 001e 5B00     		lsls	r3, r3, #1
 2064 0020 C65C     		ldrb	r6, [r0, r3]
 2065              	.LVL338:
 2066 0022 00E0     		b	.L126
 2067              	.LVL339:
 2068              	.L131:
1128:Api\core\src/vl53l0x_api_calibration.c **** 	uint8_t VhvSettings = 0;
 2069              		.loc 1 1128 0
 2070 0024 0026     		movs	r6, #0
 2071              	.LVL340:
 2072              	.L126:
1139:Api\core\src/vl53l0x_api_calibration.c **** 
1140:Api\core\src/vl53l0x_api_calibration.c **** 	/* Run VHV */
1141:Api\core\src/vl53l0x_api_calibration.c **** 	Status = VL53L0X_WrByte(Dev, VL53L0X_REG_SYSTEM_SEQUENCE_CONFIG, 0x01);
 2073              		.loc 1 1141 0
 2074 0026 0122     		movs	r2, #1
 2075 0028 0121     		movs	r1, #1
 2076 002a 2000     		movs	r0, r4
 2077              	.LVL341:
 2078 002c FFF7FEFF 		bl	VL53L0X_WrByte
 2079              	.LVL342:
1142:Api\core\src/vl53l0x_api_calibration.c **** 
1143:Api\core\src/vl53l0x_api_calibration.c **** 	if (Status == VL53L0X_ERROR_NONE)
 2080              		.loc 1 1143 0
 2081 0030 0028     		cmp	r0, #0
 2082 0032 03D1     		bne	.L127
1144:Api\core\src/vl53l0x_api_calibration.c **** 		Status = VL53L0X_perform_single_ref_calibration(Dev, 0x40);
 2083              		.loc 1 1144 0
 2084 0034 4021     		movs	r1, #64
 2085 0036 2000     		movs	r0, r4
 2086              	.LVL343:
 2087 0038 FFF7FEFF 		bl	VL53L0X_perform_single_ref_calibration
 2088              	.LVL344:
 2089              	.L127:
1145:Api\core\src/vl53l0x_api_calibration.c **** 
1146:Api\core\src/vl53l0x_api_calibration.c **** 	/* Read VHV from device */
1147:Api\core\src/vl53l0x_api_calibration.c **** 	if ((Status == VL53L0X_ERROR_NONE) && (get_data_enable == 1)) {
 2090              		.loc 1 1147 0
 2091 003c 0028     		cmp	r0, #0
 2092 003e 13D1     		bne	.L128
 2093              		.loc 1 1147 0 is_stmt 0 discriminator 1
 2094 0040 059B     		ldr	r3, [sp, #20]
 2095 0042 012B     		cmp	r3, #1
 2096 0044 10D1     		bne	.L128
1148:Api\core\src/vl53l0x_api_calibration.c **** 		Status = VL53L0X_ref_calibration_io(Dev, 1,
 2097              		.loc 1 1148 0 is_stmt 1
 2098 0046 0023     		movs	r3, #0
 2099 0048 0393     		str	r3, [sp, #12]
ARM GAS  C:\Users\Rajesh\AppData\Local\Temp\ccFou9eL.s 			page 59


 2100 004a 0133     		adds	r3, r3, #1
 2101 004c 0293     		str	r3, [sp, #8]
 2102 004e 1633     		adds	r3, r3, #22
 2103 0050 02AA     		add	r2, sp, #8
 2104 0052 9446     		mov	ip, r2
 2105 0054 6344     		add	r3, r3, ip
 2106 0056 0193     		str	r3, [sp, #4]
 2107 0058 0095     		str	r5, [sp]
 2108 005a 0023     		movs	r3, #0
 2109 005c 0022     		movs	r2, #0
 2110 005e 0121     		movs	r1, #1
 2111 0060 2000     		movs	r0, r4
 2112              	.LVL345:
 2113 0062 FFF7FEFF 		bl	VL53L0X_ref_calibration_io
 2114              	.LVL346:
 2115 0066 01E0     		b	.L129
 2116              	.L128:
1149:Api\core\src/vl53l0x_api_calibration.c **** 			VhvSettings, PhaseCal, /* Not used here */
1150:Api\core\src/vl53l0x_api_calibration.c **** 			pVhvSettings, &PhaseCalInt,
1151:Api\core\src/vl53l0x_api_calibration.c **** 			1, 0);
1152:Api\core\src/vl53l0x_api_calibration.c **** 	} else
1153:Api\core\src/vl53l0x_api_calibration.c **** 		*pVhvSettings = 0;
 2117              		.loc 1 1153 0
 2118 0068 0023     		movs	r3, #0
 2119 006a 2B70     		strb	r3, [r5]
 2120              	.LVL347:
 2121              	.L129:
1154:Api\core\src/vl53l0x_api_calibration.c **** 
1155:Api\core\src/vl53l0x_api_calibration.c **** 
1156:Api\core\src/vl53l0x_api_calibration.c **** 	if ((Status == VL53L0X_ERROR_NONE) && restore_config) {
 2122              		.loc 1 1156 0
 2123 006c 0028     		cmp	r0, #0
 2124 006e 0BD1     		bne	.L130
 2125              		.loc 1 1156 0 is_stmt 0 discriminator 1
 2126 0070 002F     		cmp	r7, #0
 2127 0072 09D0     		beq	.L130
1157:Api\core\src/vl53l0x_api_calibration.c **** 		/* restore the previous Sequence Config */
1158:Api\core\src/vl53l0x_api_calibration.c **** 		Status = VL53L0X_WrByte(Dev, VL53L0X_REG_SYSTEM_SEQUENCE_CONFIG,
 2128              		.loc 1 1158 0 is_stmt 1
 2129 0074 3200     		movs	r2, r6
 2130 0076 0121     		movs	r1, #1
 2131 0078 2000     		movs	r0, r4
 2132              	.LVL348:
 2133 007a FFF7FEFF 		bl	VL53L0X_WrByte
 2134              	.LVL349:
1159:Api\core\src/vl53l0x_api_calibration.c **** 				SequenceConfig);
1160:Api\core\src/vl53l0x_api_calibration.c **** 		if (Status == VL53L0X_ERROR_NONE)
 2135              		.loc 1 1160 0
 2136 007e 0028     		cmp	r0, #0
 2137 0080 02D1     		bne	.L130
1161:Api\core\src/vl53l0x_api_calibration.c **** 			PALDevDataSet(Dev, SequenceConfig, SequenceConfig);
 2138              		.loc 1 1161 0
 2139 0082 9823     		movs	r3, #152
 2140 0084 5B00     		lsls	r3, r3, #1
 2141 0086 E654     		strb	r6, [r4, r3]
 2142              	.LVL350:
 2143              	.L130:
ARM GAS  C:\Users\Rajesh\AppData\Local\Temp\ccFou9eL.s 			page 60


1162:Api\core\src/vl53l0x_api_calibration.c **** 
1163:Api\core\src/vl53l0x_api_calibration.c **** 	}
1164:Api\core\src/vl53l0x_api_calibration.c **** 
1165:Api\core\src/vl53l0x_api_calibration.c **** 	return Status;
1166:Api\core\src/vl53l0x_api_calibration.c **** }
 2144              		.loc 1 1166 0
 2145 0088 09B0     		add	sp, sp, #36
 2146              		@ sp needed
 2147              	.LVL351:
 2148              	.LVL352:
 2149              	.LVL353:
 2150 008a F0BD     		pop	{r4, r5, r6, r7, pc}
 2151              		.cfi_endproc
 2152              	.LFE19:
 2153              		.size	VL53L0X_perform_vhv_calibration, .-VL53L0X_perform_vhv_calibration
 2154              		.section	.text.VL53L0X_perform_phase_calibration,"ax",%progbits
 2155              		.align	2
 2156              		.global	VL53L0X_perform_phase_calibration
 2157              		.code	16
 2158              		.thumb_func
 2159              		.type	VL53L0X_perform_phase_calibration, %function
 2160              	VL53L0X_perform_phase_calibration:
 2161              	.LFB20:
1167:Api\core\src/vl53l0x_api_calibration.c **** 
1168:Api\core\src/vl53l0x_api_calibration.c **** VL53L0X_Error VL53L0X_perform_phase_calibration(VL53L0X_DEV Dev,
1169:Api\core\src/vl53l0x_api_calibration.c **** 	uint8_t *pPhaseCal, const uint8_t get_data_enable,
1170:Api\core\src/vl53l0x_api_calibration.c **** 	const uint8_t restore_config)
1171:Api\core\src/vl53l0x_api_calibration.c **** {
 2162              		.loc 1 1171 0
 2163              		.cfi_startproc
 2164              		@ args = 0, pretend = 0, frame = 16
 2165              		@ frame_needed = 0, uses_anonymous_args = 0
 2166              	.LVL354:
 2167 0000 F0B5     		push	{r4, r5, r6, r7, lr}
 2168              		.cfi_def_cfa_offset 20
 2169              		.cfi_offset 4, -20
 2170              		.cfi_offset 5, -16
 2171              		.cfi_offset 6, -12
 2172              		.cfi_offset 7, -8
 2173              		.cfi_offset 14, -4
 2174 0002 89B0     		sub	sp, sp, #36
 2175              		.cfi_def_cfa_offset 56
 2176 0004 0400     		movs	r4, r0
 2177 0006 0D00     		movs	r5, r1
 2178 0008 0592     		str	r2, [sp, #20]
 2179 000a 1F1E     		subs	r7, r3, #0
 2180              	.LVL355:
1172:Api\core\src/vl53l0x_api_calibration.c **** 	VL53L0X_Error Status = VL53L0X_ERROR_NONE;
1173:Api\core\src/vl53l0x_api_calibration.c **** 	uint8_t SequenceConfig = 0;
1174:Api\core\src/vl53l0x_api_calibration.c **** 	uint8_t VhvSettings = 0;
1175:Api\core\src/vl53l0x_api_calibration.c **** 	uint8_t PhaseCal = 0;
1176:Api\core\src/vl53l0x_api_calibration.c **** 	uint8_t VhvSettingsint;
1177:Api\core\src/vl53l0x_api_calibration.c **** 
1178:Api\core\src/vl53l0x_api_calibration.c **** 	/* store the value of the sequence config,
1179:Api\core\src/vl53l0x_api_calibration.c **** 	 * this will be reset before the end of the function
1180:Api\core\src/vl53l0x_api_calibration.c **** 	 */
1181:Api\core\src/vl53l0x_api_calibration.c **** 
ARM GAS  C:\Users\Rajesh\AppData\Local\Temp\ccFou9eL.s 			page 61


1182:Api\core\src/vl53l0x_api_calibration.c **** 	if (restore_config)
 2181              		.loc 1 1182 0
 2182 000c 03D0     		beq	.L138
1183:Api\core\src/vl53l0x_api_calibration.c **** 		SequenceConfig = PALDevDataGet(Dev, SequenceConfig);
 2183              		.loc 1 1183 0
 2184 000e 9823     		movs	r3, #152
 2185              	.LVL356:
 2186 0010 5B00     		lsls	r3, r3, #1
 2187 0012 C65C     		ldrb	r6, [r0, r3]
 2188              	.LVL357:
 2189 0014 00E0     		b	.L133
 2190              	.LVL358:
 2191              	.L138:
1173:Api\core\src/vl53l0x_api_calibration.c **** 	uint8_t VhvSettings = 0;
 2192              		.loc 1 1173 0
 2193 0016 0026     		movs	r6, #0
 2194              	.LVL359:
 2195              	.L133:
1184:Api\core\src/vl53l0x_api_calibration.c **** 
1185:Api\core\src/vl53l0x_api_calibration.c **** 	/* Run PhaseCal */
1186:Api\core\src/vl53l0x_api_calibration.c **** 	Status = VL53L0X_WrByte(Dev, VL53L0X_REG_SYSTEM_SEQUENCE_CONFIG, 0x02);
 2196              		.loc 1 1186 0
 2197 0018 0222     		movs	r2, #2
 2198              	.LVL360:
 2199 001a 0121     		movs	r1, #1
 2200              	.LVL361:
 2201 001c 2000     		movs	r0, r4
 2202              	.LVL362:
 2203 001e FFF7FEFF 		bl	VL53L0X_WrByte
 2204              	.LVL363:
1187:Api\core\src/vl53l0x_api_calibration.c **** 
1188:Api\core\src/vl53l0x_api_calibration.c **** 	if (Status == VL53L0X_ERROR_NONE)
 2205              		.loc 1 1188 0
 2206 0022 0028     		cmp	r0, #0
 2207 0024 03D1     		bne	.L134
1189:Api\core\src/vl53l0x_api_calibration.c **** 		Status = VL53L0X_perform_single_ref_calibration(Dev, 0x0);
 2208              		.loc 1 1189 0
 2209 0026 0021     		movs	r1, #0
 2210 0028 2000     		movs	r0, r4
 2211              	.LVL364:
 2212 002a FFF7FEFF 		bl	VL53L0X_perform_single_ref_calibration
 2213              	.LVL365:
 2214              	.L134:
1190:Api\core\src/vl53l0x_api_calibration.c **** 
1191:Api\core\src/vl53l0x_api_calibration.c **** 	/* Read PhaseCal from device */
1192:Api\core\src/vl53l0x_api_calibration.c **** 	if ((Status == VL53L0X_ERROR_NONE) && (get_data_enable == 1)) {
 2215              		.loc 1 1192 0
 2216 002e 0028     		cmp	r0, #0
 2217 0030 12D1     		bne	.L135
 2218              		.loc 1 1192 0 is_stmt 0 discriminator 1
 2219 0032 059B     		ldr	r3, [sp, #20]
 2220 0034 012B     		cmp	r3, #1
 2221 0036 0FD1     		bne	.L135
1193:Api\core\src/vl53l0x_api_calibration.c **** 		Status = VL53L0X_ref_calibration_io(Dev, 1,
 2222              		.loc 1 1193 0 is_stmt 1
 2223 0038 0393     		str	r3, [sp, #12]
 2224 003a 0023     		movs	r3, #0
ARM GAS  C:\Users\Rajesh\AppData\Local\Temp\ccFou9eL.s 			page 62


 2225 003c 0293     		str	r3, [sp, #8]
 2226 003e 0195     		str	r5, [sp, #4]
 2227 0040 1733     		adds	r3, r3, #23
 2228 0042 02AA     		add	r2, sp, #8
 2229 0044 9446     		mov	ip, r2
 2230 0046 6344     		add	r3, r3, ip
 2231 0048 0093     		str	r3, [sp]
 2232 004a 0023     		movs	r3, #0
 2233 004c 0022     		movs	r2, #0
 2234 004e 0121     		movs	r1, #1
 2235 0050 2000     		movs	r0, r4
 2236              	.LVL366:
 2237 0052 FFF7FEFF 		bl	VL53L0X_ref_calibration_io
 2238              	.LVL367:
 2239 0056 01E0     		b	.L136
 2240              	.L135:
1194:Api\core\src/vl53l0x_api_calibration.c **** 			VhvSettings, PhaseCal, /* Not used here */
1195:Api\core\src/vl53l0x_api_calibration.c **** 			&VhvSettingsint, pPhaseCal,
1196:Api\core\src/vl53l0x_api_calibration.c **** 			0, 1);
1197:Api\core\src/vl53l0x_api_calibration.c **** 	} else
1198:Api\core\src/vl53l0x_api_calibration.c **** 		*pPhaseCal = 0;
 2241              		.loc 1 1198 0
 2242 0058 0023     		movs	r3, #0
 2243 005a 2B70     		strb	r3, [r5]
 2244              	.LVL368:
 2245              	.L136:
1199:Api\core\src/vl53l0x_api_calibration.c **** 
1200:Api\core\src/vl53l0x_api_calibration.c **** 
1201:Api\core\src/vl53l0x_api_calibration.c **** 	if ((Status == VL53L0X_ERROR_NONE) && restore_config) {
 2246              		.loc 1 1201 0
 2247 005c 0028     		cmp	r0, #0
 2248 005e 0BD1     		bne	.L137
 2249              		.loc 1 1201 0 is_stmt 0 discriminator 1
 2250 0060 002F     		cmp	r7, #0
 2251 0062 09D0     		beq	.L137
1202:Api\core\src/vl53l0x_api_calibration.c **** 		/* restore the previous Sequence Config */
1203:Api\core\src/vl53l0x_api_calibration.c **** 		Status = VL53L0X_WrByte(Dev, VL53L0X_REG_SYSTEM_SEQUENCE_CONFIG,
 2252              		.loc 1 1203 0 is_stmt 1
 2253 0064 3200     		movs	r2, r6
 2254 0066 0121     		movs	r1, #1
 2255 0068 2000     		movs	r0, r4
 2256              	.LVL369:
 2257 006a FFF7FEFF 		bl	VL53L0X_WrByte
 2258              	.LVL370:
1204:Api\core\src/vl53l0x_api_calibration.c **** 				SequenceConfig);
1205:Api\core\src/vl53l0x_api_calibration.c **** 		if (Status == VL53L0X_ERROR_NONE)
 2259              		.loc 1 1205 0
 2260 006e 0028     		cmp	r0, #0
 2261 0070 02D1     		bne	.L137
1206:Api\core\src/vl53l0x_api_calibration.c **** 			PALDevDataSet(Dev, SequenceConfig, SequenceConfig);
 2262              		.loc 1 1206 0
 2263 0072 9823     		movs	r3, #152
 2264 0074 5B00     		lsls	r3, r3, #1
 2265 0076 E654     		strb	r6, [r4, r3]
 2266              	.LVL371:
 2267              	.L137:
1207:Api\core\src/vl53l0x_api_calibration.c **** 
ARM GAS  C:\Users\Rajesh\AppData\Local\Temp\ccFou9eL.s 			page 63


1208:Api\core\src/vl53l0x_api_calibration.c **** 	}
1209:Api\core\src/vl53l0x_api_calibration.c **** 
1210:Api\core\src/vl53l0x_api_calibration.c **** 	return Status;
1211:Api\core\src/vl53l0x_api_calibration.c **** }
 2268              		.loc 1 1211 0
 2269 0078 09B0     		add	sp, sp, #36
 2270              		@ sp needed
 2271              	.LVL372:
 2272              	.LVL373:
 2273              	.LVL374:
 2274 007a F0BD     		pop	{r4, r5, r6, r7, pc}
 2275              		.cfi_endproc
 2276              	.LFE20:
 2277              		.size	VL53L0X_perform_phase_calibration, .-VL53L0X_perform_phase_calibration
 2278              		.section	.text.VL53L0X_perform_ref_calibration,"ax",%progbits
 2279              		.align	2
 2280              		.global	VL53L0X_perform_ref_calibration
 2281              		.code	16
 2282              		.thumb_func
 2283              		.type	VL53L0X_perform_ref_calibration, %function
 2284              	VL53L0X_perform_ref_calibration:
 2285              	.LFB21:
1212:Api\core\src/vl53l0x_api_calibration.c **** 
1213:Api\core\src/vl53l0x_api_calibration.c **** VL53L0X_Error VL53L0X_perform_ref_calibration(VL53L0X_DEV Dev,
1214:Api\core\src/vl53l0x_api_calibration.c **** 	uint8_t *pVhvSettings, uint8_t *pPhaseCal, uint8_t get_data_enable)
1215:Api\core\src/vl53l0x_api_calibration.c **** {
 2286              		.loc 1 1215 0
 2287              		.cfi_startproc
 2288              		@ args = 0, pretend = 0, frame = 0
 2289              		@ frame_needed = 0, uses_anonymous_args = 0
 2290              	.LVL375:
 2291 0000 F8B5     		push	{r3, r4, r5, r6, r7, lr}
 2292              		.cfi_def_cfa_offset 24
 2293              		.cfi_offset 3, -24
 2294              		.cfi_offset 4, -20
 2295              		.cfi_offset 5, -16
 2296              		.cfi_offset 6, -12
 2297              		.cfi_offset 7, -8
 2298              		.cfi_offset 14, -4
 2299 0002 0400     		movs	r4, r0
 2300 0004 1600     		movs	r6, r2
 2301 0006 1D00     		movs	r5, r3
 2302              	.LVL376:
1216:Api\core\src/vl53l0x_api_calibration.c **** 	VL53L0X_Error Status = VL53L0X_ERROR_NONE;
1217:Api\core\src/vl53l0x_api_calibration.c **** 	uint8_t SequenceConfig = 0;
1218:Api\core\src/vl53l0x_api_calibration.c **** 
1219:Api\core\src/vl53l0x_api_calibration.c **** 	/* store the value of the sequence config,
1220:Api\core\src/vl53l0x_api_calibration.c **** 	 * this will be reset before the end of the function
1221:Api\core\src/vl53l0x_api_calibration.c **** 	 */
1222:Api\core\src/vl53l0x_api_calibration.c **** 
1223:Api\core\src/vl53l0x_api_calibration.c **** 	SequenceConfig = PALDevDataGet(Dev, SequenceConfig);
 2303              		.loc 1 1223 0
 2304 0008 9823     		movs	r3, #152
 2305              	.LVL377:
 2306 000a 5B00     		lsls	r3, r3, #1
 2307 000c C75C     		ldrb	r7, [r0, r3]
 2308              	.LVL378:
ARM GAS  C:\Users\Rajesh\AppData\Local\Temp\ccFou9eL.s 			page 64


1224:Api\core\src/vl53l0x_api_calibration.c **** 
1225:Api\core\src/vl53l0x_api_calibration.c **** 	/* In the following function we don't save the config to optimize
1226:Api\core\src/vl53l0x_api_calibration.c **** 	 * writes on device. Config is saved and restored only once. */
1227:Api\core\src/vl53l0x_api_calibration.c **** 	Status = VL53L0X_perform_vhv_calibration(
 2309              		.loc 1 1227 0
 2310 000e 0023     		movs	r3, #0
 2311 0010 2A00     		movs	r2, r5
 2312              	.LVL379:
 2313 0012 FFF7FEFF 		bl	VL53L0X_perform_vhv_calibration
 2314              	.LVL380:
1228:Api\core\src/vl53l0x_api_calibration.c **** 			Dev, pVhvSettings, get_data_enable, 0);
1229:Api\core\src/vl53l0x_api_calibration.c **** 
1230:Api\core\src/vl53l0x_api_calibration.c **** 
1231:Api\core\src/vl53l0x_api_calibration.c **** 	if (Status == VL53L0X_ERROR_NONE)
 2315              		.loc 1 1231 0
 2316 0016 0028     		cmp	r0, #0
 2317 0018 05D1     		bne	.L140
1232:Api\core\src/vl53l0x_api_calibration.c **** 		Status = VL53L0X_perform_phase_calibration(
 2318              		.loc 1 1232 0
 2319 001a 0023     		movs	r3, #0
 2320 001c 2A00     		movs	r2, r5
 2321 001e 3100     		movs	r1, r6
 2322 0020 2000     		movs	r0, r4
 2323              	.LVL381:
 2324 0022 FFF7FEFF 		bl	VL53L0X_perform_phase_calibration
 2325              	.LVL382:
 2326              	.L140:
1233:Api\core\src/vl53l0x_api_calibration.c **** 			Dev, pPhaseCal, get_data_enable, 0);
1234:Api\core\src/vl53l0x_api_calibration.c **** 
1235:Api\core\src/vl53l0x_api_calibration.c **** 
1236:Api\core\src/vl53l0x_api_calibration.c **** 	if (Status == VL53L0X_ERROR_NONE) {
 2327              		.loc 1 1236 0
 2328 0026 0028     		cmp	r0, #0
 2329 0028 09D1     		bne	.L141
1237:Api\core\src/vl53l0x_api_calibration.c **** 		/* restore the previous Sequence Config */
1238:Api\core\src/vl53l0x_api_calibration.c **** 		Status = VL53L0X_WrByte(Dev, VL53L0X_REG_SYSTEM_SEQUENCE_CONFIG,
 2330              		.loc 1 1238 0
 2331 002a 3A00     		movs	r2, r7
 2332 002c 0121     		movs	r1, #1
 2333 002e 2000     		movs	r0, r4
 2334              	.LVL383:
 2335 0030 FFF7FEFF 		bl	VL53L0X_WrByte
 2336              	.LVL384:
1239:Api\core\src/vl53l0x_api_calibration.c **** 				SequenceConfig);
1240:Api\core\src/vl53l0x_api_calibration.c **** 		if (Status == VL53L0X_ERROR_NONE)
 2337              		.loc 1 1240 0
 2338 0034 0028     		cmp	r0, #0
 2339 0036 02D1     		bne	.L141
1241:Api\core\src/vl53l0x_api_calibration.c **** 			PALDevDataSet(Dev, SequenceConfig, SequenceConfig);
 2340              		.loc 1 1241 0
 2341 0038 9823     		movs	r3, #152
 2342 003a 5B00     		lsls	r3, r3, #1
 2343 003c E754     		strb	r7, [r4, r3]
 2344              	.LVL385:
 2345              	.L141:
1242:Api\core\src/vl53l0x_api_calibration.c **** 
1243:Api\core\src/vl53l0x_api_calibration.c **** 	}
ARM GAS  C:\Users\Rajesh\AppData\Local\Temp\ccFou9eL.s 			page 65


1244:Api\core\src/vl53l0x_api_calibration.c **** 
1245:Api\core\src/vl53l0x_api_calibration.c **** 	return Status;
1246:Api\core\src/vl53l0x_api_calibration.c **** }
 2346              		.loc 1 1246 0
 2347              		@ sp needed
 2348              	.LVL386:
 2349              	.LVL387:
 2350              	.LVL388:
 2351 003e F8BD     		pop	{r3, r4, r5, r6, r7, pc}
 2352              		.cfi_endproc
 2353              	.LFE21:
 2354              		.size	VL53L0X_perform_ref_calibration, .-VL53L0X_perform_ref_calibration
 2355              		.section	.text.VL53L0X_perform_ref_spad_management,"ax",%progbits
 2356              		.align	2
 2357              		.global	VL53L0X_perform_ref_spad_management
 2358              		.code	16
 2359              		.thumb_func
 2360              		.type	VL53L0X_perform_ref_spad_management, %function
 2361              	VL53L0X_perform_ref_spad_management:
 2362              	.LFB14:
 679:Api\core\src/vl53l0x_api_calibration.c **** 	VL53L0X_Error Status = VL53L0X_ERROR_NONE;
 2363              		.loc 1 679 0
 2364              		.cfi_startproc
 2365              		@ args = 0, pretend = 0, frame = 56
 2366              		@ frame_needed = 0, uses_anonymous_args = 0
 2367              	.LVL389:
 2368 0000 F0B5     		push	{r4, r5, r6, r7, lr}
 2369              		.cfi_def_cfa_offset 20
 2370              		.cfi_offset 4, -20
 2371              		.cfi_offset 5, -16
 2372              		.cfi_offset 6, -12
 2373              		.cfi_offset 7, -8
 2374              		.cfi_offset 14, -4
 2375 0002 5F46     		mov	r7, fp
 2376 0004 5646     		mov	r6, r10
 2377 0006 4D46     		mov	r5, r9
 2378 0008 4446     		mov	r4, r8
 2379 000a F0B4     		push	{r4, r5, r6, r7}
 2380              		.cfi_def_cfa_offset 36
 2381              		.cfi_offset 8, -36
 2382              		.cfi_offset 9, -32
 2383              		.cfi_offset 10, -28
 2384              		.cfi_offset 11, -24
 2385 000c 95B0     		sub	sp, sp, #84
 2386              		.cfi_def_cfa_offset 120
 2387 000e 0500     		movs	r5, r0
 2388 0010 0C91     		str	r1, [sp, #48]
 2389 0012 0D92     		str	r2, [sp, #52]
 2390              	.LVL390:
 686:Api\core\src/vl53l0x_api_calibration.c **** 	int32_t nextGoodSpad = 0;
 2391              		.loc 1 686 0
 2392 0014 0023     		movs	r3, #0
 2393 0016 1193     		str	r3, [sp, #68]
 687:Api\core\src/vl53l0x_api_calibration.c **** 	uint16_t targetRefRate = 0x0A00; /* 20 MCPS in 9:7 format */
 2394              		.loc 1 687 0
 2395 0018 1093     		str	r3, [sp, #64]
 2396              	.LVL391:
ARM GAS  C:\Users\Rajesh\AppData\Local\Temp\ccFou9eL.s 			page 66


 696:Api\core\src/vl53l0x_api_calibration.c **** 	uint8_t PhaseCal = 0;
 2397              		.loc 1 696 0
 2398 001a 1D22     		movs	r2, #29
 2399              	.LVL392:
 2400 001c 08A9     		add	r1, sp, #32
 2401              	.LVL393:
 2402 001e 8C46     		mov	ip, r1
 2403 0020 6244     		add	r2, r2, ip
 2404 0022 1370     		strb	r3, [r2]
 697:Api\core\src/vl53l0x_api_calibration.c **** 	uint32_t refSpadCount_int = 0;
 2405              		.loc 1 697 0
 2406 0024 0FAA     		add	r2, sp, #60
 2407 0026 1370     		strb	r3, [r2]
 2408              	.LVL394:
 724:Api\core\src/vl53l0x_api_calibration.c **** 
 2409              		.loc 1 724 0
 2410 0028 3D33     		adds	r3, r3, #61
 2411 002a FF33     		adds	r3, r3, #255
 2412 002c C35A     		ldrh	r3, [r0, r3]
 2413 002e 9A46     		mov	r10, r3
 2414              	.LVL395:
 734:Api\core\src/vl53l0x_api_calibration.c **** 		Dev->Data.SpadData.RefSpadEnables[index] = 0;
 2415              		.loc 1 734 0
 2416 0030 0023     		movs	r3, #0
 2417 0032 05E0     		b	.L143
 2418              	.LVL396:
 2419              	.L144:
 735:Api\core\src/vl53l0x_api_calibration.c **** 
 2420              		.loc 1 735 0 discriminator 3
 2421 0034 EA18     		adds	r2, r5, r3
 2422 0036 2532     		adds	r2, r2, #37
 2423 0038 FF32     		adds	r2, r2, #255
 2424 003a 0021     		movs	r1, #0
 2425 003c 1170     		strb	r1, [r2]
 734:Api\core\src/vl53l0x_api_calibration.c **** 		Dev->Data.SpadData.RefSpadEnables[index] = 0;
 2426              		.loc 1 734 0 discriminator 3
 2427 003e 0133     		adds	r3, r3, #1
 2428              	.LVL397:
 2429              	.L143:
 734:Api\core\src/vl53l0x_api_calibration.c **** 		Dev->Data.SpadData.RefSpadEnables[index] = 0;
 2430              		.loc 1 734 0 is_stmt 0 discriminator 1
 2431 0040 052B     		cmp	r3, #5
 2432 0042 F7D9     		bls	.L144
 738:Api\core\src/vl53l0x_api_calibration.c **** 
 2433              		.loc 1 738 0 is_stmt 1
 2434 0044 0122     		movs	r2, #1
 2435 0046 FF21     		movs	r1, #255
 2436 0048 2800     		movs	r0, r5
 2437              	.LVL398:
 2438 004a FFF7FEFF 		bl	VL53L0X_WrByte
 2439              	.LVL399:
 2440 004e 041E     		subs	r4, r0, #0
 2441              	.LVL400:
 740:Api\core\src/vl53l0x_api_calibration.c **** 		Status = VL53L0X_WrByte(Dev,
 2442              		.loc 1 740 0
 2443 0050 05D1     		bne	.L145
 741:Api\core\src/vl53l0x_api_calibration.c **** 			VL53L0X_REG_DYNAMIC_SPAD_REF_EN_START_OFFSET, 0x00);
ARM GAS  C:\Users\Rajesh\AppData\Local\Temp\ccFou9eL.s 			page 67


 2444              		.loc 1 741 0
 2445 0052 0022     		movs	r2, #0
 2446 0054 4F21     		movs	r1, #79
 2447 0056 2800     		movs	r0, r5
 2448              	.LVL401:
 2449 0058 FFF7FEFF 		bl	VL53L0X_WrByte
 2450              	.LVL402:
 2451 005c 0400     		movs	r4, r0
 2452              	.LVL403:
 2453              	.L145:
 744:Api\core\src/vl53l0x_api_calibration.c **** 		Status = VL53L0X_WrByte(Dev,
 2454              		.loc 1 744 0
 2455 005e 002C     		cmp	r4, #0
 2456 0060 05D1     		bne	.L146
 745:Api\core\src/vl53l0x_api_calibration.c **** 			VL53L0X_REG_DYNAMIC_SPAD_NUM_REQUESTED_REF_SPAD, 0x2C);
 2457              		.loc 1 745 0
 2458 0062 2C22     		movs	r2, #44
 2459 0064 4E21     		movs	r1, #78
 2460 0066 2800     		movs	r0, r5
 2461 0068 FFF7FEFF 		bl	VL53L0X_WrByte
 2462              	.LVL404:
 2463 006c 0400     		movs	r4, r0
 2464              	.LVL405:
 2465              	.L146:
 748:Api\core\src/vl53l0x_api_calibration.c **** 		Status = VL53L0X_WrByte(Dev, 0xFF, 0x00);
 2466              		.loc 1 748 0
 2467 006e 002C     		cmp	r4, #0
 2468 0070 05D1     		bne	.L147
 749:Api\core\src/vl53l0x_api_calibration.c **** 
 2469              		.loc 1 749 0
 2470 0072 0022     		movs	r2, #0
 2471 0074 FF21     		movs	r1, #255
 2472 0076 2800     		movs	r0, r5
 2473 0078 FFF7FEFF 		bl	VL53L0X_WrByte
 2474              	.LVL406:
 2475 007c 0400     		movs	r4, r0
 2476              	.LVL407:
 2477              	.L147:
 751:Api\core\src/vl53l0x_api_calibration.c **** 		Status = VL53L0X_WrByte(Dev,
 2478              		.loc 1 751 0
 2479 007e 002C     		cmp	r4, #0
 2480 0080 05D1     		bne	.L148
 752:Api\core\src/vl53l0x_api_calibration.c **** 			VL53L0X_REG_GLOBAL_CONFIG_REF_EN_START_SELECT,
 2481              		.loc 1 752 0
 2482 0082 B422     		movs	r2, #180
 2483 0084 B621     		movs	r1, #182
 2484 0086 2800     		movs	r0, r5
 2485 0088 FFF7FEFF 		bl	VL53L0X_WrByte
 2486              	.LVL408:
 2487 008c 0400     		movs	r4, r0
 2488              	.LVL409:
 2489              	.L148:
 757:Api\core\src/vl53l0x_api_calibration.c **** 		Status = VL53L0X_WrByte(Dev,
 2490              		.loc 1 757 0
 2491 008e 002C     		cmp	r4, #0
 2492 0090 05D1     		bne	.L149
 758:Api\core\src/vl53l0x_api_calibration.c **** 				VL53L0X_REG_POWER_MANAGEMENT_GO1_POWER_FORCE, 0);
ARM GAS  C:\Users\Rajesh\AppData\Local\Temp\ccFou9eL.s 			page 68


 2493              		.loc 1 758 0
 2494 0092 0022     		movs	r2, #0
 2495 0094 8021     		movs	r1, #128
 2496 0096 2800     		movs	r0, r5
 2497 0098 FFF7FEFF 		bl	VL53L0X_WrByte
 2498              	.LVL410:
 2499 009c 0400     		movs	r4, r0
 2500              	.LVL411:
 2501              	.L149:
 762:Api\core\src/vl53l0x_api_calibration.c **** 		Status = VL53L0X_perform_ref_calibration(Dev, &VhvSettings,
 2502              		.loc 1 762 0
 2503 009e 002C     		cmp	r4, #0
 2504 00a0 09D1     		bne	.L150
 763:Api\core\src/vl53l0x_api_calibration.c **** 			&PhaseCal, 0);
 2505              		.loc 1 763 0
 2506 00a2 0023     		movs	r3, #0
 2507 00a4 0FAA     		add	r2, sp, #60
 2508 00a6 1D21     		movs	r1, #29
 2509 00a8 08A8     		add	r0, sp, #32
 2510 00aa 8446     		mov	ip, r0
 2511 00ac 6144     		add	r1, r1, ip
 2512 00ae 2800     		movs	r0, r5
 2513 00b0 FFF7FEFF 		bl	VL53L0X_perform_ref_calibration
 2514              	.LVL412:
 2515 00b4 0400     		movs	r4, r0
 2516              	.LVL413:
 2517              	.L150:
 766:Api\core\src/vl53l0x_api_calibration.c **** 		/* Enable Minimum NON-APERTURE Spads */
 2518              		.loc 1 766 0
 2519 00b6 002C     		cmp	r4, #0
 2520 00b8 15D1     		bne	.L151
 769:Api\core\src/vl53l0x_api_calibration.c **** 		needAptSpads = 0;
 2521              		.loc 1 769 0
 2522 00ba 0022     		movs	r2, #0
 2523 00bc 1192     		str	r2, [sp, #68]
 774:Api\core\src/vl53l0x_api_calibration.c **** 					spadArraySize,
 2524              		.loc 1 774 0
 2525 00be 2B00     		movs	r3, r5
 2526 00c0 2533     		adds	r3, r3, #37
 2527 00c2 FF33     		adds	r3, r3, #255
 771:Api\core\src/vl53l0x_api_calibration.c **** 					needAptSpads,
 2528              		.loc 1 771 0
 2529 00c4 11A9     		add	r1, sp, #68
 2530 00c6 0491     		str	r1, [sp, #16]
 2531 00c8 0321     		movs	r1, #3
 2532 00ca 0391     		str	r1, [sp, #12]
 2533 00cc 0292     		str	r2, [sp, #8]
 2534 00ce B432     		adds	r2, r2, #180
 2535 00d0 0192     		str	r2, [sp, #4]
 2536 00d2 AE3A     		subs	r2, r2, #174
 2537 00d4 0092     		str	r2, [sp]
 2538 00d6 2A00     		movs	r2, r5
 2539 00d8 2B32     		adds	r2, r2, #43
 2540 00da FF32     		adds	r2, r2, #255
 2541 00dc 0021     		movs	r1, #0
 2542 00de 2800     		movs	r0, r5
 2543 00e0 FFF7FEFF 		bl	enable_ref_spads
ARM GAS  C:\Users\Rajesh\AppData\Local\Temp\ccFou9eL.s 			page 69


 2544              	.LVL414:
 2545 00e4 0400     		movs	r4, r0
 2546              	.LVL415:
 2547              	.L151:
 782:Api\core\src/vl53l0x_api_calibration.c **** 		currentSpadIndex = lastSpadIndex;
 2548              		.loc 1 782 0
 2549 00e6 002C     		cmp	r4, #0
 2550 00e8 55D1     		bne	.L165
 783:Api\core\src/vl53l0x_api_calibration.c **** 
 2551              		.loc 1 783 0
 2552 00ea 119F     		ldr	r7, [sp, #68]
 2553              	.LVL416:
 785:Api\core\src/vl53l0x_api_calibration.c **** 			&peakSignalRateRef);
 2554              		.loc 1 785 0
 2555 00ec 1E21     		movs	r1, #30
 2556 00ee 08AB     		add	r3, sp, #32
 2557 00f0 9C46     		mov	ip, r3
 2558 00f2 6144     		add	r1, r1, ip
 2559 00f4 2800     		movs	r0, r5
 2560 00f6 FFF7FEFF 		bl	perform_ref_signal_measurement
 2561              	.LVL417:
 2562 00fa 041E     		subs	r4, r0, #0
 2563              	.LVL418:
 787:Api\core\src/vl53l0x_api_calibration.c **** 			(peakSignalRateRef > targetRefRate)) {
 2564              		.loc 1 787 0
 2565 00fc 51D1     		bne	.L166
 788:Api\core\src/vl53l0x_api_calibration.c **** 			/* Signal rate measurement too high,
 2566              		.loc 1 788 0 discriminator 1
 2567 00fe 1E23     		movs	r3, #30
 2568 0100 08AA     		add	r2, sp, #32
 2569 0102 9446     		mov	ip, r2
 2570 0104 6344     		add	r3, r3, ip
 2571 0106 1B88     		ldrh	r3, [r3]
 787:Api\core\src/vl53l0x_api_calibration.c **** 			(peakSignalRateRef > targetRefRate)) {
 2572              		.loc 1 787 0 discriminator 1
 2573 0108 9A45     		cmp	r10, r3
 2574 010a 0BD3     		bcc	.L167
 699:Api\core\src/vl53l0x_api_calibration.c **** 
 2575              		.loc 1 699 0
 2576 010c 0023     		movs	r3, #0
 2577 010e 0B93     		str	r3, [sp, #44]
 698:Api\core\src/vl53l0x_api_calibration.c **** 	uint8_t	 isApertureSpads_int = 0;
 2578              		.loc 1 698 0
 2579 0110 0793     		str	r3, [sp, #28]
 832:Api\core\src/vl53l0x_api_calibration.c **** 		}
 2580              		.loc 1 832 0
 2581 0112 9946     		mov	r9, r3
 2582 0114 5CE0     		b	.L152
 2583              	.LVL419:
 2584              	.L154:
 793:Api\core\src/vl53l0x_api_calibration.c **** 
 2585              		.loc 1 793 0 discriminator 3
 2586 0116 EA18     		adds	r2, r5, r3
 2587 0118 2532     		adds	r2, r2, #37
 2588 011a FF32     		adds	r2, r2, #255
 2589 011c 0021     		movs	r1, #0
 2590 011e 1170     		strb	r1, [r2]
ARM GAS  C:\Users\Rajesh\AppData\Local\Temp\ccFou9eL.s 			page 70


 792:Api\core\src/vl53l0x_api_calibration.c **** 				Dev->Data.SpadData.RefSpadEnables[index] = 0;
 2591              		.loc 1 792 0 discriminator 3
 2592 0120 0133     		adds	r3, r3, #1
 2593              	.LVL420:
 2594 0122 00E0     		b	.L153
 2595              	.LVL421:
 2596              	.L167:
 2597 0124 0023     		movs	r3, #0
 2598              	.L153:
 2599              	.LVL422:
 792:Api\core\src/vl53l0x_api_calibration.c **** 				Dev->Data.SpadData.RefSpadEnables[index] = 0;
 2600              		.loc 1 792 0 is_stmt 0 discriminator 1
 2601 0126 052B     		cmp	r3, #5
 2602 0128 F5D9     		bls	.L154
 2603 012a 00E0     		b	.L155
 2604              	.LVL423:
 2605              	.L157:
 799:Api\core\src/vl53l0x_api_calibration.c **** 			}
 2606              		.loc 1 799 0 is_stmt 1
 2607 012c 0137     		adds	r7, r7, #1
 2608              	.LVL424:
 2609              	.L155:
 797:Api\core\src/vl53l0x_api_calibration.c **** 				== 0) && (currentSpadIndex < maxSpadCount)) {
 2610              		.loc 1 797 0
 2611 012e 3800     		movs	r0, r7
 2612 0130 B430     		adds	r0, r0, #180
 2613 0132 FFF7FEFF 		bl	is_aperture
 2614              	.LVL425:
 2615 0136 0028     		cmp	r0, #0
 2616 0138 01D1     		bne	.L156
 798:Api\core\src/vl53l0x_api_calibration.c **** 				currentSpadIndex++;
 2617              		.loc 1 798 0
 2618 013a 2B2F     		cmp	r7, #43
 2619 013c F6D9     		bls	.L157
 2620              	.L156:
 2621              	.LVL426:
 807:Api\core\src/vl53l0x_api_calibration.c **** 					spadArraySize,
 2622              		.loc 1 807 0
 2623 013e 2B00     		movs	r3, r5
 2624 0140 2533     		adds	r3, r3, #37
 2625 0142 FF33     		adds	r3, r3, #255
 804:Api\core\src/vl53l0x_api_calibration.c **** 					needAptSpads,
 2626              		.loc 1 804 0
 2627 0144 11AA     		add	r2, sp, #68
 2628 0146 0492     		str	r2, [sp, #16]
 2629 0148 0322     		movs	r2, #3
 2630 014a 0392     		str	r2, [sp, #12]
 2631 014c 0297     		str	r7, [sp, #8]
 2632 014e B132     		adds	r2, r2, #177
 2633 0150 0192     		str	r2, [sp, #4]
 2634 0152 AE3A     		subs	r2, r2, #174
 2635 0154 0092     		str	r2, [sp]
 2636 0156 2A00     		movs	r2, r5
 2637 0158 2B32     		adds	r2, r2, #43
 2638 015a FF32     		adds	r2, r2, #255
 2639 015c 0121     		movs	r1, #1
 2640 015e 2800     		movs	r0, r5
ARM GAS  C:\Users\Rajesh\AppData\Local\Temp\ccFou9eL.s 			page 71


 2641 0160 FFF7FEFF 		bl	enable_ref_spads
 2642              	.LVL427:
 2643 0164 041E     		subs	r4, r0, #0
 2644              	.LVL428:
 814:Api\core\src/vl53l0x_api_calibration.c **** 				currentSpadIndex = lastSpadIndex;
 2645              		.loc 1 814 0
 2646 0166 21D1     		bne	.L168
 815:Api\core\src/vl53l0x_api_calibration.c **** 				Status = perform_ref_signal_measurement(Dev,
 2647              		.loc 1 815 0
 2648 0168 119F     		ldr	r7, [sp, #68]
 2649              	.LVL429:
 816:Api\core\src/vl53l0x_api_calibration.c **** 						&peakSignalRateRef);
 2650              		.loc 1 816 0
 2651 016a 1E21     		movs	r1, #30
 2652 016c 08AB     		add	r3, sp, #32
 2653 016e 9C46     		mov	ip, r3
 2654 0170 6144     		add	r1, r1, ip
 2655 0172 2800     		movs	r0, r5
 2656              	.LVL430:
 2657 0174 FFF7FEFF 		bl	perform_ref_signal_measurement
 2658              	.LVL431:
 2659 0178 041E     		subs	r4, r0, #0
 2660              	.LVL432:
 819:Api\core\src/vl53l0x_api_calibration.c **** 					(peakSignalRateRef > targetRefRate)) {
 2661              		.loc 1 819 0
 2662 017a 1DD1     		bne	.L169
 820:Api\core\src/vl53l0x_api_calibration.c **** 					/* Signal rate still too high after
 2663              		.loc 1 820 0 discriminator 1
 2664 017c 1E23     		movs	r3, #30
 2665 017e 08AA     		add	r2, sp, #32
 2666 0180 9446     		mov	ip, r2
 2667 0182 6344     		add	r3, r3, ip
 2668 0184 1B88     		ldrh	r3, [r3]
 819:Api\core\src/vl53l0x_api_calibration.c **** 					(peakSignalRateRef > targetRefRate)) {
 2669              		.loc 1 819 0 discriminator 1
 2670 0186 9A45     		cmp	r10, r3
 2671 0188 1CD3     		bcc	.L170
 699:Api\core\src/vl53l0x_api_calibration.c **** 
 2672              		.loc 1 699 0
 2673 018a 0023     		movs	r3, #0
 2674 018c 0B93     		str	r3, [sp, #44]
 698:Api\core\src/vl53l0x_api_calibration.c **** 	uint8_t	 isApertureSpads_int = 0;
 2675              		.loc 1 698 0
 2676 018e 0793     		str	r3, [sp, #28]
 802:Api\core\src/vl53l0x_api_calibration.c **** 
 2677              		.loc 1 802 0
 2678 0190 0133     		adds	r3, r3, #1
 2679 0192 9946     		mov	r9, r3
 2680 0194 1CE0     		b	.L152
 2681              	.LVL433:
 2682              	.L165:
 699:Api\core\src/vl53l0x_api_calibration.c **** 
 2683              		.loc 1 699 0
 2684 0196 0023     		movs	r3, #0
 2685 0198 0B93     		str	r3, [sp, #44]
 698:Api\core\src/vl53l0x_api_calibration.c **** 	uint8_t	 isApertureSpads_int = 0;
 2686              		.loc 1 698 0
ARM GAS  C:\Users\Rajesh\AppData\Local\Temp\ccFou9eL.s 			page 72


 2687 019a 0793     		str	r3, [sp, #28]
 2688 019c 9946     		mov	r9, r3
 2689 019e 0027     		movs	r7, #0
 2690 01a0 16E0     		b	.L152
 2691              	.LVL434:
 2692              	.L166:
 699:Api\core\src/vl53l0x_api_calibration.c **** 
 2693              		.loc 1 699 0
 2694 01a2 0023     		movs	r3, #0
 2695 01a4 0B93     		str	r3, [sp, #44]
 698:Api\core\src/vl53l0x_api_calibration.c **** 	uint8_t	 isApertureSpads_int = 0;
 2696              		.loc 1 698 0
 2697 01a6 0793     		str	r3, [sp, #28]
 832:Api\core\src/vl53l0x_api_calibration.c **** 		}
 2698              		.loc 1 832 0
 2699 01a8 9946     		mov	r9, r3
 2700 01aa 11E0     		b	.L152
 2701              	.LVL435:
 2702              	.L168:
 699:Api\core\src/vl53l0x_api_calibration.c **** 
 2703              		.loc 1 699 0
 2704 01ac 0023     		movs	r3, #0
 2705 01ae 0B93     		str	r3, [sp, #44]
 698:Api\core\src/vl53l0x_api_calibration.c **** 	uint8_t	 isApertureSpads_int = 0;
 2706              		.loc 1 698 0
 2707 01b0 0793     		str	r3, [sp, #28]
 802:Api\core\src/vl53l0x_api_calibration.c **** 
 2708              		.loc 1 802 0
 2709 01b2 0133     		adds	r3, r3, #1
 2710 01b4 9946     		mov	r9, r3
 2711 01b6 0BE0     		b	.L152
 2712              	.L169:
 699:Api\core\src/vl53l0x_api_calibration.c **** 
 2713              		.loc 1 699 0
 2714 01b8 0023     		movs	r3, #0
 2715 01ba 0B93     		str	r3, [sp, #44]
 698:Api\core\src/vl53l0x_api_calibration.c **** 	uint8_t	 isApertureSpads_int = 0;
 2716              		.loc 1 698 0
 2717 01bc 0793     		str	r3, [sp, #28]
 802:Api\core\src/vl53l0x_api_calibration.c **** 
 2718              		.loc 1 802 0
 2719 01be 0133     		adds	r3, r3, #1
 2720 01c0 9946     		mov	r9, r3
 2721 01c2 05E0     		b	.L152
 2722              	.L170:
 827:Api\core\src/vl53l0x_api_calibration.c **** 					refSpadCount_int = minimumSpadCount;
 2723              		.loc 1 827 0
 2724 01c4 0123     		movs	r3, #1
 2725 01c6 0B93     		str	r3, [sp, #44]
 828:Api\core\src/vl53l0x_api_calibration.c **** 				}
 2726              		.loc 1 828 0
 2727 01c8 0233     		adds	r3, r3, #2
 2728 01ca 0793     		str	r3, [sp, #28]
 802:Api\core\src/vl53l0x_api_calibration.c **** 
 2729              		.loc 1 802 0
 2730 01cc 023B     		subs	r3, r3, #2
 2731 01ce 9946     		mov	r9, r3
ARM GAS  C:\Users\Rajesh\AppData\Local\Temp\ccFou9eL.s 			page 73


 2732              	.LVL436:
 2733              	.L152:
 836:Api\core\src/vl53l0x_api_calibration.c **** 		(peakSignalRateRef < targetRefRate)) {
 2734              		.loc 1 836 0
 2735 01d0 002C     		cmp	r4, #0
 2736 01d2 00D0     		beq	.LCB3019
 2737 01d4 89E0     		b	.L158	@long jump
 2738              	.LCB3019:
 837:Api\core\src/vl53l0x_api_calibration.c **** 		/* At this point, the minimum number of either aperture
 2739              		.loc 1 837 0 discriminator 1
 2740 01d6 1E23     		movs	r3, #30
 2741 01d8 08AA     		add	r2, sp, #32
 2742 01da 9446     		mov	ip, r2
 2743 01dc 6344     		add	r3, r3, ip
 2744 01de 1E88     		ldrh	r6, [r3]
 836:Api\core\src/vl53l0x_api_calibration.c **** 		(peakSignalRateRef < targetRefRate)) {
 2745              		.loc 1 836 0 discriminator 1
 2746 01e0 B245     		cmp	r10, r6
 2747 01e2 00D8     		bhi	.LCB3026
 2748 01e4 81E0     		b	.L158	@long jump
 2749              	.LCB3026:
 843:Api\core\src/vl53l0x_api_calibration.c **** 		refSpadCount_int	= minimumSpadCount;
 2750              		.loc 1 843 0
 2751 01e6 4B46     		mov	r3, r9
 2752 01e8 6A46     		mov	r2, sp
 2753 01ea 1377     		strb	r3, [r2, #28]
 2754              	.LVL437:
 2755 01ec 137F     		ldrb	r3, [r2, #28]
 2756 01ee 0B93     		str	r3, [sp, #44]
 2757              	.LVL438:
 846:Api\core\src/vl53l0x_api_calibration.c **** 				spadArraySize);
 2758              		.loc 1 846 0
 2759 01f0 2900     		movs	r1, r5
 2760 01f2 2531     		adds	r1, r1, #37
 2761 01f4 FF31     		adds	r1, r1, #255
 2762 01f6 0622     		movs	r2, #6
 2763 01f8 12A8     		add	r0, sp, #72
 2764 01fa FFF7FEFF 		bl	memcpy
 2765              	.LVL439:
 848:Api\core\src/vl53l0x_api_calibration.c **** 			targetRefRate);
 2766              		.loc 1 848 0
 2767 01fe D046     		mov	r8, r10
 2768 0200 5346     		mov	r3, r10
 2769 0202 F61A     		subs	r6, r6, r3
 2770 0204 F217     		asrs	r2, r6, #31
 2771 0206 B318     		adds	r3, r6, r2
 2772 0208 5340     		eors	r3, r2
 2773 020a 0A93     		str	r3, [sp, #40]
 2774              	.LVL440:
 844:Api\core\src/vl53l0x_api_calibration.c **** 
 2775              		.loc 1 844 0
 2776 020c 0323     		movs	r3, #3
 2777 020e 0793     		str	r3, [sp, #28]
 850:Api\core\src/vl53l0x_api_calibration.c **** 
 2778              		.loc 1 850 0
 2779 0210 0023     		movs	r3, #0
 2780 0212 0897     		str	r7, [sp, #32]
ARM GAS  C:\Users\Rajesh\AppData\Local\Temp\ccFou9eL.s 			page 74


 2781 0214 1F00     		movs	r7, r3
 2782              	.LVL441:
 2783 0216 D346     		mov	fp, r10
 852:Api\core\src/vl53l0x_api_calibration.c **** 			get_next_good_spad(
 2784              		.loc 1 852 0
 2785 0218 5CE0     		b	.L159
 2786              	.LVL442:
 2787              	.L163:
 853:Api\core\src/vl53l0x_api_calibration.c **** 				Dev->Data.SpadData.RefGoodSpadMap,
 2788              		.loc 1 853 0
 2789 021a 10AB     		add	r3, sp, #64
 2790 021c 089A     		ldr	r2, [sp, #32]
 2791 021e 0621     		movs	r1, #6
 2792 0220 2800     		movs	r0, r5
 2793 0222 2B30     		adds	r0, r0, #43
 2794 0224 FF30     		adds	r0, r0, #255
 2795 0226 FFF7FEFF 		bl	get_next_good_spad
 2796              	.LVL443:
 858:Api\core\src/vl53l0x_api_calibration.c **** 				Status = VL53L0X_ERROR_REF_SPAD_INIT;
 2797              		.loc 1 858 0
 2798 022a 109E     		ldr	r6, [sp, #64]
 2799 022c 731C     		adds	r3, r6, #1
 2800 022e 54D0     		beq	.L171
 866:Api\core\src/vl53l0x_api_calibration.c **** 					needAptSpads) {
 2801              		.loc 1 866 0
 2802 0230 0896     		str	r6, [sp, #32]
 2803              	.LVL444:
 2804 0232 3000     		movs	r0, r6
 2805 0234 B430     		adds	r0, r0, #180
 2806 0236 FFF7FEFF 		bl	is_aperture
 2807              	.LVL445:
 2808 023a 8145     		cmp	r9, r0
 2809 023c 55D1     		bne	.L158
 875:Api\core\src/vl53l0x_api_calibration.c **** 
 2810              		.loc 1 875 0
 2811 023e 079B     		ldr	r3, [sp, #28]
 2812 0240 0133     		adds	r3, r3, #1
 2813 0242 0993     		str	r3, [sp, #36]
 2814              	.LVL446:
 879:Api\core\src/vl53l0x_api_calibration.c **** 					spadArraySize, currentSpadIndex);
 2815              		.loc 1 879 0
 2816 0244 9223     		movs	r3, #146
 2817              	.LVL447:
 2818 0246 5B00     		lsls	r3, r3, #1
 2819 0248 9A46     		mov	r10, r3
 2820 024a AA44     		add	r10, r10, r5
 878:Api\core\src/vl53l0x_api_calibration.c **** 					Dev->Data.SpadData.RefSpadEnables,
 2821              		.loc 1 878 0
 2822 024c 3200     		movs	r2, r6
 2823 024e 0621     		movs	r1, #6
 2824 0250 5046     		mov	r0, r10
 2825 0252 FFF7FEFF 		bl	enable_spad_bit
 2826              	.LVL448:
 2827 0256 041E     		subs	r4, r0, #0
 2828              	.LVL449:
 882:Api\core\src/vl53l0x_api_calibration.c **** 				currentSpadIndex++;
 2829              		.loc 1 882 0
ARM GAS  C:\Users\Rajesh\AppData\Local\Temp\ccFou9eL.s 			page 75


 2830 0258 06D1     		bne	.L160
 883:Api\core\src/vl53l0x_api_calibration.c **** 				/* Proceed to apply the additional spad and
 2831              		.loc 1 883 0
 2832 025a 731C     		adds	r3, r6, #1
 2833 025c 0893     		str	r3, [sp, #32]
 2834              	.LVL450:
 886:Api\core\src/vl53l0x_api_calibration.c **** 					Dev->Data.SpadData.RefSpadEnables);
 2835              		.loc 1 886 0
 2836 025e 5146     		mov	r1, r10
 2837 0260 2800     		movs	r0, r5
 2838              	.LVL451:
 2839 0262 FFF7FEFF 		bl	set_ref_spad_map
 2840              	.LVL452:
 2841 0266 0400     		movs	r4, r0
 2842              	.LVL453:
 2843              	.L160:
 890:Api\core\src/vl53l0x_api_calibration.c **** 				break;
 2844              		.loc 1 890 0
 2845 0268 002C     		cmp	r4, #0
 2846 026a 39D1     		bne	.L172
 893:Api\core\src/vl53l0x_api_calibration.c **** 					&peakSignalRateRef);
 2847              		.loc 1 893 0
 2848 026c 1E21     		movs	r1, #30
 2849 026e 08AB     		add	r3, sp, #32
 2850              	.LVL454:
 2851 0270 9C46     		mov	ip, r3
 2852 0272 6144     		add	r1, r1, ip
 2853 0274 2800     		movs	r0, r5
 2854 0276 FFF7FEFF 		bl	perform_ref_signal_measurement
 2855              	.LVL455:
 2856 027a 041E     		subs	r4, r0, #0
 2857              	.LVL456:
 896:Api\core\src/vl53l0x_api_calibration.c **** 				break;
 2858              		.loc 1 896 0
 2859 027c 33D1     		bne	.L173
 899:Api\core\src/vl53l0x_api_calibration.c **** 
 2860              		.loc 1 899 0
 2861 027e 1E23     		movs	r3, #30
 2862 0280 08AA     		add	r2, sp, #32
 2863              	.LVL457:
 2864 0282 9446     		mov	ip, r2
 2865 0284 6344     		add	r3, r3, ip
 2866 0286 1B88     		ldrh	r3, [r3]
 2867 0288 4246     		mov	r2, r8
 2868              	.LVL458:
 2869 028a 9E1A     		subs	r6, r3, r2
 2870 028c F217     		asrs	r2, r6, #31
 2871 028e B618     		adds	r6, r6, r2
 2872 0290 5640     		eors	r6, r2
 2873              	.LVL459:
 901:Api\core\src/vl53l0x_api_calibration.c **** 				/* Select the spad map that provides the
 2874              		.loc 1 901 0
 2875 0292 9B45     		cmp	fp, r3
 2876 0294 12D2     		bcs	.L161
 906:Api\core\src/vl53l0x_api_calibration.c **** 					/* Previous spad map produced a closer
 2877              		.loc 1 906 0
 2878 0296 0A9B     		ldr	r3, [sp, #40]
ARM GAS  C:\Users\Rajesh\AppData\Local\Temp\ccFou9eL.s 			page 76


 2879 0298 B342     		cmp	r3, r6
 2880 029a 18D2     		bcs	.L174
 909:Api\core\src/vl53l0x_api_calibration.c **** 							lastSpadArray);
 2881              		.loc 1 909 0
 2882 029c 12A9     		add	r1, sp, #72
 2883 029e 2800     		movs	r0, r5
 2884              	.LVL460:
 2885 02a0 FFF7FEFF 		bl	set_ref_spad_map
 2886              	.LVL461:
 2887 02a4 0400     		movs	r4, r0
 2888              	.LVL462:
 911:Api\core\src/vl53l0x_api_calibration.c **** 					Dev->Data.SpadData.RefSpadEnables,
 2889              		.loc 1 911 0
 2890 02a6 2800     		movs	r0, r5
 2891              	.LVL463:
 2892 02a8 2530     		adds	r0, r0, #37
 2893 02aa FF30     		adds	r0, r0, #255
 2894 02ac 0622     		movs	r2, #6
 2895 02ae 12A9     		add	r1, sp, #72
 2896 02b0 FFF7FEFF 		bl	memcpy
 2897              	.LVL464:
 915:Api\core\src/vl53l0x_api_calibration.c **** 				}
 2898              		.loc 1 915 0
 2899 02b4 079B     		ldr	r3, [sp, #28]
 2900 02b6 0993     		str	r3, [sp, #36]
 917:Api\core\src/vl53l0x_api_calibration.c **** 			} else {
 2901              		.loc 1 917 0
 2902 02b8 0127     		movs	r7, #1
 2903              	.LVL465:
 2904 02ba 09E0     		b	.L162
 2905              	.LVL466:
 2906              	.L161:
 921:Api\core\src/vl53l0x_api_calibration.c **** 					Dev->Data.SpadData.RefSpadEnables,
 2907              		.loc 1 921 0
 2908 02bc 2900     		movs	r1, r5
 2909 02be 2531     		adds	r1, r1, #37
 2910 02c0 FF31     		adds	r1, r1, #255
 2911 02c2 0622     		movs	r2, #6
 2912 02c4 12A8     		add	r0, sp, #72
 2913              	.LVL467:
 2914 02c6 FFF7FEFF 		bl	memcpy
 2915              	.LVL468:
 920:Api\core\src/vl53l0x_api_calibration.c **** 				memcpy(lastSpadArray,
 2916              		.loc 1 920 0
 2917 02ca 0A96     		str	r6, [sp, #40]
 2918 02cc 00E0     		b	.L162
 2919              	.LVL469:
 2920              	.L174:
 917:Api\core\src/vl53l0x_api_calibration.c **** 			} else {
 2921              		.loc 1 917 0
 2922 02ce 0127     		movs	r7, #1
 2923              	.LVL470:
 2924              	.L162:
 920:Api\core\src/vl53l0x_api_calibration.c **** 				memcpy(lastSpadArray,
 2925              		.loc 1 920 0
 2926 02d0 099B     		ldr	r3, [sp, #36]
 2927 02d2 0793     		str	r3, [sp, #28]
ARM GAS  C:\Users\Rajesh\AppData\Local\Temp\ccFou9eL.s 			page 77


 2928              	.LVL471:
 2929              	.L159:
 852:Api\core\src/vl53l0x_api_calibration.c **** 			get_next_good_spad(
 2930              		.loc 1 852 0
 2931 02d4 002F     		cmp	r7, #0
 2932 02d6 A0D0     		beq	.L163
 2933 02d8 07E0     		b	.L158
 2934              	.L171:
 859:Api\core\src/vl53l0x_api_calibration.c **** 				break;
 2935              		.loc 1 859 0
 2936 02da 3224     		movs	r4, #50
 2937              	.LVL472:
 2938 02dc 6442     		rsbs	r4, r4, #0
 2939 02de 04E0     		b	.L158
 2940              	.LVL473:
 2941              	.L172:
 875:Api\core\src/vl53l0x_api_calibration.c **** 
 2942              		.loc 1 875 0
 2943 02e0 099B     		ldr	r3, [sp, #36]
 2944 02e2 0793     		str	r3, [sp, #28]
 2945 02e4 01E0     		b	.L158
 2946              	.LVL474:
 2947              	.L173:
 2948 02e6 099B     		ldr	r3, [sp, #36]
 2949 02e8 0793     		str	r3, [sp, #28]
 2950              	.LVL475:
 2951              	.L158:
 929:Api\core\src/vl53l0x_api_calibration.c **** 		*refSpadCount = refSpadCount_int;
 2952              		.loc 1 929 0
 2953 02ea 002C     		cmp	r4, #0
 2954 02ec 14D1     		bne	.L164
 930:Api\core\src/vl53l0x_api_calibration.c **** 		*isApertureSpads = isApertureSpads_int;
 2955              		.loc 1 930 0
 2956 02ee 0C99     		ldr	r1, [sp, #48]
 2957 02f0 079A     		ldr	r2, [sp, #28]
 2958 02f2 0A60     		str	r2, [r1]
 931:Api\core\src/vl53l0x_api_calibration.c **** 
 2959              		.loc 1 931 0
 2960 02f4 0D98     		ldr	r0, [sp, #52]
 2961 02f6 6A46     		mov	r2, sp
 2962 02f8 2C26     		movs	r6, #44
 2963 02fa 9219     		adds	r2, r2, r6
 2964 02fc 1278     		ldrb	r2, [r2]
 2965 02fe 0270     		strb	r2, [r0]
 933:Api\core\src/vl53l0x_api_calibration.c **** 		VL53L0X_SETDEVICESPECIFICPARAMETER(Dev,
 2966              		.loc 1 933 0
 2967 0300 0122     		movs	r2, #1
 2968 0302 1623     		movs	r3, #22
 2969 0304 FF33     		adds	r3, r3, #255
 2970 0306 EA54     		strb	r2, [r5, r3]
 934:Api\core\src/vl53l0x_api_calibration.c **** 			ReferenceSpadCount, (uint8_t)(*refSpadCount));
 2971              		.loc 1 934 0
 2972 0308 0A78     		ldrb	r2, [r1]
 2973 030a 1423     		movs	r3, #20
 2974 030c FF33     		adds	r3, r3, #255
 2975 030e EA54     		strb	r2, [r5, r3]
 936:Api\core\src/vl53l0x_api_calibration.c **** 			ReferenceSpadType, *isApertureSpads);
ARM GAS  C:\Users\Rajesh\AppData\Local\Temp\ccFou9eL.s 			page 78


 2976              		.loc 1 936 0
 2977 0310 0278     		ldrb	r2, [r0]
 2978 0312 8A23     		movs	r3, #138
 2979 0314 5B00     		lsls	r3, r3, #1
 2980 0316 EA54     		strb	r2, [r5, r3]
 2981              	.L164:
 941:Api\core\src/vl53l0x_api_calibration.c **** 
 2982              		.loc 1 941 0
 2983 0318 2000     		movs	r0, r4
 2984 031a 15B0     		add	sp, sp, #84
 2985              		@ sp needed
 2986              	.LVL476:
 2987              	.LVL477:
 2988              	.LVL478:
 2989 031c 3CBC     		pop	{r2, r3, r4, r5}
 2990 031e 9046     		mov	r8, r2
 2991 0320 9946     		mov	r9, r3
 2992 0322 A246     		mov	r10, r4
 2993 0324 AB46     		mov	fp, r5
 2994 0326 F0BD     		pop	{r4, r5, r6, r7, pc}
 2995              		.cfi_endproc
 2996              	.LFE14:
 2997              		.size	VL53L0X_perform_ref_spad_management, .-VL53L0X_perform_ref_spad_management
 2998              		.section	.text.VL53L0X_set_ref_calibration,"ax",%progbits
 2999              		.align	2
 3000              		.global	VL53L0X_set_ref_calibration
 3001              		.code	16
 3002              		.thumb_func
 3003              		.type	VL53L0X_set_ref_calibration, %function
 3004              	VL53L0X_set_ref_calibration:
 3005              	.LFB22:
1247:Api\core\src/vl53l0x_api_calibration.c **** 
1248:Api\core\src/vl53l0x_api_calibration.c **** VL53L0X_Error VL53L0X_set_ref_calibration(VL53L0X_DEV Dev,
1249:Api\core\src/vl53l0x_api_calibration.c **** 		uint8_t VhvSettings, uint8_t PhaseCal)
1250:Api\core\src/vl53l0x_api_calibration.c **** {
 3006              		.loc 1 1250 0
 3007              		.cfi_startproc
 3008              		@ args = 0, pretend = 0, frame = 8
 3009              		@ frame_needed = 0, uses_anonymous_args = 0
 3010              	.LVL479:
 3011 0000 10B5     		push	{r4, lr}
 3012              		.cfi_def_cfa_offset 8
 3013              		.cfi_offset 4, -8
 3014              		.cfi_offset 14, -4
 3015 0002 86B0     		sub	sp, sp, #24
 3016              		.cfi_def_cfa_offset 32
 3017 0004 1300     		movs	r3, r2
 3018              	.LVL480:
1251:Api\core\src/vl53l0x_api_calibration.c **** 	VL53L0X_Error Status = VL53L0X_ERROR_NONE;
1252:Api\core\src/vl53l0x_api_calibration.c **** 	uint8_t pVhvSettings;
1253:Api\core\src/vl53l0x_api_calibration.c **** 	uint8_t pPhaseCal;
1254:Api\core\src/vl53l0x_api_calibration.c **** 
1255:Api\core\src/vl53l0x_api_calibration.c **** 	Status = VL53L0X_ref_calibration_io(Dev, 0,
 3019              		.loc 1 1255 0
 3020 0006 0124     		movs	r4, #1
 3021 0008 0394     		str	r4, [sp, #12]
 3022 000a 0294     		str	r4, [sp, #8]
ARM GAS  C:\Users\Rajesh\AppData\Local\Temp\ccFou9eL.s 			page 79


 3023 000c 1622     		movs	r2, #22
 3024              	.LVL481:
 3025 000e 6A44     		add	r2, r2, sp
 3026 0010 0192     		str	r2, [sp, #4]
 3027 0012 1722     		movs	r2, #23
 3028 0014 6A44     		add	r2, r2, sp
 3029 0016 0092     		str	r2, [sp]
 3030 0018 0A00     		movs	r2, r1
 3031 001a 0021     		movs	r1, #0
 3032              	.LVL482:
 3033 001c FFF7FEFF 		bl	VL53L0X_ref_calibration_io
 3034              	.LVL483:
1256:Api\core\src/vl53l0x_api_calibration.c **** 		VhvSettings, PhaseCal,
1257:Api\core\src/vl53l0x_api_calibration.c **** 		&pVhvSettings, &pPhaseCal,
1258:Api\core\src/vl53l0x_api_calibration.c **** 		1, 1);
1259:Api\core\src/vl53l0x_api_calibration.c **** 
1260:Api\core\src/vl53l0x_api_calibration.c **** 	return Status;
1261:Api\core\src/vl53l0x_api_calibration.c **** }
 3035              		.loc 1 1261 0
 3036 0020 06B0     		add	sp, sp, #24
 3037              		@ sp needed
 3038 0022 10BD     		pop	{r4, pc}
 3039              		.cfi_endproc
 3040              	.LFE22:
 3041              		.size	VL53L0X_set_ref_calibration, .-VL53L0X_set_ref_calibration
 3042              		.section	.text.VL53L0X_get_ref_calibration,"ax",%progbits
 3043              		.align	2
 3044              		.global	VL53L0X_get_ref_calibration
 3045              		.code	16
 3046              		.thumb_func
 3047              		.type	VL53L0X_get_ref_calibration, %function
 3048              	VL53L0X_get_ref_calibration:
 3049              	.LFB23:
1262:Api\core\src/vl53l0x_api_calibration.c **** 
1263:Api\core\src/vl53l0x_api_calibration.c **** VL53L0X_Error VL53L0X_get_ref_calibration(VL53L0X_DEV Dev,
1264:Api\core\src/vl53l0x_api_calibration.c **** 		uint8_t *pVhvSettings, uint8_t *pPhaseCal)
1265:Api\core\src/vl53l0x_api_calibration.c **** {
 3050              		.loc 1 1265 0
 3051              		.cfi_startproc
 3052              		@ args = 0, pretend = 0, frame = 0
 3053              		@ frame_needed = 0, uses_anonymous_args = 0
 3054              	.LVL484:
 3055 0000 00B5     		push	{lr}
 3056              		.cfi_def_cfa_offset 4
 3057              		.cfi_offset 14, -4
 3058 0002 85B0     		sub	sp, sp, #20
 3059              		.cfi_def_cfa_offset 24
 3060              	.LVL485:
1266:Api\core\src/vl53l0x_api_calibration.c **** 	VL53L0X_Error Status = VL53L0X_ERROR_NONE;
1267:Api\core\src/vl53l0x_api_calibration.c **** 	uint8_t VhvSettings = 0;
1268:Api\core\src/vl53l0x_api_calibration.c **** 	uint8_t PhaseCal = 0;
1269:Api\core\src/vl53l0x_api_calibration.c **** 
1270:Api\core\src/vl53l0x_api_calibration.c **** 	Status = VL53L0X_ref_calibration_io(Dev, 1,
 3061              		.loc 1 1270 0
 3062 0004 0123     		movs	r3, #1
 3063 0006 0393     		str	r3, [sp, #12]
 3064 0008 0293     		str	r3, [sp, #8]
ARM GAS  C:\Users\Rajesh\AppData\Local\Temp\ccFou9eL.s 			page 80


 3065 000a 0192     		str	r2, [sp, #4]
 3066 000c 0091     		str	r1, [sp]
 3067 000e 0023     		movs	r3, #0
 3068 0010 0022     		movs	r2, #0
 3069              	.LVL486:
 3070 0012 0121     		movs	r1, #1
 3071              	.LVL487:
 3072 0014 FFF7FEFF 		bl	VL53L0X_ref_calibration_io
 3073              	.LVL488:
1271:Api\core\src/vl53l0x_api_calibration.c **** 		VhvSettings, PhaseCal,
1272:Api\core\src/vl53l0x_api_calibration.c **** 		pVhvSettings, pPhaseCal,
1273:Api\core\src/vl53l0x_api_calibration.c **** 		1, 1);
1274:Api\core\src/vl53l0x_api_calibration.c **** 
1275:Api\core\src/vl53l0x_api_calibration.c **** 	return Status;
1276:Api\core\src/vl53l0x_api_calibration.c **** }
 3074              		.loc 1 1276 0
 3075 0018 05B0     		add	sp, sp, #20
 3076              		@ sp needed
 3077 001a 00BD     		pop	{pc}
 3078              		.cfi_endproc
 3079              	.LFE23:
 3080              		.size	VL53L0X_get_ref_calibration, .-VL53L0X_get_ref_calibration
 3081              		.global	refArrayQuadrants
 3082              		.data
 3083              		.align	2
 3084              		.set	.LANCHOR0,. + 0
 3085              		.type	refArrayQuadrants, %object
 3086              		.size	refArrayQuadrants, 16
 3087              	refArrayQuadrants:
 3088 0000 0A000000 		.word	10
 3089 0004 05000000 		.word	5
 3090 0008 00000000 		.word	0
 3091 000c 05000000 		.word	5
 3092              		.text
 3093              	.Letext0:
 3094              		.file 2 "c:\\program files (x86)\\cypress\\psoc creator\\4.2\\psoc creator\\import\\gnu\\arm\\5.4.
 3095              		.file 3 "c:\\program files (x86)\\cypress\\psoc creator\\4.2\\psoc creator\\import\\gnu\\arm\\5.4.
 3096              		.file 4 ".\\Api\\platform\\inc/vl53l0x_types.h"
 3097              		.file 5 ".\\Api\\core\\inc/vl53l0x_device.h"
 3098              		.file 6 ".\\Api\\core\\inc/vl53l0x_def.h"
 3099              		.file 7 ".\\Api\\platform\\inc/vl53l0x_platform.h"
 3100              		.file 8 ".\\Api\\core\\inc/vl53l0x_api.h"
 3101              		.file 9 ".\\Api\\core\\inc/vl53l0x_api_core.h"
 3102              		.section	.debug_info,"",%progbits
 3103              	.Ldebug_info0:
 3104 0000 D1200000 		.4byte	0x20d1
 3105 0004 0400     		.2byte	0x4
 3106 0006 00000000 		.4byte	.Ldebug_abbrev0
 3107 000a 04       		.byte	0x4
 3108 000b 01       		.uleb128 0x1
 3109 000c 01060000 		.4byte	.LASF266
 3110 0010 0C       		.byte	0xc
 3111 0011 4A010000 		.4byte	.LASF267
 3112 0015 500D0000 		.4byte	.LASF268
 3113 0019 00000000 		.4byte	.Ldebug_ranges0+0
 3114 001d 00000000 		.4byte	0
 3115 0021 00000000 		.4byte	.Ldebug_line0
ARM GAS  C:\Users\Rajesh\AppData\Local\Temp\ccFou9eL.s 			page 81


 3116 0025 02       		.uleb128 0x2
 3117 0026 2A0C0000 		.4byte	.LASF0
 3118 002a 02       		.byte	0x2
 3119 002b 1B       		.byte	0x1b
 3120 002c 30000000 		.4byte	0x30
 3121 0030 03       		.uleb128 0x3
 3122 0031 01       		.byte	0x1
 3123 0032 06       		.byte	0x6
 3124 0033 92110000 		.4byte	.LASF2
 3125 0037 02       		.uleb128 0x2
 3126 0038 A60E0000 		.4byte	.LASF1
 3127 003c 02       		.byte	0x2
 3128 003d 1D       		.byte	0x1d
 3129 003e 42000000 		.4byte	0x42
 3130 0042 03       		.uleb128 0x3
 3131 0043 01       		.byte	0x1
 3132 0044 08       		.byte	0x8
 3133 0045 4E100000 		.4byte	.LASF3
 3134 0049 02       		.uleb128 0x2
 3135 004a AF0A0000 		.4byte	.LASF4
 3136 004e 02       		.byte	0x2
 3137 004f 29       		.byte	0x29
 3138 0050 54000000 		.4byte	0x54
 3139 0054 03       		.uleb128 0x3
 3140 0055 02       		.byte	0x2
 3141 0056 05       		.byte	0x5
 3142 0057 930D0000 		.4byte	.LASF5
 3143 005b 02       		.uleb128 0x2
 3144 005c 9C050000 		.4byte	.LASF6
 3145 0060 02       		.byte	0x2
 3146 0061 2B       		.byte	0x2b
 3147 0062 66000000 		.4byte	0x66
 3148 0066 03       		.uleb128 0x3
 3149 0067 02       		.byte	0x2
 3150 0068 07       		.byte	0x7
 3151 0069 B3110000 		.4byte	.LASF7
 3152 006d 02       		.uleb128 0x2
 3153 006e 18020000 		.4byte	.LASF8
 3154 0072 02       		.byte	0x2
 3155 0073 3F       		.byte	0x3f
 3156 0074 78000000 		.4byte	0x78
 3157 0078 03       		.uleb128 0x3
 3158 0079 04       		.byte	0x4
 3159 007a 05       		.byte	0x5
 3160 007b B90D0000 		.4byte	.LASF9
 3161 007f 02       		.uleb128 0x2
 3162 0080 82100000 		.4byte	.LASF10
 3163 0084 02       		.byte	0x2
 3164 0085 41       		.byte	0x41
 3165 0086 8A000000 		.4byte	0x8a
 3166 008a 03       		.uleb128 0x3
 3167 008b 04       		.byte	0x4
 3168 008c 07       		.byte	0x7
 3169 008d B50F0000 		.4byte	.LASF11
 3170 0091 03       		.uleb128 0x3
 3171 0092 08       		.byte	0x8
 3172 0093 05       		.byte	0x5
ARM GAS  C:\Users\Rajesh\AppData\Local\Temp\ccFou9eL.s 			page 82


 3173 0094 DF090000 		.4byte	.LASF12
 3174 0098 03       		.uleb128 0x3
 3175 0099 08       		.byte	0x8
 3176 009a 07       		.byte	0x7
 3177 009b 2B050000 		.4byte	.LASF13
 3178 009f 04       		.uleb128 0x4
 3179 00a0 04       		.byte	0x4
 3180 00a1 05       		.byte	0x5
 3181 00a2 696E7400 		.ascii	"int\000"
 3182 00a6 03       		.uleb128 0x3
 3183 00a7 04       		.byte	0x4
 3184 00a8 07       		.byte	0x7
 3185 00a9 71010000 		.4byte	.LASF14
 3186 00ad 02       		.uleb128 0x2
 3187 00ae 0F040000 		.4byte	.LASF15
 3188 00b2 03       		.byte	0x3
 3189 00b3 14       		.byte	0x14
 3190 00b4 25000000 		.4byte	0x25
 3191 00b8 02       		.uleb128 0x2
 3192 00b9 2F090000 		.4byte	.LASF16
 3193 00bd 03       		.byte	0x3
 3194 00be 18       		.byte	0x18
 3195 00bf 37000000 		.4byte	0x37
 3196 00c3 02       		.uleb128 0x2
 3197 00c4 CC040000 		.4byte	.LASF17
 3198 00c8 03       		.byte	0x3
 3199 00c9 20       		.byte	0x20
 3200 00ca 49000000 		.4byte	0x49
 3201 00ce 02       		.uleb128 0x2
 3202 00cf A00C0000 		.4byte	.LASF18
 3203 00d3 03       		.byte	0x3
 3204 00d4 24       		.byte	0x24
 3205 00d5 5B000000 		.4byte	0x5b
 3206 00d9 02       		.uleb128 0x2
 3207 00da 03100000 		.4byte	.LASF19
 3208 00de 03       		.byte	0x3
 3209 00df 2C       		.byte	0x2c
 3210 00e0 6D000000 		.4byte	0x6d
 3211 00e4 02       		.uleb128 0x2
 3212 00e5 06040000 		.4byte	.LASF20
 3213 00e9 03       		.byte	0x3
 3214 00ea 30       		.byte	0x30
 3215 00eb 7F000000 		.4byte	0x7f
 3216 00ef 03       		.uleb128 0x3
 3217 00f0 08       		.byte	0x8
 3218 00f1 04       		.byte	0x4
 3219 00f2 850C0000 		.4byte	.LASF21
 3220 00f6 02       		.uleb128 0x2
 3221 00f7 D4030000 		.4byte	.LASF22
 3222 00fb 04       		.byte	0x4
 3223 00fc 6D       		.byte	0x6d
 3224 00fd E4000000 		.4byte	0xe4
 3225 0101 02       		.uleb128 0x2
 3226 0102 8E040000 		.4byte	.LASF23
 3227 0106 05       		.byte	0x5
 3228 0107 36       		.byte	0x36
 3229 0108 B8000000 		.4byte	0xb8
ARM GAS  C:\Users\Rajesh\AppData\Local\Temp\ccFou9eL.s 			page 83


 3230 010c 02       		.uleb128 0x2
 3231 010d 3E090000 		.4byte	.LASF24
 3232 0111 05       		.byte	0x5
 3233 0112 64       		.byte	0x64
 3234 0113 B8000000 		.4byte	0xb8
 3235 0117 05       		.uleb128 0x5
 3236 0118 2E010000 		.4byte	0x12e
 3237 011c 27010000 		.4byte	0x127
 3238 0120 06       		.uleb128 0x6
 3239 0121 27010000 		.4byte	0x127
 3240 0125 1F       		.byte	0x1f
 3241 0126 00       		.byte	0
 3242 0127 03       		.uleb128 0x3
 3243 0128 04       		.byte	0x4
 3244 0129 07       		.byte	0x7
 3245 012a 900F0000 		.4byte	.LASF25
 3246 012e 03       		.uleb128 0x3
 3247 012f 01       		.byte	0x1
 3248 0130 08       		.byte	0x8
 3249 0131 76080000 		.4byte	.LASF26
 3250 0135 02       		.uleb128 0x2
 3251 0136 EE0E0000 		.4byte	.LASF27
 3252 013a 06       		.byte	0x6
 3253 013b 83       		.byte	0x83
 3254 013c AD000000 		.4byte	0xad
 3255 0140 02       		.uleb128 0x2
 3256 0141 1F0A0000 		.4byte	.LASF28
 3257 0145 06       		.byte	0x6
 3258 0146 B5       		.byte	0xb5
 3259 0147 B8000000 		.4byte	0xb8
 3260 014b 02       		.uleb128 0x2
 3261 014c 9E090000 		.4byte	.LASF29
 3262 0150 06       		.byte	0x6
 3263 0151 C7       		.byte	0xc7
 3264 0152 B8000000 		.4byte	0xb8
 3265 0156 02       		.uleb128 0x2
 3266 0157 BA010000 		.4byte	.LASF30
 3267 015b 06       		.byte	0x6
 3268 015c DA       		.byte	0xda
 3269 015d B8000000 		.4byte	0xb8
 3270 0161 07       		.uleb128 0x7
 3271 0162 40       		.byte	0x40
 3272 0163 06       		.byte	0x6
 3273 0164 EA       		.byte	0xea
 3274 0165 FD010000 		.4byte	0x1fd
 3275 0169 08       		.uleb128 0x8
 3276 016a 5D0C0000 		.4byte	.LASF31
 3277 016e 06       		.byte	0x6
 3278 016f EB       		.byte	0xeb
 3279 0170 40010000 		.4byte	0x140
 3280 0174 00       		.byte	0
 3281 0175 08       		.uleb128 0x8
 3282 0176 83000000 		.4byte	.LASF32
 3283 017a 06       		.byte	0x6
 3284 017b ED       		.byte	0xed
 3285 017c 4B010000 		.4byte	0x14b
 3286 0180 01       		.byte	0x1
ARM GAS  C:\Users\Rajesh\AppData\Local\Temp\ccFou9eL.s 			page 84


 3287 0181 08       		.uleb128 0x8
 3288 0182 9F080000 		.4byte	.LASF33
 3289 0186 06       		.byte	0x6
 3290 0187 F0       		.byte	0xf0
 3291 0188 E4000000 		.4byte	0xe4
 3292 018c 04       		.byte	0x4
 3293 018d 08       		.uleb128 0x8
 3294 018e F0060000 		.4byte	.LASF34
 3295 0192 06       		.byte	0x6
 3296 0193 F2       		.byte	0xf2
 3297 0194 E4000000 		.4byte	0xe4
 3298 0198 08       		.byte	0x8
 3299 0199 08       		.uleb128 0x8
 3300 019a C4000000 		.4byte	.LASF35
 3301 019e 06       		.byte	0x6
 3302 019f F5       		.byte	0xf5
 3303 01a0 B8000000 		.4byte	0xb8
 3304 01a4 0C       		.byte	0xc
 3305 01a5 08       		.uleb128 0x8
 3306 01a6 7E010000 		.4byte	.LASF36
 3307 01aa 06       		.byte	0x6
 3308 01ab F7       		.byte	0xf7
 3309 01ac CE000000 		.4byte	0xce
 3310 01b0 0E       		.byte	0xe
 3311 01b1 08       		.uleb128 0x8
 3312 01b2 680C0000 		.4byte	.LASF37
 3313 01b6 06       		.byte	0x6
 3314 01b7 F9       		.byte	0xf9
 3315 01b8 F6000000 		.4byte	0xf6
 3316 01bc 10       		.byte	0x10
 3317 01bd 08       		.uleb128 0x8
 3318 01be 8A070000 		.4byte	.LASF38
 3319 01c2 06       		.byte	0x6
 3320 01c3 FC       		.byte	0xfc
 3321 01c4 D9000000 		.4byte	0xd9
 3322 01c8 14       		.byte	0x14
 3323 01c9 08       		.uleb128 0x8
 3324 01ca E4010000 		.4byte	.LASF39
 3325 01ce 06       		.byte	0x6
 3326 01cf FF       		.byte	0xff
 3327 01d0 FD010000 		.4byte	0x1fd
 3328 01d4 18       		.byte	0x18
 3329 01d5 09       		.uleb128 0x9
 3330 01d6 43030000 		.4byte	.LASF40
 3331 01da 06       		.byte	0x6
 3332 01db 0101     		.2byte	0x101
 3333 01dd FD010000 		.4byte	0x1fd
 3334 01e1 1E       		.byte	0x1e
 3335 01e2 09       		.uleb128 0x9
 3336 01e3 4D070000 		.4byte	.LASF41
 3337 01e7 06       		.byte	0x6
 3338 01e8 0401     		.2byte	0x104
 3339 01ea 0D020000 		.4byte	0x20d
 3340 01ee 24       		.byte	0x24
 3341 01ef 09       		.uleb128 0x9
 3342 01f0 12030000 		.4byte	.LASF42
 3343 01f4 06       		.byte	0x6
ARM GAS  C:\Users\Rajesh\AppData\Local\Temp\ccFou9eL.s 			page 85


 3344 01f5 0701     		.2byte	0x107
 3345 01f7 B8000000 		.4byte	0xb8
 3346 01fb 3C       		.byte	0x3c
 3347 01fc 00       		.byte	0
 3348 01fd 05       		.uleb128 0x5
 3349 01fe B8000000 		.4byte	0xb8
 3350 0202 0D020000 		.4byte	0x20d
 3351 0206 06       		.uleb128 0x6
 3352 0207 27010000 		.4byte	0x127
 3353 020b 05       		.byte	0x5
 3354 020c 00       		.byte	0
 3355 020d 05       		.uleb128 0x5
 3356 020e F6000000 		.4byte	0xf6
 3357 0212 1D020000 		.4byte	0x21d
 3358 0216 06       		.uleb128 0x6
 3359 0217 27010000 		.4byte	0x127
 3360 021b 05       		.byte	0x5
 3361 021c 00       		.byte	0
 3362 021d 0A       		.uleb128 0xa
 3363 021e 67040000 		.4byte	.LASF43
 3364 0222 06       		.byte	0x6
 3365 0223 0901     		.2byte	0x109
 3366 0225 61010000 		.4byte	0x161
 3367 0229 0A       		.uleb128 0xa
 3368 022a 090C0000 		.4byte	.LASF44
 3369 022e 06       		.byte	0x6
 3370 022f 1101     		.2byte	0x111
 3371 0231 B8000000 		.4byte	0xb8
 3372 0235 0B       		.uleb128 0xb
 3373 0236 08       		.byte	0x8
 3374 0237 06       		.byte	0x6
 3375 0238 2701     		.2byte	0x127
 3376 023a 59020000 		.4byte	0x259
 3377 023e 09       		.uleb128 0x9
 3378 023f 42050000 		.4byte	.LASF45
 3379 0243 06       		.byte	0x6
 3380 0244 2801     		.2byte	0x128
 3381 0246 D9000000 		.4byte	0xd9
 3382 024a 00       		.byte	0
 3383 024b 09       		.uleb128 0x9
 3384 024c FD0A0000 		.4byte	.LASF46
 3385 0250 06       		.byte	0x6
 3386 0251 2A01     		.2byte	0x12a
 3387 0253 D9000000 		.4byte	0xd9
 3388 0257 04       		.byte	0x4
 3389 0258 00       		.byte	0
 3390 0259 0A       		.uleb128 0xa
 3391 025a 170C0000 		.4byte	.LASF47
 3392 025e 06       		.byte	0x6
 3393 025f 2C01     		.2byte	0x12c
 3394 0261 35020000 		.4byte	0x235
 3395 0265 0B       		.uleb128 0xb
 3396 0266 1C       		.byte	0x1c
 3397 0267 06       		.byte	0x6
 3398 0268 3201     		.2byte	0x132
 3399 026a F1020000 		.4byte	0x2f1
 3400 026e 09       		.uleb128 0x9
ARM GAS  C:\Users\Rajesh\AppData\Local\Temp\ccFou9eL.s 			page 86


 3401 026f 10130000 		.4byte	.LASF48
 3402 0273 06       		.byte	0x6
 3403 0274 3301     		.2byte	0x133
 3404 0276 E4000000 		.4byte	0xe4
 3405 027a 00       		.byte	0
 3406 027b 09       		.uleb128 0x9
 3407 027c 3E080000 		.4byte	.LASF49
 3408 0280 06       		.byte	0x6
 3409 0281 3401     		.2byte	0x134
 3410 0283 E4000000 		.4byte	0xe4
 3411 0287 04       		.byte	0x4
 3412 0288 09       		.uleb128 0x9
 3413 0289 00120000 		.4byte	.LASF50
 3414 028d 06       		.byte	0x6
 3415 028e 3901     		.2byte	0x139
 3416 0290 CE000000 		.4byte	0xce
 3417 0294 08       		.byte	0x8
 3418 0295 09       		.uleb128 0x9
 3419 0296 55030000 		.4byte	.LASF51
 3420 029a 06       		.byte	0x6
 3421 029b 3B01     		.2byte	0x13b
 3422 029d CE000000 		.4byte	0xce
 3423 02a1 0A       		.byte	0xa
 3424 02a2 09       		.uleb128 0x9
 3425 02a3 4C000000 		.4byte	.LASF52
 3426 02a7 06       		.byte	0x6
 3427 02a8 4001     		.2byte	0x140
 3428 02aa F6000000 		.4byte	0xf6
 3429 02ae 0C       		.byte	0xc
 3430 02af 09       		.uleb128 0x9
 3431 02b0 02020000 		.4byte	.LASF53
 3432 02b4 06       		.byte	0x6
 3433 02b5 4401     		.2byte	0x144
 3434 02b7 F6000000 		.4byte	0xf6
 3435 02bb 10       		.byte	0x10
 3436 02bc 09       		.uleb128 0x9
 3437 02bd B6060000 		.4byte	.LASF54
 3438 02c1 06       		.byte	0x6
 3439 02c2 4901     		.2byte	0x149
 3440 02c4 CE000000 		.4byte	0xce
 3441 02c8 14       		.byte	0x14
 3442 02c9 09       		.uleb128 0x9
 3443 02ca 810E0000 		.4byte	.LASF55
 3444 02ce 06       		.byte	0x6
 3445 02cf 4D01     		.2byte	0x14d
 3446 02d1 B8000000 		.4byte	0xb8
 3447 02d5 16       		.byte	0x16
 3448 02d6 09       		.uleb128 0x9
 3449 02d7 53120000 		.4byte	.LASF56
 3450 02db 06       		.byte	0x6
 3451 02dc 5001     		.2byte	0x150
 3452 02de B8000000 		.4byte	0xb8
 3453 02e2 17       		.byte	0x17
 3454 02e3 09       		.uleb128 0x9
 3455 02e4 CA090000 		.4byte	.LASF57
 3456 02e8 06       		.byte	0x6
 3457 02e9 5301     		.2byte	0x153
ARM GAS  C:\Users\Rajesh\AppData\Local\Temp\ccFou9eL.s 			page 87


 3458 02eb B8000000 		.4byte	0xb8
 3459 02ef 18       		.byte	0x18
 3460 02f0 00       		.byte	0
 3461 02f1 0A       		.uleb128 0xa
 3462 02f2 A90C0000 		.4byte	.LASF58
 3463 02f6 06       		.byte	0x6
 3464 02f7 5701     		.2byte	0x157
 3465 02f9 65020000 		.4byte	0x265
 3466 02fd 0B       		.uleb128 0xb
 3467 02fe 68       		.byte	0x68
 3468 02ff 06       		.byte	0x6
 3469 0300 6001     		.2byte	0x160
 3470 0302 55030000 		.4byte	0x355
 3471 0306 09       		.uleb128 0x9
 3472 0307 3F070000 		.4byte	.LASF59
 3473 030b 06       		.byte	0x6
 3474 030c 6201     		.2byte	0x162
 3475 030e 55030000 		.4byte	0x355
 3476 0312 00       		.byte	0
 3477 0313 09       		.uleb128 0x9
 3478 0314 4B040000 		.4byte	.LASF60
 3479 0318 06       		.byte	0x6
 3480 0319 6401     		.2byte	0x164
 3481 031b B8000000 		.4byte	0xb8
 3482 031f 60       		.byte	0x60
 3483 0320 09       		.uleb128 0x9
 3484 0321 D6090000 		.4byte	.LASF61
 3485 0325 06       		.byte	0x6
 3486 0326 6601     		.2byte	0x166
 3487 0328 B8000000 		.4byte	0xb8
 3488 032c 61       		.byte	0x61
 3489 032d 09       		.uleb128 0x9
 3490 032e E5080000 		.4byte	.LASF62
 3491 0332 06       		.byte	0x6
 3492 0333 6701     		.2byte	0x167
 3493 0335 B8000000 		.4byte	0xb8
 3494 0339 62       		.byte	0x62
 3495 033a 09       		.uleb128 0x9
 3496 033b 5C100000 		.4byte	.LASF63
 3497 033f 06       		.byte	0x6
 3498 0340 6801     		.2byte	0x168
 3499 0342 B8000000 		.4byte	0xb8
 3500 0346 63       		.byte	0x63
 3501 0347 09       		.uleb128 0x9
 3502 0348 F6010000 		.4byte	.LASF64
 3503 034c 06       		.byte	0x6
 3504 034d 6B01     		.2byte	0x16b
 3505 034f 01010000 		.4byte	0x101
 3506 0353 64       		.byte	0x64
 3507 0354 00       		.byte	0
 3508 0355 05       		.uleb128 0x5
 3509 0356 E4000000 		.4byte	0xe4
 3510 035a 65030000 		.4byte	0x365
 3511 035e 06       		.uleb128 0x6
 3512 035f 27010000 		.4byte	0x127
 3513 0363 17       		.byte	0x17
 3514 0364 00       		.byte	0
ARM GAS  C:\Users\Rajesh\AppData\Local\Temp\ccFou9eL.s 			page 88


 3515 0365 0A       		.uleb128 0xa
 3516 0366 1A130000 		.4byte	.LASF65
 3517 036a 06       		.byte	0x6
 3518 036b 6E01     		.2byte	0x16e
 3519 036d FD020000 		.4byte	0x2fd
 3520 0371 0B       		.uleb128 0xb
 3521 0372 0C       		.byte	0xc
 3522 0373 06       		.byte	0x6
 3523 0374 7601     		.2byte	0x176
 3524 0376 95030000 		.4byte	0x395
 3525 037a 09       		.uleb128 0x9
 3526 037b CC050000 		.4byte	.LASF66
 3527 037f 06       		.byte	0x6
 3528 0380 7701     		.2byte	0x177
 3529 0382 FD010000 		.4byte	0x1fd
 3530 0386 00       		.byte	0
 3531 0387 09       		.uleb128 0x9
 3532 0388 D70E0000 		.4byte	.LASF67
 3533 038c 06       		.byte	0x6
 3534 038d 7901     		.2byte	0x179
 3535 038f FD010000 		.4byte	0x1fd
 3536 0393 06       		.byte	0x6
 3537 0394 00       		.byte	0
 3538 0395 0A       		.uleb128 0xa
 3539 0396 1C090000 		.4byte	.LASF68
 3540 039a 06       		.byte	0x6
 3541 039b 7B01     		.2byte	0x17b
 3542 039d 71030000 		.4byte	0x371
 3543 03a1 0B       		.uleb128 0xb
 3544 03a2 50       		.byte	0x50
 3545 03a3 06       		.byte	0x6
 3546 03a4 7D01     		.2byte	0x17d
 3547 03a6 AF040000 		.4byte	0x4af
 3548 03aa 09       		.uleb128 0x9
 3549 03ab 83050000 		.4byte	.LASF69
 3550 03af 06       		.byte	0x6
 3551 03b0 7E01     		.2byte	0x17e
 3552 03b2 F6000000 		.4byte	0xf6
 3553 03b6 00       		.byte	0
 3554 03b7 09       		.uleb128 0x9
 3555 03b8 7E120000 		.4byte	.LASF70
 3556 03bc 06       		.byte	0x6
 3557 03bd 8001     		.2byte	0x180
 3558 03bf CE000000 		.4byte	0xce
 3559 03c3 04       		.byte	0x4
 3560 03c4 09       		.uleb128 0x9
 3561 03c5 2D110000 		.4byte	.LASF71
 3562 03c9 06       		.byte	0x6
 3563 03ca 8301     		.2byte	0x183
 3564 03cc 0C010000 		.4byte	0x10c
 3565 03d0 06       		.byte	0x6
 3566 03d1 09       		.uleb128 0x9
 3567 03d2 660E0000 		.4byte	.LASF72
 3568 03d6 06       		.byte	0x6
 3569 03d7 8601     		.2byte	0x186
 3570 03d9 E4000000 		.4byte	0xe4
 3571 03dd 08       		.byte	0x8
ARM GAS  C:\Users\Rajesh\AppData\Local\Temp\ccFou9eL.s 			page 89


 3572 03de 09       		.uleb128 0x9
 3573 03df A9100000 		.4byte	.LASF73
 3574 03e3 06       		.byte	0x6
 3575 03e4 8801     		.2byte	0x188
 3576 03e6 B8000000 		.4byte	0xb8
 3577 03ea 0C       		.byte	0xc
 3578 03eb 09       		.uleb128 0x9
 3579 03ec 69100000 		.4byte	.LASF74
 3580 03f0 06       		.byte	0x6
 3581 03f1 8A01     		.2byte	0x18a
 3582 03f3 E4000000 		.4byte	0xe4
 3583 03f7 10       		.byte	0x10
 3584 03f8 09       		.uleb128 0x9
 3585 03f9 DC000000 		.4byte	.LASF75
 3586 03fd 06       		.byte	0x6
 3587 03fe 8C01     		.2byte	0x18c
 3588 0400 B8000000 		.4byte	0xb8
 3589 0404 14       		.byte	0x14
 3590 0405 09       		.uleb128 0x9
 3591 0406 42120000 		.4byte	.LASF76
 3592 040a 06       		.byte	0x6
 3593 040b 8F01     		.2byte	0x18f
 3594 040d CE000000 		.4byte	0xce
 3595 0411 16       		.byte	0x16
 3596 0412 09       		.uleb128 0x9
 3597 0413 F7070000 		.4byte	.LASF77
 3598 0417 06       		.byte	0x6
 3599 0418 9101     		.2byte	0x191
 3600 041a CE000000 		.4byte	0xce
 3601 041e 18       		.byte	0x18
 3602 041f 09       		.uleb128 0x9
 3603 0420 0B100000 		.4byte	.LASF78
 3604 0424 06       		.byte	0x6
 3605 0425 9401     		.2byte	0x194
 3606 0427 CE000000 		.4byte	0xce
 3607 042b 1A       		.byte	0x1a
 3608 042c 09       		.uleb128 0x9
 3609 042d 88080000 		.4byte	.LASF79
 3610 0431 06       		.byte	0x6
 3611 0432 9901     		.2byte	0x199
 3612 0434 B8000000 		.4byte	0xb8
 3613 0438 1C       		.byte	0x1c
 3614 0439 09       		.uleb128 0x9
 3615 043a 36070000 		.4byte	.LASF80
 3616 043e 06       		.byte	0x6
 3617 043f 9B01     		.2byte	0x19b
 3618 0441 B8000000 		.4byte	0xb8
 3619 0445 1D       		.byte	0x1d
 3620 0446 09       		.uleb128 0x9
 3621 0447 8B030000 		.4byte	.LASF81
 3622 044b 06       		.byte	0x6
 3623 044c 9C01     		.2byte	0x19c
 3624 044e B8000000 		.4byte	0xb8
 3625 0452 1E       		.byte	0x1e
 3626 0453 09       		.uleb128 0x9
 3627 0454 CD010000 		.4byte	.LASF82
 3628 0458 06       		.byte	0x6
ARM GAS  C:\Users\Rajesh\AppData\Local\Temp\ccFou9eL.s 			page 90


 3629 0459 9D01     		.2byte	0x19d
 3630 045b 17010000 		.4byte	0x117
 3631 045f 1F       		.byte	0x1f
 3632 0460 09       		.uleb128 0x9
 3633 0461 13070000 		.4byte	.LASF83
 3634 0465 06       		.byte	0x6
 3635 0466 9F01     		.2byte	0x19f
 3636 0468 B8000000 		.4byte	0xb8
 3637 046c 3F       		.byte	0x3f
 3638 046d 09       		.uleb128 0x9
 3639 046e 3A000000 		.4byte	.LASF84
 3640 0472 06       		.byte	0x6
 3641 0473 A001     		.2byte	0x1a0
 3642 0475 B8000000 		.4byte	0xb8
 3643 0479 40       		.byte	0x40
 3644 047a 09       		.uleb128 0x9
 3645 047b 670A0000 		.4byte	.LASF85
 3646 047f 06       		.byte	0x6
 3647 0480 A101     		.2byte	0x1a1
 3648 0482 B8000000 		.4byte	0xb8
 3649 0486 41       		.byte	0x41
 3650 0487 09       		.uleb128 0x9
 3651 0488 E80D0000 		.4byte	.LASF86
 3652 048c 06       		.byte	0x6
 3653 048d A201     		.2byte	0x1a2
 3654 048f E4000000 		.4byte	0xe4
 3655 0493 44       		.byte	0x44
 3656 0494 09       		.uleb128 0x9
 3657 0495 6A000000 		.4byte	.LASF87
 3658 0499 06       		.byte	0x6
 3659 049a A301     		.2byte	0x1a3
 3660 049c E4000000 		.4byte	0xe4
 3661 04a0 48       		.byte	0x48
 3662 04a1 09       		.uleb128 0x9
 3663 04a2 69130000 		.4byte	.LASF88
 3664 04a6 06       		.byte	0x6
 3665 04a7 A401     		.2byte	0x1a4
 3666 04a9 F6000000 		.4byte	0xf6
 3667 04ad 4C       		.byte	0x4c
 3668 04ae 00       		.byte	0
 3669 04af 0A       		.uleb128 0xa
 3670 04b0 E3030000 		.4byte	.LASF89
 3671 04b4 06       		.byte	0x6
 3672 04b5 A701     		.2byte	0x1a7
 3673 04b7 A1030000 		.4byte	0x3a1
 3674 04bb 0C       		.uleb128 0xc
 3675 04bc 5C01     		.2byte	0x15c
 3676 04be 06       		.byte	0x6
 3677 04bf B101     		.2byte	0x1b1
 3678 04c1 1D060000 		.4byte	0x61d
 3679 04c5 09       		.uleb128 0x9
 3680 04c6 35080000 		.4byte	.LASF90
 3681 04ca 06       		.byte	0x6
 3682 04cb B201     		.2byte	0x1b2
 3683 04cd 59020000 		.4byte	0x259
 3684 04d1 00       		.byte	0
 3685 04d2 09       		.uleb128 0x9
ARM GAS  C:\Users\Rajesh\AppData\Local\Temp\ccFou9eL.s 			page 91


 3686 04d3 A3030000 		.4byte	.LASF91
 3687 04d7 06       		.byte	0x6
 3688 04d8 B401     		.2byte	0x1b4
 3689 04da D9000000 		.4byte	0xd9
 3690 04de 08       		.byte	0x8
 3691 04df 09       		.uleb128 0x9
 3692 04e0 04050000 		.4byte	.LASF92
 3693 04e4 06       		.byte	0x6
 3694 04e5 B601     		.2byte	0x1b6
 3695 04e7 D9000000 		.4byte	0xd9
 3696 04eb 0C       		.byte	0xc
 3697 04ec 09       		.uleb128 0x9
 3698 04ed A30F0000 		.4byte	.LASF93
 3699 04f1 06       		.byte	0x6
 3700 04f2 B801     		.2byte	0x1b8
 3701 04f4 1D020000 		.4byte	0x21d
 3702 04f8 10       		.byte	0x10
 3703 04f9 09       		.uleb128 0x9
 3704 04fa C3080000 		.4byte	.LASF94
 3705 04fe 06       		.byte	0x6
 3706 04ff BA01     		.2byte	0x1ba
 3707 0501 F1020000 		.4byte	0x2f1
 3708 0505 50       		.byte	0x50
 3709 0506 09       		.uleb128 0x9
 3710 0507 9E110000 		.4byte	.LASF95
 3711 050b 06       		.byte	0x6
 3712 050c BC01     		.2byte	0x1bc
 3713 050e 65030000 		.4byte	0x365
 3714 0512 6C       		.byte	0x6c
 3715 0513 09       		.uleb128 0x9
 3716 0514 D30F0000 		.4byte	.LASF96
 3717 0518 06       		.byte	0x6
 3718 0519 BE01     		.2byte	0x1be
 3719 051b AF040000 		.4byte	0x4af
 3720 051f D4       		.byte	0xd4
 3721 0520 0D       		.uleb128 0xd
 3722 0521 E0060000 		.4byte	.LASF97
 3723 0525 06       		.byte	0x6
 3724 0526 C001     		.2byte	0x1c0
 3725 0528 95030000 		.4byte	0x395
 3726 052c 2401     		.2byte	0x124
 3727 052e 0D       		.uleb128 0xd
 3728 052f 210D0000 		.4byte	.LASF98
 3729 0533 06       		.byte	0x6
 3730 0534 C201     		.2byte	0x1c2
 3731 0536 B8000000 		.4byte	0xb8
 3732 053a 3001     		.2byte	0x130
 3733 053c 0D       		.uleb128 0xd
 3734 053d C6110000 		.4byte	.LASF99
 3735 0541 06       		.byte	0x6
 3736 0542 C401     		.2byte	0x1c4
 3737 0544 B8000000 		.4byte	0xb8
 3738 0548 3101     		.2byte	0x131
 3739 054a 0D       		.uleb128 0xd
 3740 054b 07130000 		.4byte	.LASF100
 3741 054f 06       		.byte	0x6
 3742 0550 C601     		.2byte	0x1c6
ARM GAS  C:\Users\Rajesh\AppData\Local\Temp\ccFou9eL.s 			page 92


 3743 0552 29020000 		.4byte	0x229
 3744 0556 3201     		.2byte	0x132
 3745 0558 0D       		.uleb128 0xd
 3746 0559 28030000 		.4byte	.LASF101
 3747 055d 06       		.byte	0x6
 3748 055e C801     		.2byte	0x1c8
 3749 0560 56010000 		.4byte	0x156
 3750 0564 3301     		.2byte	0x133
 3751 0566 0D       		.uleb128 0xd
 3752 0567 42120000 		.4byte	.LASF76
 3753 056b 06       		.byte	0x6
 3754 056c CA01     		.2byte	0x1ca
 3755 056e CE000000 		.4byte	0xce
 3756 0572 3401     		.2byte	0x134
 3757 0574 0D       		.uleb128 0xd
 3758 0575 F7070000 		.4byte	.LASF77
 3759 0579 06       		.byte	0x6
 3760 057a CC01     		.2byte	0x1cc
 3761 057c CE000000 		.4byte	0xce
 3762 0580 3601     		.2byte	0x136
 3763 0582 0D       		.uleb128 0xd
 3764 0583 0B100000 		.4byte	.LASF78
 3765 0587 06       		.byte	0x6
 3766 0588 CF01     		.2byte	0x1cf
 3767 058a CE000000 		.4byte	0xce
 3768 058e 3801     		.2byte	0x138
 3769 0590 0D       		.uleb128 0xd
 3770 0591 1E080000 		.4byte	.LASF102
 3771 0595 06       		.byte	0x6
 3772 0596 D201     		.2byte	0x1d2
 3773 0598 B8000000 		.4byte	0xb8
 3774 059c 3A01     		.2byte	0x13a
 3775 059e 0D       		.uleb128 0xd
 3776 059f BE040000 		.4byte	.LASF103
 3777 05a3 06       		.byte	0x6
 3778 05a4 D401     		.2byte	0x1d4
 3779 05a6 CE000000 		.4byte	0xce
 3780 05aa 3C01     		.2byte	0x13c
 3781 05ac 0D       		.uleb128 0xd
 3782 05ad 34120000 		.4byte	.LASF104
 3783 05b1 06       		.byte	0x6
 3784 05b2 D601     		.2byte	0x1d6
 3785 05b4 F6000000 		.4byte	0xf6
 3786 05b8 4001     		.2byte	0x140
 3787 05ba 0D       		.uleb128 0xd
 3788 05bb F50D0000 		.4byte	.LASF105
 3789 05bf 06       		.byte	0x6
 3790 05c0 D901     		.2byte	0x1d9
 3791 05c2 F6000000 		.4byte	0xf6
 3792 05c6 4401     		.2byte	0x144
 3793 05c8 0D       		.uleb128 0xd
 3794 05c9 540E0000 		.4byte	.LASF106
 3795 05cd 06       		.byte	0x6
 3796 05ce DB01     		.2byte	0x1db
 3797 05d0 F6000000 		.4byte	0xf6
 3798 05d4 4801     		.2byte	0x148
 3799 05d6 0D       		.uleb128 0xd
ARM GAS  C:\Users\Rajesh\AppData\Local\Temp\ccFou9eL.s 			page 93


 3800 05d7 EC0F0000 		.4byte	.LASF107
 3801 05db 06       		.byte	0x6
 3802 05dc DD01     		.2byte	0x1dd
 3803 05de 1D060000 		.4byte	0x61d
 3804 05e2 4C01     		.2byte	0x14c
 3805 05e4 0D       		.uleb128 0xd
 3806 05e5 E7050000 		.4byte	.LASF108
 3807 05e9 06       		.byte	0x6
 3808 05ea DF01     		.2byte	0x1df
 3809 05ec B8000000 		.4byte	0xb8
 3810 05f0 5001     		.2byte	0x150
 3811 05f2 0D       		.uleb128 0xd
 3812 05f3 9E060000 		.4byte	.LASF109
 3813 05f7 06       		.byte	0x6
 3814 05f8 E101     		.2byte	0x1e1
 3815 05fa CE000000 		.4byte	0xce
 3816 05fe 5201     		.2byte	0x152
 3817 0600 0D       		.uleb128 0xd
 3818 0601 CC070000 		.4byte	.LASF110
 3819 0605 06       		.byte	0x6
 3820 0606 E301     		.2byte	0x1e3
 3821 0608 CE000000 		.4byte	0xce
 3822 060c 5401     		.2byte	0x154
 3823 060e 0D       		.uleb128 0xd
 3824 060f 8D100000 		.4byte	.LASF111
 3825 0613 06       		.byte	0x6
 3826 0614 E501     		.2byte	0x1e5
 3827 0616 F6000000 		.4byte	0xf6
 3828 061a 5801     		.2byte	0x158
 3829 061c 00       		.byte	0
 3830 061d 0E       		.uleb128 0xe
 3831 061e 04       		.byte	0x4
 3832 061f B8000000 		.4byte	0xb8
 3833 0623 0A       		.uleb128 0xa
 3834 0624 C4100000 		.4byte	.LASF112
 3835 0628 06       		.byte	0x6
 3836 0629 E801     		.2byte	0x1e8
 3837 062b BB040000 		.4byte	0x4bb
 3838 062f 0A       		.uleb128 0xa
 3839 0630 7E110000 		.4byte	.LASF113
 3840 0634 06       		.byte	0x6
 3841 0635 FE01     		.2byte	0x1fe
 3842 0637 B8000000 		.4byte	0xb8
 3843 063b 0F       		.uleb128 0xf
 3844 063c 6001     		.2byte	0x160
 3845 063e 07       		.byte	0x7
 3846 063f 3A       		.byte	0x3a
 3847 0640 78060000 		.4byte	0x678
 3848 0644 08       		.uleb128 0x8
 3849 0645 3D130000 		.4byte	.LASF114
 3850 0649 07       		.byte	0x7
 3851 064a 3B       		.byte	0x3b
 3852 064b 23060000 		.4byte	0x623
 3853 064f 00       		.byte	0
 3854 0650 10       		.uleb128 0x10
 3855 0651 520C0000 		.4byte	.LASF115
 3856 0655 07       		.byte	0x7
ARM GAS  C:\Users\Rajesh\AppData\Local\Temp\ccFou9eL.s 			page 94


 3857 0656 3E       		.byte	0x3e
 3858 0657 B8000000 		.4byte	0xb8
 3859 065b 5C01     		.2byte	0x15c
 3860 065d 10       		.uleb128 0x10
 3861 065e 420F0000 		.4byte	.LASF116
 3862 0662 07       		.byte	0x7
 3863 0663 3F       		.byte	0x3f
 3864 0664 B8000000 		.4byte	0xb8
 3865 0668 5D01     		.2byte	0x15d
 3866 066a 10       		.uleb128 0x10
 3867 066b 5E070000 		.4byte	.LASF117
 3868 066f 07       		.byte	0x7
 3869 0670 40       		.byte	0x40
 3870 0671 CE000000 		.4byte	0xce
 3871 0675 5E01     		.2byte	0x15e
 3872 0677 00       		.byte	0
 3873 0678 02       		.uleb128 0x2
 3874 0679 04030000 		.4byte	.LASF118
 3875 067d 07       		.byte	0x7
 3876 067e 42       		.byte	0x42
 3877 067f 3B060000 		.4byte	0x63b
 3878 0683 02       		.uleb128 0x2
 3879 0684 77000000 		.4byte	.LASF119
 3880 0688 07       		.byte	0x7
 3881 0689 49       		.byte	0x49
 3882 068a 8E060000 		.4byte	0x68e
 3883 068e 0E       		.uleb128 0xe
 3884 068f 04       		.byte	0x4
 3885 0690 78060000 		.4byte	0x678
 3886 0694 11       		.uleb128 0x11
 3887 0695 47130000 		.4byte	.LASF135
 3888 0699 01       		.byte	0x1
 3889 069a 33       		.byte	0x33
 3890 069b 35010000 		.4byte	0x135
 3891 069f 00000000 		.4byte	.LFB1
 3892 06a3 34010000 		.4byte	.LFE1-.LFB1
 3893 06a7 01       		.uleb128 0x1
 3894 06a8 9C       		.byte	0x9c
 3895 06a9 33080000 		.4byte	0x833
 3896 06ad 12       		.uleb128 0x12
 3897 06ae 44657600 		.ascii	"Dev\000"
 3898 06b2 01       		.byte	0x1
 3899 06b3 33       		.byte	0x33
 3900 06b4 83060000 		.4byte	0x683
 3901 06b8 00000000 		.4byte	.LLST0
 3902 06bc 13       		.uleb128 0x13
 3903 06bd 22020000 		.4byte	.LASF120
 3904 06c1 01       		.byte	0x1
 3905 06c2 34       		.byte	0x34
 3906 06c3 F6000000 		.4byte	0xf6
 3907 06c7 2C000000 		.4byte	.LLST1
 3908 06cb 13       		.uleb128 0x13
 3909 06cc 490A0000 		.4byte	.LASF121
 3910 06d0 01       		.byte	0x1
 3911 06d1 35       		.byte	0x35
 3912 06d2 33080000 		.4byte	0x833
 3913 06d6 71000000 		.4byte	.LLST2
ARM GAS  C:\Users\Rajesh\AppData\Local\Temp\ccFou9eL.s 			page 95


 3914 06da 14       		.uleb128 0x14
 3915 06db A4010000 		.4byte	.LASF122
 3916 06df 01       		.byte	0x1
 3917 06e0 37       		.byte	0x37
 3918 06e1 35010000 		.4byte	0x135
 3919 06e5 B3000000 		.4byte	.LLST3
 3920 06e9 14       		.uleb128 0x14
 3921 06ea 1D0E0000 		.4byte	.LASF123
 3922 06ee 01       		.byte	0x1
 3923 06ef 38       		.byte	0x38
 3924 06f0 CE000000 		.4byte	0xce
 3925 06f4 F3000000 		.4byte	.LLST4
 3926 06f8 14       		.uleb128 0x14
 3927 06f9 B5090000 		.4byte	.LASF124
 3928 06fd 01       		.byte	0x1
 3929 06fe 39       		.byte	0x39
 3930 06ff CE000000 		.4byte	0xce
 3931 0703 29010000 		.4byte	.LLST5
 3932 0707 14       		.uleb128 0x14
 3933 0708 910C0000 		.4byte	.LASF125
 3934 070c 01       		.byte	0x1
 3935 070d 3A       		.byte	0x3a
 3936 070e F6000000 		.4byte	0xf6
 3937 0712 5F010000 		.4byte	.LLST6
 3938 0716 14       		.uleb128 0x14
 3939 0717 A30A0000 		.4byte	.LASF126
 3940 071b 01       		.byte	0x1
 3941 071c 3B       		.byte	0x3b
 3942 071d F6000000 		.4byte	0xf6
 3943 0721 95010000 		.4byte	.LLST7
 3944 0725 14       		.uleb128 0x14
 3945 0726 BF090000 		.4byte	.LASF127
 3946 072a 01       		.byte	0x1
 3947 072b 3C       		.byte	0x3c
 3948 072c B8000000 		.4byte	0xb8
 3949 0730 CB010000 		.4byte	.LLST8
 3950 0734 15       		.uleb128 0x15
 3951 0735 7B0A0000 		.4byte	.LASF128
 3952 0739 01       		.byte	0x1
 3953 073a 3D       		.byte	0x3d
 3954 073b F1020000 		.4byte	0x2f1
 3955 073f 03       		.uleb128 0x3
 3956 0740 91       		.byte	0x91
 3957 0741 BC7F     		.sleb128 -68
 3958 0743 14       		.uleb128 0x14
 3959 0744 45020000 		.4byte	.LASF129
 3960 0748 01       		.byte	0x1
 3961 0749 3E       		.byte	0x3e
 3962 074a F6000000 		.4byte	0xf6
 3963 074e 0C020000 		.4byte	.LLST9
 3964 0752 14       		.uleb128 0x14
 3965 0753 91000000 		.4byte	.LASF130
 3966 0757 01       		.byte	0x1
 3967 0758 3F       		.byte	0x3f
 3968 0759 F6000000 		.4byte	0xf6
 3969 075d 2C020000 		.4byte	.LLST10
 3970 0761 14       		.uleb128 0x14
ARM GAS  C:\Users\Rajesh\AppData\Local\Temp\ccFou9eL.s 			page 96


 3971 0762 4D0F0000 		.4byte	.LASF131
 3972 0766 01       		.byte	0x1
 3973 0767 40       		.byte	0x40
 3974 0768 F6000000 		.4byte	0xf6
 3975 076c 6B020000 		.4byte	.LLST11
 3976 0770 14       		.uleb128 0x14
 3977 0771 22000000 		.4byte	.LASF132
 3978 0775 01       		.byte	0x1
 3979 0776 41       		.byte	0x41
 3980 0777 E4000000 		.4byte	0xe4
 3981 077b 89020000 		.4byte	.LLST12
 3982 077f 14       		.uleb128 0x14
 3983 0780 E3110000 		.4byte	.LASF133
 3984 0784 01       		.byte	0x1
 3985 0785 42       		.byte	0x42
 3986 0786 E4000000 		.4byte	0xe4
 3987 078a D1020000 		.4byte	.LLST13
 3988 078e 14       		.uleb128 0x14
 3989 078f 330A0000 		.4byte	.LASF134
 3990 0793 01       		.byte	0x1
 3991 0794 43       		.byte	0x43
 3992 0795 E4000000 		.4byte	0xe4
 3993 0799 EF020000 		.4byte	.LLST14
 3994 079d 14       		.uleb128 0x14
 3995 079e 680C0000 		.4byte	.LASF37
 3996 07a2 01       		.byte	0x1
 3997 07a3 44       		.byte	0x44
 3998 07a4 F6000000 		.4byte	0xf6
 3999 07a8 02030000 		.4byte	.LLST15
 4000 07ac 16       		.uleb128 0x16
 4001 07ad 2C000000 		.4byte	.LVL5
 4002 07b1 FD1F0000 		.4byte	0x1ffd
 4003 07b5 C6070000 		.4byte	0x7c6
 4004 07b9 17       		.uleb128 0x17
 4005 07ba 01       		.uleb128 0x1
 4006 07bb 50       		.byte	0x50
 4007 07bc 03       		.uleb128 0x3
 4008 07bd 7D       		.byte	0x7d
 4009 07be 00       		.sleb128 0
 4010 07bf 06       		.byte	0x6
 4011 07c0 17       		.uleb128 0x17
 4012 07c1 01       		.uleb128 0x1
 4013 07c2 51       		.byte	0x51
 4014 07c3 01       		.uleb128 0x1
 4015 07c4 30       		.byte	0x30
 4016 07c5 00       		.byte	0
 4017 07c6 16       		.uleb128 0x16
 4018 07c7 3C000000 		.4byte	.LVL7
 4019 07cb 09200000 		.4byte	0x2009
 4020 07cf E5070000 		.4byte	0x7e5
 4021 07d3 17       		.uleb128 0x17
 4022 07d4 01       		.uleb128 0x1
 4023 07d5 50       		.byte	0x50
 4024 07d6 03       		.uleb128 0x3
 4025 07d7 7D       		.byte	0x7d
 4026 07d8 00       		.sleb128 0
 4027 07d9 06       		.byte	0x6
ARM GAS  C:\Users\Rajesh\AppData\Local\Temp\ccFou9eL.s 			page 97


 4028 07da 17       		.uleb128 0x17
 4029 07db 01       		.uleb128 0x1
 4030 07dc 51       		.byte	0x51
 4031 07dd 01       		.uleb128 0x1
 4032 07de 33       		.byte	0x33
 4033 07df 17       		.uleb128 0x17
 4034 07e0 01       		.uleb128 0x1
 4035 07e1 52       		.byte	0x52
 4036 07e2 01       		.uleb128 0x1
 4037 07e3 30       		.byte	0x30
 4038 07e4 00       		.byte	0
 4039 07e5 16       		.uleb128 0x16
 4040 07e6 56000000 		.4byte	.LVL10
 4041 07ea 15200000 		.4byte	0x2015
 4042 07ee 01080000 		.4byte	0x801
 4043 07f2 17       		.uleb128 0x17
 4044 07f3 01       		.uleb128 0x1
 4045 07f4 50       		.byte	0x50
 4046 07f5 03       		.uleb128 0x3
 4047 07f6 7D       		.byte	0x7d
 4048 07f7 00       		.sleb128 0
 4049 07f8 06       		.byte	0x6
 4050 07f9 17       		.uleb128 0x17
 4051 07fa 01       		.uleb128 0x1
 4052 07fb 51       		.byte	0x51
 4053 07fc 03       		.uleb128 0x3
 4054 07fd 91       		.byte	0x91
 4055 07fe BC7F     		.sleb128 -68
 4056 0800 00       		.byte	0
 4057 0801 16       		.uleb128 0x16
 4058 0802 14010000 		.4byte	.LVL49
 4059 0806 FD1F0000 		.4byte	0x1ffd
 4060 080a 1B080000 		.4byte	0x81b
 4061 080e 17       		.uleb128 0x17
 4062 080f 01       		.uleb128 0x1
 4063 0810 50       		.byte	0x50
 4064 0811 03       		.uleb128 0x3
 4065 0812 7D       		.byte	0x7d
 4066 0813 00       		.sleb128 0
 4067 0814 06       		.byte	0x6
 4068 0815 17       		.uleb128 0x17
 4069 0816 01       		.uleb128 0x1
 4070 0817 51       		.byte	0x51
 4071 0818 01       		.uleb128 0x1
 4072 0819 31       		.byte	0x31
 4073 081a 00       		.byte	0
 4074 081b 18       		.uleb128 0x18
 4075 081c 22010000 		.4byte	.LVL51
 4076 0820 21200000 		.4byte	0x2021
 4077 0824 17       		.uleb128 0x17
 4078 0825 01       		.uleb128 0x1
 4079 0826 50       		.byte	0x50
 4080 0827 03       		.uleb128 0x3
 4081 0828 7D       		.byte	0x7d
 4082 0829 00       		.sleb128 0
 4083 082a 06       		.byte	0x6
 4084 082b 17       		.uleb128 0x17
ARM GAS  C:\Users\Rajesh\AppData\Local\Temp\ccFou9eL.s 			page 98


 4085 082c 01       		.uleb128 0x1
 4086 082d 51       		.byte	0x51
 4087 082e 02       		.uleb128 0x2
 4088 082f 75       		.byte	0x75
 4089 0830 00       		.sleb128 0
 4090 0831 00       		.byte	0
 4091 0832 00       		.byte	0
 4092 0833 0E       		.uleb128 0xe
 4093 0834 04       		.byte	0x4
 4094 0835 F6000000 		.4byte	0xf6
 4095 0839 11       		.uleb128 0x11
 4096 083a 16010000 		.4byte	.LASF136
 4097 083e 01       		.byte	0x1
 4098 083f BE       		.byte	0xbe
 4099 0840 35010000 		.4byte	0x135
 4100 0844 00000000 		.4byte	.LFB2
 4101 0848 FA000000 		.4byte	.LFE2-.LFB2
 4102 084c 01       		.uleb128 0x1
 4103 084d 9C       		.byte	0x9c
 4104 084e CF090000 		.4byte	0x9cf
 4105 0852 12       		.uleb128 0x12
 4106 0853 44657600 		.ascii	"Dev\000"
 4107 0857 01       		.byte	0x1
 4108 0858 BE       		.byte	0xbe
 4109 0859 83060000 		.4byte	0x683
 4110 085d 20030000 		.4byte	.LLST16
 4111 0861 13       		.uleb128 0x13
 4112 0862 75030000 		.4byte	.LASF137
 4113 0866 01       		.byte	0x1
 4114 0867 BF       		.byte	0xbf
 4115 0868 F6000000 		.4byte	0xf6
 4116 086c 40030000 		.4byte	.LLST17
 4117 0870 13       		.uleb128 0x13
 4118 0871 33020000 		.4byte	.LASF138
 4119 0875 01       		.byte	0x1
 4120 0876 C0       		.byte	0xc0
 4121 0877 CF090000 		.4byte	0x9cf
 4122 087b 6C030000 		.4byte	.LLST18
 4123 087f 14       		.uleb128 0x14
 4124 0880 A4010000 		.4byte	.LASF122
 4125 0884 01       		.byte	0x1
 4126 0885 C2       		.byte	0xc2
 4127 0886 35010000 		.4byte	0x135
 4128 088a AE030000 		.4byte	.LLST19
 4129 088e 14       		.uleb128 0x14
 4130 088f 1D0E0000 		.4byte	.LASF123
 4131 0893 01       		.byte	0x1
 4132 0894 C3       		.byte	0xc3
 4133 0895 CE000000 		.4byte	0xce
 4134 0899 EE030000 		.4byte	.LLST20
 4135 089d 14       		.uleb128 0x14
 4136 089e A30A0000 		.4byte	.LASF126
 4137 08a2 01       		.byte	0x1
 4138 08a3 C4       		.byte	0xc4
 4139 08a4 F6000000 		.4byte	0xf6
 4140 08a8 24040000 		.4byte	.LLST21
 4141 08ac 15       		.uleb128 0x15
ARM GAS  C:\Users\Rajesh\AppData\Local\Temp\ccFou9eL.s 			page 99


 4142 08ad 7B0A0000 		.4byte	.LASF128
 4143 08b1 01       		.byte	0x1
 4144 08b2 C5       		.byte	0xc5
 4145 08b3 F1020000 		.4byte	0x2f1
 4146 08b7 02       		.uleb128 0x2
 4147 08b8 91       		.byte	0x91
 4148 08b9 44       		.sleb128 -60
 4149 08ba 14       		.uleb128 0x14
 4150 08bb 26070000 		.4byte	.LASF139
 4151 08bf 01       		.byte	0x1
 4152 08c0 C6       		.byte	0xc6
 4153 08c1 F6000000 		.4byte	0xf6
 4154 08c5 5A040000 		.4byte	.LLST22
 4155 08c9 14       		.uleb128 0x14
 4156 08ca AF000000 		.4byte	.LASF140
 4157 08ce 01       		.byte	0x1
 4158 08cf C7       		.byte	0xc7
 4159 08d0 E4000000 		.4byte	0xe4
 4160 08d4 7C040000 		.4byte	.LLST23
 4161 08d8 14       		.uleb128 0x14
 4162 08d9 B90A0000 		.4byte	.LASF141
 4163 08dd 01       		.byte	0x1
 4164 08de C8       		.byte	0xc8
 4165 08df E4000000 		.4byte	0xe4
 4166 08e3 8F040000 		.4byte	.LLST24
 4167 08e7 15       		.uleb128 0x15
 4168 08e8 D4040000 		.4byte	.LASF142
 4169 08ec 01       		.byte	0x1
 4170 08ed C9       		.byte	0xc9
 4171 08ee B8000000 		.4byte	0xb8
 4172 08f2 02       		.uleb128 0x2
 4173 08f3 91       		.byte	0x91
 4174 08f4 43       		.sleb128 -61
 4175 08f5 14       		.uleb128 0x14
 4176 08f6 42130000 		.4byte	.LASF143
 4177 08fa 01       		.byte	0x1
 4178 08fb CA       		.byte	0xca
 4179 08fc 9F000000 		.4byte	0x9f
 4180 0900 C5040000 		.4byte	.LLST25
 4181 0904 16       		.uleb128 0x16
 4182 0905 28000000 		.4byte	.LVL64
 4183 0909 2D200000 		.4byte	0x202d
 4184 090d 1F090000 		.4byte	0x91f
 4185 0911 17       		.uleb128 0x17
 4186 0912 01       		.uleb128 0x1
 4187 0913 50       		.byte	0x50
 4188 0914 04       		.uleb128 0x4
 4189 0915 91       		.byte	0x91
 4190 0916 BC7F     		.sleb128 -68
 4191 0918 06       		.byte	0x6
 4192 0919 17       		.uleb128 0x17
 4193 091a 01       		.uleb128 0x1
 4194 091b 51       		.byte	0x51
 4195 091c 01       		.uleb128 0x1
 4196 091d 30       		.byte	0x30
 4197 091e 00       		.byte	0
 4198 091f 16       		.uleb128 0x16
ARM GAS  C:\Users\Rajesh\AppData\Local\Temp\ccFou9eL.s 			page 100


 4199 0920 3A000000 		.4byte	.LVL66
 4200 0924 38200000 		.4byte	0x2038
 4201 0928 40090000 		.4byte	0x940
 4202 092c 17       		.uleb128 0x17
 4203 092d 01       		.uleb128 0x1
 4204 092e 50       		.byte	0x50
 4205 092f 04       		.uleb128 0x4
 4206 0930 91       		.byte	0x91
 4207 0931 BC7F     		.sleb128 -68
 4208 0933 06       		.byte	0x6
 4209 0934 17       		.uleb128 0x17
 4210 0935 01       		.uleb128 0x1
 4211 0936 51       		.byte	0x51
 4212 0937 01       		.uleb128 0x1
 4213 0938 30       		.byte	0x30
 4214 0939 17       		.uleb128 0x17
 4215 093a 01       		.uleb128 0x1
 4216 093b 52       		.byte	0x52
 4217 093c 02       		.uleb128 0x2
 4218 093d 91       		.byte	0x91
 4219 093e 43       		.sleb128 -61
 4220 093f 00       		.byte	0
 4221 0940 16       		.uleb128 0x16
 4222 0941 4A000000 		.4byte	.LVL68
 4223 0945 44200000 		.4byte	0x2044
 4224 0949 60090000 		.4byte	0x960
 4225 094d 17       		.uleb128 0x17
 4226 094e 01       		.uleb128 0x1
 4227 094f 50       		.byte	0x50
 4228 0950 04       		.uleb128 0x4
 4229 0951 91       		.byte	0x91
 4230 0952 BC7F     		.sleb128 -68
 4231 0954 06       		.byte	0x6
 4232 0955 17       		.uleb128 0x17
 4233 0956 01       		.uleb128 0x1
 4234 0957 51       		.byte	0x51
 4235 0958 01       		.uleb128 0x1
 4236 0959 30       		.byte	0x30
 4237 095a 17       		.uleb128 0x17
 4238 095b 01       		.uleb128 0x1
 4239 095c 52       		.byte	0x52
 4240 095d 01       		.uleb128 0x1
 4241 095e 30       		.byte	0x30
 4242 095f 00       		.byte	0
 4243 0960 16       		.uleb128 0x16
 4244 0961 5A000000 		.4byte	.LVL70
 4245 0965 09200000 		.4byte	0x2009
 4246 0969 80090000 		.4byte	0x980
 4247 096d 17       		.uleb128 0x17
 4248 096e 01       		.uleb128 0x1
 4249 096f 50       		.byte	0x50
 4250 0970 04       		.uleb128 0x4
 4251 0971 91       		.byte	0x91
 4252 0972 BC7F     		.sleb128 -68
 4253 0974 06       		.byte	0x6
 4254 0975 17       		.uleb128 0x17
 4255 0976 01       		.uleb128 0x1
ARM GAS  C:\Users\Rajesh\AppData\Local\Temp\ccFou9eL.s 			page 101


 4256 0977 51       		.byte	0x51
 4257 0978 01       		.uleb128 0x1
 4258 0979 33       		.byte	0x33
 4259 097a 17       		.uleb128 0x17
 4260 097b 01       		.uleb128 0x1
 4261 097c 52       		.byte	0x52
 4262 097d 01       		.uleb128 0x1
 4263 097e 30       		.byte	0x30
 4264 097f 00       		.byte	0
 4265 0980 16       		.uleb128 0x16
 4266 0981 6E000000 		.4byte	.LVL73
 4267 0985 15200000 		.4byte	0x2015
 4268 0989 9C090000 		.4byte	0x99c
 4269 098d 17       		.uleb128 0x17
 4270 098e 01       		.uleb128 0x1
 4271 098f 50       		.byte	0x50
 4272 0990 04       		.uleb128 0x4
 4273 0991 91       		.byte	0x91
 4274 0992 BC7F     		.sleb128 -68
 4275 0994 06       		.byte	0x6
 4276 0995 17       		.uleb128 0x17
 4277 0996 01       		.uleb128 0x1
 4278 0997 51       		.byte	0x51
 4279 0998 02       		.uleb128 0x2
 4280 0999 91       		.byte	0x91
 4281 099a 44       		.sleb128 -60
 4282 099b 00       		.byte	0
 4283 099c 16       		.uleb128 0x16
 4284 099d D2000000 		.4byte	.LVL92
 4285 09a1 2D200000 		.4byte	0x202d
 4286 09a5 B2090000 		.4byte	0x9b2
 4287 09a9 17       		.uleb128 0x17
 4288 09aa 01       		.uleb128 0x1
 4289 09ab 50       		.byte	0x50
 4290 09ac 04       		.uleb128 0x4
 4291 09ad 91       		.byte	0x91
 4292 09ae BC7F     		.sleb128 -68
 4293 09b0 06       		.byte	0x6
 4294 09b1 00       		.byte	0
 4295 09b2 18       		.uleb128 0x18
 4296 09b3 EC000000 		.4byte	.LVL94
 4297 09b7 44200000 		.4byte	0x2044
 4298 09bb 17       		.uleb128 0x17
 4299 09bc 01       		.uleb128 0x1
 4300 09bd 50       		.byte	0x50
 4301 09be 04       		.uleb128 0x4
 4302 09bf 91       		.byte	0x91
 4303 09c0 BC7F     		.sleb128 -68
 4304 09c2 06       		.byte	0x6
 4305 09c3 17       		.uleb128 0x17
 4306 09c4 01       		.uleb128 0x1
 4307 09c5 51       		.byte	0x51
 4308 09c6 01       		.uleb128 0x1
 4309 09c7 30       		.byte	0x30
 4310 09c8 17       		.uleb128 0x17
 4311 09c9 01       		.uleb128 0x1
 4312 09ca 52       		.byte	0x52
ARM GAS  C:\Users\Rajesh\AppData\Local\Temp\ccFou9eL.s 			page 102


 4313 09cb 01       		.uleb128 0x1
 4314 09cc 31       		.byte	0x31
 4315 09cd 00       		.byte	0
 4316 09ce 00       		.byte	0
 4317 09cf 0E       		.uleb128 0xe
 4318 09d0 04       		.byte	0x4
 4319 09d1 D9000000 		.4byte	0xd9
 4320 09d5 19       		.uleb128 0x19
 4321 09d6 9E020000 		.4byte	.LASF144
 4322 09da 01       		.byte	0x1
 4323 09db 2101     		.2byte	0x121
 4324 09dd 35010000 		.4byte	0x135
 4325 09e1 00000000 		.4byte	.LFB3
 4326 09e5 48000000 		.4byte	.LFE3-.LFB3
 4327 09e9 01       		.uleb128 0x1
 4328 09ea 9C       		.byte	0x9c
 4329 09eb 730A0000 		.4byte	0xa73
 4330 09ef 1A       		.uleb128 0x1a
 4331 09f0 44657600 		.ascii	"Dev\000"
 4332 09f4 01       		.byte	0x1
 4333 09f5 2101     		.2byte	0x121
 4334 09f7 83060000 		.4byte	0x683
 4335 09fb FB040000 		.4byte	.LLST26
 4336 09ff 1B       		.uleb128 0x1b
 4337 0a00 69090000 		.4byte	.LASF145
 4338 0a04 01       		.byte	0x1
 4339 0a05 2201     		.2byte	0x122
 4340 0a07 D9000000 		.4byte	0xd9
 4341 0a0b 27050000 		.4byte	.LLST27
 4342 0a0f 1C       		.uleb128 0x1c
 4343 0a10 A4010000 		.4byte	.LASF122
 4344 0a14 01       		.byte	0x1
 4345 0a15 2401     		.2byte	0x124
 4346 0a17 35010000 		.4byte	0x135
 4347 0a1b 50050000 		.4byte	.LLST28
 4348 0a1f 1D       		.uleb128 0x1d
 4349 0a20 0C0B0000 		.4byte	.LASF146
 4350 0a24 01       		.byte	0x1
 4351 0a25 2501     		.2byte	0x125
 4352 0a27 D9000000 		.4byte	0xd9
 4353 0a2b 18CC0700 		.4byte	0x7cc18
 4354 0a2f 1E       		.uleb128 0x1e
 4355 0a30 89090000 		.4byte	.LASF147
 4356 0a34 01       		.byte	0x1
 4357 0a35 2601     		.2byte	0x126
 4358 0a37 D9000000 		.4byte	0xd9
 4359 0a3b 80E060   		.sleb128 -512000
 4360 0a3e 1F       		.uleb128 0x1f
 4361 0a3f 43110000 		.4byte	.LASF148
 4362 0a43 01       		.byte	0x1
 4363 0a44 2701     		.2byte	0x127
 4364 0a46 C3000000 		.4byte	0xc3
 4365 0a4a 0010     		.2byte	0x1000
 4366 0a4c 1C       		.uleb128 0x1c
 4367 0a4d 0B090000 		.4byte	.LASF149
 4368 0a51 01       		.byte	0x1
 4369 0a52 2801     		.2byte	0x128
ARM GAS  C:\Users\Rajesh\AppData\Local\Temp\ccFou9eL.s 			page 103


 4370 0a54 E4000000 		.4byte	0xe4
 4371 0a58 6F050000 		.4byte	.LLST29
 4372 0a5c 18       		.uleb128 0x18
 4373 0a5d 3E000000 		.4byte	.LVL110
 4374 0a61 50200000 		.4byte	0x2050
 4375 0a65 17       		.uleb128 0x17
 4376 0a66 01       		.uleb128 0x1
 4377 0a67 50       		.byte	0x50
 4378 0a68 02       		.uleb128 0x2
 4379 0a69 74       		.byte	0x74
 4380 0a6a 00       		.sleb128 0
 4381 0a6b 17       		.uleb128 0x17
 4382 0a6c 01       		.uleb128 0x1
 4383 0a6d 51       		.byte	0x51
 4384 0a6e 02       		.uleb128 0x2
 4385 0a6f 08       		.byte	0x8
 4386 0a70 28       		.byte	0x28
 4387 0a71 00       		.byte	0
 4388 0a72 00       		.byte	0
 4389 0a73 20       		.uleb128 0x20
 4390 0a74 5A0B0000 		.4byte	.LASF150
 4391 0a78 01       		.byte	0x1
 4392 0a79 4601     		.2byte	0x146
 4393 0a7b 35010000 		.4byte	0x135
 4394 0a7f 00000000 		.4byte	.LFB4
 4395 0a83 44000000 		.4byte	.LFE4-.LFB4
 4396 0a87 01       		.uleb128 0x1
 4397 0a88 9C       		.byte	0x9c
 4398 0a89 070B0000 		.4byte	0xb07
 4399 0a8d 1A       		.uleb128 0x1a
 4400 0a8e 44657600 		.ascii	"Dev\000"
 4401 0a92 01       		.byte	0x1
 4402 0a93 4601     		.2byte	0x146
 4403 0a95 83060000 		.4byte	0x683
 4404 0a99 8D050000 		.4byte	.LLST30
 4405 0a9d 1B       		.uleb128 0x1b
 4406 0a9e F5000000 		.4byte	.LASF151
 4407 0aa2 01       		.byte	0x1
 4408 0aa3 4701     		.2byte	0x147
 4409 0aa5 CF090000 		.4byte	0x9cf
 4410 0aa9 AE050000 		.4byte	.LLST31
 4411 0aad 1C       		.uleb128 0x1c
 4412 0aae A4010000 		.4byte	.LASF122
 4413 0ab2 01       		.byte	0x1
 4414 0ab3 4901     		.2byte	0x149
 4415 0ab5 35010000 		.4byte	0x135
 4416 0ab9 DA050000 		.4byte	.LLST32
 4417 0abd 1C       		.uleb128 0x1c
 4418 0abe 0B0A0000 		.4byte	.LASF152
 4419 0ac2 01       		.byte	0x1
 4420 0ac3 4A01     		.2byte	0x14a
 4421 0ac5 CE000000 		.4byte	0xce
 4422 0ac9 F9050000 		.4byte	.LLST33
 4423 0acd 1F       		.uleb128 0x1f
 4424 0ace EC070000 		.4byte	.LASF153
 4425 0ad2 01       		.byte	0x1
 4426 0ad3 4B01     		.2byte	0x14b
ARM GAS  C:\Users\Rajesh\AppData\Local\Temp\ccFou9eL.s 			page 104


 4427 0ad5 C3000000 		.4byte	0xc3
 4428 0ad9 FF07     		.2byte	0x7ff
 4429 0adb 1F       		.uleb128 0x1f
 4430 0adc 43110000 		.4byte	.LASF148
 4431 0ae0 01       		.byte	0x1
 4432 0ae1 4C01     		.2byte	0x14c
 4433 0ae3 C3000000 		.4byte	0xc3
 4434 0ae7 0010     		.2byte	0x1000
 4435 0ae9 18       		.uleb128 0x18
 4436 0aea 10000000 		.4byte	.LVL115
 4437 0aee 5B200000 		.4byte	0x205b
 4438 0af2 17       		.uleb128 0x17
 4439 0af3 01       		.uleb128 0x1
 4440 0af4 50       		.byte	0x50
 4441 0af5 03       		.uleb128 0x3
 4442 0af6 F3       		.byte	0xf3
 4443 0af7 01       		.uleb128 0x1
 4444 0af8 50       		.byte	0x50
 4445 0af9 17       		.uleb128 0x17
 4446 0afa 01       		.uleb128 0x1
 4447 0afb 51       		.byte	0x51
 4448 0afc 02       		.uleb128 0x2
 4449 0afd 08       		.byte	0x8
 4450 0afe 28       		.byte	0x28
 4451 0aff 17       		.uleb128 0x17
 4452 0b00 01       		.uleb128 0x1
 4453 0b01 52       		.byte	0x52
 4454 0b02 02       		.uleb128 0x2
 4455 0b03 7D       		.byte	0x7d
 4456 0b04 06       		.sleb128 6
 4457 0b05 00       		.byte	0
 4458 0b06 00       		.byte	0
 4459 0b07 20       		.uleb128 0x20
 4460 0b08 AC070000 		.4byte	.LASF154
 4461 0b0c 01       		.byte	0x1
 4462 0b0d 6601     		.2byte	0x166
 4463 0b0f 35010000 		.4byte	0x135
 4464 0b13 00000000 		.4byte	.LFB5
 4465 0b17 38000000 		.4byte	.LFE5-.LFB5
 4466 0b1b 01       		.uleb128 0x1
 4467 0b1c 9C       		.byte	0x9c
 4468 0b1d AA0B0000 		.4byte	0xbaa
 4469 0b21 1A       		.uleb128 0x1a
 4470 0b22 44657600 		.ascii	"Dev\000"
 4471 0b26 01       		.byte	0x1
 4472 0b27 6601     		.2byte	0x166
 4473 0b29 83060000 		.4byte	0x683
 4474 0b2d 53060000 		.4byte	.LLST34
 4475 0b31 1C       		.uleb128 0x1c
 4476 0b32 A4010000 		.4byte	.LASF122
 4477 0b36 01       		.byte	0x1
 4478 0b37 6801     		.2byte	0x168
 4479 0b39 35010000 		.4byte	0x135
 4480 0b3d 7F060000 		.4byte	.LLST35
 4481 0b41 1C       		.uleb128 0x1c
 4482 0b42 B00B0000 		.4byte	.LASF155
 4483 0b46 01       		.byte	0x1
ARM GAS  C:\Users\Rajesh\AppData\Local\Temp\ccFou9eL.s 			page 105


 4484 0b47 6901     		.2byte	0x169
 4485 0b49 D9000000 		.4byte	0xd9
 4486 0b4d B4060000 		.4byte	.LLST36
 4487 0b51 21       		.uleb128 0x21
 4488 0b52 040E0000 		.4byte	.LASF156
 4489 0b56 01       		.byte	0x1
 4490 0b57 6A01     		.2byte	0x16a
 4491 0b59 D9000000 		.4byte	0xd9
 4492 0b5d 02       		.uleb128 0x2
 4493 0b5e 91       		.byte	0x91
 4494 0b5f 6C       		.sleb128 -20
 4495 0b60 16       		.uleb128 0x16
 4496 0b61 0C000000 		.4byte	.LVL126
 4497 0b65 66200000 		.4byte	0x2066
 4498 0b69 790B0000 		.4byte	0xb79
 4499 0b6d 17       		.uleb128 0x17
 4500 0b6e 01       		.uleb128 0x1
 4501 0b6f 50       		.byte	0x50
 4502 0b70 02       		.uleb128 0x2
 4503 0b71 74       		.byte	0x74
 4504 0b72 00       		.sleb128 0
 4505 0b73 17       		.uleb128 0x17
 4506 0b74 01       		.uleb128 0x1
 4507 0b75 51       		.byte	0x51
 4508 0b76 01       		.uleb128 0x1
 4509 0b77 37       		.byte	0x37
 4510 0b78 00       		.byte	0
 4511 0b79 16       		.uleb128 0x16
 4512 0b7a 18000000 		.4byte	.LVL128
 4513 0b7e 71200000 		.4byte	0x2071
 4514 0b82 930B0000 		.4byte	0xb93
 4515 0b86 17       		.uleb128 0x17
 4516 0b87 01       		.uleb128 0x1
 4517 0b88 50       		.byte	0x50
 4518 0b89 02       		.uleb128 0x2
 4519 0b8a 74       		.byte	0x74
 4520 0b8b 00       		.sleb128 0
 4521 0b8c 17       		.uleb128 0x17
 4522 0b8d 01       		.uleb128 0x1
 4523 0b8e 51       		.byte	0x51
 4524 0b8f 02       		.uleb128 0x2
 4525 0b90 91       		.byte	0x91
 4526 0b91 6C       		.sleb128 -20
 4527 0b92 00       		.byte	0
 4528 0b93 18       		.uleb128 0x18
 4529 0b94 2E000000 		.4byte	.LVL131
 4530 0b98 2D200000 		.4byte	0x202d
 4531 0b9c 17       		.uleb128 0x17
 4532 0b9d 01       		.uleb128 0x1
 4533 0b9e 50       		.byte	0x50
 4534 0b9f 02       		.uleb128 0x2
 4535 0ba0 74       		.byte	0x74
 4536 0ba1 00       		.sleb128 0
 4537 0ba2 17       		.uleb128 0x17
 4538 0ba3 01       		.uleb128 0x1
 4539 0ba4 51       		.byte	0x51
 4540 0ba5 02       		.uleb128 0x2
ARM GAS  C:\Users\Rajesh\AppData\Local\Temp\ccFou9eL.s 			page 106


 4541 0ba6 75       		.byte	0x75
 4542 0ba7 00       		.sleb128 0
 4543 0ba8 00       		.byte	0
 4544 0ba9 00       		.byte	0
 4545 0baa 22       		.uleb128 0x22
 4546 0bab 10120000 		.4byte	.LASF269
 4547 0baf 01       		.byte	0x1
 4548 0bb0 8E01     		.2byte	0x18e
 4549 0bb2 00000000 		.4byte	.LFB6
 4550 0bb6 5C000000 		.4byte	.LFE6-.LFB6
 4551 0bba 01       		.uleb128 0x1
 4552 0bbb 9C       		.byte	0x9c
 4553 0bbc 680C0000 		.4byte	0xc68
 4554 0bc0 23       		.uleb128 0x23
 4555 0bc1 9D0D0000 		.4byte	.LASF157
 4556 0bc5 01       		.byte	0x1
 4557 0bc6 8E01     		.2byte	0x18e
 4558 0bc8 1D060000 		.4byte	0x61d
 4559 0bcc 01       		.uleb128 0x1
 4560 0bcd 50       		.byte	0x50
 4561 0bce 23       		.uleb128 0x23
 4562 0bcf EB0A0000 		.4byte	.LASF158
 4563 0bd3 01       		.byte	0x1
 4564 0bd4 8E01     		.2byte	0x18e
 4565 0bd6 E4000000 		.4byte	0xe4
 4566 0bda 01       		.uleb128 0x1
 4567 0bdb 51       		.byte	0x51
 4568 0bdc 1B       		.uleb128 0x1b
 4569 0bdd B40D0000 		.4byte	.LASF159
 4570 0be1 01       		.byte	0x1
 4571 0be2 8F01     		.2byte	0x18f
 4572 0be4 E4000000 		.4byte	0xe4
 4573 0be8 C7060000 		.4byte	.LLST37
 4574 0bec 1B       		.uleb128 0x1b
 4575 0bed 9F010000 		.4byte	.LASF160
 4576 0bf1 01       		.byte	0x1
 4577 0bf2 8F01     		.2byte	0x18f
 4578 0bf4 CF090000 		.4byte	0x9cf
 4579 0bf8 F3060000 		.4byte	.LLST38
 4580 0bfc 21       		.uleb128 0x21
 4581 0bfd B5050000 		.4byte	.LASF161
 4582 0c01 01       		.byte	0x1
 4583 0c02 9101     		.2byte	0x191
 4584 0c04 E4000000 		.4byte	0xe4
 4585 0c08 01       		.uleb128 0x1
 4586 0c09 53       		.byte	0x53
 4587 0c0a 1C       		.uleb128 0x1c
 4588 0c0b 6A050000 		.4byte	.LASF162
 4589 0c0f 01       		.byte	0x1
 4590 0c10 9201     		.2byte	0x192
 4591 0c12 E4000000 		.4byte	0xe4
 4592 0c16 1F070000 		.4byte	.LLST39
 4593 0c1a 24       		.uleb128 0x24
 4594 0c1b A7050000 		.4byte	.LASF163
 4595 0c1f 01       		.byte	0x1
 4596 0c20 9301     		.2byte	0x193
 4597 0c22 E4000000 		.4byte	0xe4
ARM GAS  C:\Users\Rajesh\AppData\Local\Temp\ccFou9eL.s 			page 107


 4598 0c26 08       		.byte	0x8
 4599 0c27 1C       		.uleb128 0x1c
 4600 0c28 59110000 		.4byte	.LASF164
 4601 0c2c 01       		.byte	0x1
 4602 0c2d 9401     		.2byte	0x194
 4603 0c2f E4000000 		.4byte	0xe4
 4604 0c33 3D070000 		.4byte	.LLST40
 4605 0c37 1C       		.uleb128 0x1c
 4606 0c38 2B080000 		.4byte	.LASF165
 4607 0c3c 01       		.byte	0x1
 4608 0c3d 9501     		.2byte	0x195
 4609 0c3f E4000000 		.4byte	0xe4
 4610 0c43 5B070000 		.4byte	.LLST41
 4611 0c47 1C       		.uleb128 0x1c
 4612 0c48 A6000000 		.4byte	.LASF166
 4613 0c4c 01       		.byte	0x1
 4614 0c4d 9601     		.2byte	0x196
 4615 0c4f B8000000 		.4byte	0xb8
 4616 0c53 9C070000 		.4byte	.LLST42
 4617 0c57 1C       		.uleb128 0x1c
 4618 0c58 E60E0000 		.4byte	.LASF167
 4619 0c5c 01       		.byte	0x1
 4620 0c5d 9701     		.2byte	0x197
 4621 0c5f B8000000 		.4byte	0xb8
 4622 0c63 D4070000 		.4byte	.LLST43
 4623 0c67 00       		.byte	0
 4624 0c68 20       		.uleb128 0x20
 4625 0c69 C0050000 		.4byte	.LASF168
 4626 0c6d 01       		.byte	0x1
 4627 0c6e BF01     		.2byte	0x1bf
 4628 0c70 B8000000 		.4byte	0xb8
 4629 0c74 00000000 		.4byte	.LFB7
 4630 0c78 18000000 		.4byte	.LFE7-.LFB7
 4631 0c7c 01       		.uleb128 0x1
 4632 0c7d 9C       		.byte	0x9c
 4633 0c7e B30C0000 		.4byte	0xcb3
 4634 0c82 1B       		.uleb128 0x1b
 4635 0c83 990F0000 		.4byte	.LASF169
 4636 0c87 01       		.byte	0x1
 4637 0c88 BF01     		.2byte	0x1bf
 4638 0c8a E4000000 		.4byte	0xe4
 4639 0c8e 0A080000 		.4byte	.LLST44
 4640 0c92 1C       		.uleb128 0x1c
 4641 0c93 DC020000 		.4byte	.LASF170
 4642 0c97 01       		.byte	0x1
 4643 0c98 C501     		.2byte	0x1c5
 4644 0c9a E4000000 		.4byte	0xe4
 4645 0c9e 2B080000 		.4byte	.LLST45
 4646 0ca2 1C       		.uleb128 0x1c
 4647 0ca3 000A0000 		.4byte	.LASF171
 4648 0ca7 01       		.byte	0x1
 4649 0ca8 C601     		.2byte	0x1c6
 4650 0caa B8000000 		.4byte	0xb8
 4651 0cae 4E080000 		.4byte	.LLST46
 4652 0cb2 00       		.byte	0
 4653 0cb3 20       		.uleb128 0x20
 4654 0cb4 5A050000 		.4byte	.LASF172
ARM GAS  C:\Users\Rajesh\AppData\Local\Temp\ccFou9eL.s 			page 108


 4655 0cb8 01       		.byte	0x1
 4656 0cb9 CF01     		.2byte	0x1cf
 4657 0cbb 35010000 		.4byte	0x135
 4658 0cbf 00000000 		.4byte	.LFB8
 4659 0cc3 22000000 		.4byte	.LFE8-.LFB8
 4660 0cc7 01       		.uleb128 0x1
 4661 0cc8 9C       		.byte	0x9c
 4662 0cc9 3B0D0000 		.4byte	0xd3b
 4663 0ccd 1B       		.uleb128 0x1b
 4664 0cce C0030000 		.4byte	.LASF173
 4665 0cd2 01       		.byte	0x1
 4666 0cd3 CF01     		.2byte	0x1cf
 4667 0cd5 1D060000 		.4byte	0x61d
 4668 0cd9 6D080000 		.4byte	.LLST47
 4669 0cdd 1B       		.uleb128 0x1b
 4670 0cde EB0A0000 		.4byte	.LASF158
 4671 0ce2 01       		.byte	0x1
 4672 0ce3 CF01     		.2byte	0x1cf
 4673 0ce5 E4000000 		.4byte	0xe4
 4674 0ce9 A7080000 		.4byte	.LLST48
 4675 0ced 1B       		.uleb128 0x1b
 4676 0cee 990F0000 		.4byte	.LASF169
 4677 0cf2 01       		.byte	0x1
 4678 0cf3 D001     		.2byte	0x1d0
 4679 0cf5 E4000000 		.4byte	0xe4
 4680 0cf9 E1080000 		.4byte	.LLST49
 4681 0cfd 1C       		.uleb128 0x1c
 4682 0cfe 37090000 		.4byte	.LASF174
 4683 0d02 01       		.byte	0x1
 4684 0d03 D201     		.2byte	0x1d2
 4685 0d05 35010000 		.4byte	0x135
 4686 0d09 1B090000 		.4byte	.LLST50
 4687 0d0d 24       		.uleb128 0x24
 4688 0d0e A7050000 		.4byte	.LASF163
 4689 0d12 01       		.byte	0x1
 4690 0d13 D301     		.2byte	0x1d3
 4691 0d15 E4000000 		.4byte	0xe4
 4692 0d19 08       		.byte	0x8
 4693 0d1a 1C       		.uleb128 0x1c
 4694 0d1b 59110000 		.4byte	.LASF164
 4695 0d1f 01       		.byte	0x1
 4696 0d20 D401     		.2byte	0x1d4
 4697 0d22 E4000000 		.4byte	0xe4
 4698 0d26 3A090000 		.4byte	.LLST51
 4699 0d2a 1C       		.uleb128 0x1c
 4700 0d2b 2B080000 		.4byte	.LASF165
 4701 0d2f 01       		.byte	0x1
 4702 0d30 D501     		.2byte	0x1d5
 4703 0d32 E4000000 		.4byte	0xe4
 4704 0d36 87090000 		.4byte	.LLST52
 4705 0d3a 00       		.byte	0
 4706 0d3b 20       		.uleb128 0x20
 4707 0d3c 7D020000 		.4byte	.LASF175
 4708 0d40 01       		.byte	0x1
 4709 0d41 E101     		.2byte	0x1e1
 4710 0d43 35010000 		.4byte	0x135
 4711 0d47 00000000 		.4byte	.LFB9
ARM GAS  C:\Users\Rajesh\AppData\Local\Temp\ccFou9eL.s 			page 109


 4712 0d4b 92000000 		.4byte	.LFE9-.LFB9
 4713 0d4f 01       		.uleb128 0x1
 4714 0d50 9C       		.byte	0x9c
 4715 0d51 200E0000 		.4byte	0xe20
 4716 0d55 1B       		.uleb128 0x1b
 4717 0d56 C0030000 		.4byte	.LASF173
 4718 0d5a 01       		.byte	0x1
 4719 0d5b E101     		.2byte	0x1e1
 4720 0d5d 1D060000 		.4byte	0x61d
 4721 0d61 AA090000 		.4byte	.LLST53
 4722 0d65 1B       		.uleb128 0x1b
 4723 0d66 CC060000 		.4byte	.LASF176
 4724 0d6a 01       		.byte	0x1
 4725 0d6b E201     		.2byte	0x1e2
 4726 0d6d E4000000 		.4byte	0xe4
 4727 0d71 C8090000 		.4byte	.LLST54
 4728 0d75 1B       		.uleb128 0x1b
 4729 0d76 6D080000 		.4byte	.LASF177
 4730 0d7a 01       		.byte	0x1
 4731 0d7b E201     		.2byte	0x1e2
 4732 0d7d E4000000 		.4byte	0xe4
 4733 0d81 020A0000 		.4byte	.LLST55
 4734 0d85 23       		.uleb128 0x23
 4735 0d86 3B100000 		.4byte	.LASF178
 4736 0d8a 01       		.byte	0x1
 4737 0d8b E301     		.2byte	0x1e3
 4738 0d8d 200E0000 		.4byte	0xe20
 4739 0d91 01       		.uleb128 0x1
 4740 0d92 53       		.byte	0x53
 4741 0d93 23       		.uleb128 0x23
 4742 0d94 69030000 		.4byte	.LASF179
 4743 0d98 01       		.byte	0x1
 4744 0d99 E301     		.2byte	0x1e3
 4745 0d9b 1D060000 		.4byte	0x61d
 4746 0d9f 02       		.uleb128 0x2
 4747 0da0 91       		.byte	0x91
 4748 0da1 00       		.sleb128 0
 4749 0da2 1C       		.uleb128 0x1c
 4750 0da3 37090000 		.4byte	.LASF174
 4751 0da7 01       		.byte	0x1
 4752 0da8 E501     		.2byte	0x1e5
 4753 0daa 35010000 		.4byte	0x135
 4754 0dae 2E0A0000 		.4byte	.LLST56
 4755 0db2 24       		.uleb128 0x24
 4756 0db3 A7050000 		.4byte	.LASF163
 4757 0db7 01       		.byte	0x1
 4758 0db8 E601     		.2byte	0x1e6
 4759 0dba E4000000 		.4byte	0xe4
 4760 0dbe 08       		.byte	0x8
 4761 0dbf 1C       		.uleb128 0x1c
 4762 0dc0 AB0D0000 		.4byte	.LASF180
 4763 0dc4 01       		.byte	0x1
 4764 0dc5 E701     		.2byte	0x1e7
 4765 0dc7 E4000000 		.4byte	0xe4
 4766 0dcb 4E0A0000 		.4byte	.LLST57
 4767 0dcf 1C       		.uleb128 0x1c
 4768 0dd0 61090000 		.4byte	.LASF181
ARM GAS  C:\Users\Rajesh\AppData\Local\Temp\ccFou9eL.s 			page 110


 4769 0dd4 01       		.byte	0x1
 4770 0dd5 E801     		.2byte	0x1e8
 4771 0dd7 E4000000 		.4byte	0xe4
 4772 0ddb 710A0000 		.4byte	.LLST58
 4773 0ddf 1C       		.uleb128 0x1c
 4774 0de0 D6060000 		.4byte	.LASF182
 4775 0de4 01       		.byte	0x1
 4776 0de5 E901     		.2byte	0x1e9
 4777 0de7 E4000000 		.4byte	0xe4
 4778 0deb 9F0A0000 		.4byte	.LLST59
 4779 0def 1C       		.uleb128 0x1c
 4780 0df0 93050000 		.4byte	.LASF183
 4781 0df4 01       		.byte	0x1
 4782 0df5 EA01     		.2byte	0x1ea
 4783 0df7 E4000000 		.4byte	0xe4
 4784 0dfb BE0A0000 		.4byte	.LLST60
 4785 0dff 1C       		.uleb128 0x1c
 4786 0e00 61000000 		.4byte	.LASF184
 4787 0e04 01       		.byte	0x1
 4788 0e05 EB01     		.2byte	0x1eb
 4789 0e07 B8000000 		.4byte	0xb8
 4790 0e0b 000B0000 		.4byte	.LLST61
 4791 0e0f 1C       		.uleb128 0x1c
 4792 0e10 ED090000 		.4byte	.LASF185
 4793 0e14 01       		.byte	0x1
 4794 0e15 EC01     		.2byte	0x1ec
 4795 0e17 B8000000 		.4byte	0xb8
 4796 0e1b 1E0B0000 		.4byte	.LLST62
 4797 0e1f 00       		.byte	0
 4798 0e20 0E       		.uleb128 0xe
 4799 0e21 04       		.byte	0x4
 4800 0e22 E4000000 		.4byte	0xe4
 4801 0e26 20       		.uleb128 0x20
 4802 0e27 23120000 		.4byte	.LASF186
 4803 0e2b 01       		.byte	0x1
 4804 0e2c 1B02     		.2byte	0x21b
 4805 0e2e 35010000 		.4byte	0x135
 4806 0e32 00000000 		.4byte	.LFB10
 4807 0e36 0E000000 		.4byte	.LFE10-.LFB10
 4808 0e3a 01       		.uleb128 0x1
 4809 0e3b 9C       		.byte	0x9c
 4810 0e3c 920E0000 		.4byte	0xe92
 4811 0e40 1A       		.uleb128 0x1a
 4812 0e41 44657600 		.ascii	"Dev\000"
 4813 0e45 01       		.byte	0x1
 4814 0e46 1B02     		.2byte	0x21b
 4815 0e48 83060000 		.4byte	0x683
 4816 0e4c 530B0000 		.4byte	.LLST63
 4817 0e50 1B       		.uleb128 0x1b
 4818 0e51 F00A0000 		.4byte	.LASF187
 4819 0e55 01       		.byte	0x1
 4820 0e56 1B02     		.2byte	0x21b
 4821 0e58 1D060000 		.4byte	0x61d
 4822 0e5c 740B0000 		.4byte	.LLST64
 4823 0e60 21       		.uleb128 0x21
 4824 0e61 37090000 		.4byte	.LASF174
 4825 0e65 01       		.byte	0x1
ARM GAS  C:\Users\Rajesh\AppData\Local\Temp\ccFou9eL.s 			page 111


 4826 0e66 1D02     		.2byte	0x21d
 4827 0e68 35010000 		.4byte	0x135
 4828 0e6c 01       		.uleb128 0x1
 4829 0e6d 50       		.byte	0x50
 4830 0e6e 18       		.uleb128 0x18
 4831 0e6f 0C000000 		.4byte	.LVL201
 4832 0e73 7D200000 		.4byte	0x207d
 4833 0e77 17       		.uleb128 0x17
 4834 0e78 01       		.uleb128 0x1
 4835 0e79 50       		.byte	0x50
 4836 0e7a 03       		.uleb128 0x3
 4837 0e7b F3       		.byte	0xf3
 4838 0e7c 01       		.uleb128 0x1
 4839 0e7d 50       		.byte	0x50
 4840 0e7e 17       		.uleb128 0x17
 4841 0e7f 01       		.uleb128 0x1
 4842 0e80 51       		.byte	0x51
 4843 0e81 02       		.uleb128 0x2
 4844 0e82 09       		.byte	0x9
 4845 0e83 B0       		.byte	0xb0
 4846 0e84 17       		.uleb128 0x17
 4847 0e85 01       		.uleb128 0x1
 4848 0e86 52       		.byte	0x52
 4849 0e87 03       		.uleb128 0x3
 4850 0e88 F3       		.byte	0xf3
 4851 0e89 01       		.uleb128 0x1
 4852 0e8a 51       		.byte	0x51
 4853 0e8b 17       		.uleb128 0x17
 4854 0e8c 01       		.uleb128 0x1
 4855 0e8d 53       		.byte	0x53
 4856 0e8e 01       		.uleb128 0x1
 4857 0e8f 36       		.byte	0x36
 4858 0e90 00       		.byte	0
 4859 0e91 00       		.byte	0
 4860 0e92 20       		.uleb128 0x20
 4861 0e93 920A0000 		.4byte	.LASF188
 4862 0e97 01       		.byte	0x1
 4863 0e98 2302     		.2byte	0x223
 4864 0e9a 35010000 		.4byte	0x135
 4865 0e9e 00000000 		.4byte	.LFB11
 4866 0ea2 0E000000 		.4byte	.LFE11-.LFB11
 4867 0ea6 01       		.uleb128 0x1
 4868 0ea7 9C       		.byte	0x9c
 4869 0ea8 FE0E0000 		.4byte	0xefe
 4870 0eac 1A       		.uleb128 0x1a
 4871 0ead 44657600 		.ascii	"Dev\000"
 4872 0eb1 01       		.byte	0x1
 4873 0eb2 2302     		.2byte	0x223
 4874 0eb4 83060000 		.4byte	0x683
 4875 0eb8 A00B0000 		.4byte	.LLST65
 4876 0ebc 1B       		.uleb128 0x1b
 4877 0ebd F00A0000 		.4byte	.LASF187
 4878 0ec1 01       		.byte	0x1
 4879 0ec2 2302     		.2byte	0x223
 4880 0ec4 1D060000 		.4byte	0x61d
 4881 0ec8 C10B0000 		.4byte	.LLST66
 4882 0ecc 21       		.uleb128 0x21
ARM GAS  C:\Users\Rajesh\AppData\Local\Temp\ccFou9eL.s 			page 112


 4883 0ecd 37090000 		.4byte	.LASF174
 4884 0ed1 01       		.byte	0x1
 4885 0ed2 2502     		.2byte	0x225
 4886 0ed4 35010000 		.4byte	0x135
 4887 0ed8 01       		.uleb128 0x1
 4888 0ed9 50       		.byte	0x50
 4889 0eda 18       		.uleb128 0x18
 4890 0edb 0C000000 		.4byte	.LVL204
 4891 0edf 88200000 		.4byte	0x2088
 4892 0ee3 17       		.uleb128 0x17
 4893 0ee4 01       		.uleb128 0x1
 4894 0ee5 50       		.byte	0x50
 4895 0ee6 03       		.uleb128 0x3
 4896 0ee7 F3       		.byte	0xf3
 4897 0ee8 01       		.uleb128 0x1
 4898 0ee9 50       		.byte	0x50
 4899 0eea 17       		.uleb128 0x17
 4900 0eeb 01       		.uleb128 0x1
 4901 0eec 51       		.byte	0x51
 4902 0eed 02       		.uleb128 0x2
 4903 0eee 09       		.byte	0x9
 4904 0eef B0       		.byte	0xb0
 4905 0ef0 17       		.uleb128 0x17
 4906 0ef1 01       		.uleb128 0x1
 4907 0ef2 52       		.byte	0x52
 4908 0ef3 03       		.uleb128 0x3
 4909 0ef4 F3       		.byte	0xf3
 4910 0ef5 01       		.uleb128 0x1
 4911 0ef6 51       		.byte	0x51
 4912 0ef7 17       		.uleb128 0x17
 4913 0ef8 01       		.uleb128 0x1
 4914 0ef9 53       		.byte	0x53
 4915 0efa 01       		.uleb128 0x1
 4916 0efb 36       		.byte	0x36
 4917 0efc 00       		.byte	0
 4918 0efd 00       		.byte	0
 4919 0efe 20       		.uleb128 0x20
 4920 0eff 820D0000 		.4byte	.LASF189
 4921 0f03 01       		.byte	0x1
 4922 0f04 2C02     		.2byte	0x22c
 4923 0f06 35010000 		.4byte	0x135
 4924 0f0a 00000000 		.4byte	.LFB12
 4925 0f0e B2000000 		.4byte	.LFE12-.LFB12
 4926 0f12 01       		.uleb128 0x1
 4927 0f13 9C       		.byte	0x9c
 4928 0f14 94100000 		.4byte	0x1094
 4929 0f18 1A       		.uleb128 0x1a
 4930 0f19 44657600 		.ascii	"Dev\000"
 4931 0f1d 01       		.byte	0x1
 4932 0f1e 2C02     		.2byte	0x22c
 4933 0f20 83060000 		.4byte	0x683
 4934 0f24 ED0B0000 		.4byte	.LLST67
 4935 0f28 1B       		.uleb128 0x1b
 4936 0f29 F0080000 		.4byte	.LASF190
 4937 0f2d 01       		.byte	0x1
 4938 0f2e 2D02     		.2byte	0x22d
 4939 0f30 B8000000 		.4byte	0xb8
ARM GAS  C:\Users\Rajesh\AppData\Local\Temp\ccFou9eL.s 			page 113


 4940 0f34 0C0C0000 		.4byte	.LLST68
 4941 0f38 1B       		.uleb128 0x1b
 4942 0f39 9D0D0000 		.4byte	.LASF157
 4943 0f3d 01       		.byte	0x1
 4944 0f3e 2E02     		.2byte	0x22e
 4945 0f40 1D060000 		.4byte	0x61d
 4946 0f44 2D0C0000 		.4byte	.LLST69
 4947 0f48 1B       		.uleb128 0x1b
 4948 0f49 C0030000 		.4byte	.LASF173
 4949 0f4d 01       		.byte	0x1
 4950 0f4e 2F02     		.2byte	0x22f
 4951 0f50 1D060000 		.4byte	0x61d
 4952 0f54 4C0C0000 		.4byte	.LLST70
 4953 0f58 23       		.uleb128 0x23
 4954 0f59 EB0A0000 		.4byte	.LASF158
 4955 0f5d 01       		.byte	0x1
 4956 0f5e 3002     		.2byte	0x230
 4957 0f60 E4000000 		.4byte	0xe4
 4958 0f64 02       		.uleb128 0x2
 4959 0f65 91       		.byte	0x91
 4960 0f66 00       		.sleb128 0
 4961 0f67 23       		.uleb128 0x23
 4962 0f68 AA0B0000 		.4byte	.LASF191
 4963 0f6c 01       		.byte	0x1
 4964 0f6d 3102     		.2byte	0x231
 4965 0f6f E4000000 		.4byte	0xe4
 4966 0f73 02       		.uleb128 0x2
 4967 0f74 91       		.byte	0x91
 4968 0f75 04       		.sleb128 4
 4969 0f76 23       		.uleb128 0x23
 4970 0f77 E9060000 		.4byte	.LASF192
 4971 0f7b 01       		.byte	0x1
 4972 0f7c 3202     		.2byte	0x232
 4973 0f7e E4000000 		.4byte	0xe4
 4974 0f82 02       		.uleb128 0x2
 4975 0f83 91       		.byte	0x91
 4976 0f84 08       		.sleb128 8
 4977 0f85 23       		.uleb128 0x23
 4978 0f86 D5120000 		.4byte	.LASF193
 4979 0f8a 01       		.byte	0x1
 4980 0f8b 3302     		.2byte	0x233
 4981 0f8d E4000000 		.4byte	0xe4
 4982 0f91 02       		.uleb128 0x2
 4983 0f92 91       		.byte	0x91
 4984 0f93 0C       		.sleb128 12
 4985 0f94 23       		.uleb128 0x23
 4986 0f95 50110000 		.4byte	.LASF194
 4987 0f99 01       		.byte	0x1
 4988 0f9a 3402     		.2byte	0x234
 4989 0f9c 200E0000 		.4byte	0xe20
 4990 0fa0 02       		.uleb128 0x2
 4991 0fa1 91       		.byte	0x91
 4992 0fa2 10       		.sleb128 16
 4993 0fa3 1C       		.uleb128 0x1c
 4994 0fa4 37090000 		.4byte	.LASF174
 4995 0fa8 01       		.byte	0x1
 4996 0fa9 3602     		.2byte	0x236
ARM GAS  C:\Users\Rajesh\AppData\Local\Temp\ccFou9eL.s 			page 114


 4997 0fab 35010000 		.4byte	0x135
 4998 0faf 6B0C0000 		.4byte	.LLST71
 4999 0fb3 1C       		.uleb128 0x1c
 5000 0fb4 88040000 		.4byte	.LASF195
 5001 0fb8 01       		.byte	0x1
 5002 0fb9 3702     		.2byte	0x237
 5003 0fbb E4000000 		.4byte	0xe4
 5004 0fbf AB0C0000 		.4byte	.LLST72
 5005 0fc3 25       		.uleb128 0x25
 5006 0fc4 6900     		.ascii	"i\000"
 5007 0fc6 01       		.byte	0x1
 5008 0fc7 3802     		.2byte	0x238
 5009 0fc9 E4000000 		.4byte	0xe4
 5010 0fcd CA0C0000 		.4byte	.LLST73
 5011 0fd1 21       		.uleb128 0x21
 5012 0fd2 2E100000 		.4byte	.LASF196
 5013 0fd6 01       		.byte	0x1
 5014 0fd7 3902     		.2byte	0x239
 5015 0fd9 D9000000 		.4byte	0xd9
 5016 0fdd 02       		.uleb128 0x2
 5017 0fde 91       		.byte	0x91
 5018 0fdf 5C       		.sleb128 -36
 5019 0fe0 1C       		.uleb128 0x1c
 5020 0fe1 C70F0000 		.4byte	.LASF197
 5021 0fe5 01       		.byte	0x1
 5022 0fe6 3A02     		.2byte	0x23a
 5023 0fe8 E4000000 		.4byte	0xe4
 5024 0fec E90C0000 		.4byte	.LLST74
 5025 0ff0 21       		.uleb128 0x21
 5026 0ff1 1F100000 		.4byte	.LASF198
 5027 0ff5 01       		.byte	0x1
 5028 0ff6 3B02     		.2byte	0x23b
 5029 0ff8 FD010000 		.4byte	0x1fd
 5030 0ffc 02       		.uleb128 0x2
 5031 0ffd 91       		.byte	0x91
 5032 0ffe 54       		.sleb128 -44
 5033 0fff 16       		.uleb128 0x16
 5034 1000 34000000 		.4byte	.LVL211
 5035 1004 AA0B0000 		.4byte	0xbaa
 5036 1008 27100000 		.4byte	0x1027
 5037 100c 17       		.uleb128 0x17
 5038 100d 01       		.uleb128 0x1
 5039 100e 50       		.byte	0x50
 5040 100f 03       		.uleb128 0x3
 5041 1010 91       		.byte	0x91
 5042 1011 48       		.sleb128 -56
 5043 1012 06       		.byte	0x6
 5044 1013 17       		.uleb128 0x17
 5045 1014 01       		.uleb128 0x1
 5046 1015 51       		.byte	0x51
 5047 1016 03       		.uleb128 0x3
 5048 1017 91       		.byte	0x91
 5049 1018 00       		.sleb128 0
 5050 1019 06       		.byte	0x6
 5051 101a 17       		.uleb128 0x17
 5052 101b 01       		.uleb128 0x1
 5053 101c 52       		.byte	0x52
ARM GAS  C:\Users\Rajesh\AppData\Local\Temp\ccFou9eL.s 			page 115


 5054 101d 02       		.uleb128 0x2
 5055 101e 75       		.byte	0x75
 5056 101f 00       		.sleb128 0
 5057 1020 17       		.uleb128 0x17
 5058 1021 01       		.uleb128 0x1
 5059 1022 53       		.byte	0x53
 5060 1023 02       		.uleb128 0x2
 5061 1024 91       		.byte	0x91
 5062 1025 5C       		.sleb128 -36
 5063 1026 00       		.byte	0
 5064 1027 16       		.uleb128 0x16
 5065 1028 42000000 		.4byte	.LVL212
 5066 102c 680C0000 		.4byte	0xc68
 5067 1030 3E100000 		.4byte	0x103e
 5068 1034 17       		.uleb128 0x17
 5069 1035 01       		.uleb128 0x1
 5070 1036 50       		.byte	0x50
 5071 1037 05       		.uleb128 0x5
 5072 1038 74       		.byte	0x74
 5073 1039 00       		.sleb128 0
 5074 103a 7A       		.byte	0x7a
 5075 103b 00       		.sleb128 0
 5076 103c 22       		.byte	0x22
 5077 103d 00       		.byte	0
 5078 103e 16       		.uleb128 0x16
 5079 103f 50000000 		.4byte	.LVL214
 5080 1043 B30C0000 		.4byte	0xcb3
 5081 1047 60100000 		.4byte	0x1060
 5082 104b 17       		.uleb128 0x17
 5083 104c 01       		.uleb128 0x1
 5084 104d 50       		.byte	0x50
 5085 104e 03       		.uleb128 0x3
 5086 104f 91       		.byte	0x91
 5087 1050 44       		.sleb128 -60
 5088 1051 06       		.byte	0x6
 5089 1052 17       		.uleb128 0x17
 5090 1053 01       		.uleb128 0x1
 5091 1054 51       		.byte	0x51
 5092 1055 03       		.uleb128 0x3
 5093 1056 91       		.byte	0x91
 5094 1057 00       		.sleb128 0
 5095 1058 06       		.byte	0x6
 5096 1059 17       		.uleb128 0x17
 5097 105a 01       		.uleb128 0x1
 5098 105b 52       		.byte	0x52
 5099 105c 02       		.uleb128 0x2
 5100 105d 74       		.byte	0x74
 5101 105e 00       		.sleb128 0
 5102 105f 00       		.byte	0
 5103 1060 16       		.uleb128 0x16
 5104 1061 7C000000 		.4byte	.LVL219
 5105 1065 260E0000 		.4byte	0xe26
 5106 1069 7C100000 		.4byte	0x107c
 5107 106d 17       		.uleb128 0x17
 5108 106e 01       		.uleb128 0x1
 5109 106f 50       		.byte	0x50
 5110 1070 03       		.uleb128 0x3
ARM GAS  C:\Users\Rajesh\AppData\Local\Temp\ccFou9eL.s 			page 116


 5111 1071 91       		.byte	0x91
 5112 1072 4C       		.sleb128 -52
 5113 1073 06       		.byte	0x6
 5114 1074 17       		.uleb128 0x17
 5115 1075 01       		.uleb128 0x1
 5116 1076 51       		.byte	0x51
 5117 1077 03       		.uleb128 0x3
 5118 1078 91       		.byte	0x91
 5119 1079 44       		.sleb128 -60
 5120 107a 06       		.byte	0x6
 5121 107b 00       		.byte	0
 5122 107c 18       		.uleb128 0x18
 5123 107d 88000000 		.4byte	.LVL221
 5124 1081 920E0000 		.4byte	0xe92
 5125 1085 17       		.uleb128 0x17
 5126 1086 01       		.uleb128 0x1
 5127 1087 50       		.byte	0x50
 5128 1088 03       		.uleb128 0x3
 5129 1089 91       		.byte	0x91
 5130 108a 4C       		.sleb128 -52
 5131 108b 06       		.byte	0x6
 5132 108c 17       		.uleb128 0x17
 5133 108d 01       		.uleb128 0x1
 5134 108e 51       		.byte	0x51
 5135 108f 02       		.uleb128 0x2
 5136 1090 91       		.byte	0x91
 5137 1091 54       		.sleb128 -44
 5138 1092 00       		.byte	0
 5139 1093 00       		.byte	0
 5140 1094 20       		.uleb128 0x20
 5141 1095 E5020000 		.4byte	.LASF199
 5142 1099 01       		.byte	0x1
 5143 109a 7502     		.2byte	0x275
 5144 109c 35010000 		.4byte	0x135
 5145 10a0 00000000 		.4byte	.LFB13
 5146 10a4 68000000 		.4byte	.LFE13-.LFB13
 5147 10a8 01       		.uleb128 0x1
 5148 10a9 9C       		.byte	0x9c
 5149 10aa B0110000 		.4byte	0x11b0
 5150 10ae 1A       		.uleb128 0x1a
 5151 10af 44657600 		.ascii	"Dev\000"
 5152 10b3 01       		.byte	0x1
 5153 10b4 7502     		.2byte	0x275
 5154 10b6 83060000 		.4byte	0x683
 5155 10ba 280D0000 		.4byte	.LLST75
 5156 10be 1B       		.uleb128 0x1b
 5157 10bf CB0B0000 		.4byte	.LASF200
 5158 10c3 01       		.byte	0x1
 5159 10c4 7602     		.2byte	0x276
 5160 10c6 B0110000 		.4byte	0x11b0
 5161 10ca 540D0000 		.4byte	.LLST76
 5162 10ce 1C       		.uleb128 0x1c
 5163 10cf 37090000 		.4byte	.LASF174
 5164 10d3 01       		.byte	0x1
 5165 10d4 7802     		.2byte	0x278
 5166 10d6 35010000 		.4byte	0x135
 5167 10da 800D0000 		.4byte	.LLST77
ARM GAS  C:\Users\Rajesh\AppData\Local\Temp\ccFou9eL.s 			page 117


 5168 10de 21       		.uleb128 0x21
 5169 10df 67120000 		.4byte	.LASF201
 5170 10e3 01       		.byte	0x1
 5171 10e4 7902     		.2byte	0x279
 5172 10e6 F1020000 		.4byte	0x2f1
 5173 10ea 02       		.uleb128 0x2
 5174 10eb 91       		.byte	0x91
 5175 10ec 54       		.sleb128 -44
 5176 10ed 1C       		.uleb128 0x1c
 5177 10ee 210D0000 		.4byte	.LASF98
 5178 10f2 01       		.byte	0x1
 5179 10f3 7B02     		.2byte	0x27b
 5180 10f5 B8000000 		.4byte	0xb8
 5181 10f9 D60D0000 		.4byte	.LLST78
 5182 10fd 16       		.uleb128 0x16
 5183 10fe 16000000 		.4byte	.LVL233
 5184 1102 93200000 		.4byte	0x2093
 5185 1106 1C110000 		.4byte	0x111c
 5186 110a 17       		.uleb128 0x17
 5187 110b 01       		.uleb128 0x1
 5188 110c 50       		.byte	0x50
 5189 110d 02       		.uleb128 0x2
 5190 110e 74       		.byte	0x74
 5191 110f 00       		.sleb128 0
 5192 1110 17       		.uleb128 0x17
 5193 1111 01       		.uleb128 0x1
 5194 1112 51       		.byte	0x51
 5195 1113 01       		.uleb128 0x1
 5196 1114 31       		.byte	0x31
 5197 1115 17       		.uleb128 0x17
 5198 1116 01       		.uleb128 0x1
 5199 1117 52       		.byte	0x52
 5200 1118 02       		.uleb128 0x2
 5201 1119 09       		.byte	0x9
 5202 111a C0       		.byte	0xc0
 5203 111b 00       		.byte	0
 5204 111c 16       		.uleb128 0x16
 5205 111d 22000000 		.4byte	.LVL235
 5206 1121 15200000 		.4byte	0x2015
 5207 1125 36110000 		.4byte	0x1136
 5208 1129 17       		.uleb128 0x17
 5209 112a 01       		.uleb128 0x1
 5210 112b 50       		.byte	0x50
 5211 112c 02       		.uleb128 0x2
 5212 112d 74       		.byte	0x74
 5213 112e 00       		.sleb128 0
 5214 112f 17       		.uleb128 0x17
 5215 1130 01       		.uleb128 0x1
 5216 1131 51       		.byte	0x51
 5217 1132 02       		.uleb128 0x2
 5218 1133 91       		.byte	0x91
 5219 1134 54       		.sleb128 -44
 5220 1135 00       		.byte	0
 5221 1136 16       		.uleb128 0x16
 5222 1137 30000000 		.4byte	.LVL237
 5223 113b 93200000 		.4byte	0x2093
 5224 113f 55110000 		.4byte	0x1155
ARM GAS  C:\Users\Rajesh\AppData\Local\Temp\ccFou9eL.s 			page 118


 5225 1143 17       		.uleb128 0x17
 5226 1144 01       		.uleb128 0x1
 5227 1145 50       		.byte	0x50
 5228 1146 02       		.uleb128 0x2
 5229 1147 74       		.byte	0x74
 5230 1148 00       		.sleb128 0
 5231 1149 17       		.uleb128 0x17
 5232 114a 01       		.uleb128 0x1
 5233 114b 51       		.byte	0x51
 5234 114c 02       		.uleb128 0x2
 5235 114d 09       		.byte	0x9
 5236 114e FF       		.byte	0xff
 5237 114f 17       		.uleb128 0x17
 5238 1150 01       		.uleb128 0x1
 5239 1151 52       		.byte	0x52
 5240 1152 01       		.uleb128 0x1
 5241 1153 31       		.byte	0x31
 5242 1154 00       		.byte	0
 5243 1155 16       		.uleb128 0x16
 5244 1156 3E000000 		.4byte	.LVL239
 5245 115a 5B200000 		.4byte	0x205b
 5246 115e 75110000 		.4byte	0x1175
 5247 1162 17       		.uleb128 0x17
 5248 1163 01       		.uleb128 0x1
 5249 1164 50       		.byte	0x50
 5250 1165 02       		.uleb128 0x2
 5251 1166 74       		.byte	0x74
 5252 1167 00       		.sleb128 0
 5253 1168 17       		.uleb128 0x17
 5254 1169 01       		.uleb128 0x1
 5255 116a 51       		.byte	0x51
 5256 116b 02       		.uleb128 0x2
 5257 116c 09       		.byte	0x9
 5258 116d B6       		.byte	0xb6
 5259 116e 17       		.uleb128 0x17
 5260 116f 01       		.uleb128 0x1
 5261 1170 52       		.byte	0x52
 5262 1171 02       		.uleb128 0x2
 5263 1172 75       		.byte	0x75
 5264 1173 00       		.sleb128 0
 5265 1174 00       		.byte	0
 5266 1175 16       		.uleb128 0x16
 5267 1176 4C000000 		.4byte	.LVL241
 5268 117a 93200000 		.4byte	0x2093
 5269 117e 94110000 		.4byte	0x1194
 5270 1182 17       		.uleb128 0x17
 5271 1183 01       		.uleb128 0x1
 5272 1184 50       		.byte	0x50
 5273 1185 02       		.uleb128 0x2
 5274 1186 74       		.byte	0x74
 5275 1187 00       		.sleb128 0
 5276 1188 17       		.uleb128 0x17
 5277 1189 01       		.uleb128 0x1
 5278 118a 51       		.byte	0x51
 5279 118b 02       		.uleb128 0x2
 5280 118c 09       		.byte	0x9
 5281 118d FF       		.byte	0xff
ARM GAS  C:\Users\Rajesh\AppData\Local\Temp\ccFou9eL.s 			page 119


 5282 118e 17       		.uleb128 0x17
 5283 118f 01       		.uleb128 0x1
 5284 1190 52       		.byte	0x52
 5285 1191 01       		.uleb128 0x1
 5286 1192 30       		.byte	0x30
 5287 1193 00       		.byte	0
 5288 1194 18       		.uleb128 0x18
 5289 1195 5A000000 		.4byte	.LVL243
 5290 1199 93200000 		.4byte	0x2093
 5291 119d 17       		.uleb128 0x17
 5292 119e 01       		.uleb128 0x1
 5293 119f 50       		.byte	0x50
 5294 11a0 02       		.uleb128 0x2
 5295 11a1 74       		.byte	0x74
 5296 11a2 00       		.sleb128 0
 5297 11a3 17       		.uleb128 0x17
 5298 11a4 01       		.uleb128 0x1
 5299 11a5 51       		.byte	0x51
 5300 11a6 01       		.uleb128 0x1
 5301 11a7 31       		.byte	0x31
 5302 11a8 17       		.uleb128 0x17
 5303 11a9 01       		.uleb128 0x1
 5304 11aa 52       		.byte	0x52
 5305 11ab 02       		.uleb128 0x2
 5306 11ac 76       		.byte	0x76
 5307 11ad 00       		.sleb128 0
 5308 11ae 00       		.byte	0
 5309 11af 00       		.byte	0
 5310 11b0 0E       		.uleb128 0xe
 5311 11b1 04       		.byte	0x4
 5312 11b2 CE000000 		.4byte	0xce
 5313 11b6 20       		.uleb128 0x20
 5314 11b7 E8040000 		.4byte	.LASF202
 5315 11bb 01       		.byte	0x1
 5316 11bc AF03     		.2byte	0x3af
 5317 11be 35010000 		.4byte	0x135
 5318 11c2 00000000 		.4byte	.LFB15
 5319 11c6 BA000000 		.4byte	.LFE15-.LFB15
 5320 11ca 01       		.uleb128 0x1
 5321 11cb 9C       		.byte	0x9c
 5322 11cc 60130000 		.4byte	0x1360
 5323 11d0 1A       		.uleb128 0x1a
 5324 11d1 44657600 		.ascii	"Dev\000"
 5325 11d5 01       		.byte	0x1
 5326 11d6 AF03     		.2byte	0x3af
 5327 11d8 83060000 		.4byte	0x683
 5328 11dc F50D0000 		.4byte	.LLST79
 5329 11e0 1B       		.uleb128 0x1b
 5330 11e1 82040000 		.4byte	.LASF203
 5331 11e5 01       		.byte	0x1
 5332 11e6 B003     		.2byte	0x3b0
 5333 11e8 E4000000 		.4byte	0xe4
 5334 11ec 210E0000 		.4byte	.LLST80
 5335 11f0 1B       		.uleb128 0x1b
 5336 11f1 420C0000 		.4byte	.LASF204
 5337 11f5 01       		.byte	0x1
 5338 11f6 B003     		.2byte	0x3b0
ARM GAS  C:\Users\Rajesh\AppData\Local\Temp\ccFou9eL.s 			page 120


 5339 11f8 B8000000 		.4byte	0xb8
 5340 11fc 4D0E0000 		.4byte	.LLST81
 5341 1200 1C       		.uleb128 0x1c
 5342 1201 A4010000 		.4byte	.LASF122
 5343 1205 01       		.byte	0x1
 5344 1206 B203     		.2byte	0x3b2
 5345 1208 35010000 		.4byte	0x135
 5346 120c 6E0E0000 		.4byte	.LLST82
 5347 1210 1C       		.uleb128 0x1c
 5348 1211 39010000 		.4byte	.LASF205
 5349 1215 01       		.byte	0x1
 5350 1216 B303     		.2byte	0x3b3
 5351 1218 E4000000 		.4byte	0xe4
 5352 121c B90E0000 		.4byte	.LLST83
 5353 1220 1E       		.uleb128 0x1e
 5354 1221 DB050000 		.4byte	.LASF206
 5355 1225 01       		.byte	0x1
 5356 1226 B403     		.2byte	0x3b4
 5357 1228 B8000000 		.4byte	0xb8
 5358 122c B47F     		.sleb128 -76
 5359 122e 24       		.uleb128 0x24
 5360 122f CE020000 		.4byte	.LASF207
 5361 1233 01       		.byte	0x1
 5362 1234 B503     		.2byte	0x3b5
 5363 1236 E4000000 		.4byte	0xe4
 5364 123a 06       		.byte	0x6
 5365 123b 24       		.uleb128 0x24
 5366 123c 430D0000 		.4byte	.LASF208
 5367 1240 01       		.byte	0x1
 5368 1241 B603     		.2byte	0x3b6
 5369 1243 E4000000 		.4byte	0xe4
 5370 1247 2C       		.byte	0x2c
 5371 1248 21       		.uleb128 0x21
 5372 1249 1F110000 		.4byte	.LASF209
 5373 124d 01       		.byte	0x1
 5374 124e B703     		.2byte	0x3b7
 5375 1250 E4000000 		.4byte	0xe4
 5376 1254 02       		.uleb128 0x2
 5377 1255 91       		.byte	0x91
 5378 1256 64       		.sleb128 -28
 5379 1257 1C       		.uleb128 0x1c
 5380 1258 88040000 		.4byte	.LASF195
 5381 125c 01       		.byte	0x1
 5382 125d B803     		.2byte	0x3b8
 5383 125f E4000000 		.4byte	0xe4
 5384 1263 EF0E0000 		.4byte	.LLST84
 5385 1267 16       		.uleb128 0x16
 5386 1268 12000000 		.4byte	.LVL252
 5387 126c 93200000 		.4byte	0x2093
 5388 1270 86120000 		.4byte	0x1286
 5389 1274 17       		.uleb128 0x17
 5390 1275 01       		.uleb128 0x1
 5391 1276 50       		.byte	0x50
 5392 1277 02       		.uleb128 0x2
 5393 1278 75       		.byte	0x75
 5394 1279 00       		.sleb128 0
 5395 127a 17       		.uleb128 0x17
ARM GAS  C:\Users\Rajesh\AppData\Local\Temp\ccFou9eL.s 			page 121


 5396 127b 01       		.uleb128 0x1
 5397 127c 51       		.byte	0x51
 5398 127d 02       		.uleb128 0x2
 5399 127e 09       		.byte	0x9
 5400 127f FF       		.byte	0xff
 5401 1280 17       		.uleb128 0x17
 5402 1281 01       		.uleb128 0x1
 5403 1282 52       		.byte	0x52
 5404 1283 01       		.uleb128 0x1
 5405 1284 31       		.byte	0x31
 5406 1285 00       		.byte	0
 5407 1286 16       		.uleb128 0x16
 5408 1287 20000000 		.4byte	.LVL254
 5409 128b 93200000 		.4byte	0x2093
 5410 128f A5120000 		.4byte	0x12a5
 5411 1293 17       		.uleb128 0x17
 5412 1294 01       		.uleb128 0x1
 5413 1295 50       		.byte	0x50
 5414 1296 02       		.uleb128 0x2
 5415 1297 75       		.byte	0x75
 5416 1298 00       		.sleb128 0
 5417 1299 17       		.uleb128 0x17
 5418 129a 01       		.uleb128 0x1
 5419 129b 51       		.byte	0x51
 5420 129c 02       		.uleb128 0x2
 5421 129d 08       		.byte	0x8
 5422 129e 4F       		.byte	0x4f
 5423 129f 17       		.uleb128 0x17
 5424 12a0 01       		.uleb128 0x1
 5425 12a1 52       		.byte	0x52
 5426 12a2 01       		.uleb128 0x1
 5427 12a3 30       		.byte	0x30
 5428 12a4 00       		.byte	0
 5429 12a5 16       		.uleb128 0x16
 5430 12a6 2E000000 		.4byte	.LVL256
 5431 12aa 93200000 		.4byte	0x2093
 5432 12ae C5120000 		.4byte	0x12c5
 5433 12b2 17       		.uleb128 0x17
 5434 12b3 01       		.uleb128 0x1
 5435 12b4 50       		.byte	0x50
 5436 12b5 02       		.uleb128 0x2
 5437 12b6 75       		.byte	0x75
 5438 12b7 00       		.sleb128 0
 5439 12b8 17       		.uleb128 0x17
 5440 12b9 01       		.uleb128 0x1
 5441 12ba 51       		.byte	0x51
 5442 12bb 02       		.uleb128 0x2
 5443 12bc 08       		.byte	0x8
 5444 12bd 4E       		.byte	0x4e
 5445 12be 17       		.uleb128 0x17
 5446 12bf 01       		.uleb128 0x1
 5447 12c0 52       		.byte	0x52
 5448 12c1 02       		.uleb128 0x2
 5449 12c2 08       		.byte	0x8
 5450 12c3 2C       		.byte	0x2c
 5451 12c4 00       		.byte	0
 5452 12c5 16       		.uleb128 0x16
ARM GAS  C:\Users\Rajesh\AppData\Local\Temp\ccFou9eL.s 			page 122


 5453 12c6 3C000000 		.4byte	.LVL258
 5454 12ca 93200000 		.4byte	0x2093
 5455 12ce E4120000 		.4byte	0x12e4
 5456 12d2 17       		.uleb128 0x17
 5457 12d3 01       		.uleb128 0x1
 5458 12d4 50       		.byte	0x50
 5459 12d5 02       		.uleb128 0x2
 5460 12d6 75       		.byte	0x75
 5461 12d7 00       		.sleb128 0
 5462 12d8 17       		.uleb128 0x17
 5463 12d9 01       		.uleb128 0x1
 5464 12da 51       		.byte	0x51
 5465 12db 02       		.uleb128 0x2
 5466 12dc 09       		.byte	0x9
 5467 12dd FF       		.byte	0xff
 5468 12de 17       		.uleb128 0x17
 5469 12df 01       		.uleb128 0x1
 5470 12e0 52       		.byte	0x52
 5471 12e1 01       		.uleb128 0x1
 5472 12e2 30       		.byte	0x30
 5473 12e3 00       		.byte	0
 5474 12e4 16       		.uleb128 0x16
 5475 12e5 4A000000 		.4byte	.LVL260
 5476 12e9 93200000 		.4byte	0x2093
 5477 12ed 04130000 		.4byte	0x1304
 5478 12f1 17       		.uleb128 0x17
 5479 12f2 01       		.uleb128 0x1
 5480 12f3 50       		.byte	0x50
 5481 12f4 02       		.uleb128 0x2
 5482 12f5 75       		.byte	0x75
 5483 12f6 00       		.sleb128 0
 5484 12f7 17       		.uleb128 0x17
 5485 12f8 01       		.uleb128 0x1
 5486 12f9 51       		.byte	0x51
 5487 12fa 02       		.uleb128 0x2
 5488 12fb 09       		.byte	0x9
 5489 12fc B6       		.byte	0xb6
 5490 12fd 17       		.uleb128 0x17
 5491 12fe 01       		.uleb128 0x1
 5492 12ff 52       		.byte	0x52
 5493 1300 02       		.uleb128 0x2
 5494 1301 09       		.byte	0x9
 5495 1302 B4       		.byte	0xb4
 5496 1303 00       		.byte	0
 5497 1304 16       		.uleb128 0x16
 5498 1305 74000000 		.4byte	.LVL267
 5499 1309 680C0000 		.4byte	0xc68
 5500 130d 19130000 		.4byte	0x1319
 5501 1311 17       		.uleb128 0x17
 5502 1312 01       		.uleb128 0x1
 5503 1313 50       		.byte	0x50
 5504 1314 03       		.uleb128 0x3
 5505 1315 74       		.byte	0x74
 5506 1316 B401     		.sleb128 180
 5507 1318 00       		.byte	0
 5508 1319 18       		.uleb128 0x18
 5509 131a A0000000 		.4byte	.LVL269
ARM GAS  C:\Users\Rajesh\AppData\Local\Temp\ccFou9eL.s 			page 123


 5510 131e FE0E0000 		.4byte	0xefe
 5511 1322 17       		.uleb128 0x17
 5512 1323 01       		.uleb128 0x1
 5513 1324 50       		.byte	0x50
 5514 1325 02       		.uleb128 0x2
 5515 1326 75       		.byte	0x75
 5516 1327 00       		.sleb128 0
 5517 1328 17       		.uleb128 0x17
 5518 1329 01       		.uleb128 0x1
 5519 132a 51       		.byte	0x51
 5520 132b 02       		.uleb128 0x2
 5521 132c 76       		.byte	0x76
 5522 132d 00       		.sleb128 0
 5523 132e 17       		.uleb128 0x17
 5524 132f 01       		.uleb128 0x1
 5525 1330 52       		.byte	0x52
 5526 1331 03       		.uleb128 0x3
 5527 1332 75       		.byte	0x75
 5528 1333 AA02     		.sleb128 298
 5529 1335 17       		.uleb128 0x17
 5530 1336 01       		.uleb128 0x1
 5531 1337 53       		.byte	0x53
 5532 1338 03       		.uleb128 0x3
 5533 1339 75       		.byte	0x75
 5534 133a A402     		.sleb128 292
 5535 133c 17       		.uleb128 0x17
 5536 133d 02       		.uleb128 0x2
 5537 133e 7D       		.byte	0x7d
 5538 133f 00       		.sleb128 0
 5539 1340 01       		.uleb128 0x1
 5540 1341 36       		.byte	0x36
 5541 1342 17       		.uleb128 0x17
 5542 1343 02       		.uleb128 0x2
 5543 1344 7D       		.byte	0x7d
 5544 1345 04       		.sleb128 4
 5545 1346 02       		.uleb128 0x2
 5546 1347 08       		.byte	0x8
 5547 1348 B4       		.byte	0xb4
 5548 1349 17       		.uleb128 0x17
 5549 134a 02       		.uleb128 0x2
 5550 134b 7D       		.byte	0x7d
 5551 134c 08       		.sleb128 8
 5552 134d 02       		.uleb128 0x2
 5553 134e 74       		.byte	0x74
 5554 134f 00       		.sleb128 0
 5555 1350 17       		.uleb128 0x17
 5556 1351 02       		.uleb128 0x2
 5557 1352 7D       		.byte	0x7d
 5558 1353 0C       		.sleb128 12
 5559 1354 02       		.uleb128 0x2
 5560 1355 77       		.byte	0x77
 5561 1356 00       		.sleb128 0
 5562 1357 17       		.uleb128 0x17
 5563 1358 02       		.uleb128 0x2
 5564 1359 7D       		.byte	0x7d
 5565 135a 10       		.sleb128 16
 5566 135b 02       		.uleb128 0x2
ARM GAS  C:\Users\Rajesh\AppData\Local\Temp\ccFou9eL.s 			page 124


 5567 135c 91       		.byte	0x91
 5568 135d 64       		.sleb128 -28
 5569 135e 00       		.byte	0
 5570 135f 00       		.byte	0
 5571 1360 20       		.uleb128 0x20
 5572 1361 91120000 		.4byte	.LASF210
 5573 1365 01       		.byte	0x1
 5574 1366 F203     		.2byte	0x3f2
 5575 1368 35010000 		.4byte	0x135
 5576 136c 00000000 		.4byte	.LFB16
 5577 1370 74000000 		.4byte	.LFE16-.LFB16
 5578 1374 01       		.uleb128 0x1
 5579 1375 9C       		.byte	0x9c
 5580 1376 4E140000 		.4byte	0x144e
 5581 137a 1A       		.uleb128 0x1a
 5582 137b 44657600 		.ascii	"Dev\000"
 5583 137f 01       		.byte	0x1
 5584 1380 F203     		.2byte	0x3f2
 5585 1382 83060000 		.4byte	0x683
 5586 1386 0D0F0000 		.4byte	.LLST85
 5587 138a 1B       		.uleb128 0x1b
 5588 138b A1070000 		.4byte	.LASF211
 5589 138f 01       		.byte	0x1
 5590 1390 F303     		.2byte	0x3f3
 5591 1392 200E0000 		.4byte	0xe20
 5592 1396 4F0F0000 		.4byte	.LLST86
 5593 139a 1B       		.uleb128 0x1b
 5594 139b 0D080000 		.4byte	.LASF212
 5595 139f 01       		.byte	0x1
 5596 13a0 F303     		.2byte	0x3f3
 5597 13a2 1D060000 		.4byte	0x61d
 5598 13a6 7B0F0000 		.4byte	.LLST87
 5599 13aa 1C       		.uleb128 0x1c
 5600 13ab A4010000 		.4byte	.LASF122
 5601 13af 01       		.byte	0x1
 5602 13b0 F503     		.2byte	0x3f5
 5603 13b2 35010000 		.4byte	0x135
 5604 13b6 A70F0000 		.4byte	.LLST88
 5605 13ba 1C       		.uleb128 0x1c
 5606 13bb F7100000 		.4byte	.LASF213
 5607 13bf 01       		.byte	0x1
 5608 13c0 F603     		.2byte	0x3f6
 5609 13c2 B8000000 		.4byte	0xb8
 5610 13c6 D10F0000 		.4byte	.LLST89
 5611 13ca 21       		.uleb128 0x21
 5612 13cb F00A0000 		.4byte	.LASF187
 5613 13cf 01       		.byte	0x1
 5614 13d0 F703     		.2byte	0x3f7
 5615 13d2 FD010000 		.4byte	0x1fd
 5616 13d6 02       		.uleb128 0x2
 5617 13d7 91       		.byte	0x91
 5618 13d8 68       		.sleb128 -24
 5619 13d9 24       		.uleb128 0x24
 5620 13da 880E0000 		.4byte	.LASF214
 5621 13de 01       		.byte	0x1
 5622 13df F803     		.2byte	0x3f8
 5623 13e1 E4000000 		.4byte	0xe4
ARM GAS  C:\Users\Rajesh\AppData\Local\Temp\ccFou9eL.s 			page 125


 5624 13e5 2C       		.byte	0x2c
 5625 13e6 24       		.uleb128 0x24
 5626 13e7 330C0000 		.4byte	.LASF215
 5627 13eb 01       		.byte	0x1
 5628 13ec F903     		.2byte	0x3f9
 5629 13ee E4000000 		.4byte	0xe4
 5630 13f2 06       		.byte	0x6
 5631 13f3 21       		.uleb128 0x21
 5632 13f4 71110000 		.4byte	.LASF216
 5633 13f8 01       		.byte	0x1
 5634 13f9 FA03     		.2byte	0x3fa
 5635 13fb E4000000 		.4byte	0xe4
 5636 13ff 02       		.uleb128 0x2
 5637 1400 91       		.byte	0x91
 5638 1401 64       		.sleb128 -28
 5639 1402 21       		.uleb128 0x21
 5640 1403 420C0000 		.4byte	.LASF204
 5641 1407 01       		.byte	0x1
 5642 1408 FB03     		.2byte	0x3fb
 5643 140a B8000000 		.4byte	0xb8
 5644 140e 02       		.uleb128 0x2
 5645 140f 91       		.byte	0x91
 5646 1410 63       		.sleb128 -29
 5647 1411 16       		.uleb128 0x16
 5648 1412 36000000 		.4byte	.LVL282
 5649 1416 920E0000 		.4byte	0xe92
 5650 141a 25140000 		.4byte	0x1425
 5651 141e 17       		.uleb128 0x17
 5652 141f 01       		.uleb128 0x1
 5653 1420 51       		.byte	0x51
 5654 1421 02       		.uleb128 0x2
 5655 1422 91       		.byte	0x91
 5656 1423 68       		.sleb128 -24
 5657 1424 00       		.byte	0
 5658 1425 18       		.uleb128 0x18
 5659 1426 4C000000 		.4byte	.LVL284
 5660 142a 3B0D0000 		.4byte	0xd3b
 5661 142e 17       		.uleb128 0x17
 5662 142f 01       		.uleb128 0x1
 5663 1430 50       		.byte	0x50
 5664 1431 02       		.uleb128 0x2
 5665 1432 91       		.byte	0x91
 5666 1433 68       		.sleb128 -24
 5667 1434 17       		.uleb128 0x17
 5668 1435 01       		.uleb128 0x1
 5669 1436 51       		.byte	0x51
 5670 1437 01       		.uleb128 0x1
 5671 1438 36       		.byte	0x36
 5672 1439 17       		.uleb128 0x17
 5673 143a 01       		.uleb128 0x1
 5674 143b 52       		.byte	0x52
 5675 143c 02       		.uleb128 0x2
 5676 143d 08       		.byte	0x8
 5677 143e 2C       		.byte	0x2c
 5678 143f 17       		.uleb128 0x17
 5679 1440 01       		.uleb128 0x1
 5680 1441 53       		.byte	0x53
ARM GAS  C:\Users\Rajesh\AppData\Local\Temp\ccFou9eL.s 			page 126


 5681 1442 02       		.uleb128 0x2
 5682 1443 91       		.byte	0x91
 5683 1444 64       		.sleb128 -28
 5684 1445 17       		.uleb128 0x17
 5685 1446 02       		.uleb128 0x2
 5686 1447 7D       		.byte	0x7d
 5687 1448 00       		.sleb128 0
 5688 1449 02       		.uleb128 0x2
 5689 144a 91       		.byte	0x91
 5690 144b 63       		.sleb128 -29
 5691 144c 00       		.byte	0
 5692 144d 00       		.byte	0
 5693 144e 20       		.uleb128 0x20
 5694 144f 210B0000 		.4byte	.LASF217
 5695 1453 01       		.byte	0x1
 5696 1454 2904     		.2byte	0x429
 5697 1456 35010000 		.4byte	0x135
 5698 145a 00000000 		.4byte	.LFB17
 5699 145e 36000000 		.4byte	.LFE17-.LFB17
 5700 1462 01       		.uleb128 0x1
 5701 1463 9C       		.byte	0x9c
 5702 1464 F9140000 		.4byte	0x14f9
 5703 1468 1A       		.uleb128 0x1a
 5704 1469 44657600 		.ascii	"Dev\000"
 5705 146d 01       		.byte	0x1
 5706 146e 2904     		.2byte	0x429
 5707 1470 83060000 		.4byte	0x683
 5708 1474 FC0F0000 		.4byte	.LLST90
 5709 1478 1B       		.uleb128 0x1b
 5710 1479 59040000 		.4byte	.LASF218
 5711 147d 01       		.byte	0x1
 5712 147e 2A04     		.2byte	0x42a
 5713 1480 B8000000 		.4byte	0xb8
 5714 1484 28100000 		.4byte	.LLST91
 5715 1488 1C       		.uleb128 0x1c
 5716 1489 A4010000 		.4byte	.LASF122
 5717 148d 01       		.byte	0x1
 5718 148e 2C04     		.2byte	0x42c
 5719 1490 35010000 		.4byte	0x135
 5720 1494 49100000 		.4byte	.LLST92
 5721 1498 16       		.uleb128 0x16
 5722 1499 10000000 		.4byte	.LVL292
 5723 149d 93200000 		.4byte	0x2093
 5724 14a1 B1140000 		.4byte	0x14b1
 5725 14a5 17       		.uleb128 0x17
 5726 14a6 01       		.uleb128 0x1
 5727 14a7 50       		.byte	0x50
 5728 14a8 02       		.uleb128 0x2
 5729 14a9 74       		.byte	0x74
 5730 14aa 00       		.sleb128 0
 5731 14ab 17       		.uleb128 0x17
 5732 14ac 01       		.uleb128 0x1
 5733 14ad 51       		.byte	0x51
 5734 14ae 01       		.uleb128 0x1
 5735 14af 30       		.byte	0x30
 5736 14b0 00       		.byte	0
 5737 14b1 16       		.uleb128 0x16
ARM GAS  C:\Users\Rajesh\AppData\Local\Temp\ccFou9eL.s 			page 127


 5738 14b2 1A000000 		.4byte	.LVL294
 5739 14b6 9E200000 		.4byte	0x209e
 5740 14ba C5140000 		.4byte	0x14c5
 5741 14be 17       		.uleb128 0x17
 5742 14bf 01       		.uleb128 0x1
 5743 14c0 50       		.byte	0x50
 5744 14c1 02       		.uleb128 0x2
 5745 14c2 74       		.byte	0x74
 5746 14c3 00       		.sleb128 0
 5747 14c4 00       		.byte	0
 5748 14c5 16       		.uleb128 0x16
 5749 14c6 26000000 		.4byte	.LVL296
 5750 14ca A9200000 		.4byte	0x20a9
 5751 14ce DE140000 		.4byte	0x14de
 5752 14d2 17       		.uleb128 0x17
 5753 14d3 01       		.uleb128 0x1
 5754 14d4 50       		.byte	0x50
 5755 14d5 02       		.uleb128 0x2
 5756 14d6 74       		.byte	0x74
 5757 14d7 00       		.sleb128 0
 5758 14d8 17       		.uleb128 0x17
 5759 14d9 01       		.uleb128 0x1
 5760 14da 51       		.byte	0x51
 5761 14db 01       		.uleb128 0x1
 5762 14dc 30       		.byte	0x30
 5763 14dd 00       		.byte	0
 5764 14de 18       		.uleb128 0x18
 5765 14df 34000000 		.4byte	.LVL298
 5766 14e3 93200000 		.4byte	0x2093
 5767 14e7 17       		.uleb128 0x17
 5768 14e8 01       		.uleb128 0x1
 5769 14e9 50       		.byte	0x50
 5770 14ea 02       		.uleb128 0x2
 5771 14eb 74       		.byte	0x74
 5772 14ec 00       		.sleb128 0
 5773 14ed 17       		.uleb128 0x17
 5774 14ee 01       		.uleb128 0x1
 5775 14ef 51       		.byte	0x51
 5776 14f0 01       		.uleb128 0x1
 5777 14f1 30       		.byte	0x30
 5778 14f2 17       		.uleb128 0x17
 5779 14f3 01       		.uleb128 0x1
 5780 14f4 52       		.byte	0x52
 5781 14f5 01       		.uleb128 0x1
 5782 14f6 30       		.byte	0x30
 5783 14f7 00       		.byte	0
 5784 14f8 00       		.byte	0
 5785 14f9 20       		.uleb128 0x20
 5786 14fa BC0E0000 		.4byte	.LASF219
 5787 14fe 01       		.byte	0x1
 5788 14ff 4004     		.2byte	0x440
 5789 1501 35010000 		.4byte	0x135
 5790 1505 00000000 		.4byte	.LFB18
 5791 1509 D0000000 		.4byte	.LFE18-.LFB18
 5792 150d 01       		.uleb128 0x1
 5793 150e 9C       		.byte	0x9c
 5794 150f F7160000 		.4byte	0x16f7
ARM GAS  C:\Users\Rajesh\AppData\Local\Temp\ccFou9eL.s 			page 128


 5795 1513 1A       		.uleb128 0x1a
 5796 1514 44657600 		.ascii	"Dev\000"
 5797 1518 01       		.byte	0x1
 5798 1519 4004     		.2byte	0x440
 5799 151b 83060000 		.4byte	0x683
 5800 151f 89100000 		.4byte	.LLST93
 5801 1523 1B       		.uleb128 0x1b
 5802 1524 AB010000 		.4byte	.LASF220
 5803 1528 01       		.byte	0x1
 5804 1529 4004     		.2byte	0x440
 5805 152b B8000000 		.4byte	0xb8
 5806 152f A8100000 		.4byte	.LLST94
 5807 1533 1B       		.uleb128 0x1b
 5808 1534 B00E0000 		.4byte	.LASF221
 5809 1538 01       		.byte	0x1
 5810 1539 4104     		.2byte	0x441
 5811 153b B8000000 		.4byte	0xb8
 5812 153f C9100000 		.4byte	.LLST95
 5813 1543 1B       		.uleb128 0x1b
 5814 1544 58090000 		.4byte	.LASF222
 5815 1548 01       		.byte	0x1
 5816 1549 4104     		.2byte	0x441
 5817 154b B8000000 		.4byte	0xb8
 5818 154f EA100000 		.4byte	.LLST96
 5819 1553 23       		.uleb128 0x23
 5820 1554 7B080000 		.4byte	.LASF223
 5821 1558 01       		.byte	0x1
 5822 1559 4204     		.2byte	0x442
 5823 155b 1D060000 		.4byte	0x61d
 5824 155f 02       		.uleb128 0x2
 5825 1560 91       		.byte	0x91
 5826 1561 00       		.sleb128 0
 5827 1562 23       		.uleb128 0x23
 5828 1563 CA030000 		.4byte	.LASF224
 5829 1567 01       		.byte	0x1
 5830 1568 4204     		.2byte	0x442
 5831 156a 1D060000 		.4byte	0x61d
 5832 156e 02       		.uleb128 0x2
 5833 156f 91       		.byte	0x91
 5834 1570 04       		.sleb128 4
 5835 1571 1B       		.uleb128 0x1b
 5836 1572 770D0000 		.4byte	.LASF225
 5837 1576 01       		.byte	0x1
 5838 1577 4304     		.2byte	0x443
 5839 1579 F7160000 		.4byte	0x16f7
 5840 157d 0B110000 		.4byte	.LLST97
 5841 1581 1B       		.uleb128 0x1b
 5842 1582 D7010000 		.4byte	.LASF226
 5843 1586 01       		.byte	0x1
 5844 1587 4304     		.2byte	0x443
 5845 1589 F7160000 		.4byte	0x16f7
 5846 158d 37110000 		.4byte	.LLST98
 5847 1591 1C       		.uleb128 0x1c
 5848 1592 A4010000 		.4byte	.LASF122
 5849 1596 01       		.byte	0x1
 5850 1597 4504     		.2byte	0x445
 5851 1599 35010000 		.4byte	0x135
ARM GAS  C:\Users\Rajesh\AppData\Local\Temp\ccFou9eL.s 			page 129


 5852 159d 63110000 		.4byte	.LLST99
 5853 15a1 21       		.uleb128 0x21
 5854 15a2 FD0B0000 		.4byte	.LASF227
 5855 15a6 01       		.byte	0x1
 5856 15a7 4604     		.2byte	0x446
 5857 15a9 B8000000 		.4byte	0xb8
 5858 15ad 02       		.uleb128 0x2
 5859 15ae 91       		.byte	0x91
 5860 15af 67       		.sleb128 -25
 5861 15b0 16       		.uleb128 0x16
 5862 15b1 22000000 		.4byte	.LVL307
 5863 15b5 93200000 		.4byte	0x2093
 5864 15b9 D0150000 		.4byte	0x15d0
 5865 15bd 17       		.uleb128 0x17
 5866 15be 01       		.uleb128 0x1
 5867 15bf 50       		.byte	0x50
 5868 15c0 03       		.uleb128 0x3
 5869 15c1 91       		.byte	0x91
 5870 15c2 54       		.sleb128 -44
 5871 15c3 06       		.byte	0x6
 5872 15c4 17       		.uleb128 0x17
 5873 15c5 01       		.uleb128 0x1
 5874 15c6 51       		.byte	0x51
 5875 15c7 02       		.uleb128 0x2
 5876 15c8 09       		.byte	0x9
 5877 15c9 FF       		.byte	0xff
 5878 15ca 17       		.uleb128 0x17
 5879 15cb 01       		.uleb128 0x1
 5880 15cc 52       		.byte	0x52
 5881 15cd 01       		.uleb128 0x1
 5882 15ce 31       		.byte	0x31
 5883 15cf 00       		.byte	0
 5884 15d0 16       		.uleb128 0x16
 5885 15d1 2E000000 		.4byte	.LVL309
 5886 15d5 93200000 		.4byte	0x2093
 5887 15d9 EF150000 		.4byte	0x15ef
 5888 15dd 17       		.uleb128 0x17
 5889 15de 01       		.uleb128 0x1
 5890 15df 50       		.byte	0x50
 5891 15e0 03       		.uleb128 0x3
 5892 15e1 91       		.byte	0x91
 5893 15e2 54       		.sleb128 -44
 5894 15e3 06       		.byte	0x6
 5895 15e4 17       		.uleb128 0x17
 5896 15e5 01       		.uleb128 0x1
 5897 15e6 51       		.byte	0x51
 5898 15e7 01       		.uleb128 0x1
 5899 15e8 30       		.byte	0x30
 5900 15e9 17       		.uleb128 0x17
 5901 15ea 01       		.uleb128 0x1
 5902 15eb 52       		.byte	0x52
 5903 15ec 01       		.uleb128 0x1
 5904 15ed 30       		.byte	0x30
 5905 15ee 00       		.byte	0
 5906 15ef 16       		.uleb128 0x16
 5907 15f0 3C000000 		.4byte	.LVL311
 5908 15f4 93200000 		.4byte	0x2093
ARM GAS  C:\Users\Rajesh\AppData\Local\Temp\ccFou9eL.s 			page 130


 5909 15f8 0F160000 		.4byte	0x160f
 5910 15fc 17       		.uleb128 0x17
 5911 15fd 01       		.uleb128 0x1
 5912 15fe 50       		.byte	0x50
 5913 15ff 03       		.uleb128 0x3
 5914 1600 91       		.byte	0x91
 5915 1601 54       		.sleb128 -44
 5916 1602 06       		.byte	0x6
 5917 1603 17       		.uleb128 0x17
 5918 1604 01       		.uleb128 0x1
 5919 1605 51       		.byte	0x51
 5920 1606 02       		.uleb128 0x2
 5921 1607 09       		.byte	0x9
 5922 1608 FF       		.byte	0xff
 5923 1609 17       		.uleb128 0x17
 5924 160a 01       		.uleb128 0x1
 5925 160b 52       		.byte	0x52
 5926 160c 01       		.uleb128 0x1
 5927 160d 30       		.byte	0x30
 5928 160e 00       		.byte	0
 5929 160f 16       		.uleb128 0x16
 5930 1610 52000000 		.4byte	.LVL314
 5931 1614 B5200000 		.4byte	0x20b5
 5932 1618 31160000 		.4byte	0x1631
 5933 161c 17       		.uleb128 0x17
 5934 161d 01       		.uleb128 0x1
 5935 161e 50       		.byte	0x50
 5936 161f 03       		.uleb128 0x3
 5937 1620 91       		.byte	0x91
 5938 1621 54       		.sleb128 -44
 5939 1622 06       		.byte	0x6
 5940 1623 17       		.uleb128 0x17
 5941 1624 01       		.uleb128 0x1
 5942 1625 51       		.byte	0x51
 5943 1626 02       		.uleb128 0x2
 5944 1627 09       		.byte	0x9
 5945 1628 CB       		.byte	0xcb
 5946 1629 17       		.uleb128 0x17
 5947 162a 01       		.uleb128 0x1
 5948 162b 52       		.byte	0x52
 5949 162c 03       		.uleb128 0x3
 5950 162d 91       		.byte	0x91
 5951 162e 00       		.sleb128 0
 5952 162f 06       		.byte	0x6
 5953 1630 00       		.byte	0
 5954 1631 16       		.uleb128 0x16
 5955 1632 66000000 		.4byte	.LVL317
 5956 1636 B5200000 		.4byte	0x20b5
 5957 163a 52160000 		.4byte	0x1652
 5958 163e 17       		.uleb128 0x17
 5959 163f 01       		.uleb128 0x1
 5960 1640 50       		.byte	0x50
 5961 1641 03       		.uleb128 0x3
 5962 1642 91       		.byte	0x91
 5963 1643 54       		.sleb128 -44
 5964 1644 06       		.byte	0x6
 5965 1645 17       		.uleb128 0x17
ARM GAS  C:\Users\Rajesh\AppData\Local\Temp\ccFou9eL.s 			page 131


 5966 1646 01       		.uleb128 0x1
 5967 1647 51       		.byte	0x51
 5968 1648 02       		.uleb128 0x2
 5969 1649 09       		.byte	0x9
 5970 164a EE       		.byte	0xee
 5971 164b 17       		.uleb128 0x17
 5972 164c 01       		.uleb128 0x1
 5973 164d 52       		.byte	0x52
 5974 164e 02       		.uleb128 0x2
 5975 164f 91       		.byte	0x91
 5976 1650 67       		.sleb128 -25
 5977 1651 00       		.byte	0
 5978 1652 16       		.uleb128 0x16
 5979 1653 7A000000 		.4byte	.LVL320
 5980 1657 93200000 		.4byte	0x2093
 5981 165b 75160000 		.4byte	0x1675
 5982 165f 17       		.uleb128 0x17
 5983 1660 01       		.uleb128 0x1
 5984 1661 50       		.byte	0x50
 5985 1662 03       		.uleb128 0x3
 5986 1663 91       		.byte	0x91
 5987 1664 54       		.sleb128 -44
 5988 1665 06       		.byte	0x6
 5989 1666 17       		.uleb128 0x17
 5990 1667 01       		.uleb128 0x1
 5991 1668 51       		.byte	0x51
 5992 1669 02       		.uleb128 0x2
 5993 166a 09       		.byte	0x9
 5994 166b CB       		.byte	0xcb
 5995 166c 17       		.uleb128 0x17
 5996 166d 01       		.uleb128 0x1
 5997 166e 52       		.byte	0x52
 5998 166f 04       		.uleb128 0x4
 5999 1670 91       		.byte	0x91
 6000 1671 5C       		.sleb128 -36
 6001 1672 94       		.byte	0x94
 6002 1673 01       		.byte	0x1
 6003 1674 00       		.byte	0
 6004 1675 16       		.uleb128 0x16
 6005 1676 8E000000 		.4byte	.LVL323
 6006 167a C0200000 		.4byte	0x20c0
 6007 167e 9E160000 		.4byte	0x169e
 6008 1682 17       		.uleb128 0x17
 6009 1683 01       		.uleb128 0x1
 6010 1684 50       		.byte	0x50
 6011 1685 03       		.uleb128 0x3
 6012 1686 91       		.byte	0x91
 6013 1687 54       		.sleb128 -44
 6014 1688 06       		.byte	0x6
 6015 1689 17       		.uleb128 0x17
 6016 168a 01       		.uleb128 0x1
 6017 168b 51       		.byte	0x51
 6018 168c 02       		.uleb128 0x2
 6019 168d 09       		.byte	0x9
 6020 168e EE       		.byte	0xee
 6021 168f 17       		.uleb128 0x17
 6022 1690 01       		.uleb128 0x1
ARM GAS  C:\Users\Rajesh\AppData\Local\Temp\ccFou9eL.s 			page 132


 6023 1691 52       		.byte	0x52
 6024 1692 02       		.uleb128 0x2
 6025 1693 09       		.byte	0x9
 6026 1694 80       		.byte	0x80
 6027 1695 17       		.uleb128 0x17
 6028 1696 01       		.uleb128 0x1
 6029 1697 53       		.byte	0x53
 6030 1698 04       		.uleb128 0x4
 6031 1699 91       		.byte	0x91
 6032 169a 58       		.sleb128 -40
 6033 169b 94       		.byte	0x94
 6034 169c 01       		.byte	0x1
 6035 169d 00       		.byte	0
 6036 169e 16       		.uleb128 0x16
 6037 169f 9E000000 		.4byte	.LVL326
 6038 16a3 93200000 		.4byte	0x2093
 6039 16a7 BD160000 		.4byte	0x16bd
 6040 16ab 17       		.uleb128 0x17
 6041 16ac 01       		.uleb128 0x1
 6042 16ad 50       		.byte	0x50
 6043 16ae 02       		.uleb128 0x2
 6044 16af 74       		.byte	0x74
 6045 16b0 00       		.sleb128 0
 6046 16b1 17       		.uleb128 0x17
 6047 16b2 01       		.uleb128 0x1
 6048 16b3 51       		.byte	0x51
 6049 16b4 02       		.uleb128 0x2
 6050 16b5 09       		.byte	0x9
 6051 16b6 FF       		.byte	0xff
 6052 16b7 17       		.uleb128 0x17
 6053 16b8 01       		.uleb128 0x1
 6054 16b9 52       		.byte	0x52
 6055 16ba 01       		.uleb128 0x1
 6056 16bb 31       		.byte	0x31
 6057 16bc 00       		.byte	0
 6058 16bd 16       		.uleb128 0x16
 6059 16be AC000000 		.4byte	.LVL329
 6060 16c2 93200000 		.4byte	0x2093
 6061 16c6 DB160000 		.4byte	0x16db
 6062 16ca 17       		.uleb128 0x17
 6063 16cb 01       		.uleb128 0x1
 6064 16cc 50       		.byte	0x50
 6065 16cd 02       		.uleb128 0x2
 6066 16ce 74       		.byte	0x74
 6067 16cf 00       		.sleb128 0
 6068 16d0 17       		.uleb128 0x17
 6069 16d1 01       		.uleb128 0x1
 6070 16d2 51       		.byte	0x51
 6071 16d3 01       		.uleb128 0x1
 6072 16d4 30       		.byte	0x30
 6073 16d5 17       		.uleb128 0x17
 6074 16d6 01       		.uleb128 0x1
 6075 16d7 52       		.byte	0x52
 6076 16d8 01       		.uleb128 0x1
 6077 16d9 31       		.byte	0x31
 6078 16da 00       		.byte	0
 6079 16db 18       		.uleb128 0x18
ARM GAS  C:\Users\Rajesh\AppData\Local\Temp\ccFou9eL.s 			page 133


 6080 16dc BA000000 		.4byte	.LVL331
 6081 16e0 93200000 		.4byte	0x2093
 6082 16e4 17       		.uleb128 0x17
 6083 16e5 01       		.uleb128 0x1
 6084 16e6 50       		.byte	0x50
 6085 16e7 02       		.uleb128 0x2
 6086 16e8 74       		.byte	0x74
 6087 16e9 00       		.sleb128 0
 6088 16ea 17       		.uleb128 0x17
 6089 16eb 01       		.uleb128 0x1
 6090 16ec 51       		.byte	0x51
 6091 16ed 02       		.uleb128 0x2
 6092 16ee 09       		.byte	0x9
 6093 16ef FF       		.byte	0xff
 6094 16f0 17       		.uleb128 0x17
 6095 16f1 01       		.uleb128 0x1
 6096 16f2 52       		.byte	0x52
 6097 16f3 01       		.uleb128 0x1
 6098 16f4 30       		.byte	0x30
 6099 16f5 00       		.byte	0
 6100 16f6 00       		.byte	0
 6101 16f7 26       		.uleb128 0x26
 6102 16f8 B8000000 		.4byte	0xb8
 6103 16fc 20       		.uleb128 0x20
 6104 16fd 8A0B0000 		.4byte	.LASF228
 6105 1701 01       		.byte	0x1
 6106 1702 6304     		.2byte	0x463
 6107 1704 35010000 		.4byte	0x135
 6108 1708 00000000 		.4byte	.LFB19
 6109 170c 8C000000 		.4byte	.LFE19-.LFB19
 6110 1710 01       		.uleb128 0x1
 6111 1711 9C       		.byte	0x9c
 6112 1712 30180000 		.4byte	0x1830
 6113 1716 1A       		.uleb128 0x1a
 6114 1717 44657600 		.ascii	"Dev\000"
 6115 171b 01       		.byte	0x1
 6116 171c 6304     		.2byte	0x463
 6117 171e 83060000 		.4byte	0x683
 6118 1722 CF110000 		.4byte	.LLST100
 6119 1726 1B       		.uleb128 0x1b
 6120 1727 7B080000 		.4byte	.LASF223
 6121 172b 01       		.byte	0x1
 6122 172c 6404     		.2byte	0x464
 6123 172e 1D060000 		.4byte	0x61d
 6124 1732 FB110000 		.4byte	.LLST101
 6125 1736 1B       		.uleb128 0x1b
 6126 1737 960E0000 		.4byte	.LASF229
 6127 173b 01       		.byte	0x1
 6128 173c 6404     		.2byte	0x464
 6129 173e F7160000 		.4byte	0x16f7
 6130 1742 27120000 		.4byte	.LLST102
 6131 1746 1B       		.uleb128 0x1b
 6132 1747 8F060000 		.4byte	.LASF230
 6133 174b 01       		.byte	0x1
 6134 174c 6504     		.2byte	0x465
 6135 174e F7160000 		.4byte	0x16f7
 6136 1752 48120000 		.4byte	.LLST103
ARM GAS  C:\Users\Rajesh\AppData\Local\Temp\ccFou9eL.s 			page 134


 6137 1756 1C       		.uleb128 0x1c
 6138 1757 A4010000 		.4byte	.LASF122
 6139 175b 01       		.byte	0x1
 6140 175c 6704     		.2byte	0x467
 6141 175e 35010000 		.4byte	0x135
 6142 1762 69120000 		.4byte	.LLST104
 6143 1766 1C       		.uleb128 0x1c
 6144 1767 210D0000 		.4byte	.LASF98
 6145 176b 01       		.byte	0x1
 6146 176c 6804     		.2byte	0x468
 6147 176e B8000000 		.4byte	0xb8
 6148 1772 A9120000 		.4byte	.LLST105
 6149 1776 24       		.uleb128 0x24
 6150 1777 B00E0000 		.4byte	.LASF221
 6151 177b 01       		.byte	0x1
 6152 177c 6904     		.2byte	0x469
 6153 177e B8000000 		.4byte	0xb8
 6154 1782 00       		.byte	0
 6155 1783 24       		.uleb128 0x24
 6156 1784 58090000 		.4byte	.LASF222
 6157 1788 01       		.byte	0x1
 6158 1789 6A04     		.2byte	0x46a
 6159 178b B8000000 		.4byte	0xb8
 6160 178f 00       		.byte	0
 6161 1790 21       		.uleb128 0x21
 6162 1791 65110000 		.4byte	.LASF231
 6163 1795 01       		.byte	0x1
 6164 1796 6B04     		.2byte	0x46b
 6165 1798 B8000000 		.4byte	0xb8
 6166 179c 02       		.uleb128 0x2
 6167 179d 91       		.byte	0x91
 6168 179e 67       		.sleb128 -25
 6169 179f 16       		.uleb128 0x16
 6170 17a0 30000000 		.4byte	.LVL342
 6171 17a4 93200000 		.4byte	0x2093
 6172 17a8 BD170000 		.4byte	0x17bd
 6173 17ac 17       		.uleb128 0x17
 6174 17ad 01       		.uleb128 0x1
 6175 17ae 50       		.byte	0x50
 6176 17af 02       		.uleb128 0x2
 6177 17b0 74       		.byte	0x74
 6178 17b1 00       		.sleb128 0
 6179 17b2 17       		.uleb128 0x17
 6180 17b3 01       		.uleb128 0x1
 6181 17b4 51       		.byte	0x51
 6182 17b5 01       		.uleb128 0x1
 6183 17b6 31       		.byte	0x31
 6184 17b7 17       		.uleb128 0x17
 6185 17b8 01       		.uleb128 0x1
 6186 17b9 52       		.byte	0x52
 6187 17ba 01       		.uleb128 0x1
 6188 17bb 31       		.byte	0x31
 6189 17bc 00       		.byte	0
 6190 17bd 16       		.uleb128 0x16
 6191 17be 3C000000 		.4byte	.LVL344
 6192 17c2 4E140000 		.4byte	0x144e
 6193 17c6 D7170000 		.4byte	0x17d7
ARM GAS  C:\Users\Rajesh\AppData\Local\Temp\ccFou9eL.s 			page 135


 6194 17ca 17       		.uleb128 0x17
 6195 17cb 01       		.uleb128 0x1
 6196 17cc 50       		.byte	0x50
 6197 17cd 02       		.uleb128 0x2
 6198 17ce 74       		.byte	0x74
 6199 17cf 00       		.sleb128 0
 6200 17d0 17       		.uleb128 0x17
 6201 17d1 01       		.uleb128 0x1
 6202 17d2 51       		.byte	0x51
 6203 17d3 02       		.uleb128 0x2
 6204 17d4 08       		.byte	0x8
 6205 17d5 40       		.byte	0x40
 6206 17d6 00       		.byte	0
 6207 17d7 16       		.uleb128 0x16
 6208 17d8 66000000 		.4byte	.LVL346
 6209 17dc F9140000 		.4byte	0x14f9
 6210 17e0 14180000 		.4byte	0x1814
 6211 17e4 17       		.uleb128 0x17
 6212 17e5 01       		.uleb128 0x1
 6213 17e6 50       		.byte	0x50
 6214 17e7 02       		.uleb128 0x2
 6215 17e8 74       		.byte	0x74
 6216 17e9 00       		.sleb128 0
 6217 17ea 17       		.uleb128 0x17
 6218 17eb 01       		.uleb128 0x1
 6219 17ec 51       		.byte	0x51
 6220 17ed 01       		.uleb128 0x1
 6221 17ee 31       		.byte	0x31
 6222 17ef 17       		.uleb128 0x17
 6223 17f0 01       		.uleb128 0x1
 6224 17f1 52       		.byte	0x52
 6225 17f2 01       		.uleb128 0x1
 6226 17f3 30       		.byte	0x30
 6227 17f4 17       		.uleb128 0x17
 6228 17f5 01       		.uleb128 0x1
 6229 17f6 53       		.byte	0x53
 6230 17f7 01       		.uleb128 0x1
 6231 17f8 30       		.byte	0x30
 6232 17f9 17       		.uleb128 0x17
 6233 17fa 02       		.uleb128 0x2
 6234 17fb 7D       		.byte	0x7d
 6235 17fc 00       		.sleb128 0
 6236 17fd 02       		.uleb128 0x2
 6237 17fe 75       		.byte	0x75
 6238 17ff 00       		.sleb128 0
 6239 1800 17       		.uleb128 0x17
 6240 1801 02       		.uleb128 0x2
 6241 1802 7D       		.byte	0x7d
 6242 1803 04       		.sleb128 4
 6243 1804 02       		.uleb128 0x2
 6244 1805 91       		.byte	0x91
 6245 1806 67       		.sleb128 -25
 6246 1807 17       		.uleb128 0x17
 6247 1808 02       		.uleb128 0x2
 6248 1809 7D       		.byte	0x7d
 6249 180a 08       		.sleb128 8
 6250 180b 01       		.uleb128 0x1
ARM GAS  C:\Users\Rajesh\AppData\Local\Temp\ccFou9eL.s 			page 136


 6251 180c 31       		.byte	0x31
 6252 180d 17       		.uleb128 0x17
 6253 180e 02       		.uleb128 0x2
 6254 180f 7D       		.byte	0x7d
 6255 1810 0C       		.sleb128 12
 6256 1811 01       		.uleb128 0x1
 6257 1812 30       		.byte	0x30
 6258 1813 00       		.byte	0
 6259 1814 18       		.uleb128 0x18
 6260 1815 7E000000 		.4byte	.LVL349
 6261 1819 93200000 		.4byte	0x2093
 6262 181d 17       		.uleb128 0x17
 6263 181e 01       		.uleb128 0x1
 6264 181f 50       		.byte	0x50
 6265 1820 02       		.uleb128 0x2
 6266 1821 74       		.byte	0x74
 6267 1822 00       		.sleb128 0
 6268 1823 17       		.uleb128 0x17
 6269 1824 01       		.uleb128 0x1
 6270 1825 51       		.byte	0x51
 6271 1826 01       		.uleb128 0x1
 6272 1827 31       		.byte	0x31
 6273 1828 17       		.uleb128 0x17
 6274 1829 01       		.uleb128 0x1
 6275 182a 52       		.byte	0x52
 6276 182b 02       		.uleb128 0x2
 6277 182c 76       		.byte	0x76
 6278 182d 00       		.sleb128 0
 6279 182e 00       		.byte	0
 6280 182f 00       		.byte	0
 6281 1830 20       		.uleb128 0x20
 6282 1831 00000000 		.4byte	.LASF232
 6283 1835 01       		.byte	0x1
 6284 1836 9004     		.2byte	0x490
 6285 1838 35010000 		.4byte	0x135
 6286 183c 00000000 		.4byte	.LFB20
 6287 1840 7C000000 		.4byte	.LFE20-.LFB20
 6288 1844 01       		.uleb128 0x1
 6289 1845 9C       		.byte	0x9c
 6290 1846 66190000 		.4byte	0x1966
 6291 184a 1A       		.uleb128 0x1a
 6292 184b 44657600 		.ascii	"Dev\000"
 6293 184f 01       		.byte	0x1
 6294 1850 9004     		.2byte	0x490
 6295 1852 83060000 		.4byte	0x683
 6296 1856 DF120000 		.4byte	.LLST106
 6297 185a 1B       		.uleb128 0x1b
 6298 185b CA030000 		.4byte	.LASF224
 6299 185f 01       		.byte	0x1
 6300 1860 9104     		.2byte	0x491
 6301 1862 1D060000 		.4byte	0x61d
 6302 1866 0B130000 		.4byte	.LLST107
 6303 186a 1B       		.uleb128 0x1b
 6304 186b 960E0000 		.4byte	.LASF229
 6305 186f 01       		.byte	0x1
 6306 1870 9104     		.2byte	0x491
 6307 1872 F7160000 		.4byte	0x16f7
ARM GAS  C:\Users\Rajesh\AppData\Local\Temp\ccFou9eL.s 			page 137


 6308 1876 37130000 		.4byte	.LLST108
 6309 187a 1B       		.uleb128 0x1b
 6310 187b 8F060000 		.4byte	.LASF230
 6311 187f 01       		.byte	0x1
 6312 1880 9204     		.2byte	0x492
 6313 1882 F7160000 		.4byte	0x16f7
 6314 1886 58130000 		.4byte	.LLST109
 6315 188a 1C       		.uleb128 0x1c
 6316 188b A4010000 		.4byte	.LASF122
 6317 188f 01       		.byte	0x1
 6318 1890 9404     		.2byte	0x494
 6319 1892 35010000 		.4byte	0x135
 6320 1896 92130000 		.4byte	.LLST110
 6321 189a 1C       		.uleb128 0x1c
 6322 189b 210D0000 		.4byte	.LASF98
 6323 189f 01       		.byte	0x1
 6324 18a0 9504     		.2byte	0x495
 6325 18a2 B8000000 		.4byte	0xb8
 6326 18a6 D2130000 		.4byte	.LLST111
 6327 18aa 24       		.uleb128 0x24
 6328 18ab B00E0000 		.4byte	.LASF221
 6329 18af 01       		.byte	0x1
 6330 18b0 9604     		.2byte	0x496
 6331 18b2 B8000000 		.4byte	0xb8
 6332 18b6 00       		.byte	0
 6333 18b7 24       		.uleb128 0x24
 6334 18b8 58090000 		.4byte	.LASF222
 6335 18bc 01       		.byte	0x1
 6336 18bd 9704     		.2byte	0x497
 6337 18bf B8000000 		.4byte	0xb8
 6338 18c3 00       		.byte	0
 6339 18c4 21       		.uleb128 0x21
 6340 18c5 94030000 		.4byte	.LASF233
 6341 18c9 01       		.byte	0x1
 6342 18ca 9804     		.2byte	0x498
 6343 18cc B8000000 		.4byte	0xb8
 6344 18d0 02       		.uleb128 0x2
 6345 18d1 91       		.byte	0x91
 6346 18d2 67       		.sleb128 -25
 6347 18d3 16       		.uleb128 0x16
 6348 18d4 22000000 		.4byte	.LVL363
 6349 18d8 93200000 		.4byte	0x2093
 6350 18dc F1180000 		.4byte	0x18f1
 6351 18e0 17       		.uleb128 0x17
 6352 18e1 01       		.uleb128 0x1
 6353 18e2 50       		.byte	0x50
 6354 18e3 02       		.uleb128 0x2
 6355 18e4 74       		.byte	0x74
 6356 18e5 00       		.sleb128 0
 6357 18e6 17       		.uleb128 0x17
 6358 18e7 01       		.uleb128 0x1
 6359 18e8 51       		.byte	0x51
 6360 18e9 01       		.uleb128 0x1
 6361 18ea 31       		.byte	0x31
 6362 18eb 17       		.uleb128 0x17
 6363 18ec 01       		.uleb128 0x1
 6364 18ed 52       		.byte	0x52
ARM GAS  C:\Users\Rajesh\AppData\Local\Temp\ccFou9eL.s 			page 138


 6365 18ee 01       		.uleb128 0x1
 6366 18ef 32       		.byte	0x32
 6367 18f0 00       		.byte	0
 6368 18f1 16       		.uleb128 0x16
 6369 18f2 2E000000 		.4byte	.LVL365
 6370 18f6 4E140000 		.4byte	0x144e
 6371 18fa 0A190000 		.4byte	0x190a
 6372 18fe 17       		.uleb128 0x17
 6373 18ff 01       		.uleb128 0x1
 6374 1900 50       		.byte	0x50
 6375 1901 02       		.uleb128 0x2
 6376 1902 74       		.byte	0x74
 6377 1903 00       		.sleb128 0
 6378 1904 17       		.uleb128 0x17
 6379 1905 01       		.uleb128 0x1
 6380 1906 51       		.byte	0x51
 6381 1907 01       		.uleb128 0x1
 6382 1908 30       		.byte	0x30
 6383 1909 00       		.byte	0
 6384 190a 16       		.uleb128 0x16
 6385 190b 56000000 		.4byte	.LVL367
 6386 190f F9140000 		.4byte	0x14f9
 6387 1913 4A190000 		.4byte	0x194a
 6388 1917 17       		.uleb128 0x17
 6389 1918 01       		.uleb128 0x1
 6390 1919 50       		.byte	0x50
 6391 191a 02       		.uleb128 0x2
 6392 191b 74       		.byte	0x74
 6393 191c 00       		.sleb128 0
 6394 191d 17       		.uleb128 0x17
 6395 191e 01       		.uleb128 0x1
 6396 191f 51       		.byte	0x51
 6397 1920 01       		.uleb128 0x1
 6398 1921 31       		.byte	0x31
 6399 1922 17       		.uleb128 0x17
 6400 1923 01       		.uleb128 0x1
 6401 1924 52       		.byte	0x52
 6402 1925 01       		.uleb128 0x1
 6403 1926 30       		.byte	0x30
 6404 1927 17       		.uleb128 0x17
 6405 1928 01       		.uleb128 0x1
 6406 1929 53       		.byte	0x53
 6407 192a 01       		.uleb128 0x1
 6408 192b 30       		.byte	0x30
 6409 192c 17       		.uleb128 0x17
 6410 192d 02       		.uleb128 0x2
 6411 192e 7D       		.byte	0x7d
 6412 192f 00       		.sleb128 0
 6413 1930 02       		.uleb128 0x2
 6414 1931 91       		.byte	0x91
 6415 1932 67       		.sleb128 -25
 6416 1933 17       		.uleb128 0x17
 6417 1934 02       		.uleb128 0x2
 6418 1935 7D       		.byte	0x7d
 6419 1936 04       		.sleb128 4
 6420 1937 02       		.uleb128 0x2
 6421 1938 75       		.byte	0x75
ARM GAS  C:\Users\Rajesh\AppData\Local\Temp\ccFou9eL.s 			page 139


 6422 1939 00       		.sleb128 0
 6423 193a 17       		.uleb128 0x17
 6424 193b 02       		.uleb128 0x2
 6425 193c 7D       		.byte	0x7d
 6426 193d 08       		.sleb128 8
 6427 193e 01       		.uleb128 0x1
 6428 193f 30       		.byte	0x30
 6429 1940 17       		.uleb128 0x17
 6430 1941 02       		.uleb128 0x2
 6431 1942 7D       		.byte	0x7d
 6432 1943 0C       		.sleb128 12
 6433 1944 04       		.uleb128 0x4
 6434 1945 91       		.byte	0x91
 6435 1946 5C       		.sleb128 -36
 6436 1947 94       		.byte	0x94
 6437 1948 01       		.byte	0x1
 6438 1949 00       		.byte	0
 6439 194a 18       		.uleb128 0x18
 6440 194b 6E000000 		.4byte	.LVL370
 6441 194f 93200000 		.4byte	0x2093
 6442 1953 17       		.uleb128 0x17
 6443 1954 01       		.uleb128 0x1
 6444 1955 50       		.byte	0x50
 6445 1956 02       		.uleb128 0x2
 6446 1957 74       		.byte	0x74
 6447 1958 00       		.sleb128 0
 6448 1959 17       		.uleb128 0x17
 6449 195a 01       		.uleb128 0x1
 6450 195b 51       		.byte	0x51
 6451 195c 01       		.uleb128 0x1
 6452 195d 31       		.byte	0x31
 6453 195e 17       		.uleb128 0x17
 6454 195f 01       		.uleb128 0x1
 6455 1960 52       		.byte	0x52
 6456 1961 02       		.uleb128 0x2
 6457 1962 76       		.byte	0x76
 6458 1963 00       		.sleb128 0
 6459 1964 00       		.byte	0
 6460 1965 00       		.byte	0
 6461 1966 20       		.uleb128 0x20
 6462 1967 82130000 		.4byte	.LASF234
 6463 196b 01       		.byte	0x1
 6464 196c BD04     		.2byte	0x4bd
 6465 196e 35010000 		.4byte	0x135
 6466 1972 00000000 		.4byte	.LFB21
 6467 1976 40000000 		.4byte	.LFE21-.LFB21
 6468 197a 01       		.uleb128 0x1
 6469 197b 9C       		.byte	0x9c
 6470 197c 471A0000 		.4byte	0x1a47
 6471 1980 1A       		.uleb128 0x1a
 6472 1981 44657600 		.ascii	"Dev\000"
 6473 1985 01       		.byte	0x1
 6474 1986 BD04     		.2byte	0x4bd
 6475 1988 83060000 		.4byte	0x683
 6476 198c 08140000 		.4byte	.LLST112
 6477 1990 1B       		.uleb128 0x1b
 6478 1991 7B080000 		.4byte	.LASF223
ARM GAS  C:\Users\Rajesh\AppData\Local\Temp\ccFou9eL.s 			page 140


 6479 1995 01       		.byte	0x1
 6480 1996 BE04     		.2byte	0x4be
 6481 1998 1D060000 		.4byte	0x61d
 6482 199c 34140000 		.4byte	.LLST113
 6483 19a0 1B       		.uleb128 0x1b
 6484 19a1 CA030000 		.4byte	.LASF224
 6485 19a5 01       		.byte	0x1
 6486 19a6 BE04     		.2byte	0x4be
 6487 19a8 1D060000 		.4byte	0x61d
 6488 19ac 55140000 		.4byte	.LLST114
 6489 19b0 1B       		.uleb128 0x1b
 6490 19b1 960E0000 		.4byte	.LASF229
 6491 19b5 01       		.byte	0x1
 6492 19b6 BE04     		.2byte	0x4be
 6493 19b8 B8000000 		.4byte	0xb8
 6494 19bc 81140000 		.4byte	.LLST115
 6495 19c0 1C       		.uleb128 0x1c
 6496 19c1 A4010000 		.4byte	.LASF122
 6497 19c5 01       		.byte	0x1
 6498 19c6 C004     		.2byte	0x4c0
 6499 19c8 35010000 		.4byte	0x135
 6500 19cc A2140000 		.4byte	.LLST116
 6501 19d0 1C       		.uleb128 0x1c
 6502 19d1 210D0000 		.4byte	.LASF98
 6503 19d5 01       		.byte	0x1
 6504 19d6 C104     		.2byte	0x4c1
 6505 19d8 B8000000 		.4byte	0xb8
 6506 19dc D7140000 		.4byte	.LLST117
 6507 19e0 16       		.uleb128 0x16
 6508 19e1 16000000 		.4byte	.LVL380
 6509 19e5 FC160000 		.4byte	0x16fc
 6510 19e9 061A0000 		.4byte	0x1a06
 6511 19ed 17       		.uleb128 0x17
 6512 19ee 01       		.uleb128 0x1
 6513 19ef 50       		.byte	0x50
 6514 19f0 02       		.uleb128 0x2
 6515 19f1 74       		.byte	0x74
 6516 19f2 00       		.sleb128 0
 6517 19f3 17       		.uleb128 0x17
 6518 19f4 01       		.uleb128 0x1
 6519 19f5 51       		.byte	0x51
 6520 19f6 03       		.uleb128 0x3
 6521 19f7 F3       		.byte	0xf3
 6522 19f8 01       		.uleb128 0x1
 6523 19f9 51       		.byte	0x51
 6524 19fa 17       		.uleb128 0x17
 6525 19fb 01       		.uleb128 0x1
 6526 19fc 52       		.byte	0x52
 6527 19fd 02       		.uleb128 0x2
 6528 19fe 75       		.byte	0x75
 6529 19ff 00       		.sleb128 0
 6530 1a00 17       		.uleb128 0x17
 6531 1a01 01       		.uleb128 0x1
 6532 1a02 53       		.byte	0x53
 6533 1a03 01       		.uleb128 0x1
 6534 1a04 30       		.byte	0x30
 6535 1a05 00       		.byte	0
ARM GAS  C:\Users\Rajesh\AppData\Local\Temp\ccFou9eL.s 			page 141


 6536 1a06 16       		.uleb128 0x16
 6537 1a07 26000000 		.4byte	.LVL382
 6538 1a0b 30180000 		.4byte	0x1830
 6539 1a0f 2B1A0000 		.4byte	0x1a2b
 6540 1a13 17       		.uleb128 0x17
 6541 1a14 01       		.uleb128 0x1
 6542 1a15 50       		.byte	0x50
 6543 1a16 02       		.uleb128 0x2
 6544 1a17 74       		.byte	0x74
 6545 1a18 00       		.sleb128 0
 6546 1a19 17       		.uleb128 0x17
 6547 1a1a 01       		.uleb128 0x1
 6548 1a1b 51       		.byte	0x51
 6549 1a1c 02       		.uleb128 0x2
 6550 1a1d 76       		.byte	0x76
 6551 1a1e 00       		.sleb128 0
 6552 1a1f 17       		.uleb128 0x17
 6553 1a20 01       		.uleb128 0x1
 6554 1a21 52       		.byte	0x52
 6555 1a22 02       		.uleb128 0x2
 6556 1a23 75       		.byte	0x75
 6557 1a24 00       		.sleb128 0
 6558 1a25 17       		.uleb128 0x17
 6559 1a26 01       		.uleb128 0x1
 6560 1a27 53       		.byte	0x53
 6561 1a28 01       		.uleb128 0x1
 6562 1a29 30       		.byte	0x30
 6563 1a2a 00       		.byte	0
 6564 1a2b 18       		.uleb128 0x18
 6565 1a2c 34000000 		.4byte	.LVL384
 6566 1a30 93200000 		.4byte	0x2093
 6567 1a34 17       		.uleb128 0x17
 6568 1a35 01       		.uleb128 0x1
 6569 1a36 50       		.byte	0x50
 6570 1a37 02       		.uleb128 0x2
 6571 1a38 74       		.byte	0x74
 6572 1a39 00       		.sleb128 0
 6573 1a3a 17       		.uleb128 0x17
 6574 1a3b 01       		.uleb128 0x1
 6575 1a3c 51       		.byte	0x51
 6576 1a3d 01       		.uleb128 0x1
 6577 1a3e 31       		.byte	0x31
 6578 1a3f 17       		.uleb128 0x17
 6579 1a40 01       		.uleb128 0x1
 6580 1a41 52       		.byte	0x52
 6581 1a42 02       		.uleb128 0x2
 6582 1a43 77       		.byte	0x77
 6583 1a44 00       		.sleb128 0
 6584 1a45 00       		.byte	0
 6585 1a46 00       		.byte	0
 6586 1a47 20       		.uleb128 0x20
 6587 1a48 D90B0000 		.4byte	.LASF235
 6588 1a4c 01       		.byte	0x1
 6589 1a4d A402     		.2byte	0x2a4
 6590 1a4f 35010000 		.4byte	0x135
 6591 1a53 00000000 		.4byte	.LFB14
 6592 1a57 28030000 		.4byte	.LFE14-.LFB14
ARM GAS  C:\Users\Rajesh\AppData\Local\Temp\ccFou9eL.s 			page 142


 6593 1a5b 01       		.uleb128 0x1
 6594 1a5c 9C       		.byte	0x9c
 6595 1a5d 801E0000 		.4byte	0x1e80
 6596 1a61 1A       		.uleb128 0x1a
 6597 1a62 44657600 		.ascii	"Dev\000"
 6598 1a66 01       		.byte	0x1
 6599 1a67 A402     		.2byte	0x2a4
 6600 1a69 83060000 		.4byte	0x683
 6601 1a6d F6140000 		.4byte	.LLST118
 6602 1a71 1B       		.uleb128 0x1b
 6603 1a72 FE080000 		.4byte	.LASF236
 6604 1a76 01       		.byte	0x1
 6605 1a77 A502     		.2byte	0x2a5
 6606 1a79 200E0000 		.4byte	0xe20
 6607 1a7d 22150000 		.4byte	.LLST119
 6608 1a81 1B       		.uleb128 0x1b
 6609 1a82 420C0000 		.4byte	.LASF204
 6610 1a86 01       		.byte	0x1
 6611 1a87 A602     		.2byte	0x2a6
 6612 1a89 1D060000 		.4byte	0x61d
 6613 1a8d 42150000 		.4byte	.LLST120
 6614 1a91 1C       		.uleb128 0x1c
 6615 1a92 A4010000 		.4byte	.LASF122
 6616 1a96 01       		.byte	0x1
 6617 1a97 A802     		.2byte	0x2a8
 6618 1a99 35010000 		.4byte	0x135
 6619 1a9d 62150000 		.4byte	.LLST121
 6620 1aa1 21       		.uleb128 0x21
 6621 1aa2 75050000 		.4byte	.LASF237
 6622 1aa6 01       		.byte	0x1
 6623 1aa7 A902     		.2byte	0x2a9
 6624 1aa9 FD010000 		.4byte	0x1fd
 6625 1aad 02       		.uleb128 0x2
 6626 1aae 91       		.byte	0x91
 6627 1aaf 50       		.sleb128 -48
 6628 1ab0 1E       		.uleb128 0x1e
 6629 1ab1 DB050000 		.4byte	.LASF206
 6630 1ab5 01       		.byte	0x1
 6631 1ab6 AA02     		.2byte	0x2aa
 6632 1ab8 B8000000 		.4byte	0xb8
 6633 1abc B47F     		.sleb128 -76
 6634 1abe 24       		.uleb128 0x24
 6635 1abf 32030000 		.4byte	.LASF238
 6636 1ac3 01       		.byte	0x1
 6637 1ac4 AB02     		.2byte	0x2ab
 6638 1ac6 E4000000 		.4byte	0xe4
 6639 1aca 03       		.byte	0x3
 6640 1acb 24       		.uleb128 0x24
 6641 1acc 430D0000 		.4byte	.LASF208
 6642 1ad0 01       		.byte	0x1
 6643 1ad1 AC02     		.2byte	0x2ac
 6644 1ad3 E4000000 		.4byte	0xe4
 6645 1ad7 2C       		.byte	0x2c
 6646 1ad8 1C       		.uleb128 0x1c
 6647 1ad9 39010000 		.4byte	.LASF205
 6648 1add 01       		.byte	0x1
 6649 1ade AD02     		.2byte	0x2ad
ARM GAS  C:\Users\Rajesh\AppData\Local\Temp\ccFou9eL.s 			page 143


 6650 1ae0 E4000000 		.4byte	0xe4
 6651 1ae4 73160000 		.4byte	.LLST122
 6652 1ae8 21       		.uleb128 0x21
 6653 1ae9 1F110000 		.4byte	.LASF209
 6654 1aed 01       		.byte	0x1
 6655 1aee AE02     		.2byte	0x2ae
 6656 1af0 E4000000 		.4byte	0xe4
 6657 1af4 02       		.uleb128 0x2
 6658 1af5 91       		.byte	0x91
 6659 1af6 4C       		.sleb128 -52
 6660 1af7 21       		.uleb128 0x21
 6661 1af8 2E100000 		.4byte	.LASF196
 6662 1afc 01       		.byte	0x1
 6663 1afd AF02     		.2byte	0x2af
 6664 1aff D9000000 		.4byte	0xd9
 6665 1b03 02       		.uleb128 0x2
 6666 1b04 91       		.byte	0x91
 6667 1b05 48       		.sleb128 -56
 6668 1b06 1C       		.uleb128 0x1c
 6669 1b07 BE040000 		.4byte	.LASF103
 6670 1b0b 01       		.byte	0x1
 6671 1b0c B002     		.2byte	0x2b0
 6672 1b0e CE000000 		.4byte	0xce
 6673 1b12 49170000 		.4byte	.LLST123
 6674 1b16 21       		.uleb128 0x21
 6675 1b17 E5100000 		.4byte	.LASF239
 6676 1b1b 01       		.byte	0x1
 6677 1b1c B102     		.2byte	0x2b1
 6678 1b1e CE000000 		.4byte	0xce
 6679 1b22 02       		.uleb128 0x2
 6680 1b23 91       		.byte	0x91
 6681 1b24 46       		.sleb128 -58
 6682 1b25 1C       		.uleb128 0x1c
 6683 1b26 91020000 		.4byte	.LASF240
 6684 1b2a 01       		.byte	0x1
 6685 1b2b B202     		.2byte	0x2b2
 6686 1b2d E4000000 		.4byte	0xe4
 6687 1b31 75170000 		.4byte	.LLST124
 6688 1b35 1C       		.uleb128 0x1c
 6689 1b36 88040000 		.4byte	.LASF195
 6690 1b3a 01       		.byte	0x1
 6691 1b3b B302     		.2byte	0x2b3
 6692 1b3d E4000000 		.4byte	0xe4
 6693 1b41 B8170000 		.4byte	.LLST125
 6694 1b45 24       		.uleb128 0x24
 6695 1b46 CE020000 		.4byte	.LASF207
 6696 1b4a 01       		.byte	0x1
 6697 1b4b B402     		.2byte	0x2b4
 6698 1b4d E4000000 		.4byte	0xe4
 6699 1b51 06       		.byte	0x6
 6700 1b52 1C       		.uleb128 0x1c
 6701 1b53 D6100000 		.4byte	.LASF241
 6702 1b57 01       		.byte	0x1
 6703 1b58 B502     		.2byte	0x2b5
 6704 1b5a E4000000 		.4byte	0xe4
 6705 1b5e ED170000 		.4byte	.LLST126
 6706 1b62 1C       		.uleb128 0x1c
ARM GAS  C:\Users\Rajesh\AppData\Local\Temp\ccFou9eL.s 			page 144


 6707 1b63 300D0000 		.4byte	.LASF242
 6708 1b67 01       		.byte	0x1
 6709 1b68 B602     		.2byte	0x2b6
 6710 1b6a E4000000 		.4byte	0xe4
 6711 1b6e 0C180000 		.4byte	.LLST127
 6712 1b72 1C       		.uleb128 0x1c
 6713 1b73 E3070000 		.4byte	.LASF243
 6714 1b77 01       		.byte	0x1
 6715 1b78 B702     		.2byte	0x2b7
 6716 1b7a B8000000 		.4byte	0xb8
 6717 1b7e 53180000 		.4byte	.LLST128
 6718 1b82 21       		.uleb128 0x21
 6719 1b83 B00E0000 		.4byte	.LASF221
 6720 1b87 01       		.byte	0x1
 6721 1b88 B802     		.2byte	0x2b8
 6722 1b8a B8000000 		.4byte	0xb8
 6723 1b8e 02       		.uleb128 0x2
 6724 1b8f 91       		.byte	0x91
 6725 1b90 45       		.sleb128 -59
 6726 1b91 21       		.uleb128 0x21
 6727 1b92 58090000 		.4byte	.LASF222
 6728 1b96 01       		.byte	0x1
 6729 1b97 B902     		.2byte	0x2b9
 6730 1b99 B8000000 		.4byte	0xb8
 6731 1b9d 02       		.uleb128 0x2
 6732 1b9e 91       		.byte	0x91
 6733 1b9f 44       		.sleb128 -60
 6734 1ba0 1C       		.uleb128 0x1c
 6735 1ba1 D4080000 		.4byte	.LASF244
 6736 1ba5 01       		.byte	0x1
 6737 1ba6 BA02     		.2byte	0x2ba
 6738 1ba8 E4000000 		.4byte	0xe4
 6739 1bac 88180000 		.4byte	.LLST129
 6740 1bb0 1C       		.uleb128 0x1c
 6741 1bb1 0B110000 		.4byte	.LASF245
 6742 1bb5 01       		.byte	0x1
 6743 1bb6 BB02     		.2byte	0x2bb
 6744 1bb8 B8000000 		.4byte	0xb8
 6745 1bbc 1B190000 		.4byte	.LLST130
 6746 1bc0 16       		.uleb128 0x16
 6747 1bc1 4E000000 		.4byte	.LVL399
 6748 1bc5 93200000 		.4byte	0x2093
 6749 1bc9 DF1B0000 		.4byte	0x1bdf
 6750 1bcd 17       		.uleb128 0x17
 6751 1bce 01       		.uleb128 0x1
 6752 1bcf 50       		.byte	0x50
 6753 1bd0 02       		.uleb128 0x2
 6754 1bd1 75       		.byte	0x75
 6755 1bd2 00       		.sleb128 0
 6756 1bd3 17       		.uleb128 0x17
 6757 1bd4 01       		.uleb128 0x1
 6758 1bd5 51       		.byte	0x51
 6759 1bd6 02       		.uleb128 0x2
 6760 1bd7 09       		.byte	0x9
 6761 1bd8 FF       		.byte	0xff
 6762 1bd9 17       		.uleb128 0x17
 6763 1bda 01       		.uleb128 0x1
ARM GAS  C:\Users\Rajesh\AppData\Local\Temp\ccFou9eL.s 			page 145


 6764 1bdb 52       		.byte	0x52
 6765 1bdc 01       		.uleb128 0x1
 6766 1bdd 31       		.byte	0x31
 6767 1bde 00       		.byte	0
 6768 1bdf 16       		.uleb128 0x16
 6769 1be0 5C000000 		.4byte	.LVL402
 6770 1be4 93200000 		.4byte	0x2093
 6771 1be8 FE1B0000 		.4byte	0x1bfe
 6772 1bec 17       		.uleb128 0x17
 6773 1bed 01       		.uleb128 0x1
 6774 1bee 50       		.byte	0x50
 6775 1bef 02       		.uleb128 0x2
 6776 1bf0 75       		.byte	0x75
 6777 1bf1 00       		.sleb128 0
 6778 1bf2 17       		.uleb128 0x17
 6779 1bf3 01       		.uleb128 0x1
 6780 1bf4 51       		.byte	0x51
 6781 1bf5 02       		.uleb128 0x2
 6782 1bf6 08       		.byte	0x8
 6783 1bf7 4F       		.byte	0x4f
 6784 1bf8 17       		.uleb128 0x17
 6785 1bf9 01       		.uleb128 0x1
 6786 1bfa 52       		.byte	0x52
 6787 1bfb 01       		.uleb128 0x1
 6788 1bfc 30       		.byte	0x30
 6789 1bfd 00       		.byte	0
 6790 1bfe 16       		.uleb128 0x16
 6791 1bff 6C000000 		.4byte	.LVL404
 6792 1c03 93200000 		.4byte	0x2093
 6793 1c07 1E1C0000 		.4byte	0x1c1e
 6794 1c0b 17       		.uleb128 0x17
 6795 1c0c 01       		.uleb128 0x1
 6796 1c0d 50       		.byte	0x50
 6797 1c0e 02       		.uleb128 0x2
 6798 1c0f 75       		.byte	0x75
 6799 1c10 00       		.sleb128 0
 6800 1c11 17       		.uleb128 0x17
 6801 1c12 01       		.uleb128 0x1
 6802 1c13 51       		.byte	0x51
 6803 1c14 02       		.uleb128 0x2
 6804 1c15 08       		.byte	0x8
 6805 1c16 4E       		.byte	0x4e
 6806 1c17 17       		.uleb128 0x17
 6807 1c18 01       		.uleb128 0x1
 6808 1c19 52       		.byte	0x52
 6809 1c1a 02       		.uleb128 0x2
 6810 1c1b 08       		.byte	0x8
 6811 1c1c 2C       		.byte	0x2c
 6812 1c1d 00       		.byte	0
 6813 1c1e 16       		.uleb128 0x16
 6814 1c1f 7C000000 		.4byte	.LVL406
 6815 1c23 93200000 		.4byte	0x2093
 6816 1c27 3D1C0000 		.4byte	0x1c3d
 6817 1c2b 17       		.uleb128 0x17
 6818 1c2c 01       		.uleb128 0x1
 6819 1c2d 50       		.byte	0x50
 6820 1c2e 02       		.uleb128 0x2
ARM GAS  C:\Users\Rajesh\AppData\Local\Temp\ccFou9eL.s 			page 146


 6821 1c2f 75       		.byte	0x75
 6822 1c30 00       		.sleb128 0
 6823 1c31 17       		.uleb128 0x17
 6824 1c32 01       		.uleb128 0x1
 6825 1c33 51       		.byte	0x51
 6826 1c34 02       		.uleb128 0x2
 6827 1c35 09       		.byte	0x9
 6828 1c36 FF       		.byte	0xff
 6829 1c37 17       		.uleb128 0x17
 6830 1c38 01       		.uleb128 0x1
 6831 1c39 52       		.byte	0x52
 6832 1c3a 01       		.uleb128 0x1
 6833 1c3b 30       		.byte	0x30
 6834 1c3c 00       		.byte	0
 6835 1c3d 16       		.uleb128 0x16
 6836 1c3e 8C000000 		.4byte	.LVL408
 6837 1c42 93200000 		.4byte	0x2093
 6838 1c46 5D1C0000 		.4byte	0x1c5d
 6839 1c4a 17       		.uleb128 0x17
 6840 1c4b 01       		.uleb128 0x1
 6841 1c4c 50       		.byte	0x50
 6842 1c4d 02       		.uleb128 0x2
 6843 1c4e 75       		.byte	0x75
 6844 1c4f 00       		.sleb128 0
 6845 1c50 17       		.uleb128 0x17
 6846 1c51 01       		.uleb128 0x1
 6847 1c52 51       		.byte	0x51
 6848 1c53 02       		.uleb128 0x2
 6849 1c54 09       		.byte	0x9
 6850 1c55 B6       		.byte	0xb6
 6851 1c56 17       		.uleb128 0x17
 6852 1c57 01       		.uleb128 0x1
 6853 1c58 52       		.byte	0x52
 6854 1c59 02       		.uleb128 0x2
 6855 1c5a 09       		.byte	0x9
 6856 1c5b B4       		.byte	0xb4
 6857 1c5c 00       		.byte	0
 6858 1c5d 16       		.uleb128 0x16
 6859 1c5e 9C000000 		.4byte	.LVL410
 6860 1c62 93200000 		.4byte	0x2093
 6861 1c66 7C1C0000 		.4byte	0x1c7c
 6862 1c6a 17       		.uleb128 0x17
 6863 1c6b 01       		.uleb128 0x1
 6864 1c6c 50       		.byte	0x50
 6865 1c6d 02       		.uleb128 0x2
 6866 1c6e 75       		.byte	0x75
 6867 1c6f 00       		.sleb128 0
 6868 1c70 17       		.uleb128 0x17
 6869 1c71 01       		.uleb128 0x1
 6870 1c72 51       		.byte	0x51
 6871 1c73 02       		.uleb128 0x2
 6872 1c74 09       		.byte	0x9
 6873 1c75 80       		.byte	0x80
 6874 1c76 17       		.uleb128 0x17
 6875 1c77 01       		.uleb128 0x1
 6876 1c78 52       		.byte	0x52
 6877 1c79 01       		.uleb128 0x1
ARM GAS  C:\Users\Rajesh\AppData\Local\Temp\ccFou9eL.s 			page 147


 6878 1c7a 30       		.byte	0x30
 6879 1c7b 00       		.byte	0
 6880 1c7c 16       		.uleb128 0x16
 6881 1c7d B4000000 		.4byte	.LVL412
 6882 1c81 66190000 		.4byte	0x1966
 6883 1c85 A11C0000 		.4byte	0x1ca1
 6884 1c89 17       		.uleb128 0x17
 6885 1c8a 01       		.uleb128 0x1
 6886 1c8b 50       		.byte	0x50
 6887 1c8c 02       		.uleb128 0x2
 6888 1c8d 75       		.byte	0x75
 6889 1c8e 00       		.sleb128 0
 6890 1c8f 17       		.uleb128 0x17
 6891 1c90 01       		.uleb128 0x1
 6892 1c91 51       		.byte	0x51
 6893 1c92 02       		.uleb128 0x2
 6894 1c93 91       		.byte	0x91
 6895 1c94 45       		.sleb128 -59
 6896 1c95 17       		.uleb128 0x17
 6897 1c96 01       		.uleb128 0x1
 6898 1c97 52       		.byte	0x52
 6899 1c98 02       		.uleb128 0x2
 6900 1c99 91       		.byte	0x91
 6901 1c9a 44       		.sleb128 -60
 6902 1c9b 17       		.uleb128 0x17
 6903 1c9c 01       		.uleb128 0x1
 6904 1c9d 53       		.byte	0x53
 6905 1c9e 01       		.uleb128 0x1
 6906 1c9f 30       		.byte	0x30
 6907 1ca0 00       		.byte	0
 6908 1ca1 16       		.uleb128 0x16
 6909 1ca2 E4000000 		.4byte	.LVL414
 6910 1ca6 FE0E0000 		.4byte	0xefe
 6911 1caa E81C0000 		.4byte	0x1ce8
 6912 1cae 17       		.uleb128 0x17
 6913 1caf 01       		.uleb128 0x1
 6914 1cb0 50       		.byte	0x50
 6915 1cb1 02       		.uleb128 0x2
 6916 1cb2 75       		.byte	0x75
 6917 1cb3 00       		.sleb128 0
 6918 1cb4 17       		.uleb128 0x17
 6919 1cb5 01       		.uleb128 0x1
 6920 1cb6 51       		.byte	0x51
 6921 1cb7 01       		.uleb128 0x1
 6922 1cb8 30       		.byte	0x30
 6923 1cb9 17       		.uleb128 0x17
 6924 1cba 01       		.uleb128 0x1
 6925 1cbb 52       		.byte	0x52
 6926 1cbc 03       		.uleb128 0x3
 6927 1cbd 75       		.byte	0x75
 6928 1cbe AA02     		.sleb128 298
 6929 1cc0 17       		.uleb128 0x17
 6930 1cc1 01       		.uleb128 0x1
 6931 1cc2 53       		.byte	0x53
 6932 1cc3 03       		.uleb128 0x3
 6933 1cc4 75       		.byte	0x75
 6934 1cc5 A402     		.sleb128 292
ARM GAS  C:\Users\Rajesh\AppData\Local\Temp\ccFou9eL.s 			page 148


 6935 1cc7 17       		.uleb128 0x17
 6936 1cc8 02       		.uleb128 0x2
 6937 1cc9 7D       		.byte	0x7d
 6938 1cca 00       		.sleb128 0
 6939 1ccb 01       		.uleb128 0x1
 6940 1ccc 36       		.byte	0x36
 6941 1ccd 17       		.uleb128 0x17
 6942 1cce 02       		.uleb128 0x2
 6943 1ccf 7D       		.byte	0x7d
 6944 1cd0 04       		.sleb128 4
 6945 1cd1 02       		.uleb128 0x2
 6946 1cd2 08       		.byte	0x8
 6947 1cd3 B4       		.byte	0xb4
 6948 1cd4 17       		.uleb128 0x17
 6949 1cd5 02       		.uleb128 0x2
 6950 1cd6 7D       		.byte	0x7d
 6951 1cd7 08       		.sleb128 8
 6952 1cd8 01       		.uleb128 0x1
 6953 1cd9 30       		.byte	0x30
 6954 1cda 17       		.uleb128 0x17
 6955 1cdb 02       		.uleb128 0x2
 6956 1cdc 7D       		.byte	0x7d
 6957 1cdd 0C       		.sleb128 12
 6958 1cde 01       		.uleb128 0x1
 6959 1cdf 33       		.byte	0x33
 6960 1ce0 17       		.uleb128 0x17
 6961 1ce1 02       		.uleb128 0x2
 6962 1ce2 7D       		.byte	0x7d
 6963 1ce3 10       		.sleb128 16
 6964 1ce4 02       		.uleb128 0x2
 6965 1ce5 91       		.byte	0x91
 6966 1ce6 4C       		.sleb128 -52
 6967 1ce7 00       		.byte	0
 6968 1ce8 16       		.uleb128 0x16
 6969 1ce9 FA000000 		.4byte	.LVL417
 6970 1ced 94100000 		.4byte	0x1094
 6971 1cf1 021D0000 		.4byte	0x1d02
 6972 1cf5 17       		.uleb128 0x17
 6973 1cf6 01       		.uleb128 0x1
 6974 1cf7 50       		.byte	0x50
 6975 1cf8 02       		.uleb128 0x2
 6976 1cf9 75       		.byte	0x75
 6977 1cfa 00       		.sleb128 0
 6978 1cfb 17       		.uleb128 0x17
 6979 1cfc 01       		.uleb128 0x1
 6980 1cfd 51       		.byte	0x51
 6981 1cfe 02       		.uleb128 0x2
 6982 1cff 91       		.byte	0x91
 6983 1d00 46       		.sleb128 -58
 6984 1d01 00       		.byte	0
 6985 1d02 16       		.uleb128 0x16
 6986 1d03 36010000 		.4byte	.LVL425
 6987 1d07 680C0000 		.4byte	0xc68
 6988 1d0b 171D0000 		.4byte	0x1d17
 6989 1d0f 17       		.uleb128 0x17
 6990 1d10 01       		.uleb128 0x1
 6991 1d11 50       		.byte	0x50
ARM GAS  C:\Users\Rajesh\AppData\Local\Temp\ccFou9eL.s 			page 149


 6992 1d12 03       		.uleb128 0x3
 6993 1d13 77       		.byte	0x77
 6994 1d14 B401     		.sleb128 180
 6995 1d16 00       		.byte	0
 6996 1d17 16       		.uleb128 0x16
 6997 1d18 64010000 		.4byte	.LVL427
 6998 1d1c FE0E0000 		.4byte	0xefe
 6999 1d20 5F1D0000 		.4byte	0x1d5f
 7000 1d24 17       		.uleb128 0x17
 7001 1d25 01       		.uleb128 0x1
 7002 1d26 50       		.byte	0x50
 7003 1d27 02       		.uleb128 0x2
 7004 1d28 75       		.byte	0x75
 7005 1d29 00       		.sleb128 0
 7006 1d2a 17       		.uleb128 0x17
 7007 1d2b 01       		.uleb128 0x1
 7008 1d2c 51       		.byte	0x51
 7009 1d2d 01       		.uleb128 0x1
 7010 1d2e 31       		.byte	0x31
 7011 1d2f 17       		.uleb128 0x17
 7012 1d30 01       		.uleb128 0x1
 7013 1d31 52       		.byte	0x52
 7014 1d32 03       		.uleb128 0x3
 7015 1d33 75       		.byte	0x75
 7016 1d34 AA02     		.sleb128 298
 7017 1d36 17       		.uleb128 0x17
 7018 1d37 01       		.uleb128 0x1
 7019 1d38 53       		.byte	0x53
 7020 1d39 03       		.uleb128 0x3
 7021 1d3a 75       		.byte	0x75
 7022 1d3b A402     		.sleb128 292
 7023 1d3d 17       		.uleb128 0x17
 7024 1d3e 02       		.uleb128 0x2
 7025 1d3f 7D       		.byte	0x7d
 7026 1d40 00       		.sleb128 0
 7027 1d41 01       		.uleb128 0x1
 7028 1d42 36       		.byte	0x36
 7029 1d43 17       		.uleb128 0x17
 7030 1d44 02       		.uleb128 0x2
 7031 1d45 7D       		.byte	0x7d
 7032 1d46 04       		.sleb128 4
 7033 1d47 02       		.uleb128 0x2
 7034 1d48 08       		.byte	0x8
 7035 1d49 B4       		.byte	0xb4
 7036 1d4a 17       		.uleb128 0x17
 7037 1d4b 02       		.uleb128 0x2
 7038 1d4c 7D       		.byte	0x7d
 7039 1d4d 08       		.sleb128 8
 7040 1d4e 02       		.uleb128 0x2
 7041 1d4f 77       		.byte	0x77
 7042 1d50 00       		.sleb128 0
 7043 1d51 17       		.uleb128 0x17
 7044 1d52 02       		.uleb128 0x2
 7045 1d53 7D       		.byte	0x7d
 7046 1d54 0C       		.sleb128 12
 7047 1d55 01       		.uleb128 0x1
 7048 1d56 33       		.byte	0x33
ARM GAS  C:\Users\Rajesh\AppData\Local\Temp\ccFou9eL.s 			page 150


 7049 1d57 17       		.uleb128 0x17
 7050 1d58 02       		.uleb128 0x2
 7051 1d59 7D       		.byte	0x7d
 7052 1d5a 10       		.sleb128 16
 7053 1d5b 02       		.uleb128 0x2
 7054 1d5c 91       		.byte	0x91
 7055 1d5d 4C       		.sleb128 -52
 7056 1d5e 00       		.byte	0
 7057 1d5f 16       		.uleb128 0x16
 7058 1d60 78010000 		.4byte	.LVL431
 7059 1d64 94100000 		.4byte	0x1094
 7060 1d68 791D0000 		.4byte	0x1d79
 7061 1d6c 17       		.uleb128 0x17
 7062 1d6d 01       		.uleb128 0x1
 7063 1d6e 50       		.byte	0x50
 7064 1d6f 02       		.uleb128 0x2
 7065 1d70 75       		.byte	0x75
 7066 1d71 00       		.sleb128 0
 7067 1d72 17       		.uleb128 0x17
 7068 1d73 01       		.uleb128 0x1
 7069 1d74 51       		.byte	0x51
 7070 1d75 02       		.uleb128 0x2
 7071 1d76 91       		.byte	0x91
 7072 1d77 46       		.sleb128 -58
 7073 1d78 00       		.byte	0
 7074 1d79 16       		.uleb128 0x16
 7075 1d7a FE010000 		.4byte	.LVL439
 7076 1d7e CB200000 		.4byte	0x20cb
 7077 1d82 991D0000 		.4byte	0x1d99
 7078 1d86 17       		.uleb128 0x17
 7079 1d87 01       		.uleb128 0x1
 7080 1d88 50       		.byte	0x50
 7081 1d89 02       		.uleb128 0x2
 7082 1d8a 91       		.byte	0x91
 7083 1d8b 50       		.sleb128 -48
 7084 1d8c 17       		.uleb128 0x17
 7085 1d8d 01       		.uleb128 0x1
 7086 1d8e 51       		.byte	0x51
 7087 1d8f 03       		.uleb128 0x3
 7088 1d90 75       		.byte	0x75
 7089 1d91 A402     		.sleb128 292
 7090 1d93 17       		.uleb128 0x17
 7091 1d94 01       		.uleb128 0x1
 7092 1d95 52       		.byte	0x52
 7093 1d96 01       		.uleb128 0x1
 7094 1d97 36       		.byte	0x36
 7095 1d98 00       		.byte	0
 7096 1d99 16       		.uleb128 0x16
 7097 1d9a 2A020000 		.4byte	.LVL443
 7098 1d9e AA0B0000 		.4byte	0xbaa
 7099 1da2 C11D0000 		.4byte	0x1dc1
 7100 1da6 17       		.uleb128 0x17
 7101 1da7 01       		.uleb128 0x1
 7102 1da8 50       		.byte	0x50
 7103 1da9 03       		.uleb128 0x3
 7104 1daa 75       		.byte	0x75
 7105 1dab AA02     		.sleb128 298
ARM GAS  C:\Users\Rajesh\AppData\Local\Temp\ccFou9eL.s 			page 151


 7106 1dad 17       		.uleb128 0x17
 7107 1dae 01       		.uleb128 0x1
 7108 1daf 51       		.byte	0x51
 7109 1db0 01       		.uleb128 0x1
 7110 1db1 36       		.byte	0x36
 7111 1db2 17       		.uleb128 0x17
 7112 1db3 01       		.uleb128 0x1
 7113 1db4 52       		.byte	0x52
 7114 1db5 04       		.uleb128 0x4
 7115 1db6 91       		.byte	0x91
 7116 1db7 A87F     		.sleb128 -88
 7117 1db9 06       		.byte	0x6
 7118 1dba 17       		.uleb128 0x17
 7119 1dbb 01       		.uleb128 0x1
 7120 1dbc 53       		.byte	0x53
 7121 1dbd 02       		.uleb128 0x2
 7122 1dbe 91       		.byte	0x91
 7123 1dbf 48       		.sleb128 -56
 7124 1dc0 00       		.byte	0
 7125 1dc1 16       		.uleb128 0x16
 7126 1dc2 3A020000 		.4byte	.LVL445
 7127 1dc6 680C0000 		.4byte	0xc68
 7128 1dca D61D0000 		.4byte	0x1dd6
 7129 1dce 17       		.uleb128 0x17
 7130 1dcf 01       		.uleb128 0x1
 7131 1dd0 50       		.byte	0x50
 7132 1dd1 03       		.uleb128 0x3
 7133 1dd2 76       		.byte	0x76
 7134 1dd3 B401     		.sleb128 180
 7135 1dd5 00       		.byte	0
 7136 1dd6 16       		.uleb128 0x16
 7137 1dd7 56020000 		.4byte	.LVL448
 7138 1ddb B30C0000 		.4byte	0xcb3
 7139 1ddf F51D0000 		.4byte	0x1df5
 7140 1de3 17       		.uleb128 0x17
 7141 1de4 01       		.uleb128 0x1
 7142 1de5 50       		.byte	0x50
 7143 1de6 02       		.uleb128 0x2
 7144 1de7 7A       		.byte	0x7a
 7145 1de8 00       		.sleb128 0
 7146 1de9 17       		.uleb128 0x17
 7147 1dea 01       		.uleb128 0x1
 7148 1deb 51       		.byte	0x51
 7149 1dec 01       		.uleb128 0x1
 7150 1ded 36       		.byte	0x36
 7151 1dee 17       		.uleb128 0x17
 7152 1def 01       		.uleb128 0x1
 7153 1df0 52       		.byte	0x52
 7154 1df1 02       		.uleb128 0x2
 7155 1df2 76       		.byte	0x76
 7156 1df3 00       		.sleb128 0
 7157 1df4 00       		.byte	0
 7158 1df5 16       		.uleb128 0x16
 7159 1df6 66020000 		.4byte	.LVL452
 7160 1dfa 260E0000 		.4byte	0xe26
 7161 1dfe 0F1E0000 		.4byte	0x1e0f
 7162 1e02 17       		.uleb128 0x17
ARM GAS  C:\Users\Rajesh\AppData\Local\Temp\ccFou9eL.s 			page 152


 7163 1e03 01       		.uleb128 0x1
 7164 1e04 50       		.byte	0x50
 7165 1e05 02       		.uleb128 0x2
 7166 1e06 75       		.byte	0x75
 7167 1e07 00       		.sleb128 0
 7168 1e08 17       		.uleb128 0x17
 7169 1e09 01       		.uleb128 0x1
 7170 1e0a 51       		.byte	0x51
 7171 1e0b 02       		.uleb128 0x2
 7172 1e0c 7A       		.byte	0x7a
 7173 1e0d 00       		.sleb128 0
 7174 1e0e 00       		.byte	0
 7175 1e0f 16       		.uleb128 0x16
 7176 1e10 7A020000 		.4byte	.LVL455
 7177 1e14 94100000 		.4byte	0x1094
 7178 1e18 291E0000 		.4byte	0x1e29
 7179 1e1c 17       		.uleb128 0x17
 7180 1e1d 01       		.uleb128 0x1
 7181 1e1e 50       		.byte	0x50
 7182 1e1f 02       		.uleb128 0x2
 7183 1e20 75       		.byte	0x75
 7184 1e21 00       		.sleb128 0
 7185 1e22 17       		.uleb128 0x17
 7186 1e23 01       		.uleb128 0x1
 7187 1e24 51       		.byte	0x51
 7188 1e25 02       		.uleb128 0x2
 7189 1e26 91       		.byte	0x91
 7190 1e27 46       		.sleb128 -58
 7191 1e28 00       		.byte	0
 7192 1e29 16       		.uleb128 0x16
 7193 1e2a A4020000 		.4byte	.LVL461
 7194 1e2e 260E0000 		.4byte	0xe26
 7195 1e32 431E0000 		.4byte	0x1e43
 7196 1e36 17       		.uleb128 0x17
 7197 1e37 01       		.uleb128 0x1
 7198 1e38 50       		.byte	0x50
 7199 1e39 02       		.uleb128 0x2
 7200 1e3a 75       		.byte	0x75
 7201 1e3b 00       		.sleb128 0
 7202 1e3c 17       		.uleb128 0x17
 7203 1e3d 01       		.uleb128 0x1
 7204 1e3e 51       		.byte	0x51
 7205 1e3f 02       		.uleb128 0x2
 7206 1e40 91       		.byte	0x91
 7207 1e41 50       		.sleb128 -48
 7208 1e42 00       		.byte	0
 7209 1e43 16       		.uleb128 0x16
 7210 1e44 B4020000 		.4byte	.LVL464
 7211 1e48 CB200000 		.4byte	0x20cb
 7212 1e4c 631E0000 		.4byte	0x1e63
 7213 1e50 17       		.uleb128 0x17
 7214 1e51 01       		.uleb128 0x1
 7215 1e52 50       		.byte	0x50
 7216 1e53 03       		.uleb128 0x3
 7217 1e54 75       		.byte	0x75
 7218 1e55 A402     		.sleb128 292
 7219 1e57 17       		.uleb128 0x17
ARM GAS  C:\Users\Rajesh\AppData\Local\Temp\ccFou9eL.s 			page 153


 7220 1e58 01       		.uleb128 0x1
 7221 1e59 51       		.byte	0x51
 7222 1e5a 02       		.uleb128 0x2
 7223 1e5b 91       		.byte	0x91
 7224 1e5c 50       		.sleb128 -48
 7225 1e5d 17       		.uleb128 0x17
 7226 1e5e 01       		.uleb128 0x1
 7227 1e5f 52       		.byte	0x52
 7228 1e60 01       		.uleb128 0x1
 7229 1e61 36       		.byte	0x36
 7230 1e62 00       		.byte	0
 7231 1e63 18       		.uleb128 0x18
 7232 1e64 CA020000 		.4byte	.LVL468
 7233 1e68 CB200000 		.4byte	0x20cb
 7234 1e6c 17       		.uleb128 0x17
 7235 1e6d 01       		.uleb128 0x1
 7236 1e6e 50       		.byte	0x50
 7237 1e6f 02       		.uleb128 0x2
 7238 1e70 91       		.byte	0x91
 7239 1e71 50       		.sleb128 -48
 7240 1e72 17       		.uleb128 0x17
 7241 1e73 01       		.uleb128 0x1
 7242 1e74 51       		.byte	0x51
 7243 1e75 03       		.uleb128 0x3
 7244 1e76 75       		.byte	0x75
 7245 1e77 A402     		.sleb128 292
 7246 1e79 17       		.uleb128 0x17
 7247 1e7a 01       		.uleb128 0x1
 7248 1e7b 52       		.byte	0x52
 7249 1e7c 01       		.uleb128 0x1
 7250 1e7d 36       		.byte	0x36
 7251 1e7e 00       		.byte	0
 7252 1e7f 00       		.byte	0
 7253 1e80 20       		.uleb128 0x20
 7254 1e81 D90C0000 		.4byte	.LASF246
 7255 1e85 01       		.byte	0x1
 7256 1e86 E004     		.2byte	0x4e0
 7257 1e88 35010000 		.4byte	0x135
 7258 1e8c 00000000 		.4byte	.LFB22
 7259 1e90 24000000 		.4byte	.LFE22-.LFB22
 7260 1e94 01       		.uleb128 0x1
 7261 1e95 9C       		.byte	0x9c
 7262 1e96 2B1F0000 		.4byte	0x1f2b
 7263 1e9a 1A       		.uleb128 0x1a
 7264 1e9b 44657600 		.ascii	"Dev\000"
 7265 1e9f 01       		.byte	0x1
 7266 1ea0 E004     		.2byte	0x4e0
 7267 1ea2 83060000 		.4byte	0x683
 7268 1ea6 3C190000 		.4byte	.LLST131
 7269 1eaa 1B       		.uleb128 0x1b
 7270 1eab B00E0000 		.4byte	.LASF221
 7271 1eaf 01       		.byte	0x1
 7272 1eb0 E104     		.2byte	0x4e1
 7273 1eb2 B8000000 		.4byte	0xb8
 7274 1eb6 5D190000 		.4byte	.LLST132
 7275 1eba 1B       		.uleb128 0x1b
 7276 1ebb 58090000 		.4byte	.LASF222
ARM GAS  C:\Users\Rajesh\AppData\Local\Temp\ccFou9eL.s 			page 154


 7277 1ebf 01       		.byte	0x1
 7278 1ec0 E104     		.2byte	0x4e1
 7279 1ec2 B8000000 		.4byte	0xb8
 7280 1ec6 7E190000 		.4byte	.LLST133
 7281 1eca 1C       		.uleb128 0x1c
 7282 1ecb A4010000 		.4byte	.LASF122
 7283 1ecf 01       		.byte	0x1
 7284 1ed0 E304     		.2byte	0x4e3
 7285 1ed2 35010000 		.4byte	0x135
 7286 1ed6 9F190000 		.4byte	.LLST134
 7287 1eda 21       		.uleb128 0x21
 7288 1edb 7B080000 		.4byte	.LASF223
 7289 1edf 01       		.byte	0x1
 7290 1ee0 E404     		.2byte	0x4e4
 7291 1ee2 B8000000 		.4byte	0xb8
 7292 1ee6 02       		.uleb128 0x2
 7293 1ee7 91       		.byte	0x91
 7294 1ee8 77       		.sleb128 -9
 7295 1ee9 21       		.uleb128 0x21
 7296 1eea CA030000 		.4byte	.LASF224
 7297 1eee 01       		.byte	0x1
 7298 1eef E504     		.2byte	0x4e5
 7299 1ef1 B8000000 		.4byte	0xb8
 7300 1ef5 02       		.uleb128 0x2
 7301 1ef6 91       		.byte	0x91
 7302 1ef7 76       		.sleb128 -10
 7303 1ef8 18       		.uleb128 0x18
 7304 1ef9 20000000 		.4byte	.LVL483
 7305 1efd F9140000 		.4byte	0x14f9
 7306 1f01 17       		.uleb128 0x17
 7307 1f02 01       		.uleb128 0x1
 7308 1f03 50       		.byte	0x50
 7309 1f04 03       		.uleb128 0x3
 7310 1f05 F3       		.byte	0xf3
 7311 1f06 01       		.uleb128 0x1
 7312 1f07 50       		.byte	0x50
 7313 1f08 17       		.uleb128 0x17
 7314 1f09 01       		.uleb128 0x1
 7315 1f0a 51       		.byte	0x51
 7316 1f0b 01       		.uleb128 0x1
 7317 1f0c 30       		.byte	0x30
 7318 1f0d 17       		.uleb128 0x17
 7319 1f0e 02       		.uleb128 0x2
 7320 1f0f 7D       		.byte	0x7d
 7321 1f10 00       		.sleb128 0
 7322 1f11 02       		.uleb128 0x2
 7323 1f12 91       		.byte	0x91
 7324 1f13 77       		.sleb128 -9
 7325 1f14 17       		.uleb128 0x17
 7326 1f15 02       		.uleb128 0x2
 7327 1f16 7D       		.byte	0x7d
 7328 1f17 04       		.sleb128 4
 7329 1f18 02       		.uleb128 0x2
 7330 1f19 91       		.byte	0x91
 7331 1f1a 76       		.sleb128 -10
 7332 1f1b 17       		.uleb128 0x17
 7333 1f1c 02       		.uleb128 0x2
ARM GAS  C:\Users\Rajesh\AppData\Local\Temp\ccFou9eL.s 			page 155


 7334 1f1d 7D       		.byte	0x7d
 7335 1f1e 08       		.sleb128 8
 7336 1f1f 02       		.uleb128 0x2
 7337 1f20 74       		.byte	0x74
 7338 1f21 00       		.sleb128 0
 7339 1f22 17       		.uleb128 0x17
 7340 1f23 02       		.uleb128 0x2
 7341 1f24 7D       		.byte	0x7d
 7342 1f25 0C       		.sleb128 12
 7343 1f26 02       		.uleb128 0x2
 7344 1f27 74       		.byte	0x74
 7345 1f28 00       		.sleb128 0
 7346 1f29 00       		.byte	0
 7347 1f2a 00       		.byte	0
 7348 1f2b 20       		.uleb128 0x20
 7349 1f2c 6E070000 		.4byte	.LASF247
 7350 1f30 01       		.byte	0x1
 7351 1f31 EF04     		.2byte	0x4ef
 7352 1f33 35010000 		.4byte	0x135
 7353 1f37 00000000 		.4byte	.LFB23
 7354 1f3b 1C000000 		.4byte	.LFE23-.LFB23
 7355 1f3f 01       		.uleb128 0x1
 7356 1f40 9C       		.byte	0x9c
 7357 1f41 DC1F0000 		.4byte	0x1fdc
 7358 1f45 1A       		.uleb128 0x1a
 7359 1f46 44657600 		.ascii	"Dev\000"
 7360 1f4a 01       		.byte	0x1
 7361 1f4b EF04     		.2byte	0x4ef
 7362 1f4d 83060000 		.4byte	0x683
 7363 1f51 BE190000 		.4byte	.LLST135
 7364 1f55 1B       		.uleb128 0x1b
 7365 1f56 7B080000 		.4byte	.LASF223
 7366 1f5a 01       		.byte	0x1
 7367 1f5b F004     		.2byte	0x4f0
 7368 1f5d 1D060000 		.4byte	0x61d
 7369 1f61 DF190000 		.4byte	.LLST136
 7370 1f65 1B       		.uleb128 0x1b
 7371 1f66 CA030000 		.4byte	.LASF224
 7372 1f6a 01       		.byte	0x1
 7373 1f6b F004     		.2byte	0x4f0
 7374 1f6d 1D060000 		.4byte	0x61d
 7375 1f71 0C1A0000 		.4byte	.LLST137
 7376 1f75 1C       		.uleb128 0x1c
 7377 1f76 A4010000 		.4byte	.LASF122
 7378 1f7a 01       		.byte	0x1
 7379 1f7b F204     		.2byte	0x4f2
 7380 1f7d 35010000 		.4byte	0x135
 7381 1f81 391A0000 		.4byte	.LLST138
 7382 1f85 24       		.uleb128 0x24
 7383 1f86 B00E0000 		.4byte	.LASF221
 7384 1f8a 01       		.byte	0x1
 7385 1f8b F304     		.2byte	0x4f3
 7386 1f8d B8000000 		.4byte	0xb8
 7387 1f91 00       		.byte	0
 7388 1f92 24       		.uleb128 0x24
 7389 1f93 58090000 		.4byte	.LASF222
 7390 1f97 01       		.byte	0x1
ARM GAS  C:\Users\Rajesh\AppData\Local\Temp\ccFou9eL.s 			page 156


 7391 1f98 F404     		.2byte	0x4f4
 7392 1f9a B8000000 		.4byte	0xb8
 7393 1f9e 00       		.byte	0
 7394 1f9f 18       		.uleb128 0x18
 7395 1fa0 18000000 		.4byte	.LVL488
 7396 1fa4 F9140000 		.4byte	0x14f9
 7397 1fa8 17       		.uleb128 0x17
 7398 1fa9 01       		.uleb128 0x1
 7399 1faa 50       		.byte	0x50
 7400 1fab 03       		.uleb128 0x3
 7401 1fac F3       		.byte	0xf3
 7402 1fad 01       		.uleb128 0x1
 7403 1fae 50       		.byte	0x50
 7404 1faf 17       		.uleb128 0x17
 7405 1fb0 01       		.uleb128 0x1
 7406 1fb1 51       		.byte	0x51
 7407 1fb2 01       		.uleb128 0x1
 7408 1fb3 31       		.byte	0x31
 7409 1fb4 17       		.uleb128 0x17
 7410 1fb5 01       		.uleb128 0x1
 7411 1fb6 52       		.byte	0x52
 7412 1fb7 01       		.uleb128 0x1
 7413 1fb8 30       		.byte	0x30
 7414 1fb9 17       		.uleb128 0x17
 7415 1fba 01       		.uleb128 0x1
 7416 1fbb 53       		.byte	0x53
 7417 1fbc 01       		.uleb128 0x1
 7418 1fbd 30       		.byte	0x30
 7419 1fbe 17       		.uleb128 0x17
 7420 1fbf 02       		.uleb128 0x2
 7421 1fc0 7D       		.byte	0x7d
 7422 1fc1 00       		.sleb128 0
 7423 1fc2 03       		.uleb128 0x3
 7424 1fc3 F3       		.byte	0xf3
 7425 1fc4 01       		.uleb128 0x1
 7426 1fc5 51       		.byte	0x51
 7427 1fc6 17       		.uleb128 0x17
 7428 1fc7 02       		.uleb128 0x2
 7429 1fc8 7D       		.byte	0x7d
 7430 1fc9 04       		.sleb128 4
 7431 1fca 03       		.uleb128 0x3
 7432 1fcb F3       		.byte	0xf3
 7433 1fcc 01       		.uleb128 0x1
 7434 1fcd 52       		.byte	0x52
 7435 1fce 17       		.uleb128 0x17
 7436 1fcf 02       		.uleb128 0x2
 7437 1fd0 7D       		.byte	0x7d
 7438 1fd1 08       		.sleb128 8
 7439 1fd2 01       		.uleb128 0x1
 7440 1fd3 31       		.byte	0x31
 7441 1fd4 17       		.uleb128 0x17
 7442 1fd5 02       		.uleb128 0x2
 7443 1fd6 7D       		.byte	0x7d
 7444 1fd7 0C       		.sleb128 12
 7445 1fd8 01       		.uleb128 0x1
 7446 1fd9 31       		.byte	0x31
 7447 1fda 00       		.byte	0
ARM GAS  C:\Users\Rajesh\AppData\Local\Temp\ccFou9eL.s 			page 157


 7448 1fdb 00       		.byte	0
 7449 1fdc 05       		.uleb128 0x5
 7450 1fdd E4000000 		.4byte	0xe4
 7451 1fe1 EC1F0000 		.4byte	0x1fec
 7452 1fe5 06       		.uleb128 0x6
 7453 1fe6 27010000 		.4byte	0x127
 7454 1fea 03       		.byte	0x3
 7455 1feb 00       		.byte	0
 7456 1fec 27       		.uleb128 0x27
 7457 1fed 480B0000 		.4byte	.LASF270
 7458 1ff1 01       		.byte	0x1
 7459 1ff2 30       		.byte	0x30
 7460 1ff3 DC1F0000 		.4byte	0x1fdc
 7461 1ff7 05       		.uleb128 0x5
 7462 1ff8 03       		.byte	0x3
 7463 1ff9 00000000 		.4byte	refArrayQuadrants
 7464 1ffd 28       		.uleb128 0x28
 7465 1ffe 16040000 		.4byte	.LASF248
 7466 2002 16040000 		.4byte	.LASF248
 7467 2006 08       		.byte	0x8
 7468 2007 9503     		.2byte	0x395
 7469 2009 28       		.uleb128 0x28
 7470 200a A2040000 		.4byte	.LASF249
 7471 200e A2040000 		.4byte	.LASF249
 7472 2012 08       		.byte	0x8
 7473 2013 4004     		.2byte	0x440
 7474 2015 28       		.uleb128 0x28
 7475 2016 FC0E0000 		.4byte	.LASF250
 7476 201a FC0E0000 		.4byte	.LASF250
 7477 201e 08       		.byte	0x8
 7478 201f 0906     		.2byte	0x609
 7479 2021 28       		.uleb128 0x28
 7480 2022 DF120000 		.4byte	.LASF251
 7481 2026 DF120000 		.4byte	.LASF251
 7482 202a 08       		.byte	0x8
 7483 202b B503     		.2byte	0x3b5
 7484 202d 29       		.uleb128 0x29
 7485 202e 290E0000 		.4byte	.LASF252
 7486 2032 290E0000 		.4byte	.LASF252
 7487 2036 08       		.byte	0x8
 7488 2037 F8       		.byte	0xf8
 7489 2038 28       		.uleb128 0x28
 7490 2039 5F020000 		.4byte	.LASF253
 7491 203d 5F020000 		.4byte	.LASF253
 7492 2041 08       		.byte	0x8
 7493 2042 0A03     		.2byte	0x30a
 7494 2044 28       		.uleb128 0x28
 7495 2045 240F0000 		.4byte	.LASF254
 7496 2049 240F0000 		.4byte	.LASF254
 7497 204d 08       		.byte	0x8
 7498 204e F602     		.2byte	0x2f6
 7499 2050 29       		.uleb128 0x29
 7500 2051 120D0000 		.4byte	.LASF255
 7501 2055 120D0000 		.4byte	.LASF255
 7502 2059 07       		.byte	0x7
 7503 205a 9F       		.byte	0x9f
 7504 205b 29       		.uleb128 0x29
ARM GAS  C:\Users\Rajesh\AppData\Local\Temp\ccFou9eL.s 			page 158


 7505 205c DC0A0000 		.4byte	.LASF256
 7506 2060 DC0A0000 		.4byte	.LASF256
 7507 2064 07       		.byte	0x7
 7508 2065 BD       		.byte	0xbd
 7509 2066 29       		.uleb128 0x29
 7510 2067 F50C0000 		.4byte	.LASF257
 7511 206b F50C0000 		.4byte	.LASF257
 7512 206f 09       		.byte	0x9
 7513 2070 35       		.byte	0x35
 7514 2071 28       		.uleb128 0x28
 7515 2072 650F0000 		.4byte	.LASF258
 7516 2076 650F0000 		.4byte	.LASF258
 7517 207a 08       		.byte	0x8
 7518 207b 0A01     		.2byte	0x10a
 7519 207d 29       		.uleb128 0x29
 7520 207e C20D0000 		.4byte	.LASF259
 7521 2082 C20D0000 		.4byte	.LASF259
 7522 2086 07       		.byte	0x7
 7523 2087 80       		.byte	0x80
 7524 2088 29       		.uleb128 0x29
 7525 2089 39040000 		.4byte	.LASF260
 7526 208d 39040000 		.4byte	.LASF260
 7527 2091 07       		.byte	0x7
 7528 2092 8B       		.byte	0x8b
 7529 2093 29       		.uleb128 0x29
 7530 2094 CA0C0000 		.4byte	.LASF261
 7531 2098 CA0C0000 		.4byte	.LASF261
 7532 209c 07       		.byte	0x7
 7533 209d 95       		.byte	0x95
 7534 209e 29       		.uleb128 0x29
 7535 209f AD120000 		.4byte	.LASF262
 7536 20a3 AD120000 		.4byte	.LASF262
 7537 20a7 09       		.byte	0x9
 7538 20a8 2B       		.byte	0x2b
 7539 20a9 28       		.uleb128 0x28
 7540 20aa 52080000 		.4byte	.LASF263
 7541 20ae 52080000 		.4byte	.LASF263
 7542 20b2 08       		.byte	0x8
 7543 20b3 E406     		.2byte	0x6e4
 7544 20b5 29       		.uleb128 0x29
 7545 20b6 CD0A0000 		.4byte	.LASF264
 7546 20ba CD0A0000 		.4byte	.LASF264
 7547 20be 07       		.byte	0x7
 7548 20bf B3       		.byte	0xb3
 7549 20c0 29       		.uleb128 0x29
 7550 20c1 D50D0000 		.4byte	.LASF265
 7551 20c5 D50D0000 		.4byte	.LASF265
 7552 20c9 07       		.byte	0x7
 7553 20ca D5       		.byte	0xd5
 7554 20cb 2A       		.uleb128 0x2a
 7555 20cc DC110000 		.4byte	.LASF271
 7556 20d0 DC110000 		.4byte	.LASF271
 7557 20d4 00       		.byte	0
 7558              		.section	.debug_abbrev,"",%progbits
 7559              	.Ldebug_abbrev0:
 7560 0000 01       		.uleb128 0x1
 7561 0001 11       		.uleb128 0x11
ARM GAS  C:\Users\Rajesh\AppData\Local\Temp\ccFou9eL.s 			page 159


 7562 0002 01       		.byte	0x1
 7563 0003 25       		.uleb128 0x25
 7564 0004 0E       		.uleb128 0xe
 7565 0005 13       		.uleb128 0x13
 7566 0006 0B       		.uleb128 0xb
 7567 0007 03       		.uleb128 0x3
 7568 0008 0E       		.uleb128 0xe
 7569 0009 1B       		.uleb128 0x1b
 7570 000a 0E       		.uleb128 0xe
 7571 000b 55       		.uleb128 0x55
 7572 000c 17       		.uleb128 0x17
 7573 000d 11       		.uleb128 0x11
 7574 000e 01       		.uleb128 0x1
 7575 000f 10       		.uleb128 0x10
 7576 0010 17       		.uleb128 0x17
 7577 0011 00       		.byte	0
 7578 0012 00       		.byte	0
 7579 0013 02       		.uleb128 0x2
 7580 0014 16       		.uleb128 0x16
 7581 0015 00       		.byte	0
 7582 0016 03       		.uleb128 0x3
 7583 0017 0E       		.uleb128 0xe
 7584 0018 3A       		.uleb128 0x3a
 7585 0019 0B       		.uleb128 0xb
 7586 001a 3B       		.uleb128 0x3b
 7587 001b 0B       		.uleb128 0xb
 7588 001c 49       		.uleb128 0x49
 7589 001d 13       		.uleb128 0x13
 7590 001e 00       		.byte	0
 7591 001f 00       		.byte	0
 7592 0020 03       		.uleb128 0x3
 7593 0021 24       		.uleb128 0x24
 7594 0022 00       		.byte	0
 7595 0023 0B       		.uleb128 0xb
 7596 0024 0B       		.uleb128 0xb
 7597 0025 3E       		.uleb128 0x3e
 7598 0026 0B       		.uleb128 0xb
 7599 0027 03       		.uleb128 0x3
 7600 0028 0E       		.uleb128 0xe
 7601 0029 00       		.byte	0
 7602 002a 00       		.byte	0
 7603 002b 04       		.uleb128 0x4
 7604 002c 24       		.uleb128 0x24
 7605 002d 00       		.byte	0
 7606 002e 0B       		.uleb128 0xb
 7607 002f 0B       		.uleb128 0xb
 7608 0030 3E       		.uleb128 0x3e
 7609 0031 0B       		.uleb128 0xb
 7610 0032 03       		.uleb128 0x3
 7611 0033 08       		.uleb128 0x8
 7612 0034 00       		.byte	0
 7613 0035 00       		.byte	0
 7614 0036 05       		.uleb128 0x5
 7615 0037 01       		.uleb128 0x1
 7616 0038 01       		.byte	0x1
 7617 0039 49       		.uleb128 0x49
 7618 003a 13       		.uleb128 0x13
ARM GAS  C:\Users\Rajesh\AppData\Local\Temp\ccFou9eL.s 			page 160


 7619 003b 01       		.uleb128 0x1
 7620 003c 13       		.uleb128 0x13
 7621 003d 00       		.byte	0
 7622 003e 00       		.byte	0
 7623 003f 06       		.uleb128 0x6
 7624 0040 21       		.uleb128 0x21
 7625 0041 00       		.byte	0
 7626 0042 49       		.uleb128 0x49
 7627 0043 13       		.uleb128 0x13
 7628 0044 2F       		.uleb128 0x2f
 7629 0045 0B       		.uleb128 0xb
 7630 0046 00       		.byte	0
 7631 0047 00       		.byte	0
 7632 0048 07       		.uleb128 0x7
 7633 0049 13       		.uleb128 0x13
 7634 004a 01       		.byte	0x1
 7635 004b 0B       		.uleb128 0xb
 7636 004c 0B       		.uleb128 0xb
 7637 004d 3A       		.uleb128 0x3a
 7638 004e 0B       		.uleb128 0xb
 7639 004f 3B       		.uleb128 0x3b
 7640 0050 0B       		.uleb128 0xb
 7641 0051 01       		.uleb128 0x1
 7642 0052 13       		.uleb128 0x13
 7643 0053 00       		.byte	0
 7644 0054 00       		.byte	0
 7645 0055 08       		.uleb128 0x8
 7646 0056 0D       		.uleb128 0xd
 7647 0057 00       		.byte	0
 7648 0058 03       		.uleb128 0x3
 7649 0059 0E       		.uleb128 0xe
 7650 005a 3A       		.uleb128 0x3a
 7651 005b 0B       		.uleb128 0xb
 7652 005c 3B       		.uleb128 0x3b
 7653 005d 0B       		.uleb128 0xb
 7654 005e 49       		.uleb128 0x49
 7655 005f 13       		.uleb128 0x13
 7656 0060 38       		.uleb128 0x38
 7657 0061 0B       		.uleb128 0xb
 7658 0062 00       		.byte	0
 7659 0063 00       		.byte	0
 7660 0064 09       		.uleb128 0x9
 7661 0065 0D       		.uleb128 0xd
 7662 0066 00       		.byte	0
 7663 0067 03       		.uleb128 0x3
 7664 0068 0E       		.uleb128 0xe
 7665 0069 3A       		.uleb128 0x3a
 7666 006a 0B       		.uleb128 0xb
 7667 006b 3B       		.uleb128 0x3b
 7668 006c 05       		.uleb128 0x5
 7669 006d 49       		.uleb128 0x49
 7670 006e 13       		.uleb128 0x13
 7671 006f 38       		.uleb128 0x38
 7672 0070 0B       		.uleb128 0xb
 7673 0071 00       		.byte	0
 7674 0072 00       		.byte	0
 7675 0073 0A       		.uleb128 0xa
ARM GAS  C:\Users\Rajesh\AppData\Local\Temp\ccFou9eL.s 			page 161


 7676 0074 16       		.uleb128 0x16
 7677 0075 00       		.byte	0
 7678 0076 03       		.uleb128 0x3
 7679 0077 0E       		.uleb128 0xe
 7680 0078 3A       		.uleb128 0x3a
 7681 0079 0B       		.uleb128 0xb
 7682 007a 3B       		.uleb128 0x3b
 7683 007b 05       		.uleb128 0x5
 7684 007c 49       		.uleb128 0x49
 7685 007d 13       		.uleb128 0x13
 7686 007e 00       		.byte	0
 7687 007f 00       		.byte	0
 7688 0080 0B       		.uleb128 0xb
 7689 0081 13       		.uleb128 0x13
 7690 0082 01       		.byte	0x1
 7691 0083 0B       		.uleb128 0xb
 7692 0084 0B       		.uleb128 0xb
 7693 0085 3A       		.uleb128 0x3a
 7694 0086 0B       		.uleb128 0xb
 7695 0087 3B       		.uleb128 0x3b
 7696 0088 05       		.uleb128 0x5
 7697 0089 01       		.uleb128 0x1
 7698 008a 13       		.uleb128 0x13
 7699 008b 00       		.byte	0
 7700 008c 00       		.byte	0
 7701 008d 0C       		.uleb128 0xc
 7702 008e 13       		.uleb128 0x13
 7703 008f 01       		.byte	0x1
 7704 0090 0B       		.uleb128 0xb
 7705 0091 05       		.uleb128 0x5
 7706 0092 3A       		.uleb128 0x3a
 7707 0093 0B       		.uleb128 0xb
 7708 0094 3B       		.uleb128 0x3b
 7709 0095 05       		.uleb128 0x5
 7710 0096 01       		.uleb128 0x1
 7711 0097 13       		.uleb128 0x13
 7712 0098 00       		.byte	0
 7713 0099 00       		.byte	0
 7714 009a 0D       		.uleb128 0xd
 7715 009b 0D       		.uleb128 0xd
 7716 009c 00       		.byte	0
 7717 009d 03       		.uleb128 0x3
 7718 009e 0E       		.uleb128 0xe
 7719 009f 3A       		.uleb128 0x3a
 7720 00a0 0B       		.uleb128 0xb
 7721 00a1 3B       		.uleb128 0x3b
 7722 00a2 05       		.uleb128 0x5
 7723 00a3 49       		.uleb128 0x49
 7724 00a4 13       		.uleb128 0x13
 7725 00a5 38       		.uleb128 0x38
 7726 00a6 05       		.uleb128 0x5
 7727 00a7 00       		.byte	0
 7728 00a8 00       		.byte	0
 7729 00a9 0E       		.uleb128 0xe
 7730 00aa 0F       		.uleb128 0xf
 7731 00ab 00       		.byte	0
 7732 00ac 0B       		.uleb128 0xb
ARM GAS  C:\Users\Rajesh\AppData\Local\Temp\ccFou9eL.s 			page 162


 7733 00ad 0B       		.uleb128 0xb
 7734 00ae 49       		.uleb128 0x49
 7735 00af 13       		.uleb128 0x13
 7736 00b0 00       		.byte	0
 7737 00b1 00       		.byte	0
 7738 00b2 0F       		.uleb128 0xf
 7739 00b3 13       		.uleb128 0x13
 7740 00b4 01       		.byte	0x1
 7741 00b5 0B       		.uleb128 0xb
 7742 00b6 05       		.uleb128 0x5
 7743 00b7 3A       		.uleb128 0x3a
 7744 00b8 0B       		.uleb128 0xb
 7745 00b9 3B       		.uleb128 0x3b
 7746 00ba 0B       		.uleb128 0xb
 7747 00bb 01       		.uleb128 0x1
 7748 00bc 13       		.uleb128 0x13
 7749 00bd 00       		.byte	0
 7750 00be 00       		.byte	0
 7751 00bf 10       		.uleb128 0x10
 7752 00c0 0D       		.uleb128 0xd
 7753 00c1 00       		.byte	0
 7754 00c2 03       		.uleb128 0x3
 7755 00c3 0E       		.uleb128 0xe
 7756 00c4 3A       		.uleb128 0x3a
 7757 00c5 0B       		.uleb128 0xb
 7758 00c6 3B       		.uleb128 0x3b
 7759 00c7 0B       		.uleb128 0xb
 7760 00c8 49       		.uleb128 0x49
 7761 00c9 13       		.uleb128 0x13
 7762 00ca 38       		.uleb128 0x38
 7763 00cb 05       		.uleb128 0x5
 7764 00cc 00       		.byte	0
 7765 00cd 00       		.byte	0
 7766 00ce 11       		.uleb128 0x11
 7767 00cf 2E       		.uleb128 0x2e
 7768 00d0 01       		.byte	0x1
 7769 00d1 3F       		.uleb128 0x3f
 7770 00d2 19       		.uleb128 0x19
 7771 00d3 03       		.uleb128 0x3
 7772 00d4 0E       		.uleb128 0xe
 7773 00d5 3A       		.uleb128 0x3a
 7774 00d6 0B       		.uleb128 0xb
 7775 00d7 3B       		.uleb128 0x3b
 7776 00d8 0B       		.uleb128 0xb
 7777 00d9 27       		.uleb128 0x27
 7778 00da 19       		.uleb128 0x19
 7779 00db 49       		.uleb128 0x49
 7780 00dc 13       		.uleb128 0x13
 7781 00dd 11       		.uleb128 0x11
 7782 00de 01       		.uleb128 0x1
 7783 00df 12       		.uleb128 0x12
 7784 00e0 06       		.uleb128 0x6
 7785 00e1 40       		.uleb128 0x40
 7786 00e2 18       		.uleb128 0x18
 7787 00e3 9642     		.uleb128 0x2116
 7788 00e5 19       		.uleb128 0x19
 7789 00e6 01       		.uleb128 0x1
ARM GAS  C:\Users\Rajesh\AppData\Local\Temp\ccFou9eL.s 			page 163


 7790 00e7 13       		.uleb128 0x13
 7791 00e8 00       		.byte	0
 7792 00e9 00       		.byte	0
 7793 00ea 12       		.uleb128 0x12
 7794 00eb 05       		.uleb128 0x5
 7795 00ec 00       		.byte	0
 7796 00ed 03       		.uleb128 0x3
 7797 00ee 08       		.uleb128 0x8
 7798 00ef 3A       		.uleb128 0x3a
 7799 00f0 0B       		.uleb128 0xb
 7800 00f1 3B       		.uleb128 0x3b
 7801 00f2 0B       		.uleb128 0xb
 7802 00f3 49       		.uleb128 0x49
 7803 00f4 13       		.uleb128 0x13
 7804 00f5 02       		.uleb128 0x2
 7805 00f6 17       		.uleb128 0x17
 7806 00f7 00       		.byte	0
 7807 00f8 00       		.byte	0
 7808 00f9 13       		.uleb128 0x13
 7809 00fa 05       		.uleb128 0x5
 7810 00fb 00       		.byte	0
 7811 00fc 03       		.uleb128 0x3
 7812 00fd 0E       		.uleb128 0xe
 7813 00fe 3A       		.uleb128 0x3a
 7814 00ff 0B       		.uleb128 0xb
 7815 0100 3B       		.uleb128 0x3b
 7816 0101 0B       		.uleb128 0xb
 7817 0102 49       		.uleb128 0x49
 7818 0103 13       		.uleb128 0x13
 7819 0104 02       		.uleb128 0x2
 7820 0105 17       		.uleb128 0x17
 7821 0106 00       		.byte	0
 7822 0107 00       		.byte	0
 7823 0108 14       		.uleb128 0x14
 7824 0109 34       		.uleb128 0x34
 7825 010a 00       		.byte	0
 7826 010b 03       		.uleb128 0x3
 7827 010c 0E       		.uleb128 0xe
 7828 010d 3A       		.uleb128 0x3a
 7829 010e 0B       		.uleb128 0xb
 7830 010f 3B       		.uleb128 0x3b
 7831 0110 0B       		.uleb128 0xb
 7832 0111 49       		.uleb128 0x49
 7833 0112 13       		.uleb128 0x13
 7834 0113 02       		.uleb128 0x2
 7835 0114 17       		.uleb128 0x17
 7836 0115 00       		.byte	0
 7837 0116 00       		.byte	0
 7838 0117 15       		.uleb128 0x15
 7839 0118 34       		.uleb128 0x34
 7840 0119 00       		.byte	0
 7841 011a 03       		.uleb128 0x3
 7842 011b 0E       		.uleb128 0xe
 7843 011c 3A       		.uleb128 0x3a
 7844 011d 0B       		.uleb128 0xb
 7845 011e 3B       		.uleb128 0x3b
 7846 011f 0B       		.uleb128 0xb
ARM GAS  C:\Users\Rajesh\AppData\Local\Temp\ccFou9eL.s 			page 164


 7847 0120 49       		.uleb128 0x49
 7848 0121 13       		.uleb128 0x13
 7849 0122 02       		.uleb128 0x2
 7850 0123 18       		.uleb128 0x18
 7851 0124 00       		.byte	0
 7852 0125 00       		.byte	0
 7853 0126 16       		.uleb128 0x16
 7854 0127 898201   		.uleb128 0x4109
 7855 012a 01       		.byte	0x1
 7856 012b 11       		.uleb128 0x11
 7857 012c 01       		.uleb128 0x1
 7858 012d 31       		.uleb128 0x31
 7859 012e 13       		.uleb128 0x13
 7860 012f 01       		.uleb128 0x1
 7861 0130 13       		.uleb128 0x13
 7862 0131 00       		.byte	0
 7863 0132 00       		.byte	0
 7864 0133 17       		.uleb128 0x17
 7865 0134 8A8201   		.uleb128 0x410a
 7866 0137 00       		.byte	0
 7867 0138 02       		.uleb128 0x2
 7868 0139 18       		.uleb128 0x18
 7869 013a 9142     		.uleb128 0x2111
 7870 013c 18       		.uleb128 0x18
 7871 013d 00       		.byte	0
 7872 013e 00       		.byte	0
 7873 013f 18       		.uleb128 0x18
 7874 0140 898201   		.uleb128 0x4109
 7875 0143 01       		.byte	0x1
 7876 0144 11       		.uleb128 0x11
 7877 0145 01       		.uleb128 0x1
 7878 0146 31       		.uleb128 0x31
 7879 0147 13       		.uleb128 0x13
 7880 0148 00       		.byte	0
 7881 0149 00       		.byte	0
 7882 014a 19       		.uleb128 0x19
 7883 014b 2E       		.uleb128 0x2e
 7884 014c 01       		.byte	0x1
 7885 014d 3F       		.uleb128 0x3f
 7886 014e 19       		.uleb128 0x19
 7887 014f 03       		.uleb128 0x3
 7888 0150 0E       		.uleb128 0xe
 7889 0151 3A       		.uleb128 0x3a
 7890 0152 0B       		.uleb128 0xb
 7891 0153 3B       		.uleb128 0x3b
 7892 0154 05       		.uleb128 0x5
 7893 0155 27       		.uleb128 0x27
 7894 0156 19       		.uleb128 0x19
 7895 0157 49       		.uleb128 0x49
 7896 0158 13       		.uleb128 0x13
 7897 0159 11       		.uleb128 0x11
 7898 015a 01       		.uleb128 0x1
 7899 015b 12       		.uleb128 0x12
 7900 015c 06       		.uleb128 0x6
 7901 015d 40       		.uleb128 0x40
 7902 015e 18       		.uleb128 0x18
 7903 015f 9642     		.uleb128 0x2116
ARM GAS  C:\Users\Rajesh\AppData\Local\Temp\ccFou9eL.s 			page 165


 7904 0161 19       		.uleb128 0x19
 7905 0162 01       		.uleb128 0x1
 7906 0163 13       		.uleb128 0x13
 7907 0164 00       		.byte	0
 7908 0165 00       		.byte	0
 7909 0166 1A       		.uleb128 0x1a
 7910 0167 05       		.uleb128 0x5
 7911 0168 00       		.byte	0
 7912 0169 03       		.uleb128 0x3
 7913 016a 08       		.uleb128 0x8
 7914 016b 3A       		.uleb128 0x3a
 7915 016c 0B       		.uleb128 0xb
 7916 016d 3B       		.uleb128 0x3b
 7917 016e 05       		.uleb128 0x5
 7918 016f 49       		.uleb128 0x49
 7919 0170 13       		.uleb128 0x13
 7920 0171 02       		.uleb128 0x2
 7921 0172 17       		.uleb128 0x17
 7922 0173 00       		.byte	0
 7923 0174 00       		.byte	0
 7924 0175 1B       		.uleb128 0x1b
 7925 0176 05       		.uleb128 0x5
 7926 0177 00       		.byte	0
 7927 0178 03       		.uleb128 0x3
 7928 0179 0E       		.uleb128 0xe
 7929 017a 3A       		.uleb128 0x3a
 7930 017b 0B       		.uleb128 0xb
 7931 017c 3B       		.uleb128 0x3b
 7932 017d 05       		.uleb128 0x5
 7933 017e 49       		.uleb128 0x49
 7934 017f 13       		.uleb128 0x13
 7935 0180 02       		.uleb128 0x2
 7936 0181 17       		.uleb128 0x17
 7937 0182 00       		.byte	0
 7938 0183 00       		.byte	0
 7939 0184 1C       		.uleb128 0x1c
 7940 0185 34       		.uleb128 0x34
 7941 0186 00       		.byte	0
 7942 0187 03       		.uleb128 0x3
 7943 0188 0E       		.uleb128 0xe
 7944 0189 3A       		.uleb128 0x3a
 7945 018a 0B       		.uleb128 0xb
 7946 018b 3B       		.uleb128 0x3b
 7947 018c 05       		.uleb128 0x5
 7948 018d 49       		.uleb128 0x49
 7949 018e 13       		.uleb128 0x13
 7950 018f 02       		.uleb128 0x2
 7951 0190 17       		.uleb128 0x17
 7952 0191 00       		.byte	0
 7953 0192 00       		.byte	0
 7954 0193 1D       		.uleb128 0x1d
 7955 0194 34       		.uleb128 0x34
 7956 0195 00       		.byte	0
 7957 0196 03       		.uleb128 0x3
 7958 0197 0E       		.uleb128 0xe
 7959 0198 3A       		.uleb128 0x3a
 7960 0199 0B       		.uleb128 0xb
ARM GAS  C:\Users\Rajesh\AppData\Local\Temp\ccFou9eL.s 			page 166


 7961 019a 3B       		.uleb128 0x3b
 7962 019b 05       		.uleb128 0x5
 7963 019c 49       		.uleb128 0x49
 7964 019d 13       		.uleb128 0x13
 7965 019e 1C       		.uleb128 0x1c
 7966 019f 06       		.uleb128 0x6
 7967 01a0 00       		.byte	0
 7968 01a1 00       		.byte	0
 7969 01a2 1E       		.uleb128 0x1e
 7970 01a3 34       		.uleb128 0x34
 7971 01a4 00       		.byte	0
 7972 01a5 03       		.uleb128 0x3
 7973 01a6 0E       		.uleb128 0xe
 7974 01a7 3A       		.uleb128 0x3a
 7975 01a8 0B       		.uleb128 0xb
 7976 01a9 3B       		.uleb128 0x3b
 7977 01aa 05       		.uleb128 0x5
 7978 01ab 49       		.uleb128 0x49
 7979 01ac 13       		.uleb128 0x13
 7980 01ad 1C       		.uleb128 0x1c
 7981 01ae 0D       		.uleb128 0xd
 7982 01af 00       		.byte	0
 7983 01b0 00       		.byte	0
 7984 01b1 1F       		.uleb128 0x1f
 7985 01b2 34       		.uleb128 0x34
 7986 01b3 00       		.byte	0
 7987 01b4 03       		.uleb128 0x3
 7988 01b5 0E       		.uleb128 0xe
 7989 01b6 3A       		.uleb128 0x3a
 7990 01b7 0B       		.uleb128 0xb
 7991 01b8 3B       		.uleb128 0x3b
 7992 01b9 05       		.uleb128 0x5
 7993 01ba 49       		.uleb128 0x49
 7994 01bb 13       		.uleb128 0x13
 7995 01bc 1C       		.uleb128 0x1c
 7996 01bd 05       		.uleb128 0x5
 7997 01be 00       		.byte	0
 7998 01bf 00       		.byte	0
 7999 01c0 20       		.uleb128 0x20
 8000 01c1 2E       		.uleb128 0x2e
 8001 01c2 01       		.byte	0x1
 8002 01c3 3F       		.uleb128 0x3f
 8003 01c4 19       		.uleb128 0x19
 8004 01c5 03       		.uleb128 0x3
 8005 01c6 0E       		.uleb128 0xe
 8006 01c7 3A       		.uleb128 0x3a
 8007 01c8 0B       		.uleb128 0xb
 8008 01c9 3B       		.uleb128 0x3b
 8009 01ca 05       		.uleb128 0x5
 8010 01cb 27       		.uleb128 0x27
 8011 01cc 19       		.uleb128 0x19
 8012 01cd 49       		.uleb128 0x49
 8013 01ce 13       		.uleb128 0x13
 8014 01cf 11       		.uleb128 0x11
 8015 01d0 01       		.uleb128 0x1
 8016 01d1 12       		.uleb128 0x12
 8017 01d2 06       		.uleb128 0x6
ARM GAS  C:\Users\Rajesh\AppData\Local\Temp\ccFou9eL.s 			page 167


 8018 01d3 40       		.uleb128 0x40
 8019 01d4 18       		.uleb128 0x18
 8020 01d5 9742     		.uleb128 0x2117
 8021 01d7 19       		.uleb128 0x19
 8022 01d8 01       		.uleb128 0x1
 8023 01d9 13       		.uleb128 0x13
 8024 01da 00       		.byte	0
 8025 01db 00       		.byte	0
 8026 01dc 21       		.uleb128 0x21
 8027 01dd 34       		.uleb128 0x34
 8028 01de 00       		.byte	0
 8029 01df 03       		.uleb128 0x3
 8030 01e0 0E       		.uleb128 0xe
 8031 01e1 3A       		.uleb128 0x3a
 8032 01e2 0B       		.uleb128 0xb
 8033 01e3 3B       		.uleb128 0x3b
 8034 01e4 05       		.uleb128 0x5
 8035 01e5 49       		.uleb128 0x49
 8036 01e6 13       		.uleb128 0x13
 8037 01e7 02       		.uleb128 0x2
 8038 01e8 18       		.uleb128 0x18
 8039 01e9 00       		.byte	0
 8040 01ea 00       		.byte	0
 8041 01eb 22       		.uleb128 0x22
 8042 01ec 2E       		.uleb128 0x2e
 8043 01ed 01       		.byte	0x1
 8044 01ee 3F       		.uleb128 0x3f
 8045 01ef 19       		.uleb128 0x19
 8046 01f0 03       		.uleb128 0x3
 8047 01f1 0E       		.uleb128 0xe
 8048 01f2 3A       		.uleb128 0x3a
 8049 01f3 0B       		.uleb128 0xb
 8050 01f4 3B       		.uleb128 0x3b
 8051 01f5 05       		.uleb128 0x5
 8052 01f6 27       		.uleb128 0x27
 8053 01f7 19       		.uleb128 0x19
 8054 01f8 11       		.uleb128 0x11
 8055 01f9 01       		.uleb128 0x1
 8056 01fa 12       		.uleb128 0x12
 8057 01fb 06       		.uleb128 0x6
 8058 01fc 40       		.uleb128 0x40
 8059 01fd 18       		.uleb128 0x18
 8060 01fe 9742     		.uleb128 0x2117
 8061 0200 19       		.uleb128 0x19
 8062 0201 01       		.uleb128 0x1
 8063 0202 13       		.uleb128 0x13
 8064 0203 00       		.byte	0
 8065 0204 00       		.byte	0
 8066 0205 23       		.uleb128 0x23
 8067 0206 05       		.uleb128 0x5
 8068 0207 00       		.byte	0
 8069 0208 03       		.uleb128 0x3
 8070 0209 0E       		.uleb128 0xe
 8071 020a 3A       		.uleb128 0x3a
 8072 020b 0B       		.uleb128 0xb
 8073 020c 3B       		.uleb128 0x3b
 8074 020d 05       		.uleb128 0x5
ARM GAS  C:\Users\Rajesh\AppData\Local\Temp\ccFou9eL.s 			page 168


 8075 020e 49       		.uleb128 0x49
 8076 020f 13       		.uleb128 0x13
 8077 0210 02       		.uleb128 0x2
 8078 0211 18       		.uleb128 0x18
 8079 0212 00       		.byte	0
 8080 0213 00       		.byte	0
 8081 0214 24       		.uleb128 0x24
 8082 0215 34       		.uleb128 0x34
 8083 0216 00       		.byte	0
 8084 0217 03       		.uleb128 0x3
 8085 0218 0E       		.uleb128 0xe
 8086 0219 3A       		.uleb128 0x3a
 8087 021a 0B       		.uleb128 0xb
 8088 021b 3B       		.uleb128 0x3b
 8089 021c 05       		.uleb128 0x5
 8090 021d 49       		.uleb128 0x49
 8091 021e 13       		.uleb128 0x13
 8092 021f 1C       		.uleb128 0x1c
 8093 0220 0B       		.uleb128 0xb
 8094 0221 00       		.byte	0
 8095 0222 00       		.byte	0
 8096 0223 25       		.uleb128 0x25
 8097 0224 34       		.uleb128 0x34
 8098 0225 00       		.byte	0
 8099 0226 03       		.uleb128 0x3
 8100 0227 08       		.uleb128 0x8
 8101 0228 3A       		.uleb128 0x3a
 8102 0229 0B       		.uleb128 0xb
 8103 022a 3B       		.uleb128 0x3b
 8104 022b 05       		.uleb128 0x5
 8105 022c 49       		.uleb128 0x49
 8106 022d 13       		.uleb128 0x13
 8107 022e 02       		.uleb128 0x2
 8108 022f 17       		.uleb128 0x17
 8109 0230 00       		.byte	0
 8110 0231 00       		.byte	0
 8111 0232 26       		.uleb128 0x26
 8112 0233 26       		.uleb128 0x26
 8113 0234 00       		.byte	0
 8114 0235 49       		.uleb128 0x49
 8115 0236 13       		.uleb128 0x13
 8116 0237 00       		.byte	0
 8117 0238 00       		.byte	0
 8118 0239 27       		.uleb128 0x27
 8119 023a 34       		.uleb128 0x34
 8120 023b 00       		.byte	0
 8121 023c 03       		.uleb128 0x3
 8122 023d 0E       		.uleb128 0xe
 8123 023e 3A       		.uleb128 0x3a
 8124 023f 0B       		.uleb128 0xb
 8125 0240 3B       		.uleb128 0x3b
 8126 0241 0B       		.uleb128 0xb
 8127 0242 49       		.uleb128 0x49
 8128 0243 13       		.uleb128 0x13
 8129 0244 3F       		.uleb128 0x3f
 8130 0245 19       		.uleb128 0x19
 8131 0246 02       		.uleb128 0x2
ARM GAS  C:\Users\Rajesh\AppData\Local\Temp\ccFou9eL.s 			page 169


 8132 0247 18       		.uleb128 0x18
 8133 0248 00       		.byte	0
 8134 0249 00       		.byte	0
 8135 024a 28       		.uleb128 0x28
 8136 024b 2E       		.uleb128 0x2e
 8137 024c 00       		.byte	0
 8138 024d 3F       		.uleb128 0x3f
 8139 024e 19       		.uleb128 0x19
 8140 024f 3C       		.uleb128 0x3c
 8141 0250 19       		.uleb128 0x19
 8142 0251 6E       		.uleb128 0x6e
 8143 0252 0E       		.uleb128 0xe
 8144 0253 03       		.uleb128 0x3
 8145 0254 0E       		.uleb128 0xe
 8146 0255 3A       		.uleb128 0x3a
 8147 0256 0B       		.uleb128 0xb
 8148 0257 3B       		.uleb128 0x3b
 8149 0258 05       		.uleb128 0x5
 8150 0259 00       		.byte	0
 8151 025a 00       		.byte	0
 8152 025b 29       		.uleb128 0x29
 8153 025c 2E       		.uleb128 0x2e
 8154 025d 00       		.byte	0
 8155 025e 3F       		.uleb128 0x3f
 8156 025f 19       		.uleb128 0x19
 8157 0260 3C       		.uleb128 0x3c
 8158 0261 19       		.uleb128 0x19
 8159 0262 6E       		.uleb128 0x6e
 8160 0263 0E       		.uleb128 0xe
 8161 0264 03       		.uleb128 0x3
 8162 0265 0E       		.uleb128 0xe
 8163 0266 3A       		.uleb128 0x3a
 8164 0267 0B       		.uleb128 0xb
 8165 0268 3B       		.uleb128 0x3b
 8166 0269 0B       		.uleb128 0xb
 8167 026a 00       		.byte	0
 8168 026b 00       		.byte	0
 8169 026c 2A       		.uleb128 0x2a
 8170 026d 2E       		.uleb128 0x2e
 8171 026e 00       		.byte	0
 8172 026f 3F       		.uleb128 0x3f
 8173 0270 19       		.uleb128 0x19
 8174 0271 3C       		.uleb128 0x3c
 8175 0272 19       		.uleb128 0x19
 8176 0273 6E       		.uleb128 0x6e
 8177 0274 0E       		.uleb128 0xe
 8178 0275 03       		.uleb128 0x3
 8179 0276 0E       		.uleb128 0xe
 8180 0277 00       		.byte	0
 8181 0278 00       		.byte	0
 8182 0279 00       		.byte	0
 8183              		.section	.debug_loc,"",%progbits
 8184              	.Ldebug_loc0:
 8185              	.LLST0:
 8186 0000 00000000 		.4byte	.LVL0
 8187 0004 28000000 		.4byte	.LVL4
 8188 0008 0100     		.2byte	0x1
ARM GAS  C:\Users\Rajesh\AppData\Local\Temp\ccFou9eL.s 			page 170


 8189 000a 50       		.byte	0x50
 8190 000b 28000000 		.4byte	.LVL4
 8191 000f 28010000 		.4byte	.LVL53
 8192 0013 0200     		.2byte	0x2
 8193 0015 7D       		.byte	0x7d
 8194 0016 00       		.sleb128 0
 8195 0017 28010000 		.4byte	.LVL53
 8196 001b 34010000 		.4byte	.LFE1
 8197 001f 0300     		.2byte	0x3
 8198 0021 91       		.byte	0x91
 8199 0022 B07F     		.sleb128 -80
 8200 0024 00000000 		.4byte	0
 8201 0028 00000000 		.4byte	0
 8202              	.LLST1:
 8203 002c 00000000 		.4byte	.LVL0
 8204 0030 26000000 		.4byte	.LVL3
 8205 0034 0100     		.2byte	0x1
 8206 0036 51       		.byte	0x51
 8207 0037 26000000 		.4byte	.LVL3
 8208 003b DC000000 		.4byte	.LVL35
 8209 003f 0100     		.2byte	0x1
 8210 0041 58       		.byte	0x58
 8211 0042 DC000000 		.4byte	.LVL35
 8212 0046 FA000000 		.4byte	.LVL42
 8213 004a 0400     		.2byte	0x4
 8214 004c F3       		.byte	0xf3
 8215 004d 01       		.uleb128 0x1
 8216 004e 51       		.byte	0x51
 8217 004f 9F       		.byte	0x9f
 8218 0050 FA000000 		.4byte	.LVL42
 8219 0054 04010000 		.4byte	.LVL47
 8220 0058 0100     		.2byte	0x1
 8221 005a 58       		.byte	0x58
 8222 005b 04010000 		.4byte	.LVL47
 8223 005f 34010000 		.4byte	.LFE1
 8224 0063 0400     		.2byte	0x4
 8225 0065 F3       		.byte	0xf3
 8226 0066 01       		.uleb128 0x1
 8227 0067 51       		.byte	0x51
 8228 0068 9F       		.byte	0x9f
 8229 0069 00000000 		.4byte	0
 8230 006d 00000000 		.4byte	0
 8231              	.LLST2:
 8232 0071 00000000 		.4byte	.LVL0
 8233 0075 2B000000 		.4byte	.LVL5-1
 8234 0079 0100     		.2byte	0x1
 8235 007b 52       		.byte	0x52
 8236 007c 2B000000 		.4byte	.LVL5-1
 8237 0080 0C010000 		.4byte	.LVL48
 8238 0084 0100     		.2byte	0x1
 8239 0086 5A       		.byte	0x5a
 8240 0087 0C010000 		.4byte	.LVL48
 8241 008b 13010000 		.4byte	.LVL49-1
 8242 008f 0100     		.2byte	0x1
 8243 0091 53       		.byte	0x53
 8244 0092 13010000 		.4byte	.LVL49-1
 8245 0096 28010000 		.4byte	.LVL57
ARM GAS  C:\Users\Rajesh\AppData\Local\Temp\ccFou9eL.s 			page 171


 8246 009a 0100     		.2byte	0x1
 8247 009c 5A       		.byte	0x5a
 8248 009d 28010000 		.4byte	.LVL57
 8249 00a1 34010000 		.4byte	.LFE1
 8250 00a5 0400     		.2byte	0x4
 8251 00a7 F3       		.byte	0xf3
 8252 00a8 01       		.uleb128 0x1
 8253 00a9 52       		.byte	0x52
 8254 00aa 9F       		.byte	0x9f
 8255 00ab 00000000 		.4byte	0
 8256 00af 00000000 		.4byte	0
 8257              	.LLST3:
 8258 00b3 14000000 		.4byte	.LVL1
 8259 00b7 20000000 		.4byte	.LVL2
 8260 00bb 0200     		.2byte	0x2
 8261 00bd 30       		.byte	0x30
 8262 00be 9F       		.byte	0x9f
 8263 00bf 20000000 		.4byte	.LVL2
 8264 00c3 58000000 		.4byte	.LVL11
 8265 00c7 0100     		.2byte	0x1
 8266 00c9 54       		.byte	0x54
 8267 00ca 58000000 		.4byte	.LVL11
 8268 00ce 66000000 		.4byte	.LVL12
 8269 00d2 0100     		.2byte	0x1
 8270 00d4 50       		.byte	0x50
 8271 00d5 66000000 		.4byte	.LVL12
 8272 00d9 98000000 		.4byte	.LVL22
 8273 00dd 0100     		.2byte	0x1
 8274 00df 54       		.byte	0x54
 8275 00e0 9A000000 		.4byte	.LVL23
 8276 00e4 28010000 		.4byte	.LVL54
 8277 00e8 0100     		.2byte	0x1
 8278 00ea 54       		.byte	0x54
 8279 00eb 00000000 		.4byte	0
 8280 00ef 00000000 		.4byte	0
 8281              	.LLST4:
 8282 00f3 14000000 		.4byte	.LVL1
 8283 00f7 4E000000 		.4byte	.LVL9
 8284 00fb 0200     		.2byte	0x2
 8285 00fd 30       		.byte	0x30
 8286 00fe 9F       		.byte	0x9f
 8287 00ff 4E000000 		.4byte	.LVL9
 8288 0103 82000000 		.4byte	.LVL19
 8289 0107 0100     		.2byte	0x1
 8290 0109 59       		.byte	0x59
 8291 010a 82000000 		.4byte	.LVL19
 8292 010e 8E000000 		.4byte	.LVL20
 8293 0112 0200     		.2byte	0x2
 8294 0114 30       		.byte	0x30
 8295 0115 9F       		.byte	0x9f
 8296 0116 8E000000 		.4byte	.LVL20
 8297 011a 28010000 		.4byte	.LVL56
 8298 011e 0100     		.2byte	0x1
 8299 0120 59       		.byte	0x59
 8300 0121 00000000 		.4byte	0
 8301 0125 00000000 		.4byte	0
 8302              	.LLST5:
ARM GAS  C:\Users\Rajesh\AppData\Local\Temp\ccFou9eL.s 			page 172


 8303 0129 14000000 		.4byte	.LVL1
 8304 012d 4E000000 		.4byte	.LVL9
 8305 0131 0200     		.2byte	0x2
 8306 0133 30       		.byte	0x30
 8307 0134 9F       		.byte	0x9f
 8308 0135 4E000000 		.4byte	.LVL9
 8309 0139 82000000 		.4byte	.LVL19
 8310 013d 0100     		.2byte	0x1
 8311 013f 57       		.byte	0x57
 8312 0140 82000000 		.4byte	.LVL19
 8313 0144 8E000000 		.4byte	.LVL20
 8314 0148 0200     		.2byte	0x2
 8315 014a 30       		.byte	0x30
 8316 014b 9F       		.byte	0x9f
 8317 014c 8E000000 		.4byte	.LVL20
 8318 0150 28010000 		.4byte	.LVL55
 8319 0154 0100     		.2byte	0x1
 8320 0156 57       		.byte	0x57
 8321 0157 00000000 		.4byte	0
 8322 015b 00000000 		.4byte	0
 8323              	.LLST6:
 8324 015f 14000000 		.4byte	.LVL1
 8325 0163 4E000000 		.4byte	.LVL9
 8326 0167 0200     		.2byte	0x2
 8327 0169 30       		.byte	0x30
 8328 016a 9F       		.byte	0x9f
 8329 016b 4E000000 		.4byte	.LVL9
 8330 016f 82000000 		.4byte	.LVL19
 8331 0173 0100     		.2byte	0x1
 8332 0175 5B       		.byte	0x5b
 8333 0176 82000000 		.4byte	.LVL19
 8334 017a 8E000000 		.4byte	.LVL20
 8335 017e 0200     		.2byte	0x2
 8336 0180 30       		.byte	0x30
 8337 0181 9F       		.byte	0x9f
 8338 0182 8E000000 		.4byte	.LVL20
 8339 0186 28010000 		.4byte	.LVL58
 8340 018a 0100     		.2byte	0x1
 8341 018c 5B       		.byte	0x5b
 8342 018d 00000000 		.4byte	0
 8343 0191 00000000 		.4byte	0
 8344              	.LLST7:
 8345 0195 14000000 		.4byte	.LVL1
 8346 0199 4E000000 		.4byte	.LVL9
 8347 019d 0200     		.2byte	0x2
 8348 019f 30       		.byte	0x30
 8349 01a0 9F       		.byte	0x9f
 8350 01a1 4E000000 		.4byte	.LVL9
 8351 01a5 82000000 		.4byte	.LVL19
 8352 01a9 0100     		.2byte	0x1
 8353 01ab 56       		.byte	0x56
 8354 01ac 82000000 		.4byte	.LVL19
 8355 01b0 8E000000 		.4byte	.LVL20
 8356 01b4 0200     		.2byte	0x2
 8357 01b6 30       		.byte	0x30
 8358 01b7 9F       		.byte	0x9f
 8359 01b8 8E000000 		.4byte	.LVL20
ARM GAS  C:\Users\Rajesh\AppData\Local\Temp\ccFou9eL.s 			page 173


 8360 01bc C8000000 		.4byte	.LVL32
 8361 01c0 0100     		.2byte	0x1
 8362 01c2 56       		.byte	0x56
 8363 01c3 00000000 		.4byte	0
 8364 01c7 00000000 		.4byte	0
 8365              	.LLST8:
 8366 01cb 14000000 		.4byte	.LVL1
 8367 01cf 4E000000 		.4byte	.LVL9
 8368 01d3 0200     		.2byte	0x2
 8369 01d5 30       		.byte	0x30
 8370 01d6 9F       		.byte	0x9f
 8371 01d7 4E000000 		.4byte	.LVL9
 8372 01db 7E000000 		.4byte	.LVL17
 8373 01df 0100     		.2byte	0x1
 8374 01e1 55       		.byte	0x55
 8375 01e2 80000000 		.4byte	.LVL18
 8376 01e6 82000000 		.4byte	.LVL19
 8377 01ea 0100     		.2byte	0x1
 8378 01ec 55       		.byte	0x55
 8379 01ed 82000000 		.4byte	.LVL19
 8380 01f1 8E000000 		.4byte	.LVL20
 8381 01f5 0200     		.2byte	0x2
 8382 01f7 30       		.byte	0x30
 8383 01f8 9F       		.byte	0x9f
 8384 01f9 8E000000 		.4byte	.LVL20
 8385 01fd 9A000000 		.4byte	.LVL23
 8386 0201 0100     		.2byte	0x1
 8387 0203 55       		.byte	0x55
 8388 0204 00000000 		.4byte	0
 8389 0208 00000000 		.4byte	0
 8390              	.LLST9:
 8391 020c A8000000 		.4byte	.LVL25
 8392 0210 AC000000 		.4byte	.LVL26
 8393 0214 0100     		.2byte	0x1
 8394 0216 50       		.byte	0x50
 8395 0217 AC000000 		.4byte	.LVL26
 8396 021b 24010000 		.4byte	.LVL52
 8397 021f 0300     		.2byte	0x3
 8398 0221 91       		.byte	0x91
 8399 0222 B47F     		.sleb128 -76
 8400 0224 00000000 		.4byte	0
 8401 0228 00000000 		.4byte	0
 8402              	.LLST10:
 8403 022c B4000000 		.4byte	.LVL28
 8404 0230 B6000000 		.4byte	.LVL29
 8405 0234 0100     		.2byte	0x1
 8406 0236 50       		.byte	0x50
 8407 0237 B6000000 		.4byte	.LVL29
 8408 023b EC000000 		.4byte	.LVL38
 8409 023f 0100     		.2byte	0x1
 8410 0241 55       		.byte	0x55
 8411 0242 FA000000 		.4byte	.LVL42
 8412 0246 FC000000 		.4byte	.LVL43
 8413 024a 0100     		.2byte	0x1
 8414 024c 55       		.byte	0x55
 8415 024d FE000000 		.4byte	.LVL44
 8416 0251 00010000 		.4byte	.LVL45
ARM GAS  C:\Users\Rajesh\AppData\Local\Temp\ccFou9eL.s 			page 174


 8417 0255 0100     		.2byte	0x1
 8418 0257 55       		.byte	0x55
 8419 0258 02010000 		.4byte	.LVL46
 8420 025c 04010000 		.4byte	.LVL47
 8421 0260 0100     		.2byte	0x1
 8422 0262 55       		.byte	0x55
 8423 0263 00000000 		.4byte	0
 8424 0267 00000000 		.4byte	0
 8425              	.LLST11:
 8426 026b BC000000 		.4byte	.LVL30
 8427 026f D6000000 		.4byte	.LVL33
 8428 0273 0100     		.2byte	0x1
 8429 0275 50       		.byte	0x50
 8430 0276 FA000000 		.4byte	.LVL42
 8431 027a 04010000 		.4byte	.LVL47
 8432 027e 0100     		.2byte	0x1
 8433 0280 50       		.byte	0x50
 8434 0281 00000000 		.4byte	0
 8435 0285 00000000 		.4byte	0
 8436              	.LLST12:
 8437 0289 DC000000 		.4byte	.LVL35
 8438 028d E0000000 		.4byte	.LVL36
 8439 0291 0100     		.2byte	0x1
 8440 0293 50       		.byte	0x50
 8441 0294 E0000000 		.4byte	.LVL36
 8442 0298 EE000000 		.4byte	.LVL39
 8443 029c 0100     		.2byte	0x1
 8444 029e 58       		.byte	0x58
 8445 029f EE000000 		.4byte	.LVL39
 8446 02a3 F6000000 		.4byte	.LVL40
 8447 02a7 0100     		.2byte	0x1
 8448 02a9 55       		.byte	0x55
 8449 02aa F6000000 		.4byte	.LVL40
 8450 02ae F8000000 		.4byte	.LVL41
 8451 02b2 0500     		.2byte	0x5
 8452 02b4 75       		.byte	0x75
 8453 02b5 80807E   		.sleb128 -32768
 8454 02b8 9F       		.byte	0x9f
 8455 02b9 F8000000 		.4byte	.LVL41
 8456 02bd FA000000 		.4byte	.LVL42
 8457 02c1 0600     		.2byte	0x6
 8458 02c3 70       		.byte	0x70
 8459 02c4 00       		.sleb128 0
 8460 02c5 78       		.byte	0x78
 8461 02c6 00       		.sleb128 0
 8462 02c7 1E       		.byte	0x1e
 8463 02c8 9F       		.byte	0x9f
 8464 02c9 00000000 		.4byte	0
 8465 02cd 00000000 		.4byte	0
 8466              	.LLST13:
 8467 02d1 C4000000 		.4byte	.LVL31
 8468 02d5 D9000000 		.4byte	.LVL34-1
 8469 02d9 0100     		.2byte	0x1
 8470 02db 51       		.byte	0x51
 8471 02dc FA000000 		.4byte	.LVL42
 8472 02e0 04010000 		.4byte	.LVL47
 8473 02e4 0100     		.2byte	0x1
ARM GAS  C:\Users\Rajesh\AppData\Local\Temp\ccFou9eL.s 			page 175


 8474 02e6 51       		.byte	0x51
 8475 02e7 00000000 		.4byte	0
 8476 02eb 00000000 		.4byte	0
 8477              	.LLST14:
 8478 02ef C8000000 		.4byte	.LVL32
 8479 02f3 24010000 		.4byte	.LVL52
 8480 02f7 0100     		.2byte	0x1
 8481 02f9 56       		.byte	0x56
 8482 02fa 00000000 		.4byte	0
 8483 02fe 00000000 		.4byte	0
 8484              	.LLST15:
 8485 0302 F8000000 		.4byte	.LVL41
 8486 0306 FA000000 		.4byte	.LVL42
 8487 030a 0100     		.2byte	0x1
 8488 030c 55       		.byte	0x55
 8489 030d 04010000 		.4byte	.LVL47
 8490 0311 24010000 		.4byte	.LVL52
 8491 0315 0100     		.2byte	0x1
 8492 0317 55       		.byte	0x55
 8493 0318 00000000 		.4byte	0
 8494 031c 00000000 		.4byte	0
 8495              	.LLST16:
 8496 0320 00000000 		.4byte	.LVL59
 8497 0324 24000000 		.4byte	.LVL63
 8498 0328 0100     		.2byte	0x1
 8499 032a 50       		.byte	0x50
 8500 032b 24000000 		.4byte	.LVL63
 8501 032f FA000000 		.4byte	.LFE2
 8502 0333 0300     		.2byte	0x3
 8503 0335 91       		.byte	0x91
 8504 0336 BC7F     		.sleb128 -68
 8505 0338 00000000 		.4byte	0
 8506 033c 00000000 		.4byte	0
 8507              	.LLST17:
 8508 0340 00000000 		.4byte	.LVL59
 8509 0344 22000000 		.4byte	.LVL62
 8510 0348 0100     		.2byte	0x1
 8511 034a 51       		.byte	0x51
 8512 034b 22000000 		.4byte	.LVL62
 8513 034f F2000000 		.4byte	.LVL99
 8514 0353 0100     		.2byte	0x1
 8515 0355 58       		.byte	0x58
 8516 0356 F2000000 		.4byte	.LVL99
 8517 035a FA000000 		.4byte	.LFE2
 8518 035e 0400     		.2byte	0x4
 8519 0360 F3       		.byte	0xf3
 8520 0361 01       		.uleb128 0x1
 8521 0362 51       		.byte	0x51
 8522 0363 9F       		.byte	0x9f
 8523 0364 00000000 		.4byte	0
 8524 0368 00000000 		.4byte	0
 8525              	.LLST18:
 8526 036c 00000000 		.4byte	.LVL59
 8527 0370 27000000 		.4byte	.LVL64-1
 8528 0374 0100     		.2byte	0x1
 8529 0376 52       		.byte	0x52
 8530 0377 27000000 		.4byte	.LVL64-1
ARM GAS  C:\Users\Rajesh\AppData\Local\Temp\ccFou9eL.s 			page 176


 8531 037b C4000000 		.4byte	.LVL89
 8532 037f 0100     		.2byte	0x1
 8533 0381 59       		.byte	0x59
 8534 0382 C4000000 		.4byte	.LVL89
 8535 0386 C6000000 		.4byte	.LVL90
 8536 038a 0100     		.2byte	0x1
 8537 038c 52       		.byte	0x52
 8538 038d C6000000 		.4byte	.LVL90
 8539 0391 F2000000 		.4byte	.LVL100
 8540 0395 0100     		.2byte	0x1
 8541 0397 59       		.byte	0x59
 8542 0398 F2000000 		.4byte	.LVL100
 8543 039c FA000000 		.4byte	.LFE2
 8544 03a0 0400     		.2byte	0x4
 8545 03a2 F3       		.byte	0xf3
 8546 03a3 01       		.uleb128 0x1
 8547 03a4 52       		.byte	0x52
 8548 03a5 9F       		.byte	0x9f
 8549 03a6 00000000 		.4byte	0
 8550 03aa 00000000 		.4byte	0
 8551              	.LLST19:
 8552 03ae 10000000 		.4byte	.LVL60
 8553 03b2 1C000000 		.4byte	.LVL61
 8554 03b6 0200     		.2byte	0x2
 8555 03b8 30       		.byte	0x30
 8556 03b9 9F       		.byte	0x9f
 8557 03ba 1C000000 		.4byte	.LVL61
 8558 03be 70000000 		.4byte	.LVL74
 8559 03c2 0100     		.2byte	0x1
 8560 03c4 54       		.byte	0x54
 8561 03c5 70000000 		.4byte	.LVL74
 8562 03c9 7E000000 		.4byte	.LVL75
 8563 03cd 0100     		.2byte	0x1
 8564 03cf 50       		.byte	0x50
 8565 03d0 7E000000 		.4byte	.LVL75
 8566 03d4 98000000 		.4byte	.LVL82
 8567 03d8 0100     		.2byte	0x1
 8568 03da 54       		.byte	0x54
 8569 03db 9A000000 		.4byte	.LVL83
 8570 03df F2000000 		.4byte	.LVL96
 8571 03e3 0100     		.2byte	0x1
 8572 03e5 54       		.byte	0x54
 8573 03e6 00000000 		.4byte	0
 8574 03ea 00000000 		.4byte	0
 8575              	.LLST20:
 8576 03ee 10000000 		.4byte	.LVL60
 8577 03f2 66000000 		.4byte	.LVL72
 8578 03f6 0200     		.2byte	0x2
 8579 03f8 30       		.byte	0x30
 8580 03f9 9F       		.byte	0x9f
 8581 03fa 66000000 		.4byte	.LVL72
 8582 03fe 88000000 		.4byte	.LVL79
 8583 0402 0100     		.2byte	0x1
 8584 0404 56       		.byte	0x56
 8585 0405 88000000 		.4byte	.LVL79
 8586 0409 8E000000 		.4byte	.LVL80
 8587 040d 0200     		.2byte	0x2
ARM GAS  C:\Users\Rajesh\AppData\Local\Temp\ccFou9eL.s 			page 177


 8588 040f 30       		.byte	0x30
 8589 0410 9F       		.byte	0x9f
 8590 0411 8E000000 		.4byte	.LVL80
 8591 0415 F2000000 		.4byte	.LVL97
 8592 0419 0100     		.2byte	0x1
 8593 041b 56       		.byte	0x56
 8594 041c 00000000 		.4byte	0
 8595 0420 00000000 		.4byte	0
 8596              	.LLST21:
 8597 0424 10000000 		.4byte	.LVL60
 8598 0428 66000000 		.4byte	.LVL72
 8599 042c 0200     		.2byte	0x2
 8600 042e 30       		.byte	0x30
 8601 042f 9F       		.byte	0x9f
 8602 0430 66000000 		.4byte	.LVL72
 8603 0434 88000000 		.4byte	.LVL79
 8604 0438 0100     		.2byte	0x1
 8605 043a 57       		.byte	0x57
 8606 043b 88000000 		.4byte	.LVL79
 8607 043f 8E000000 		.4byte	.LVL80
 8608 0443 0200     		.2byte	0x2
 8609 0445 30       		.byte	0x30
 8610 0446 9F       		.byte	0x9f
 8611 0447 8E000000 		.4byte	.LVL80
 8612 044b F2000000 		.4byte	.LVL98
 8613 044f 0100     		.2byte	0x1
 8614 0451 57       		.byte	0x57
 8615 0452 00000000 		.4byte	0
 8616 0456 00000000 		.4byte	0
 8617              	.LLST22:
 8618 045a A6000000 		.4byte	.LVL84
 8619 045e AE000000 		.4byte	.LVL85
 8620 0462 0100     		.2byte	0x1
 8621 0464 50       		.byte	0x50
 8622 0465 AE000000 		.4byte	.LVL85
 8623 0469 B0000000 		.4byte	.LVL86
 8624 046d 0500     		.2byte	0x5
 8625 046f 70       		.byte	0x70
 8626 0470 80807E   		.sleb128 -32768
 8627 0473 9F       		.byte	0x9f
 8628 0474 00000000 		.4byte	0
 8629 0478 00000000 		.4byte	0
 8630              	.LLST23:
 8631 047c B0000000 		.4byte	.LVL86
 8632 0480 CE000000 		.4byte	.LVL91
 8633 0484 0100     		.2byte	0x1
 8634 0486 50       		.byte	0x50
 8635 0487 00000000 		.4byte	0
 8636 048b 00000000 		.4byte	0
 8637              	.LLST24:
 8638 048f B4000000 		.4byte	.LVL87
 8639 0493 B6000000 		.4byte	.LVL88
 8640 0497 0100     		.2byte	0x1
 8641 0499 53       		.byte	0x53
 8642 049a B6000000 		.4byte	.LVL88
 8643 049e D1000000 		.4byte	.LVL92-1
 8644 04a2 0800     		.2byte	0x8
ARM GAS  C:\Users\Rajesh\AppData\Local\Temp\ccFou9eL.s 			page 178


 8645 04a4 7C       		.byte	0x7c
 8646 04a5 00       		.sleb128 0
 8647 04a6 78       		.byte	0x78
 8648 04a7 00       		.sleb128 0
 8649 04a8 22       		.byte	0x22
 8650 04a9 40       		.byte	0x40
 8651 04aa 25       		.byte	0x25
 8652 04ab 9F       		.byte	0x9f
 8653 04ac D1000000 		.4byte	.LVL92-1
 8654 04b0 D4000000 		.4byte	.LVL93
 8655 04b4 0700     		.2byte	0x7
 8656 04b6 78       		.byte	0x78
 8657 04b7 808002   		.sleb128 32768
 8658 04ba 40       		.byte	0x40
 8659 04bb 25       		.byte	0x25
 8660 04bc 9F       		.byte	0x9f
 8661 04bd 00000000 		.4byte	0
 8662 04c1 00000000 		.4byte	0
 8663              	.LLST25:
 8664 04c5 10000000 		.4byte	.LVL60
 8665 04c9 66000000 		.4byte	.LVL72
 8666 04cd 0200     		.2byte	0x2
 8667 04cf 30       		.byte	0x30
 8668 04d0 9F       		.byte	0x9f
 8669 04d1 66000000 		.4byte	.LVL72
 8670 04d5 88000000 		.4byte	.LVL79
 8671 04d9 0100     		.2byte	0x1
 8672 04db 55       		.byte	0x55
 8673 04dc 88000000 		.4byte	.LVL79
 8674 04e0 8E000000 		.4byte	.LVL80
 8675 04e4 0200     		.2byte	0x2
 8676 04e6 30       		.byte	0x30
 8677 04e7 9F       		.byte	0x9f
 8678 04e8 8E000000 		.4byte	.LVL80
 8679 04ec 9A000000 		.4byte	.LVL83
 8680 04f0 0100     		.2byte	0x1
 8681 04f2 55       		.byte	0x55
 8682 04f3 00000000 		.4byte	0
 8683 04f7 00000000 		.4byte	0
 8684              	.LLST26:
 8685 04fb 00000000 		.4byte	.LVL101
 8686 04ff 06000000 		.4byte	.LVL102
 8687 0503 0100     		.2byte	0x1
 8688 0505 50       		.byte	0x50
 8689 0506 06000000 		.4byte	.LVL102
 8690 050a 3E000000 		.4byte	.LVL111
 8691 050e 0100     		.2byte	0x1
 8692 0510 54       		.byte	0x54
 8693 0511 3E000000 		.4byte	.LVL111
 8694 0515 48000000 		.4byte	.LFE3
 8695 0519 0400     		.2byte	0x4
 8696 051b F3       		.byte	0xf3
 8697 051c 01       		.uleb128 0x1
 8698 051d 50       		.byte	0x50
 8699 051e 9F       		.byte	0x9f
 8700 051f 00000000 		.4byte	0
 8701 0523 00000000 		.4byte	0
ARM GAS  C:\Users\Rajesh\AppData\Local\Temp\ccFou9eL.s 			page 179


 8702              	.LLST27:
 8703 0527 00000000 		.4byte	.LVL101
 8704 052b 18000000 		.4byte	.LVL103
 8705 052f 0100     		.2byte	0x1
 8706 0531 51       		.byte	0x51
 8707 0532 18000000 		.4byte	.LVL103
 8708 0536 23000000 		.4byte	.LVL105-1
 8709 053a 0100     		.2byte	0x1
 8710 053c 50       		.byte	0x50
 8711 053d 26000000 		.4byte	.LVL106
 8712 0541 2B000000 		.4byte	.LVL107-1
 8713 0545 0100     		.2byte	0x1
 8714 0547 50       		.byte	0x50
 8715 0548 00000000 		.4byte	0
 8716 054c 00000000 		.4byte	0
 8717              	.LLST28:
 8718 0550 06000000 		.4byte	.LVL102
 8719 0554 3E000000 		.4byte	.LVL110
 8720 0558 0200     		.2byte	0x2
 8721 055a 30       		.byte	0x30
 8722 055b 9F       		.byte	0x9f
 8723 055c 3E000000 		.4byte	.LVL110
 8724 0560 48000000 		.4byte	.LFE3
 8725 0564 0100     		.2byte	0x1
 8726 0566 50       		.byte	0x50
 8727 0567 00000000 		.4byte	0
 8728 056b 00000000 		.4byte	0
 8729              	.LLST29:
 8730 056f 24000000 		.4byte	.LVL105
 8731 0573 26000000 		.4byte	.LVL106
 8732 0577 0100     		.2byte	0x1
 8733 0579 50       		.byte	0x50
 8734 057a 34000000 		.4byte	.LVL108
 8735 057e 3A000000 		.4byte	.LVL109
 8736 0582 0100     		.2byte	0x1
 8737 0584 50       		.byte	0x50
 8738 0585 00000000 		.4byte	0
 8739 0589 00000000 		.4byte	0
 8740              	.LLST30:
 8741 058d 00000000 		.4byte	.LVL112
 8742 0591 0F000000 		.4byte	.LVL115-1
 8743 0595 0100     		.2byte	0x1
 8744 0597 50       		.byte	0x50
 8745 0598 0F000000 		.4byte	.LVL115-1
 8746 059c 44000000 		.4byte	.LFE4
 8747 05a0 0400     		.2byte	0x4
 8748 05a2 F3       		.byte	0xf3
 8749 05a3 01       		.uleb128 0x1
 8750 05a4 50       		.byte	0x50
 8751 05a5 9F       		.byte	0x9f
 8752 05a6 00000000 		.4byte	0
 8753 05aa 00000000 		.4byte	0
 8754              	.LLST31:
 8755 05ae 00000000 		.4byte	.LVL112
 8756 05b2 0C000000 		.4byte	.LVL114
 8757 05b6 0100     		.2byte	0x1
 8758 05b8 51       		.byte	0x51
ARM GAS  C:\Users\Rajesh\AppData\Local\Temp\ccFou9eL.s 			page 180


 8759 05b9 0C000000 		.4byte	.LVL114
 8760 05bd 3A000000 		.4byte	.LVL123
 8761 05c1 0100     		.2byte	0x1
 8762 05c3 54       		.byte	0x54
 8763 05c4 3A000000 		.4byte	.LVL123
 8764 05c8 44000000 		.4byte	.LFE4
 8765 05cc 0400     		.2byte	0x4
 8766 05ce F3       		.byte	0xf3
 8767 05cf 01       		.uleb128 0x1
 8768 05d0 51       		.byte	0x51
 8769 05d1 9F       		.byte	0x9f
 8770 05d2 00000000 		.4byte	0
 8771 05d6 00000000 		.4byte	0
 8772              	.LLST32:
 8773 05da 06000000 		.4byte	.LVL113
 8774 05de 10000000 		.4byte	.LVL115
 8775 05e2 0200     		.2byte	0x2
 8776 05e4 30       		.byte	0x30
 8777 05e5 9F       		.byte	0x9f
 8778 05e6 10000000 		.4byte	.LVL115
 8779 05ea 44000000 		.4byte	.LFE4
 8780 05ee 0100     		.2byte	0x1
 8781 05f0 50       		.byte	0x50
 8782 05f1 00000000 		.4byte	0
 8783 05f5 00000000 		.4byte	0
 8784              	.LLST33:
 8785 05f9 1E000000 		.4byte	.LVL116
 8786 05fd 2A000000 		.4byte	.LVL117
 8787 0601 0100     		.2byte	0x1
 8788 0603 53       		.byte	0x53
 8789 0604 2A000000 		.4byte	.LVL117
 8790 0608 2E000000 		.4byte	.LVL118
 8791 060c 0400     		.2byte	0x4
 8792 060e 73       		.byte	0x73
 8793 060f 8020     		.sleb128 4096
 8794 0611 9F       		.byte	0x9f
 8795 0612 2E000000 		.4byte	.LVL118
 8796 0616 30000000 		.4byte	.LVL119
 8797 061a 0D00     		.2byte	0xd
 8798 061c 7D       		.byte	0x7d
 8799 061d 06       		.sleb128 6
 8800 061e 94       		.byte	0x94
 8801 061f 02       		.byte	0x2
 8802 0620 0A       		.byte	0xa
 8803 0621 FFFF     		.2byte	0xffff
 8804 0623 1A       		.byte	0x1a
 8805 0624 44       		.byte	0x44
 8806 0625 24       		.byte	0x24
 8807 0626 44       		.byte	0x44
 8808 0627 25       		.byte	0x25
 8809 0628 9F       		.byte	0x9f
 8810 0629 32000000 		.4byte	.LVL120
 8811 062d 36000000 		.4byte	.LVL121
 8812 0631 0100     		.2byte	0x1
 8813 0633 53       		.byte	0x53
 8814 0634 36000000 		.4byte	.LVL121
 8815 0638 38000000 		.4byte	.LVL122
ARM GAS  C:\Users\Rajesh\AppData\Local\Temp\ccFou9eL.s 			page 181


 8816 063c 0D00     		.2byte	0xd
 8817 063e 7D       		.byte	0x7d
 8818 063f 06       		.sleb128 6
 8819 0640 94       		.byte	0x94
 8820 0641 02       		.byte	0x2
 8821 0642 0A       		.byte	0xa
 8822 0643 FFFF     		.2byte	0xffff
 8823 0645 1A       		.byte	0x1a
 8824 0646 44       		.byte	0x44
 8825 0647 24       		.byte	0x24
 8826 0648 44       		.byte	0x44
 8827 0649 25       		.byte	0x25
 8828 064a 9F       		.byte	0x9f
 8829 064b 00000000 		.4byte	0
 8830 064f 00000000 		.4byte	0
 8831              	.LLST34:
 8832 0653 00000000 		.4byte	.LVL124
 8833 0657 0B000000 		.4byte	.LVL126-1
 8834 065b 0100     		.2byte	0x1
 8835 065d 50       		.byte	0x50
 8836 065e 0B000000 		.4byte	.LVL126-1
 8837 0662 36000000 		.4byte	.LVL133
 8838 0666 0100     		.2byte	0x1
 8839 0668 54       		.byte	0x54
 8840 0669 36000000 		.4byte	.LVL133
 8841 066d 38000000 		.4byte	.LFE5
 8842 0671 0400     		.2byte	0x4
 8843 0673 F3       		.byte	0xf3
 8844 0674 01       		.uleb128 0x1
 8845 0675 50       		.byte	0x50
 8846 0676 9F       		.byte	0x9f
 8847 0677 00000000 		.4byte	0
 8848 067b 00000000 		.4byte	0
 8849              	.LLST35:
 8850 067f 06000000 		.4byte	.LVL125
 8851 0683 0C000000 		.4byte	.LVL126
 8852 0687 0200     		.2byte	0x2
 8853 0689 30       		.byte	0x30
 8854 068a 9F       		.byte	0x9f
 8855 068b 0C000000 		.4byte	.LVL126
 8856 068f 14000000 		.4byte	.LVL127
 8857 0693 0100     		.2byte	0x1
 8858 0695 50       		.byte	0x50
 8859 0696 18000000 		.4byte	.LVL128
 8860 069a 2A000000 		.4byte	.LVL130
 8861 069e 0100     		.2byte	0x1
 8862 06a0 50       		.byte	0x50
 8863 06a1 2E000000 		.4byte	.LVL131
 8864 06a5 38000000 		.4byte	.LFE5
 8865 06a9 0100     		.2byte	0x1
 8866 06ab 50       		.byte	0x50
 8867 06ac 00000000 		.4byte	0
 8868 06b0 00000000 		.4byte	0
 8869              	.LLST36:
 8870 06b4 26000000 		.4byte	.LVL129
 8871 06b8 34000000 		.4byte	.LVL132
 8872 06bc 0100     		.2byte	0x1
ARM GAS  C:\Users\Rajesh\AppData\Local\Temp\ccFou9eL.s 			page 182


 8873 06be 55       		.byte	0x55
 8874 06bf 00000000 		.4byte	0
 8875 06c3 00000000 		.4byte	0
 8876              	.LLST37:
 8877 06c7 00000000 		.4byte	.LVL134
 8878 06cb 10000000 		.4byte	.LVL137
 8879 06cf 0100     		.2byte	0x1
 8880 06d1 52       		.byte	0x52
 8881 06d2 10000000 		.4byte	.LVL137
 8882 06d6 20000000 		.4byte	.LVL140
 8883 06da 0100     		.2byte	0x1
 8884 06dc 54       		.byte	0x54
 8885 06dd 20000000 		.4byte	.LVL140
 8886 06e1 5C000000 		.4byte	.LFE6
 8887 06e5 0400     		.2byte	0x4
 8888 06e7 F3       		.byte	0xf3
 8889 06e8 01       		.uleb128 0x1
 8890 06e9 52       		.byte	0x52
 8891 06ea 9F       		.byte	0x9f
 8892 06eb 00000000 		.4byte	0
 8893 06ef 00000000 		.4byte	0
 8894              	.LLST38:
 8895 06f3 00000000 		.4byte	.LVL134
 8896 06f7 0C000000 		.4byte	.LVL136
 8897 06fb 0100     		.2byte	0x1
 8898 06fd 53       		.byte	0x53
 8899 06fe 0C000000 		.4byte	.LVL136
 8900 0702 56000000 		.4byte	.LVL156
 8901 0706 0100     		.2byte	0x1
 8902 0708 58       		.byte	0x58
 8903 0709 56000000 		.4byte	.LVL156
 8904 070d 5C000000 		.4byte	.LFE6
 8905 0711 0400     		.2byte	0x4
 8906 0713 F3       		.byte	0xf3
 8907 0714 01       		.uleb128 0x1
 8908 0715 53       		.byte	0x53
 8909 0716 9F       		.byte	0x9f
 8910 0717 00000000 		.4byte	0
 8911 071b 00000000 		.4byte	0
 8912              	.LLST39:
 8913 071f 1A000000 		.4byte	.LVL139
 8914 0723 20000000 		.4byte	.LVL140
 8915 0727 0100     		.2byte	0x1
 8916 0729 55       		.byte	0x55
 8917 072a 20000000 		.4byte	.LVL140
 8918 072e 5C000000 		.4byte	.LFE6
 8919 0732 0100     		.2byte	0x1
 8920 0734 5C       		.byte	0x5c
 8921 0735 00000000 		.4byte	0
 8922 0739 00000000 		.4byte	0
 8923              	.LLST40:
 8924 073d 1A000000 		.4byte	.LVL139
 8925 0741 20000000 		.4byte	.LVL140
 8926 0745 0100     		.2byte	0x1
 8927 0747 53       		.byte	0x53
 8928 0748 20000000 		.4byte	.LVL140
 8929 074c 56000000 		.4byte	.LVL154
ARM GAS  C:\Users\Rajesh\AppData\Local\Temp\ccFou9eL.s 			page 183


 8930 0750 0100     		.2byte	0x1
 8931 0752 56       		.byte	0x56
 8932 0753 00000000 		.4byte	0
 8933 0757 00000000 		.4byte	0
 8934              	.LLST41:
 8935 075b 20000000 		.4byte	.LVL140
 8936 075f 2C000000 		.4byte	.LVL143
 8937 0763 0200     		.2byte	0x2
 8938 0765 30       		.byte	0x30
 8939 0766 9F       		.byte	0x9f
 8940 0767 2C000000 		.4byte	.LVL143
 8941 076b 30000000 		.4byte	.LVL144
 8942 076f 0100     		.2byte	0x1
 8943 0771 52       		.byte	0x52
 8944 0772 30000000 		.4byte	.LVL144
 8945 0776 34000000 		.4byte	.LVL145
 8946 077a 0200     		.2byte	0x2
 8947 077c 30       		.byte	0x30
 8948 077d 9F       		.byte	0x9f
 8949 077e 34000000 		.4byte	.LVL145
 8950 0782 3C000000 		.4byte	.LVL148
 8951 0786 0100     		.2byte	0x1
 8952 0788 54       		.byte	0x54
 8953 0789 44000000 		.4byte	.LVL149
 8954 078d 4C000000 		.4byte	.LVL152
 8955 0791 0100     		.2byte	0x1
 8956 0793 54       		.byte	0x54
 8957 0794 00000000 		.4byte	0
 8958 0798 00000000 		.4byte	0
 8959              	.LLST42:
 8960 079c 22000000 		.4byte	.LVL141
 8961 07a0 2A000000 		.4byte	.LVL142
 8962 07a4 0100     		.2byte	0x1
 8963 07a6 55       		.byte	0x55
 8964 07a7 2A000000 		.4byte	.LVL142
 8965 07ab 2C000000 		.4byte	.LVL143
 8966 07af 0500     		.2byte	0x5
 8967 07b1 70       		.byte	0x70
 8968 07b2 00       		.sleb128 0
 8969 07b3 76       		.byte	0x76
 8970 07b4 00       		.sleb128 0
 8971 07b5 22       		.byte	0x22
 8972 07b6 2C000000 		.4byte	.LVL143
 8973 07ba 3A000000 		.4byte	.LVL147
 8974 07be 0100     		.2byte	0x1
 8975 07c0 55       		.byte	0x55
 8976 07c1 44000000 		.4byte	.LVL149
 8977 07c5 4C000000 		.4byte	.LVL152
 8978 07c9 0100     		.2byte	0x1
 8979 07cb 55       		.byte	0x55
 8980 07cc 00000000 		.4byte	0
 8981 07d0 00000000 		.4byte	0
 8982              	.LLST43:
 8983 07d4 0A000000 		.4byte	.LVL135
 8984 07d8 20000000 		.4byte	.LVL140
 8985 07dc 0200     		.2byte	0x2
 8986 07de 30       		.byte	0x30
ARM GAS  C:\Users\Rajesh\AppData\Local\Temp\ccFou9eL.s 			page 184


 8987 07df 9F       		.byte	0x9f
 8988 07e0 20000000 		.4byte	.LVL140
 8989 07e4 38000000 		.4byte	.LVL146
 8990 07e8 0100     		.2byte	0x1
 8991 07ea 57       		.byte	0x57
 8992 07eb 38000000 		.4byte	.LVL146
 8993 07ef 44000000 		.4byte	.LVL149
 8994 07f3 0200     		.2byte	0x2
 8995 07f5 31       		.byte	0x31
 8996 07f6 9F       		.byte	0x9f
 8997 07f7 44000000 		.4byte	.LVL149
 8998 07fb 56000000 		.4byte	.LVL155
 8999 07ff 0100     		.2byte	0x1
 9000 0801 57       		.byte	0x57
 9001 0802 00000000 		.4byte	0
 9002 0806 00000000 		.4byte	0
 9003              	.LLST44:
 9004 080a 00000000 		.4byte	.LVL157
 9005 080e 02000000 		.4byte	.LVL158
 9006 0812 0100     		.2byte	0x1
 9007 0814 50       		.byte	0x50
 9008 0815 02000000 		.4byte	.LVL158
 9009 0819 18000000 		.4byte	.LFE7
 9010 081d 0400     		.2byte	0x4
 9011 081f F3       		.byte	0xf3
 9012 0820 01       		.uleb128 0x1
 9013 0821 50       		.byte	0x50
 9014 0822 9F       		.byte	0x9f
 9015 0823 00000000 		.4byte	0
 9016 0827 00000000 		.4byte	0
 9017              	.LLST45:
 9018 082b 02000000 		.4byte	.LVL158
 9019 082f 04000000 		.4byte	.LVL159
 9020 0833 0100     		.2byte	0x1
 9021 0835 50       		.byte	0x50
 9022 0836 04000000 		.4byte	.LVL159
 9023 083a 18000000 		.4byte	.LFE7
 9024 083e 0600     		.2byte	0x6
 9025 0840 F3       		.byte	0xf3
 9026 0841 01       		.uleb128 0x1
 9027 0842 50       		.byte	0x50
 9028 0843 36       		.byte	0x36
 9029 0844 25       		.byte	0x25
 9030 0845 9F       		.byte	0x9f
 9031 0846 00000000 		.4byte	0
 9032 084a 00000000 		.4byte	0
 9033              	.LLST46:
 9034 084e 00000000 		.4byte	.LVL157
 9035 0852 12000000 		.4byte	.LVL160
 9036 0856 0200     		.2byte	0x2
 9037 0858 31       		.byte	0x31
 9038 0859 9F       		.byte	0x9f
 9039 085a 12000000 		.4byte	.LVL160
 9040 085e 18000000 		.4byte	.LFE7
 9041 0862 0100     		.2byte	0x1
 9042 0864 50       		.byte	0x50
 9043 0865 00000000 		.4byte	0
ARM GAS  C:\Users\Rajesh\AppData\Local\Temp\ccFou9eL.s 			page 185


 9044 0869 00000000 		.4byte	0
 9045              	.LLST47:
 9046 086d 00000000 		.4byte	.LVL161
 9047 0871 1A000000 		.4byte	.LVL168
 9048 0875 0100     		.2byte	0x1
 9049 0877 50       		.byte	0x50
 9050 0878 1A000000 		.4byte	.LVL168
 9051 087c 1C000000 		.4byte	.LVL169
 9052 0880 0400     		.2byte	0x4
 9053 0882 F3       		.byte	0xf3
 9054 0883 01       		.uleb128 0x1
 9055 0884 50       		.byte	0x50
 9056 0885 9F       		.byte	0x9f
 9057 0886 1C000000 		.4byte	.LVL169
 9058 088a 1E000000 		.4byte	.LVL170
 9059 088e 0100     		.2byte	0x1
 9060 0890 50       		.byte	0x50
 9061 0891 1E000000 		.4byte	.LVL170
 9062 0895 22000000 		.4byte	.LFE8
 9063 0899 0400     		.2byte	0x4
 9064 089b F3       		.byte	0xf3
 9065 089c 01       		.uleb128 0x1
 9066 089d 50       		.byte	0x50
 9067 089e 9F       		.byte	0x9f
 9068 089f 00000000 		.4byte	0
 9069 08a3 00000000 		.4byte	0
 9070              	.LLST48:
 9071 08a7 00000000 		.4byte	.LVL161
 9072 08ab 14000000 		.4byte	.LVL167
 9073 08af 0100     		.2byte	0x1
 9074 08b1 51       		.byte	0x51
 9075 08b2 14000000 		.4byte	.LVL167
 9076 08b6 1C000000 		.4byte	.LVL169
 9077 08ba 0400     		.2byte	0x4
 9078 08bc F3       		.byte	0xf3
 9079 08bd 01       		.uleb128 0x1
 9080 08be 51       		.byte	0x51
 9081 08bf 9F       		.byte	0x9f
 9082 08c0 1C000000 		.4byte	.LVL169
 9083 08c4 20000000 		.4byte	.LVL171
 9084 08c8 0100     		.2byte	0x1
 9085 08ca 51       		.byte	0x51
 9086 08cb 20000000 		.4byte	.LVL171
 9087 08cf 22000000 		.4byte	.LFE8
 9088 08d3 0400     		.2byte	0x4
 9089 08d5 F3       		.byte	0xf3
 9090 08d6 01       		.uleb128 0x1
 9091 08d7 51       		.byte	0x51
 9092 08d8 9F       		.byte	0x9f
 9093 08d9 00000000 		.4byte	0
 9094 08dd 00000000 		.4byte	0
 9095              	.LLST49:
 9096 08e1 00000000 		.4byte	.LVL161
 9097 08e5 10000000 		.4byte	.LVL166
 9098 08e9 0100     		.2byte	0x1
 9099 08eb 52       		.byte	0x52
 9100 08ec 10000000 		.4byte	.LVL166
ARM GAS  C:\Users\Rajesh\AppData\Local\Temp\ccFou9eL.s 			page 186


 9101 08f0 1C000000 		.4byte	.LVL169
 9102 08f4 0400     		.2byte	0x4
 9103 08f6 F3       		.byte	0xf3
 9104 08f7 01       		.uleb128 0x1
 9105 08f8 52       		.byte	0x52
 9106 08f9 9F       		.byte	0x9f
 9107 08fa 1C000000 		.4byte	.LVL169
 9108 08fe 20000000 		.4byte	.LVL171
 9109 0902 0100     		.2byte	0x1
 9110 0904 52       		.byte	0x52
 9111 0905 20000000 		.4byte	.LVL171
 9112 0909 22000000 		.4byte	.LFE8
 9113 090d 0400     		.2byte	0x4
 9114 090f F3       		.byte	0xf3
 9115 0910 01       		.uleb128 0x1
 9116 0911 52       		.byte	0x52
 9117 0912 9F       		.byte	0x9f
 9118 0913 00000000 		.4byte	0
 9119 0917 00000000 		.4byte	0
 9120              	.LLST50:
 9121 091b 02000000 		.4byte	.LVL162
 9122 091f 20000000 		.4byte	.LVL171
 9123 0923 0200     		.2byte	0x2
 9124 0925 30       		.byte	0x30
 9125 0926 9F       		.byte	0x9f
 9126 0927 20000000 		.4byte	.LVL171
 9127 092b 22000000 		.4byte	.LFE8
 9128 092f 0100     		.2byte	0x1
 9129 0931 50       		.byte	0x50
 9130 0932 00000000 		.4byte	0
 9131 0936 00000000 		.4byte	0
 9132              	.LLST51:
 9133 093a 04000000 		.4byte	.LVL163
 9134 093e 0E000000 		.4byte	.LVL165
 9135 0942 0100     		.2byte	0x1
 9136 0944 53       		.byte	0x53
 9137 0945 0E000000 		.4byte	.LVL165
 9138 0949 10000000 		.4byte	.LVL166
 9139 094d 0500     		.2byte	0x5
 9140 094f 72       		.byte	0x72
 9141 0950 00       		.sleb128 0
 9142 0951 33       		.byte	0x33
 9143 0952 25       		.byte	0x25
 9144 0953 9F       		.byte	0x9f
 9145 0954 10000000 		.4byte	.LVL166
 9146 0958 1C000000 		.4byte	.LVL169
 9147 095c 0600     		.2byte	0x6
 9148 095e F3       		.byte	0xf3
 9149 095f 01       		.uleb128 0x1
 9150 0960 52       		.byte	0x52
 9151 0961 33       		.byte	0x33
 9152 0962 25       		.byte	0x25
 9153 0963 9F       		.byte	0x9f
 9154 0964 1C000000 		.4byte	.LVL169
 9155 0968 20000000 		.4byte	.LVL171
 9156 096c 0100     		.2byte	0x1
 9157 096e 53       		.byte	0x53
ARM GAS  C:\Users\Rajesh\AppData\Local\Temp\ccFou9eL.s 			page 187


 9158 096f 20000000 		.4byte	.LVL171
 9159 0973 22000000 		.4byte	.LFE8
 9160 0977 0600     		.2byte	0x6
 9161 0979 F3       		.byte	0xf3
 9162 097a 01       		.uleb128 0x1
 9163 097b 52       		.byte	0x52
 9164 097c 33       		.byte	0x33
 9165 097d 25       		.byte	0x25
 9166 097e 9F       		.byte	0x9f
 9167 097f 00000000 		.4byte	0
 9168 0983 00000000 		.4byte	0
 9169              	.LLST52:
 9170 0987 08000000 		.4byte	.LVL164
 9171 098b 20000000 		.4byte	.LVL172
 9172 098f 0100     		.2byte	0x1
 9173 0991 54       		.byte	0x54
 9174 0992 20000000 		.4byte	.LVL172
 9175 0996 22000000 		.4byte	.LFE8
 9176 099a 0600     		.2byte	0x6
 9177 099c F3       		.byte	0xf3
 9178 099d 01       		.uleb128 0x1
 9179 099e 52       		.byte	0x52
 9180 099f 37       		.byte	0x37
 9181 09a0 1A       		.byte	0x1a
 9182 09a1 9F       		.byte	0x9f
 9183 09a2 00000000 		.4byte	0
 9184 09a6 00000000 		.4byte	0
 9185              	.LLST53:
 9186 09aa 00000000 		.4byte	.LVL173
 9187 09ae 0E000000 		.4byte	.LVL174
 9188 09b2 0100     		.2byte	0x1
 9189 09b4 50       		.byte	0x50
 9190 09b5 0E000000 		.4byte	.LVL174
 9191 09b9 92000000 		.4byte	.LFE9
 9192 09bd 0100     		.2byte	0x1
 9193 09bf 5C       		.byte	0x5c
 9194 09c0 00000000 		.4byte	0
 9195 09c4 00000000 		.4byte	0
 9196              	.LLST54:
 9197 09c8 00000000 		.4byte	.LVL173
 9198 09cc 1C000000 		.4byte	.LVL177
 9199 09d0 0100     		.2byte	0x1
 9200 09d2 51       		.byte	0x51
 9201 09d3 1C000000 		.4byte	.LVL177
 9202 09d7 20000000 		.4byte	.LVL178
 9203 09db 0400     		.2byte	0x4
 9204 09dd F3       		.byte	0xf3
 9205 09de 01       		.uleb128 0x1
 9206 09df 51       		.byte	0x51
 9207 09e0 9F       		.byte	0x9f
 9208 09e1 20000000 		.4byte	.LVL178
 9209 09e5 22000000 		.4byte	.LVL179
 9210 09e9 0100     		.2byte	0x1
 9211 09eb 51       		.byte	0x51
 9212 09ec 22000000 		.4byte	.LVL179
 9213 09f0 92000000 		.4byte	.LFE9
 9214 09f4 0400     		.2byte	0x4
ARM GAS  C:\Users\Rajesh\AppData\Local\Temp\ccFou9eL.s 			page 188


 9215 09f6 F3       		.byte	0xf3
 9216 09f7 01       		.uleb128 0x1
 9217 09f8 51       		.byte	0x51
 9218 09f9 9F       		.byte	0x9f
 9219 09fa 00000000 		.4byte	0
 9220 09fe 00000000 		.4byte	0
 9221              	.LLST55:
 9222 0a02 00000000 		.4byte	.LVL173
 9223 0a06 10000000 		.4byte	.LVL175
 9224 0a0a 0100     		.2byte	0x1
 9225 0a0c 52       		.byte	0x52
 9226 0a0d 10000000 		.4byte	.LVL175
 9227 0a11 30000000 		.4byte	.LVL181
 9228 0a15 0100     		.2byte	0x1
 9229 0a17 55       		.byte	0x55
 9230 0a18 30000000 		.4byte	.LVL181
 9231 0a1c 92000000 		.4byte	.LFE9
 9232 0a20 0400     		.2byte	0x4
 9233 0a22 F3       		.byte	0xf3
 9234 0a23 01       		.uleb128 0x1
 9235 0a24 52       		.byte	0x52
 9236 0a25 9F       		.byte	0x9f
 9237 0a26 00000000 		.4byte	0
 9238 0a2a 00000000 		.4byte	0
 9239              	.LLST56:
 9240 0a2e 0E000000 		.4byte	.LVL174
 9241 0a32 26000000 		.4byte	.LVL180
 9242 0a36 0200     		.2byte	0x2
 9243 0a38 30       		.byte	0x30
 9244 0a39 9F       		.byte	0x9f
 9245 0a3a 26000000 		.4byte	.LVL180
 9246 0a3e 92000000 		.4byte	.LFE9
 9247 0a42 0200     		.2byte	0x2
 9248 0a44 91       		.byte	0x91
 9249 0a45 64       		.sleb128 -28
 9250 0a46 00000000 		.4byte	0
 9251 0a4a 00000000 		.4byte	0
 9252              	.LLST57:
 9253 0a4e 10000000 		.4byte	.LVL175
 9254 0a52 78000000 		.4byte	.LVL193
 9255 0a56 0100     		.2byte	0x1
 9256 0a58 52       		.byte	0x52
 9257 0a59 78000000 		.4byte	.LVL193
 9258 0a5d 92000000 		.4byte	.LFE9
 9259 0a61 0600     		.2byte	0x6
 9260 0a63 F3       		.byte	0xf3
 9261 0a64 01       		.uleb128 0x1
 9262 0a65 52       		.byte	0x52
 9263 0a66 33       		.byte	0x33
 9264 0a67 25       		.byte	0x25
 9265 0a68 9F       		.byte	0x9f
 9266 0a69 00000000 		.4byte	0
 9267 0a6d 00000000 		.4byte	0
 9268              	.LLST58:
 9269 0a71 16000000 		.4byte	.LVL176
 9270 0a75 30000000 		.4byte	.LVL181
 9271 0a79 0100     		.2byte	0x1
ARM GAS  C:\Users\Rajesh\AppData\Local\Temp\ccFou9eL.s 			page 189


 9272 0a7b 54       		.byte	0x54
 9273 0a7c 30000000 		.4byte	.LVL181
 9274 0a80 8C000000 		.4byte	.LVL198
 9275 0a84 0100     		.2byte	0x1
 9276 0a86 58       		.byte	0x58
 9277 0a87 8C000000 		.4byte	.LVL198
 9278 0a8b 92000000 		.4byte	.LFE9
 9279 0a8f 0600     		.2byte	0x6
 9280 0a91 F3       		.byte	0xf3
 9281 0a92 01       		.uleb128 0x1
 9282 0a93 52       		.byte	0x52
 9283 0a94 37       		.byte	0x37
 9284 0a95 1A       		.byte	0x1a
 9285 0a96 9F       		.byte	0x9f
 9286 0a97 00000000 		.4byte	0
 9287 0a9b 00000000 		.4byte	0
 9288              	.LLST59:
 9289 0a9f 0E000000 		.4byte	.LVL174
 9290 0aa3 30000000 		.4byte	.LVL181
 9291 0aa7 0200     		.2byte	0x2
 9292 0aa9 30       		.byte	0x30
 9293 0aaa 9F       		.byte	0x9f
 9294 0aab 30000000 		.4byte	.LVL181
 9295 0aaf 8C000000 		.4byte	.LVL197
 9296 0ab3 0100     		.2byte	0x1
 9297 0ab5 57       		.byte	0x57
 9298 0ab6 00000000 		.4byte	0
 9299 0aba 00000000 		.4byte	0
 9300              	.LLST60:
 9301 0abe 0E000000 		.4byte	.LVL174
 9302 0ac2 30000000 		.4byte	.LVL181
 9303 0ac6 0200     		.2byte	0x2
 9304 0ac8 30       		.byte	0x30
 9305 0ac9 9F       		.byte	0x9f
 9306 0aca 34000000 		.4byte	.LVL182
 9307 0ace 38000000 		.4byte	.LVL183
 9308 0ad2 0200     		.2byte	0x2
 9309 0ad4 30       		.byte	0x30
 9310 0ad5 9F       		.byte	0x9f
 9311 0ad6 38000000 		.4byte	.LVL183
 9312 0ada 6A000000 		.4byte	.LVL191
 9313 0ade 0100     		.2byte	0x1
 9314 0ae0 51       		.byte	0x51
 9315 0ae1 74000000 		.4byte	.LVL192
 9316 0ae5 78000000 		.4byte	.LVL193
 9317 0ae9 0200     		.2byte	0x2
 9318 0aeb 30       		.byte	0x30
 9319 0aec 9F       		.byte	0x9f
 9320 0aed 78000000 		.4byte	.LVL193
 9321 0af1 92000000 		.4byte	.LFE9
 9322 0af5 0100     		.2byte	0x1
 9323 0af7 51       		.byte	0x51
 9324 0af8 00000000 		.4byte	0
 9325 0afc 00000000 		.4byte	0
 9326              	.LLST61:
 9327 0b00 34000000 		.4byte	.LVL182
 9328 0b04 6A000000 		.4byte	.LVL191
ARM GAS  C:\Users\Rajesh\AppData\Local\Temp\ccFou9eL.s 			page 190


 9329 0b08 0100     		.2byte	0x1
 9330 0b0a 54       		.byte	0x54
 9331 0b0b 74000000 		.4byte	.LVL192
 9332 0b0f 8C000000 		.4byte	.LVL195
 9333 0b13 0100     		.2byte	0x1
 9334 0b15 54       		.byte	0x54
 9335 0b16 00000000 		.4byte	0
 9336 0b1a 00000000 		.4byte	0
 9337              	.LLST62:
 9338 0b1e 0E000000 		.4byte	.LVL174
 9339 0b22 30000000 		.4byte	.LVL181
 9340 0b26 0200     		.2byte	0x2
 9341 0b28 30       		.byte	0x30
 9342 0b29 9F       		.byte	0x9f
 9343 0b2a 30000000 		.4byte	.LVL181
 9344 0b2e 58000000 		.4byte	.LVL184
 9345 0b32 0100     		.2byte	0x1
 9346 0b34 56       		.byte	0x56
 9347 0b35 5A000000 		.4byte	.LVL185
 9348 0b39 5C000000 		.4byte	.LVL186
 9349 0b3d 0100     		.2byte	0x1
 9350 0b3f 56       		.byte	0x56
 9351 0b40 5E000000 		.4byte	.LVL187
 9352 0b44 8C000000 		.4byte	.LVL196
 9353 0b48 0100     		.2byte	0x1
 9354 0b4a 56       		.byte	0x56
 9355 0b4b 00000000 		.4byte	0
 9356 0b4f 00000000 		.4byte	0
 9357              	.LLST63:
 9358 0b53 00000000 		.4byte	.LVL199
 9359 0b57 0B000000 		.4byte	.LVL201-1
 9360 0b5b 0100     		.2byte	0x1
 9361 0b5d 50       		.byte	0x50
 9362 0b5e 0B000000 		.4byte	.LVL201-1
 9363 0b62 0E000000 		.4byte	.LFE10
 9364 0b66 0400     		.2byte	0x4
 9365 0b68 F3       		.byte	0xf3
 9366 0b69 01       		.uleb128 0x1
 9367 0b6a 50       		.byte	0x50
 9368 0b6b 9F       		.byte	0x9f
 9369 0b6c 00000000 		.4byte	0
 9370 0b70 00000000 		.4byte	0
 9371              	.LLST64:
 9372 0b74 00000000 		.4byte	.LVL199
 9373 0b78 08000000 		.4byte	.LVL200
 9374 0b7c 0100     		.2byte	0x1
 9375 0b7e 51       		.byte	0x51
 9376 0b7f 08000000 		.4byte	.LVL200
 9377 0b83 0B000000 		.4byte	.LVL201-1
 9378 0b87 0100     		.2byte	0x1
 9379 0b89 52       		.byte	0x52
 9380 0b8a 0B000000 		.4byte	.LVL201-1
 9381 0b8e 0E000000 		.4byte	.LFE10
 9382 0b92 0400     		.2byte	0x4
 9383 0b94 F3       		.byte	0xf3
 9384 0b95 01       		.uleb128 0x1
 9385 0b96 51       		.byte	0x51
ARM GAS  C:\Users\Rajesh\AppData\Local\Temp\ccFou9eL.s 			page 191


 9386 0b97 9F       		.byte	0x9f
 9387 0b98 00000000 		.4byte	0
 9388 0b9c 00000000 		.4byte	0
 9389              	.LLST65:
 9390 0ba0 00000000 		.4byte	.LVL202
 9391 0ba4 0B000000 		.4byte	.LVL204-1
 9392 0ba8 0100     		.2byte	0x1
 9393 0baa 50       		.byte	0x50
 9394 0bab 0B000000 		.4byte	.LVL204-1
 9395 0baf 0E000000 		.4byte	.LFE11
 9396 0bb3 0400     		.2byte	0x4
 9397 0bb5 F3       		.byte	0xf3
 9398 0bb6 01       		.uleb128 0x1
 9399 0bb7 50       		.byte	0x50
 9400 0bb8 9F       		.byte	0x9f
 9401 0bb9 00000000 		.4byte	0
 9402 0bbd 00000000 		.4byte	0
 9403              	.LLST66:
 9404 0bc1 00000000 		.4byte	.LVL202
 9405 0bc5 08000000 		.4byte	.LVL203
 9406 0bc9 0100     		.2byte	0x1
 9407 0bcb 51       		.byte	0x51
 9408 0bcc 08000000 		.4byte	.LVL203
 9409 0bd0 0B000000 		.4byte	.LVL204-1
 9410 0bd4 0100     		.2byte	0x1
 9411 0bd6 52       		.byte	0x52
 9412 0bd7 0B000000 		.4byte	.LVL204-1
 9413 0bdb 0E000000 		.4byte	.LFE11
 9414 0bdf 0400     		.2byte	0x4
 9415 0be1 F3       		.byte	0xf3
 9416 0be2 01       		.uleb128 0x1
 9417 0be3 51       		.byte	0x51
 9418 0be4 9F       		.byte	0x9f
 9419 0be5 00000000 		.4byte	0
 9420 0be9 00000000 		.4byte	0
 9421              	.LLST67:
 9422 0bed 00000000 		.4byte	.LVL205
 9423 0bf1 28000000 		.4byte	.LVL210
 9424 0bf5 0100     		.2byte	0x1
 9425 0bf7 50       		.byte	0x50
 9426 0bf8 28000000 		.4byte	.LVL210
 9427 0bfc B2000000 		.4byte	.LFE12
 9428 0c00 0200     		.2byte	0x2
 9429 0c02 91       		.byte	0x91
 9430 0c03 4C       		.sleb128 -52
 9431 0c04 00000000 		.4byte	0
 9432 0c08 00000000 		.4byte	0
 9433              	.LLST68:
 9434 0c0c 00000000 		.4byte	.LVL205
 9435 0c10 28000000 		.4byte	.LVL210
 9436 0c14 0100     		.2byte	0x1
 9437 0c16 51       		.byte	0x51
 9438 0c17 28000000 		.4byte	.LVL210
 9439 0c1b B2000000 		.4byte	.LFE12
 9440 0c1f 0400     		.2byte	0x4
 9441 0c21 F3       		.byte	0xf3
 9442 0c22 01       		.uleb128 0x1
ARM GAS  C:\Users\Rajesh\AppData\Local\Temp\ccFou9eL.s 			page 192


 9443 0c23 51       		.byte	0x51
 9444 0c24 9F       		.byte	0x9f
 9445 0c25 00000000 		.4byte	0
 9446 0c29 00000000 		.4byte	0
 9447              	.LLST69:
 9448 0c2d 00000000 		.4byte	.LVL205
 9449 0c31 28000000 		.4byte	.LVL210
 9450 0c35 0100     		.2byte	0x1
 9451 0c37 52       		.byte	0x52
 9452 0c38 28000000 		.4byte	.LVL210
 9453 0c3c B2000000 		.4byte	.LFE12
 9454 0c40 0200     		.2byte	0x2
 9455 0c42 91       		.byte	0x91
 9456 0c43 48       		.sleb128 -56
 9457 0c44 00000000 		.4byte	0
 9458 0c48 00000000 		.4byte	0
 9459              	.LLST70:
 9460 0c4c 00000000 		.4byte	.LVL205
 9461 0c50 14000000 		.4byte	.LVL206
 9462 0c54 0100     		.2byte	0x1
 9463 0c56 53       		.byte	0x53
 9464 0c57 14000000 		.4byte	.LVL206
 9465 0c5b B2000000 		.4byte	.LFE12
 9466 0c5f 0200     		.2byte	0x2
 9467 0c61 91       		.byte	0x91
 9468 0c62 44       		.sleb128 -60
 9469 0c63 00000000 		.4byte	0
 9470 0c67 00000000 		.4byte	0
 9471              	.LLST71:
 9472 0c6b 1A000000 		.4byte	.LVL207
 9473 0c6f 6C000000 		.4byte	.LVL217
 9474 0c73 0200     		.2byte	0x2
 9475 0c75 30       		.byte	0x30
 9476 0c76 9F       		.byte	0x9f
 9477 0c77 6C000000 		.4byte	.LVL217
 9478 0c7b 78000000 		.4byte	.LVL218
 9479 0c7f 0100     		.2byte	0x1
 9480 0c81 50       		.byte	0x50
 9481 0c82 7C000000 		.4byte	.LVL219
 9482 0c86 84000000 		.4byte	.LVL220
 9483 0c8a 0100     		.2byte	0x1
 9484 0c8c 50       		.byte	0x50
 9485 0c8d 88000000 		.4byte	.LVL221
 9486 0c91 A4000000 		.4byte	.LVL225
 9487 0c95 0100     		.2byte	0x1
 9488 0c97 50       		.byte	0x50
 9489 0c98 A6000000 		.4byte	.LVL226
 9490 0c9c B2000000 		.4byte	.LFE12
 9491 0ca0 0100     		.2byte	0x1
 9492 0ca2 50       		.byte	0x50
 9493 0ca3 00000000 		.4byte	0
 9494 0ca7 00000000 		.4byte	0
 9495              	.LLST72:
 9496 0cab 1C000000 		.4byte	.LVL208
 9497 0caf 28000000 		.4byte	.LVL210
 9498 0cb3 0200     		.2byte	0x2
 9499 0cb5 30       		.byte	0x30
ARM GAS  C:\Users\Rajesh\AppData\Local\Temp\ccFou9eL.s 			page 193


 9500 0cb6 9F       		.byte	0x9f
 9501 0cb7 28000000 		.4byte	.LVL210
 9502 0cbb A8000000 		.4byte	.LVL228
 9503 0cbf 0100     		.2byte	0x1
 9504 0cc1 57       		.byte	0x57
 9505 0cc2 00000000 		.4byte	0
 9506 0cc6 00000000 		.4byte	0
 9507              	.LLST73:
 9508 0cca 88000000 		.4byte	.LVL221
 9509 0cce 90000000 		.4byte	.LVL223
 9510 0cd2 0200     		.2byte	0x2
 9511 0cd4 30       		.byte	0x30
 9512 0cd5 9F       		.byte	0x9f
 9513 0cd6 90000000 		.4byte	.LVL223
 9514 0cda A6000000 		.4byte	.LVL226
 9515 0cde 0100     		.2byte	0x1
 9516 0ce0 53       		.byte	0x53
 9517 0ce1 00000000 		.4byte	0
 9518 0ce5 00000000 		.4byte	0
 9519              	.LLST74:
 9520 0ce9 1C000000 		.4byte	.LVL208
 9521 0ced 26000000 		.4byte	.LVL209
 9522 0cf1 0100     		.2byte	0x1
 9523 0cf3 56       		.byte	0x56
 9524 0cf4 26000000 		.4byte	.LVL209
 9525 0cf8 46000000 		.4byte	.LVL213
 9526 0cfc 0100     		.2byte	0x1
 9527 0cfe 55       		.byte	0x55
 9528 0cff 46000000 		.4byte	.LVL213
 9529 0d03 52000000 		.4byte	.LVL215
 9530 0d07 0100     		.2byte	0x1
 9531 0d09 54       		.byte	0x54
 9532 0d0a 52000000 		.4byte	.LVL215
 9533 0d0e 8C000000 		.4byte	.LVL222
 9534 0d12 0100     		.2byte	0x1
 9535 0d14 55       		.byte	0x55
 9536 0d15 8C000000 		.4byte	.LVL222
 9537 0d19 A8000000 		.4byte	.LVL227
 9538 0d1d 0100     		.2byte	0x1
 9539 0d1f 56       		.byte	0x56
 9540 0d20 00000000 		.4byte	0
 9541 0d24 00000000 		.4byte	0
 9542              	.LLST75:
 9543 0d28 00000000 		.4byte	.LVL229
 9544 0d2c 15000000 		.4byte	.LVL233-1
 9545 0d30 0100     		.2byte	0x1
 9546 0d32 50       		.byte	0x50
 9547 0d33 15000000 		.4byte	.LVL233-1
 9548 0d37 66000000 		.4byte	.LVL245
 9549 0d3b 0100     		.2byte	0x1
 9550 0d3d 54       		.byte	0x54
 9551 0d3e 66000000 		.4byte	.LVL245
 9552 0d42 68000000 		.4byte	.LFE13
 9553 0d46 0400     		.2byte	0x4
 9554 0d48 F3       		.byte	0xf3
 9555 0d49 01       		.uleb128 0x1
 9556 0d4a 50       		.byte	0x50
ARM GAS  C:\Users\Rajesh\AppData\Local\Temp\ccFou9eL.s 			page 194


 9557 0d4b 9F       		.byte	0x9f
 9558 0d4c 00000000 		.4byte	0
 9559 0d50 00000000 		.4byte	0
 9560              	.LLST76:
 9561 0d54 00000000 		.4byte	.LVL229
 9562 0d58 12000000 		.4byte	.LVL232
 9563 0d5c 0100     		.2byte	0x1
 9564 0d5e 51       		.byte	0x51
 9565 0d5f 12000000 		.4byte	.LVL232
 9566 0d63 66000000 		.4byte	.LVL246
 9567 0d67 0100     		.2byte	0x1
 9568 0d69 55       		.byte	0x55
 9569 0d6a 66000000 		.4byte	.LVL246
 9570 0d6e 68000000 		.4byte	.LFE13
 9571 0d72 0400     		.2byte	0x4
 9572 0d74 F3       		.byte	0xf3
 9573 0d75 01       		.uleb128 0x1
 9574 0d76 51       		.byte	0x51
 9575 0d77 9F       		.byte	0x9f
 9576 0d78 00000000 		.4byte	0
 9577 0d7c 00000000 		.4byte	0
 9578              	.LLST77:
 9579 0d80 08000000 		.4byte	.LVL230
 9580 0d84 16000000 		.4byte	.LVL233
 9581 0d88 0200     		.2byte	0x2
 9582 0d8a 30       		.byte	0x30
 9583 0d8b 9F       		.byte	0x9f
 9584 0d8c 16000000 		.4byte	.LVL233
 9585 0d90 1E000000 		.4byte	.LVL234
 9586 0d94 0100     		.2byte	0x1
 9587 0d96 50       		.byte	0x50
 9588 0d97 22000000 		.4byte	.LVL235
 9589 0d9b 2C000000 		.4byte	.LVL236
 9590 0d9f 0100     		.2byte	0x1
 9591 0da1 50       		.byte	0x50
 9592 0da2 30000000 		.4byte	.LVL237
 9593 0da6 3A000000 		.4byte	.LVL238
 9594 0daa 0100     		.2byte	0x1
 9595 0dac 50       		.byte	0x50
 9596 0dad 3E000000 		.4byte	.LVL239
 9597 0db1 48000000 		.4byte	.LVL240
 9598 0db5 0100     		.2byte	0x1
 9599 0db7 50       		.byte	0x50
 9600 0db8 4C000000 		.4byte	.LVL241
 9601 0dbc 56000000 		.4byte	.LVL242
 9602 0dc0 0100     		.2byte	0x1
 9603 0dc2 50       		.byte	0x50
 9604 0dc3 5A000000 		.4byte	.LVL243
 9605 0dc7 68000000 		.4byte	.LFE13
 9606 0dcb 0100     		.2byte	0x1
 9607 0dcd 50       		.byte	0x50
 9608 0dce 00000000 		.4byte	0
 9609 0dd2 00000000 		.4byte	0
 9610              	.LLST78:
 9611 0dd6 08000000 		.4byte	.LVL230
 9612 0dda 0E000000 		.4byte	.LVL231
 9613 0dde 0200     		.2byte	0x2
ARM GAS  C:\Users\Rajesh\AppData\Local\Temp\ccFou9eL.s 			page 195


 9614 0de0 30       		.byte	0x30
 9615 0de1 9F       		.byte	0x9f
 9616 0de2 0E000000 		.4byte	.LVL231
 9617 0de6 66000000 		.4byte	.LVL247
 9618 0dea 0100     		.2byte	0x1
 9619 0dec 56       		.byte	0x56
 9620 0ded 00000000 		.4byte	0
 9621 0df1 00000000 		.4byte	0
 9622              	.LLST79:
 9623 0df5 00000000 		.4byte	.LVL248
 9624 0df9 11000000 		.4byte	.LVL252-1
 9625 0dfd 0100     		.2byte	0x1
 9626 0dff 50       		.byte	0x50
 9627 0e00 11000000 		.4byte	.LVL252-1
 9628 0e04 B8000000 		.4byte	.LVL271
 9629 0e08 0100     		.2byte	0x1
 9630 0e0a 55       		.byte	0x55
 9631 0e0b B8000000 		.4byte	.LVL271
 9632 0e0f BA000000 		.4byte	.LFE15
 9633 0e13 0400     		.2byte	0x4
 9634 0e15 F3       		.byte	0xf3
 9635 0e16 01       		.uleb128 0x1
 9636 0e17 50       		.byte	0x50
 9637 0e18 9F       		.byte	0x9f
 9638 0e19 00000000 		.4byte	0
 9639 0e1d 00000000 		.4byte	0
 9640              	.LLST80:
 9641 0e21 00000000 		.4byte	.LVL248
 9642 0e25 0E000000 		.4byte	.LVL251
 9643 0e29 0100     		.2byte	0x1
 9644 0e2b 51       		.byte	0x51
 9645 0e2c 0E000000 		.4byte	.LVL251
 9646 0e30 B8000000 		.4byte	.LVL272
 9647 0e34 0100     		.2byte	0x1
 9648 0e36 57       		.byte	0x57
 9649 0e37 B8000000 		.4byte	.LVL272
 9650 0e3b BA000000 		.4byte	.LFE15
 9651 0e3f 0400     		.2byte	0x4
 9652 0e41 F3       		.byte	0xf3
 9653 0e42 01       		.uleb128 0x1
 9654 0e43 51       		.byte	0x51
 9655 0e44 9F       		.byte	0x9f
 9656 0e45 00000000 		.4byte	0
 9657 0e49 00000000 		.4byte	0
 9658              	.LLST81:
 9659 0e4d 00000000 		.4byte	.LVL248
 9660 0e51 0C000000 		.4byte	.LVL250
 9661 0e55 0100     		.2byte	0x1
 9662 0e57 52       		.byte	0x52
 9663 0e58 0C000000 		.4byte	.LVL250
 9664 0e5c BA000000 		.4byte	.LFE15
 9665 0e60 0400     		.2byte	0x4
 9666 0e62 F3       		.byte	0xf3
 9667 0e63 01       		.uleb128 0x1
 9668 0e64 52       		.byte	0x52
 9669 0e65 9F       		.byte	0x9f
 9670 0e66 00000000 		.4byte	0
ARM GAS  C:\Users\Rajesh\AppData\Local\Temp\ccFou9eL.s 			page 196


 9671 0e6a 00000000 		.4byte	0
 9672              	.LLST82:
 9673 0e6e 0A000000 		.4byte	.LVL249
 9674 0e72 12000000 		.4byte	.LVL252
 9675 0e76 0200     		.2byte	0x2
 9676 0e78 30       		.byte	0x30
 9677 0e79 9F       		.byte	0x9f
 9678 0e7a 12000000 		.4byte	.LVL252
 9679 0e7e 1C000000 		.4byte	.LVL253
 9680 0e82 0100     		.2byte	0x1
 9681 0e84 50       		.byte	0x50
 9682 0e85 20000000 		.4byte	.LVL254
 9683 0e89 2A000000 		.4byte	.LVL255
 9684 0e8d 0100     		.2byte	0x1
 9685 0e8f 50       		.byte	0x50
 9686 0e90 2E000000 		.4byte	.LVL256
 9687 0e94 38000000 		.4byte	.LVL257
 9688 0e98 0100     		.2byte	0x1
 9689 0e9a 50       		.byte	0x50
 9690 0e9b 3C000000 		.4byte	.LVL258
 9691 0e9f 46000000 		.4byte	.LVL259
 9692 0ea3 0100     		.2byte	0x1
 9693 0ea5 50       		.byte	0x50
 9694 0ea6 A0000000 		.4byte	.LVL269
 9695 0eaa BA000000 		.4byte	.LFE15
 9696 0eae 0100     		.2byte	0x1
 9697 0eb0 50       		.byte	0x50
 9698 0eb1 00000000 		.4byte	0
 9699 0eb5 00000000 		.4byte	0
 9700              	.LLST83:
 9701 0eb9 0A000000 		.4byte	.LVL249
 9702 0ebd 66000000 		.4byte	.LVL263
 9703 0ec1 0200     		.2byte	0x2
 9704 0ec3 30       		.byte	0x30
 9705 0ec4 9F       		.byte	0x9f
 9706 0ec5 66000000 		.4byte	.LVL263
 9707 0ec9 6A000000 		.4byte	.LVL265
 9708 0ecd 0100     		.2byte	0x1
 9709 0ecf 54       		.byte	0x54
 9710 0ed0 6A000000 		.4byte	.LVL265
 9711 0ed4 6C000000 		.4byte	.LVL266
 9712 0ed8 0200     		.2byte	0x2
 9713 0eda 30       		.byte	0x30
 9714 0edb 9F       		.byte	0x9f
 9715 0edc 6C000000 		.4byte	.LVL266
 9716 0ee0 B8000000 		.4byte	.LVL270
 9717 0ee4 0100     		.2byte	0x1
 9718 0ee6 54       		.byte	0x54
 9719 0ee7 00000000 		.4byte	0
 9720 0eeb 00000000 		.4byte	0
 9721              	.LLST84:
 9722 0eef 4E000000 		.4byte	.LVL261
 9723 0ef3 66000000 		.4byte	.LVL263
 9724 0ef7 0100     		.2byte	0x1
 9725 0ef9 53       		.byte	0x53
 9726 0efa 6A000000 		.4byte	.LVL265
 9727 0efe 6C000000 		.4byte	.LVL266
ARM GAS  C:\Users\Rajesh\AppData\Local\Temp\ccFou9eL.s 			page 197


 9728 0f02 0100     		.2byte	0x1
 9729 0f04 53       		.byte	0x53
 9730 0f05 00000000 		.4byte	0
 9731 0f09 00000000 		.4byte	0
 9732              	.LLST85:
 9733 0f0d 00000000 		.4byte	.LVL273
 9734 0f11 2E000000 		.4byte	.LVL279
 9735 0f15 0100     		.2byte	0x1
 9736 0f17 50       		.byte	0x50
 9737 0f18 2E000000 		.4byte	.LVL279
 9738 0f1c 30000000 		.4byte	.LVL280
 9739 0f20 0100     		.2byte	0x1
 9740 0f22 54       		.byte	0x54
 9741 0f23 30000000 		.4byte	.LVL280
 9742 0f27 35000000 		.4byte	.LVL282-1
 9743 0f2b 0100     		.2byte	0x1
 9744 0f2d 50       		.byte	0x50
 9745 0f2e 35000000 		.4byte	.LVL282-1
 9746 0f32 72000000 		.4byte	.LVL287
 9747 0f36 0100     		.2byte	0x1
 9748 0f38 54       		.byte	0x54
 9749 0f39 72000000 		.4byte	.LVL287
 9750 0f3d 74000000 		.4byte	.LFE16
 9751 0f41 0400     		.2byte	0x4
 9752 0f43 F3       		.byte	0xf3
 9753 0f44 01       		.uleb128 0x1
 9754 0f45 50       		.byte	0x50
 9755 0f46 9F       		.byte	0x9f
 9756 0f47 00000000 		.4byte	0
 9757 0f4b 00000000 		.4byte	0
 9758              	.LLST86:
 9759 0f4f 00000000 		.4byte	.LVL273
 9760 0f53 32000000 		.4byte	.LVL281
 9761 0f57 0100     		.2byte	0x1
 9762 0f59 51       		.byte	0x51
 9763 0f5a 32000000 		.4byte	.LVL281
 9764 0f5e 72000000 		.4byte	.LVL288
 9765 0f62 0100     		.2byte	0x1
 9766 0f64 56       		.byte	0x56
 9767 0f65 72000000 		.4byte	.LVL288
 9768 0f69 74000000 		.4byte	.LFE16
 9769 0f6d 0400     		.2byte	0x4
 9770 0f6f F3       		.byte	0xf3
 9771 0f70 01       		.uleb128 0x1
 9772 0f71 51       		.byte	0x51
 9773 0f72 9F       		.byte	0x9f
 9774 0f73 00000000 		.4byte	0
 9775 0f77 00000000 		.4byte	0
 9776              	.LLST87:
 9777 0f7b 00000000 		.4byte	.LVL273
 9778 0f7f 0C000000 		.4byte	.LVL275
 9779 0f83 0100     		.2byte	0x1
 9780 0f85 52       		.byte	0x52
 9781 0f86 0C000000 		.4byte	.LVL275
 9782 0f8a 5E000000 		.4byte	.LVL285
 9783 0f8e 0100     		.2byte	0x1
 9784 0f90 55       		.byte	0x55
ARM GAS  C:\Users\Rajesh\AppData\Local\Temp\ccFou9eL.s 			page 198


 9785 0f91 5E000000 		.4byte	.LVL285
 9786 0f95 74000000 		.4byte	.LFE16
 9787 0f99 0400     		.2byte	0x4
 9788 0f9b F3       		.byte	0xf3
 9789 0f9c 01       		.uleb128 0x1
 9790 0f9d 52       		.byte	0x52
 9791 0f9e 9F       		.byte	0x9f
 9792 0f9f 00000000 		.4byte	0
 9793 0fa3 00000000 		.4byte	0
 9794              	.LLST88:
 9795 0fa7 0A000000 		.4byte	.LVL274
 9796 0fab 36000000 		.4byte	.LVL282
 9797 0faf 0200     		.2byte	0x2
 9798 0fb1 30       		.byte	0x30
 9799 0fb2 9F       		.byte	0x9f
 9800 0fb3 36000000 		.4byte	.LVL282
 9801 0fb7 48000000 		.4byte	.LVL283
 9802 0fbb 0100     		.2byte	0x1
 9803 0fbd 50       		.byte	0x50
 9804 0fbe 4C000000 		.4byte	.LVL284
 9805 0fc2 74000000 		.4byte	.LFE16
 9806 0fc6 0100     		.2byte	0x1
 9807 0fc8 50       		.byte	0x50
 9808 0fc9 00000000 		.4byte	0
 9809 0fcd 00000000 		.4byte	0
 9810              	.LLST89:
 9811 0fd1 18000000 		.4byte	.LVL276
 9812 0fd5 1E000000 		.4byte	.LVL277
 9813 0fd9 0100     		.2byte	0x1
 9814 0fdb 53       		.byte	0x53
 9815 0fdc 1E000000 		.4byte	.LVL277
 9816 0fe0 24000000 		.4byte	.LVL278
 9817 0fe4 0300     		.2byte	0x3
 9818 0fe6 70       		.byte	0x70
 9819 0fe7 9502     		.sleb128 277
 9820 0fe9 30000000 		.4byte	.LVL280
 9821 0fed 35000000 		.4byte	.LVL282-1
 9822 0ff1 0100     		.2byte	0x1
 9823 0ff3 53       		.byte	0x53
 9824 0ff4 00000000 		.4byte	0
 9825 0ff8 00000000 		.4byte	0
 9826              	.LLST90:
 9827 0ffc 00000000 		.4byte	.LVL289
 9828 1000 0F000000 		.4byte	.LVL292-1
 9829 1004 0100     		.2byte	0x1
 9830 1006 50       		.byte	0x50
 9831 1007 0F000000 		.4byte	.LVL292-1
 9832 100b 34000000 		.4byte	.LVL299
 9833 100f 0100     		.2byte	0x1
 9834 1011 54       		.byte	0x54
 9835 1012 34000000 		.4byte	.LVL299
 9836 1016 36000000 		.4byte	.LFE17
 9837 101a 0400     		.2byte	0x4
 9838 101c F3       		.byte	0xf3
 9839 101d 01       		.uleb128 0x1
 9840 101e 50       		.byte	0x50
 9841 101f 9F       		.byte	0x9f
ARM GAS  C:\Users\Rajesh\AppData\Local\Temp\ccFou9eL.s 			page 199


 9842 1020 00000000 		.4byte	0
 9843 1024 00000000 		.4byte	0
 9844              	.LLST91:
 9845 1028 00000000 		.4byte	.LVL289
 9846 102c 08000000 		.4byte	.LVL291
 9847 1030 0100     		.2byte	0x1
 9848 1032 51       		.byte	0x51
 9849 1033 08000000 		.4byte	.LVL291
 9850 1037 36000000 		.4byte	.LFE17
 9851 103b 0400     		.2byte	0x4
 9852 103d F3       		.byte	0xf3
 9853 103e 01       		.uleb128 0x1
 9854 103f 51       		.byte	0x51
 9855 1040 9F       		.byte	0x9f
 9856 1041 00000000 		.4byte	0
 9857 1045 00000000 		.4byte	0
 9858              	.LLST92:
 9859 1049 04000000 		.4byte	.LVL290
 9860 104d 10000000 		.4byte	.LVL292
 9861 1051 0200     		.2byte	0x2
 9862 1053 30       		.byte	0x30
 9863 1054 9F       		.byte	0x9f
 9864 1055 10000000 		.4byte	.LVL292
 9865 1059 16000000 		.4byte	.LVL293
 9866 105d 0100     		.2byte	0x1
 9867 105f 50       		.byte	0x50
 9868 1060 1A000000 		.4byte	.LVL294
 9869 1064 22000000 		.4byte	.LVL295
 9870 1068 0100     		.2byte	0x1
 9871 106a 50       		.byte	0x50
 9872 106b 26000000 		.4byte	.LVL296
 9873 106f 30000000 		.4byte	.LVL297
 9874 1073 0100     		.2byte	0x1
 9875 1075 50       		.byte	0x50
 9876 1076 34000000 		.4byte	.LVL298
 9877 107a 36000000 		.4byte	.LFE17
 9878 107e 0100     		.2byte	0x1
 9879 1080 50       		.byte	0x50
 9880 1081 00000000 		.4byte	0
 9881 1085 00000000 		.4byte	0
 9882              	.LLST93:
 9883 1089 00000000 		.4byte	.LVL300
 9884 108d 21000000 		.4byte	.LVL307-1
 9885 1091 0100     		.2byte	0x1
 9886 1093 50       		.byte	0x50
 9887 1094 21000000 		.4byte	.LVL307-1
 9888 1098 D0000000 		.4byte	.LFE18
 9889 109c 0200     		.2byte	0x2
 9890 109e 91       		.byte	0x91
 9891 109f 54       		.sleb128 -44
 9892 10a0 00000000 		.4byte	0
 9893 10a4 00000000 		.4byte	0
 9894              	.LLST94:
 9895 10a8 00000000 		.4byte	.LVL300
 9896 10ac 1C000000 		.4byte	.LVL306
 9897 10b0 0100     		.2byte	0x1
 9898 10b2 51       		.byte	0x51
ARM GAS  C:\Users\Rajesh\AppData\Local\Temp\ccFou9eL.s 			page 200


 9899 10b3 1C000000 		.4byte	.LVL306
 9900 10b7 D0000000 		.4byte	.LFE18
 9901 10bb 0400     		.2byte	0x4
 9902 10bd F3       		.byte	0xf3
 9903 10be 01       		.uleb128 0x1
 9904 10bf 51       		.byte	0x51
 9905 10c0 9F       		.byte	0x9f
 9906 10c1 00000000 		.4byte	0
 9907 10c5 00000000 		.4byte	0
 9908              	.LLST95:
 9909 10c9 00000000 		.4byte	.LVL300
 9910 10cd 14000000 		.4byte	.LVL304
 9911 10d1 0100     		.2byte	0x1
 9912 10d3 52       		.byte	0x52
 9913 10d4 14000000 		.4byte	.LVL304
 9914 10d8 D0000000 		.4byte	.LFE18
 9915 10dc 0400     		.2byte	0x4
 9916 10de F3       		.byte	0xf3
 9917 10df 01       		.uleb128 0x1
 9918 10e0 52       		.byte	0x52
 9919 10e1 9F       		.byte	0x9f
 9920 10e2 00000000 		.4byte	0
 9921 10e6 00000000 		.4byte	0
 9922              	.LLST96:
 9923 10ea 00000000 		.4byte	.LVL300
 9924 10ee 0C000000 		.4byte	.LVL301
 9925 10f2 0100     		.2byte	0x1
 9926 10f4 53       		.byte	0x53
 9927 10f5 0C000000 		.4byte	.LVL301
 9928 10f9 D0000000 		.4byte	.LFE18
 9929 10fd 0400     		.2byte	0x4
 9930 10ff F3       		.byte	0xf3
 9931 1100 01       		.uleb128 0x1
 9932 1101 53       		.byte	0x53
 9933 1102 9F       		.byte	0x9f
 9934 1103 00000000 		.4byte	0
 9935 1107 00000000 		.4byte	0
 9936              	.LLST97:
 9937 110b 00000000 		.4byte	.LVL300
 9938 110f 0C000000 		.4byte	.LVL301
 9939 1113 0200     		.2byte	0x2
 9940 1115 91       		.byte	0x91
 9941 1116 08       		.sleb128 8
 9942 1117 0C000000 		.4byte	.LVL301
 9943 111b 10000000 		.4byte	.LVL302
 9944 111f 0200     		.2byte	0x2
 9945 1121 73       		.byte	0x73
 9946 1122 00       		.sleb128 0
 9947 1123 10000000 		.4byte	.LVL302
 9948 1127 D0000000 		.4byte	.LFE18
 9949 112b 0200     		.2byte	0x2
 9950 112d 91       		.byte	0x91
 9951 112e 08       		.sleb128 8
 9952 112f 00000000 		.4byte	0
 9953 1133 00000000 		.4byte	0
 9954              	.LLST98:
 9955 1137 00000000 		.4byte	.LVL300
ARM GAS  C:\Users\Rajesh\AppData\Local\Temp\ccFou9eL.s 			page 201


 9956 113b 10000000 		.4byte	.LVL302
 9957 113f 0200     		.2byte	0x2
 9958 1141 91       		.byte	0x91
 9959 1142 0C       		.sleb128 12
 9960 1143 10000000 		.4byte	.LVL302
 9961 1147 16000000 		.4byte	.LVL305
 9962 114b 0200     		.2byte	0x2
 9963 114d 73       		.byte	0x73
 9964 114e 00       		.sleb128 0
 9965 114f 16000000 		.4byte	.LVL305
 9966 1153 D0000000 		.4byte	.LFE18
 9967 1157 0200     		.2byte	0x2
 9968 1159 91       		.byte	0x91
 9969 115a 0C       		.sleb128 12
 9970 115b 00000000 		.4byte	0
 9971 115f 00000000 		.4byte	0
 9972              	.LLST99:
 9973 1163 12000000 		.4byte	.LVL303
 9974 1167 24000000 		.4byte	.LVL308
 9975 116b 0200     		.2byte	0x2
 9976 116d 30       		.byte	0x30
 9977 116e 9F       		.byte	0x9f
 9978 116f 24000000 		.4byte	.LVL308
 9979 1173 3E000000 		.4byte	.LVL312
 9980 1177 0100     		.2byte	0x1
 9981 1179 55       		.byte	0x55
 9982 117a 40000000 		.4byte	.LVL313
 9983 117e 54000000 		.4byte	.LVL315
 9984 1182 0100     		.2byte	0x1
 9985 1184 55       		.byte	0x55
 9986 1185 56000000 		.4byte	.LVL316
 9987 1189 68000000 		.4byte	.LVL318
 9988 118d 0100     		.2byte	0x1
 9989 118f 55       		.byte	0x55
 9990 1190 6A000000 		.4byte	.LVL319
 9991 1194 7C000000 		.4byte	.LVL321
 9992 1198 0100     		.2byte	0x1
 9993 119a 55       		.byte	0x55
 9994 119b 7E000000 		.4byte	.LVL322
 9995 119f 90000000 		.4byte	.LVL324
 9996 11a3 0100     		.2byte	0x1
 9997 11a5 55       		.byte	0x55
 9998 11a6 92000000 		.4byte	.LVL325
 9999 11aa A0000000 		.4byte	.LVL327
 10000 11ae 0100     		.2byte	0x1
 10001 11b0 55       		.byte	0x55
 10002 11b1 A2000000 		.4byte	.LVL328
 10003 11b5 BE000000 		.4byte	.LVL332
 10004 11b9 0100     		.2byte	0x1
 10005 11bb 55       		.byte	0x55
 10006 11bc BE000000 		.4byte	.LVL332
 10007 11c0 D0000000 		.4byte	.LFE18
 10008 11c4 0100     		.2byte	0x1
 10009 11c6 50       		.byte	0x50
 10010 11c7 00000000 		.4byte	0
 10011 11cb 00000000 		.4byte	0
 10012              	.LLST100:
ARM GAS  C:\Users\Rajesh\AppData\Local\Temp\ccFou9eL.s 			page 202


 10013 11cf 00000000 		.4byte	.LVL333
 10014 11d3 2C000000 		.4byte	.LVL341
 10015 11d7 0100     		.2byte	0x1
 10016 11d9 50       		.byte	0x50
 10017 11da 2C000000 		.4byte	.LVL341
 10018 11de 8A000000 		.4byte	.LVL351
 10019 11e2 0100     		.2byte	0x1
 10020 11e4 54       		.byte	0x54
 10021 11e5 8A000000 		.4byte	.LVL351
 10022 11e9 8C000000 		.4byte	.LFE19
 10023 11ed 0400     		.2byte	0x4
 10024 11ef F3       		.byte	0xf3
 10025 11f0 01       		.uleb128 0x1
 10026 11f1 50       		.byte	0x50
 10027 11f2 9F       		.byte	0x9f
 10028 11f3 00000000 		.4byte	0
 10029 11f7 00000000 		.4byte	0
 10030              	.LLST101:
 10031 11fb 00000000 		.4byte	.LVL333
 10032 11ff 12000000 		.4byte	.LVL337
 10033 1203 0100     		.2byte	0x1
 10034 1205 51       		.byte	0x51
 10035 1206 12000000 		.4byte	.LVL337
 10036 120a 8A000000 		.4byte	.LVL352
 10037 120e 0100     		.2byte	0x1
 10038 1210 55       		.byte	0x55
 10039 1211 8A000000 		.4byte	.LVL352
 10040 1215 8C000000 		.4byte	.LFE19
 10041 1219 0400     		.2byte	0x4
 10042 121b F3       		.byte	0xf3
 10043 121c 01       		.uleb128 0x1
 10044 121d 51       		.byte	0x51
 10045 121e 9F       		.byte	0x9f
 10046 121f 00000000 		.4byte	0
 10047 1223 00000000 		.4byte	0
 10048              	.LLST102:
 10049 1227 00000000 		.4byte	.LVL333
 10050 122b 0E000000 		.4byte	.LVL335
 10051 122f 0100     		.2byte	0x1
 10052 1231 52       		.byte	0x52
 10053 1232 0E000000 		.4byte	.LVL335
 10054 1236 8C000000 		.4byte	.LFE19
 10055 123a 0400     		.2byte	0x4
 10056 123c F3       		.byte	0xf3
 10057 123d 01       		.uleb128 0x1
 10058 123e 52       		.byte	0x52
 10059 123f 9F       		.byte	0x9f
 10060 1240 00000000 		.4byte	0
 10061 1244 00000000 		.4byte	0
 10062              	.LLST103:
 10063 1248 00000000 		.4byte	.LVL333
 10064 124c 10000000 		.4byte	.LVL336
 10065 1250 0100     		.2byte	0x1
 10066 1252 53       		.byte	0x53
 10067 1253 10000000 		.4byte	.LVL336
 10068 1257 8C000000 		.4byte	.LFE19
 10069 125b 0400     		.2byte	0x4
ARM GAS  C:\Users\Rajesh\AppData\Local\Temp\ccFou9eL.s 			page 203


 10070 125d F3       		.byte	0xf3
 10071 125e 01       		.uleb128 0x1
 10072 125f 53       		.byte	0x53
 10073 1260 9F       		.byte	0x9f
 10074 1261 00000000 		.4byte	0
 10075 1265 00000000 		.4byte	0
 10076              	.LLST104:
 10077 1269 0C000000 		.4byte	.LVL334
 10078 126d 30000000 		.4byte	.LVL342
 10079 1271 0200     		.2byte	0x2
 10080 1273 30       		.byte	0x30
 10081 1274 9F       		.byte	0x9f
 10082 1275 30000000 		.4byte	.LVL342
 10083 1279 38000000 		.4byte	.LVL343
 10084 127d 0100     		.2byte	0x1
 10085 127f 50       		.byte	0x50
 10086 1280 3C000000 		.4byte	.LVL344
 10087 1284 62000000 		.4byte	.LVL345
 10088 1288 0100     		.2byte	0x1
 10089 128a 50       		.byte	0x50
 10090 128b 66000000 		.4byte	.LVL346
 10091 128f 7A000000 		.4byte	.LVL348
 10092 1293 0100     		.2byte	0x1
 10093 1295 50       		.byte	0x50
 10094 1296 7E000000 		.4byte	.LVL349
 10095 129a 8C000000 		.4byte	.LFE19
 10096 129e 0100     		.2byte	0x1
 10097 12a0 50       		.byte	0x50
 10098 12a1 00000000 		.4byte	0
 10099 12a5 00000000 		.4byte	0
 10100              	.LLST105:
 10101 12a9 0C000000 		.4byte	.LVL334
 10102 12ad 22000000 		.4byte	.LVL338
 10103 12b1 0200     		.2byte	0x2
 10104 12b3 30       		.byte	0x30
 10105 12b4 9F       		.byte	0x9f
 10106 12b5 22000000 		.4byte	.LVL338
 10107 12b9 24000000 		.4byte	.LVL339
 10108 12bd 0100     		.2byte	0x1
 10109 12bf 56       		.byte	0x56
 10110 12c0 24000000 		.4byte	.LVL339
 10111 12c4 26000000 		.4byte	.LVL340
 10112 12c8 0200     		.2byte	0x2
 10113 12ca 30       		.byte	0x30
 10114 12cb 9F       		.byte	0x9f
 10115 12cc 26000000 		.4byte	.LVL340
 10116 12d0 8A000000 		.4byte	.LVL353
 10117 12d4 0100     		.2byte	0x1
 10118 12d6 56       		.byte	0x56
 10119 12d7 00000000 		.4byte	0
 10120 12db 00000000 		.4byte	0
 10121              	.LLST106:
 10122 12df 00000000 		.4byte	.LVL354
 10123 12e3 1E000000 		.4byte	.LVL362
 10124 12e7 0100     		.2byte	0x1
 10125 12e9 50       		.byte	0x50
 10126 12ea 1E000000 		.4byte	.LVL362
ARM GAS  C:\Users\Rajesh\AppData\Local\Temp\ccFou9eL.s 			page 204


 10127 12ee 7A000000 		.4byte	.LVL372
 10128 12f2 0100     		.2byte	0x1
 10129 12f4 54       		.byte	0x54
 10130 12f5 7A000000 		.4byte	.LVL372
 10131 12f9 7C000000 		.4byte	.LFE20
 10132 12fd 0400     		.2byte	0x4
 10133 12ff F3       		.byte	0xf3
 10134 1300 01       		.uleb128 0x1
 10135 1301 50       		.byte	0x50
 10136 1302 9F       		.byte	0x9f
 10137 1303 00000000 		.4byte	0
 10138 1307 00000000 		.4byte	0
 10139              	.LLST107:
 10140 130b 00000000 		.4byte	.LVL354
 10141 130f 1C000000 		.4byte	.LVL361
 10142 1313 0100     		.2byte	0x1
 10143 1315 51       		.byte	0x51
 10144 1316 1C000000 		.4byte	.LVL361
 10145 131a 7A000000 		.4byte	.LVL373
 10146 131e 0100     		.2byte	0x1
 10147 1320 55       		.byte	0x55
 10148 1321 7A000000 		.4byte	.LVL373
 10149 1325 7C000000 		.4byte	.LFE20
 10150 1329 0400     		.2byte	0x4
 10151 132b F3       		.byte	0xf3
 10152 132c 01       		.uleb128 0x1
 10153 132d 51       		.byte	0x51
 10154 132e 9F       		.byte	0x9f
 10155 132f 00000000 		.4byte	0
 10156 1333 00000000 		.4byte	0
 10157              	.LLST108:
 10158 1337 00000000 		.4byte	.LVL354
 10159 133b 1A000000 		.4byte	.LVL360
 10160 133f 0100     		.2byte	0x1
 10161 1341 52       		.byte	0x52
 10162 1342 1A000000 		.4byte	.LVL360
 10163 1346 7C000000 		.4byte	.LFE20
 10164 134a 0400     		.2byte	0x4
 10165 134c F3       		.byte	0xf3
 10166 134d 01       		.uleb128 0x1
 10167 134e 52       		.byte	0x52
 10168 134f 9F       		.byte	0x9f
 10169 1350 00000000 		.4byte	0
 10170 1354 00000000 		.4byte	0
 10171              	.LLST109:
 10172 1358 00000000 		.4byte	.LVL354
 10173 135c 10000000 		.4byte	.LVL356
 10174 1360 0100     		.2byte	0x1
 10175 1362 53       		.byte	0x53
 10176 1363 10000000 		.4byte	.LVL356
 10177 1367 16000000 		.4byte	.LVL358
 10178 136b 0400     		.2byte	0x4
 10179 136d F3       		.byte	0xf3
 10180 136e 01       		.uleb128 0x1
 10181 136f 53       		.byte	0x53
 10182 1370 9F       		.byte	0x9f
 10183 1371 16000000 		.4byte	.LVL358
ARM GAS  C:\Users\Rajesh\AppData\Local\Temp\ccFou9eL.s 			page 205


 10184 1375 18000000 		.4byte	.LVL359
 10185 1379 0100     		.2byte	0x1
 10186 137b 53       		.byte	0x53
 10187 137c 18000000 		.4byte	.LVL359
 10188 1380 7C000000 		.4byte	.LFE20
 10189 1384 0400     		.2byte	0x4
 10190 1386 F3       		.byte	0xf3
 10191 1387 01       		.uleb128 0x1
 10192 1388 53       		.byte	0x53
 10193 1389 9F       		.byte	0x9f
 10194 138a 00000000 		.4byte	0
 10195 138e 00000000 		.4byte	0
 10196              	.LLST110:
 10197 1392 0C000000 		.4byte	.LVL355
 10198 1396 22000000 		.4byte	.LVL363
 10199 139a 0200     		.2byte	0x2
 10200 139c 30       		.byte	0x30
 10201 139d 9F       		.byte	0x9f
 10202 139e 22000000 		.4byte	.LVL363
 10203 13a2 2A000000 		.4byte	.LVL364
 10204 13a6 0100     		.2byte	0x1
 10205 13a8 50       		.byte	0x50
 10206 13a9 2E000000 		.4byte	.LVL365
 10207 13ad 52000000 		.4byte	.LVL366
 10208 13b1 0100     		.2byte	0x1
 10209 13b3 50       		.byte	0x50
 10210 13b4 56000000 		.4byte	.LVL367
 10211 13b8 6A000000 		.4byte	.LVL369
 10212 13bc 0100     		.2byte	0x1
 10213 13be 50       		.byte	0x50
 10214 13bf 6E000000 		.4byte	.LVL370
 10215 13c3 7C000000 		.4byte	.LFE20
 10216 13c7 0100     		.2byte	0x1
 10217 13c9 50       		.byte	0x50
 10218 13ca 00000000 		.4byte	0
 10219 13ce 00000000 		.4byte	0
 10220              	.LLST111:
 10221 13d2 0C000000 		.4byte	.LVL355
 10222 13d6 14000000 		.4byte	.LVL357
 10223 13da 0200     		.2byte	0x2
 10224 13dc 30       		.byte	0x30
 10225 13dd 9F       		.byte	0x9f
 10226 13de 14000000 		.4byte	.LVL357
 10227 13e2 16000000 		.4byte	.LVL358
 10228 13e6 0100     		.2byte	0x1
 10229 13e8 56       		.byte	0x56
 10230 13e9 16000000 		.4byte	.LVL358
 10231 13ed 18000000 		.4byte	.LVL359
 10232 13f1 0200     		.2byte	0x2
 10233 13f3 30       		.byte	0x30
 10234 13f4 9F       		.byte	0x9f
 10235 13f5 18000000 		.4byte	.LVL359
 10236 13f9 7A000000 		.4byte	.LVL374
 10237 13fd 0100     		.2byte	0x1
 10238 13ff 56       		.byte	0x56
 10239 1400 00000000 		.4byte	0
 10240 1404 00000000 		.4byte	0
ARM GAS  C:\Users\Rajesh\AppData\Local\Temp\ccFou9eL.s 			page 206


 10241              	.LLST112:
 10242 1408 00000000 		.4byte	.LVL375
 10243 140c 15000000 		.4byte	.LVL380-1
 10244 1410 0100     		.2byte	0x1
 10245 1412 50       		.byte	0x50
 10246 1413 15000000 		.4byte	.LVL380-1
 10247 1417 3E000000 		.4byte	.LVL386
 10248 141b 0100     		.2byte	0x1
 10249 141d 54       		.byte	0x54
 10250 141e 3E000000 		.4byte	.LVL386
 10251 1422 40000000 		.4byte	.LFE21
 10252 1426 0400     		.2byte	0x4
 10253 1428 F3       		.byte	0xf3
 10254 1429 01       		.uleb128 0x1
 10255 142a 50       		.byte	0x50
 10256 142b 9F       		.byte	0x9f
 10257 142c 00000000 		.4byte	0
 10258 1430 00000000 		.4byte	0
 10259              	.LLST113:
 10260 1434 00000000 		.4byte	.LVL375
 10261 1438 15000000 		.4byte	.LVL380-1
 10262 143c 0100     		.2byte	0x1
 10263 143e 51       		.byte	0x51
 10264 143f 15000000 		.4byte	.LVL380-1
 10265 1443 40000000 		.4byte	.LFE21
 10266 1447 0400     		.2byte	0x4
 10267 1449 F3       		.byte	0xf3
 10268 144a 01       		.uleb128 0x1
 10269 144b 51       		.byte	0x51
 10270 144c 9F       		.byte	0x9f
 10271 144d 00000000 		.4byte	0
 10272 1451 00000000 		.4byte	0
 10273              	.LLST114:
 10274 1455 00000000 		.4byte	.LVL375
 10275 1459 12000000 		.4byte	.LVL379
 10276 145d 0100     		.2byte	0x1
 10277 145f 52       		.byte	0x52
 10278 1460 12000000 		.4byte	.LVL379
 10279 1464 3E000000 		.4byte	.LVL387
 10280 1468 0100     		.2byte	0x1
 10281 146a 56       		.byte	0x56
 10282 146b 3E000000 		.4byte	.LVL387
 10283 146f 40000000 		.4byte	.LFE21
 10284 1473 0400     		.2byte	0x4
 10285 1475 F3       		.byte	0xf3
 10286 1476 01       		.uleb128 0x1
 10287 1477 52       		.byte	0x52
 10288 1478 9F       		.byte	0x9f
 10289 1479 00000000 		.4byte	0
 10290 147d 00000000 		.4byte	0
 10291              	.LLST115:
 10292 1481 00000000 		.4byte	.LVL375
 10293 1485 0A000000 		.4byte	.LVL377
 10294 1489 0100     		.2byte	0x1
 10295 148b 53       		.byte	0x53
 10296 148c 0A000000 		.4byte	.LVL377
 10297 1490 40000000 		.4byte	.LFE21
ARM GAS  C:\Users\Rajesh\AppData\Local\Temp\ccFou9eL.s 			page 207


 10298 1494 0400     		.2byte	0x4
 10299 1496 F3       		.byte	0xf3
 10300 1497 01       		.uleb128 0x1
 10301 1498 53       		.byte	0x53
 10302 1499 9F       		.byte	0x9f
 10303 149a 00000000 		.4byte	0
 10304 149e 00000000 		.4byte	0
 10305              	.LLST116:
 10306 14a2 08000000 		.4byte	.LVL376
 10307 14a6 16000000 		.4byte	.LVL380
 10308 14aa 0200     		.2byte	0x2
 10309 14ac 30       		.byte	0x30
 10310 14ad 9F       		.byte	0x9f
 10311 14ae 16000000 		.4byte	.LVL380
 10312 14b2 22000000 		.4byte	.LVL381
 10313 14b6 0100     		.2byte	0x1
 10314 14b8 50       		.byte	0x50
 10315 14b9 26000000 		.4byte	.LVL382
 10316 14bd 30000000 		.4byte	.LVL383
 10317 14c1 0100     		.2byte	0x1
 10318 14c3 50       		.byte	0x50
 10319 14c4 34000000 		.4byte	.LVL384
 10320 14c8 40000000 		.4byte	.LFE21
 10321 14cc 0100     		.2byte	0x1
 10322 14ce 50       		.byte	0x50
 10323 14cf 00000000 		.4byte	0
 10324 14d3 00000000 		.4byte	0
 10325              	.LLST117:
 10326 14d7 08000000 		.4byte	.LVL376
 10327 14db 0E000000 		.4byte	.LVL378
 10328 14df 0200     		.2byte	0x2
 10329 14e1 30       		.byte	0x30
 10330 14e2 9F       		.byte	0x9f
 10331 14e3 0E000000 		.4byte	.LVL378
 10332 14e7 3E000000 		.4byte	.LVL388
 10333 14eb 0100     		.2byte	0x1
 10334 14ed 57       		.byte	0x57
 10335 14ee 00000000 		.4byte	0
 10336 14f2 00000000 		.4byte	0
 10337              	.LLST118:
 10338 14f6 00000000 		.4byte	.LVL389
 10339 14fa 4A000000 		.4byte	.LVL398
 10340 14fe 0100     		.2byte	0x1
 10341 1500 50       		.byte	0x50
 10342 1501 4A000000 		.4byte	.LVL398
 10343 1505 1C030000 		.4byte	.LVL477
 10344 1509 0100     		.2byte	0x1
 10345 150b 55       		.byte	0x55
 10346 150c 1C030000 		.4byte	.LVL477
 10347 1510 28030000 		.4byte	.LFE14
 10348 1514 0400     		.2byte	0x4
 10349 1516 F3       		.byte	0xf3
 10350 1517 01       		.uleb128 0x1
 10351 1518 50       		.byte	0x50
 10352 1519 9F       		.byte	0x9f
 10353 151a 00000000 		.4byte	0
 10354 151e 00000000 		.4byte	0
ARM GAS  C:\Users\Rajesh\AppData\Local\Temp\ccFou9eL.s 			page 208


 10355              	.LLST119:
 10356 1522 00000000 		.4byte	.LVL389
 10357 1526 1E000000 		.4byte	.LVL393
 10358 152a 0100     		.2byte	0x1
 10359 152c 51       		.byte	0x51
 10360 152d 1E000000 		.4byte	.LVL393
 10361 1531 28030000 		.4byte	.LFE14
 10362 1535 0300     		.2byte	0x3
 10363 1537 91       		.byte	0x91
 10364 1538 B87F     		.sleb128 -72
 10365 153a 00000000 		.4byte	0
 10366 153e 00000000 		.4byte	0
 10367              	.LLST120:
 10368 1542 00000000 		.4byte	.LVL389
 10369 1546 1C000000 		.4byte	.LVL392
 10370 154a 0100     		.2byte	0x1
 10371 154c 52       		.byte	0x52
 10372 154d 1C000000 		.4byte	.LVL392
 10373 1551 28030000 		.4byte	.LFE14
 10374 1555 0300     		.2byte	0x3
 10375 1557 91       		.byte	0x91
 10376 1558 BC7F     		.sleb128 -68
 10377 155a 00000000 		.4byte	0
 10378 155e 00000000 		.4byte	0
 10379              	.LLST121:
 10380 1562 14000000 		.4byte	.LVL390
 10381 1566 50000000 		.4byte	.LVL400
 10382 156a 0200     		.2byte	0x2
 10383 156c 30       		.byte	0x30
 10384 156d 9F       		.byte	0x9f
 10385 156e 50000000 		.4byte	.LVL400
 10386 1572 58000000 		.4byte	.LVL401
 10387 1576 0100     		.2byte	0x1
 10388 1578 50       		.byte	0x50
 10389 1579 58000000 		.4byte	.LVL401
 10390 157d FC000000 		.4byte	.LVL418
 10391 1581 0100     		.2byte	0x1
 10392 1583 54       		.byte	0x54
 10393 1584 FC000000 		.4byte	.LVL418
 10394 1588 2C010000 		.4byte	.LVL423
 10395 158c 0100     		.2byte	0x1
 10396 158e 50       		.byte	0x50
 10397 158f 2C010000 		.4byte	.LVL423
 10398 1593 66010000 		.4byte	.LVL428
 10399 1597 0100     		.2byte	0x1
 10400 1599 54       		.byte	0x54
 10401 159a 66010000 		.4byte	.LVL428
 10402 159e 74010000 		.4byte	.LVL430
 10403 15a2 0100     		.2byte	0x1
 10404 15a4 50       		.byte	0x50
 10405 15a5 74010000 		.4byte	.LVL430
 10406 15a9 7A010000 		.4byte	.LVL432
 10407 15ad 0100     		.2byte	0x1
 10408 15af 54       		.byte	0x54
 10409 15b0 7A010000 		.4byte	.LVL432
 10410 15b4 96010000 		.4byte	.LVL433
 10411 15b8 0100     		.2byte	0x1
ARM GAS  C:\Users\Rajesh\AppData\Local\Temp\ccFou9eL.s 			page 209


 10412 15ba 50       		.byte	0x50
 10413 15bb 96010000 		.4byte	.LVL433
 10414 15bf A2010000 		.4byte	.LVL434
 10415 15c3 0100     		.2byte	0x1
 10416 15c5 54       		.byte	0x54
 10417 15c6 A2010000 		.4byte	.LVL434
 10418 15ca D0010000 		.4byte	.LVL436
 10419 15ce 0100     		.2byte	0x1
 10420 15d0 50       		.byte	0x50
 10421 15d1 D0010000 		.4byte	.LVL436
 10422 15d5 58020000 		.4byte	.LVL449
 10423 15d9 0100     		.2byte	0x1
 10424 15db 54       		.byte	0x54
 10425 15dc 58020000 		.4byte	.LVL449
 10426 15e0 62020000 		.4byte	.LVL451
 10427 15e4 0100     		.2byte	0x1
 10428 15e6 50       		.byte	0x50
 10429 15e7 62020000 		.4byte	.LVL451
 10430 15eb 7C020000 		.4byte	.LVL456
 10431 15ef 0100     		.2byte	0x1
 10432 15f1 54       		.byte	0x54
 10433 15f2 7C020000 		.4byte	.LVL456
 10434 15f6 A0020000 		.4byte	.LVL460
 10435 15fa 0100     		.2byte	0x1
 10436 15fc 50       		.byte	0x50
 10437 15fd A0020000 		.4byte	.LVL460
 10438 1601 A6020000 		.4byte	.LVL462
 10439 1605 0100     		.2byte	0x1
 10440 1607 54       		.byte	0x54
 10441 1608 A6020000 		.4byte	.LVL462
 10442 160c A8020000 		.4byte	.LVL463
 10443 1610 0100     		.2byte	0x1
 10444 1612 50       		.byte	0x50
 10445 1613 A8020000 		.4byte	.LVL463
 10446 1617 BC020000 		.4byte	.LVL466
 10447 161b 0100     		.2byte	0x1
 10448 161d 54       		.byte	0x54
 10449 161e BC020000 		.4byte	.LVL466
 10450 1622 C6020000 		.4byte	.LVL467
 10451 1626 0100     		.2byte	0x1
 10452 1628 50       		.byte	0x50
 10453 1629 C6020000 		.4byte	.LVL467
 10454 162d CE020000 		.4byte	.LVL469
 10455 1631 0100     		.2byte	0x1
 10456 1633 54       		.byte	0x54
 10457 1634 CE020000 		.4byte	.LVL469
 10458 1638 D0020000 		.4byte	.LVL470
 10459 163c 0100     		.2byte	0x1
 10460 163e 50       		.byte	0x50
 10461 163f D4020000 		.4byte	.LVL471
 10462 1643 DC020000 		.4byte	.LVL472
 10463 1647 0100     		.2byte	0x1
 10464 1649 54       		.byte	0x54
 10465 164a E0020000 		.4byte	.LVL473
 10466 164e E6020000 		.4byte	.LVL474
 10467 1652 0100     		.2byte	0x1
 10468 1654 54       		.byte	0x54
ARM GAS  C:\Users\Rajesh\AppData\Local\Temp\ccFou9eL.s 			page 210


 10469 1655 E6020000 		.4byte	.LVL474
 10470 1659 EA020000 		.4byte	.LVL475
 10471 165d 0100     		.2byte	0x1
 10472 165f 50       		.byte	0x50
 10473 1660 EA020000 		.4byte	.LVL475
 10474 1664 1C030000 		.4byte	.LVL476
 10475 1668 0100     		.2byte	0x1
 10476 166a 54       		.byte	0x54
 10477 166b 00000000 		.4byte	0
 10478 166f 00000000 		.4byte	0
 10479              	.LLST122:
 10480 1673 14000000 		.4byte	.LVL390
 10481 1677 EC000000 		.4byte	.LVL416
 10482 167b 0200     		.2byte	0x2
 10483 167d 30       		.byte	0x30
 10484 167e 9F       		.byte	0x9f
 10485 167f EC000000 		.4byte	.LVL416
 10486 1683 96010000 		.4byte	.LVL433
 10487 1687 0100     		.2byte	0x1
 10488 1689 57       		.byte	0x57
 10489 168a 96010000 		.4byte	.LVL433
 10490 168e A2010000 		.4byte	.LVL434
 10491 1692 0200     		.2byte	0x2
 10492 1694 30       		.byte	0x30
 10493 1695 9F       		.byte	0x9f
 10494 1696 A2010000 		.4byte	.LVL434
 10495 169a 16020000 		.4byte	.LVL441
 10496 169e 0100     		.2byte	0x1
 10497 16a0 57       		.byte	0x57
 10498 16a1 16020000 		.4byte	.LVL441
 10499 16a5 32020000 		.4byte	.LVL444
 10500 16a9 0300     		.2byte	0x3
 10501 16ab 91       		.byte	0x91
 10502 16ac A87F     		.sleb128 -88
 10503 16ae 44020000 		.4byte	.LVL446
 10504 16b2 5E020000 		.4byte	.LVL450
 10505 16b6 0100     		.2byte	0x1
 10506 16b8 56       		.byte	0x56
 10507 16b9 5E020000 		.4byte	.LVL450
 10508 16bd 65020000 		.4byte	.LVL452-1
 10509 16c1 0100     		.2byte	0x1
 10510 16c3 53       		.byte	0x53
 10511 16c4 65020000 		.4byte	.LVL452-1
 10512 16c8 70020000 		.4byte	.LVL454
 10513 16cc 0300     		.2byte	0x3
 10514 16ce 91       		.byte	0x91
 10515 16cf A87F     		.sleb128 -88
 10516 16d1 70020000 		.4byte	.LVL454
 10517 16d5 79020000 		.4byte	.LVL455-1
 10518 16d9 0200     		.2byte	0x2
 10519 16db 73       		.byte	0x73
 10520 16dc 00       		.sleb128 0
 10521 16dd 79020000 		.4byte	.LVL455-1
 10522 16e1 82020000 		.4byte	.LVL457
 10523 16e5 0300     		.2byte	0x3
 10524 16e7 91       		.byte	0x91
 10525 16e8 A87F     		.sleb128 -88
ARM GAS  C:\Users\Rajesh\AppData\Local\Temp\ccFou9eL.s 			page 211


 10526 16ea 82020000 		.4byte	.LVL457
 10527 16ee 8A020000 		.4byte	.LVL458
 10528 16f2 0200     		.2byte	0x2
 10529 16f4 72       		.byte	0x72
 10530 16f5 00       		.sleb128 0
 10531 16f6 8A020000 		.4byte	.LVL458
 10532 16fa A3020000 		.4byte	.LVL461-1
 10533 16fe 0200     		.2byte	0x2
 10534 1700 7C       		.byte	0x7c
 10535 1701 00       		.sleb128 0
 10536 1702 A3020000 		.4byte	.LVL461-1
 10537 1706 BC020000 		.4byte	.LVL466
 10538 170a 0300     		.2byte	0x3
 10539 170c 91       		.byte	0x91
 10540 170d A87F     		.sleb128 -88
 10541 170f BC020000 		.4byte	.LVL466
 10542 1713 C9020000 		.4byte	.LVL468-1
 10543 1717 0200     		.2byte	0x2
 10544 1719 7C       		.byte	0x7c
 10545 171a 00       		.sleb128 0
 10546 171b C9020000 		.4byte	.LVL468-1
 10547 171f CE020000 		.4byte	.LVL469
 10548 1723 0300     		.2byte	0x3
 10549 1725 91       		.byte	0x91
 10550 1726 A87F     		.sleb128 -88
 10551 1728 CE020000 		.4byte	.LVL469
 10552 172c D0020000 		.4byte	.LVL470
 10553 1730 0200     		.2byte	0x2
 10554 1732 7C       		.byte	0x7c
 10555 1733 00       		.sleb128 0
 10556 1734 D0020000 		.4byte	.LVL470
 10557 1738 EA020000 		.4byte	.LVL475
 10558 173c 0300     		.2byte	0x3
 10559 173e 91       		.byte	0x91
 10560 173f A87F     		.sleb128 -88
 10561 1741 00000000 		.4byte	0
 10562 1745 00000000 		.4byte	0
 10563              	.LLST123:
 10564 1749 1A000000 		.4byte	.LVL391
 10565 174d 30000000 		.4byte	.LVL395
 10566 1751 0400     		.2byte	0x4
 10567 1753 0A       		.byte	0xa
 10568 1754 000A     		.2byte	0xa00
 10569 1756 9F       		.byte	0x9f
 10570 1757 30000000 		.4byte	.LVL395
 10571 175b 1A020000 		.4byte	.LVL442
 10572 175f 0100     		.2byte	0x1
 10573 1761 5A       		.byte	0x5a
 10574 1762 1A020000 		.4byte	.LVL442
 10575 1766 EA020000 		.4byte	.LVL475
 10576 176a 0100     		.2byte	0x1
 10577 176c 58       		.byte	0x58
 10578 176d 00000000 		.4byte	0
 10579 1771 00000000 		.4byte	0
 10580              	.LLST124:
 10581 1775 1A000000 		.4byte	.LVL391
 10582 1779 3E010000 		.4byte	.LVL426
ARM GAS  C:\Users\Rajesh\AppData\Local\Temp\ccFou9eL.s 			page 212


 10583 177d 0200     		.2byte	0x2
 10584 177f 30       		.byte	0x30
 10585 1780 9F       		.byte	0x9f
 10586 1781 3E010000 		.4byte	.LVL426
 10587 1785 96010000 		.4byte	.LVL433
 10588 1789 0200     		.2byte	0x2
 10589 178b 31       		.byte	0x31
 10590 178c 9F       		.byte	0x9f
 10591 178d 96010000 		.4byte	.LVL433
 10592 1791 AC010000 		.4byte	.LVL435
 10593 1795 0200     		.2byte	0x2
 10594 1797 30       		.byte	0x30
 10595 1798 9F       		.byte	0x9f
 10596 1799 AC010000 		.4byte	.LVL435
 10597 179d D0010000 		.4byte	.LVL436
 10598 17a1 0200     		.2byte	0x2
 10599 17a3 31       		.byte	0x31
 10600 17a4 9F       		.byte	0x9f
 10601 17a5 D0010000 		.4byte	.LVL436
 10602 17a9 1C030000 		.4byte	.LVL478
 10603 17ad 0100     		.2byte	0x1
 10604 17af 59       		.byte	0x59
 10605 17b0 00000000 		.4byte	0
 10606 17b4 00000000 		.4byte	0
 10607              	.LLST125:
 10608 17b8 1A000000 		.4byte	.LVL391
 10609 17bc 34000000 		.4byte	.LVL396
 10610 17c0 0200     		.2byte	0x2
 10611 17c2 30       		.byte	0x30
 10612 17c3 9F       		.byte	0x9f
 10613 17c4 34000000 		.4byte	.LVL396
 10614 17c8 4D000000 		.4byte	.LVL399-1
 10615 17cc 0100     		.2byte	0x1
 10616 17ce 53       		.byte	0x53
 10617 17cf 16010000 		.4byte	.LVL419
 10618 17d3 24010000 		.4byte	.LVL421
 10619 17d7 0100     		.2byte	0x1
 10620 17d9 53       		.byte	0x53
 10621 17da 26010000 		.4byte	.LVL422
 10622 17de 2C010000 		.4byte	.LVL423
 10623 17e2 0100     		.2byte	0x1
 10624 17e4 53       		.byte	0x53
 10625 17e5 00000000 		.4byte	0
 10626 17e9 00000000 		.4byte	0
 10627              	.LLST126:
 10628 17ed 1A000000 		.4byte	.LVL391
 10629 17f1 1A020000 		.4byte	.LVL442
 10630 17f5 0200     		.2byte	0x2
 10631 17f7 30       		.byte	0x30
 10632 17f8 9F       		.byte	0x9f
 10633 17f9 92020000 		.4byte	.LVL459
 10634 17fd D4020000 		.4byte	.LVL471
 10635 1801 0100     		.2byte	0x1
 10636 1803 56       		.byte	0x56
 10637 1804 00000000 		.4byte	0
 10638 1808 00000000 		.4byte	0
 10639              	.LLST127:
ARM GAS  C:\Users\Rajesh\AppData\Local\Temp\ccFou9eL.s 			page 213


 10640 180c 1A000000 		.4byte	.LVL391
 10641 1810 0C020000 		.4byte	.LVL440
 10642 1814 0200     		.2byte	0x2
 10643 1816 30       		.byte	0x30
 10644 1817 9F       		.byte	0x9f
 10645 1818 0C020000 		.4byte	.LVL440
 10646 181c 1A020000 		.4byte	.LVL442
 10647 1820 0400     		.2byte	0x4
 10648 1822 76       		.byte	0x76
 10649 1823 00       		.sleb128 0
 10650 1824 19       		.byte	0x19
 10651 1825 9F       		.byte	0x9f
 10652 1826 1A020000 		.4byte	.LVL442
 10653 182a BC020000 		.4byte	.LVL466
 10654 182e 0300     		.2byte	0x3
 10655 1830 91       		.byte	0x91
 10656 1831 B07F     		.sleb128 -80
 10657 1833 BC020000 		.4byte	.LVL466
 10658 1837 CE020000 		.4byte	.LVL469
 10659 183b 0100     		.2byte	0x1
 10660 183d 56       		.byte	0x56
 10661 183e CE020000 		.4byte	.LVL469
 10662 1842 EA020000 		.4byte	.LVL475
 10663 1846 0300     		.2byte	0x3
 10664 1848 91       		.byte	0x91
 10665 1849 B07F     		.sleb128 -80
 10666 184b 00000000 		.4byte	0
 10667 184f 00000000 		.4byte	0
 10668              	.LLST128:
 10669 1853 1A000000 		.4byte	.LVL391
 10670 1857 1A020000 		.4byte	.LVL442
 10671 185b 0200     		.2byte	0x2
 10672 185d 30       		.byte	0x30
 10673 185e 9F       		.byte	0x9f
 10674 185f 1A020000 		.4byte	.LVL442
 10675 1863 BA020000 		.4byte	.LVL465
 10676 1867 0100     		.2byte	0x1
 10677 1869 57       		.byte	0x57
 10678 186a BC020000 		.4byte	.LVL466
 10679 186e D0020000 		.4byte	.LVL470
 10680 1872 0100     		.2byte	0x1
 10681 1874 57       		.byte	0x57
 10682 1875 D4020000 		.4byte	.LVL471
 10683 1879 EA020000 		.4byte	.LVL475
 10684 187d 0100     		.2byte	0x1
 10685 187f 57       		.byte	0x57
 10686 1880 00000000 		.4byte	0
 10687 1884 00000000 		.4byte	0
 10688              	.LLST129:
 10689 1888 28000000 		.4byte	.LVL394
 10690 188c D0010000 		.4byte	.LVL436
 10691 1890 0200     		.2byte	0x2
 10692 1892 30       		.byte	0x30
 10693 1893 9F       		.byte	0x9f
 10694 1894 D0010000 		.4byte	.LVL436
 10695 1898 EC010000 		.4byte	.LVL437
 10696 189c 0300     		.2byte	0x3
ARM GAS  C:\Users\Rajesh\AppData\Local\Temp\ccFou9eL.s 			page 214


 10697 189e 91       		.byte	0x91
 10698 189f A47F     		.sleb128 -92
 10699 18a1 F0010000 		.4byte	.LVL438
 10700 18a5 1A020000 		.4byte	.LVL442
 10701 18a9 0200     		.2byte	0x2
 10702 18ab 33       		.byte	0x33
 10703 18ac 9F       		.byte	0x9f
 10704 18ad 1A020000 		.4byte	.LVL442
 10705 18b1 44020000 		.4byte	.LVL446
 10706 18b5 0300     		.2byte	0x3
 10707 18b7 91       		.byte	0x91
 10708 18b8 A47F     		.sleb128 -92
 10709 18ba 44020000 		.4byte	.LVL446
 10710 18be 46020000 		.4byte	.LVL447
 10711 18c2 0100     		.2byte	0x1
 10712 18c4 53       		.byte	0x53
 10713 18c5 46020000 		.4byte	.LVL447
 10714 18c9 B4020000 		.4byte	.LVL464
 10715 18cd 0300     		.2byte	0x3
 10716 18cf 91       		.byte	0x91
 10717 18d0 AC7F     		.sleb128 -84
 10718 18d2 B4020000 		.4byte	.LVL464
 10719 18d6 BC020000 		.4byte	.LVL466
 10720 18da 0300     		.2byte	0x3
 10721 18dc 91       		.byte	0x91
 10722 18dd A47F     		.sleb128 -92
 10723 18df BC020000 		.4byte	.LVL466
 10724 18e3 D4020000 		.4byte	.LVL471
 10725 18e7 0300     		.2byte	0x3
 10726 18e9 91       		.byte	0x91
 10727 18ea AC7F     		.sleb128 -84
 10728 18ec D4020000 		.4byte	.LVL471
 10729 18f0 E0020000 		.4byte	.LVL473
 10730 18f4 0300     		.2byte	0x3
 10731 18f6 91       		.byte	0x91
 10732 18f7 A47F     		.sleb128 -92
 10733 18f9 E0020000 		.4byte	.LVL473
 10734 18fd EA020000 		.4byte	.LVL475
 10735 1901 0300     		.2byte	0x3
 10736 1903 91       		.byte	0x91
 10737 1904 AC7F     		.sleb128 -84
 10738 1906 EA020000 		.4byte	.LVL475
 10739 190a 28030000 		.4byte	.LFE14
 10740 190e 0300     		.2byte	0x3
 10741 1910 91       		.byte	0x91
 10742 1911 A47F     		.sleb128 -92
 10743 1913 00000000 		.4byte	0
 10744 1917 00000000 		.4byte	0
 10745              	.LLST130:
 10746 191b 28000000 		.4byte	.LVL394
 10747 191f D0010000 		.4byte	.LVL436
 10748 1923 0200     		.2byte	0x2
 10749 1925 30       		.byte	0x30
 10750 1926 9F       		.byte	0x9f
 10751 1927 D0010000 		.4byte	.LVL436
 10752 192b 28030000 		.4byte	.LFE14
 10753 192f 0300     		.2byte	0x3
ARM GAS  C:\Users\Rajesh\AppData\Local\Temp\ccFou9eL.s 			page 215


 10754 1931 91       		.byte	0x91
 10755 1932 B47F     		.sleb128 -76
 10756 1934 00000000 		.4byte	0
 10757 1938 00000000 		.4byte	0
 10758              	.LLST131:
 10759 193c 00000000 		.4byte	.LVL479
 10760 1940 1F000000 		.4byte	.LVL483-1
 10761 1944 0100     		.2byte	0x1
 10762 1946 50       		.byte	0x50
 10763 1947 1F000000 		.4byte	.LVL483-1
 10764 194b 24000000 		.4byte	.LFE22
 10765 194f 0400     		.2byte	0x4
 10766 1951 F3       		.byte	0xf3
 10767 1952 01       		.uleb128 0x1
 10768 1953 50       		.byte	0x50
 10769 1954 9F       		.byte	0x9f
 10770 1955 00000000 		.4byte	0
 10771 1959 00000000 		.4byte	0
 10772              	.LLST132:
 10773 195d 00000000 		.4byte	.LVL479
 10774 1961 1C000000 		.4byte	.LVL482
 10775 1965 0100     		.2byte	0x1
 10776 1967 51       		.byte	0x51
 10777 1968 1C000000 		.4byte	.LVL482
 10778 196c 24000000 		.4byte	.LFE22
 10779 1970 0400     		.2byte	0x4
 10780 1972 F3       		.byte	0xf3
 10781 1973 01       		.uleb128 0x1
 10782 1974 51       		.byte	0x51
 10783 1975 9F       		.byte	0x9f
 10784 1976 00000000 		.4byte	0
 10785 197a 00000000 		.4byte	0
 10786              	.LLST133:
 10787 197e 00000000 		.4byte	.LVL479
 10788 1982 0E000000 		.4byte	.LVL481
 10789 1986 0100     		.2byte	0x1
 10790 1988 52       		.byte	0x52
 10791 1989 0E000000 		.4byte	.LVL481
 10792 198d 24000000 		.4byte	.LFE22
 10793 1991 0400     		.2byte	0x4
 10794 1993 F3       		.byte	0xf3
 10795 1994 01       		.uleb128 0x1
 10796 1995 52       		.byte	0x52
 10797 1996 9F       		.byte	0x9f
 10798 1997 00000000 		.4byte	0
 10799 199b 00000000 		.4byte	0
 10800              	.LLST134:
 10801 199f 06000000 		.4byte	.LVL480
 10802 19a3 20000000 		.4byte	.LVL483
 10803 19a7 0200     		.2byte	0x2
 10804 19a9 30       		.byte	0x30
 10805 19aa 9F       		.byte	0x9f
 10806 19ab 20000000 		.4byte	.LVL483
 10807 19af 24000000 		.4byte	.LFE22
 10808 19b3 0100     		.2byte	0x1
 10809 19b5 50       		.byte	0x50
 10810 19b6 00000000 		.4byte	0
ARM GAS  C:\Users\Rajesh\AppData\Local\Temp\ccFou9eL.s 			page 216


 10811 19ba 00000000 		.4byte	0
 10812              	.LLST135:
 10813 19be 00000000 		.4byte	.LVL484
 10814 19c2 17000000 		.4byte	.LVL488-1
 10815 19c6 0100     		.2byte	0x1
 10816 19c8 50       		.byte	0x50
 10817 19c9 17000000 		.4byte	.LVL488-1
 10818 19cd 1C000000 		.4byte	.LFE23
 10819 19d1 0400     		.2byte	0x4
 10820 19d3 F3       		.byte	0xf3
 10821 19d4 01       		.uleb128 0x1
 10822 19d5 50       		.byte	0x50
 10823 19d6 9F       		.byte	0x9f
 10824 19d7 00000000 		.4byte	0
 10825 19db 00000000 		.4byte	0
 10826              	.LLST136:
 10827 19df 00000000 		.4byte	.LVL484
 10828 19e3 14000000 		.4byte	.LVL487
 10829 19e7 0100     		.2byte	0x1
 10830 19e9 51       		.byte	0x51
 10831 19ea 14000000 		.4byte	.LVL487
 10832 19ee 17000000 		.4byte	.LVL488-1
 10833 19f2 0200     		.2byte	0x2
 10834 19f4 7D       		.byte	0x7d
 10835 19f5 00       		.sleb128 0
 10836 19f6 17000000 		.4byte	.LVL488-1
 10837 19fa 1C000000 		.4byte	.LFE23
 10838 19fe 0400     		.2byte	0x4
 10839 1a00 F3       		.byte	0xf3
 10840 1a01 01       		.uleb128 0x1
 10841 1a02 51       		.byte	0x51
 10842 1a03 9F       		.byte	0x9f
 10843 1a04 00000000 		.4byte	0
 10844 1a08 00000000 		.4byte	0
 10845              	.LLST137:
 10846 1a0c 00000000 		.4byte	.LVL484
 10847 1a10 12000000 		.4byte	.LVL486
 10848 1a14 0100     		.2byte	0x1
 10849 1a16 52       		.byte	0x52
 10850 1a17 12000000 		.4byte	.LVL486
 10851 1a1b 17000000 		.4byte	.LVL488-1
 10852 1a1f 0200     		.2byte	0x2
 10853 1a21 91       		.byte	0x91
 10854 1a22 6C       		.sleb128 -20
 10855 1a23 17000000 		.4byte	.LVL488-1
 10856 1a27 1C000000 		.4byte	.LFE23
 10857 1a2b 0400     		.2byte	0x4
 10858 1a2d F3       		.byte	0xf3
 10859 1a2e 01       		.uleb128 0x1
 10860 1a2f 52       		.byte	0x52
 10861 1a30 9F       		.byte	0x9f
 10862 1a31 00000000 		.4byte	0
 10863 1a35 00000000 		.4byte	0
 10864              	.LLST138:
 10865 1a39 04000000 		.4byte	.LVL485
 10866 1a3d 18000000 		.4byte	.LVL488
 10867 1a41 0200     		.2byte	0x2
ARM GAS  C:\Users\Rajesh\AppData\Local\Temp\ccFou9eL.s 			page 217


 10868 1a43 30       		.byte	0x30
 10869 1a44 9F       		.byte	0x9f
 10870 1a45 18000000 		.4byte	.LVL488
 10871 1a49 1C000000 		.4byte	.LFE23
 10872 1a4d 0100     		.2byte	0x1
 10873 1a4f 50       		.byte	0x50
 10874 1a50 00000000 		.4byte	0
 10875 1a54 00000000 		.4byte	0
 10876              		.section	.debug_aranges,"",%progbits
 10877 0000 CC000000 		.4byte	0xcc
 10878 0004 0200     		.2byte	0x2
 10879 0006 00000000 		.4byte	.Ldebug_info0
 10880 000a 04       		.byte	0x4
 10881 000b 00       		.byte	0
 10882 000c 0000     		.2byte	0
 10883 000e 0000     		.2byte	0
 10884 0010 00000000 		.4byte	.LFB1
 10885 0014 34010000 		.4byte	.LFE1-.LFB1
 10886 0018 00000000 		.4byte	.LFB2
 10887 001c FA000000 		.4byte	.LFE2-.LFB2
 10888 0020 00000000 		.4byte	.LFB3
 10889 0024 48000000 		.4byte	.LFE3-.LFB3
 10890 0028 00000000 		.4byte	.LFB4
 10891 002c 44000000 		.4byte	.LFE4-.LFB4
 10892 0030 00000000 		.4byte	.LFB5
 10893 0034 38000000 		.4byte	.LFE5-.LFB5
 10894 0038 00000000 		.4byte	.LFB6
 10895 003c 5C000000 		.4byte	.LFE6-.LFB6
 10896 0040 00000000 		.4byte	.LFB7
 10897 0044 18000000 		.4byte	.LFE7-.LFB7
 10898 0048 00000000 		.4byte	.LFB8
 10899 004c 22000000 		.4byte	.LFE8-.LFB8
 10900 0050 00000000 		.4byte	.LFB9
 10901 0054 92000000 		.4byte	.LFE9-.LFB9
 10902 0058 00000000 		.4byte	.LFB10
 10903 005c 0E000000 		.4byte	.LFE10-.LFB10
 10904 0060 00000000 		.4byte	.LFB11
 10905 0064 0E000000 		.4byte	.LFE11-.LFB11
 10906 0068 00000000 		.4byte	.LFB12
 10907 006c B2000000 		.4byte	.LFE12-.LFB12
 10908 0070 00000000 		.4byte	.LFB13
 10909 0074 68000000 		.4byte	.LFE13-.LFB13
 10910 0078 00000000 		.4byte	.LFB15
 10911 007c BA000000 		.4byte	.LFE15-.LFB15
 10912 0080 00000000 		.4byte	.LFB16
 10913 0084 74000000 		.4byte	.LFE16-.LFB16
 10914 0088 00000000 		.4byte	.LFB17
 10915 008c 36000000 		.4byte	.LFE17-.LFB17
 10916 0090 00000000 		.4byte	.LFB18
 10917 0094 D0000000 		.4byte	.LFE18-.LFB18
 10918 0098 00000000 		.4byte	.LFB19
 10919 009c 8C000000 		.4byte	.LFE19-.LFB19
 10920 00a0 00000000 		.4byte	.LFB20
 10921 00a4 7C000000 		.4byte	.LFE20-.LFB20
 10922 00a8 00000000 		.4byte	.LFB21
 10923 00ac 40000000 		.4byte	.LFE21-.LFB21
 10924 00b0 00000000 		.4byte	.LFB14
ARM GAS  C:\Users\Rajesh\AppData\Local\Temp\ccFou9eL.s 			page 218


 10925 00b4 28030000 		.4byte	.LFE14-.LFB14
 10926 00b8 00000000 		.4byte	.LFB22
 10927 00bc 24000000 		.4byte	.LFE22-.LFB22
 10928 00c0 00000000 		.4byte	.LFB23
 10929 00c4 1C000000 		.4byte	.LFE23-.LFB23
 10930 00c8 00000000 		.4byte	0
 10931 00cc 00000000 		.4byte	0
 10932              		.section	.debug_ranges,"",%progbits
 10933              	.Ldebug_ranges0:
 10934 0000 00000000 		.4byte	.LFB1
 10935 0004 34010000 		.4byte	.LFE1
 10936 0008 00000000 		.4byte	.LFB2
 10937 000c FA000000 		.4byte	.LFE2
 10938 0010 00000000 		.4byte	.LFB3
 10939 0014 48000000 		.4byte	.LFE3
 10940 0018 00000000 		.4byte	.LFB4
 10941 001c 44000000 		.4byte	.LFE4
 10942 0020 00000000 		.4byte	.LFB5
 10943 0024 38000000 		.4byte	.LFE5
 10944 0028 00000000 		.4byte	.LFB6
 10945 002c 5C000000 		.4byte	.LFE6
 10946 0030 00000000 		.4byte	.LFB7
 10947 0034 18000000 		.4byte	.LFE7
 10948 0038 00000000 		.4byte	.LFB8
 10949 003c 22000000 		.4byte	.LFE8
 10950 0040 00000000 		.4byte	.LFB9
 10951 0044 92000000 		.4byte	.LFE9
 10952 0048 00000000 		.4byte	.LFB10
 10953 004c 0E000000 		.4byte	.LFE10
 10954 0050 00000000 		.4byte	.LFB11
 10955 0054 0E000000 		.4byte	.LFE11
 10956 0058 00000000 		.4byte	.LFB12
 10957 005c B2000000 		.4byte	.LFE12
 10958 0060 00000000 		.4byte	.LFB13
 10959 0064 68000000 		.4byte	.LFE13
 10960 0068 00000000 		.4byte	.LFB15
 10961 006c BA000000 		.4byte	.LFE15
 10962 0070 00000000 		.4byte	.LFB16
 10963 0074 74000000 		.4byte	.LFE16
 10964 0078 00000000 		.4byte	.LFB17
 10965 007c 36000000 		.4byte	.LFE17
 10966 0080 00000000 		.4byte	.LFB18
 10967 0084 D0000000 		.4byte	.LFE18
 10968 0088 00000000 		.4byte	.LFB19
 10969 008c 8C000000 		.4byte	.LFE19
 10970 0090 00000000 		.4byte	.LFB20
 10971 0094 7C000000 		.4byte	.LFE20
 10972 0098 00000000 		.4byte	.LFB21
 10973 009c 40000000 		.4byte	.LFE21
 10974 00a0 00000000 		.4byte	.LFB14
 10975 00a4 28030000 		.4byte	.LFE14
 10976 00a8 00000000 		.4byte	.LFB22
 10977 00ac 24000000 		.4byte	.LFE22
 10978 00b0 00000000 		.4byte	.LFB23
 10979 00b4 1C000000 		.4byte	.LFE23
 10980 00b8 00000000 		.4byte	0
 10981 00bc 00000000 		.4byte	0
ARM GAS  C:\Users\Rajesh\AppData\Local\Temp\ccFou9eL.s 			page 219


 10982              		.section	.debug_line,"",%progbits
 10983              	.Ldebug_line0:
 10984 0000 70060000 		.section	.debug_str,"MS",%progbits,1
 10984      0200D101 
 10984      00000201 
 10984      FB0E0D00 
 10984      01010101 
 10985              	.LASF232:
 10986 0000 564C3533 		.ascii	"VL53L0X_perform_phase_calibration\000"
 10986      4C30585F 
 10986      70657266 
 10986      6F726D5F 
 10986      70686173 
 10987              	.LASF132:
 10988 0022 7369676E 		.ascii	"signalXTalkTotalPerSpad\000"
 10988      616C5854 
 10988      616C6B54 
 10988      6F74616C 
 10988      50657253 
 10989              	.LASF84:
 10990 003a 52656665 		.ascii	"ReferenceSpadType\000"
 10990      72656E63 
 10990      65537061 
 10990      64547970 
 10990      6500
 10991              	.LASF52:
 10992 004c 5369676E 		.ascii	"SignalRateRtnMegaCps\000"
 10992      616C5261 
 10992      74655274 
 10992      6E4D6567 
 10992      61437073 
 10993              	.LASF184:
 10994 0061 74656D70 		.ascii	"tempByte\000"
 10994      42797465 
 10994      00
 10995              	.LASF87:
 10996 006a 50617274 		.ascii	"PartUIDLower\000"
 10996      5549444C 
 10996      6F776572 
 10996      00
 10997              	.LASF119:
 10998 0077 564C3533 		.ascii	"VL53L0X_DEV\000"
 10998      4C30585F 
 10998      44455600 
 10999              	.LASF32:
 11000 0083 48697374 		.ascii	"HistogramMode\000"
 11000      6F677261 
 11000      6D4D6F64 
 11000      6500
 11001              	.LASF130:
 11002 0091 7854616C 		.ascii	"xTalkStoredMeanRange\000"
 11002      6B53746F 
 11002      7265644D 
 11002      65616E52 
 11002      616E6765 
 11003              	.LASF166:
 11004 00a6 64617461 		.ascii	"dataByte\000"
ARM GAS  C:\Users\Rajesh\AppData\Local\Temp\ccFou9eL.s 			page 220


 11004      42797465 
 11004      00
 11005              	.LASF140:
 11006 00af 53746F72 		.ascii	"StoredMeanRangeAsInt\000"
 11006      65644D65 
 11006      616E5261 
 11006      6E676541 
 11006      73496E74 
 11007              	.LASF35:
 11008 00c4 5854616C 		.ascii	"XTalkCompensationEnable\000"
 11008      6B436F6D 
 11008      70656E73 
 11008      6174696F 
 11008      6E456E61 
 11009              	.LASF75:
 11010 00dc 50726552 		.ascii	"PreRangeVcselPulsePeriod\000"
 11010      616E6765 
 11010      56637365 
 11010      6C50756C 
 11010      73655065 
 11011              	.LASF151:
 11012 00f5 704F6666 		.ascii	"pOffsetCalibrationDataMicroMeter\000"
 11012      73657443 
 11012      616C6962 
 11012      72617469 
 11012      6F6E4461 
 11013              	.LASF136:
 11014 0116 564C3533 		.ascii	"VL53L0X_perform_offset_calibration\000"
 11014      4C30585F 
 11014      70657266 
 11014      6F726D5F 
 11014      6F666673 
 11015              	.LASF205:
 11016 0139 63757272 		.ascii	"currentSpadIndex\000"
 11016      656E7453 
 11016      70616449 
 11016      6E646578 
 11016      00
 11017              	.LASF267:
 11018 014a 4170695C 		.ascii	"Api\\core\\src\\vl53l0x_api_calibration.c\000"
 11018      636F7265 
 11018      5C737263 
 11018      5C766C35 
 11018      336C3078 
 11019              	.LASF14:
 11020 0171 756E7369 		.ascii	"unsigned int\000"
 11020      676E6564 
 11020      20696E74 
 11020      00
 11021              	.LASF36:
 11022 017e 5854616C 		.ascii	"XTalkCompensationRangeMilliMeter\000"
 11022      6B436F6D 
 11022      70656E73 
 11022      6174696F 
 11022      6E52616E 
 11023              	.LASF160:
 11024 019f 6E657874 		.ascii	"next\000"
ARM GAS  C:\Users\Rajesh\AppData\Local\Temp\ccFou9eL.s 			page 221


 11024      00
 11025              	.LASF122:
 11026 01a4 53746174 		.ascii	"Status\000"
 11026      757300
 11027              	.LASF220:
 11028 01ab 72656164 		.ascii	"read_not_write\000"
 11028      5F6E6F74 
 11028      5F777269 
 11028      746500
 11029              	.LASF30:
 11030 01ba 564C3533 		.ascii	"VL53L0X_PowerModes\000"
 11030      4C30585F 
 11030      506F7765 
 11030      724D6F64 
 11030      657300
 11031              	.LASF82:
 11032 01cd 50726F64 		.ascii	"ProductId\000"
 11032      75637449 
 11032      6400
 11033              	.LASF226:
 11034 01d7 70686173 		.ascii	"phase_enable\000"
 11034      655F656E 
 11034      61626C65 
 11034      00
 11035              	.LASF39:
 11036 01e4 4C696D69 		.ascii	"LimitChecksEnable\000"
 11036      74436865 
 11036      636B7345 
 11036      6E61626C 
 11036      6500
 11037              	.LASF64:
 11038 01f6 4572726F 		.ascii	"ErrorStatus\000"
 11038      72537461 
 11038      74757300 
 11039              	.LASF53:
 11040 0202 416D6269 		.ascii	"AmbientRateRtnMegaCps\000"
 11040      656E7452 
 11040      61746552 
 11040      746E4D65 
 11040      67614370 
 11041              	.LASF8:
 11042 0218 5F5F696E 		.ascii	"__int32_t\000"
 11042      7433325F 
 11042      7400
 11043              	.LASF120:
 11044 0222 5854616C 		.ascii	"XTalkCalDistance\000"
 11044      6B43616C 
 11044      44697374 
 11044      616E6365 
 11044      00
 11045              	.LASF138:
 11046 0233 704F6666 		.ascii	"pOffsetMicroMeter\000"
 11046      7365744D 
 11046      6963726F 
 11046      4D657465 
 11046      7200
 11047              	.LASF129:
ARM GAS  C:\Users\Rajesh\AppData\Local\Temp\ccFou9eL.s 			page 222


 11048 0245 7854616C 		.ascii	"xTalkStoredMeanSignalRate\000"
 11048      6B53746F 
 11048      7265644D 
 11048      65616E53 
 11048      69676E61 
 11049              	.LASF253:
 11050 025f 564C3533 		.ascii	"VL53L0X_GetSequenceStepEnable\000"
 11050      4C30585F 
 11050      47657453 
 11050      65717565 
 11050      6E636553 
 11051              	.LASF175:
 11052 027d 636F756E 		.ascii	"count_enabled_spads\000"
 11052      745F656E 
 11052      61626C65 
 11052      645F7370 
 11052      61647300 
 11053              	.LASF240:
 11054 0291 6E656564 		.ascii	"needAptSpads\000"
 11054      41707453 
 11054      70616473 
 11054      00
 11055              	.LASF144:
 11056 029e 564C3533 		.ascii	"VL53L0X_set_offset_calibration_data_micro_meter\000"
 11056      4C30585F 
 11056      7365745F 
 11056      6F666673 
 11056      65745F63 
 11057              	.LASF207:
 11058 02ce 73706164 		.ascii	"spadArraySize\000"
 11058      41727261 
 11058      7953697A 
 11058      6500
 11059              	.LASF170:
 11060 02dc 71756164 		.ascii	"quadrant\000"
 11060      72616E74 
 11060      00
 11061              	.LASF199:
 11062 02e5 70657266 		.ascii	"perform_ref_signal_measurement\000"
 11062      6F726D5F 
 11062      7265665F 
 11062      7369676E 
 11062      616C5F6D 
 11063              	.LASF118:
 11064 0304 564C3533 		.ascii	"VL53L0X_Dev_t\000"
 11064      4C30585F 
 11064      4465765F 
 11064      7400
 11065              	.LASF42:
 11066 0312 57726170 		.ascii	"WrapAroundCheckEnable\000"
 11066      41726F75 
 11066      6E644368 
 11066      65636B45 
 11066      6E61626C 
 11067              	.LASF101:
 11068 0328 506F7765 		.ascii	"PowerMode\000"
 11068      724D6F64 
ARM GAS  C:\Users\Rajesh\AppData\Local\Temp\ccFou9eL.s 			page 223


 11068      6500
 11069              	.LASF238:
 11070 0332 6D696E69 		.ascii	"minimumSpadCount\000"
 11070      6D756D53 
 11070      70616443 
 11070      6F756E74 
 11070      00
 11071              	.LASF40:
 11072 0343 4C696D69 		.ascii	"LimitChecksStatus\000"
 11072      74436865 
 11072      636B7353 
 11072      74617475 
 11072      7300
 11073              	.LASF51:
 11074 0355 52616E67 		.ascii	"RangeDMaxMilliMeter\000"
 11074      65444D61 
 11074      784D696C 
 11074      6C694D65 
 11074      74657200 
 11075              	.LASF179:
 11076 0369 70497341 		.ascii	"pIsAperture\000"
 11076      70657274 
 11076      75726500 
 11077              	.LASF137:
 11078 0375 43616C44 		.ascii	"CalDistanceMilliMeter\000"
 11078      69737461 
 11078      6E63654D 
 11078      696C6C69 
 11078      4D657465 
 11079              	.LASF81:
 11080 038b 52657669 		.ascii	"Revision\000"
 11080      73696F6E 
 11080      00
 11081              	.LASF233:
 11082 0394 56687653 		.ascii	"VhvSettingsint\000"
 11082      65747469 
 11082      6E677369 
 11082      6E7400
 11083              	.LASF91:
 11084 03a3 50617274 		.ascii	"Part2PartOffsetNVMMicroMeter\000"
 11084      32506172 
 11084      744F6666 
 11084      7365744E 
 11084      564D4D69 
 11085              	.LASF173:
 11086 03c0 73706164 		.ascii	"spadArray\000"
 11086      41727261 
 11086      7900
 11087              	.LASF224:
 11088 03ca 70506861 		.ascii	"pPhaseCal\000"
 11088      73654361 
 11088      6C00
 11089              	.LASF22:
 11090 03d4 46697850 		.ascii	"FixPoint1616_t\000"
 11090      6F696E74 
 11090      31363136 
 11090      5F7400
ARM GAS  C:\Users\Rajesh\AppData\Local\Temp\ccFou9eL.s 			page 224


 11091              	.LASF89:
 11092 03e3 564C3533 		.ascii	"VL53L0X_DeviceSpecificParameters_t\000"
 11092      4C30585F 
 11092      44657669 
 11092      63655370 
 11092      65636966 
 11093              	.LASF20:
 11094 0406 75696E74 		.ascii	"uint32_t\000"
 11094      33325F74 
 11094      00
 11095              	.LASF15:
 11096 040f 696E7438 		.ascii	"int8_t\000"
 11096      5F7400
 11097              	.LASF248:
 11098 0416 564C3533 		.ascii	"VL53L0X_SetXTalkCompensationEnable\000"
 11098      4C30585F 
 11098      53657458 
 11098      54616C6B 
 11098      436F6D70 
 11099              	.LASF260:
 11100 0439 564C3533 		.ascii	"VL53L0X_ReadMulti\000"
 11100      4C30585F 
 11100      52656164 
 11100      4D756C74 
 11100      6900
 11101              	.LASF60:
 11102 044b 48697374 		.ascii	"HistogramType\000"
 11102      6F677261 
 11102      6D547970 
 11102      6500
 11103              	.LASF218:
 11104 0459 7668765F 		.ascii	"vhv_init_byte\000"
 11104      696E6974 
 11104      5F627974 
 11104      6500
 11105              	.LASF43:
 11106 0467 564C3533 		.ascii	"VL53L0X_DeviceParameters_t\000"
 11106      4C30585F 
 11106      44657669 
 11106      63655061 
 11106      72616D65 
 11107              	.LASF203:
 11108 0482 636F756E 		.ascii	"count\000"
 11108      7400
 11109              	.LASF195:
 11110 0488 696E6465 		.ascii	"index\000"
 11110      7800
 11111              	.LASF23:
 11112 048e 564C3533 		.ascii	"VL53L0X_DeviceError\000"
 11112      4C30585F 
 11112      44657669 
 11112      63654572 
 11112      726F7200 
 11113              	.LASF249:
 11114 04a2 564C3533 		.ascii	"VL53L0X_SetLimitCheckEnable\000"
 11114      4C30585F 
 11114      5365744C 
ARM GAS  C:\Users\Rajesh\AppData\Local\Temp\ccFou9eL.s 			page 225


 11114      696D6974 
 11114      43686563 
 11115              	.LASF103:
 11116 04be 74617267 		.ascii	"targetRefRate\000"
 11116      65745265 
 11116      66526174 
 11116      6500
 11117              	.LASF17:
 11118 04cc 696E7431 		.ascii	"int16_t\000"
 11118      365F7400 
 11119              	.LASF142:
 11120 04d4 53657175 		.ascii	"SequenceStepEnabled\000"
 11120      656E6365 
 11120      53746570 
 11120      456E6162 
 11120      6C656400 
 11121              	.LASF202:
 11122 04e8 564C3533 		.ascii	"VL53L0X_set_reference_spads\000"
 11122      4C30585F 
 11122      7365745F 
 11122      72656665 
 11122      72656E63 
 11123              	.LASF92:
 11124 0504 50617274 		.ascii	"Part2PartOffsetAdjustmentNVMMicroMeter\000"
 11124      32506172 
 11124      744F6666 
 11124      73657441 
 11124      646A7573 
 11125              	.LASF13:
 11126 052b 6C6F6E67 		.ascii	"long long unsigned int\000"
 11126      206C6F6E 
 11126      6720756E 
 11126      7369676E 
 11126      65642069 
 11127              	.LASF45:
 11128 0542 416D6254 		.ascii	"AmbTuningWindowFactor_K\000"
 11128      756E696E 
 11128      6757696E 
 11128      646F7746 
 11128      6163746F 
 11129              	.LASF172:
 11130 055a 656E6162 		.ascii	"enable_spad_bit\000"
 11130      6C655F73 
 11130      7061645F 
 11130      62697400 
 11131              	.LASF162:
 11132 056a 66696E65 		.ascii	"fineOffset\000"
 11132      4F666673 
 11132      657400
 11133              	.LASF237:
 11134 0575 6C617374 		.ascii	"lastSpadArray\000"
 11134      53706164 
 11134      41727261 
 11134      7900
 11135              	.LASF69:
 11136 0583 4F736346 		.ascii	"OscFrequencyMHz\000"
 11136      72657175 
ARM GAS  C:\Users\Rajesh\AppData\Local\Temp\ccFou9eL.s 			page 226


 11136      656E6379 
 11136      4D487A00 
 11137              	.LASF183:
 11138 0593 62697449 		.ascii	"bitIndex\000"
 11138      6E646578 
 11138      00
 11139              	.LASF6:
 11140 059c 5F5F7569 		.ascii	"__uint16_t\000"
 11140      6E743136 
 11140      5F7400
 11141              	.LASF163:
 11142 05a7 63537061 		.ascii	"cSpadsPerByte\000"
 11142      64735065 
 11142      72427974 
 11142      6500
 11143              	.LASF161:
 11144 05b5 73746172 		.ascii	"startIndex\000"
 11144      74496E64 
 11144      657800
 11145              	.LASF168:
 11146 05c0 69735F61 		.ascii	"is_aperture\000"
 11146      70657274 
 11146      75726500 
 11147              	.LASF66:
 11148 05cc 52656653 		.ascii	"RefSpadEnables\000"
 11148      70616445 
 11148      6E61626C 
 11148      657300
 11149              	.LASF206:
 11150 05db 73746172 		.ascii	"startSelect\000"
 11150      7453656C 
 11150      65637400 
 11151              	.LASF108:
 11152 05e7 55736549 		.ascii	"UseInternalTuningSettings\000"
 11152      6E746572 
 11152      6E616C54 
 11152      756E696E 
 11152      67536574 
 11153              	.LASF266:
 11154 0601 474E5520 		.ascii	"GNU C11 5.4.1 20160609 (release) [ARM/embedded-5-br"
 11154      43313120 
 11154      352E342E 
 11154      31203230 
 11154      31363036 
 11155 0634 616E6368 		.ascii	"anch revision 237715] -mcpu=cortex-m0 -mthumb -g -O"
 11155      20726576 
 11155      6973696F 
 11155      6E203233 
 11155      37373135 
 11156 0667 67202D66 		.ascii	"g -ffunction-sections -ffat-lto-objects\000"
 11156      66756E63 
 11156      74696F6E 
 11156      2D736563 
 11156      74696F6E 
 11157              	.LASF230:
 11158 068f 72657374 		.ascii	"restore_config\000"
 11158      6F72655F 
ARM GAS  C:\Users\Rajesh\AppData\Local\Temp\ccFou9eL.s 			page 227


 11158      636F6E66 
 11158      696700
 11159              	.LASF109:
 11160 069e 4C696E65 		.ascii	"LinearityCorrectiveGain\000"
 11160      61726974 
 11160      79436F72 
 11160      72656374 
 11160      69766547 
 11161              	.LASF54:
 11162 06b6 45666665 		.ascii	"EffectiveSpadRtnCount\000"
 11162      63746976 
 11162      65537061 
 11162      6452746E 
 11162      436F756E 
 11163              	.LASF176:
 11164 06cc 62797465 		.ascii	"byteCount\000"
 11164      436F756E 
 11164      7400
 11165              	.LASF182:
 11166 06d6 62797465 		.ascii	"byteIndex\000"
 11166      496E6465 
 11166      7800
 11167              	.LASF97:
 11168 06e0 53706164 		.ascii	"SpadData\000"
 11168      44617461 
 11168      00
 11169              	.LASF192:
 11170 06e9 6F666673 		.ascii	"offset\000"
 11170      657400
 11171              	.LASF34:
 11172 06f0 496E7465 		.ascii	"InterMeasurementPeriodMilliSeconds\000"
 11172      724D6561 
 11172      73757265 
 11172      6D656E74 
 11172      50657269 
 11173              	.LASF83:
 11174 0713 52656665 		.ascii	"ReferenceSpadCount\000"
 11174      72656E63 
 11174      65537061 
 11174      64436F75 
 11174      6E7400
 11175              	.LASF139:
 11176 0726 53746F72 		.ascii	"StoredMeanRange\000"
 11176      65644D65 
 11176      616E5261 
 11176      6E676500 
 11177              	.LASF80:
 11178 0736 4D6F6475 		.ascii	"ModuleId\000"
 11178      6C654964 
 11178      00
 11179              	.LASF59:
 11180 073f 48697374 		.ascii	"HistogramData\000"
 11180      6F677261 
 11180      6D446174 
 11180      6100
 11181              	.LASF41:
 11182 074d 4C696D69 		.ascii	"LimitChecksValue\000"
ARM GAS  C:\Users\Rajesh\AppData\Local\Temp\ccFou9eL.s 			page 228


 11182      74436865 
 11182      636B7356 
 11182      616C7565 
 11182      00
 11183              	.LASF117:
 11184 075e 636F6D6D 		.ascii	"comms_speed_khz\000"
 11184      735F7370 
 11184      6565645F 
 11184      6B687A00 
 11185              	.LASF247:
 11186 076e 564C3533 		.ascii	"VL53L0X_get_ref_calibration\000"
 11186      4C30585F 
 11186      6765745F 
 11186      7265665F 
 11186      63616C69 
 11187              	.LASF38:
 11188 078a 52616E67 		.ascii	"RangeOffsetMicroMeters\000"
 11188      654F6666 
 11188      7365744D 
 11188      6963726F 
 11188      4D657465 
 11189              	.LASF211:
 11190 07a1 70537061 		.ascii	"pSpadCount\000"
 11190      64436F75 
 11190      6E7400
 11191              	.LASF154:
 11192 07ac 564C3533 		.ascii	"VL53L0X_apply_offset_adjustment\000"
 11192      4C30585F 
 11192      6170706C 
 11192      795F6F66 
 11192      66736574 
 11193              	.LASF110:
 11194 07cc 446D6178 		.ascii	"DmaxCalRangeMilliMeter\000"
 11194      43616C52 
 11194      616E6765 
 11194      4D696C6C 
 11194      694D6574 
 11195              	.LASF243:
 11196 07e3 636F6D70 		.ascii	"complete\000"
 11196      6C657465 
 11196      00
 11197              	.LASF153:
 11198 07ec 634D6178 		.ascii	"cMaxOffset\000"
 11198      4F666673 
 11198      657400
 11199              	.LASF77:
 11200 07f7 5369676D 		.ascii	"SigmaEstEffPulseWidth\000"
 11200      61457374 
 11200      45666650 
 11200      756C7365 
 11200      57696474 
 11201              	.LASF212:
 11202 080d 70497341 		.ascii	"pIsApertureSpads\000"
 11202      70657274 
 11202      75726553 
 11202      70616473 
 11202      00
ARM GAS  C:\Users\Rajesh\AppData\Local\Temp\ccFou9eL.s 			page 229


 11203              	.LASF102:
 11204 081e 53746F70 		.ascii	"StopVariable\000"
 11204      56617269 
 11204      61626C65 
 11204      00
 11205              	.LASF165:
 11206 082b 66696E65 		.ascii	"fineIndex\000"
 11206      496E6465 
 11206      7800
 11207              	.LASF90:
 11208 0835 444D6178 		.ascii	"DMaxData\000"
 11208      44617461 
 11208      00
 11209              	.LASF49:
 11210 083e 4D656173 		.ascii	"MeasurementTimeUsec\000"
 11210      7572656D 
 11210      656E7454 
 11210      696D6555 
 11210      73656300 
 11211              	.LASF263:
 11212 0852 564C3533 		.ascii	"VL53L0X_ClearInterruptMask\000"
 11212      4C30585F 
 11212      436C6561 
 11212      72496E74 
 11212      65727275 
 11213              	.LASF177:
 11214 086d 6D617853 		.ascii	"maxSpads\000"
 11214      70616473 
 11214      00
 11215              	.LASF26:
 11216 0876 63686172 		.ascii	"char\000"
 11216      00
 11217              	.LASF223:
 11218 087b 70566876 		.ascii	"pVhvSettings\000"
 11218      53657474 
 11218      696E6773 
 11218      00
 11219              	.LASF79:
 11220 0888 52656164 		.ascii	"ReadDataFromDeviceDone\000"
 11220      44617461 
 11220      46726F6D 
 11220      44657669 
 11220      6365446F 
 11221              	.LASF33:
 11222 089f 4D656173 		.ascii	"MeasurementTimingBudgetMicroSeconds\000"
 11222      7572656D 
 11222      656E7454 
 11222      696D696E 
 11222      67427564 
 11223              	.LASF94:
 11224 08c3 4C617374 		.ascii	"LastRangeMeasure\000"
 11224      52616E67 
 11224      654D6561 
 11224      73757265 
 11224      00
 11225              	.LASF244:
 11226 08d4 72656653 		.ascii	"refSpadCount_int\000"
ARM GAS  C:\Users\Rajesh\AppData\Local\Temp\ccFou9eL.s 			page 230


 11226      70616443 
 11226      6F756E74 
 11226      5F696E74 
 11226      00
 11227              	.LASF62:
 11228 08e5 42756666 		.ascii	"BufferSize\000"
 11228      65725369 
 11228      7A6500
 11229              	.LASF190:
 11230 08f0 61706572 		.ascii	"apertureSpads\000"
 11230      74757265 
 11230      53706164 
 11230      7300
 11231              	.LASF236:
 11232 08fe 72656653 		.ascii	"refSpadCount\000"
 11232      70616443 
 11232      6F756E74 
 11232      00
 11233              	.LASF149:
 11234 090b 656E636F 		.ascii	"encodedOffsetVal\000"
 11234      6465644F 
 11234      66667365 
 11234      7456616C 
 11234      00
 11235              	.LASF68:
 11236 091c 564C3533 		.ascii	"VL53L0X_SpadData_t\000"
 11236      4C30585F 
 11236      53706164 
 11236      44617461 
 11236      5F7400
 11237              	.LASF16:
 11238 092f 75696E74 		.ascii	"uint8_t\000"
 11238      385F7400 
 11239              	.LASF174:
 11240 0937 73746174 		.ascii	"status\000"
 11240      757300
 11241              	.LASF24:
 11242 093e 564C3533 		.ascii	"VL53L0X_GpioFunctionality\000"
 11242      4C30585F 
 11242      4770696F 
 11242      46756E63 
 11242      74696F6E 
 11243              	.LASF222:
 11244 0958 50686173 		.ascii	"PhaseCal\000"
 11244      6543616C 
 11244      00
 11245              	.LASF181:
 11246 0961 6C617374 		.ascii	"lastBit\000"
 11246      42697400 
 11247              	.LASF145:
 11248 0969 4F666673 		.ascii	"OffsetCalibrationDataMicroMeter\000"
 11248      65744361 
 11248      6C696272 
 11248      6174696F 
 11248      6E446174 
 11249              	.LASF147:
 11250 0989 634D696E 		.ascii	"cMinOffsetMicroMeter\000"
ARM GAS  C:\Users\Rajesh\AppData\Local\Temp\ccFou9eL.s 			page 231


 11250      4F666673 
 11250      65744D69 
 11250      63726F4D 
 11250      65746572 
 11251              	.LASF29:
 11252 099e 564C3533 		.ascii	"VL53L0X_HistogramModes\000"
 11252      4C30585F 
 11252      48697374 
 11252      6F677261 
 11252      6D4D6F64 
 11253              	.LASF124:
 11254 09b5 73756D5F 		.ascii	"sum_spads\000"
 11254      73706164 
 11254      7300
 11255              	.LASF127:
 11256 09bf 7874616C 		.ascii	"xtalk_meas\000"
 11256      6B5F6D65 
 11256      617300
 11257              	.LASF57:
 11258 09ca 52616E67 		.ascii	"RangeStatus\000"
 11258      65537461 
 11258      74757300 
 11259              	.LASF61:
 11260 09d6 46697273 		.ascii	"FirstBin\000"
 11260      7442696E 
 11260      00
 11261              	.LASF12:
 11262 09df 6C6F6E67 		.ascii	"long long int\000"
 11262      206C6F6E 
 11262      6720696E 
 11262      7400
 11263              	.LASF185:
 11264 09ed 73706164 		.ascii	"spadTypeIdentified\000"
 11264      54797065 
 11264      4964656E 
 11264      74696669 
 11264      656400
 11265              	.LASF171:
 11266 0a00 69734170 		.ascii	"isAperture\000"
 11266      65727475 
 11266      726500
 11267              	.LASF152:
 11268 0a0b 52616E67 		.ascii	"RangeOffsetRegister\000"
 11268      654F6666 
 11268      73657452 
 11268      65676973 
 11268      74657200 
 11269              	.LASF28:
 11270 0a1f 564C3533 		.ascii	"VL53L0X_DeviceModes\000"
 11270      4C30585F 
 11270      44657669 
 11270      63654D6F 
 11270      64657300 
 11271              	.LASF134:
 11272 0a33 7854616C 		.ascii	"xTalkCalDistanceAsInt\000"
 11272      6B43616C 
 11272      44697374 
ARM GAS  C:\Users\Rajesh\AppData\Local\Temp\ccFou9eL.s 			page 232


 11272      616E6365 
 11272      4173496E 
 11273              	.LASF121:
 11274 0a49 70585461 		.ascii	"pXTalkCompensationRateMegaCps\000"
 11274      6C6B436F 
 11274      6D70656E 
 11274      73617469 
 11274      6F6E5261 
 11275              	.LASF85:
 11276 0a67 52656653 		.ascii	"RefSpadsInitialised\000"
 11276      70616473 
 11276      496E6974 
 11276      69616C69 
 11276      73656400 
 11277              	.LASF128:
 11278 0a7b 52616E67 		.ascii	"RangingMeasurementData\000"
 11278      696E674D 
 11278      65617375 
 11278      72656D65 
 11278      6E744461 
 11279              	.LASF188:
 11280 0a92 6765745F 		.ascii	"get_ref_spad_map\000"
 11280      7265665F 
 11280      73706164 
 11280      5F6D6170 
 11280      00
 11281              	.LASF126:
 11282 0aa3 746F7461 		.ascii	"total_count\000"
 11282      6C5F636F 
 11282      756E7400 
 11283              	.LASF4:
 11284 0aaf 5F5F696E 		.ascii	"__int16_t\000"
 11284      7431365F 
 11284      7400
 11285              	.LASF141:
 11286 0ab9 43616C44 		.ascii	"CalDistanceAsInt_mm\000"
 11286      69737461 
 11286      6E636541 
 11286      73496E74 
 11286      5F6D6D00 
 11287              	.LASF264:
 11288 0acd 564C3533 		.ascii	"VL53L0X_RdByte\000"
 11288      4C30585F 
 11288      52644279 
 11288      746500
 11289              	.LASF256:
 11290 0adc 564C3533 		.ascii	"VL53L0X_RdWord\000"
 11290      4C30585F 
 11290      5264576F 
 11290      726400
 11291              	.LASF158:
 11292 0aeb 73697A65 		.ascii	"size\000"
 11292      00
 11293              	.LASF187:
 11294 0af0 72656653 		.ascii	"refSpadArray\000"
 11294      70616441 
 11294      72726179 
ARM GAS  C:\Users\Rajesh\AppData\Local\Temp\ccFou9eL.s 			page 233


 11294      00
 11295              	.LASF46:
 11296 0afd 52657453 		.ascii	"RetSignalAt0mm\000"
 11296      69676E61 
 11296      6C417430 
 11296      6D6D00
 11297              	.LASF146:
 11298 0b0c 634D6178 		.ascii	"cMaxOffsetMicroMeter\000"
 11298      4F666673 
 11298      65744D69 
 11298      63726F4D 
 11298      65746572 
 11299              	.LASF217:
 11300 0b21 564C3533 		.ascii	"VL53L0X_perform_single_ref_calibration\000"
 11300      4C30585F 
 11300      70657266 
 11300      6F726D5F 
 11300      73696E67 
 11301              	.LASF270:
 11302 0b48 72656641 		.ascii	"refArrayQuadrants\000"
 11302      72726179 
 11302      51756164 
 11302      72616E74 
 11302      7300
 11303              	.LASF150:
 11304 0b5a 564C3533 		.ascii	"VL53L0X_get_offset_calibration_data_micro_meter\000"
 11304      4C30585F 
 11304      6765745F 
 11304      6F666673 
 11304      65745F63 
 11305              	.LASF228:
 11306 0b8a 564C3533 		.ascii	"VL53L0X_perform_vhv_calibration\000"
 11306      4C30585F 
 11306      70657266 
 11306      6F726D5F 
 11306      7668765F 
 11307              	.LASF191:
 11308 0baa 73746172 		.ascii	"start\000"
 11308      7400
 11309              	.LASF155:
 11310 0bb0 436F7272 		.ascii	"CorrectedOffsetMicroMeters\000"
 11310      65637465 
 11310      644F6666 
 11310      7365744D 
 11310      6963726F 
 11311              	.LASF200:
 11312 0bcb 72656653 		.ascii	"refSignalRate\000"
 11312      69676E61 
 11312      6C526174 
 11312      6500
 11313              	.LASF235:
 11314 0bd9 564C3533 		.ascii	"VL53L0X_perform_ref_spad_management\000"
 11314      4C30585F 
 11314      70657266 
 11314      6F726D5F 
 11314      7265665F 
 11315              	.LASF227:
ARM GAS  C:\Users\Rajesh\AppData\Local\Temp\ccFou9eL.s 			page 234


 11316 0bfd 50686173 		.ascii	"PhaseCalint\000"
 11316      6543616C 
 11316      696E7400 
 11317              	.LASF44:
 11318 0c09 564C3533 		.ascii	"VL53L0X_State\000"
 11318      4C30585F 
 11318      53746174 
 11318      6500
 11319              	.LASF47:
 11320 0c17 564C3533 		.ascii	"VL53L0X_DMaxData_t\000"
 11320      4C30585F 
 11320      444D6178 
 11320      44617461 
 11320      5F7400
 11321              	.LASF0:
 11322 0c2a 5F5F696E 		.ascii	"__int8_t\000"
 11322      74385F74 
 11322      00
 11323              	.LASF215:
 11324 0c33 63537061 		.ascii	"cSpadArraySize\000"
 11324      64417272 
 11324      61795369 
 11324      7A6500
 11325              	.LASF204:
 11326 0c42 69734170 		.ascii	"isApertureSpads\000"
 11326      65727475 
 11326      72655370 
 11326      61647300 
 11327              	.LASF115:
 11328 0c52 49326344 		.ascii	"I2cDevAddr\000"
 11328      65764164 
 11328      647200
 11329              	.LASF31:
 11330 0c5d 44657669 		.ascii	"DeviceMode\000"
 11330      63654D6F 
 11330      646500
 11331              	.LASF37:
 11332 0c68 5854616C 		.ascii	"XTalkCompensationRateMegaCps\000"
 11332      6B436F6D 
 11332      70656E73 
 11332      6174696F 
 11332      6E526174 
 11333              	.LASF21:
 11334 0c85 6C6F6E67 		.ascii	"long double\000"
 11334      20646F75 
 11334      626C6500 
 11335              	.LASF125:
 11336 0c91 73756D5F 		.ascii	"sum_signalRate\000"
 11336      7369676E 
 11336      616C5261 
 11336      746500
 11337              	.LASF18:
 11338 0ca0 75696E74 		.ascii	"uint16_t\000"
 11338      31365F74 
 11338      00
 11339              	.LASF58:
 11340 0ca9 564C3533 		.ascii	"VL53L0X_RangingMeasurementData_t\000"
ARM GAS  C:\Users\Rajesh\AppData\Local\Temp\ccFou9eL.s 			page 235


 11340      4C30585F 
 11340      52616E67 
 11340      696E674D 
 11340      65617375 
 11341              	.LASF261:
 11342 0cca 564C3533 		.ascii	"VL53L0X_WrByte\000"
 11342      4C30585F 
 11342      57724279 
 11342      746500
 11343              	.LASF246:
 11344 0cd9 564C3533 		.ascii	"VL53L0X_set_ref_calibration\000"
 11344      4C30585F 
 11344      7365745F 
 11344      7265665F 
 11344      63616C69 
 11345              	.LASF257:
 11346 0cf5 564C3533 		.ascii	"VL53L0X_get_info_from_device\000"
 11346      4C30585F 
 11346      6765745F 
 11346      696E666F 
 11346      5F66726F 
 11347              	.LASF255:
 11348 0d12 564C3533 		.ascii	"VL53L0X_WrWord\000"
 11348      4C30585F 
 11348      5772576F 
 11348      726400
 11349              	.LASF98:
 11350 0d21 53657175 		.ascii	"SequenceConfig\000"
 11350      656E6365 
 11350      436F6E66 
 11350      696700
 11351              	.LASF242:
 11352 0d30 6C617374 		.ascii	"lastSignalRateDiff\000"
 11352      5369676E 
 11352      616C5261 
 11352      74654469 
 11352      666600
 11353              	.LASF208:
 11354 0d43 6D617853 		.ascii	"maxSpadCount\000"
 11354      70616443 
 11354      6F756E74 
 11354      00
 11355              	.LASF268:
 11356 0d50 443A5C65 		.ascii	"D:\\ext\\EXTPSOC\\fixed\\Fixed\\fixed.cydsn\000"
 11356      78745C45 
 11356      58545053 
 11356      4F435C66 
 11356      69786564 
 11357              	.LASF225:
 11358 0d77 7668765F 		.ascii	"vhv_enable\000"
 11358      656E6162 
 11358      6C6500
 11359              	.LASF189:
 11360 0d82 656E6162 		.ascii	"enable_ref_spads\000"
 11360      6C655F72 
 11360      65665F73 
 11360      70616473 
ARM GAS  C:\Users\Rajesh\AppData\Local\Temp\ccFou9eL.s 			page 236


 11360      00
 11361              	.LASF5:
 11362 0d93 73686F72 		.ascii	"short int\000"
 11362      7420696E 
 11362      7400
 11363              	.LASF157:
 11364 0d9d 676F6F64 		.ascii	"goodSpadArray\000"
 11364      53706164 
 11364      41727261 
 11364      7900
 11365              	.LASF180:
 11366 0dab 6C617374 		.ascii	"lastByte\000"
 11366      42797465 
 11366      00
 11367              	.LASF159:
 11368 0db4 63757272 		.ascii	"curr\000"
 11368      00
 11369              	.LASF9:
 11370 0db9 6C6F6E67 		.ascii	"long int\000"
 11370      20696E74 
 11370      00
 11371              	.LASF259:
 11372 0dc2 564C3533 		.ascii	"VL53L0X_WriteMulti\000"
 11372      4C30585F 
 11372      57726974 
 11372      654D756C 
 11372      746900
 11373              	.LASF265:
 11374 0dd5 564C3533 		.ascii	"VL53L0X_UpdateByte\000"
 11374      4C30585F 
 11374      55706461 
 11374      74654279 
 11374      746500
 11375              	.LASF86:
 11376 0de8 50617274 		.ascii	"PartUIDUpper\000"
 11376      55494455 
 11376      70706572 
 11376      00
 11377              	.LASF105:
 11378 0df5 5369676E 		.ascii	"SignalEstimate\000"
 11378      616C4573 
 11378      74696D61 
 11378      746500
 11379              	.LASF156:
 11380 0e04 43757272 		.ascii	"CurrentOffsetMicroMeters\000"
 11380      656E744F 
 11380      66667365 
 11380      744D6963 
 11380      726F4D65 
 11381              	.LASF123:
 11382 0e1d 73756D5F 		.ascii	"sum_ranging\000"
 11382      72616E67 
 11382      696E6700 
 11383              	.LASF252:
 11384 0e29 564C3533 		.ascii	"VL53L0X_SetOffsetCalibrationDataMicroMeter\000"
 11384      4C30585F 
 11384      5365744F 
ARM GAS  C:\Users\Rajesh\AppData\Local\Temp\ccFou9eL.s 			page 237


 11384      66667365 
 11384      7443616C 
 11385              	.LASF106:
 11386 0e54 4C617374 		.ascii	"LastSignalRefMcps\000"
 11386      5369676E 
 11386      616C5265 
 11386      664D6370 
 11386      7300
 11387              	.LASF72:
 11388 0e66 46696E61 		.ascii	"FinalRangeTimeoutMicroSecs\000"
 11388      6C52616E 
 11388      67655469 
 11388      6D656F75 
 11388      744D6963 
 11389              	.LASF55:
 11390 0e81 5A6F6E65 		.ascii	"ZoneId\000"
 11390      496400
 11391              	.LASF214:
 11392 0e88 634D6178 		.ascii	"cMaxSpadCount\000"
 11392      53706164 
 11392      436F756E 
 11392      7400
 11393              	.LASF229:
 11394 0e96 6765745F 		.ascii	"get_data_enable\000"
 11394      64617461 
 11394      5F656E61 
 11394      626C6500 
 11395              	.LASF1:
 11396 0ea6 5F5F7569 		.ascii	"__uint8_t\000"
 11396      6E74385F 
 11396      7400
 11397              	.LASF221:
 11398 0eb0 56687653 		.ascii	"VhvSettings\000"
 11398      65747469 
 11398      6E677300 
 11399              	.LASF219:
 11400 0ebc 564C3533 		.ascii	"VL53L0X_ref_calibration_io\000"
 11400      4C30585F 
 11400      7265665F 
 11400      63616C69 
 11400      62726174 
 11401              	.LASF67:
 11402 0ed7 52656647 		.ascii	"RefGoodSpadMap\000"
 11402      6F6F6453 
 11402      7061644D 
 11402      617000
 11403              	.LASF167:
 11404 0ee6 73756363 		.ascii	"success\000"
 11404      65737300 
 11405              	.LASF27:
 11406 0eee 564C3533 		.ascii	"VL53L0X_Error\000"
 11406      4C30585F 
 11406      4572726F 
 11406      7200
 11407              	.LASF250:
 11408 0efc 564C3533 		.ascii	"VL53L0X_PerformSingleRangingMeasurement\000"
 11408      4C30585F 
ARM GAS  C:\Users\Rajesh\AppData\Local\Temp\ccFou9eL.s 			page 238


 11408      50657266 
 11408      6F726D53 
 11408      696E676C 
 11409              	.LASF254:
 11410 0f24 564C3533 		.ascii	"VL53L0X_SetSequenceStepEnable\000"
 11410      4C30585F 
 11410      53657453 
 11410      65717565 
 11410      6E636553 
 11411              	.LASF116:
 11412 0f42 636F6D6D 		.ascii	"comms_type\000"
 11412      735F7479 
 11412      706500
 11413              	.LASF131:
 11414 0f4d 7854616C 		.ascii	"xTalkStoredMeanRtnSpads\000"
 11414      6B53746F 
 11414      7265644D 
 11414      65616E52 
 11414      746E5370 
 11415              	.LASF258:
 11416 0f65 564C3533 		.ascii	"VL53L0X_GetOffsetCalibrationDataMicroMeter\000"
 11416      4C30585F 
 11416      4765744F 
 11416      66667365 
 11416      7443616C 
 11417              	.LASF25:
 11418 0f90 73697A65 		.ascii	"sizetype\000"
 11418      74797065 
 11418      00
 11419              	.LASF169:
 11420 0f99 73706164 		.ascii	"spadIndex\000"
 11420      496E6465 
 11420      7800
 11421              	.LASF93:
 11422 0fa3 43757272 		.ascii	"CurrentParameters\000"
 11422      656E7450 
 11422      6172616D 
 11422      65746572 
 11422      7300
 11423              	.LASF11:
 11424 0fb5 6C6F6E67 		.ascii	"long unsigned int\000"
 11424      20756E73 
 11424      69676E65 
 11424      6420696E 
 11424      7400
 11425              	.LASF197:
 11426 0fc7 63757272 		.ascii	"currentSpad\000"
 11426      656E7453 
 11426      70616400 
 11427              	.LASF96:
 11428 0fd3 44657669 		.ascii	"DeviceSpecificParameters\000"
 11428      63655370 
 11428      65636966 
 11428      69635061 
 11428      72616D65 
 11429              	.LASF107:
 11430 0fec 7054756E 		.ascii	"pTuningSettingsPointer\000"
ARM GAS  C:\Users\Rajesh\AppData\Local\Temp\ccFou9eL.s 			page 239


 11430      696E6753 
 11430      65747469 
 11430      6E677350 
 11430      6F696E74 
 11431              	.LASF19:
 11432 1003 696E7433 		.ascii	"int32_t\000"
 11432      325F7400 
 11433              	.LASF78:
 11434 100b 5369676D 		.ascii	"SigmaEstEffAmbWidth\000"
 11434      61457374 
 11434      45666641 
 11434      6D625769 
 11434      64746800 
 11435              	.LASF198:
 11436 101f 63686563 		.ascii	"checkSpadArray\000"
 11436      6B537061 
 11436      64417272 
 11436      617900
 11437              	.LASF196:
 11438 102e 6E657874 		.ascii	"nextGoodSpad\000"
 11438      476F6F64 
 11438      53706164 
 11438      00
 11439              	.LASF178:
 11440 103b 70546F74 		.ascii	"pTotalSpadsEnabled\000"
 11440      616C5370 
 11440      61647345 
 11440      6E61626C 
 11440      656400
 11441              	.LASF3:
 11442 104e 756E7369 		.ascii	"unsigned char\000"
 11442      676E6564 
 11442      20636861 
 11442      7200
 11443              	.LASF63:
 11444 105c 4E756D62 		.ascii	"NumberOfBins\000"
 11444      65724F66 
 11444      42696E73 
 11444      00
 11445              	.LASF74:
 11446 1069 50726552 		.ascii	"PreRangeTimeoutMicroSecs\000"
 11446      616E6765 
 11446      54696D65 
 11446      6F75744D 
 11446      6963726F 
 11447              	.LASF10:
 11448 1082 5F5F7569 		.ascii	"__uint32_t\000"
 11448      6E743332 
 11448      5F7400
 11449              	.LASF111:
 11450 108d 446D6178 		.ascii	"DmaxCalSignalRateRtnMegaCps\000"
 11450      43616C53 
 11450      69676E61 
 11450      6C526174 
 11450      6552746E 
 11451              	.LASF73:
 11452 10a9 46696E61 		.ascii	"FinalRangeVcselPulsePeriod\000"
ARM GAS  C:\Users\Rajesh\AppData\Local\Temp\ccFou9eL.s 			page 240


 11452      6C52616E 
 11452      67655663 
 11452      73656C50 
 11452      756C7365 
 11453              	.LASF112:
 11454 10c4 564C3533 		.ascii	"VL53L0X_DevData_t\000"
 11454      4C30585F 
 11454      44657644 
 11454      6174615F 
 11454      7400
 11455              	.LASF241:
 11456 10d6 7369676E 		.ascii	"signalRateDiff\000"
 11456      616C5261 
 11456      74654469 
 11456      666600
 11457              	.LASF239:
 11458 10e5 7065616B 		.ascii	"peakSignalRateRef\000"
 11458      5369676E 
 11458      616C5261 
 11458      74655265 
 11458      6600
 11459              	.LASF213:
 11460 10f7 72656653 		.ascii	"refSpadsInitialised\000"
 11460      70616473 
 11460      496E6974 
 11460      69616C69 
 11460      73656400 
 11461              	.LASF245:
 11462 110b 69734170 		.ascii	"isApertureSpads_int\000"
 11462      65727475 
 11462      72655370 
 11462      6164735F 
 11462      696E7400 
 11463              	.LASF209:
 11464 111f 6C617374 		.ascii	"lastSpadIndex\000"
 11464      53706164 
 11464      496E6465 
 11464      7800
 11465              	.LASF71:
 11466 112d 50696E30 		.ascii	"Pin0GpioFunctionality\000"
 11466      4770696F 
 11466      46756E63 
 11466      74696F6E 
 11466      616C6974 
 11467              	.LASF148:
 11468 1143 634F6666 		.ascii	"cOffsetRange\000"
 11468      73657452 
 11468      616E6765 
 11468      00
 11469              	.LASF194:
 11470 1150 6C617374 		.ascii	"lastSpad\000"
 11470      53706164 
 11470      00
 11471              	.LASF164:
 11472 1159 636F6172 		.ascii	"coarseIndex\000"
 11472      7365496E 
 11472      64657800 
ARM GAS  C:\Users\Rajesh\AppData\Local\Temp\ccFou9eL.s 			page 241


 11473              	.LASF231:
 11474 1165 50686173 		.ascii	"PhaseCalInt\000"
 11474      6543616C 
 11474      496E7400 
 11475              	.LASF216:
 11476 1171 73706164 		.ascii	"spadsEnabled\000"
 11476      73456E61 
 11476      626C6564 
 11476      00
 11477              	.LASF113:
 11478 117e 564C3533 		.ascii	"VL53L0X_VcselPeriod\000"
 11478      4C30585F 
 11478      56637365 
 11478      6C506572 
 11478      696F6400 
 11479              	.LASF2:
 11480 1192 7369676E 		.ascii	"signed char\000"
 11480      65642063 
 11480      68617200 
 11481              	.LASF95:
 11482 119e 4C617374 		.ascii	"LastHistogramMeasure\000"
 11482      48697374 
 11482      6F677261 
 11482      6D4D6561 
 11482      73757265 
 11483              	.LASF7:
 11484 11b3 73686F72 		.ascii	"short unsigned int\000"
 11484      7420756E 
 11484      7369676E 
 11484      65642069 
 11484      6E7400
 11485              	.LASF99:
 11486 11c6 52616E67 		.ascii	"RangeFractionalEnable\000"
 11486      65467261 
 11486      6374696F 
 11486      6E616C45 
 11486      6E61626C 
 11487              	.LASF271:
 11488 11dc 6D656D63 		.ascii	"memcpy\000"
 11488      707900
 11489              	.LASF133:
 11490 11e3 7854616C 		.ascii	"xTalkStoredMeanRtnSpadsAsInt\000"
 11490      6B53746F 
 11490      7265644D 
 11490      65616E52 
 11490      746E5370 
 11491              	.LASF50:
 11492 1200 52616E67 		.ascii	"RangeMilliMeter\000"
 11492      654D696C 
 11492      6C694D65 
 11492      74657200 
 11493              	.LASF269:
 11494 1210 6765745F 		.ascii	"get_next_good_spad\000"
 11494      6E657874 
 11494      5F676F6F 
 11494      645F7370 
 11494      616400
ARM GAS  C:\Users\Rajesh\AppData\Local\Temp\ccFou9eL.s 			page 242


 11495              	.LASF186:
 11496 1223 7365745F 		.ascii	"set_ref_spad_map\000"
 11496      7265665F 
 11496      73706164 
 11496      5F6D6170 
 11496      00
 11497              	.LASF104:
 11498 1234 5369676D 		.ascii	"SigmaEstimate\000"
 11498      61457374 
 11498      696D6174 
 11498      6500
 11499              	.LASF76:
 11500 1242 5369676D 		.ascii	"SigmaEstRefArray\000"
 11500      61457374 
 11500      52656641 
 11500      72726179 
 11500      00
 11501              	.LASF56:
 11502 1253 52616E67 		.ascii	"RangeFractionalPart\000"
 11502      65467261 
 11502      6374696F 
 11502      6E616C50 
 11502      61727400 
 11503              	.LASF201:
 11504 1267 72616E67 		.ascii	"rangingMeasurementData\000"
 11504      696E674D 
 11504      65617375 
 11504      72656D65 
 11504      6E744461 
 11505              	.LASF70:
 11506 127e 4C617374 		.ascii	"LastEncodedTimeout\000"
 11506      456E636F 
 11506      64656454 
 11506      696D656F 
 11506      757400
 11507              	.LASF210:
 11508 1291 564C3533 		.ascii	"VL53L0X_get_reference_spads\000"
 11508      4C30585F 
 11508      6765745F 
 11508      72656665 
 11508      72656E63 
 11509              	.LASF262:
 11510 12ad 564C3533 		.ascii	"VL53L0X_measurement_poll_for_completion\000"
 11510      4C30585F 
 11510      6D656173 
 11510      7572656D 
 11510      656E745F 
 11511              	.LASF193:
 11512 12d5 73706164 		.ascii	"spadCount\000"
 11512      436F756E 
 11512      7400
 11513              	.LASF251:
 11514 12df 564C3533 		.ascii	"VL53L0X_SetXTalkCompensationRateMegaCps\000"
 11514      4C30585F 
 11514      53657458 
 11514      54616C6B 
 11514      436F6D70 
ARM GAS  C:\Users\Rajesh\AppData\Local\Temp\ccFou9eL.s 			page 243


 11515              	.LASF100:
 11516 1307 50616C53 		.ascii	"PalState\000"
 11516      74617465 
 11516      00
 11517              	.LASF48:
 11518 1310 54696D65 		.ascii	"TimeStamp\000"
 11518      5374616D 
 11518      7000
 11519              	.LASF65:
 11520 131a 564C3533 		.ascii	"VL53L0X_HistogramMeasurementData_t\000"
 11520      4C30585F 
 11520      48697374 
 11520      6F677261 
 11520      6D4D6561 
 11521              	.LASF114:
 11522 133d 44617461 		.ascii	"Data\000"
 11522      00
 11523              	.LASF143:
 11524 1342 6D656173 		.ascii	"meas\000"
 11524      00
 11525              	.LASF135:
 11526 1347 564C3533 		.ascii	"VL53L0X_perform_xtalk_calibration\000"
 11526      4C30585F 
 11526      70657266 
 11526      6F726D5F 
 11526      7874616C 
 11527              	.LASF88:
 11528 1369 5369676E 		.ascii	"SignalRateMeasFixed400mm\000"
 11528      616C5261 
 11528      74654D65 
 11528      61734669 
 11528      78656434 
 11529              	.LASF234:
 11530 1382 564C3533 		.ascii	"VL53L0X_perform_ref_calibration\000"
 11530      4C30585F 
 11530      70657266 
 11530      6F726D5F 
 11530      7265665F 
 11531              		.ident	"GCC: (GNU Tools for ARM Embedded Processors) 5.4.1 20160609 (release) [ARM/embedded-5-bran
