ARM GAS  C:\Users\yqh\AppData\Local\Temp\ccAADaKQ.s 			page 1


   1              		.syntax unified
   2              		.cpu cortex-m3
   3              		.fpu softvfp
   4              		.eabi_attribute 20, 1
   5              		.eabi_attribute 21, 1
   6              		.eabi_attribute 23, 3
   7              		.eabi_attribute 24, 1
   8              		.eabi_attribute 25, 1
   9              		.eabi_attribute 26, 1
  10              		.eabi_attribute 30, 4
  11              		.eabi_attribute 34, 1
  12              		.eabi_attribute 18, 4
  13              		.thumb
  14              		.file	"EZI2CPin.c"
  15              		.text
  16              	.Ltext0:
  17              		.cfi_sections	.debug_frame
  18              		.section	.text.EZI2CPin_Write,"ax",%progbits
  19              		.align	1
  20              		.global	EZI2CPin_Write
  21              		.thumb
  22              		.thumb_func
  23              		.type	EZI2CPin_Write, %function
  24              	EZI2CPin_Write:
  25              	.LFB0:
  26              		.file 1 "Generated_Source\\PSoC5\\EZI2CPin.c"
   1:Generated_Source\PSoC5/EZI2CPin.c **** /*******************************************************************************
   2:Generated_Source\PSoC5/EZI2CPin.c **** * File Name: EZI2CPin.c  
   3:Generated_Source\PSoC5/EZI2CPin.c **** * Version 2.20
   4:Generated_Source\PSoC5/EZI2CPin.c **** *
   5:Generated_Source\PSoC5/EZI2CPin.c **** * Description:
   6:Generated_Source\PSoC5/EZI2CPin.c **** *  This file contains API to enable firmware control of a Pins component.
   7:Generated_Source\PSoC5/EZI2CPin.c **** *
   8:Generated_Source\PSoC5/EZI2CPin.c **** * Note:
   9:Generated_Source\PSoC5/EZI2CPin.c **** *
  10:Generated_Source\PSoC5/EZI2CPin.c **** ********************************************************************************
  11:Generated_Source\PSoC5/EZI2CPin.c **** * Copyright 2008-2015, Cypress Semiconductor Corporation.  All rights reserved.
  12:Generated_Source\PSoC5/EZI2CPin.c **** * You may use this file only in accordance with the license, terms, conditions, 
  13:Generated_Source\PSoC5/EZI2CPin.c **** * disclaimers, and limitations in the end user license agreement accompanying 
  14:Generated_Source\PSoC5/EZI2CPin.c **** * the software package with which this file was provided.
  15:Generated_Source\PSoC5/EZI2CPin.c **** *******************************************************************************/
  16:Generated_Source\PSoC5/EZI2CPin.c **** 
  17:Generated_Source\PSoC5/EZI2CPin.c **** #include "cytypes.h"
  18:Generated_Source\PSoC5/EZI2CPin.c **** #include "EZI2CPin.h"
  19:Generated_Source\PSoC5/EZI2CPin.c **** 
  20:Generated_Source\PSoC5/EZI2CPin.c **** /* APIs are not generated for P15[7:6] on PSoC 5 */
  21:Generated_Source\PSoC5/EZI2CPin.c **** #if !(CY_PSOC5A &&\
  22:Generated_Source\PSoC5/EZI2CPin.c **** 	 EZI2CPin__PORT == 15 && ((EZI2CPin__MASK & 0xC0) != 0))
  23:Generated_Source\PSoC5/EZI2CPin.c **** 
  24:Generated_Source\PSoC5/EZI2CPin.c **** 
  25:Generated_Source\PSoC5/EZI2CPin.c **** /*******************************************************************************
  26:Generated_Source\PSoC5/EZI2CPin.c **** * Function Name: EZI2CPin_Write
  27:Generated_Source\PSoC5/EZI2CPin.c **** ****************************************************************************//**
  28:Generated_Source\PSoC5/EZI2CPin.c **** *
  29:Generated_Source\PSoC5/EZI2CPin.c **** * \brief Writes the value to the physical port (data output register), masking
  30:Generated_Source\PSoC5/EZI2CPin.c **** *  and shifting the bits appropriately. 
  31:Generated_Source\PSoC5/EZI2CPin.c **** *
ARM GAS  C:\Users\yqh\AppData\Local\Temp\ccAADaKQ.s 			page 2


  32:Generated_Source\PSoC5/EZI2CPin.c **** * The data output register controls the signal applied to the physical pin in 
  33:Generated_Source\PSoC5/EZI2CPin.c **** * conjunction with the drive mode parameter. This function avoids changing 
  34:Generated_Source\PSoC5/EZI2CPin.c **** * other bits in the port by using the appropriate method (read-modify-write or
  35:Generated_Source\PSoC5/EZI2CPin.c **** * bit banding).
  36:Generated_Source\PSoC5/EZI2CPin.c **** *
  37:Generated_Source\PSoC5/EZI2CPin.c **** * <b>Note</b> This function should not be used on a hardware digital output pin 
  38:Generated_Source\PSoC5/EZI2CPin.c **** * as it is driven by the hardware signal attached to it.
  39:Generated_Source\PSoC5/EZI2CPin.c **** *
  40:Generated_Source\PSoC5/EZI2CPin.c **** * \param value
  41:Generated_Source\PSoC5/EZI2CPin.c **** *  Value to write to the component instance.
  42:Generated_Source\PSoC5/EZI2CPin.c **** *
  43:Generated_Source\PSoC5/EZI2CPin.c **** * \return 
  44:Generated_Source\PSoC5/EZI2CPin.c **** *  None 
  45:Generated_Source\PSoC5/EZI2CPin.c **** *
  46:Generated_Source\PSoC5/EZI2CPin.c **** * \sideeffect
  47:Generated_Source\PSoC5/EZI2CPin.c **** *  If you use read-modify-write operations that are not atomic; the Interrupt 
  48:Generated_Source\PSoC5/EZI2CPin.c **** *  Service Routines (ISR) can cause corruption of this function. An ISR that 
  49:Generated_Source\PSoC5/EZI2CPin.c **** *  interrupts this function and performs writes to the Pins component data 
  50:Generated_Source\PSoC5/EZI2CPin.c **** *  register can cause corrupted port data. To avoid this issue, you should 
  51:Generated_Source\PSoC5/EZI2CPin.c **** *  either use the Per-Pin APIs (primary method) or disable interrupts around 
  52:Generated_Source\PSoC5/EZI2CPin.c **** *  this function.
  53:Generated_Source\PSoC5/EZI2CPin.c **** *
  54:Generated_Source\PSoC5/EZI2CPin.c **** * \funcusage
  55:Generated_Source\PSoC5/EZI2CPin.c **** *  \snippet EZI2CPin_SUT.c usage_EZI2CPin_Write
  56:Generated_Source\PSoC5/EZI2CPin.c **** *******************************************************************************/
  57:Generated_Source\PSoC5/EZI2CPin.c **** void EZI2CPin_Write(uint8 value)
  58:Generated_Source\PSoC5/EZI2CPin.c **** {
  27              		.loc 1 58 0
  28              		.cfi_startproc
  29              		@ args = 0, pretend = 0, frame = 0
  30              		@ frame_needed = 0, uses_anonymous_args = 0
  31              		@ link register save eliminated.
  32              	.LVL0:
  59:Generated_Source\PSoC5/EZI2CPin.c ****     uint8 staticBits = (EZI2CPin_DR & (uint8)(~EZI2CPin_MASK));
  33              		.loc 1 59 0
  34 0000 044A     		ldr	r2, .L2
  60:Generated_Source\PSoC5/EZI2CPin.c ****     EZI2CPin_DR = staticBits | ((uint8)(value << EZI2CPin_SHIFT) & EZI2CPin_MASK);
  35              		.loc 1 60 0
  36 0002 0001     		lsls	r0, r0, #4
  37              	.LVL1:
  59:Generated_Source\PSoC5/EZI2CPin.c ****     uint8 staticBits = (EZI2CPin_DR & (uint8)(~EZI2CPin_MASK));
  38              		.loc 1 59 0
  39 0004 1378     		ldrb	r3, [r2]	@ zero_extendqisi2
  40              	.LVL2:
  41              		.loc 1 60 0
  42 0006 00F03000 		and	r0, r0, #48
  59:Generated_Source\PSoC5/EZI2CPin.c ****     uint8 staticBits = (EZI2CPin_DR & (uint8)(~EZI2CPin_MASK));
  43              		.loc 1 59 0
  44 000a 03F0CF03 		and	r3, r3, #207
  45              	.LVL3:
  46              		.loc 1 60 0
  47 000e 0343     		orrs	r3, r3, r0
  48 0010 1370     		strb	r3, [r2]
  49 0012 7047     		bx	lr
  50              	.L3:
  51              		.align	2
  52              	.L2:
ARM GAS  C:\Users\yqh\AppData\Local\Temp\ccAADaKQ.s 			page 3


  53 0014 C0510040 		.word	1073762752
  54              		.cfi_endproc
  55              	.LFE0:
  56              		.size	EZI2CPin_Write, .-EZI2CPin_Write
  57              		.section	.text.EZI2CPin_SetDriveMode,"ax",%progbits
  58              		.align	1
  59              		.global	EZI2CPin_SetDriveMode
  60              		.thumb
  61              		.thumb_func
  62              		.type	EZI2CPin_SetDriveMode, %function
  63              	EZI2CPin_SetDriveMode:
  64              	.LFB1:
  61:Generated_Source\PSoC5/EZI2CPin.c **** }
  62:Generated_Source\PSoC5/EZI2CPin.c **** 
  63:Generated_Source\PSoC5/EZI2CPin.c **** 
  64:Generated_Source\PSoC5/EZI2CPin.c **** /*******************************************************************************
  65:Generated_Source\PSoC5/EZI2CPin.c **** * Function Name: EZI2CPin_SetDriveMode
  66:Generated_Source\PSoC5/EZI2CPin.c **** ****************************************************************************//**
  67:Generated_Source\PSoC5/EZI2CPin.c **** *
  68:Generated_Source\PSoC5/EZI2CPin.c **** * \brief Sets the drive mode for each of the Pins component's pins.
  69:Generated_Source\PSoC5/EZI2CPin.c **** * 
  70:Generated_Source\PSoC5/EZI2CPin.c **** * <b>Note</b> This affects all pins in the Pins component instance. Use the
  71:Generated_Source\PSoC5/EZI2CPin.c **** * Per-Pin APIs if you wish to control individual pin's drive modes.
  72:Generated_Source\PSoC5/EZI2CPin.c **** *
  73:Generated_Source\PSoC5/EZI2CPin.c **** * \param mode
  74:Generated_Source\PSoC5/EZI2CPin.c **** *  Mode for the selected signals. Valid options are documented in 
  75:Generated_Source\PSoC5/EZI2CPin.c **** *  \ref driveMode.
  76:Generated_Source\PSoC5/EZI2CPin.c **** *
  77:Generated_Source\PSoC5/EZI2CPin.c **** * \return
  78:Generated_Source\PSoC5/EZI2CPin.c **** *  None
  79:Generated_Source\PSoC5/EZI2CPin.c **** *
  80:Generated_Source\PSoC5/EZI2CPin.c **** * \sideeffect
  81:Generated_Source\PSoC5/EZI2CPin.c **** *  If you use read-modify-write operations that are not atomic, the ISR can
  82:Generated_Source\PSoC5/EZI2CPin.c **** *  cause corruption of this function. An ISR that interrupts this function 
  83:Generated_Source\PSoC5/EZI2CPin.c **** *  and performs writes to the Pins component Drive Mode registers can cause 
  84:Generated_Source\PSoC5/EZI2CPin.c **** *  corrupted port data. To avoid this issue, you should either use the Per-Pin
  85:Generated_Source\PSoC5/EZI2CPin.c **** *  APIs (primary method) or disable interrupts around this function.
  86:Generated_Source\PSoC5/EZI2CPin.c **** *
  87:Generated_Source\PSoC5/EZI2CPin.c **** * \funcusage
  88:Generated_Source\PSoC5/EZI2CPin.c **** *  \snippet EZI2CPin_SUT.c usage_EZI2CPin_SetDriveMode
  89:Generated_Source\PSoC5/EZI2CPin.c **** *******************************************************************************/
  90:Generated_Source\PSoC5/EZI2CPin.c **** void EZI2CPin_SetDriveMode(uint8 mode)
  91:Generated_Source\PSoC5/EZI2CPin.c **** {
  65              		.loc 1 91 0
  66              		.cfi_startproc
  67              		@ args = 0, pretend = 0, frame = 0
  68              		@ frame_needed = 0, uses_anonymous_args = 0
  69              		@ link register save eliminated.
  70              	.LVL4:
  92:Generated_Source\PSoC5/EZI2CPin.c **** 	CyPins_SetPinDriveMode(EZI2CPin_0, mode);
  71              		.loc 1 92 0
  72 0000 064A     		ldr	r2, .L5
  73 0002 00F00E00 		and	r0, r0, #14
  74              	.LVL5:
  75 0006 1378     		ldrb	r3, [r2]	@ zero_extendqisi2
  76 0008 03F0F103 		and	r3, r3, #241
  77 000c 0343     		orrs	r3, r3, r0
ARM GAS  C:\Users\yqh\AppData\Local\Temp\ccAADaKQ.s 			page 4


  78 000e 1370     		strb	r3, [r2]
  93:Generated_Source\PSoC5/EZI2CPin.c **** 	CyPins_SetPinDriveMode(EZI2CPin_1, mode);
  79              		.loc 1 93 0
  80 0010 5378     		ldrb	r3, [r2, #1]	@ zero_extendqisi2
  81 0012 03F0F103 		and	r3, r3, #241
  82 0016 1843     		orrs	r0, r0, r3
  83 0018 5070     		strb	r0, [r2, #1]
  84 001a 7047     		bx	lr
  85              	.L6:
  86              		.align	2
  87              	.L5:
  88 001c 64500040 		.word	1073762404
  89              		.cfi_endproc
  90              	.LFE1:
  91              		.size	EZI2CPin_SetDriveMode, .-EZI2CPin_SetDriveMode
  92              		.section	.text.EZI2CPin_Read,"ax",%progbits
  93              		.align	1
  94              		.global	EZI2CPin_Read
  95              		.thumb
  96              		.thumb_func
  97              		.type	EZI2CPin_Read, %function
  98              	EZI2CPin_Read:
  99              	.LFB2:
  94:Generated_Source\PSoC5/EZI2CPin.c **** }
  95:Generated_Source\PSoC5/EZI2CPin.c **** 
  96:Generated_Source\PSoC5/EZI2CPin.c **** 
  97:Generated_Source\PSoC5/EZI2CPin.c **** /*******************************************************************************
  98:Generated_Source\PSoC5/EZI2CPin.c **** * Function Name: EZI2CPin_Read
  99:Generated_Source\PSoC5/EZI2CPin.c **** ****************************************************************************//**
 100:Generated_Source\PSoC5/EZI2CPin.c **** *
 101:Generated_Source\PSoC5/EZI2CPin.c **** * \brief Reads the associated physical port (pin status register) and masks 
 102:Generated_Source\PSoC5/EZI2CPin.c **** *  the required bits according to the width and bit position of the component
 103:Generated_Source\PSoC5/EZI2CPin.c **** *  instance. 
 104:Generated_Source\PSoC5/EZI2CPin.c **** *
 105:Generated_Source\PSoC5/EZI2CPin.c **** * The pin's status register returns the current logic level present on the 
 106:Generated_Source\PSoC5/EZI2CPin.c **** * physical pin.
 107:Generated_Source\PSoC5/EZI2CPin.c **** *
 108:Generated_Source\PSoC5/EZI2CPin.c **** * \return 
 109:Generated_Source\PSoC5/EZI2CPin.c **** *  The current value for the pins in the component as a right justified number.
 110:Generated_Source\PSoC5/EZI2CPin.c **** *
 111:Generated_Source\PSoC5/EZI2CPin.c **** * \funcusage
 112:Generated_Source\PSoC5/EZI2CPin.c **** *  \snippet EZI2CPin_SUT.c usage_EZI2CPin_Read  
 113:Generated_Source\PSoC5/EZI2CPin.c **** *******************************************************************************/
 114:Generated_Source\PSoC5/EZI2CPin.c **** uint8 EZI2CPin_Read(void)
 115:Generated_Source\PSoC5/EZI2CPin.c **** {
 100              		.loc 1 115 0
 101              		.cfi_startproc
 102              		@ args = 0, pretend = 0, frame = 0
 103              		@ frame_needed = 0, uses_anonymous_args = 0
 104              		@ link register save eliminated.
 116:Generated_Source\PSoC5/EZI2CPin.c ****     return (EZI2CPin_PS & EZI2CPin_MASK) >> EZI2CPin_SHIFT;
 105              		.loc 1 116 0
 106 0000 024B     		ldr	r3, .L8
 107 0002 1878     		ldrb	r0, [r3]	@ zero_extendqisi2
 117:Generated_Source\PSoC5/EZI2CPin.c **** }
 108              		.loc 1 117 0
 109 0004 C0F30110 		ubfx	r0, r0, #4, #2
ARM GAS  C:\Users\yqh\AppData\Local\Temp\ccAADaKQ.s 			page 5


 110 0008 7047     		bx	lr
 111              	.L9:
 112 000a 00BF     		.align	2
 113              	.L8:
 114 000c C1510040 		.word	1073762753
 115              		.cfi_endproc
 116              	.LFE2:
 117              		.size	EZI2CPin_Read, .-EZI2CPin_Read
 118              		.section	.text.EZI2CPin_ReadDataReg,"ax",%progbits
 119              		.align	1
 120              		.global	EZI2CPin_ReadDataReg
 121              		.thumb
 122              		.thumb_func
 123              		.type	EZI2CPin_ReadDataReg, %function
 124              	EZI2CPin_ReadDataReg:
 125              	.LFB3:
 118:Generated_Source\PSoC5/EZI2CPin.c **** 
 119:Generated_Source\PSoC5/EZI2CPin.c **** 
 120:Generated_Source\PSoC5/EZI2CPin.c **** /*******************************************************************************
 121:Generated_Source\PSoC5/EZI2CPin.c **** * Function Name: EZI2CPin_ReadDataReg
 122:Generated_Source\PSoC5/EZI2CPin.c **** ****************************************************************************//**
 123:Generated_Source\PSoC5/EZI2CPin.c **** *
 124:Generated_Source\PSoC5/EZI2CPin.c **** * \brief Reads the associated physical port's data output register and masks 
 125:Generated_Source\PSoC5/EZI2CPin.c **** *  the correct bits according to the width and bit position of the component 
 126:Generated_Source\PSoC5/EZI2CPin.c **** *  instance. 
 127:Generated_Source\PSoC5/EZI2CPin.c **** *
 128:Generated_Source\PSoC5/EZI2CPin.c **** * The data output register controls the signal applied to the physical pin in 
 129:Generated_Source\PSoC5/EZI2CPin.c **** * conjunction with the drive mode parameter. This is not the same as the 
 130:Generated_Source\PSoC5/EZI2CPin.c **** * preferred EZI2CPin_Read() API because the 
 131:Generated_Source\PSoC5/EZI2CPin.c **** * EZI2CPin_ReadDataReg() reads the data register instead of the status 
 132:Generated_Source\PSoC5/EZI2CPin.c **** * register. For output pins this is a useful function to determine the value 
 133:Generated_Source\PSoC5/EZI2CPin.c **** * just written to the pin.
 134:Generated_Source\PSoC5/EZI2CPin.c **** *
 135:Generated_Source\PSoC5/EZI2CPin.c **** * \return 
 136:Generated_Source\PSoC5/EZI2CPin.c **** *  The current value of the data register masked and shifted into a right 
 137:Generated_Source\PSoC5/EZI2CPin.c **** *  justified number for the component instance.
 138:Generated_Source\PSoC5/EZI2CPin.c **** *
 139:Generated_Source\PSoC5/EZI2CPin.c **** * \funcusage
 140:Generated_Source\PSoC5/EZI2CPin.c **** *  \snippet EZI2CPin_SUT.c usage_EZI2CPin_ReadDataReg 
 141:Generated_Source\PSoC5/EZI2CPin.c **** *******************************************************************************/
 142:Generated_Source\PSoC5/EZI2CPin.c **** uint8 EZI2CPin_ReadDataReg(void)
 143:Generated_Source\PSoC5/EZI2CPin.c **** {
 126              		.loc 1 143 0
 127              		.cfi_startproc
 128              		@ args = 0, pretend = 0, frame = 0
 129              		@ frame_needed = 0, uses_anonymous_args = 0
 130              		@ link register save eliminated.
 144:Generated_Source\PSoC5/EZI2CPin.c ****     return (EZI2CPin_DR & EZI2CPin_MASK) >> EZI2CPin_SHIFT;
 131              		.loc 1 144 0
 132 0000 024B     		ldr	r3, .L11
 133 0002 1878     		ldrb	r0, [r3]	@ zero_extendqisi2
 145:Generated_Source\PSoC5/EZI2CPin.c **** }
 134              		.loc 1 145 0
 135 0004 C0F30110 		ubfx	r0, r0, #4, #2
 136 0008 7047     		bx	lr
 137              	.L12:
 138 000a 00BF     		.align	2
ARM GAS  C:\Users\yqh\AppData\Local\Temp\ccAADaKQ.s 			page 6


 139              	.L11:
 140 000c C0510040 		.word	1073762752
 141              		.cfi_endproc
 142              	.LFE3:
 143              		.size	EZI2CPin_ReadDataReg, .-EZI2CPin_ReadDataReg
 144              		.text
 145              	.Letext0:
 146              		.file 2 "Generated_Source\\PSoC5\\cytypes.h"