ARM GAS  C:\Users\yqh\AppData\Local\Temp\ccJMynwP.s 			page 1


   1              		.syntax unified
   2              		.cpu cortex-m3
   3              		.fpu softvfp
   4              		.eabi_attribute 20, 1
   5              		.eabi_attribute 21, 1
   6              		.eabi_attribute 23, 3
   7              		.eabi_attribute 24, 1
   8              		.eabi_attribute 25, 1
   9              		.eabi_attribute 26, 1
  10              		.eabi_attribute 30, 4
  11              		.eabi_attribute 34, 1
  12              		.eabi_attribute 18, 4
  13              		.thumb
  14              		.file	"isr_SW_Rst.c"
  15              		.text
  16              	.Ltext0:
  17              		.cfi_sections	.debug_frame
  18              		.section	.text.isr_SW_Rst_Interrupt,"ax",%progbits
  19              		.align	1
  20              		.global	isr_SW_Rst_Interrupt
  21              		.thumb
  22              		.thumb_func
  23              		.type	isr_SW_Rst_Interrupt, %function
  24              	isr_SW_Rst_Interrupt:
  25              	.LFB66:
  26              		.file 1 "Generated_Source\\PSoC5\\isr_SW_Rst.c"
   1:Generated_Source\PSoC5/isr_SW_Rst.c **** /*******************************************************************************
   2:Generated_Source\PSoC5/isr_SW_Rst.c **** * File Name: isr_SW_Rst.c  
   3:Generated_Source\PSoC5/isr_SW_Rst.c **** * Version 1.70
   4:Generated_Source\PSoC5/isr_SW_Rst.c **** *
   5:Generated_Source\PSoC5/isr_SW_Rst.c **** *  Description:
   6:Generated_Source\PSoC5/isr_SW_Rst.c **** *   API for controlling the state of an interrupt.
   7:Generated_Source\PSoC5/isr_SW_Rst.c **** *
   8:Generated_Source\PSoC5/isr_SW_Rst.c **** *
   9:Generated_Source\PSoC5/isr_SW_Rst.c **** *  Note:
  10:Generated_Source\PSoC5/isr_SW_Rst.c **** *
  11:Generated_Source\PSoC5/isr_SW_Rst.c **** ********************************************************************************
  12:Generated_Source\PSoC5/isr_SW_Rst.c **** * Copyright 2008-2015, Cypress Semiconductor Corporation.  All rights reserved.
  13:Generated_Source\PSoC5/isr_SW_Rst.c **** * You may use this file only in accordance with the license, terms, conditions, 
  14:Generated_Source\PSoC5/isr_SW_Rst.c **** * disclaimers, and limitations in the end user license agreement accompanying 
  15:Generated_Source\PSoC5/isr_SW_Rst.c **** * the software package with which this file was provided.
  16:Generated_Source\PSoC5/isr_SW_Rst.c **** *******************************************************************************/
  17:Generated_Source\PSoC5/isr_SW_Rst.c **** 
  18:Generated_Source\PSoC5/isr_SW_Rst.c **** 
  19:Generated_Source\PSoC5/isr_SW_Rst.c **** #include <cydevice_trm.h>
  20:Generated_Source\PSoC5/isr_SW_Rst.c **** #include <CyLib.h>
  21:Generated_Source\PSoC5/isr_SW_Rst.c **** #include <isr_SW_Rst.h>
  22:Generated_Source\PSoC5/isr_SW_Rst.c **** 
  23:Generated_Source\PSoC5/isr_SW_Rst.c **** 
  24:Generated_Source\PSoC5/isr_SW_Rst.c **** #if !defined(isr_SW_Rst__REMOVED) /* Check for removal by optimization */
  25:Generated_Source\PSoC5/isr_SW_Rst.c **** 
  26:Generated_Source\PSoC5/isr_SW_Rst.c **** /*******************************************************************************
  27:Generated_Source\PSoC5/isr_SW_Rst.c **** *  Place your includes, defines and code here 
  28:Generated_Source\PSoC5/isr_SW_Rst.c **** ********************************************************************************/
  29:Generated_Source\PSoC5/isr_SW_Rst.c **** /* `#START isr_SW_Rst_intc` */
  30:Generated_Source\PSoC5/isr_SW_Rst.c **** #include "FltrReg.h"
  31:Generated_Source\PSoC5/isr_SW_Rst.c **** #include "LED_GRN.h"
ARM GAS  C:\Users\yqh\AppData\Local\Temp\ccJMynwP.s 			page 2


  32:Generated_Source\PSoC5/isr_SW_Rst.c **** #include "system.h"
  33:Generated_Source\PSoC5/isr_SW_Rst.c ****     
  34:Generated_Source\PSoC5/isr_SW_Rst.c **** char buttonPressed;
  35:Generated_Source\PSoC5/isr_SW_Rst.c **** char buttonReleased;
  36:Generated_Source\PSoC5/isr_SW_Rst.c **** long buttonDuration;
  37:Generated_Source\PSoC5/isr_SW_Rst.c ****     
  38:Generated_Source\PSoC5/isr_SW_Rst.c ****     
  39:Generated_Source\PSoC5/isr_SW_Rst.c ****     
  40:Generated_Source\PSoC5/isr_SW_Rst.c **** /* `#END` */
  41:Generated_Source\PSoC5/isr_SW_Rst.c **** 
  42:Generated_Source\PSoC5/isr_SW_Rst.c **** #ifndef CYINT_IRQ_BASE
  43:Generated_Source\PSoC5/isr_SW_Rst.c **** #define CYINT_IRQ_BASE      16
  44:Generated_Source\PSoC5/isr_SW_Rst.c **** #endif /* CYINT_IRQ_BASE */
  45:Generated_Source\PSoC5/isr_SW_Rst.c **** #ifndef CYINT_VECT_TABLE
  46:Generated_Source\PSoC5/isr_SW_Rst.c **** #define CYINT_VECT_TABLE    ((cyisraddress **) CYREG_NVIC_VECT_OFFSET)
  47:Generated_Source\PSoC5/isr_SW_Rst.c **** #endif /* CYINT_VECT_TABLE */
  48:Generated_Source\PSoC5/isr_SW_Rst.c **** 
  49:Generated_Source\PSoC5/isr_SW_Rst.c **** /* Declared in startup, used to set unused interrupts to. */
  50:Generated_Source\PSoC5/isr_SW_Rst.c **** CY_ISR_PROTO(IntDefaultHandler);
  51:Generated_Source\PSoC5/isr_SW_Rst.c **** 
  52:Generated_Source\PSoC5/isr_SW_Rst.c **** 
  53:Generated_Source\PSoC5/isr_SW_Rst.c **** /*******************************************************************************
  54:Generated_Source\PSoC5/isr_SW_Rst.c **** * Function Name: isr_SW_Rst_Start
  55:Generated_Source\PSoC5/isr_SW_Rst.c **** ********************************************************************************
  56:Generated_Source\PSoC5/isr_SW_Rst.c **** *
  57:Generated_Source\PSoC5/isr_SW_Rst.c **** * Summary:
  58:Generated_Source\PSoC5/isr_SW_Rst.c **** *  Set up the interrupt and enable it. This function disables the interrupt, 
  59:Generated_Source\PSoC5/isr_SW_Rst.c **** *  sets the default interrupt vector, sets the priority from the value in the
  60:Generated_Source\PSoC5/isr_SW_Rst.c **** *  Design Wide Resources Interrupt Editor, then enables the interrupt to the 
  61:Generated_Source\PSoC5/isr_SW_Rst.c **** *  interrupt controller.
  62:Generated_Source\PSoC5/isr_SW_Rst.c **** *
  63:Generated_Source\PSoC5/isr_SW_Rst.c **** * Parameters:  
  64:Generated_Source\PSoC5/isr_SW_Rst.c **** *   None
  65:Generated_Source\PSoC5/isr_SW_Rst.c **** *
  66:Generated_Source\PSoC5/isr_SW_Rst.c **** * Return:
  67:Generated_Source\PSoC5/isr_SW_Rst.c **** *   None
  68:Generated_Source\PSoC5/isr_SW_Rst.c **** *
  69:Generated_Source\PSoC5/isr_SW_Rst.c **** *******************************************************************************/
  70:Generated_Source\PSoC5/isr_SW_Rst.c **** void isr_SW_Rst_Start(void)
  71:Generated_Source\PSoC5/isr_SW_Rst.c **** {
  72:Generated_Source\PSoC5/isr_SW_Rst.c ****     /* For all we know the interrupt is active. */
  73:Generated_Source\PSoC5/isr_SW_Rst.c ****     isr_SW_Rst_Disable();
  74:Generated_Source\PSoC5/isr_SW_Rst.c **** 
  75:Generated_Source\PSoC5/isr_SW_Rst.c ****     /* Set the ISR to point to the isr_SW_Rst Interrupt. */
  76:Generated_Source\PSoC5/isr_SW_Rst.c ****     isr_SW_Rst_SetVector(&isr_SW_Rst_Interrupt);
  77:Generated_Source\PSoC5/isr_SW_Rst.c **** 
  78:Generated_Source\PSoC5/isr_SW_Rst.c ****     /* Set the priority. */
  79:Generated_Source\PSoC5/isr_SW_Rst.c ****     isr_SW_Rst_SetPriority((uint8)isr_SW_Rst_INTC_PRIOR_NUMBER);
  80:Generated_Source\PSoC5/isr_SW_Rst.c **** 
  81:Generated_Source\PSoC5/isr_SW_Rst.c ****     /* Enable it. */
  82:Generated_Source\PSoC5/isr_SW_Rst.c ****     isr_SW_Rst_Enable();
  83:Generated_Source\PSoC5/isr_SW_Rst.c **** }
  84:Generated_Source\PSoC5/isr_SW_Rst.c **** 
  85:Generated_Source\PSoC5/isr_SW_Rst.c **** 
  86:Generated_Source\PSoC5/isr_SW_Rst.c **** /*******************************************************************************
  87:Generated_Source\PSoC5/isr_SW_Rst.c **** * Function Name: isr_SW_Rst_StartEx
  88:Generated_Source\PSoC5/isr_SW_Rst.c **** ********************************************************************************
ARM GAS  C:\Users\yqh\AppData\Local\Temp\ccJMynwP.s 			page 3


  89:Generated_Source\PSoC5/isr_SW_Rst.c **** *
  90:Generated_Source\PSoC5/isr_SW_Rst.c **** * Summary:
  91:Generated_Source\PSoC5/isr_SW_Rst.c **** *  Sets up the interrupt and enables it. This function disables the interrupt,
  92:Generated_Source\PSoC5/isr_SW_Rst.c **** *  sets the interrupt vector based on the address passed in, sets the priority 
  93:Generated_Source\PSoC5/isr_SW_Rst.c **** *  from the value in the Design Wide Resources Interrupt Editor, then enables 
  94:Generated_Source\PSoC5/isr_SW_Rst.c **** *  the interrupt to the interrupt controller.
  95:Generated_Source\PSoC5/isr_SW_Rst.c **** *  
  96:Generated_Source\PSoC5/isr_SW_Rst.c **** *  When defining ISR functions, the CY_ISR and CY_ISR_PROTO macros should be 
  97:Generated_Source\PSoC5/isr_SW_Rst.c **** *  used to provide consistent definition across compilers:
  98:Generated_Source\PSoC5/isr_SW_Rst.c **** *  
  99:Generated_Source\PSoC5/isr_SW_Rst.c **** *  Function definition example:
 100:Generated_Source\PSoC5/isr_SW_Rst.c **** *   CY_ISR(MyISR)
 101:Generated_Source\PSoC5/isr_SW_Rst.c **** *   {
 102:Generated_Source\PSoC5/isr_SW_Rst.c **** *   }
 103:Generated_Source\PSoC5/isr_SW_Rst.c **** *   Function prototype example:
 104:Generated_Source\PSoC5/isr_SW_Rst.c **** *   CY_ISR_PROTO(MyISR);
 105:Generated_Source\PSoC5/isr_SW_Rst.c **** *
 106:Generated_Source\PSoC5/isr_SW_Rst.c **** * Parameters:  
 107:Generated_Source\PSoC5/isr_SW_Rst.c **** *   address: Address of the ISR to set in the interrupt vector table.
 108:Generated_Source\PSoC5/isr_SW_Rst.c **** *
 109:Generated_Source\PSoC5/isr_SW_Rst.c **** * Return:
 110:Generated_Source\PSoC5/isr_SW_Rst.c **** *   None
 111:Generated_Source\PSoC5/isr_SW_Rst.c **** *
 112:Generated_Source\PSoC5/isr_SW_Rst.c **** *******************************************************************************/
 113:Generated_Source\PSoC5/isr_SW_Rst.c **** void isr_SW_Rst_StartEx(cyisraddress address)
 114:Generated_Source\PSoC5/isr_SW_Rst.c **** {
 115:Generated_Source\PSoC5/isr_SW_Rst.c ****     /* For all we know the interrupt is active. */
 116:Generated_Source\PSoC5/isr_SW_Rst.c ****     isr_SW_Rst_Disable();
 117:Generated_Source\PSoC5/isr_SW_Rst.c **** 
 118:Generated_Source\PSoC5/isr_SW_Rst.c ****     /* Set the ISR to point to the isr_SW_Rst Interrupt. */
 119:Generated_Source\PSoC5/isr_SW_Rst.c ****     isr_SW_Rst_SetVector(address);
 120:Generated_Source\PSoC5/isr_SW_Rst.c **** 
 121:Generated_Source\PSoC5/isr_SW_Rst.c ****     /* Set the priority. */
 122:Generated_Source\PSoC5/isr_SW_Rst.c ****     isr_SW_Rst_SetPriority((uint8)isr_SW_Rst_INTC_PRIOR_NUMBER);
 123:Generated_Source\PSoC5/isr_SW_Rst.c **** 
 124:Generated_Source\PSoC5/isr_SW_Rst.c ****     /* Enable it. */
 125:Generated_Source\PSoC5/isr_SW_Rst.c ****     isr_SW_Rst_Enable();
 126:Generated_Source\PSoC5/isr_SW_Rst.c **** }
 127:Generated_Source\PSoC5/isr_SW_Rst.c **** 
 128:Generated_Source\PSoC5/isr_SW_Rst.c **** 
 129:Generated_Source\PSoC5/isr_SW_Rst.c **** /*******************************************************************************
 130:Generated_Source\PSoC5/isr_SW_Rst.c **** * Function Name: isr_SW_Rst_Stop
 131:Generated_Source\PSoC5/isr_SW_Rst.c **** ********************************************************************************
 132:Generated_Source\PSoC5/isr_SW_Rst.c **** *
 133:Generated_Source\PSoC5/isr_SW_Rst.c **** * Summary:
 134:Generated_Source\PSoC5/isr_SW_Rst.c **** *   Disables and removes the interrupt.
 135:Generated_Source\PSoC5/isr_SW_Rst.c **** *
 136:Generated_Source\PSoC5/isr_SW_Rst.c **** * Parameters:  
 137:Generated_Source\PSoC5/isr_SW_Rst.c **** *   None
 138:Generated_Source\PSoC5/isr_SW_Rst.c **** *
 139:Generated_Source\PSoC5/isr_SW_Rst.c **** * Return:
 140:Generated_Source\PSoC5/isr_SW_Rst.c **** *   None
 141:Generated_Source\PSoC5/isr_SW_Rst.c **** *
 142:Generated_Source\PSoC5/isr_SW_Rst.c **** *******************************************************************************/
 143:Generated_Source\PSoC5/isr_SW_Rst.c **** void isr_SW_Rst_Stop(void)
 144:Generated_Source\PSoC5/isr_SW_Rst.c **** {
 145:Generated_Source\PSoC5/isr_SW_Rst.c ****     /* Disable this interrupt. */
ARM GAS  C:\Users\yqh\AppData\Local\Temp\ccJMynwP.s 			page 4


 146:Generated_Source\PSoC5/isr_SW_Rst.c ****     isr_SW_Rst_Disable();
 147:Generated_Source\PSoC5/isr_SW_Rst.c **** 
 148:Generated_Source\PSoC5/isr_SW_Rst.c ****     /* Set the ISR to point to the passive one. */
 149:Generated_Source\PSoC5/isr_SW_Rst.c ****     isr_SW_Rst_SetVector(&IntDefaultHandler);
 150:Generated_Source\PSoC5/isr_SW_Rst.c **** }
 151:Generated_Source\PSoC5/isr_SW_Rst.c **** 
 152:Generated_Source\PSoC5/isr_SW_Rst.c **** 
 153:Generated_Source\PSoC5/isr_SW_Rst.c **** /*******************************************************************************
 154:Generated_Source\PSoC5/isr_SW_Rst.c **** * Function Name: isr_SW_Rst_Interrupt
 155:Generated_Source\PSoC5/isr_SW_Rst.c **** ********************************************************************************
 156:Generated_Source\PSoC5/isr_SW_Rst.c **** *
 157:Generated_Source\PSoC5/isr_SW_Rst.c **** * Summary:
 158:Generated_Source\PSoC5/isr_SW_Rst.c **** *   The default Interrupt Service Routine for isr_SW_Rst.
 159:Generated_Source\PSoC5/isr_SW_Rst.c **** *
 160:Generated_Source\PSoC5/isr_SW_Rst.c **** *   Add custom code between the coments to keep the next version of this file
 161:Generated_Source\PSoC5/isr_SW_Rst.c **** *   from over writting your code.
 162:Generated_Source\PSoC5/isr_SW_Rst.c **** *
 163:Generated_Source\PSoC5/isr_SW_Rst.c **** * Parameters:  
 164:Generated_Source\PSoC5/isr_SW_Rst.c **** *
 165:Generated_Source\PSoC5/isr_SW_Rst.c **** * Return:
 166:Generated_Source\PSoC5/isr_SW_Rst.c **** *   None
 167:Generated_Source\PSoC5/isr_SW_Rst.c **** *
 168:Generated_Source\PSoC5/isr_SW_Rst.c **** *******************************************************************************/
 169:Generated_Source\PSoC5/isr_SW_Rst.c **** CY_ISR(isr_SW_Rst_Interrupt)
 170:Generated_Source\PSoC5/isr_SW_Rst.c **** {
  27              		.loc 1 170 0
  28              		.cfi_startproc
  29              		@ args = 0, pretend = 0, frame = 0
  30              		@ frame_needed = 0, uses_anonymous_args = 0
  31 0000 70B5     		push	{r4, r5, r6, lr}
  32              		.cfi_def_cfa_offset 16
  33              		.cfi_offset 4, -16
  34              		.cfi_offset 5, -12
  35              		.cfi_offset 6, -8
  36              		.cfi_offset 14, -4
 171:Generated_Source\PSoC5/isr_SW_Rst.c ****     #ifdef isr_SW_Rst_INTERRUPT_INTERRUPT_CALLBACK
 172:Generated_Source\PSoC5/isr_SW_Rst.c ****         isr_SW_Rst_Interrupt_InterruptCallback();
 173:Generated_Source\PSoC5/isr_SW_Rst.c ****     #endif /* isr_SW_Rst_INTERRUPT_INTERRUPT_CALLBACK */ 
 174:Generated_Source\PSoC5/isr_SW_Rst.c **** 
 175:Generated_Source\PSoC5/isr_SW_Rst.c ****     /*  Place your Interrupt code here. */
 176:Generated_Source\PSoC5/isr_SW_Rst.c ****     /* `#START isr_SW_Rst_Interrupt` */
 177:Generated_Source\PSoC5/isr_SW_Rst.c ****     uint8 status_reg;
 178:Generated_Source\PSoC5/isr_SW_Rst.c ****     
 179:Generated_Source\PSoC5/isr_SW_Rst.c ****     status_reg = FltrReg_Read();
  37              		.loc 1 179 0
  38 0002 FFF7FEFF 		bl	FltrReg_Read
  39              	.LVL0:
 180:Generated_Source\PSoC5/isr_SW_Rst.c ****     if (status_reg & 0x1){
  40              		.loc 1 180 0
  41 0006 10F00106 		ands	r6, r0, #1
  42 000a 0A4D     		ldr	r5, .L5
  43 000c 0A4C     		ldr	r4, .L5+4
  44 000e 09D0     		beq	.L2
  45              	.LBB24:
  46              	.LBB25:
 181:Generated_Source\PSoC5/isr_SW_Rst.c ****         LED_GRN_Write(ON); //on
  47              		.loc 1 181 0
ARM GAS  C:\Users\yqh\AppData\Local\Temp\ccJMynwP.s 			page 5


  48 0010 0020     		movs	r0, #0
  49              	.LVL1:
  50 0012 FFF7FEFF 		bl	LED_GRN_Write
  51              	.LVL2:
 182:Generated_Source\PSoC5/isr_SW_Rst.c ****         buttonPressed = 1;
  52              		.loc 1 182 0
  53 0016 0123     		movs	r3, #1
  54 0018 2B70     		strb	r3, [r5]
 183:Generated_Source\PSoC5/isr_SW_Rst.c ****         buttonReleased = 0;
 184:Generated_Source\PSoC5/isr_SW_Rst.c ****         buttonDuration = 0;
  55              		.loc 1 184 0
  56 001a 084A     		ldr	r2, .L5+8
 183:Generated_Source\PSoC5/isr_SW_Rst.c ****         buttonReleased = 0;
  57              		.loc 1 183 0
  58 001c 0023     		movs	r3, #0
  59 001e 2370     		strb	r3, [r4]
  60              		.loc 1 184 0
  61 0020 1360     		str	r3, [r2]
  62 0022 70BD     		pop	{r4, r5, r6, pc}
  63              	.LVL3:
  64              	.L2:
  65              	.LBE25:
  66              	.LBE24:
 185:Generated_Source\PSoC5/isr_SW_Rst.c ****     }else{
 186:Generated_Source\PSoC5/isr_SW_Rst.c ****         LED_GRN_Write(OFF); //off
  67              		.loc 1 186 0
  68 0024 0120     		movs	r0, #1
  69              	.LVL4:
  70 0026 FFF7FEFF 		bl	LED_GRN_Write
  71              	.LVL5:
 187:Generated_Source\PSoC5/isr_SW_Rst.c ****         buttonPressed = 0;
 188:Generated_Source\PSoC5/isr_SW_Rst.c ****         buttonReleased = 1;
  72              		.loc 1 188 0
  73 002a 0123     		movs	r3, #1
 187:Generated_Source\PSoC5/isr_SW_Rst.c ****         buttonPressed = 0;
  74              		.loc 1 187 0
  75 002c 2E70     		strb	r6, [r5]
  76              		.loc 1 188 0
  77 002e 2370     		strb	r3, [r4]
  78 0030 70BD     		pop	{r4, r5, r6, pc}
  79              	.L6:
  80 0032 00BF     		.align	2
  81              	.L5:
  82 0034 00000000 		.word	buttonPressed
  83 0038 00000000 		.word	buttonReleased
  84 003c 00000000 		.word	buttonDuration
  85              		.cfi_endproc
  86              	.LFE66:
  87              		.size	isr_SW_Rst_Interrupt, .-isr_SW_Rst_Interrupt
  88              		.section	.text.isr_SW_Rst_Start,"ax",%progbits
  89              		.align	1
  90              		.global	isr_SW_Rst_Start
  91              		.thumb
  92              		.thumb_func
  93              		.type	isr_SW_Rst_Start, %function
  94              	isr_SW_Rst_Start:
  95              	.LFB63:
ARM GAS  C:\Users\yqh\AppData\Local\Temp\ccJMynwP.s 			page 6


  71:Generated_Source\PSoC5/isr_SW_Rst.c ****     /* For all we know the interrupt is active. */
  96              		.loc 1 71 0
  97              		.cfi_startproc
  98              		@ args = 0, pretend = 0, frame = 0
  99              		@ frame_needed = 0, uses_anonymous_args = 0
 100              		@ link register save eliminated.
 101              	.LBB26:
 102              	.LBB27:
 189:Generated_Source\PSoC5/isr_SW_Rst.c ****     }
 190:Generated_Source\PSoC5/isr_SW_Rst.c ****     /* `#END` */
 191:Generated_Source\PSoC5/isr_SW_Rst.c **** }
 192:Generated_Source\PSoC5/isr_SW_Rst.c **** 
 193:Generated_Source\PSoC5/isr_SW_Rst.c **** 
 194:Generated_Source\PSoC5/isr_SW_Rst.c **** /*******************************************************************************
 195:Generated_Source\PSoC5/isr_SW_Rst.c **** * Function Name: isr_SW_Rst_SetVector
 196:Generated_Source\PSoC5/isr_SW_Rst.c **** ********************************************************************************
 197:Generated_Source\PSoC5/isr_SW_Rst.c **** *
 198:Generated_Source\PSoC5/isr_SW_Rst.c **** * Summary:
 199:Generated_Source\PSoC5/isr_SW_Rst.c **** *   Change the ISR vector for the Interrupt. Note calling isr_SW_Rst_Start
 200:Generated_Source\PSoC5/isr_SW_Rst.c **** *   will override any effect this method would have had. To set the vector 
 201:Generated_Source\PSoC5/isr_SW_Rst.c **** *   before the component has been started use isr_SW_Rst_StartEx instead.
 202:Generated_Source\PSoC5/isr_SW_Rst.c **** * 
 203:Generated_Source\PSoC5/isr_SW_Rst.c **** *   When defining ISR functions, the CY_ISR and CY_ISR_PROTO macros should be 
 204:Generated_Source\PSoC5/isr_SW_Rst.c **** *   used to provide consistent definition across compilers:
 205:Generated_Source\PSoC5/isr_SW_Rst.c **** *
 206:Generated_Source\PSoC5/isr_SW_Rst.c **** *   Function definition example:
 207:Generated_Source\PSoC5/isr_SW_Rst.c **** *   CY_ISR(MyISR)
 208:Generated_Source\PSoC5/isr_SW_Rst.c **** *   {
 209:Generated_Source\PSoC5/isr_SW_Rst.c **** *   }
 210:Generated_Source\PSoC5/isr_SW_Rst.c **** *
 211:Generated_Source\PSoC5/isr_SW_Rst.c **** *   Function prototype example:
 212:Generated_Source\PSoC5/isr_SW_Rst.c **** *     CY_ISR_PROTO(MyISR);
 213:Generated_Source\PSoC5/isr_SW_Rst.c **** *
 214:Generated_Source\PSoC5/isr_SW_Rst.c **** * Parameters:
 215:Generated_Source\PSoC5/isr_SW_Rst.c **** *   address: Address of the ISR to set in the interrupt vector table.
 216:Generated_Source\PSoC5/isr_SW_Rst.c **** *
 217:Generated_Source\PSoC5/isr_SW_Rst.c **** * Return:
 218:Generated_Source\PSoC5/isr_SW_Rst.c **** *   None
 219:Generated_Source\PSoC5/isr_SW_Rst.c **** *
 220:Generated_Source\PSoC5/isr_SW_Rst.c **** *******************************************************************************/
 221:Generated_Source\PSoC5/isr_SW_Rst.c **** void isr_SW_Rst_SetVector(cyisraddress address)
 222:Generated_Source\PSoC5/isr_SW_Rst.c **** {
 223:Generated_Source\PSoC5/isr_SW_Rst.c ****     cyisraddress * ramVectorTable;
 224:Generated_Source\PSoC5/isr_SW_Rst.c **** 
 225:Generated_Source\PSoC5/isr_SW_Rst.c ****     ramVectorTable = (cyisraddress *) *CYINT_VECT_TABLE;
 226:Generated_Source\PSoC5/isr_SW_Rst.c **** 
 227:Generated_Source\PSoC5/isr_SW_Rst.c ****     ramVectorTable[CYINT_IRQ_BASE + (uint32)isr_SW_Rst__INTC_NUMBER] = address;
 228:Generated_Source\PSoC5/isr_SW_Rst.c **** }
 229:Generated_Source\PSoC5/isr_SW_Rst.c **** 
 230:Generated_Source\PSoC5/isr_SW_Rst.c **** 
 231:Generated_Source\PSoC5/isr_SW_Rst.c **** /*******************************************************************************
 232:Generated_Source\PSoC5/isr_SW_Rst.c **** * Function Name: isr_SW_Rst_GetVector
 233:Generated_Source\PSoC5/isr_SW_Rst.c **** ********************************************************************************
 234:Generated_Source\PSoC5/isr_SW_Rst.c **** *
 235:Generated_Source\PSoC5/isr_SW_Rst.c **** * Summary:
 236:Generated_Source\PSoC5/isr_SW_Rst.c **** *   Gets the "address" of the current ISR vector for the Interrupt.
 237:Generated_Source\PSoC5/isr_SW_Rst.c **** *
ARM GAS  C:\Users\yqh\AppData\Local\Temp\ccJMynwP.s 			page 7


 238:Generated_Source\PSoC5/isr_SW_Rst.c **** * Parameters:
 239:Generated_Source\PSoC5/isr_SW_Rst.c **** *   None
 240:Generated_Source\PSoC5/isr_SW_Rst.c **** *
 241:Generated_Source\PSoC5/isr_SW_Rst.c **** * Return:
 242:Generated_Source\PSoC5/isr_SW_Rst.c **** *   Address of the ISR in the interrupt vector table.
 243:Generated_Source\PSoC5/isr_SW_Rst.c **** *
 244:Generated_Source\PSoC5/isr_SW_Rst.c **** *******************************************************************************/
 245:Generated_Source\PSoC5/isr_SW_Rst.c **** cyisraddress isr_SW_Rst_GetVector(void)
 246:Generated_Source\PSoC5/isr_SW_Rst.c **** {
 247:Generated_Source\PSoC5/isr_SW_Rst.c ****     cyisraddress * ramVectorTable;
 248:Generated_Source\PSoC5/isr_SW_Rst.c **** 
 249:Generated_Source\PSoC5/isr_SW_Rst.c ****     ramVectorTable = (cyisraddress *) *CYINT_VECT_TABLE;
 250:Generated_Source\PSoC5/isr_SW_Rst.c **** 
 251:Generated_Source\PSoC5/isr_SW_Rst.c ****     return ramVectorTable[CYINT_IRQ_BASE + (uint32)isr_SW_Rst__INTC_NUMBER];
 252:Generated_Source\PSoC5/isr_SW_Rst.c **** }
 253:Generated_Source\PSoC5/isr_SW_Rst.c **** 
 254:Generated_Source\PSoC5/isr_SW_Rst.c **** 
 255:Generated_Source\PSoC5/isr_SW_Rst.c **** /*******************************************************************************
 256:Generated_Source\PSoC5/isr_SW_Rst.c **** * Function Name: isr_SW_Rst_SetPriority
 257:Generated_Source\PSoC5/isr_SW_Rst.c **** ********************************************************************************
 258:Generated_Source\PSoC5/isr_SW_Rst.c **** *
 259:Generated_Source\PSoC5/isr_SW_Rst.c **** * Summary:
 260:Generated_Source\PSoC5/isr_SW_Rst.c **** *   Sets the Priority of the Interrupt. 
 261:Generated_Source\PSoC5/isr_SW_Rst.c **** *
 262:Generated_Source\PSoC5/isr_SW_Rst.c **** *   Note calling isr_SW_Rst_Start or isr_SW_Rst_StartEx will 
 263:Generated_Source\PSoC5/isr_SW_Rst.c **** *   override any effect this API would have had. This API should only be called
 264:Generated_Source\PSoC5/isr_SW_Rst.c **** *   after isr_SW_Rst_Start or isr_SW_Rst_StartEx has been called. 
 265:Generated_Source\PSoC5/isr_SW_Rst.c **** *   To set the initial priority for the component, use the Design-Wide Resources
 266:Generated_Source\PSoC5/isr_SW_Rst.c **** *   Interrupt Editor.
 267:Generated_Source\PSoC5/isr_SW_Rst.c **** *
 268:Generated_Source\PSoC5/isr_SW_Rst.c **** *   Note This API has no effect on Non-maskable interrupt NMI).
 269:Generated_Source\PSoC5/isr_SW_Rst.c **** *
 270:Generated_Source\PSoC5/isr_SW_Rst.c **** * Parameters:
 271:Generated_Source\PSoC5/isr_SW_Rst.c **** *   priority: Priority of the interrupt, 0 being the highest priority
 272:Generated_Source\PSoC5/isr_SW_Rst.c **** *             PSoC 3 and PSoC 5LP: Priority is from 0 to 7.
 273:Generated_Source\PSoC5/isr_SW_Rst.c **** *             PSoC 4: Priority is from 0 to 3.
 274:Generated_Source\PSoC5/isr_SW_Rst.c **** *
 275:Generated_Source\PSoC5/isr_SW_Rst.c **** * Return:
 276:Generated_Source\PSoC5/isr_SW_Rst.c **** *   None
 277:Generated_Source\PSoC5/isr_SW_Rst.c **** *
 278:Generated_Source\PSoC5/isr_SW_Rst.c **** *******************************************************************************/
 279:Generated_Source\PSoC5/isr_SW_Rst.c **** void isr_SW_Rst_SetPriority(uint8 priority)
 280:Generated_Source\PSoC5/isr_SW_Rst.c **** {
 281:Generated_Source\PSoC5/isr_SW_Rst.c ****     *isr_SW_Rst_INTC_PRIOR = priority << 5;
 282:Generated_Source\PSoC5/isr_SW_Rst.c **** }
 283:Generated_Source\PSoC5/isr_SW_Rst.c **** 
 284:Generated_Source\PSoC5/isr_SW_Rst.c **** 
 285:Generated_Source\PSoC5/isr_SW_Rst.c **** /*******************************************************************************
 286:Generated_Source\PSoC5/isr_SW_Rst.c **** * Function Name: isr_SW_Rst_GetPriority
 287:Generated_Source\PSoC5/isr_SW_Rst.c **** ********************************************************************************
 288:Generated_Source\PSoC5/isr_SW_Rst.c **** *
 289:Generated_Source\PSoC5/isr_SW_Rst.c **** * Summary:
 290:Generated_Source\PSoC5/isr_SW_Rst.c **** *   Gets the Priority of the Interrupt.
 291:Generated_Source\PSoC5/isr_SW_Rst.c **** *
 292:Generated_Source\PSoC5/isr_SW_Rst.c **** * Parameters:
 293:Generated_Source\PSoC5/isr_SW_Rst.c **** *   None
 294:Generated_Source\PSoC5/isr_SW_Rst.c **** *
ARM GAS  C:\Users\yqh\AppData\Local\Temp\ccJMynwP.s 			page 8


 295:Generated_Source\PSoC5/isr_SW_Rst.c **** * Return:
 296:Generated_Source\PSoC5/isr_SW_Rst.c **** *   Priority of the interrupt, 0 being the highest priority
 297:Generated_Source\PSoC5/isr_SW_Rst.c **** *    PSoC 3 and PSoC 5LP: Priority is from 0 to 7.
 298:Generated_Source\PSoC5/isr_SW_Rst.c **** *    PSoC 4: Priority is from 0 to 3.
 299:Generated_Source\PSoC5/isr_SW_Rst.c **** *
 300:Generated_Source\PSoC5/isr_SW_Rst.c **** *******************************************************************************/
 301:Generated_Source\PSoC5/isr_SW_Rst.c **** uint8 isr_SW_Rst_GetPriority(void)
 302:Generated_Source\PSoC5/isr_SW_Rst.c **** {
 303:Generated_Source\PSoC5/isr_SW_Rst.c ****     uint8 priority;
 304:Generated_Source\PSoC5/isr_SW_Rst.c **** 
 305:Generated_Source\PSoC5/isr_SW_Rst.c **** 
 306:Generated_Source\PSoC5/isr_SW_Rst.c ****     priority = *isr_SW_Rst_INTC_PRIOR >> 5;
 307:Generated_Source\PSoC5/isr_SW_Rst.c **** 
 308:Generated_Source\PSoC5/isr_SW_Rst.c ****     return priority;
 309:Generated_Source\PSoC5/isr_SW_Rst.c **** }
 310:Generated_Source\PSoC5/isr_SW_Rst.c **** 
 311:Generated_Source\PSoC5/isr_SW_Rst.c **** 
 312:Generated_Source\PSoC5/isr_SW_Rst.c **** /*******************************************************************************
 313:Generated_Source\PSoC5/isr_SW_Rst.c **** * Function Name: isr_SW_Rst_Enable
 314:Generated_Source\PSoC5/isr_SW_Rst.c **** ********************************************************************************
 315:Generated_Source\PSoC5/isr_SW_Rst.c **** *
 316:Generated_Source\PSoC5/isr_SW_Rst.c **** * Summary:
 317:Generated_Source\PSoC5/isr_SW_Rst.c **** *   Enables the interrupt to the interrupt controller. Do not call this function
 318:Generated_Source\PSoC5/isr_SW_Rst.c **** *   unless ISR_Start() has been called or the functionality of the ISR_Start() 
 319:Generated_Source\PSoC5/isr_SW_Rst.c **** *   function, which sets the vector and the priority, has been called.
 320:Generated_Source\PSoC5/isr_SW_Rst.c **** *
 321:Generated_Source\PSoC5/isr_SW_Rst.c **** * Parameters:
 322:Generated_Source\PSoC5/isr_SW_Rst.c **** *   None
 323:Generated_Source\PSoC5/isr_SW_Rst.c **** *
 324:Generated_Source\PSoC5/isr_SW_Rst.c **** * Return:
 325:Generated_Source\PSoC5/isr_SW_Rst.c **** *   None
 326:Generated_Source\PSoC5/isr_SW_Rst.c **** *
 327:Generated_Source\PSoC5/isr_SW_Rst.c **** *******************************************************************************/
 328:Generated_Source\PSoC5/isr_SW_Rst.c **** void isr_SW_Rst_Enable(void)
 329:Generated_Source\PSoC5/isr_SW_Rst.c **** {
 330:Generated_Source\PSoC5/isr_SW_Rst.c ****     /* Enable the general interrupt. */
 331:Generated_Source\PSoC5/isr_SW_Rst.c ****     *isr_SW_Rst_INTC_SET_EN = isr_SW_Rst__INTC_MASK;
 332:Generated_Source\PSoC5/isr_SW_Rst.c **** }
 333:Generated_Source\PSoC5/isr_SW_Rst.c **** 
 334:Generated_Source\PSoC5/isr_SW_Rst.c **** 
 335:Generated_Source\PSoC5/isr_SW_Rst.c **** /*******************************************************************************
 336:Generated_Source\PSoC5/isr_SW_Rst.c **** * Function Name: isr_SW_Rst_GetState
 337:Generated_Source\PSoC5/isr_SW_Rst.c **** ********************************************************************************
 338:Generated_Source\PSoC5/isr_SW_Rst.c **** *
 339:Generated_Source\PSoC5/isr_SW_Rst.c **** * Summary:
 340:Generated_Source\PSoC5/isr_SW_Rst.c **** *   Gets the state (enabled, disabled) of the Interrupt.
 341:Generated_Source\PSoC5/isr_SW_Rst.c **** *
 342:Generated_Source\PSoC5/isr_SW_Rst.c **** * Parameters:
 343:Generated_Source\PSoC5/isr_SW_Rst.c **** *   None
 344:Generated_Source\PSoC5/isr_SW_Rst.c **** *
 345:Generated_Source\PSoC5/isr_SW_Rst.c **** * Return:
 346:Generated_Source\PSoC5/isr_SW_Rst.c **** *   1 if enabled, 0 if disabled.
 347:Generated_Source\PSoC5/isr_SW_Rst.c **** *
 348:Generated_Source\PSoC5/isr_SW_Rst.c **** *******************************************************************************/
 349:Generated_Source\PSoC5/isr_SW_Rst.c **** uint8 isr_SW_Rst_GetState(void)
 350:Generated_Source\PSoC5/isr_SW_Rst.c **** {
 351:Generated_Source\PSoC5/isr_SW_Rst.c ****     /* Get the state of the general interrupt. */
ARM GAS  C:\Users\yqh\AppData\Local\Temp\ccJMynwP.s 			page 9


 352:Generated_Source\PSoC5/isr_SW_Rst.c ****     return ((*isr_SW_Rst_INTC_SET_EN & (uint32)isr_SW_Rst__INTC_MASK) != 0u) ? 1u:0u;
 353:Generated_Source\PSoC5/isr_SW_Rst.c **** }
 354:Generated_Source\PSoC5/isr_SW_Rst.c **** 
 355:Generated_Source\PSoC5/isr_SW_Rst.c **** 
 356:Generated_Source\PSoC5/isr_SW_Rst.c **** /*******************************************************************************
 357:Generated_Source\PSoC5/isr_SW_Rst.c **** * Function Name: isr_SW_Rst_Disable
 358:Generated_Source\PSoC5/isr_SW_Rst.c **** ********************************************************************************
 359:Generated_Source\PSoC5/isr_SW_Rst.c **** *
 360:Generated_Source\PSoC5/isr_SW_Rst.c **** * Summary:
 361:Generated_Source\PSoC5/isr_SW_Rst.c **** *   Disables the Interrupt in the interrupt controller.
 362:Generated_Source\PSoC5/isr_SW_Rst.c **** *
 363:Generated_Source\PSoC5/isr_SW_Rst.c **** * Parameters:
 364:Generated_Source\PSoC5/isr_SW_Rst.c **** *   None
 365:Generated_Source\PSoC5/isr_SW_Rst.c **** *
 366:Generated_Source\PSoC5/isr_SW_Rst.c **** * Return:
 367:Generated_Source\PSoC5/isr_SW_Rst.c **** *   None
 368:Generated_Source\PSoC5/isr_SW_Rst.c **** *
 369:Generated_Source\PSoC5/isr_SW_Rst.c **** *******************************************************************************/
 370:Generated_Source\PSoC5/isr_SW_Rst.c **** void isr_SW_Rst_Disable(void)
 371:Generated_Source\PSoC5/isr_SW_Rst.c **** {
 372:Generated_Source\PSoC5/isr_SW_Rst.c ****     /* Disable the general interrupt. */
 373:Generated_Source\PSoC5/isr_SW_Rst.c ****     *isr_SW_Rst_INTC_CLR_EN = isr_SW_Rst__INTC_MASK;
 103              		.loc 1 373 0
 104 0000 074A     		ldr	r2, .L8
 105 0002 2023     		movs	r3, #32
 106 0004 1360     		str	r3, [r2]
 107              	.LVL6:
 108              	.LBE27:
 109              	.LBE26:
 110              	.LBB28:
 111              	.LBB29:
 225:Generated_Source\PSoC5/isr_SW_Rst.c **** 
 112              		.loc 1 225 0
 113 0006 02F68832 		addw	r2, r2, #2952
 114 000a 1268     		ldr	r2, [r2]
 115              	.LVL7:
 227:Generated_Source\PSoC5/isr_SW_Rst.c **** }
 116              		.loc 1 227 0
 117 000c 0549     		ldr	r1, .L8+4
 118 000e 5165     		str	r1, [r2, #84]
 119              	.LVL8:
 120              	.LBE29:
 121              	.LBE28:
 122              	.LBB30:
 123              	.LBB31:
 281:Generated_Source\PSoC5/isr_SW_Rst.c **** }
 124              		.loc 1 281 0
 125 0010 054A     		ldr	r2, .L8+8
 126              	.LVL9:
 127 0012 E021     		movs	r1, #224
 128 0014 1170     		strb	r1, [r2]
 129              	.LBE31:
 130              	.LBE30:
 131              	.LBB32:
 132              	.LBB33:
 331:Generated_Source\PSoC5/isr_SW_Rst.c **** }
 133              		.loc 1 331 0
ARM GAS  C:\Users\yqh\AppData\Local\Temp\ccJMynwP.s 			page 10


 134 0016 6FF44171 		mvn	r1, #772
 135 001a 0A44     		add	r2, r2, r1
 136 001c 1360     		str	r3, [r2]
 137 001e 7047     		bx	lr
 138              	.L9:
 139              		.align	2
 140              	.L8:
 141 0020 80E100E0 		.word	-536813184
 142 0024 00000000 		.word	isr_SW_Rst_Interrupt
 143 0028 05E400E0 		.word	-536812539
 144              	.LBE33:
 145              	.LBE32:
 146              		.cfi_endproc
 147              	.LFE63:
 148              		.size	isr_SW_Rst_Start, .-isr_SW_Rst_Start
 149              		.section	.text.isr_SW_Rst_StartEx,"ax",%progbits
 150              		.align	1
 151              		.global	isr_SW_Rst_StartEx
 152              		.thumb
 153              		.thumb_func
 154              		.type	isr_SW_Rst_StartEx, %function
 155              	isr_SW_Rst_StartEx:
 156              	.LFB64:
 114:Generated_Source\PSoC5/isr_SW_Rst.c ****     /* For all we know the interrupt is active. */
 157              		.loc 1 114 0
 158              		.cfi_startproc
 159              		@ args = 0, pretend = 0, frame = 0
 160              		@ frame_needed = 0, uses_anonymous_args = 0
 161              		@ link register save eliminated.
 162              	.LVL10:
 163              	.LBB34:
 164              	.LBB35:
 165              		.loc 1 373 0
 166 0000 074A     		ldr	r2, .L11
 167 0002 2023     		movs	r3, #32
 168 0004 1360     		str	r3, [r2]
 169              	.LVL11:
 170              	.LBE35:
 171              	.LBE34:
 172              	.LBB36:
 173              	.LBB37:
 225:Generated_Source\PSoC5/isr_SW_Rst.c **** 
 174              		.loc 1 225 0
 175 0006 02F68832 		addw	r2, r2, #2952
 176 000a 1268     		ldr	r2, [r2]
 177              	.LVL12:
 178              	.LBE37:
 179              	.LBE36:
 180              	.LBB39:
 181              	.LBB40:
 281:Generated_Source\PSoC5/isr_SW_Rst.c **** }
 182              		.loc 1 281 0
 183 000c E021     		movs	r1, #224
 184              	.LBE40:
 185              	.LBE39:
 186              	.LBB42:
 187              	.LBB38:
ARM GAS  C:\Users\yqh\AppData\Local\Temp\ccJMynwP.s 			page 11


 227:Generated_Source\PSoC5/isr_SW_Rst.c **** }
 188              		.loc 1 227 0
 189 000e 5065     		str	r0, [r2, #84]
 190              	.LVL13:
 191              	.LBE38:
 192              	.LBE42:
 193              	.LBB43:
 194              	.LBB41:
 281:Generated_Source\PSoC5/isr_SW_Rst.c **** }
 195              		.loc 1 281 0
 196 0010 044A     		ldr	r2, .L11+4
 197              	.LVL14:
 198 0012 1170     		strb	r1, [r2]
 199              	.LBE41:
 200              	.LBE43:
 201              	.LBB44:
 202              	.LBB45:
 331:Generated_Source\PSoC5/isr_SW_Rst.c **** }
 203              		.loc 1 331 0
 204 0014 6FF44171 		mvn	r1, #772
 205 0018 0A44     		add	r2, r2, r1
 206 001a 1360     		str	r3, [r2]
 207 001c 7047     		bx	lr
 208              	.L12:
 209 001e 00BF     		.align	2
 210              	.L11:
 211 0020 80E100E0 		.word	-536813184
 212 0024 05E400E0 		.word	-536812539
 213              	.LBE45:
 214              	.LBE44:
 215              		.cfi_endproc
 216              	.LFE64:
 217              		.size	isr_SW_Rst_StartEx, .-isr_SW_Rst_StartEx
 218              		.section	.text.isr_SW_Rst_Stop,"ax",%progbits
 219              		.align	1
 220              		.global	isr_SW_Rst_Stop
 221              		.thumb
 222              		.thumb_func
 223              		.type	isr_SW_Rst_Stop, %function
 224              	isr_SW_Rst_Stop:
 225              	.LFB65:
 144:Generated_Source\PSoC5/isr_SW_Rst.c ****     /* Disable this interrupt. */
 226              		.loc 1 144 0
 227              		.cfi_startproc
 228              		@ args = 0, pretend = 0, frame = 0
 229              		@ frame_needed = 0, uses_anonymous_args = 0
 230              		@ link register save eliminated.
 231              	.LBB46:
 232              	.LBB47:
 233              		.loc 1 373 0
 234 0000 044B     		ldr	r3, .L14
 235 0002 2022     		movs	r2, #32
 236 0004 1A60     		str	r2, [r3]
 237              	.LVL15:
 238              	.LBE47:
 239              	.LBE46:
 240              	.LBB48:
ARM GAS  C:\Users\yqh\AppData\Local\Temp\ccJMynwP.s 			page 12


 241              	.LBB49:
 225:Generated_Source\PSoC5/isr_SW_Rst.c **** 
 242              		.loc 1 225 0
 243 0006 03F68833 		addw	r3, r3, #2952
 244 000a 1B68     		ldr	r3, [r3]
 245              	.LVL16:
 227:Generated_Source\PSoC5/isr_SW_Rst.c **** }
 246              		.loc 1 227 0
 247 000c 024A     		ldr	r2, .L14+4
 248 000e 5A65     		str	r2, [r3, #84]
 249 0010 7047     		bx	lr
 250              	.L15:
 251 0012 00BF     		.align	2
 252              	.L14:
 253 0014 80E100E0 		.word	-536813184
 254 0018 00000000 		.word	IntDefaultHandler
 255              	.LBE49:
 256              	.LBE48:
 257              		.cfi_endproc
 258              	.LFE65:
 259              		.size	isr_SW_Rst_Stop, .-isr_SW_Rst_Stop
 260              		.section	.text.isr_SW_Rst_SetVector,"ax",%progbits
 261              		.align	1
 262              		.global	isr_SW_Rst_SetVector
 263              		.thumb
 264              		.thumb_func
 265              		.type	isr_SW_Rst_SetVector, %function
 266              	isr_SW_Rst_SetVector:
 267              	.LFB67:
 222:Generated_Source\PSoC5/isr_SW_Rst.c ****     cyisraddress * ramVectorTable;
 268              		.loc 1 222 0
 269              		.cfi_startproc
 270              		@ args = 0, pretend = 0, frame = 0
 271              		@ frame_needed = 0, uses_anonymous_args = 0
 272              		@ link register save eliminated.
 273              	.LVL17:
 225:Generated_Source\PSoC5/isr_SW_Rst.c **** 
 274              		.loc 1 225 0
 275 0000 014B     		ldr	r3, .L17
 276 0002 1B68     		ldr	r3, [r3]
 277              	.LVL18:
 227:Generated_Source\PSoC5/isr_SW_Rst.c **** }
 278              		.loc 1 227 0
 279 0004 5865     		str	r0, [r3, #84]
 280 0006 7047     		bx	lr
 281              	.L18:
 282              		.align	2
 283              	.L17:
 284 0008 08ED00E0 		.word	-536810232
 285              		.cfi_endproc
 286              	.LFE67:
 287              		.size	isr_SW_Rst_SetVector, .-isr_SW_Rst_SetVector
 288              		.section	.text.isr_SW_Rst_GetVector,"ax",%progbits
 289              		.align	1
 290              		.global	isr_SW_Rst_GetVector
 291              		.thumb
 292              		.thumb_func
ARM GAS  C:\Users\yqh\AppData\Local\Temp\ccJMynwP.s 			page 13


 293              		.type	isr_SW_Rst_GetVector, %function
 294              	isr_SW_Rst_GetVector:
 295              	.LFB68:
 246:Generated_Source\PSoC5/isr_SW_Rst.c ****     cyisraddress * ramVectorTable;
 296              		.loc 1 246 0
 297              		.cfi_startproc
 298              		@ args = 0, pretend = 0, frame = 0
 299              		@ frame_needed = 0, uses_anonymous_args = 0
 300              		@ link register save eliminated.
 301              	.LVL19:
 249:Generated_Source\PSoC5/isr_SW_Rst.c **** 
 302              		.loc 1 249 0
 303 0000 014B     		ldr	r3, .L20
 304              	.LVL20:
 251:Generated_Source\PSoC5/isr_SW_Rst.c **** }
 305              		.loc 1 251 0
 306 0002 1B68     		ldr	r3, [r3]
 307              	.LVL21:
 252:Generated_Source\PSoC5/isr_SW_Rst.c **** 
 308              		.loc 1 252 0
 309 0004 586D     		ldr	r0, [r3, #84]
 310 0006 7047     		bx	lr
 311              	.L21:
 312              		.align	2
 313              	.L20:
 314 0008 08ED00E0 		.word	-536810232
 315              		.cfi_endproc
 316              	.LFE68:
 317              		.size	isr_SW_Rst_GetVector, .-isr_SW_Rst_GetVector
 318              		.section	.text.isr_SW_Rst_SetPriority,"ax",%progbits
 319              		.align	1
 320              		.global	isr_SW_Rst_SetPriority
 321              		.thumb
 322              		.thumb_func
 323              		.type	isr_SW_Rst_SetPriority, %function
 324              	isr_SW_Rst_SetPriority:
 325              	.LFB69:
 280:Generated_Source\PSoC5/isr_SW_Rst.c ****     *isr_SW_Rst_INTC_PRIOR = priority << 5;
 326              		.loc 1 280 0
 327              		.cfi_startproc
 328              		@ args = 0, pretend = 0, frame = 0
 329              		@ frame_needed = 0, uses_anonymous_args = 0
 330              		@ link register save eliminated.
 331              	.LVL22:
 281:Generated_Source\PSoC5/isr_SW_Rst.c **** }
 332              		.loc 1 281 0
 333 0000 4001     		lsls	r0, r0, #5
 334              	.LVL23:
 335 0002 024B     		ldr	r3, .L23
 336 0004 C0B2     		uxtb	r0, r0
 337 0006 1870     		strb	r0, [r3]
 338 0008 7047     		bx	lr
 339              	.L24:
 340 000a 00BF     		.align	2
 341              	.L23:
 342 000c 05E400E0 		.word	-536812539
 343              		.cfi_endproc
ARM GAS  C:\Users\yqh\AppData\Local\Temp\ccJMynwP.s 			page 14


 344              	.LFE69:
 345              		.size	isr_SW_Rst_SetPriority, .-isr_SW_Rst_SetPriority
 346              		.section	.text.isr_SW_Rst_GetPriority,"ax",%progbits
 347              		.align	1
 348              		.global	isr_SW_Rst_GetPriority
 349              		.thumb
 350              		.thumb_func
 351              		.type	isr_SW_Rst_GetPriority, %function
 352              	isr_SW_Rst_GetPriority:
 353              	.LFB70:
 302:Generated_Source\PSoC5/isr_SW_Rst.c ****     uint8 priority;
 354              		.loc 1 302 0
 355              		.cfi_startproc
 356              		@ args = 0, pretend = 0, frame = 0
 357              		@ frame_needed = 0, uses_anonymous_args = 0
 358              		@ link register save eliminated.
 306:Generated_Source\PSoC5/isr_SW_Rst.c **** 
 359              		.loc 1 306 0
 360 0000 014B     		ldr	r3, .L26
 361 0002 1878     		ldrb	r0, [r3]	@ zero_extendqisi2
 362              	.LVL24:
 309:Generated_Source\PSoC5/isr_SW_Rst.c **** 
 363              		.loc 1 309 0
 364 0004 4009     		lsrs	r0, r0, #5
 365              	.LVL25:
 366 0006 7047     		bx	lr
 367              	.L27:
 368              		.align	2
 369              	.L26:
 370 0008 05E400E0 		.word	-536812539
 371              		.cfi_endproc
 372              	.LFE70:
 373              		.size	isr_SW_Rst_GetPriority, .-isr_SW_Rst_GetPriority
 374              		.section	.text.isr_SW_Rst_Enable,"ax",%progbits
 375              		.align	1
 376              		.global	isr_SW_Rst_Enable
 377              		.thumb
 378              		.thumb_func
 379              		.type	isr_SW_Rst_Enable, %function
 380              	isr_SW_Rst_Enable:
 381              	.LFB71:
 329:Generated_Source\PSoC5/isr_SW_Rst.c ****     /* Enable the general interrupt. */
 382              		.loc 1 329 0
 383              		.cfi_startproc
 384              		@ args = 0, pretend = 0, frame = 0
 385              		@ frame_needed = 0, uses_anonymous_args = 0
 386              		@ link register save eliminated.
 331:Generated_Source\PSoC5/isr_SW_Rst.c **** }
 387              		.loc 1 331 0
 388 0000 014B     		ldr	r3, .L29
 389 0002 2022     		movs	r2, #32
 390 0004 1A60     		str	r2, [r3]
 391 0006 7047     		bx	lr
 392              	.L30:
 393              		.align	2
 394              	.L29:
 395 0008 00E100E0 		.word	-536813312
ARM GAS  C:\Users\yqh\AppData\Local\Temp\ccJMynwP.s 			page 15


 396              		.cfi_endproc
 397              	.LFE71:
 398              		.size	isr_SW_Rst_Enable, .-isr_SW_Rst_Enable
 399              		.section	.text.isr_SW_Rst_GetState,"ax",%progbits
 400              		.align	1
 401              		.global	isr_SW_Rst_GetState
 402              		.thumb
 403              		.thumb_func
 404              		.type	isr_SW_Rst_GetState, %function
 405              	isr_SW_Rst_GetState:
 406              	.LFB72:
 350:Generated_Source\PSoC5/isr_SW_Rst.c ****     /* Get the state of the general interrupt. */
 407              		.loc 1 350 0
 408              		.cfi_startproc
 409              		@ args = 0, pretend = 0, frame = 0
 410              		@ frame_needed = 0, uses_anonymous_args = 0
 411              		@ link register save eliminated.
 352:Generated_Source\PSoC5/isr_SW_Rst.c **** }
 412              		.loc 1 352 0
 413 0000 024B     		ldr	r3, .L32
 414 0002 1868     		ldr	r0, [r3]
 353:Generated_Source\PSoC5/isr_SW_Rst.c **** 
 415              		.loc 1 353 0
 416 0004 C0F34010 		ubfx	r0, r0, #5, #1
 417 0008 7047     		bx	lr
 418              	.L33:
 419 000a 00BF     		.align	2
 420              	.L32:
 421 000c 00E100E0 		.word	-536813312
 422              		.cfi_endproc
 423              	.LFE72:
 424              		.size	isr_SW_Rst_GetState, .-isr_SW_Rst_GetState
 425              		.section	.text.isr_SW_Rst_Disable,"ax",%progbits
 426              		.align	1
 427              		.global	isr_SW_Rst_Disable
 428              		.thumb
 429              		.thumb_func
 430              		.type	isr_SW_Rst_Disable, %function
 431              	isr_SW_Rst_Disable:
 432              	.LFB73:
 371:Generated_Source\PSoC5/isr_SW_Rst.c ****     /* Disable the general interrupt. */
 433              		.loc 1 371 0
 434              		.cfi_startproc
 435              		@ args = 0, pretend = 0, frame = 0
 436              		@ frame_needed = 0, uses_anonymous_args = 0
 437              		@ link register save eliminated.
 438              		.loc 1 373 0
 439 0000 014B     		ldr	r3, .L35
 440 0002 2022     		movs	r2, #32
 441 0004 1A60     		str	r2, [r3]
 442 0006 7047     		bx	lr
 443              	.L36:
 444              		.align	2
 445              	.L35:
 446 0008 80E100E0 		.word	-536813184
 447              		.cfi_endproc
 448              	.LFE73:
ARM GAS  C:\Users\yqh\AppData\Local\Temp\ccJMynwP.s 			page 16


 449              		.size	isr_SW_Rst_Disable, .-isr_SW_Rst_Disable
 450              		.section	.text.isr_SW_Rst_SetPending,"ax",%progbits
 451              		.align	1
 452              		.global	isr_SW_Rst_SetPending
 453              		.thumb
 454              		.thumb_func
 455              		.type	isr_SW_Rst_SetPending, %function
 456              	isr_SW_Rst_SetPending:
 457              	.LFB74:
 374:Generated_Source\PSoC5/isr_SW_Rst.c **** }
 375:Generated_Source\PSoC5/isr_SW_Rst.c **** 
 376:Generated_Source\PSoC5/isr_SW_Rst.c **** 
 377:Generated_Source\PSoC5/isr_SW_Rst.c **** /*******************************************************************************
 378:Generated_Source\PSoC5/isr_SW_Rst.c **** * Function Name: isr_SW_Rst_SetPending
 379:Generated_Source\PSoC5/isr_SW_Rst.c **** ********************************************************************************
 380:Generated_Source\PSoC5/isr_SW_Rst.c **** *
 381:Generated_Source\PSoC5/isr_SW_Rst.c **** * Summary:
 382:Generated_Source\PSoC5/isr_SW_Rst.c **** *   Causes the Interrupt to enter the pending state, a software method of
 383:Generated_Source\PSoC5/isr_SW_Rst.c **** *   generating the interrupt.
 384:Generated_Source\PSoC5/isr_SW_Rst.c **** *
 385:Generated_Source\PSoC5/isr_SW_Rst.c **** * Parameters:
 386:Generated_Source\PSoC5/isr_SW_Rst.c **** *   None
 387:Generated_Source\PSoC5/isr_SW_Rst.c **** *
 388:Generated_Source\PSoC5/isr_SW_Rst.c **** * Return:
 389:Generated_Source\PSoC5/isr_SW_Rst.c **** *   None
 390:Generated_Source\PSoC5/isr_SW_Rst.c **** *
 391:Generated_Source\PSoC5/isr_SW_Rst.c **** * Side Effects:
 392:Generated_Source\PSoC5/isr_SW_Rst.c **** *   If interrupts are enabled and the interrupt is set up properly, the ISR is
 393:Generated_Source\PSoC5/isr_SW_Rst.c **** *   entered (depending on the priority of this interrupt and other pending 
 394:Generated_Source\PSoC5/isr_SW_Rst.c **** *   interrupts).
 395:Generated_Source\PSoC5/isr_SW_Rst.c **** *
 396:Generated_Source\PSoC5/isr_SW_Rst.c **** *******************************************************************************/
 397:Generated_Source\PSoC5/isr_SW_Rst.c **** void isr_SW_Rst_SetPending(void)
 398:Generated_Source\PSoC5/isr_SW_Rst.c **** {
 458              		.loc 1 398 0
 459              		.cfi_startproc
 460              		@ args = 0, pretend = 0, frame = 0
 461              		@ frame_needed = 0, uses_anonymous_args = 0
 462              		@ link register save eliminated.
 399:Generated_Source\PSoC5/isr_SW_Rst.c ****     *isr_SW_Rst_INTC_SET_PD = isr_SW_Rst__INTC_MASK;
 463              		.loc 1 399 0
 464 0000 014B     		ldr	r3, .L38
 465 0002 2022     		movs	r2, #32
 466 0004 1A60     		str	r2, [r3]
 467 0006 7047     		bx	lr
 468              	.L39:
 469              		.align	2
 470              	.L38:
 471 0008 00E200E0 		.word	-536813056
 472              		.cfi_endproc
 473              	.LFE74:
 474              		.size	isr_SW_Rst_SetPending, .-isr_SW_Rst_SetPending
 475              		.section	.text.isr_SW_Rst_ClearPending,"ax",%progbits
 476              		.align	1
 477              		.global	isr_SW_Rst_ClearPending
 478              		.thumb
 479              		.thumb_func
ARM GAS  C:\Users\yqh\AppData\Local\Temp\ccJMynwP.s 			page 17


 480              		.type	isr_SW_Rst_ClearPending, %function
 481              	isr_SW_Rst_ClearPending:
 482              	.LFB75:
 400:Generated_Source\PSoC5/isr_SW_Rst.c **** }
 401:Generated_Source\PSoC5/isr_SW_Rst.c **** 
 402:Generated_Source\PSoC5/isr_SW_Rst.c **** 
 403:Generated_Source\PSoC5/isr_SW_Rst.c **** /*******************************************************************************
 404:Generated_Source\PSoC5/isr_SW_Rst.c **** * Function Name: isr_SW_Rst_ClearPending
 405:Generated_Source\PSoC5/isr_SW_Rst.c **** ********************************************************************************
 406:Generated_Source\PSoC5/isr_SW_Rst.c **** *
 407:Generated_Source\PSoC5/isr_SW_Rst.c **** * Summary:
 408:Generated_Source\PSoC5/isr_SW_Rst.c **** *   Clears a pending interrupt in the interrupt controller.
 409:Generated_Source\PSoC5/isr_SW_Rst.c **** *
 410:Generated_Source\PSoC5/isr_SW_Rst.c **** *   Note Some interrupt sources are clear-on-read and require the block 
 411:Generated_Source\PSoC5/isr_SW_Rst.c **** *   interrupt/status register to be read/cleared with the appropriate block API 
 412:Generated_Source\PSoC5/isr_SW_Rst.c **** *   (GPIO, UART, and so on). Otherwise the ISR will continue to remain in 
 413:Generated_Source\PSoC5/isr_SW_Rst.c **** *   pending state even though the interrupt itself is cleared using this API.
 414:Generated_Source\PSoC5/isr_SW_Rst.c **** *
 415:Generated_Source\PSoC5/isr_SW_Rst.c **** * Parameters:
 416:Generated_Source\PSoC5/isr_SW_Rst.c **** *   None
 417:Generated_Source\PSoC5/isr_SW_Rst.c **** *
 418:Generated_Source\PSoC5/isr_SW_Rst.c **** * Return:
 419:Generated_Source\PSoC5/isr_SW_Rst.c **** *   None
 420:Generated_Source\PSoC5/isr_SW_Rst.c **** *
 421:Generated_Source\PSoC5/isr_SW_Rst.c **** *******************************************************************************/
 422:Generated_Source\PSoC5/isr_SW_Rst.c **** void isr_SW_Rst_ClearPending(void)
 423:Generated_Source\PSoC5/isr_SW_Rst.c **** {
 483              		.loc 1 423 0
 484              		.cfi_startproc
 485              		@ args = 0, pretend = 0, frame = 0
 486              		@ frame_needed = 0, uses_anonymous_args = 0
 487              		@ link register save eliminated.
 424:Generated_Source\PSoC5/isr_SW_Rst.c ****     *isr_SW_Rst_INTC_CLR_PD = isr_SW_Rst__INTC_MASK;
 488              		.loc 1 424 0
 489 0000 014B     		ldr	r3, .L41
 490 0002 2022     		movs	r2, #32
 491 0004 1A60     		str	r2, [r3]
 492 0006 7047     		bx	lr
 493              	.L42:
 494              		.align	2
 495              	.L41:
 496 0008 80E200E0 		.word	-536812928
 497              		.cfi_endproc
 498              	.LFE75:
 499              		.size	isr_SW_Rst_ClearPending, .-isr_SW_Rst_ClearPending
 500              		.comm	buttonDuration,4,4
 501              		.comm	buttonReleased,1,1
 502              		.comm	buttonPressed,1,1
 503              		.comm	card_in_buf,4,4
 504              		.comm	card_ack,4,4
 505              		.comm	tamper_out_polarity,4,4
 506              		.comm	tamperCR_polarity,4,4
 507              		.comm	tp_old,1,1
 508              		.comm	hw_old,1,1
 509              		.comm	currentAccessType,1,1
 510              		.comm	s,40,4
 511              		.text
ARM GAS  C:\Users\yqh\AppData\Local\Temp\ccJMynwP.s 			page 18


 512              	.Letext0:
 513              		.file 2 "c:\\program files (x86)\\cypress\\psoc creator\\4.0\\psoc creator\\import\\gnu\\arm\\4.9.
 514              		.file 3 "c:\\program files (x86)\\cypress\\psoc creator\\4.0\\psoc creator\\import\\gnu\\arm\\4.9.
 515              		.file 4 "Generated_Source\\PSoC5/cytypes.h"
 516              		.file 5 "./softuart.h"
 517              		.file 6 "Generated_Source\\PSoC5/core_cm3.h"
 518              		.file 7 "./system.h"
 519              		.file 8 "Generated_Source\\PSoC5\\LED_GRN.h"
 520              		.file 9 "Generated_Source\\PSoC5\\FltrReg.h"