ARM GAS  C:\Users\yqh\AppData\Local\Temp\ccrtIhph.s 			page 1


   1              		.syntax unified
   2              		.cpu cortex-m3
   3              		.fpu softvfp
   4              		.eabi_attribute 20, 1
   5              		.eabi_attribute 21, 1
   6              		.eabi_attribute 23, 3
   7              		.eabi_attribute 24, 1
   8              		.eabi_attribute 25, 1
   9              		.eabi_attribute 26, 1
  10              		.eabi_attribute 30, 4
  11              		.eabi_attribute 34, 1
  12              		.eabi_attribute 18, 4
  13              		.thumb
  14              		.file	"Tamper_Timer_PM.c"
  15              		.text
  16              	.Ltext0:
  17              		.cfi_sections	.debug_frame
  18              		.section	.text.Tamper_Timer_SaveConfig,"ax",%progbits
  19              		.align	1
  20              		.global	Tamper_Timer_SaveConfig
  21              		.thumb
  22              		.thumb_func
  23              		.type	Tamper_Timer_SaveConfig, %function
  24              	Tamper_Timer_SaveConfig:
  25              	.LFB0:
  26              		.file 1 "Generated_Source\\PSoC5\\Tamper_Timer_PM.c"
   1:Generated_Source\PSoC5/Tamper_Timer_PM.c **** /*******************************************************************************
   2:Generated_Source\PSoC5/Tamper_Timer_PM.c **** * File Name: Tamper_Timer_PM.c
   3:Generated_Source\PSoC5/Tamper_Timer_PM.c **** * Version 2.70
   4:Generated_Source\PSoC5/Tamper_Timer_PM.c **** *
   5:Generated_Source\PSoC5/Tamper_Timer_PM.c **** *  Description:
   6:Generated_Source\PSoC5/Tamper_Timer_PM.c **** *     This file provides the power management source code to API for the
   7:Generated_Source\PSoC5/Tamper_Timer_PM.c **** *     Timer.
   8:Generated_Source\PSoC5/Tamper_Timer_PM.c **** *
   9:Generated_Source\PSoC5/Tamper_Timer_PM.c **** *   Note:
  10:Generated_Source\PSoC5/Tamper_Timer_PM.c **** *     None
  11:Generated_Source\PSoC5/Tamper_Timer_PM.c **** *
  12:Generated_Source\PSoC5/Tamper_Timer_PM.c **** *******************************************************************************
  13:Generated_Source\PSoC5/Tamper_Timer_PM.c **** * Copyright 2008-2014, Cypress Semiconductor Corporation.  All rights reserved.
  14:Generated_Source\PSoC5/Tamper_Timer_PM.c **** * You may use this file only in accordance with the license, terms, conditions,
  15:Generated_Source\PSoC5/Tamper_Timer_PM.c **** * disclaimers, and limitations in the end user license agreement accompanying
  16:Generated_Source\PSoC5/Tamper_Timer_PM.c **** * the software package with which this file was provided.
  17:Generated_Source\PSoC5/Tamper_Timer_PM.c **** ********************************************************************************/
  18:Generated_Source\PSoC5/Tamper_Timer_PM.c **** 
  19:Generated_Source\PSoC5/Tamper_Timer_PM.c **** #include "Tamper_Timer.h"
  20:Generated_Source\PSoC5/Tamper_Timer_PM.c **** 
  21:Generated_Source\PSoC5/Tamper_Timer_PM.c **** static Tamper_Timer_backupStruct Tamper_Timer_backup;
  22:Generated_Source\PSoC5/Tamper_Timer_PM.c **** 
  23:Generated_Source\PSoC5/Tamper_Timer_PM.c **** 
  24:Generated_Source\PSoC5/Tamper_Timer_PM.c **** /*******************************************************************************
  25:Generated_Source\PSoC5/Tamper_Timer_PM.c **** * Function Name: Tamper_Timer_SaveConfig
  26:Generated_Source\PSoC5/Tamper_Timer_PM.c **** ********************************************************************************
  27:Generated_Source\PSoC5/Tamper_Timer_PM.c **** *
  28:Generated_Source\PSoC5/Tamper_Timer_PM.c **** * Summary:
  29:Generated_Source\PSoC5/Tamper_Timer_PM.c **** *     Save the current user configuration
  30:Generated_Source\PSoC5/Tamper_Timer_PM.c **** *
  31:Generated_Source\PSoC5/Tamper_Timer_PM.c **** * Parameters:
ARM GAS  C:\Users\yqh\AppData\Local\Temp\ccrtIhph.s 			page 2


  32:Generated_Source\PSoC5/Tamper_Timer_PM.c **** *  void
  33:Generated_Source\PSoC5/Tamper_Timer_PM.c **** *
  34:Generated_Source\PSoC5/Tamper_Timer_PM.c **** * Return:
  35:Generated_Source\PSoC5/Tamper_Timer_PM.c **** *  void
  36:Generated_Source\PSoC5/Tamper_Timer_PM.c **** *
  37:Generated_Source\PSoC5/Tamper_Timer_PM.c **** * Global variables:
  38:Generated_Source\PSoC5/Tamper_Timer_PM.c **** *  Tamper_Timer_backup:  Variables of this global structure are modified to
  39:Generated_Source\PSoC5/Tamper_Timer_PM.c **** *  store the values of non retention configuration registers when Sleep() API is
  40:Generated_Source\PSoC5/Tamper_Timer_PM.c **** *  called.
  41:Generated_Source\PSoC5/Tamper_Timer_PM.c **** *
  42:Generated_Source\PSoC5/Tamper_Timer_PM.c **** *******************************************************************************/
  43:Generated_Source\PSoC5/Tamper_Timer_PM.c **** void Tamper_Timer_SaveConfig(void) 
  44:Generated_Source\PSoC5/Tamper_Timer_PM.c **** {
  27              		.loc 1 44 0
  28              		.cfi_startproc
  29              		@ args = 0, pretend = 0, frame = 0
  30              		@ frame_needed = 0, uses_anonymous_args = 0
  31              		@ link register save eliminated.
  32 0000 7047     		bx	lr
  33              		.cfi_endproc
  34              	.LFE0:
  35              		.size	Tamper_Timer_SaveConfig, .-Tamper_Timer_SaveConfig
  36              		.section	.text.Tamper_Timer_RestoreConfig,"ax",%progbits
  37              		.align	1
  38              		.global	Tamper_Timer_RestoreConfig
  39              		.thumb
  40              		.thumb_func
  41              		.type	Tamper_Timer_RestoreConfig, %function
  42              	Tamper_Timer_RestoreConfig:
  43              	.LFB1:
  45:Generated_Source\PSoC5/Tamper_Timer_PM.c ****     #if (!Tamper_Timer_UsingFixedFunction)
  46:Generated_Source\PSoC5/Tamper_Timer_PM.c ****         Tamper_Timer_backup.TimerUdb = Tamper_Timer_ReadCounter();
  47:Generated_Source\PSoC5/Tamper_Timer_PM.c ****         Tamper_Timer_backup.InterruptMaskValue = Tamper_Timer_STATUS_MASK;
  48:Generated_Source\PSoC5/Tamper_Timer_PM.c ****         #if (Tamper_Timer_UsingHWCaptureCounter)
  49:Generated_Source\PSoC5/Tamper_Timer_PM.c ****             Tamper_Timer_backup.TimerCaptureCounter = Tamper_Timer_ReadCaptureCount();
  50:Generated_Source\PSoC5/Tamper_Timer_PM.c ****         #endif /* Back Up capture counter register  */
  51:Generated_Source\PSoC5/Tamper_Timer_PM.c **** 
  52:Generated_Source\PSoC5/Tamper_Timer_PM.c ****         #if(!Tamper_Timer_UDB_CONTROL_REG_REMOVED)
  53:Generated_Source\PSoC5/Tamper_Timer_PM.c ****             Tamper_Timer_backup.TimerControlRegister = Tamper_Timer_ReadControlRegister();
  54:Generated_Source\PSoC5/Tamper_Timer_PM.c ****         #endif /* Backup the enable state of the Timer component */
  55:Generated_Source\PSoC5/Tamper_Timer_PM.c ****     #endif /* Backup non retention registers in UDB implementation. All fixed function registers ar
  56:Generated_Source\PSoC5/Tamper_Timer_PM.c **** }
  57:Generated_Source\PSoC5/Tamper_Timer_PM.c **** 
  58:Generated_Source\PSoC5/Tamper_Timer_PM.c **** 
  59:Generated_Source\PSoC5/Tamper_Timer_PM.c **** /*******************************************************************************
  60:Generated_Source\PSoC5/Tamper_Timer_PM.c **** * Function Name: Tamper_Timer_RestoreConfig
  61:Generated_Source\PSoC5/Tamper_Timer_PM.c **** ********************************************************************************
  62:Generated_Source\PSoC5/Tamper_Timer_PM.c **** *
  63:Generated_Source\PSoC5/Tamper_Timer_PM.c **** * Summary:
  64:Generated_Source\PSoC5/Tamper_Timer_PM.c **** *  Restores the current user configuration.
  65:Generated_Source\PSoC5/Tamper_Timer_PM.c **** *
  66:Generated_Source\PSoC5/Tamper_Timer_PM.c **** * Parameters:
  67:Generated_Source\PSoC5/Tamper_Timer_PM.c **** *  void
  68:Generated_Source\PSoC5/Tamper_Timer_PM.c **** *
  69:Generated_Source\PSoC5/Tamper_Timer_PM.c **** * Return:
  70:Generated_Source\PSoC5/Tamper_Timer_PM.c **** *  void
  71:Generated_Source\PSoC5/Tamper_Timer_PM.c **** *
ARM GAS  C:\Users\yqh\AppData\Local\Temp\ccrtIhph.s 			page 3


  72:Generated_Source\PSoC5/Tamper_Timer_PM.c **** * Global variables:
  73:Generated_Source\PSoC5/Tamper_Timer_PM.c **** *  Tamper_Timer_backup:  Variables of this global structure are used to
  74:Generated_Source\PSoC5/Tamper_Timer_PM.c **** *  restore the values of non retention registers on wakeup from sleep mode.
  75:Generated_Source\PSoC5/Tamper_Timer_PM.c **** *
  76:Generated_Source\PSoC5/Tamper_Timer_PM.c **** *******************************************************************************/
  77:Generated_Source\PSoC5/Tamper_Timer_PM.c **** void Tamper_Timer_RestoreConfig(void) 
  78:Generated_Source\PSoC5/Tamper_Timer_PM.c **** {   
  44              		.loc 1 78 0
  45              		.cfi_startproc
  46              		@ args = 0, pretend = 0, frame = 0
  47              		@ frame_needed = 0, uses_anonymous_args = 0
  48              		@ link register save eliminated.
  49 0000 7047     		bx	lr
  50              		.cfi_endproc
  51              	.LFE1:
  52              		.size	Tamper_Timer_RestoreConfig, .-Tamper_Timer_RestoreConfig
  53              		.section	.text.Tamper_Timer_Sleep,"ax",%progbits
  54              		.align	1
  55              		.global	Tamper_Timer_Sleep
  56              		.thumb
  57              		.thumb_func
  58              		.type	Tamper_Timer_Sleep, %function
  59              	Tamper_Timer_Sleep:
  60              	.LFB2:
  79:Generated_Source\PSoC5/Tamper_Timer_PM.c ****     #if (!Tamper_Timer_UsingFixedFunction)
  80:Generated_Source\PSoC5/Tamper_Timer_PM.c **** 
  81:Generated_Source\PSoC5/Tamper_Timer_PM.c ****         Tamper_Timer_WriteCounter(Tamper_Timer_backup.TimerUdb);
  82:Generated_Source\PSoC5/Tamper_Timer_PM.c ****         Tamper_Timer_STATUS_MASK =Tamper_Timer_backup.InterruptMaskValue;
  83:Generated_Source\PSoC5/Tamper_Timer_PM.c ****         #if (Tamper_Timer_UsingHWCaptureCounter)
  84:Generated_Source\PSoC5/Tamper_Timer_PM.c ****             Tamper_Timer_SetCaptureCount(Tamper_Timer_backup.TimerCaptureCounter);
  85:Generated_Source\PSoC5/Tamper_Timer_PM.c ****         #endif /* Restore Capture counter register*/
  86:Generated_Source\PSoC5/Tamper_Timer_PM.c **** 
  87:Generated_Source\PSoC5/Tamper_Timer_PM.c ****         #if(!Tamper_Timer_UDB_CONTROL_REG_REMOVED)
  88:Generated_Source\PSoC5/Tamper_Timer_PM.c ****             Tamper_Timer_WriteControlRegister(Tamper_Timer_backup.TimerControlRegister);
  89:Generated_Source\PSoC5/Tamper_Timer_PM.c ****         #endif /* Restore the enable state of the Timer component */
  90:Generated_Source\PSoC5/Tamper_Timer_PM.c ****     #endif /* Restore non retention registers in the UDB implementation only */
  91:Generated_Source\PSoC5/Tamper_Timer_PM.c **** }
  92:Generated_Source\PSoC5/Tamper_Timer_PM.c **** 
  93:Generated_Source\PSoC5/Tamper_Timer_PM.c **** 
  94:Generated_Source\PSoC5/Tamper_Timer_PM.c **** /*******************************************************************************
  95:Generated_Source\PSoC5/Tamper_Timer_PM.c **** * Function Name: Tamper_Timer_Sleep
  96:Generated_Source\PSoC5/Tamper_Timer_PM.c **** ********************************************************************************
  97:Generated_Source\PSoC5/Tamper_Timer_PM.c **** *
  98:Generated_Source\PSoC5/Tamper_Timer_PM.c **** * Summary:
  99:Generated_Source\PSoC5/Tamper_Timer_PM.c **** *     Stop and Save the user configuration
 100:Generated_Source\PSoC5/Tamper_Timer_PM.c **** *
 101:Generated_Source\PSoC5/Tamper_Timer_PM.c **** * Parameters:
 102:Generated_Source\PSoC5/Tamper_Timer_PM.c **** *  void
 103:Generated_Source\PSoC5/Tamper_Timer_PM.c **** *
 104:Generated_Source\PSoC5/Tamper_Timer_PM.c **** * Return:
 105:Generated_Source\PSoC5/Tamper_Timer_PM.c **** *  void
 106:Generated_Source\PSoC5/Tamper_Timer_PM.c **** *
 107:Generated_Source\PSoC5/Tamper_Timer_PM.c **** * Global variables:
 108:Generated_Source\PSoC5/Tamper_Timer_PM.c **** *  Tamper_Timer_backup.TimerEnableState:  Is modified depending on the
 109:Generated_Source\PSoC5/Tamper_Timer_PM.c **** *  enable state of the block before entering sleep mode.
 110:Generated_Source\PSoC5/Tamper_Timer_PM.c **** *
 111:Generated_Source\PSoC5/Tamper_Timer_PM.c **** *******************************************************************************/
ARM GAS  C:\Users\yqh\AppData\Local\Temp\ccrtIhph.s 			page 4


 112:Generated_Source\PSoC5/Tamper_Timer_PM.c **** void Tamper_Timer_Sleep(void) 
 113:Generated_Source\PSoC5/Tamper_Timer_PM.c **** {
  61              		.loc 1 113 0
  62              		.cfi_startproc
  63              		@ args = 0, pretend = 0, frame = 0
  64              		@ frame_needed = 0, uses_anonymous_args = 0
  65              		@ link register save eliminated.
 114:Generated_Source\PSoC5/Tamper_Timer_PM.c ****     #if(!Tamper_Timer_UDB_CONTROL_REG_REMOVED)
 115:Generated_Source\PSoC5/Tamper_Timer_PM.c ****         /* Save Counter's enable state */
 116:Generated_Source\PSoC5/Tamper_Timer_PM.c ****         if(Tamper_Timer_CTRL_ENABLE == (Tamper_Timer_CONTROL & Tamper_Timer_CTRL_ENABLE))
  66              		.loc 1 116 0
  67 0000 044B     		ldr	r3, .L6
  68 0002 054A     		ldr	r2, .L6+4
  69 0004 1B78     		ldrb	r3, [r3]	@ zero_extendqisi2
  70 0006 13F00103 		ands	r3, r3, #1
 117:Generated_Source\PSoC5/Tamper_Timer_PM.c ****         {
 118:Generated_Source\PSoC5/Tamper_Timer_PM.c ****             /* Timer is enabled */
 119:Generated_Source\PSoC5/Tamper_Timer_PM.c ****             Tamper_Timer_backup.TimerEnableState = 1u;
  71              		.loc 1 119 0
  72 000a 18BF     		it	ne
  73 000c 0123     		movne	r3, #1
 120:Generated_Source\PSoC5/Tamper_Timer_PM.c ****         }
 121:Generated_Source\PSoC5/Tamper_Timer_PM.c ****         else
 122:Generated_Source\PSoC5/Tamper_Timer_PM.c ****         {
 123:Generated_Source\PSoC5/Tamper_Timer_PM.c ****             /* Timer is disabled */
 124:Generated_Source\PSoC5/Tamper_Timer_PM.c ****             Tamper_Timer_backup.TimerEnableState = 0u;
  74              		.loc 1 124 0
  75 000e 1370     		strb	r3, [r2]
 125:Generated_Source\PSoC5/Tamper_Timer_PM.c ****         }
 126:Generated_Source\PSoC5/Tamper_Timer_PM.c ****     #endif /* Back up enable state from the Timer control register */
 127:Generated_Source\PSoC5/Tamper_Timer_PM.c ****     Tamper_Timer_Stop();
  76              		.loc 1 127 0
  77 0010 FFF7FEBF 		b	Tamper_Timer_Stop
  78              	.LVL0:
  79              	.L7:
  80              		.align	2
  81              	.L6:
  82 0014 004F0040 		.word	1073762048
  83 0018 00000000 		.word	.LANCHOR0
  84              		.cfi_endproc
  85              	.LFE2:
  86              		.size	Tamper_Timer_Sleep, .-Tamper_Timer_Sleep
  87              		.section	.text.Tamper_Timer_Wakeup,"ax",%progbits
  88              		.align	1
  89              		.global	Tamper_Timer_Wakeup
  90              		.thumb
  91              		.thumb_func
  92              		.type	Tamper_Timer_Wakeup, %function
  93              	Tamper_Timer_Wakeup:
  94              	.LFB3:
 128:Generated_Source\PSoC5/Tamper_Timer_PM.c ****     Tamper_Timer_SaveConfig();
 129:Generated_Source\PSoC5/Tamper_Timer_PM.c **** }
 130:Generated_Source\PSoC5/Tamper_Timer_PM.c **** 
 131:Generated_Source\PSoC5/Tamper_Timer_PM.c **** 
 132:Generated_Source\PSoC5/Tamper_Timer_PM.c **** /*******************************************************************************
 133:Generated_Source\PSoC5/Tamper_Timer_PM.c **** * Function Name: Tamper_Timer_Wakeup
 134:Generated_Source\PSoC5/Tamper_Timer_PM.c **** ********************************************************************************
ARM GAS  C:\Users\yqh\AppData\Local\Temp\ccrtIhph.s 			page 5


 135:Generated_Source\PSoC5/Tamper_Timer_PM.c **** *
 136:Generated_Source\PSoC5/Tamper_Timer_PM.c **** * Summary:
 137:Generated_Source\PSoC5/Tamper_Timer_PM.c **** *  Restores and enables the user configuration
 138:Generated_Source\PSoC5/Tamper_Timer_PM.c **** *
 139:Generated_Source\PSoC5/Tamper_Timer_PM.c **** * Parameters:
 140:Generated_Source\PSoC5/Tamper_Timer_PM.c **** *  void
 141:Generated_Source\PSoC5/Tamper_Timer_PM.c **** *
 142:Generated_Source\PSoC5/Tamper_Timer_PM.c **** * Return:
 143:Generated_Source\PSoC5/Tamper_Timer_PM.c **** *  void
 144:Generated_Source\PSoC5/Tamper_Timer_PM.c **** *
 145:Generated_Source\PSoC5/Tamper_Timer_PM.c **** * Global variables:
 146:Generated_Source\PSoC5/Tamper_Timer_PM.c **** *  Tamper_Timer_backup.enableState:  Is used to restore the enable state of
 147:Generated_Source\PSoC5/Tamper_Timer_PM.c **** *  block on wakeup from sleep mode.
 148:Generated_Source\PSoC5/Tamper_Timer_PM.c **** *
 149:Generated_Source\PSoC5/Tamper_Timer_PM.c **** *******************************************************************************/
 150:Generated_Source\PSoC5/Tamper_Timer_PM.c **** void Tamper_Timer_Wakeup(void) 
 151:Generated_Source\PSoC5/Tamper_Timer_PM.c **** {
  95              		.loc 1 151 0
  96              		.cfi_startproc
  97              		@ args = 0, pretend = 0, frame = 0
  98              		@ frame_needed = 0, uses_anonymous_args = 0
  99              		@ link register save eliminated.
 152:Generated_Source\PSoC5/Tamper_Timer_PM.c ****     Tamper_Timer_RestoreConfig();
 153:Generated_Source\PSoC5/Tamper_Timer_PM.c ****     #if(!Tamper_Timer_UDB_CONTROL_REG_REMOVED)
 154:Generated_Source\PSoC5/Tamper_Timer_PM.c ****         if(Tamper_Timer_backup.TimerEnableState == 1u)
 100              		.loc 1 154 0
 101 0000 034B     		ldr	r3, .L11
 102 0002 1B78     		ldrb	r3, [r3]	@ zero_extendqisi2
 103 0004 012B     		cmp	r3, #1
 104 0006 01D1     		bne	.L8
 155:Generated_Source\PSoC5/Tamper_Timer_PM.c ****         {     /* Enable Timer's operation */
 156:Generated_Source\PSoC5/Tamper_Timer_PM.c ****                 Tamper_Timer_Enable();
 105              		.loc 1 156 0
 106 0008 FFF7FEBF 		b	Tamper_Timer_Enable
 107              	.LVL1:
 108              	.L8:
 109 000c 7047     		bx	lr
 110              	.L12:
 111 000e 00BF     		.align	2
 112              	.L11:
 113 0010 00000000 		.word	.LANCHOR0
 114              		.cfi_endproc
 115              	.LFE3:
 116              		.size	Tamper_Timer_Wakeup, .-Tamper_Timer_Wakeup
 117              		.bss
 118              		.set	.LANCHOR0,. + 0
 119              		.type	Tamper_Timer_backup, %object
 120              		.size	Tamper_Timer_backup, 1
 121              	Tamper_Timer_backup:
 122 0000 00       		.space	1
 123              		.text
 124              	.Letext0:
 125              		.file 2 "Generated_Source\\PSoC5\\cytypes.h"
 126              		.file 3 "Generated_Source\\PSoC5\\Tamper_Timer.h"