ARM GAS  C:\Users\yqh\AppData\Local\Temp\ccCVIjt4.s 			page 1


   1              		.syntax unified
   2              		.cpu cortex-m3
   3              		.fpu softvfp
   4              		.eabi_attribute 20, 1
   5              		.eabi_attribute 21, 1
   6              		.eabi_attribute 23, 3
   7              		.eabi_attribute 24, 1
   8              		.eabi_attribute 25, 1
   9              		.eabi_attribute 26, 1
  10              		.eabi_attribute 30, 4
  11              		.eabi_attribute 34, 1
  12              		.eabi_attribute 18, 4
  13              		.thumb
  14              		.file	"Tamper_Timer_ISR.c"
  15              		.text
  16              	.Ltext0:
  17              		.cfi_sections	.debug_frame
  18              		.section	.text.Tamper_Timer_ISR_Interrupt,"ax",%progbits
  19              		.align	1
  20              		.global	Tamper_Timer_ISR_Interrupt
  21              		.thumb
  22              		.thumb_func
  23              		.type	Tamper_Timer_ISR_Interrupt, %function
  24              	Tamper_Timer_ISR_Interrupt:
  25              	.LFB66:
  26              		.file 1 "Generated_Source\\PSoC5\\Tamper_Timer_ISR.c"
   1:Generated_Source\PSoC5/Tamper_Timer_ISR.c **** /*******************************************************************************
   2:Generated_Source\PSoC5/Tamper_Timer_ISR.c **** * File Name: Tamper_Timer_ISR.c  
   3:Generated_Source\PSoC5/Tamper_Timer_ISR.c **** * Version 1.70
   4:Generated_Source\PSoC5/Tamper_Timer_ISR.c **** *
   5:Generated_Source\PSoC5/Tamper_Timer_ISR.c **** *  Description:
   6:Generated_Source\PSoC5/Tamper_Timer_ISR.c **** *   API for controlling the state of an interrupt.
   7:Generated_Source\PSoC5/Tamper_Timer_ISR.c **** *
   8:Generated_Source\PSoC5/Tamper_Timer_ISR.c **** *
   9:Generated_Source\PSoC5/Tamper_Timer_ISR.c **** *  Note:
  10:Generated_Source\PSoC5/Tamper_Timer_ISR.c **** *
  11:Generated_Source\PSoC5/Tamper_Timer_ISR.c **** ********************************************************************************
  12:Generated_Source\PSoC5/Tamper_Timer_ISR.c **** * Copyright 2008-2015, Cypress Semiconductor Corporation.  All rights reserved.
  13:Generated_Source\PSoC5/Tamper_Timer_ISR.c **** * You may use this file only in accordance with the license, terms, conditions, 
  14:Generated_Source\PSoC5/Tamper_Timer_ISR.c **** * disclaimers, and limitations in the end user license agreement accompanying 
  15:Generated_Source\PSoC5/Tamper_Timer_ISR.c **** * the software package with which this file was provided.
  16:Generated_Source\PSoC5/Tamper_Timer_ISR.c **** *******************************************************************************/
  17:Generated_Source\PSoC5/Tamper_Timer_ISR.c **** 
  18:Generated_Source\PSoC5/Tamper_Timer_ISR.c **** 
  19:Generated_Source\PSoC5/Tamper_Timer_ISR.c **** #include <cydevice_trm.h>
  20:Generated_Source\PSoC5/Tamper_Timer_ISR.c **** #include <CyLib.h>
  21:Generated_Source\PSoC5/Tamper_Timer_ISR.c **** #include <Tamper_Timer_ISR.h>
  22:Generated_Source\PSoC5/Tamper_Timer_ISR.c **** 
  23:Generated_Source\PSoC5/Tamper_Timer_ISR.c **** 
  24:Generated_Source\PSoC5/Tamper_Timer_ISR.c **** #if !defined(Tamper_Timer_ISR__REMOVED) /* Check for removal by optimization */
  25:Generated_Source\PSoC5/Tamper_Timer_ISR.c **** 
  26:Generated_Source\PSoC5/Tamper_Timer_ISR.c **** /*******************************************************************************
  27:Generated_Source\PSoC5/Tamper_Timer_ISR.c **** *  Place your includes, defines and code here 
  28:Generated_Source\PSoC5/Tamper_Timer_ISR.c **** ********************************************************************************/
  29:Generated_Source\PSoC5/Tamper_Timer_ISR.c **** /* `#START Tamper_Timer_ISR_intc` */
  30:Generated_Source\PSoC5/Tamper_Timer_ISR.c **** #include "Tamper_Timer.h"
  31:Generated_Source\PSoC5/Tamper_Timer_ISR.c **** #include "inout.h"
ARM GAS  C:\Users\yqh\AppData\Local\Temp\ccCVIjt4.s 			page 2


  32:Generated_Source\PSoC5/Tamper_Timer_ISR.c **** #include "system.h"
  33:Generated_Source\PSoC5/Tamper_Timer_ISR.c **** #include "PS_D1.h"
  34:Generated_Source\PSoC5/Tamper_Timer_ISR.c **** /* `#END` */
  35:Generated_Source\PSoC5/Tamper_Timer_ISR.c **** 
  36:Generated_Source\PSoC5/Tamper_Timer_ISR.c **** #ifndef CYINT_IRQ_BASE
  37:Generated_Source\PSoC5/Tamper_Timer_ISR.c **** #define CYINT_IRQ_BASE      16
  38:Generated_Source\PSoC5/Tamper_Timer_ISR.c **** #endif /* CYINT_IRQ_BASE */
  39:Generated_Source\PSoC5/Tamper_Timer_ISR.c **** #ifndef CYINT_VECT_TABLE
  40:Generated_Source\PSoC5/Tamper_Timer_ISR.c **** #define CYINT_VECT_TABLE    ((cyisraddress **) CYREG_NVIC_VECT_OFFSET)
  41:Generated_Source\PSoC5/Tamper_Timer_ISR.c **** #endif /* CYINT_VECT_TABLE */
  42:Generated_Source\PSoC5/Tamper_Timer_ISR.c **** 
  43:Generated_Source\PSoC5/Tamper_Timer_ISR.c **** /* Declared in startup, used to set unused interrupts to. */
  44:Generated_Source\PSoC5/Tamper_Timer_ISR.c **** CY_ISR_PROTO(IntDefaultHandler);
  45:Generated_Source\PSoC5/Tamper_Timer_ISR.c **** 
  46:Generated_Source\PSoC5/Tamper_Timer_ISR.c **** 
  47:Generated_Source\PSoC5/Tamper_Timer_ISR.c **** /*******************************************************************************
  48:Generated_Source\PSoC5/Tamper_Timer_ISR.c **** * Function Name: Tamper_Timer_ISR_Start
  49:Generated_Source\PSoC5/Tamper_Timer_ISR.c **** ********************************************************************************
  50:Generated_Source\PSoC5/Tamper_Timer_ISR.c **** *
  51:Generated_Source\PSoC5/Tamper_Timer_ISR.c **** * Summary:
  52:Generated_Source\PSoC5/Tamper_Timer_ISR.c **** *  Set up the interrupt and enable it. This function disables the interrupt, 
  53:Generated_Source\PSoC5/Tamper_Timer_ISR.c **** *  sets the default interrupt vector, sets the priority from the value in the
  54:Generated_Source\PSoC5/Tamper_Timer_ISR.c **** *  Design Wide Resources Interrupt Editor, then enables the interrupt to the 
  55:Generated_Source\PSoC5/Tamper_Timer_ISR.c **** *  interrupt controller.
  56:Generated_Source\PSoC5/Tamper_Timer_ISR.c **** *
  57:Generated_Source\PSoC5/Tamper_Timer_ISR.c **** * Parameters:  
  58:Generated_Source\PSoC5/Tamper_Timer_ISR.c **** *   None
  59:Generated_Source\PSoC5/Tamper_Timer_ISR.c **** *
  60:Generated_Source\PSoC5/Tamper_Timer_ISR.c **** * Return:
  61:Generated_Source\PSoC5/Tamper_Timer_ISR.c **** *   None
  62:Generated_Source\PSoC5/Tamper_Timer_ISR.c **** *
  63:Generated_Source\PSoC5/Tamper_Timer_ISR.c **** *******************************************************************************/
  64:Generated_Source\PSoC5/Tamper_Timer_ISR.c **** void Tamper_Timer_ISR_Start(void)
  65:Generated_Source\PSoC5/Tamper_Timer_ISR.c **** {
  66:Generated_Source\PSoC5/Tamper_Timer_ISR.c ****     /* For all we know the interrupt is active. */
  67:Generated_Source\PSoC5/Tamper_Timer_ISR.c ****     Tamper_Timer_ISR_Disable();
  68:Generated_Source\PSoC5/Tamper_Timer_ISR.c **** 
  69:Generated_Source\PSoC5/Tamper_Timer_ISR.c ****     /* Set the ISR to point to the Tamper_Timer_ISR Interrupt. */
  70:Generated_Source\PSoC5/Tamper_Timer_ISR.c ****     Tamper_Timer_ISR_SetVector(&Tamper_Timer_ISR_Interrupt);
  71:Generated_Source\PSoC5/Tamper_Timer_ISR.c **** 
  72:Generated_Source\PSoC5/Tamper_Timer_ISR.c ****     /* Set the priority. */
  73:Generated_Source\PSoC5/Tamper_Timer_ISR.c ****     Tamper_Timer_ISR_SetPriority((uint8)Tamper_Timer_ISR_INTC_PRIOR_NUMBER);
  74:Generated_Source\PSoC5/Tamper_Timer_ISR.c **** 
  75:Generated_Source\PSoC5/Tamper_Timer_ISR.c ****     /* Enable it. */
  76:Generated_Source\PSoC5/Tamper_Timer_ISR.c ****     Tamper_Timer_ISR_Enable();
  77:Generated_Source\PSoC5/Tamper_Timer_ISR.c **** }
  78:Generated_Source\PSoC5/Tamper_Timer_ISR.c **** 
  79:Generated_Source\PSoC5/Tamper_Timer_ISR.c **** 
  80:Generated_Source\PSoC5/Tamper_Timer_ISR.c **** /*******************************************************************************
  81:Generated_Source\PSoC5/Tamper_Timer_ISR.c **** * Function Name: Tamper_Timer_ISR_StartEx
  82:Generated_Source\PSoC5/Tamper_Timer_ISR.c **** ********************************************************************************
  83:Generated_Source\PSoC5/Tamper_Timer_ISR.c **** *
  84:Generated_Source\PSoC5/Tamper_Timer_ISR.c **** * Summary:
  85:Generated_Source\PSoC5/Tamper_Timer_ISR.c **** *  Sets up the interrupt and enables it. This function disables the interrupt,
  86:Generated_Source\PSoC5/Tamper_Timer_ISR.c **** *  sets the interrupt vector based on the address passed in, sets the priority 
  87:Generated_Source\PSoC5/Tamper_Timer_ISR.c **** *  from the value in the Design Wide Resources Interrupt Editor, then enables 
  88:Generated_Source\PSoC5/Tamper_Timer_ISR.c **** *  the interrupt to the interrupt controller.
ARM GAS  C:\Users\yqh\AppData\Local\Temp\ccCVIjt4.s 			page 3


  89:Generated_Source\PSoC5/Tamper_Timer_ISR.c **** *  
  90:Generated_Source\PSoC5/Tamper_Timer_ISR.c **** *  When defining ISR functions, the CY_ISR and CY_ISR_PROTO macros should be 
  91:Generated_Source\PSoC5/Tamper_Timer_ISR.c **** *  used to provide consistent definition across compilers:
  92:Generated_Source\PSoC5/Tamper_Timer_ISR.c **** *  
  93:Generated_Source\PSoC5/Tamper_Timer_ISR.c **** *  Function definition example:
  94:Generated_Source\PSoC5/Tamper_Timer_ISR.c **** *   CY_ISR(MyISR)
  95:Generated_Source\PSoC5/Tamper_Timer_ISR.c **** *   {
  96:Generated_Source\PSoC5/Tamper_Timer_ISR.c **** *   }
  97:Generated_Source\PSoC5/Tamper_Timer_ISR.c **** *   Function prototype example:
  98:Generated_Source\PSoC5/Tamper_Timer_ISR.c **** *   CY_ISR_PROTO(MyISR);
  99:Generated_Source\PSoC5/Tamper_Timer_ISR.c **** *
 100:Generated_Source\PSoC5/Tamper_Timer_ISR.c **** * Parameters:  
 101:Generated_Source\PSoC5/Tamper_Timer_ISR.c **** *   address: Address of the ISR to set in the interrupt vector table.
 102:Generated_Source\PSoC5/Tamper_Timer_ISR.c **** *
 103:Generated_Source\PSoC5/Tamper_Timer_ISR.c **** * Return:
 104:Generated_Source\PSoC5/Tamper_Timer_ISR.c **** *   None
 105:Generated_Source\PSoC5/Tamper_Timer_ISR.c **** *
 106:Generated_Source\PSoC5/Tamper_Timer_ISR.c **** *******************************************************************************/
 107:Generated_Source\PSoC5/Tamper_Timer_ISR.c **** void Tamper_Timer_ISR_StartEx(cyisraddress address)
 108:Generated_Source\PSoC5/Tamper_Timer_ISR.c **** {
 109:Generated_Source\PSoC5/Tamper_Timer_ISR.c ****     /* For all we know the interrupt is active. */
 110:Generated_Source\PSoC5/Tamper_Timer_ISR.c ****     Tamper_Timer_ISR_Disable();
 111:Generated_Source\PSoC5/Tamper_Timer_ISR.c **** 
 112:Generated_Source\PSoC5/Tamper_Timer_ISR.c ****     /* Set the ISR to point to the Tamper_Timer_ISR Interrupt. */
 113:Generated_Source\PSoC5/Tamper_Timer_ISR.c ****     Tamper_Timer_ISR_SetVector(address);
 114:Generated_Source\PSoC5/Tamper_Timer_ISR.c **** 
 115:Generated_Source\PSoC5/Tamper_Timer_ISR.c ****     /* Set the priority. */
 116:Generated_Source\PSoC5/Tamper_Timer_ISR.c ****     Tamper_Timer_ISR_SetPriority((uint8)Tamper_Timer_ISR_INTC_PRIOR_NUMBER);
 117:Generated_Source\PSoC5/Tamper_Timer_ISR.c **** 
 118:Generated_Source\PSoC5/Tamper_Timer_ISR.c ****     /* Enable it. */
 119:Generated_Source\PSoC5/Tamper_Timer_ISR.c ****     Tamper_Timer_ISR_Enable();
 120:Generated_Source\PSoC5/Tamper_Timer_ISR.c **** }
 121:Generated_Source\PSoC5/Tamper_Timer_ISR.c **** 
 122:Generated_Source\PSoC5/Tamper_Timer_ISR.c **** 
 123:Generated_Source\PSoC5/Tamper_Timer_ISR.c **** /*******************************************************************************
 124:Generated_Source\PSoC5/Tamper_Timer_ISR.c **** * Function Name: Tamper_Timer_ISR_Stop
 125:Generated_Source\PSoC5/Tamper_Timer_ISR.c **** ********************************************************************************
 126:Generated_Source\PSoC5/Tamper_Timer_ISR.c **** *
 127:Generated_Source\PSoC5/Tamper_Timer_ISR.c **** * Summary:
 128:Generated_Source\PSoC5/Tamper_Timer_ISR.c **** *   Disables and removes the interrupt.
 129:Generated_Source\PSoC5/Tamper_Timer_ISR.c **** *
 130:Generated_Source\PSoC5/Tamper_Timer_ISR.c **** * Parameters:  
 131:Generated_Source\PSoC5/Tamper_Timer_ISR.c **** *   None
 132:Generated_Source\PSoC5/Tamper_Timer_ISR.c **** *
 133:Generated_Source\PSoC5/Tamper_Timer_ISR.c **** * Return:
 134:Generated_Source\PSoC5/Tamper_Timer_ISR.c **** *   None
 135:Generated_Source\PSoC5/Tamper_Timer_ISR.c **** *
 136:Generated_Source\PSoC5/Tamper_Timer_ISR.c **** *******************************************************************************/
 137:Generated_Source\PSoC5/Tamper_Timer_ISR.c **** void Tamper_Timer_ISR_Stop(void)
 138:Generated_Source\PSoC5/Tamper_Timer_ISR.c **** {
 139:Generated_Source\PSoC5/Tamper_Timer_ISR.c ****     /* Disable this interrupt. */
 140:Generated_Source\PSoC5/Tamper_Timer_ISR.c ****     Tamper_Timer_ISR_Disable();
 141:Generated_Source\PSoC5/Tamper_Timer_ISR.c **** 
 142:Generated_Source\PSoC5/Tamper_Timer_ISR.c ****     /* Set the ISR to point to the passive one. */
 143:Generated_Source\PSoC5/Tamper_Timer_ISR.c ****     Tamper_Timer_ISR_SetVector(&IntDefaultHandler);
 144:Generated_Source\PSoC5/Tamper_Timer_ISR.c **** }
 145:Generated_Source\PSoC5/Tamper_Timer_ISR.c **** 
ARM GAS  C:\Users\yqh\AppData\Local\Temp\ccCVIjt4.s 			page 4


 146:Generated_Source\PSoC5/Tamper_Timer_ISR.c **** 
 147:Generated_Source\PSoC5/Tamper_Timer_ISR.c **** /*******************************************************************************
 148:Generated_Source\PSoC5/Tamper_Timer_ISR.c **** * Function Name: Tamper_Timer_ISR_Interrupt
 149:Generated_Source\PSoC5/Tamper_Timer_ISR.c **** ********************************************************************************
 150:Generated_Source\PSoC5/Tamper_Timer_ISR.c **** *
 151:Generated_Source\PSoC5/Tamper_Timer_ISR.c **** * Summary:
 152:Generated_Source\PSoC5/Tamper_Timer_ISR.c **** *   The default Interrupt Service Routine for Tamper_Timer_ISR.
 153:Generated_Source\PSoC5/Tamper_Timer_ISR.c **** *
 154:Generated_Source\PSoC5/Tamper_Timer_ISR.c **** *   Add custom code between the coments to keep the next version of this file
 155:Generated_Source\PSoC5/Tamper_Timer_ISR.c **** *   from over writting your code.
 156:Generated_Source\PSoC5/Tamper_Timer_ISR.c **** *
 157:Generated_Source\PSoC5/Tamper_Timer_ISR.c **** * Parameters:  
 158:Generated_Source\PSoC5/Tamper_Timer_ISR.c **** *
 159:Generated_Source\PSoC5/Tamper_Timer_ISR.c **** * Return:
 160:Generated_Source\PSoC5/Tamper_Timer_ISR.c **** *   None
 161:Generated_Source\PSoC5/Tamper_Timer_ISR.c **** *
 162:Generated_Source\PSoC5/Tamper_Timer_ISR.c **** *******************************************************************************/
 163:Generated_Source\PSoC5/Tamper_Timer_ISR.c **** CY_ISR(Tamper_Timer_ISR_Interrupt)
 164:Generated_Source\PSoC5/Tamper_Timer_ISR.c **** {
  27              		.loc 1 164 0
  28              		.cfi_startproc
  29              		@ args = 0, pretend = 0, frame = 0
  30              		@ frame_needed = 0, uses_anonymous_args = 0
  31 0000 38B5     		push	{r3, r4, r5, lr}
  32              		.cfi_def_cfa_offset 16
  33              		.cfi_offset 3, -16
  34              		.cfi_offset 4, -12
  35              		.cfi_offset 5, -8
  36              		.cfi_offset 14, -4
 165:Generated_Source\PSoC5/Tamper_Timer_ISR.c ****     #ifdef Tamper_Timer_ISR_INTERRUPT_INTERRUPT_CALLBACK
 166:Generated_Source\PSoC5/Tamper_Timer_ISR.c ****         Tamper_Timer_ISR_Interrupt_InterruptCallback();
 167:Generated_Source\PSoC5/Tamper_Timer_ISR.c ****     #endif /* Tamper_Timer_ISR_INTERRUPT_INTERRUPT_CALLBACK */ 
 168:Generated_Source\PSoC5/Tamper_Timer_ISR.c **** 
 169:Generated_Source\PSoC5/Tamper_Timer_ISR.c ****     /*  Place your Interrupt code here. */
 170:Generated_Source\PSoC5/Tamper_Timer_ISR.c ****     /* `#START Tamper_Timer_ISR_Interrupt` */
 171:Generated_Source\PSoC5/Tamper_Timer_ISR.c ****     //This is a 1 ms timer interrupt
 172:Generated_Source\PSoC5/Tamper_Timer_ISR.c ****     Tamper_Timer_ReadStatusRegister();
  37              		.loc 1 172 0
  38 0002 FFF7FEFF 		bl	Tamper_Timer_ReadStatusRegister
  39              	.LVL0:
 173:Generated_Source\PSoC5/Tamper_Timer_ISR.c ****     
 174:Generated_Source\PSoC5/Tamper_Timer_ISR.c ****     switch(run_mode)
  40              		.loc 1 174 0
  41 0006 234B     		ldr	r3, .L30
  42 0008 1B78     		ldrb	r3, [r3]	@ zero_extendqisi2
  43 000a 362B     		cmp	r3, #54
  44 000c 03D8     		bhi	.L3
  45 000e 342B     		cmp	r3, #52
  46 0010 29D2     		bcs	.L4
  47 0012 052B     		cmp	r3, #5
  48 0014 03E0     		b	.L27
  49              	.L3:
  50 0016 382B     		cmp	r3, #56
  51 0018 25D0     		beq	.L4
  52 001a 01D3     		bcc	.L5
  53 001c 692B     		cmp	r3, #105
  54              	.L27:
ARM GAS  C:\Users\yqh\AppData\Local\Temp\ccCVIjt4.s 			page 5


  55 001e 2BD1     		bne	.L2
  56              	.L5:
 175:Generated_Source\PSoC5/Tamper_Timer_ISR.c ****     {
 176:Generated_Source\PSoC5/Tamper_Timer_ISR.c ****         case MODE_F2F:
 177:Generated_Source\PSoC5/Tamper_Timer_ISR.c ****         case MODE_F2F + BASE_TOC:
 178:Generated_Source\PSoC5/Tamper_Timer_ISR.c ****         case MODE_F2F + BASE_PASS:    
 179:Generated_Source\PSoC5/Tamper_Timer_ISR.c ****             if ( f2f_acknowledge_active ){
  57              		.loc 1 179 0
  58 0020 1D4B     		ldr	r3, .L30+4
  59 0022 1A78     		ldrb	r2, [r3]	@ zero_extendqisi2
  60 0024 1D46     		mov	r5, r3
  61 0026 92B1     		cbz	r2, .L7
 180:Generated_Source\PSoC5/Tamper_Timer_ISR.c ****                 f2f_ack_delay_cnt++;
  62              		.loc 1 180 0
  63 0028 1C4A     		ldr	r2, .L30+8
  64 002a 1378     		ldrb	r3, [r2]	@ zero_extendqisi2
  65 002c 1446     		mov	r4, r2
  66 002e 0133     		adds	r3, r3, #1
  67 0030 DBB2     		uxtb	r3, r3
 181:Generated_Source\PSoC5/Tamper_Timer_ISR.c ****                 if (f2f_ack_delay_cnt == 30){
  68              		.loc 1 181 0
  69 0032 1E2B     		cmp	r3, #30
 180:Generated_Source\PSoC5/Tamper_Timer_ISR.c ****                 f2f_ack_delay_cnt++;
  70              		.loc 1 180 0
  71 0034 1370     		strb	r3, [r2]
  72              		.loc 1 181 0
  73 0036 02D1     		bne	.L8
 182:Generated_Source\PSoC5/Tamper_Timer_ISR.c ****                     PS_D1_Write(1);
  74              		.loc 1 182 0
  75 0038 0120     		movs	r0, #1
  76 003a FFF7FEFF 		bl	PS_D1_Write
  77              	.LVL1:
  78              	.L8:
 183:Generated_Source\PSoC5/Tamper_Timer_ISR.c ****                 }
 184:Generated_Source\PSoC5/Tamper_Timer_ISR.c ****                 if (f2f_ack_delay_cnt > 35){
  79              		.loc 1 184 0
  80 003e 2378     		ldrb	r3, [r4]	@ zero_extendqisi2
  81 0040 232B     		cmp	r3, #35
  82 0042 04D9     		bls	.L7
 185:Generated_Source\PSoC5/Tamper_Timer_ISR.c ****                     PS_D1_Write(0);
  83              		.loc 1 185 0
  84 0044 0020     		movs	r0, #0
  85 0046 FFF7FEFF 		bl	PS_D1_Write
  86              	.LVL2:
 186:Generated_Source\PSoC5/Tamper_Timer_ISR.c ****                     f2f_acknowledge_active = 0;
  87              		.loc 1 186 0
  88 004a 0023     		movs	r3, #0
  89 004c 2B70     		strb	r3, [r5]
  90              	.L7:
 187:Generated_Source\PSoC5/Tamper_Timer_ISR.c ****                 }
 188:Generated_Source\PSoC5/Tamper_Timer_ISR.c ****             }        
 189:Generated_Source\PSoC5/Tamper_Timer_ISR.c ****             f2f_alive_delay_cnt++;
  91              		.loc 1 189 0
  92 004e 144A     		ldr	r2, .L30+12
  93 0050 1368     		ldr	r3, [r2]
  94 0052 0133     		adds	r3, r3, #1
  95 0054 1360     		str	r3, [r2]
ARM GAS  C:\Users\yqh\AppData\Local\Temp\ccCVIjt4.s 			page 6


 190:Generated_Source\PSoC5/Tamper_Timer_ISR.c ****             if ( f2f_alive_delay_cnt == 5000)
  96              		.loc 1 190 0
  97 0056 41F28832 		movw	r2, #5000
  98 005a 9342     		cmp	r3, r2
  99 005c 0CD1     		bne	.L2
 191:Generated_Source\PSoC5/Tamper_Timer_ISR.c ****             {
 192:Generated_Source\PSoC5/Tamper_Timer_ISR.c ****                 f2f_send_alive = 1;
 100              		.loc 1 192 0
 101 005e 114B     		ldr	r3, .L30+16
 102 0060 0122     		movs	r2, #1
 103 0062 1A70     		strb	r2, [r3]
 104 0064 08E0     		b	.L2
 105              	.L4:
 193:Generated_Source\PSoC5/Tamper_Timer_ISR.c ****             }
 194:Generated_Source\PSoC5/Tamper_Timer_ISR.c ****             break;
 195:Generated_Source\PSoC5/Tamper_Timer_ISR.c ****         case BASE_TOC + MODE_WIEGAND:
 196:Generated_Source\PSoC5/Tamper_Timer_ISR.c ****         case BASE_TOC + MODE_PAC:
 197:Generated_Source\PSoC5/Tamper_Timer_ISR.c **** //        case BASE_TOC + MODE_F2F:
 198:Generated_Source\PSoC5/Tamper_Timer_ISR.c ****         case BASE_TOC + MODE_HID:
 199:Generated_Source\PSoC5/Tamper_Timer_ISR.c ****         case BASE_TOC + MODE_OSDP:
 200:Generated_Source\PSoC5/Tamper_Timer_ISR.c ****             debug_msg_delay++;
 201:Generated_Source\PSoC5/Tamper_Timer_ISR.c ****             if (debug_msg_delay >= 5000) //5 seconds
 106              		.loc 1 201 0
 107 0066 41F28731 		movw	r1, #4999
 200:Generated_Source\PSoC5/Tamper_Timer_ISR.c ****             if (debug_msg_delay >= 5000) //5 seconds
 108              		.loc 1 200 0
 109 006a 0F4A     		ldr	r2, .L30+20
 110 006c 1368     		ldr	r3, [r2]
 111 006e 0133     		adds	r3, r3, #1
 112              		.loc 1 201 0
 113 0070 8B42     		cmp	r3, r1
 202:Generated_Source\PSoC5/Tamper_Timer_ISR.c ****             {
 203:Generated_Source\PSoC5/Tamper_Timer_ISR.c ****                 debug_msg_delay = 0;
 114              		.loc 1 203 0
 115 0072 C8BF     		it	gt
 116 0074 0023     		movgt	r3, #0
 117 0076 1360     		str	r3, [r2]
 118              	.L2:
 204:Generated_Source\PSoC5/Tamper_Timer_ISR.c **** //                sendDebugMsg = 1; //0 yqh debug, clear in main() after sent.
 205:Generated_Source\PSoC5/Tamper_Timer_ISR.c ****             }
 206:Generated_Source\PSoC5/Tamper_Timer_ISR.c ****             break;
 207:Generated_Source\PSoC5/Tamper_Timer_ISR.c ****         default:;
 208:Generated_Source\PSoC5/Tamper_Timer_ISR.c ****     }
 209:Generated_Source\PSoC5/Tamper_Timer_ISR.c **** 
 210:Generated_Source\PSoC5/Tamper_Timer_ISR.c ****     if (buttonPressed){
 119              		.loc 1 210 0
 120 0078 0C4B     		ldr	r3, .L30+24
 121 007a 1B78     		ldrb	r3, [r3]	@ zero_extendqisi2
 122 007c 1BB1     		cbz	r3, .L13
 211:Generated_Source\PSoC5/Tamper_Timer_ISR.c ****         buttonDuration++;
 123              		.loc 1 211 0
 124 007e 0C4A     		ldr	r2, .L30+28
 125 0080 1368     		ldr	r3, [r2]
 126 0082 0133     		adds	r3, r3, #1
 127 0084 1360     		str	r3, [r2]
 128              	.L13:
 212:Generated_Source\PSoC5/Tamper_Timer_ISR.c ****     }    
ARM GAS  C:\Users\yqh\AppData\Local\Temp\ccCVIjt4.s 			page 7


 213:Generated_Source\PSoC5/Tamper_Timer_ISR.c ****     HandleOutputs();
 129              		.loc 1 213 0
 130 0086 FFF7FEFF 		bl	HandleOutputs
 131              	.LVL3:
 214:Generated_Source\PSoC5/Tamper_Timer_ISR.c ****     HandleInputs();
 215:Generated_Source\PSoC5/Tamper_Timer_ISR.c ****    
 216:Generated_Source\PSoC5/Tamper_Timer_ISR.c ****     /* `#END` */
 217:Generated_Source\PSoC5/Tamper_Timer_ISR.c **** }
 132              		.loc 1 217 0
 133 008a BDE83840 		pop	{r3, r4, r5, lr}
 134              		.cfi_restore 14
 135              		.cfi_restore 5
 136              		.cfi_restore 4
 137              		.cfi_restore 3
 138              		.cfi_def_cfa_offset 0
 214:Generated_Source\PSoC5/Tamper_Timer_ISR.c ****     HandleInputs();
 139              		.loc 1 214 0
 140 008e FFF7FEBF 		b	HandleInputs
 141              	.LVL4:
 142              	.L31:
 143 0092 00BF     		.align	2
 144              	.L30:
 145 0094 00000000 		.word	run_mode
 146 0098 00000000 		.word	f2f_acknowledge_active
 147 009c 00000000 		.word	f2f_ack_delay_cnt
 148 00a0 00000000 		.word	f2f_alive_delay_cnt
 149 00a4 00000000 		.word	f2f_send_alive
 150 00a8 00000000 		.word	debug_msg_delay
 151 00ac 00000000 		.word	buttonPressed
 152 00b0 00000000 		.word	buttonDuration
 153              		.cfi_endproc
 154              	.LFE66:
 155              		.size	Tamper_Timer_ISR_Interrupt, .-Tamper_Timer_ISR_Interrupt
 156              		.section	.text.Tamper_Timer_ISR_Start,"ax",%progbits
 157              		.align	1
 158              		.global	Tamper_Timer_ISR_Start
 159              		.thumb
 160              		.thumb_func
 161              		.type	Tamper_Timer_ISR_Start, %function
 162              	Tamper_Timer_ISR_Start:
 163              	.LFB63:
  65:Generated_Source\PSoC5/Tamper_Timer_ISR.c ****     /* For all we know the interrupt is active. */
 164              		.loc 1 65 0
 165              		.cfi_startproc
 166              		@ args = 0, pretend = 0, frame = 0
 167              		@ frame_needed = 0, uses_anonymous_args = 0
 168              		@ link register save eliminated.
 169              	.LBB22:
 170              	.LBB23:
 218:Generated_Source\PSoC5/Tamper_Timer_ISR.c **** 
 219:Generated_Source\PSoC5/Tamper_Timer_ISR.c **** 
 220:Generated_Source\PSoC5/Tamper_Timer_ISR.c **** /*******************************************************************************
 221:Generated_Source\PSoC5/Tamper_Timer_ISR.c **** * Function Name: Tamper_Timer_ISR_SetVector
 222:Generated_Source\PSoC5/Tamper_Timer_ISR.c **** ********************************************************************************
 223:Generated_Source\PSoC5/Tamper_Timer_ISR.c **** *
 224:Generated_Source\PSoC5/Tamper_Timer_ISR.c **** * Summary:
 225:Generated_Source\PSoC5/Tamper_Timer_ISR.c **** *   Change the ISR vector for the Interrupt. Note calling Tamper_Timer_ISR_Start
ARM GAS  C:\Users\yqh\AppData\Local\Temp\ccCVIjt4.s 			page 8


 226:Generated_Source\PSoC5/Tamper_Timer_ISR.c **** *   will override any effect this method would have had. To set the vector 
 227:Generated_Source\PSoC5/Tamper_Timer_ISR.c **** *   before the component has been started use Tamper_Timer_ISR_StartEx instead.
 228:Generated_Source\PSoC5/Tamper_Timer_ISR.c **** * 
 229:Generated_Source\PSoC5/Tamper_Timer_ISR.c **** *   When defining ISR functions, the CY_ISR and CY_ISR_PROTO macros should be 
 230:Generated_Source\PSoC5/Tamper_Timer_ISR.c **** *   used to provide consistent definition across compilers:
 231:Generated_Source\PSoC5/Tamper_Timer_ISR.c **** *
 232:Generated_Source\PSoC5/Tamper_Timer_ISR.c **** *   Function definition example:
 233:Generated_Source\PSoC5/Tamper_Timer_ISR.c **** *   CY_ISR(MyISR)
 234:Generated_Source\PSoC5/Tamper_Timer_ISR.c **** *   {
 235:Generated_Source\PSoC5/Tamper_Timer_ISR.c **** *   }
 236:Generated_Source\PSoC5/Tamper_Timer_ISR.c **** *
 237:Generated_Source\PSoC5/Tamper_Timer_ISR.c **** *   Function prototype example:
 238:Generated_Source\PSoC5/Tamper_Timer_ISR.c **** *     CY_ISR_PROTO(MyISR);
 239:Generated_Source\PSoC5/Tamper_Timer_ISR.c **** *
 240:Generated_Source\PSoC5/Tamper_Timer_ISR.c **** * Parameters:
 241:Generated_Source\PSoC5/Tamper_Timer_ISR.c **** *   address: Address of the ISR to set in the interrupt vector table.
 242:Generated_Source\PSoC5/Tamper_Timer_ISR.c **** *
 243:Generated_Source\PSoC5/Tamper_Timer_ISR.c **** * Return:
 244:Generated_Source\PSoC5/Tamper_Timer_ISR.c **** *   None
 245:Generated_Source\PSoC5/Tamper_Timer_ISR.c **** *
 246:Generated_Source\PSoC5/Tamper_Timer_ISR.c **** *******************************************************************************/
 247:Generated_Source\PSoC5/Tamper_Timer_ISR.c **** void Tamper_Timer_ISR_SetVector(cyisraddress address)
 248:Generated_Source\PSoC5/Tamper_Timer_ISR.c **** {
 249:Generated_Source\PSoC5/Tamper_Timer_ISR.c ****     cyisraddress * ramVectorTable;
 250:Generated_Source\PSoC5/Tamper_Timer_ISR.c **** 
 251:Generated_Source\PSoC5/Tamper_Timer_ISR.c ****     ramVectorTable = (cyisraddress *) *CYINT_VECT_TABLE;
 252:Generated_Source\PSoC5/Tamper_Timer_ISR.c **** 
 253:Generated_Source\PSoC5/Tamper_Timer_ISR.c ****     ramVectorTable[CYINT_IRQ_BASE + (uint32)Tamper_Timer_ISR__INTC_NUMBER] = address;
 254:Generated_Source\PSoC5/Tamper_Timer_ISR.c **** }
 255:Generated_Source\PSoC5/Tamper_Timer_ISR.c **** 
 256:Generated_Source\PSoC5/Tamper_Timer_ISR.c **** 
 257:Generated_Source\PSoC5/Tamper_Timer_ISR.c **** /*******************************************************************************
 258:Generated_Source\PSoC5/Tamper_Timer_ISR.c **** * Function Name: Tamper_Timer_ISR_GetVector
 259:Generated_Source\PSoC5/Tamper_Timer_ISR.c **** ********************************************************************************
 260:Generated_Source\PSoC5/Tamper_Timer_ISR.c **** *
 261:Generated_Source\PSoC5/Tamper_Timer_ISR.c **** * Summary:
 262:Generated_Source\PSoC5/Tamper_Timer_ISR.c **** *   Gets the "address" of the current ISR vector for the Interrupt.
 263:Generated_Source\PSoC5/Tamper_Timer_ISR.c **** *
 264:Generated_Source\PSoC5/Tamper_Timer_ISR.c **** * Parameters:
 265:Generated_Source\PSoC5/Tamper_Timer_ISR.c **** *   None
 266:Generated_Source\PSoC5/Tamper_Timer_ISR.c **** *
 267:Generated_Source\PSoC5/Tamper_Timer_ISR.c **** * Return:
 268:Generated_Source\PSoC5/Tamper_Timer_ISR.c **** *   Address of the ISR in the interrupt vector table.
 269:Generated_Source\PSoC5/Tamper_Timer_ISR.c **** *
 270:Generated_Source\PSoC5/Tamper_Timer_ISR.c **** *******************************************************************************/
 271:Generated_Source\PSoC5/Tamper_Timer_ISR.c **** cyisraddress Tamper_Timer_ISR_GetVector(void)
 272:Generated_Source\PSoC5/Tamper_Timer_ISR.c **** {
 273:Generated_Source\PSoC5/Tamper_Timer_ISR.c ****     cyisraddress * ramVectorTable;
 274:Generated_Source\PSoC5/Tamper_Timer_ISR.c **** 
 275:Generated_Source\PSoC5/Tamper_Timer_ISR.c ****     ramVectorTable = (cyisraddress *) *CYINT_VECT_TABLE;
 276:Generated_Source\PSoC5/Tamper_Timer_ISR.c **** 
 277:Generated_Source\PSoC5/Tamper_Timer_ISR.c ****     return ramVectorTable[CYINT_IRQ_BASE + (uint32)Tamper_Timer_ISR__INTC_NUMBER];
 278:Generated_Source\PSoC5/Tamper_Timer_ISR.c **** }
 279:Generated_Source\PSoC5/Tamper_Timer_ISR.c **** 
 280:Generated_Source\PSoC5/Tamper_Timer_ISR.c **** 
 281:Generated_Source\PSoC5/Tamper_Timer_ISR.c **** /*******************************************************************************
 282:Generated_Source\PSoC5/Tamper_Timer_ISR.c **** * Function Name: Tamper_Timer_ISR_SetPriority
ARM GAS  C:\Users\yqh\AppData\Local\Temp\ccCVIjt4.s 			page 9


 283:Generated_Source\PSoC5/Tamper_Timer_ISR.c **** ********************************************************************************
 284:Generated_Source\PSoC5/Tamper_Timer_ISR.c **** *
 285:Generated_Source\PSoC5/Tamper_Timer_ISR.c **** * Summary:
 286:Generated_Source\PSoC5/Tamper_Timer_ISR.c **** *   Sets the Priority of the Interrupt. 
 287:Generated_Source\PSoC5/Tamper_Timer_ISR.c **** *
 288:Generated_Source\PSoC5/Tamper_Timer_ISR.c **** *   Note calling Tamper_Timer_ISR_Start or Tamper_Timer_ISR_StartEx will 
 289:Generated_Source\PSoC5/Tamper_Timer_ISR.c **** *   override any effect this API would have had. This API should only be called
 290:Generated_Source\PSoC5/Tamper_Timer_ISR.c **** *   after Tamper_Timer_ISR_Start or Tamper_Timer_ISR_StartEx has been called. 
 291:Generated_Source\PSoC5/Tamper_Timer_ISR.c **** *   To set the initial priority for the component, use the Design-Wide Resources
 292:Generated_Source\PSoC5/Tamper_Timer_ISR.c **** *   Interrupt Editor.
 293:Generated_Source\PSoC5/Tamper_Timer_ISR.c **** *
 294:Generated_Source\PSoC5/Tamper_Timer_ISR.c **** *   Note This API has no effect on Non-maskable interrupt NMI).
 295:Generated_Source\PSoC5/Tamper_Timer_ISR.c **** *
 296:Generated_Source\PSoC5/Tamper_Timer_ISR.c **** * Parameters:
 297:Generated_Source\PSoC5/Tamper_Timer_ISR.c **** *   priority: Priority of the interrupt, 0 being the highest priority
 298:Generated_Source\PSoC5/Tamper_Timer_ISR.c **** *             PSoC 3 and PSoC 5LP: Priority is from 0 to 7.
 299:Generated_Source\PSoC5/Tamper_Timer_ISR.c **** *             PSoC 4: Priority is from 0 to 3.
 300:Generated_Source\PSoC5/Tamper_Timer_ISR.c **** *
 301:Generated_Source\PSoC5/Tamper_Timer_ISR.c **** * Return:
 302:Generated_Source\PSoC5/Tamper_Timer_ISR.c **** *   None
 303:Generated_Source\PSoC5/Tamper_Timer_ISR.c **** *
 304:Generated_Source\PSoC5/Tamper_Timer_ISR.c **** *******************************************************************************/
 305:Generated_Source\PSoC5/Tamper_Timer_ISR.c **** void Tamper_Timer_ISR_SetPriority(uint8 priority)
 306:Generated_Source\PSoC5/Tamper_Timer_ISR.c **** {
 307:Generated_Source\PSoC5/Tamper_Timer_ISR.c ****     *Tamper_Timer_ISR_INTC_PRIOR = priority << 5;
 308:Generated_Source\PSoC5/Tamper_Timer_ISR.c **** }
 309:Generated_Source\PSoC5/Tamper_Timer_ISR.c **** 
 310:Generated_Source\PSoC5/Tamper_Timer_ISR.c **** 
 311:Generated_Source\PSoC5/Tamper_Timer_ISR.c **** /*******************************************************************************
 312:Generated_Source\PSoC5/Tamper_Timer_ISR.c **** * Function Name: Tamper_Timer_ISR_GetPriority
 313:Generated_Source\PSoC5/Tamper_Timer_ISR.c **** ********************************************************************************
 314:Generated_Source\PSoC5/Tamper_Timer_ISR.c **** *
 315:Generated_Source\PSoC5/Tamper_Timer_ISR.c **** * Summary:
 316:Generated_Source\PSoC5/Tamper_Timer_ISR.c **** *   Gets the Priority of the Interrupt.
 317:Generated_Source\PSoC5/Tamper_Timer_ISR.c **** *
 318:Generated_Source\PSoC5/Tamper_Timer_ISR.c **** * Parameters:
 319:Generated_Source\PSoC5/Tamper_Timer_ISR.c **** *   None
 320:Generated_Source\PSoC5/Tamper_Timer_ISR.c **** *
 321:Generated_Source\PSoC5/Tamper_Timer_ISR.c **** * Return:
 322:Generated_Source\PSoC5/Tamper_Timer_ISR.c **** *   Priority of the interrupt, 0 being the highest priority
 323:Generated_Source\PSoC5/Tamper_Timer_ISR.c **** *    PSoC 3 and PSoC 5LP: Priority is from 0 to 7.
 324:Generated_Source\PSoC5/Tamper_Timer_ISR.c **** *    PSoC 4: Priority is from 0 to 3.
 325:Generated_Source\PSoC5/Tamper_Timer_ISR.c **** *
 326:Generated_Source\PSoC5/Tamper_Timer_ISR.c **** *******************************************************************************/
 327:Generated_Source\PSoC5/Tamper_Timer_ISR.c **** uint8 Tamper_Timer_ISR_GetPriority(void)
 328:Generated_Source\PSoC5/Tamper_Timer_ISR.c **** {
 329:Generated_Source\PSoC5/Tamper_Timer_ISR.c ****     uint8 priority;
 330:Generated_Source\PSoC5/Tamper_Timer_ISR.c **** 
 331:Generated_Source\PSoC5/Tamper_Timer_ISR.c **** 
 332:Generated_Source\PSoC5/Tamper_Timer_ISR.c ****     priority = *Tamper_Timer_ISR_INTC_PRIOR >> 5;
 333:Generated_Source\PSoC5/Tamper_Timer_ISR.c **** 
 334:Generated_Source\PSoC5/Tamper_Timer_ISR.c ****     return priority;
 335:Generated_Source\PSoC5/Tamper_Timer_ISR.c **** }
 336:Generated_Source\PSoC5/Tamper_Timer_ISR.c **** 
 337:Generated_Source\PSoC5/Tamper_Timer_ISR.c **** 
 338:Generated_Source\PSoC5/Tamper_Timer_ISR.c **** /*******************************************************************************
 339:Generated_Source\PSoC5/Tamper_Timer_ISR.c **** * Function Name: Tamper_Timer_ISR_Enable
ARM GAS  C:\Users\yqh\AppData\Local\Temp\ccCVIjt4.s 			page 10


 340:Generated_Source\PSoC5/Tamper_Timer_ISR.c **** ********************************************************************************
 341:Generated_Source\PSoC5/Tamper_Timer_ISR.c **** *
 342:Generated_Source\PSoC5/Tamper_Timer_ISR.c **** * Summary:
 343:Generated_Source\PSoC5/Tamper_Timer_ISR.c **** *   Enables the interrupt to the interrupt controller. Do not call this function
 344:Generated_Source\PSoC5/Tamper_Timer_ISR.c **** *   unless ISR_Start() has been called or the functionality of the ISR_Start() 
 345:Generated_Source\PSoC5/Tamper_Timer_ISR.c **** *   function, which sets the vector and the priority, has been called.
 346:Generated_Source\PSoC5/Tamper_Timer_ISR.c **** *
 347:Generated_Source\PSoC5/Tamper_Timer_ISR.c **** * Parameters:
 348:Generated_Source\PSoC5/Tamper_Timer_ISR.c **** *   None
 349:Generated_Source\PSoC5/Tamper_Timer_ISR.c **** *
 350:Generated_Source\PSoC5/Tamper_Timer_ISR.c **** * Return:
 351:Generated_Source\PSoC5/Tamper_Timer_ISR.c **** *   None
 352:Generated_Source\PSoC5/Tamper_Timer_ISR.c **** *
 353:Generated_Source\PSoC5/Tamper_Timer_ISR.c **** *******************************************************************************/
 354:Generated_Source\PSoC5/Tamper_Timer_ISR.c **** void Tamper_Timer_ISR_Enable(void)
 355:Generated_Source\PSoC5/Tamper_Timer_ISR.c **** {
 356:Generated_Source\PSoC5/Tamper_Timer_ISR.c ****     /* Enable the general interrupt. */
 357:Generated_Source\PSoC5/Tamper_Timer_ISR.c ****     *Tamper_Timer_ISR_INTC_SET_EN = Tamper_Timer_ISR__INTC_MASK;
 358:Generated_Source\PSoC5/Tamper_Timer_ISR.c **** }
 359:Generated_Source\PSoC5/Tamper_Timer_ISR.c **** 
 360:Generated_Source\PSoC5/Tamper_Timer_ISR.c **** 
 361:Generated_Source\PSoC5/Tamper_Timer_ISR.c **** /*******************************************************************************
 362:Generated_Source\PSoC5/Tamper_Timer_ISR.c **** * Function Name: Tamper_Timer_ISR_GetState
 363:Generated_Source\PSoC5/Tamper_Timer_ISR.c **** ********************************************************************************
 364:Generated_Source\PSoC5/Tamper_Timer_ISR.c **** *
 365:Generated_Source\PSoC5/Tamper_Timer_ISR.c **** * Summary:
 366:Generated_Source\PSoC5/Tamper_Timer_ISR.c **** *   Gets the state (enabled, disabled) of the Interrupt.
 367:Generated_Source\PSoC5/Tamper_Timer_ISR.c **** *
 368:Generated_Source\PSoC5/Tamper_Timer_ISR.c **** * Parameters:
 369:Generated_Source\PSoC5/Tamper_Timer_ISR.c **** *   None
 370:Generated_Source\PSoC5/Tamper_Timer_ISR.c **** *
 371:Generated_Source\PSoC5/Tamper_Timer_ISR.c **** * Return:
 372:Generated_Source\PSoC5/Tamper_Timer_ISR.c **** *   1 if enabled, 0 if disabled.
 373:Generated_Source\PSoC5/Tamper_Timer_ISR.c **** *
 374:Generated_Source\PSoC5/Tamper_Timer_ISR.c **** *******************************************************************************/
 375:Generated_Source\PSoC5/Tamper_Timer_ISR.c **** uint8 Tamper_Timer_ISR_GetState(void)
 376:Generated_Source\PSoC5/Tamper_Timer_ISR.c **** {
 377:Generated_Source\PSoC5/Tamper_Timer_ISR.c ****     /* Get the state of the general interrupt. */
 378:Generated_Source\PSoC5/Tamper_Timer_ISR.c ****     return ((*Tamper_Timer_ISR_INTC_SET_EN & (uint32)Tamper_Timer_ISR__INTC_MASK) != 0u) ? 1u:0u;
 379:Generated_Source\PSoC5/Tamper_Timer_ISR.c **** }
 380:Generated_Source\PSoC5/Tamper_Timer_ISR.c **** 
 381:Generated_Source\PSoC5/Tamper_Timer_ISR.c **** 
 382:Generated_Source\PSoC5/Tamper_Timer_ISR.c **** /*******************************************************************************
 383:Generated_Source\PSoC5/Tamper_Timer_ISR.c **** * Function Name: Tamper_Timer_ISR_Disable
 384:Generated_Source\PSoC5/Tamper_Timer_ISR.c **** ********************************************************************************
 385:Generated_Source\PSoC5/Tamper_Timer_ISR.c **** *
 386:Generated_Source\PSoC5/Tamper_Timer_ISR.c **** * Summary:
 387:Generated_Source\PSoC5/Tamper_Timer_ISR.c **** *   Disables the Interrupt in the interrupt controller.
 388:Generated_Source\PSoC5/Tamper_Timer_ISR.c **** *
 389:Generated_Source\PSoC5/Tamper_Timer_ISR.c **** * Parameters:
 390:Generated_Source\PSoC5/Tamper_Timer_ISR.c **** *   None
 391:Generated_Source\PSoC5/Tamper_Timer_ISR.c **** *
 392:Generated_Source\PSoC5/Tamper_Timer_ISR.c **** * Return:
 393:Generated_Source\PSoC5/Tamper_Timer_ISR.c **** *   None
 394:Generated_Source\PSoC5/Tamper_Timer_ISR.c **** *
 395:Generated_Source\PSoC5/Tamper_Timer_ISR.c **** *******************************************************************************/
 396:Generated_Source\PSoC5/Tamper_Timer_ISR.c **** void Tamper_Timer_ISR_Disable(void)
ARM GAS  C:\Users\yqh\AppData\Local\Temp\ccCVIjt4.s 			page 11


 397:Generated_Source\PSoC5/Tamper_Timer_ISR.c **** {
 398:Generated_Source\PSoC5/Tamper_Timer_ISR.c ****     /* Disable the general interrupt. */
 399:Generated_Source\PSoC5/Tamper_Timer_ISR.c ****     *Tamper_Timer_ISR_INTC_CLR_EN = Tamper_Timer_ISR__INTC_MASK;
 171              		.loc 1 399 0
 172 0000 084A     		ldr	r2, .L33
 173 0002 4FF40033 		mov	r3, #131072
 174 0006 1360     		str	r3, [r2]
 175              	.LVL5:
 176              	.LBE23:
 177              	.LBE22:
 178              	.LBB24:
 179              	.LBB25:
 251:Generated_Source\PSoC5/Tamper_Timer_ISR.c **** 
 180              		.loc 1 251 0
 181 0008 02F68832 		addw	r2, r2, #2952
 182 000c 1268     		ldr	r2, [r2]
 183              	.LVL6:
 253:Generated_Source\PSoC5/Tamper_Timer_ISR.c **** }
 184              		.loc 1 253 0
 185 000e 0649     		ldr	r1, .L33+4
 186 0010 C2F88410 		str	r1, [r2, #132]
 187              	.LVL7:
 188              	.LBE25:
 189              	.LBE24:
 190              	.LBB26:
 191              	.LBB27:
 307:Generated_Source\PSoC5/Tamper_Timer_ISR.c **** }
 192              		.loc 1 307 0
 193 0014 054A     		ldr	r2, .L33+8
 194              	.LVL8:
 195 0016 E021     		movs	r1, #224
 196 0018 1170     		strb	r1, [r2]
 197              	.LBE27:
 198              	.LBE26:
 199              	.LBB28:
 200              	.LBB29:
 357:Generated_Source\PSoC5/Tamper_Timer_ISR.c **** }
 201              		.loc 1 357 0
 202 001a 6FF44471 		mvn	r1, #784
 203 001e 0A44     		add	r2, r2, r1
 204 0020 1360     		str	r3, [r2]
 205 0022 7047     		bx	lr
 206              	.L34:
 207              		.align	2
 208              	.L33:
 209 0024 80E100E0 		.word	-536813184
 210 0028 00000000 		.word	Tamper_Timer_ISR_Interrupt
 211 002c 11E400E0 		.word	-536812527
 212              	.LBE29:
 213              	.LBE28:
 214              		.cfi_endproc
 215              	.LFE63:
 216              		.size	Tamper_Timer_ISR_Start, .-Tamper_Timer_ISR_Start
 217              		.section	.text.Tamper_Timer_ISR_StartEx,"ax",%progbits
 218              		.align	1
 219              		.global	Tamper_Timer_ISR_StartEx
 220              		.thumb
ARM GAS  C:\Users\yqh\AppData\Local\Temp\ccCVIjt4.s 			page 12


 221              		.thumb_func
 222              		.type	Tamper_Timer_ISR_StartEx, %function
 223              	Tamper_Timer_ISR_StartEx:
 224              	.LFB64:
 108:Generated_Source\PSoC5/Tamper_Timer_ISR.c ****     /* For all we know the interrupt is active. */
 225              		.loc 1 108 0
 226              		.cfi_startproc
 227              		@ args = 0, pretend = 0, frame = 0
 228              		@ frame_needed = 0, uses_anonymous_args = 0
 229              		@ link register save eliminated.
 230              	.LVL9:
 231              	.LBB30:
 232              	.LBB31:
 233              		.loc 1 399 0
 234 0000 084A     		ldr	r2, .L36
 235 0002 4FF40033 		mov	r3, #131072
 236 0006 1360     		str	r3, [r2]
 237              	.LVL10:
 238              	.LBE31:
 239              	.LBE30:
 240              	.LBB32:
 241              	.LBB33:
 251:Generated_Source\PSoC5/Tamper_Timer_ISR.c **** 
 242              		.loc 1 251 0
 243 0008 02F68832 		addw	r2, r2, #2952
 244 000c 1268     		ldr	r2, [r2]
 245              	.LVL11:
 246              	.LBE33:
 247              	.LBE32:
 248              	.LBB35:
 249              	.LBB36:
 307:Generated_Source\PSoC5/Tamper_Timer_ISR.c **** }
 250              		.loc 1 307 0
 251 000e E021     		movs	r1, #224
 252              	.LBE36:
 253              	.LBE35:
 254              	.LBB38:
 255              	.LBB34:
 253:Generated_Source\PSoC5/Tamper_Timer_ISR.c **** }
 256              		.loc 1 253 0
 257 0010 C2F88400 		str	r0, [r2, #132]
 258              	.LVL12:
 259              	.LBE34:
 260              	.LBE38:
 261              	.LBB39:
 262              	.LBB37:
 307:Generated_Source\PSoC5/Tamper_Timer_ISR.c **** }
 263              		.loc 1 307 0
 264 0014 044A     		ldr	r2, .L36+4
 265              	.LVL13:
 266 0016 1170     		strb	r1, [r2]
 267              	.LBE37:
 268              	.LBE39:
 269              	.LBB40:
 270              	.LBB41:
 357:Generated_Source\PSoC5/Tamper_Timer_ISR.c **** }
 271              		.loc 1 357 0
ARM GAS  C:\Users\yqh\AppData\Local\Temp\ccCVIjt4.s 			page 13


 272 0018 6FF44471 		mvn	r1, #784
 273 001c 0A44     		add	r2, r2, r1
 274 001e 1360     		str	r3, [r2]
 275 0020 7047     		bx	lr
 276              	.L37:
 277 0022 00BF     		.align	2
 278              	.L36:
 279 0024 80E100E0 		.word	-536813184
 280 0028 11E400E0 		.word	-536812527
 281              	.LBE41:
 282              	.LBE40:
 283              		.cfi_endproc
 284              	.LFE64:
 285              		.size	Tamper_Timer_ISR_StartEx, .-Tamper_Timer_ISR_StartEx
 286              		.section	.text.Tamper_Timer_ISR_Stop,"ax",%progbits
 287              		.align	1
 288              		.global	Tamper_Timer_ISR_Stop
 289              		.thumb
 290              		.thumb_func
 291              		.type	Tamper_Timer_ISR_Stop, %function
 292              	Tamper_Timer_ISR_Stop:
 293              	.LFB65:
 138:Generated_Source\PSoC5/Tamper_Timer_ISR.c ****     /* Disable this interrupt. */
 294              		.loc 1 138 0
 295              		.cfi_startproc
 296              		@ args = 0, pretend = 0, frame = 0
 297              		@ frame_needed = 0, uses_anonymous_args = 0
 298              		@ link register save eliminated.
 299              	.LBB42:
 300              	.LBB43:
 301              		.loc 1 399 0
 302 0000 054B     		ldr	r3, .L39
 303 0002 4FF40032 		mov	r2, #131072
 304 0006 1A60     		str	r2, [r3]
 305              	.LVL14:
 306              	.LBE43:
 307              	.LBE42:
 308              	.LBB44:
 309              	.LBB45:
 251:Generated_Source\PSoC5/Tamper_Timer_ISR.c **** 
 310              		.loc 1 251 0
 311 0008 03F68833 		addw	r3, r3, #2952
 312 000c 1B68     		ldr	r3, [r3]
 313              	.LVL15:
 253:Generated_Source\PSoC5/Tamper_Timer_ISR.c **** }
 314              		.loc 1 253 0
 315 000e 034A     		ldr	r2, .L39+4
 316 0010 C3F88420 		str	r2, [r3, #132]
 317 0014 7047     		bx	lr
 318              	.L40:
 319 0016 00BF     		.align	2
 320              	.L39:
 321 0018 80E100E0 		.word	-536813184
 322 001c 00000000 		.word	IntDefaultHandler
 323              	.LBE45:
 324              	.LBE44:
 325              		.cfi_endproc
ARM GAS  C:\Users\yqh\AppData\Local\Temp\ccCVIjt4.s 			page 14


 326              	.LFE65:
 327              		.size	Tamper_Timer_ISR_Stop, .-Tamper_Timer_ISR_Stop
 328              		.section	.text.Tamper_Timer_ISR_SetVector,"ax",%progbits
 329              		.align	1
 330              		.global	Tamper_Timer_ISR_SetVector
 331              		.thumb
 332              		.thumb_func
 333              		.type	Tamper_Timer_ISR_SetVector, %function
 334              	Tamper_Timer_ISR_SetVector:
 335              	.LFB67:
 248:Generated_Source\PSoC5/Tamper_Timer_ISR.c ****     cyisraddress * ramVectorTable;
 336              		.loc 1 248 0
 337              		.cfi_startproc
 338              		@ args = 0, pretend = 0, frame = 0
 339              		@ frame_needed = 0, uses_anonymous_args = 0
 340              		@ link register save eliminated.
 341              	.LVL16:
 251:Generated_Source\PSoC5/Tamper_Timer_ISR.c **** 
 342              		.loc 1 251 0
 343 0000 024B     		ldr	r3, .L42
 344 0002 1B68     		ldr	r3, [r3]
 345              	.LVL17:
 253:Generated_Source\PSoC5/Tamper_Timer_ISR.c **** }
 346              		.loc 1 253 0
 347 0004 C3F88400 		str	r0, [r3, #132]
 348 0008 7047     		bx	lr
 349              	.L43:
 350 000a 00BF     		.align	2
 351              	.L42:
 352 000c 08ED00E0 		.word	-536810232
 353              		.cfi_endproc
 354              	.LFE67:
 355              		.size	Tamper_Timer_ISR_SetVector, .-Tamper_Timer_ISR_SetVector
 356              		.section	.text.Tamper_Timer_ISR_GetVector,"ax",%progbits
 357              		.align	1
 358              		.global	Tamper_Timer_ISR_GetVector
 359              		.thumb
 360              		.thumb_func
 361              		.type	Tamper_Timer_ISR_GetVector, %function
 362              	Tamper_Timer_ISR_GetVector:
 363              	.LFB68:
 272:Generated_Source\PSoC5/Tamper_Timer_ISR.c ****     cyisraddress * ramVectorTable;
 364              		.loc 1 272 0
 365              		.cfi_startproc
 366              		@ args = 0, pretend = 0, frame = 0
 367              		@ frame_needed = 0, uses_anonymous_args = 0
 368              		@ link register save eliminated.
 369              	.LVL18:
 275:Generated_Source\PSoC5/Tamper_Timer_ISR.c **** 
 370              		.loc 1 275 0
 371 0000 024B     		ldr	r3, .L45
 372              	.LVL19:
 277:Generated_Source\PSoC5/Tamper_Timer_ISR.c **** }
 373              		.loc 1 277 0
 374 0002 1B68     		ldr	r3, [r3]
 375              	.LVL20:
 278:Generated_Source\PSoC5/Tamper_Timer_ISR.c **** 
ARM GAS  C:\Users\yqh\AppData\Local\Temp\ccCVIjt4.s 			page 15


 376              		.loc 1 278 0
 377 0004 D3F88400 		ldr	r0, [r3, #132]
 378 0008 7047     		bx	lr
 379              	.L46:
 380 000a 00BF     		.align	2
 381              	.L45:
 382 000c 08ED00E0 		.word	-536810232
 383              		.cfi_endproc
 384              	.LFE68:
 385              		.size	Tamper_Timer_ISR_GetVector, .-Tamper_Timer_ISR_GetVector
 386              		.section	.text.Tamper_Timer_ISR_SetPriority,"ax",%progbits
 387              		.align	1
 388              		.global	Tamper_Timer_ISR_SetPriority
 389              		.thumb
 390              		.thumb_func
 391              		.type	Tamper_Timer_ISR_SetPriority, %function
 392              	Tamper_Timer_ISR_SetPriority:
 393              	.LFB69:
 306:Generated_Source\PSoC5/Tamper_Timer_ISR.c ****     *Tamper_Timer_ISR_INTC_PRIOR = priority << 5;
 394              		.loc 1 306 0
 395              		.cfi_startproc
 396              		@ args = 0, pretend = 0, frame = 0
 397              		@ frame_needed = 0, uses_anonymous_args = 0
 398              		@ link register save eliminated.
 399              	.LVL21:
 307:Generated_Source\PSoC5/Tamper_Timer_ISR.c **** }
 400              		.loc 1 307 0
 401 0000 4001     		lsls	r0, r0, #5
 402              	.LVL22:
 403 0002 024B     		ldr	r3, .L48
 404 0004 C0B2     		uxtb	r0, r0
 405 0006 1870     		strb	r0, [r3]
 406 0008 7047     		bx	lr
 407              	.L49:
 408 000a 00BF     		.align	2
 409              	.L48:
 410 000c 11E400E0 		.word	-536812527
 411              		.cfi_endproc
 412              	.LFE69:
 413              		.size	Tamper_Timer_ISR_SetPriority, .-Tamper_Timer_ISR_SetPriority
 414              		.section	.text.Tamper_Timer_ISR_GetPriority,"ax",%progbits
 415              		.align	1
 416              		.global	Tamper_Timer_ISR_GetPriority
 417              		.thumb
 418              		.thumb_func
 419              		.type	Tamper_Timer_ISR_GetPriority, %function
 420              	Tamper_Timer_ISR_GetPriority:
 421              	.LFB70:
 328:Generated_Source\PSoC5/Tamper_Timer_ISR.c ****     uint8 priority;
 422              		.loc 1 328 0
 423              		.cfi_startproc
 424              		@ args = 0, pretend = 0, frame = 0
 425              		@ frame_needed = 0, uses_anonymous_args = 0
 426              		@ link register save eliminated.
 332:Generated_Source\PSoC5/Tamper_Timer_ISR.c **** 
 427              		.loc 1 332 0
 428 0000 014B     		ldr	r3, .L51
ARM GAS  C:\Users\yqh\AppData\Local\Temp\ccCVIjt4.s 			page 16


 429 0002 1878     		ldrb	r0, [r3]	@ zero_extendqisi2
 430              	.LVL23:
 335:Generated_Source\PSoC5/Tamper_Timer_ISR.c **** 
 431              		.loc 1 335 0
 432 0004 4009     		lsrs	r0, r0, #5
 433              	.LVL24:
 434 0006 7047     		bx	lr
 435              	.L52:
 436              		.align	2
 437              	.L51:
 438 0008 11E400E0 		.word	-536812527
 439              		.cfi_endproc
 440              	.LFE70:
 441              		.size	Tamper_Timer_ISR_GetPriority, .-Tamper_Timer_ISR_GetPriority
 442              		.section	.text.Tamper_Timer_ISR_Enable,"ax",%progbits
 443              		.align	1
 444              		.global	Tamper_Timer_ISR_Enable
 445              		.thumb
 446              		.thumb_func
 447              		.type	Tamper_Timer_ISR_Enable, %function
 448              	Tamper_Timer_ISR_Enable:
 449              	.LFB71:
 355:Generated_Source\PSoC5/Tamper_Timer_ISR.c ****     /* Enable the general interrupt. */
 450              		.loc 1 355 0
 451              		.cfi_startproc
 452              		@ args = 0, pretend = 0, frame = 0
 453              		@ frame_needed = 0, uses_anonymous_args = 0
 454              		@ link register save eliminated.
 357:Generated_Source\PSoC5/Tamper_Timer_ISR.c **** }
 455              		.loc 1 357 0
 456 0000 024B     		ldr	r3, .L54
 457 0002 4FF40032 		mov	r2, #131072
 458 0006 1A60     		str	r2, [r3]
 459 0008 7047     		bx	lr
 460              	.L55:
 461 000a 00BF     		.align	2
 462              	.L54:
 463 000c 00E100E0 		.word	-536813312
 464              		.cfi_endproc
 465              	.LFE71:
 466              		.size	Tamper_Timer_ISR_Enable, .-Tamper_Timer_ISR_Enable
 467              		.section	.text.Tamper_Timer_ISR_GetState,"ax",%progbits
 468              		.align	1
 469              		.global	Tamper_Timer_ISR_GetState
 470              		.thumb
 471              		.thumb_func
 472              		.type	Tamper_Timer_ISR_GetState, %function
 473              	Tamper_Timer_ISR_GetState:
 474              	.LFB72:
 376:Generated_Source\PSoC5/Tamper_Timer_ISR.c ****     /* Get the state of the general interrupt. */
 475              		.loc 1 376 0
 476              		.cfi_startproc
 477              		@ args = 0, pretend = 0, frame = 0
 478              		@ frame_needed = 0, uses_anonymous_args = 0
 479              		@ link register save eliminated.
 378:Generated_Source\PSoC5/Tamper_Timer_ISR.c **** }
 480              		.loc 1 378 0
ARM GAS  C:\Users\yqh\AppData\Local\Temp\ccCVIjt4.s 			page 17


 481 0000 024B     		ldr	r3, .L57
 482 0002 1868     		ldr	r0, [r3]
 379:Generated_Source\PSoC5/Tamper_Timer_ISR.c **** 
 483              		.loc 1 379 0
 484 0004 C0F34040 		ubfx	r0, r0, #17, #1
 485 0008 7047     		bx	lr
 486              	.L58:
 487 000a 00BF     		.align	2
 488              	.L57:
 489 000c 00E100E0 		.word	-536813312
 490              		.cfi_endproc
 491              	.LFE72:
 492              		.size	Tamper_Timer_ISR_GetState, .-Tamper_Timer_ISR_GetState
 493              		.section	.text.Tamper_Timer_ISR_Disable,"ax",%progbits
 494              		.align	1
 495              		.global	Tamper_Timer_ISR_Disable
 496              		.thumb
 497              		.thumb_func
 498              		.type	Tamper_Timer_ISR_Disable, %function
 499              	Tamper_Timer_ISR_Disable:
 500              	.LFB73:
 397:Generated_Source\PSoC5/Tamper_Timer_ISR.c ****     /* Disable the general interrupt. */
 501              		.loc 1 397 0
 502              		.cfi_startproc
 503              		@ args = 0, pretend = 0, frame = 0
 504              		@ frame_needed = 0, uses_anonymous_args = 0
 505              		@ link register save eliminated.
 506              		.loc 1 399 0
 507 0000 024B     		ldr	r3, .L60
 508 0002 4FF40032 		mov	r2, #131072
 509 0006 1A60     		str	r2, [r3]
 510 0008 7047     		bx	lr
 511              	.L61:
 512 000a 00BF     		.align	2
 513              	.L60:
 514 000c 80E100E0 		.word	-536813184
 515              		.cfi_endproc
 516              	.LFE73:
 517              		.size	Tamper_Timer_ISR_Disable, .-Tamper_Timer_ISR_Disable
 518              		.section	.text.Tamper_Timer_ISR_SetPending,"ax",%progbits
 519              		.align	1
 520              		.global	Tamper_Timer_ISR_SetPending
 521              		.thumb
 522              		.thumb_func
 523              		.type	Tamper_Timer_ISR_SetPending, %function
 524              	Tamper_Timer_ISR_SetPending:
 525              	.LFB74:
 400:Generated_Source\PSoC5/Tamper_Timer_ISR.c **** }
 401:Generated_Source\PSoC5/Tamper_Timer_ISR.c **** 
 402:Generated_Source\PSoC5/Tamper_Timer_ISR.c **** 
 403:Generated_Source\PSoC5/Tamper_Timer_ISR.c **** /*******************************************************************************
 404:Generated_Source\PSoC5/Tamper_Timer_ISR.c **** * Function Name: Tamper_Timer_ISR_SetPending
 405:Generated_Source\PSoC5/Tamper_Timer_ISR.c **** ********************************************************************************
 406:Generated_Source\PSoC5/Tamper_Timer_ISR.c **** *
 407:Generated_Source\PSoC5/Tamper_Timer_ISR.c **** * Summary:
 408:Generated_Source\PSoC5/Tamper_Timer_ISR.c **** *   Causes the Interrupt to enter the pending state, a software method of
 409:Generated_Source\PSoC5/Tamper_Timer_ISR.c **** *   generating the interrupt.
ARM GAS  C:\Users\yqh\AppData\Local\Temp\ccCVIjt4.s 			page 18


 410:Generated_Source\PSoC5/Tamper_Timer_ISR.c **** *
 411:Generated_Source\PSoC5/Tamper_Timer_ISR.c **** * Parameters:
 412:Generated_Source\PSoC5/Tamper_Timer_ISR.c **** *   None
 413:Generated_Source\PSoC5/Tamper_Timer_ISR.c **** *
 414:Generated_Source\PSoC5/Tamper_Timer_ISR.c **** * Return:
 415:Generated_Source\PSoC5/Tamper_Timer_ISR.c **** *   None
 416:Generated_Source\PSoC5/Tamper_Timer_ISR.c **** *
 417:Generated_Source\PSoC5/Tamper_Timer_ISR.c **** * Side Effects:
 418:Generated_Source\PSoC5/Tamper_Timer_ISR.c **** *   If interrupts are enabled and the interrupt is set up properly, the ISR is
 419:Generated_Source\PSoC5/Tamper_Timer_ISR.c **** *   entered (depending on the priority of this interrupt and other pending 
 420:Generated_Source\PSoC5/Tamper_Timer_ISR.c **** *   interrupts).
 421:Generated_Source\PSoC5/Tamper_Timer_ISR.c **** *
 422:Generated_Source\PSoC5/Tamper_Timer_ISR.c **** *******************************************************************************/
 423:Generated_Source\PSoC5/Tamper_Timer_ISR.c **** void Tamper_Timer_ISR_SetPending(void)
 424:Generated_Source\PSoC5/Tamper_Timer_ISR.c **** {
 526              		.loc 1 424 0
 527              		.cfi_startproc
 528              		@ args = 0, pretend = 0, frame = 0
 529              		@ frame_needed = 0, uses_anonymous_args = 0
 530              		@ link register save eliminated.
 425:Generated_Source\PSoC5/Tamper_Timer_ISR.c ****     *Tamper_Timer_ISR_INTC_SET_PD = Tamper_Timer_ISR__INTC_MASK;
 531              		.loc 1 425 0
 532 0000 024B     		ldr	r3, .L63
 533 0002 4FF40032 		mov	r2, #131072
 534 0006 1A60     		str	r2, [r3]
 535 0008 7047     		bx	lr
 536              	.L64:
 537 000a 00BF     		.align	2
 538              	.L63:
 539 000c 00E200E0 		.word	-536813056
 540              		.cfi_endproc
 541              	.LFE74:
 542              		.size	Tamper_Timer_ISR_SetPending, .-Tamper_Timer_ISR_SetPending
 543              		.section	.text.Tamper_Timer_ISR_ClearPending,"ax",%progbits
 544              		.align	1
 545              		.global	Tamper_Timer_ISR_ClearPending
 546              		.thumb
 547              		.thumb_func
 548              		.type	Tamper_Timer_ISR_ClearPending, %function
 549              	Tamper_Timer_ISR_ClearPending:
 550              	.LFB75:
 426:Generated_Source\PSoC5/Tamper_Timer_ISR.c **** }
 427:Generated_Source\PSoC5/Tamper_Timer_ISR.c **** 
 428:Generated_Source\PSoC5/Tamper_Timer_ISR.c **** 
 429:Generated_Source\PSoC5/Tamper_Timer_ISR.c **** /*******************************************************************************
 430:Generated_Source\PSoC5/Tamper_Timer_ISR.c **** * Function Name: Tamper_Timer_ISR_ClearPending
 431:Generated_Source\PSoC5/Tamper_Timer_ISR.c **** ********************************************************************************
 432:Generated_Source\PSoC5/Tamper_Timer_ISR.c **** *
 433:Generated_Source\PSoC5/Tamper_Timer_ISR.c **** * Summary:
 434:Generated_Source\PSoC5/Tamper_Timer_ISR.c **** *   Clears a pending interrupt in the interrupt controller.
 435:Generated_Source\PSoC5/Tamper_Timer_ISR.c **** *
 436:Generated_Source\PSoC5/Tamper_Timer_ISR.c **** *   Note Some interrupt sources are clear-on-read and require the block 
 437:Generated_Source\PSoC5/Tamper_Timer_ISR.c **** *   interrupt/status register to be read/cleared with the appropriate block API 
 438:Generated_Source\PSoC5/Tamper_Timer_ISR.c **** *   (GPIO, UART, and so on). Otherwise the ISR will continue to remain in 
 439:Generated_Source\PSoC5/Tamper_Timer_ISR.c **** *   pending state even though the interrupt itself is cleared using this API.
 440:Generated_Source\PSoC5/Tamper_Timer_ISR.c **** *
 441:Generated_Source\PSoC5/Tamper_Timer_ISR.c **** * Parameters:
ARM GAS  C:\Users\yqh\AppData\Local\Temp\ccCVIjt4.s 			page 19


 442:Generated_Source\PSoC5/Tamper_Timer_ISR.c **** *   None
 443:Generated_Source\PSoC5/Tamper_Timer_ISR.c **** *
 444:Generated_Source\PSoC5/Tamper_Timer_ISR.c **** * Return:
 445:Generated_Source\PSoC5/Tamper_Timer_ISR.c **** *   None
 446:Generated_Source\PSoC5/Tamper_Timer_ISR.c **** *
 447:Generated_Source\PSoC5/Tamper_Timer_ISR.c **** *******************************************************************************/
 448:Generated_Source\PSoC5/Tamper_Timer_ISR.c **** void Tamper_Timer_ISR_ClearPending(void)
 449:Generated_Source\PSoC5/Tamper_Timer_ISR.c **** {
 551              		.loc 1 449 0
 552              		.cfi_startproc
 553              		@ args = 0, pretend = 0, frame = 0
 554              		@ frame_needed = 0, uses_anonymous_args = 0
 555              		@ link register save eliminated.
 450:Generated_Source\PSoC5/Tamper_Timer_ISR.c ****     *Tamper_Timer_ISR_INTC_CLR_PD = Tamper_Timer_ISR__INTC_MASK;
 556              		.loc 1 450 0
 557 0000 024B     		ldr	r3, .L66
 558 0002 4FF40032 		mov	r2, #131072
 559 0006 1A60     		str	r2, [r3]
 560 0008 7047     		bx	lr
 561              	.L67:
 562 000a 00BF     		.align	2
 563              	.L66:
 564 000c 80E200E0 		.word	-536812928
 565              		.cfi_endproc
 566              	.LFE75:
 567              		.size	Tamper_Timer_ISR_ClearPending, .-Tamper_Timer_ISR_ClearPending
 568              		.comm	card_in_buf,4,4
 569              		.comm	card_ack,4,4
 570              		.comm	tamper_out_polarity,4,4
 571              		.comm	tamperCR_polarity,4,4
 572              		.comm	tp_old,1,1
 573              		.comm	hw_old,1,1
 574              		.comm	currentAccessType,1,1
 575              		.comm	s,40,4
 576              		.text
 577              	.Letext0:
 578              		.file 2 "c:\\program files (x86)\\cypress\\psoc creator\\4.0\\psoc creator\\import\\gnu\\arm\\4.9.
 579              		.file 3 "c:\\program files (x86)\\cypress\\psoc creator\\4.0\\psoc creator\\import\\gnu\\arm\\4.9.
 580              		.file 4 "Generated_Source\\PSoC5/cytypes.h"
 581              		.file 5 "./softuart.h"
 582              		.file 6 "Generated_Source\\PSoC5/core_cm3.h"
 583              		.file 7 "./system.h"
 584              		.file 8 "Generated_Source\\PSoC5/PS_D1.h"
 585              		.file 9 "Generated_Source\\PSoC5\\Tamper_Timer.h"
 586              		.file 10 "./inout.h"