ARM GAS  C:\Users\yqh\AppData\Local\Temp\ccRUI3yj.s 			page 1


   1              		.syntax unified
   2              		.cpu cortex-m3
   3              		.fpu softvfp
   4              		.eabi_attribute 20, 1
   5              		.eabi_attribute 21, 1
   6              		.eabi_attribute 23, 3
   7              		.eabi_attribute 24, 1
   8              		.eabi_attribute 25, 1
   9              		.eabi_attribute 26, 1
  10              		.eabi_attribute 30, 4
  11              		.eabi_attribute 34, 1
  12              		.eabi_attribute 18, 4
  13              		.thumb
  14              		.file	"Timeout_Timer_Isr.c"
  15              		.text
  16              	.Ltext0:
  17              		.cfi_sections	.debug_frame
  18              		.section	.text.Timeout_Timer_Isr_Interrupt,"ax",%progbits
  19              		.align	1
  20              		.global	Timeout_Timer_Isr_Interrupt
  21              		.thumb
  22              		.thumb_func
  23              		.type	Timeout_Timer_Isr_Interrupt, %function
  24              	Timeout_Timer_Isr_Interrupt:
  25              	.LFB66:
  26              		.file 1 "Generated_Source\\PSoC5\\Timeout_Timer_Isr.c"
   1:Generated_Source\PSoC5/Timeout_Timer_Isr.c **** /*******************************************************************************
   2:Generated_Source\PSoC5/Timeout_Timer_Isr.c **** * File Name: Timeout_Timer_Isr.c  
   3:Generated_Source\PSoC5/Timeout_Timer_Isr.c **** * Version 1.70
   4:Generated_Source\PSoC5/Timeout_Timer_Isr.c **** *
   5:Generated_Source\PSoC5/Timeout_Timer_Isr.c **** *  Description:
   6:Generated_Source\PSoC5/Timeout_Timer_Isr.c **** *   API for controlling the state of an interrupt.
   7:Generated_Source\PSoC5/Timeout_Timer_Isr.c **** *
   8:Generated_Source\PSoC5/Timeout_Timer_Isr.c **** *
   9:Generated_Source\PSoC5/Timeout_Timer_Isr.c **** *  Note:
  10:Generated_Source\PSoC5/Timeout_Timer_Isr.c **** *
  11:Generated_Source\PSoC5/Timeout_Timer_Isr.c **** ********************************************************************************
  12:Generated_Source\PSoC5/Timeout_Timer_Isr.c **** * Copyright 2008-2015, Cypress Semiconductor Corporation.  All rights reserved.
  13:Generated_Source\PSoC5/Timeout_Timer_Isr.c **** * You may use this file only in accordance with the license, terms, conditions, 
  14:Generated_Source\PSoC5/Timeout_Timer_Isr.c **** * disclaimers, and limitations in the end user license agreement accompanying 
  15:Generated_Source\PSoC5/Timeout_Timer_Isr.c **** * the software package with which this file was provided.
  16:Generated_Source\PSoC5/Timeout_Timer_Isr.c **** *******************************************************************************/
  17:Generated_Source\PSoC5/Timeout_Timer_Isr.c **** 
  18:Generated_Source\PSoC5/Timeout_Timer_Isr.c **** 
  19:Generated_Source\PSoC5/Timeout_Timer_Isr.c **** #include <cydevice_trm.h>
  20:Generated_Source\PSoC5/Timeout_Timer_Isr.c **** #include <CyLib.h>
  21:Generated_Source\PSoC5/Timeout_Timer_Isr.c **** #include <Timeout_Timer_Isr.h>
  22:Generated_Source\PSoC5/Timeout_Timer_Isr.c **** 
  23:Generated_Source\PSoC5/Timeout_Timer_Isr.c **** 
  24:Generated_Source\PSoC5/Timeout_Timer_Isr.c **** #if !defined(Timeout_Timer_Isr__REMOVED) /* Check for removal by optimization */
  25:Generated_Source\PSoC5/Timeout_Timer_Isr.c **** 
  26:Generated_Source\PSoC5/Timeout_Timer_Isr.c **** /*******************************************************************************
  27:Generated_Source\PSoC5/Timeout_Timer_Isr.c **** *  Place your includes, defines and code here 
  28:Generated_Source\PSoC5/Timeout_Timer_Isr.c **** ********************************************************************************/
  29:Generated_Source\PSoC5/Timeout_Timer_Isr.c **** /* `#START Timeout_Timer_Isr_intc` */
  30:Generated_Source\PSoC5/Timeout_Timer_Isr.c **** 
  31:Generated_Source\PSoC5/Timeout_Timer_Isr.c **** #include "Timeout_Timer.h"
ARM GAS  C:\Users\yqh\AppData\Local\Temp\ccRUI3yj.s 			page 2


  32:Generated_Source\PSoC5/Timeout_Timer_Isr.c **** #include "system.h"      
  33:Generated_Source\PSoC5/Timeout_Timer_Isr.c **** //#include "LED_GRN.h"
  34:Generated_Source\PSoC5/Timeout_Timer_Isr.c **** //#include "LEDR_OUT.h" //debug
  35:Generated_Source\PSoC5/Timeout_Timer_Isr.c **** uint8 ledr_on;    
  36:Generated_Source\PSoC5/Timeout_Timer_Isr.c **** /* `#END` */
  37:Generated_Source\PSoC5/Timeout_Timer_Isr.c **** 
  38:Generated_Source\PSoC5/Timeout_Timer_Isr.c **** #ifndef CYINT_IRQ_BASE
  39:Generated_Source\PSoC5/Timeout_Timer_Isr.c **** #define CYINT_IRQ_BASE      16
  40:Generated_Source\PSoC5/Timeout_Timer_Isr.c **** #endif /* CYINT_IRQ_BASE */
  41:Generated_Source\PSoC5/Timeout_Timer_Isr.c **** #ifndef CYINT_VECT_TABLE
  42:Generated_Source\PSoC5/Timeout_Timer_Isr.c **** #define CYINT_VECT_TABLE    ((cyisraddress **) CYREG_NVIC_VECT_OFFSET)
  43:Generated_Source\PSoC5/Timeout_Timer_Isr.c **** #endif /* CYINT_VECT_TABLE */
  44:Generated_Source\PSoC5/Timeout_Timer_Isr.c **** 
  45:Generated_Source\PSoC5/Timeout_Timer_Isr.c **** /* Declared in startup, used to set unused interrupts to. */
  46:Generated_Source\PSoC5/Timeout_Timer_Isr.c **** CY_ISR_PROTO(IntDefaultHandler);
  47:Generated_Source\PSoC5/Timeout_Timer_Isr.c **** 
  48:Generated_Source\PSoC5/Timeout_Timer_Isr.c **** 
  49:Generated_Source\PSoC5/Timeout_Timer_Isr.c **** /*******************************************************************************
  50:Generated_Source\PSoC5/Timeout_Timer_Isr.c **** * Function Name: Timeout_Timer_Isr_Start
  51:Generated_Source\PSoC5/Timeout_Timer_Isr.c **** ********************************************************************************
  52:Generated_Source\PSoC5/Timeout_Timer_Isr.c **** *
  53:Generated_Source\PSoC5/Timeout_Timer_Isr.c **** * Summary:
  54:Generated_Source\PSoC5/Timeout_Timer_Isr.c **** *  Set up the interrupt and enable it. This function disables the interrupt, 
  55:Generated_Source\PSoC5/Timeout_Timer_Isr.c **** *  sets the default interrupt vector, sets the priority from the value in the
  56:Generated_Source\PSoC5/Timeout_Timer_Isr.c **** *  Design Wide Resources Interrupt Editor, then enables the interrupt to the 
  57:Generated_Source\PSoC5/Timeout_Timer_Isr.c **** *  interrupt controller.
  58:Generated_Source\PSoC5/Timeout_Timer_Isr.c **** *
  59:Generated_Source\PSoC5/Timeout_Timer_Isr.c **** * Parameters:  
  60:Generated_Source\PSoC5/Timeout_Timer_Isr.c **** *   None
  61:Generated_Source\PSoC5/Timeout_Timer_Isr.c **** *
  62:Generated_Source\PSoC5/Timeout_Timer_Isr.c **** * Return:
  63:Generated_Source\PSoC5/Timeout_Timer_Isr.c **** *   None
  64:Generated_Source\PSoC5/Timeout_Timer_Isr.c **** *
  65:Generated_Source\PSoC5/Timeout_Timer_Isr.c **** *******************************************************************************/
  66:Generated_Source\PSoC5/Timeout_Timer_Isr.c **** void Timeout_Timer_Isr_Start(void)
  67:Generated_Source\PSoC5/Timeout_Timer_Isr.c **** {
  68:Generated_Source\PSoC5/Timeout_Timer_Isr.c ****     /* For all we know the interrupt is active. */
  69:Generated_Source\PSoC5/Timeout_Timer_Isr.c ****     Timeout_Timer_Isr_Disable();
  70:Generated_Source\PSoC5/Timeout_Timer_Isr.c **** 
  71:Generated_Source\PSoC5/Timeout_Timer_Isr.c ****     /* Set the ISR to point to the Timeout_Timer_Isr Interrupt. */
  72:Generated_Source\PSoC5/Timeout_Timer_Isr.c ****     Timeout_Timer_Isr_SetVector(&Timeout_Timer_Isr_Interrupt);
  73:Generated_Source\PSoC5/Timeout_Timer_Isr.c **** 
  74:Generated_Source\PSoC5/Timeout_Timer_Isr.c ****     /* Set the priority. */
  75:Generated_Source\PSoC5/Timeout_Timer_Isr.c ****     Timeout_Timer_Isr_SetPriority((uint8)Timeout_Timer_Isr_INTC_PRIOR_NUMBER);
  76:Generated_Source\PSoC5/Timeout_Timer_Isr.c **** 
  77:Generated_Source\PSoC5/Timeout_Timer_Isr.c ****     /* Enable it. */
  78:Generated_Source\PSoC5/Timeout_Timer_Isr.c ****     Timeout_Timer_Isr_Enable();
  79:Generated_Source\PSoC5/Timeout_Timer_Isr.c **** }
  80:Generated_Source\PSoC5/Timeout_Timer_Isr.c **** 
  81:Generated_Source\PSoC5/Timeout_Timer_Isr.c **** 
  82:Generated_Source\PSoC5/Timeout_Timer_Isr.c **** /*******************************************************************************
  83:Generated_Source\PSoC5/Timeout_Timer_Isr.c **** * Function Name: Timeout_Timer_Isr_StartEx
  84:Generated_Source\PSoC5/Timeout_Timer_Isr.c **** ********************************************************************************
  85:Generated_Source\PSoC5/Timeout_Timer_Isr.c **** *
  86:Generated_Source\PSoC5/Timeout_Timer_Isr.c **** * Summary:
  87:Generated_Source\PSoC5/Timeout_Timer_Isr.c **** *  Sets up the interrupt and enables it. This function disables the interrupt,
  88:Generated_Source\PSoC5/Timeout_Timer_Isr.c **** *  sets the interrupt vector based on the address passed in, sets the priority 
ARM GAS  C:\Users\yqh\AppData\Local\Temp\ccRUI3yj.s 			page 3


  89:Generated_Source\PSoC5/Timeout_Timer_Isr.c **** *  from the value in the Design Wide Resources Interrupt Editor, then enables 
  90:Generated_Source\PSoC5/Timeout_Timer_Isr.c **** *  the interrupt to the interrupt controller.
  91:Generated_Source\PSoC5/Timeout_Timer_Isr.c **** *  
  92:Generated_Source\PSoC5/Timeout_Timer_Isr.c **** *  When defining ISR functions, the CY_ISR and CY_ISR_PROTO macros should be 
  93:Generated_Source\PSoC5/Timeout_Timer_Isr.c **** *  used to provide consistent definition across compilers:
  94:Generated_Source\PSoC5/Timeout_Timer_Isr.c **** *  
  95:Generated_Source\PSoC5/Timeout_Timer_Isr.c **** *  Function definition example:
  96:Generated_Source\PSoC5/Timeout_Timer_Isr.c **** *   CY_ISR(MyISR)
  97:Generated_Source\PSoC5/Timeout_Timer_Isr.c **** *   {
  98:Generated_Source\PSoC5/Timeout_Timer_Isr.c **** *   }
  99:Generated_Source\PSoC5/Timeout_Timer_Isr.c **** *   Function prototype example:
 100:Generated_Source\PSoC5/Timeout_Timer_Isr.c **** *   CY_ISR_PROTO(MyISR);
 101:Generated_Source\PSoC5/Timeout_Timer_Isr.c **** *
 102:Generated_Source\PSoC5/Timeout_Timer_Isr.c **** * Parameters:  
 103:Generated_Source\PSoC5/Timeout_Timer_Isr.c **** *   address: Address of the ISR to set in the interrupt vector table.
 104:Generated_Source\PSoC5/Timeout_Timer_Isr.c **** *
 105:Generated_Source\PSoC5/Timeout_Timer_Isr.c **** * Return:
 106:Generated_Source\PSoC5/Timeout_Timer_Isr.c **** *   None
 107:Generated_Source\PSoC5/Timeout_Timer_Isr.c **** *
 108:Generated_Source\PSoC5/Timeout_Timer_Isr.c **** *******************************************************************************/
 109:Generated_Source\PSoC5/Timeout_Timer_Isr.c **** void Timeout_Timer_Isr_StartEx(cyisraddress address)
 110:Generated_Source\PSoC5/Timeout_Timer_Isr.c **** {
 111:Generated_Source\PSoC5/Timeout_Timer_Isr.c ****     /* For all we know the interrupt is active. */
 112:Generated_Source\PSoC5/Timeout_Timer_Isr.c ****     Timeout_Timer_Isr_Disable();
 113:Generated_Source\PSoC5/Timeout_Timer_Isr.c **** 
 114:Generated_Source\PSoC5/Timeout_Timer_Isr.c ****     /* Set the ISR to point to the Timeout_Timer_Isr Interrupt. */
 115:Generated_Source\PSoC5/Timeout_Timer_Isr.c ****     Timeout_Timer_Isr_SetVector(address);
 116:Generated_Source\PSoC5/Timeout_Timer_Isr.c **** 
 117:Generated_Source\PSoC5/Timeout_Timer_Isr.c ****     /* Set the priority. */
 118:Generated_Source\PSoC5/Timeout_Timer_Isr.c ****     Timeout_Timer_Isr_SetPriority((uint8)Timeout_Timer_Isr_INTC_PRIOR_NUMBER);
 119:Generated_Source\PSoC5/Timeout_Timer_Isr.c **** 
 120:Generated_Source\PSoC5/Timeout_Timer_Isr.c ****     /* Enable it. */
 121:Generated_Source\PSoC5/Timeout_Timer_Isr.c ****     Timeout_Timer_Isr_Enable();
 122:Generated_Source\PSoC5/Timeout_Timer_Isr.c **** }
 123:Generated_Source\PSoC5/Timeout_Timer_Isr.c **** 
 124:Generated_Source\PSoC5/Timeout_Timer_Isr.c **** 
 125:Generated_Source\PSoC5/Timeout_Timer_Isr.c **** /*******************************************************************************
 126:Generated_Source\PSoC5/Timeout_Timer_Isr.c **** * Function Name: Timeout_Timer_Isr_Stop
 127:Generated_Source\PSoC5/Timeout_Timer_Isr.c **** ********************************************************************************
 128:Generated_Source\PSoC5/Timeout_Timer_Isr.c **** *
 129:Generated_Source\PSoC5/Timeout_Timer_Isr.c **** * Summary:
 130:Generated_Source\PSoC5/Timeout_Timer_Isr.c **** *   Disables and removes the interrupt.
 131:Generated_Source\PSoC5/Timeout_Timer_Isr.c **** *
 132:Generated_Source\PSoC5/Timeout_Timer_Isr.c **** * Parameters:  
 133:Generated_Source\PSoC5/Timeout_Timer_Isr.c **** *   None
 134:Generated_Source\PSoC5/Timeout_Timer_Isr.c **** *
 135:Generated_Source\PSoC5/Timeout_Timer_Isr.c **** * Return:
 136:Generated_Source\PSoC5/Timeout_Timer_Isr.c **** *   None
 137:Generated_Source\PSoC5/Timeout_Timer_Isr.c **** *
 138:Generated_Source\PSoC5/Timeout_Timer_Isr.c **** *******************************************************************************/
 139:Generated_Source\PSoC5/Timeout_Timer_Isr.c **** void Timeout_Timer_Isr_Stop(void)
 140:Generated_Source\PSoC5/Timeout_Timer_Isr.c **** {
 141:Generated_Source\PSoC5/Timeout_Timer_Isr.c ****     /* Disable this interrupt. */
 142:Generated_Source\PSoC5/Timeout_Timer_Isr.c ****     Timeout_Timer_Isr_Disable();
 143:Generated_Source\PSoC5/Timeout_Timer_Isr.c **** 
 144:Generated_Source\PSoC5/Timeout_Timer_Isr.c ****     /* Set the ISR to point to the passive one. */
 145:Generated_Source\PSoC5/Timeout_Timer_Isr.c ****     Timeout_Timer_Isr_SetVector(&IntDefaultHandler);
ARM GAS  C:\Users\yqh\AppData\Local\Temp\ccRUI3yj.s 			page 4


 146:Generated_Source\PSoC5/Timeout_Timer_Isr.c **** }
 147:Generated_Source\PSoC5/Timeout_Timer_Isr.c **** 
 148:Generated_Source\PSoC5/Timeout_Timer_Isr.c **** 
 149:Generated_Source\PSoC5/Timeout_Timer_Isr.c **** /*******************************************************************************
 150:Generated_Source\PSoC5/Timeout_Timer_Isr.c **** * Function Name: Timeout_Timer_Isr_Interrupt
 151:Generated_Source\PSoC5/Timeout_Timer_Isr.c **** ********************************************************************************
 152:Generated_Source\PSoC5/Timeout_Timer_Isr.c **** *
 153:Generated_Source\PSoC5/Timeout_Timer_Isr.c **** * Summary:
 154:Generated_Source\PSoC5/Timeout_Timer_Isr.c **** *   The default Interrupt Service Routine for Timeout_Timer_Isr.
 155:Generated_Source\PSoC5/Timeout_Timer_Isr.c **** *
 156:Generated_Source\PSoC5/Timeout_Timer_Isr.c **** *   Add custom code between the coments to keep the next version of this file
 157:Generated_Source\PSoC5/Timeout_Timer_Isr.c **** *   from over writting your code.
 158:Generated_Source\PSoC5/Timeout_Timer_Isr.c **** *
 159:Generated_Source\PSoC5/Timeout_Timer_Isr.c **** * Parameters:  
 160:Generated_Source\PSoC5/Timeout_Timer_Isr.c **** *
 161:Generated_Source\PSoC5/Timeout_Timer_Isr.c **** * Return:
 162:Generated_Source\PSoC5/Timeout_Timer_Isr.c **** *   None
 163:Generated_Source\PSoC5/Timeout_Timer_Isr.c **** *
 164:Generated_Source\PSoC5/Timeout_Timer_Isr.c **** *******************************************************************************/
 165:Generated_Source\PSoC5/Timeout_Timer_Isr.c **** CY_ISR(Timeout_Timer_Isr_Interrupt)
 166:Generated_Source\PSoC5/Timeout_Timer_Isr.c **** {
  27              		.loc 1 166 0
  28              		.cfi_startproc
  29              		@ args = 0, pretend = 0, frame = 0
  30              		@ frame_needed = 0, uses_anonymous_args = 0
  31 0000 08B5     		push	{r3, lr}
  32              		.cfi_def_cfa_offset 8
  33              		.cfi_offset 3, -8
  34              		.cfi_offset 14, -4
 167:Generated_Source\PSoC5/Timeout_Timer_Isr.c ****     #ifdef Timeout_Timer_Isr_INTERRUPT_INTERRUPT_CALLBACK
 168:Generated_Source\PSoC5/Timeout_Timer_Isr.c ****         Timeout_Timer_Isr_Interrupt_InterruptCallback();
 169:Generated_Source\PSoC5/Timeout_Timer_Isr.c ****     #endif /* Timeout_Timer_Isr_INTERRUPT_INTERRUPT_CALLBACK */ 
 170:Generated_Source\PSoC5/Timeout_Timer_Isr.c **** 
 171:Generated_Source\PSoC5/Timeout_Timer_Isr.c ****     /*  Place your Interrupt code here. */
 172:Generated_Source\PSoC5/Timeout_Timer_Isr.c ****     /* `#START Timeout_Timer_Isr_Interrupt` */
 173:Generated_Source\PSoC5/Timeout_Timer_Isr.c ****     //50us interrupt
 174:Generated_Source\PSoC5/Timeout_Timer_Isr.c ****     Timeout_Timer_ReadStatusRegister(); 
  35              		.loc 1 174 0
  36 0002 FFF7FEFF 		bl	Timeout_Timer_ReadStatusRegister
  37              	.LVL0:
 175:Generated_Source\PSoC5/Timeout_Timer_Isr.c ****     f2f_timeout++;
  38              		.loc 1 175 0
  39 0006 044A     		ldr	r2, .L2
  40 0008 1368     		ldr	r3, [r2]
  41 000a 0133     		adds	r3, r3, #1
  42 000c 1360     		str	r3, [r2]
 176:Generated_Source\PSoC5/Timeout_Timer_Isr.c ****     passmode_timeout++;
  43              		.loc 1 176 0
  44 000e 034A     		ldr	r2, .L2+4
  45 0010 1368     		ldr	r3, [r2]
  46 0012 0133     		adds	r3, r3, #1
  47 0014 1360     		str	r3, [r2]
  48 0016 08BD     		pop	{r3, pc}
  49              	.L3:
  50              		.align	2
  51              	.L2:
  52 0018 00000000 		.word	f2f_timeout
ARM GAS  C:\Users\yqh\AppData\Local\Temp\ccRUI3yj.s 			page 5


  53 001c 00000000 		.word	passmode_timeout
  54              		.cfi_endproc
  55              	.LFE66:
  56              		.size	Timeout_Timer_Isr_Interrupt, .-Timeout_Timer_Isr_Interrupt
  57              		.section	.text.Timeout_Timer_Isr_Start,"ax",%progbits
  58              		.align	1
  59              		.global	Timeout_Timer_Isr_Start
  60              		.thumb
  61              		.thumb_func
  62              		.type	Timeout_Timer_Isr_Start, %function
  63              	Timeout_Timer_Isr_Start:
  64              	.LFB63:
  67:Generated_Source\PSoC5/Timeout_Timer_Isr.c ****     /* For all we know the interrupt is active. */
  65              		.loc 1 67 0
  66              		.cfi_startproc
  67              		@ args = 0, pretend = 0, frame = 0
  68              		@ frame_needed = 0, uses_anonymous_args = 0
  69              		@ link register save eliminated.
  70              	.LBB22:
  71              	.LBB23:
 177:Generated_Source\PSoC5/Timeout_Timer_Isr.c ****     /* `#END` */
 178:Generated_Source\PSoC5/Timeout_Timer_Isr.c **** }
 179:Generated_Source\PSoC5/Timeout_Timer_Isr.c **** 
 180:Generated_Source\PSoC5/Timeout_Timer_Isr.c **** 
 181:Generated_Source\PSoC5/Timeout_Timer_Isr.c **** /*******************************************************************************
 182:Generated_Source\PSoC5/Timeout_Timer_Isr.c **** * Function Name: Timeout_Timer_Isr_SetVector
 183:Generated_Source\PSoC5/Timeout_Timer_Isr.c **** ********************************************************************************
 184:Generated_Source\PSoC5/Timeout_Timer_Isr.c **** *
 185:Generated_Source\PSoC5/Timeout_Timer_Isr.c **** * Summary:
 186:Generated_Source\PSoC5/Timeout_Timer_Isr.c **** *   Change the ISR vector for the Interrupt. Note calling Timeout_Timer_Isr_Start
 187:Generated_Source\PSoC5/Timeout_Timer_Isr.c **** *   will override any effect this method would have had. To set the vector 
 188:Generated_Source\PSoC5/Timeout_Timer_Isr.c **** *   before the component has been started use Timeout_Timer_Isr_StartEx instead.
 189:Generated_Source\PSoC5/Timeout_Timer_Isr.c **** * 
 190:Generated_Source\PSoC5/Timeout_Timer_Isr.c **** *   When defining ISR functions, the CY_ISR and CY_ISR_PROTO macros should be 
 191:Generated_Source\PSoC5/Timeout_Timer_Isr.c **** *   used to provide consistent definition across compilers:
 192:Generated_Source\PSoC5/Timeout_Timer_Isr.c **** *
 193:Generated_Source\PSoC5/Timeout_Timer_Isr.c **** *   Function definition example:
 194:Generated_Source\PSoC5/Timeout_Timer_Isr.c **** *   CY_ISR(MyISR)
 195:Generated_Source\PSoC5/Timeout_Timer_Isr.c **** *   {
 196:Generated_Source\PSoC5/Timeout_Timer_Isr.c **** *   }
 197:Generated_Source\PSoC5/Timeout_Timer_Isr.c **** *
 198:Generated_Source\PSoC5/Timeout_Timer_Isr.c **** *   Function prototype example:
 199:Generated_Source\PSoC5/Timeout_Timer_Isr.c **** *     CY_ISR_PROTO(MyISR);
 200:Generated_Source\PSoC5/Timeout_Timer_Isr.c **** *
 201:Generated_Source\PSoC5/Timeout_Timer_Isr.c **** * Parameters:
 202:Generated_Source\PSoC5/Timeout_Timer_Isr.c **** *   address: Address of the ISR to set in the interrupt vector table.
 203:Generated_Source\PSoC5/Timeout_Timer_Isr.c **** *
 204:Generated_Source\PSoC5/Timeout_Timer_Isr.c **** * Return:
 205:Generated_Source\PSoC5/Timeout_Timer_Isr.c **** *   None
 206:Generated_Source\PSoC5/Timeout_Timer_Isr.c **** *
 207:Generated_Source\PSoC5/Timeout_Timer_Isr.c **** *******************************************************************************/
 208:Generated_Source\PSoC5/Timeout_Timer_Isr.c **** void Timeout_Timer_Isr_SetVector(cyisraddress address)
 209:Generated_Source\PSoC5/Timeout_Timer_Isr.c **** {
 210:Generated_Source\PSoC5/Timeout_Timer_Isr.c ****     cyisraddress * ramVectorTable;
 211:Generated_Source\PSoC5/Timeout_Timer_Isr.c **** 
 212:Generated_Source\PSoC5/Timeout_Timer_Isr.c ****     ramVectorTable = (cyisraddress *) *CYINT_VECT_TABLE;
 213:Generated_Source\PSoC5/Timeout_Timer_Isr.c **** 
ARM GAS  C:\Users\yqh\AppData\Local\Temp\ccRUI3yj.s 			page 6


 214:Generated_Source\PSoC5/Timeout_Timer_Isr.c ****     ramVectorTable[CYINT_IRQ_BASE + (uint32)Timeout_Timer_Isr__INTC_NUMBER] = address;
 215:Generated_Source\PSoC5/Timeout_Timer_Isr.c **** }
 216:Generated_Source\PSoC5/Timeout_Timer_Isr.c **** 
 217:Generated_Source\PSoC5/Timeout_Timer_Isr.c **** 
 218:Generated_Source\PSoC5/Timeout_Timer_Isr.c **** /*******************************************************************************
 219:Generated_Source\PSoC5/Timeout_Timer_Isr.c **** * Function Name: Timeout_Timer_Isr_GetVector
 220:Generated_Source\PSoC5/Timeout_Timer_Isr.c **** ********************************************************************************
 221:Generated_Source\PSoC5/Timeout_Timer_Isr.c **** *
 222:Generated_Source\PSoC5/Timeout_Timer_Isr.c **** * Summary:
 223:Generated_Source\PSoC5/Timeout_Timer_Isr.c **** *   Gets the "address" of the current ISR vector for the Interrupt.
 224:Generated_Source\PSoC5/Timeout_Timer_Isr.c **** *
 225:Generated_Source\PSoC5/Timeout_Timer_Isr.c **** * Parameters:
 226:Generated_Source\PSoC5/Timeout_Timer_Isr.c **** *   None
 227:Generated_Source\PSoC5/Timeout_Timer_Isr.c **** *
 228:Generated_Source\PSoC5/Timeout_Timer_Isr.c **** * Return:
 229:Generated_Source\PSoC5/Timeout_Timer_Isr.c **** *   Address of the ISR in the interrupt vector table.
 230:Generated_Source\PSoC5/Timeout_Timer_Isr.c **** *
 231:Generated_Source\PSoC5/Timeout_Timer_Isr.c **** *******************************************************************************/
 232:Generated_Source\PSoC5/Timeout_Timer_Isr.c **** cyisraddress Timeout_Timer_Isr_GetVector(void)
 233:Generated_Source\PSoC5/Timeout_Timer_Isr.c **** {
 234:Generated_Source\PSoC5/Timeout_Timer_Isr.c ****     cyisraddress * ramVectorTable;
 235:Generated_Source\PSoC5/Timeout_Timer_Isr.c **** 
 236:Generated_Source\PSoC5/Timeout_Timer_Isr.c ****     ramVectorTable = (cyisraddress *) *CYINT_VECT_TABLE;
 237:Generated_Source\PSoC5/Timeout_Timer_Isr.c **** 
 238:Generated_Source\PSoC5/Timeout_Timer_Isr.c ****     return ramVectorTable[CYINT_IRQ_BASE + (uint32)Timeout_Timer_Isr__INTC_NUMBER];
 239:Generated_Source\PSoC5/Timeout_Timer_Isr.c **** }
 240:Generated_Source\PSoC5/Timeout_Timer_Isr.c **** 
 241:Generated_Source\PSoC5/Timeout_Timer_Isr.c **** 
 242:Generated_Source\PSoC5/Timeout_Timer_Isr.c **** /*******************************************************************************
 243:Generated_Source\PSoC5/Timeout_Timer_Isr.c **** * Function Name: Timeout_Timer_Isr_SetPriority
 244:Generated_Source\PSoC5/Timeout_Timer_Isr.c **** ********************************************************************************
 245:Generated_Source\PSoC5/Timeout_Timer_Isr.c **** *
 246:Generated_Source\PSoC5/Timeout_Timer_Isr.c **** * Summary:
 247:Generated_Source\PSoC5/Timeout_Timer_Isr.c **** *   Sets the Priority of the Interrupt. 
 248:Generated_Source\PSoC5/Timeout_Timer_Isr.c **** *
 249:Generated_Source\PSoC5/Timeout_Timer_Isr.c **** *   Note calling Timeout_Timer_Isr_Start or Timeout_Timer_Isr_StartEx will 
 250:Generated_Source\PSoC5/Timeout_Timer_Isr.c **** *   override any effect this API would have had. This API should only be called
 251:Generated_Source\PSoC5/Timeout_Timer_Isr.c **** *   after Timeout_Timer_Isr_Start or Timeout_Timer_Isr_StartEx has been called. 
 252:Generated_Source\PSoC5/Timeout_Timer_Isr.c **** *   To set the initial priority for the component, use the Design-Wide Resources
 253:Generated_Source\PSoC5/Timeout_Timer_Isr.c **** *   Interrupt Editor.
 254:Generated_Source\PSoC5/Timeout_Timer_Isr.c **** *
 255:Generated_Source\PSoC5/Timeout_Timer_Isr.c **** *   Note This API has no effect on Non-maskable interrupt NMI).
 256:Generated_Source\PSoC5/Timeout_Timer_Isr.c **** *
 257:Generated_Source\PSoC5/Timeout_Timer_Isr.c **** * Parameters:
 258:Generated_Source\PSoC5/Timeout_Timer_Isr.c **** *   priority: Priority of the interrupt, 0 being the highest priority
 259:Generated_Source\PSoC5/Timeout_Timer_Isr.c **** *             PSoC 3 and PSoC 5LP: Priority is from 0 to 7.
 260:Generated_Source\PSoC5/Timeout_Timer_Isr.c **** *             PSoC 4: Priority is from 0 to 3.
 261:Generated_Source\PSoC5/Timeout_Timer_Isr.c **** *
 262:Generated_Source\PSoC5/Timeout_Timer_Isr.c **** * Return:
 263:Generated_Source\PSoC5/Timeout_Timer_Isr.c **** *   None
 264:Generated_Source\PSoC5/Timeout_Timer_Isr.c **** *
 265:Generated_Source\PSoC5/Timeout_Timer_Isr.c **** *******************************************************************************/
 266:Generated_Source\PSoC5/Timeout_Timer_Isr.c **** void Timeout_Timer_Isr_SetPriority(uint8 priority)
 267:Generated_Source\PSoC5/Timeout_Timer_Isr.c **** {
 268:Generated_Source\PSoC5/Timeout_Timer_Isr.c ****     *Timeout_Timer_Isr_INTC_PRIOR = priority << 5;
 269:Generated_Source\PSoC5/Timeout_Timer_Isr.c **** }
 270:Generated_Source\PSoC5/Timeout_Timer_Isr.c **** 
ARM GAS  C:\Users\yqh\AppData\Local\Temp\ccRUI3yj.s 			page 7


 271:Generated_Source\PSoC5/Timeout_Timer_Isr.c **** 
 272:Generated_Source\PSoC5/Timeout_Timer_Isr.c **** /*******************************************************************************
 273:Generated_Source\PSoC5/Timeout_Timer_Isr.c **** * Function Name: Timeout_Timer_Isr_GetPriority
 274:Generated_Source\PSoC5/Timeout_Timer_Isr.c **** ********************************************************************************
 275:Generated_Source\PSoC5/Timeout_Timer_Isr.c **** *
 276:Generated_Source\PSoC5/Timeout_Timer_Isr.c **** * Summary:
 277:Generated_Source\PSoC5/Timeout_Timer_Isr.c **** *   Gets the Priority of the Interrupt.
 278:Generated_Source\PSoC5/Timeout_Timer_Isr.c **** *
 279:Generated_Source\PSoC5/Timeout_Timer_Isr.c **** * Parameters:
 280:Generated_Source\PSoC5/Timeout_Timer_Isr.c **** *   None
 281:Generated_Source\PSoC5/Timeout_Timer_Isr.c **** *
 282:Generated_Source\PSoC5/Timeout_Timer_Isr.c **** * Return:
 283:Generated_Source\PSoC5/Timeout_Timer_Isr.c **** *   Priority of the interrupt, 0 being the highest priority
 284:Generated_Source\PSoC5/Timeout_Timer_Isr.c **** *    PSoC 3 and PSoC 5LP: Priority is from 0 to 7.
 285:Generated_Source\PSoC5/Timeout_Timer_Isr.c **** *    PSoC 4: Priority is from 0 to 3.
 286:Generated_Source\PSoC5/Timeout_Timer_Isr.c **** *
 287:Generated_Source\PSoC5/Timeout_Timer_Isr.c **** *******************************************************************************/
 288:Generated_Source\PSoC5/Timeout_Timer_Isr.c **** uint8 Timeout_Timer_Isr_GetPriority(void)
 289:Generated_Source\PSoC5/Timeout_Timer_Isr.c **** {
 290:Generated_Source\PSoC5/Timeout_Timer_Isr.c ****     uint8 priority;
 291:Generated_Source\PSoC5/Timeout_Timer_Isr.c **** 
 292:Generated_Source\PSoC5/Timeout_Timer_Isr.c **** 
 293:Generated_Source\PSoC5/Timeout_Timer_Isr.c ****     priority = *Timeout_Timer_Isr_INTC_PRIOR >> 5;
 294:Generated_Source\PSoC5/Timeout_Timer_Isr.c **** 
 295:Generated_Source\PSoC5/Timeout_Timer_Isr.c ****     return priority;
 296:Generated_Source\PSoC5/Timeout_Timer_Isr.c **** }
 297:Generated_Source\PSoC5/Timeout_Timer_Isr.c **** 
 298:Generated_Source\PSoC5/Timeout_Timer_Isr.c **** 
 299:Generated_Source\PSoC5/Timeout_Timer_Isr.c **** /*******************************************************************************
 300:Generated_Source\PSoC5/Timeout_Timer_Isr.c **** * Function Name: Timeout_Timer_Isr_Enable
 301:Generated_Source\PSoC5/Timeout_Timer_Isr.c **** ********************************************************************************
 302:Generated_Source\PSoC5/Timeout_Timer_Isr.c **** *
 303:Generated_Source\PSoC5/Timeout_Timer_Isr.c **** * Summary:
 304:Generated_Source\PSoC5/Timeout_Timer_Isr.c **** *   Enables the interrupt to the interrupt controller. Do not call this function
 305:Generated_Source\PSoC5/Timeout_Timer_Isr.c **** *   unless ISR_Start() has been called or the functionality of the ISR_Start() 
 306:Generated_Source\PSoC5/Timeout_Timer_Isr.c **** *   function, which sets the vector and the priority, has been called.
 307:Generated_Source\PSoC5/Timeout_Timer_Isr.c **** *
 308:Generated_Source\PSoC5/Timeout_Timer_Isr.c **** * Parameters:
 309:Generated_Source\PSoC5/Timeout_Timer_Isr.c **** *   None
 310:Generated_Source\PSoC5/Timeout_Timer_Isr.c **** *
 311:Generated_Source\PSoC5/Timeout_Timer_Isr.c **** * Return:
 312:Generated_Source\PSoC5/Timeout_Timer_Isr.c **** *   None
 313:Generated_Source\PSoC5/Timeout_Timer_Isr.c **** *
 314:Generated_Source\PSoC5/Timeout_Timer_Isr.c **** *******************************************************************************/
 315:Generated_Source\PSoC5/Timeout_Timer_Isr.c **** void Timeout_Timer_Isr_Enable(void)
 316:Generated_Source\PSoC5/Timeout_Timer_Isr.c **** {
 317:Generated_Source\PSoC5/Timeout_Timer_Isr.c ****     /* Enable the general interrupt. */
 318:Generated_Source\PSoC5/Timeout_Timer_Isr.c ****     *Timeout_Timer_Isr_INTC_SET_EN = Timeout_Timer_Isr__INTC_MASK;
 319:Generated_Source\PSoC5/Timeout_Timer_Isr.c **** }
 320:Generated_Source\PSoC5/Timeout_Timer_Isr.c **** 
 321:Generated_Source\PSoC5/Timeout_Timer_Isr.c **** 
 322:Generated_Source\PSoC5/Timeout_Timer_Isr.c **** /*******************************************************************************
 323:Generated_Source\PSoC5/Timeout_Timer_Isr.c **** * Function Name: Timeout_Timer_Isr_GetState
 324:Generated_Source\PSoC5/Timeout_Timer_Isr.c **** ********************************************************************************
 325:Generated_Source\PSoC5/Timeout_Timer_Isr.c **** *
 326:Generated_Source\PSoC5/Timeout_Timer_Isr.c **** * Summary:
 327:Generated_Source\PSoC5/Timeout_Timer_Isr.c **** *   Gets the state (enabled, disabled) of the Interrupt.
ARM GAS  C:\Users\yqh\AppData\Local\Temp\ccRUI3yj.s 			page 8


 328:Generated_Source\PSoC5/Timeout_Timer_Isr.c **** *
 329:Generated_Source\PSoC5/Timeout_Timer_Isr.c **** * Parameters:
 330:Generated_Source\PSoC5/Timeout_Timer_Isr.c **** *   None
 331:Generated_Source\PSoC5/Timeout_Timer_Isr.c **** *
 332:Generated_Source\PSoC5/Timeout_Timer_Isr.c **** * Return:
 333:Generated_Source\PSoC5/Timeout_Timer_Isr.c **** *   1 if enabled, 0 if disabled.
 334:Generated_Source\PSoC5/Timeout_Timer_Isr.c **** *
 335:Generated_Source\PSoC5/Timeout_Timer_Isr.c **** *******************************************************************************/
 336:Generated_Source\PSoC5/Timeout_Timer_Isr.c **** uint8 Timeout_Timer_Isr_GetState(void)
 337:Generated_Source\PSoC5/Timeout_Timer_Isr.c **** {
 338:Generated_Source\PSoC5/Timeout_Timer_Isr.c ****     /* Get the state of the general interrupt. */
 339:Generated_Source\PSoC5/Timeout_Timer_Isr.c ****     return ((*Timeout_Timer_Isr_INTC_SET_EN & (uint32)Timeout_Timer_Isr__INTC_MASK) != 0u) ? 1u:0u;
 340:Generated_Source\PSoC5/Timeout_Timer_Isr.c **** }
 341:Generated_Source\PSoC5/Timeout_Timer_Isr.c **** 
 342:Generated_Source\PSoC5/Timeout_Timer_Isr.c **** 
 343:Generated_Source\PSoC5/Timeout_Timer_Isr.c **** /*******************************************************************************
 344:Generated_Source\PSoC5/Timeout_Timer_Isr.c **** * Function Name: Timeout_Timer_Isr_Disable
 345:Generated_Source\PSoC5/Timeout_Timer_Isr.c **** ********************************************************************************
 346:Generated_Source\PSoC5/Timeout_Timer_Isr.c **** *
 347:Generated_Source\PSoC5/Timeout_Timer_Isr.c **** * Summary:
 348:Generated_Source\PSoC5/Timeout_Timer_Isr.c **** *   Disables the Interrupt in the interrupt controller.
 349:Generated_Source\PSoC5/Timeout_Timer_Isr.c **** *
 350:Generated_Source\PSoC5/Timeout_Timer_Isr.c **** * Parameters:
 351:Generated_Source\PSoC5/Timeout_Timer_Isr.c **** *   None
 352:Generated_Source\PSoC5/Timeout_Timer_Isr.c **** *
 353:Generated_Source\PSoC5/Timeout_Timer_Isr.c **** * Return:
 354:Generated_Source\PSoC5/Timeout_Timer_Isr.c **** *   None
 355:Generated_Source\PSoC5/Timeout_Timer_Isr.c **** *
 356:Generated_Source\PSoC5/Timeout_Timer_Isr.c **** *******************************************************************************/
 357:Generated_Source\PSoC5/Timeout_Timer_Isr.c **** void Timeout_Timer_Isr_Disable(void)
 358:Generated_Source\PSoC5/Timeout_Timer_Isr.c **** {
 359:Generated_Source\PSoC5/Timeout_Timer_Isr.c ****     /* Disable the general interrupt. */
 360:Generated_Source\PSoC5/Timeout_Timer_Isr.c ****     *Timeout_Timer_Isr_INTC_CLR_EN = Timeout_Timer_Isr__INTC_MASK;
  72              		.loc 1 360 0
  73 0000 084A     		ldr	r2, .L5
  74 0002 4FF48023 		mov	r3, #262144
  75 0006 1360     		str	r3, [r2]
  76              	.LVL1:
  77              	.LBE23:
  78              	.LBE22:
  79              	.LBB24:
  80              	.LBB25:
 212:Generated_Source\PSoC5/Timeout_Timer_Isr.c **** 
  81              		.loc 1 212 0
  82 0008 02F68832 		addw	r2, r2, #2952
  83 000c 1268     		ldr	r2, [r2]
  84              	.LVL2:
 214:Generated_Source\PSoC5/Timeout_Timer_Isr.c **** }
  85              		.loc 1 214 0
  86 000e 0649     		ldr	r1, .L5+4
  87 0010 C2F88810 		str	r1, [r2, #136]
  88              	.LVL3:
  89              	.LBE25:
  90              	.LBE24:
  91              	.LBB26:
  92              	.LBB27:
 268:Generated_Source\PSoC5/Timeout_Timer_Isr.c **** }
ARM GAS  C:\Users\yqh\AppData\Local\Temp\ccRUI3yj.s 			page 9


  93              		.loc 1 268 0
  94 0014 054A     		ldr	r2, .L5+8
  95              	.LVL4:
  96 0016 E021     		movs	r1, #224
  97 0018 1170     		strb	r1, [r2]
  98              	.LBE27:
  99              	.LBE26:
 100              	.LBB28:
 101              	.LBB29:
 318:Generated_Source\PSoC5/Timeout_Timer_Isr.c **** }
 102              		.loc 1 318 0
 103 001a A2F21232 		subw	r2, r2, #786
 104 001e 1360     		str	r3, [r2]
 105 0020 7047     		bx	lr
 106              	.L6:
 107 0022 00BF     		.align	2
 108              	.L5:
 109 0024 80E100E0 		.word	-536813184
 110 0028 00000000 		.word	Timeout_Timer_Isr_Interrupt
 111 002c 12E400E0 		.word	-536812526
 112              	.LBE29:
 113              	.LBE28:
 114              		.cfi_endproc
 115              	.LFE63:
 116              		.size	Timeout_Timer_Isr_Start, .-Timeout_Timer_Isr_Start
 117              		.section	.text.Timeout_Timer_Isr_StartEx,"ax",%progbits
 118              		.align	1
 119              		.global	Timeout_Timer_Isr_StartEx
 120              		.thumb
 121              		.thumb_func
 122              		.type	Timeout_Timer_Isr_StartEx, %function
 123              	Timeout_Timer_Isr_StartEx:
 124              	.LFB64:
 110:Generated_Source\PSoC5/Timeout_Timer_Isr.c ****     /* For all we know the interrupt is active. */
 125              		.loc 1 110 0
 126              		.cfi_startproc
 127              		@ args = 0, pretend = 0, frame = 0
 128              		@ frame_needed = 0, uses_anonymous_args = 0
 129              		@ link register save eliminated.
 130              	.LVL5:
 131              	.LBB30:
 132              	.LBB31:
 133              		.loc 1 360 0
 134 0000 074A     		ldr	r2, .L8
 135 0002 4FF48023 		mov	r3, #262144
 136 0006 1360     		str	r3, [r2]
 137              	.LVL6:
 138              	.LBE31:
 139              	.LBE30:
 140              	.LBB32:
 141              	.LBB33:
 212:Generated_Source\PSoC5/Timeout_Timer_Isr.c **** 
 142              		.loc 1 212 0
 143 0008 02F68832 		addw	r2, r2, #2952
 144 000c 1268     		ldr	r2, [r2]
 145              	.LVL7:
 146              	.LBE33:
ARM GAS  C:\Users\yqh\AppData\Local\Temp\ccRUI3yj.s 			page 10


 147              	.LBE32:
 148              	.LBB35:
 149              	.LBB36:
 268:Generated_Source\PSoC5/Timeout_Timer_Isr.c **** }
 150              		.loc 1 268 0
 151 000e E021     		movs	r1, #224
 152              	.LBE36:
 153              	.LBE35:
 154              	.LBB38:
 155              	.LBB34:
 214:Generated_Source\PSoC5/Timeout_Timer_Isr.c **** }
 156              		.loc 1 214 0
 157 0010 C2F88800 		str	r0, [r2, #136]
 158              	.LVL8:
 159              	.LBE34:
 160              	.LBE38:
 161              	.LBB39:
 162              	.LBB37:
 268:Generated_Source\PSoC5/Timeout_Timer_Isr.c **** }
 163              		.loc 1 268 0
 164 0014 034A     		ldr	r2, .L8+4
 165              	.LVL9:
 166 0016 1170     		strb	r1, [r2]
 167              	.LBE37:
 168              	.LBE39:
 169              	.LBB40:
 170              	.LBB41:
 318:Generated_Source\PSoC5/Timeout_Timer_Isr.c **** }
 171              		.loc 1 318 0
 172 0018 A2F21232 		subw	r2, r2, #786
 173 001c 1360     		str	r3, [r2]
 174 001e 7047     		bx	lr
 175              	.L9:
 176              		.align	2
 177              	.L8:
 178 0020 80E100E0 		.word	-536813184
 179 0024 12E400E0 		.word	-536812526
 180              	.LBE41:
 181              	.LBE40:
 182              		.cfi_endproc
 183              	.LFE64:
 184              		.size	Timeout_Timer_Isr_StartEx, .-Timeout_Timer_Isr_StartEx
 185              		.section	.text.Timeout_Timer_Isr_Stop,"ax",%progbits
 186              		.align	1
 187              		.global	Timeout_Timer_Isr_Stop
 188              		.thumb
 189              		.thumb_func
 190              		.type	Timeout_Timer_Isr_Stop, %function
 191              	Timeout_Timer_Isr_Stop:
 192              	.LFB65:
 140:Generated_Source\PSoC5/Timeout_Timer_Isr.c ****     /* Disable this interrupt. */
 193              		.loc 1 140 0
 194              		.cfi_startproc
 195              		@ args = 0, pretend = 0, frame = 0
 196              		@ frame_needed = 0, uses_anonymous_args = 0
 197              		@ link register save eliminated.
 198              	.LBB42:
ARM GAS  C:\Users\yqh\AppData\Local\Temp\ccRUI3yj.s 			page 11


 199              	.LBB43:
 200              		.loc 1 360 0
 201 0000 054B     		ldr	r3, .L11
 202 0002 4FF48022 		mov	r2, #262144
 203 0006 1A60     		str	r2, [r3]
 204              	.LVL10:
 205              	.LBE43:
 206              	.LBE42:
 207              	.LBB44:
 208              	.LBB45:
 212:Generated_Source\PSoC5/Timeout_Timer_Isr.c **** 
 209              		.loc 1 212 0
 210 0008 03F68833 		addw	r3, r3, #2952
 211 000c 1B68     		ldr	r3, [r3]
 212              	.LVL11:
 214:Generated_Source\PSoC5/Timeout_Timer_Isr.c **** }
 213              		.loc 1 214 0
 214 000e 034A     		ldr	r2, .L11+4
 215 0010 C3F88820 		str	r2, [r3, #136]
 216 0014 7047     		bx	lr
 217              	.L12:
 218 0016 00BF     		.align	2
 219              	.L11:
 220 0018 80E100E0 		.word	-536813184
 221 001c 00000000 		.word	IntDefaultHandler
 222              	.LBE45:
 223              	.LBE44:
 224              		.cfi_endproc
 225              	.LFE65:
 226              		.size	Timeout_Timer_Isr_Stop, .-Timeout_Timer_Isr_Stop
 227              		.section	.text.Timeout_Timer_Isr_SetVector,"ax",%progbits
 228              		.align	1
 229              		.global	Timeout_Timer_Isr_SetVector
 230              		.thumb
 231              		.thumb_func
 232              		.type	Timeout_Timer_Isr_SetVector, %function
 233              	Timeout_Timer_Isr_SetVector:
 234              	.LFB67:
 209:Generated_Source\PSoC5/Timeout_Timer_Isr.c ****     cyisraddress * ramVectorTable;
 235              		.loc 1 209 0
 236              		.cfi_startproc
 237              		@ args = 0, pretend = 0, frame = 0
 238              		@ frame_needed = 0, uses_anonymous_args = 0
 239              		@ link register save eliminated.
 240              	.LVL12:
 212:Generated_Source\PSoC5/Timeout_Timer_Isr.c **** 
 241              		.loc 1 212 0
 242 0000 024B     		ldr	r3, .L14
 243 0002 1B68     		ldr	r3, [r3]
 244              	.LVL13:
 214:Generated_Source\PSoC5/Timeout_Timer_Isr.c **** }
 245              		.loc 1 214 0
 246 0004 C3F88800 		str	r0, [r3, #136]
 247 0008 7047     		bx	lr
 248              	.L15:
 249 000a 00BF     		.align	2
 250              	.L14:
ARM GAS  C:\Users\yqh\AppData\Local\Temp\ccRUI3yj.s 			page 12


 251 000c 08ED00E0 		.word	-536810232
 252              		.cfi_endproc
 253              	.LFE67:
 254              		.size	Timeout_Timer_Isr_SetVector, .-Timeout_Timer_Isr_SetVector
 255              		.section	.text.Timeout_Timer_Isr_GetVector,"ax",%progbits
 256              		.align	1
 257              		.global	Timeout_Timer_Isr_GetVector
 258              		.thumb
 259              		.thumb_func
 260              		.type	Timeout_Timer_Isr_GetVector, %function
 261              	Timeout_Timer_Isr_GetVector:
 262              	.LFB68:
 233:Generated_Source\PSoC5/Timeout_Timer_Isr.c ****     cyisraddress * ramVectorTable;
 263              		.loc 1 233 0
 264              		.cfi_startproc
 265              		@ args = 0, pretend = 0, frame = 0
 266              		@ frame_needed = 0, uses_anonymous_args = 0
 267              		@ link register save eliminated.
 268              	.LVL14:
 236:Generated_Source\PSoC5/Timeout_Timer_Isr.c **** 
 269              		.loc 1 236 0
 270 0000 024B     		ldr	r3, .L17
 271              	.LVL15:
 238:Generated_Source\PSoC5/Timeout_Timer_Isr.c **** }
 272              		.loc 1 238 0
 273 0002 1B68     		ldr	r3, [r3]
 274              	.LVL16:
 239:Generated_Source\PSoC5/Timeout_Timer_Isr.c **** 
 275              		.loc 1 239 0
 276 0004 D3F88800 		ldr	r0, [r3, #136]
 277 0008 7047     		bx	lr
 278              	.L18:
 279 000a 00BF     		.align	2
 280              	.L17:
 281 000c 08ED00E0 		.word	-536810232
 282              		.cfi_endproc
 283              	.LFE68:
 284              		.size	Timeout_Timer_Isr_GetVector, .-Timeout_Timer_Isr_GetVector
 285              		.section	.text.Timeout_Timer_Isr_SetPriority,"ax",%progbits
 286              		.align	1
 287              		.global	Timeout_Timer_Isr_SetPriority
 288              		.thumb
 289              		.thumb_func
 290              		.type	Timeout_Timer_Isr_SetPriority, %function
 291              	Timeout_Timer_Isr_SetPriority:
 292              	.LFB69:
 267:Generated_Source\PSoC5/Timeout_Timer_Isr.c ****     *Timeout_Timer_Isr_INTC_PRIOR = priority << 5;
 293              		.loc 1 267 0
 294              		.cfi_startproc
 295              		@ args = 0, pretend = 0, frame = 0
 296              		@ frame_needed = 0, uses_anonymous_args = 0
 297              		@ link register save eliminated.
 298              	.LVL17:
 268:Generated_Source\PSoC5/Timeout_Timer_Isr.c **** }
 299              		.loc 1 268 0
 300 0000 4001     		lsls	r0, r0, #5
 301              	.LVL18:
ARM GAS  C:\Users\yqh\AppData\Local\Temp\ccRUI3yj.s 			page 13


 302 0002 024B     		ldr	r3, .L20
 303 0004 C0B2     		uxtb	r0, r0
 304 0006 1870     		strb	r0, [r3]
 305 0008 7047     		bx	lr
 306              	.L21:
 307 000a 00BF     		.align	2
 308              	.L20:
 309 000c 12E400E0 		.word	-536812526
 310              		.cfi_endproc
 311              	.LFE69:
 312              		.size	Timeout_Timer_Isr_SetPriority, .-Timeout_Timer_Isr_SetPriority
 313              		.section	.text.Timeout_Timer_Isr_GetPriority,"ax",%progbits
 314              		.align	1
 315              		.global	Timeout_Timer_Isr_GetPriority
 316              		.thumb
 317              		.thumb_func
 318              		.type	Timeout_Timer_Isr_GetPriority, %function
 319              	Timeout_Timer_Isr_GetPriority:
 320              	.LFB70:
 289:Generated_Source\PSoC5/Timeout_Timer_Isr.c ****     uint8 priority;
 321              		.loc 1 289 0
 322              		.cfi_startproc
 323              		@ args = 0, pretend = 0, frame = 0
 324              		@ frame_needed = 0, uses_anonymous_args = 0
 325              		@ link register save eliminated.
 293:Generated_Source\PSoC5/Timeout_Timer_Isr.c **** 
 326              		.loc 1 293 0
 327 0000 014B     		ldr	r3, .L23
 328 0002 1878     		ldrb	r0, [r3]	@ zero_extendqisi2
 329              	.LVL19:
 296:Generated_Source\PSoC5/Timeout_Timer_Isr.c **** 
 330              		.loc 1 296 0
 331 0004 4009     		lsrs	r0, r0, #5
 332              	.LVL20:
 333 0006 7047     		bx	lr
 334              	.L24:
 335              		.align	2
 336              	.L23:
 337 0008 12E400E0 		.word	-536812526
 338              		.cfi_endproc
 339              	.LFE70:
 340              		.size	Timeout_Timer_Isr_GetPriority, .-Timeout_Timer_Isr_GetPriority
 341              		.section	.text.Timeout_Timer_Isr_Enable,"ax",%progbits
 342              		.align	1
 343              		.global	Timeout_Timer_Isr_Enable
 344              		.thumb
 345              		.thumb_func
 346              		.type	Timeout_Timer_Isr_Enable, %function
 347              	Timeout_Timer_Isr_Enable:
 348              	.LFB71:
 316:Generated_Source\PSoC5/Timeout_Timer_Isr.c ****     /* Enable the general interrupt. */
 349              		.loc 1 316 0
 350              		.cfi_startproc
 351              		@ args = 0, pretend = 0, frame = 0
 352              		@ frame_needed = 0, uses_anonymous_args = 0
 353              		@ link register save eliminated.
 318:Generated_Source\PSoC5/Timeout_Timer_Isr.c **** }
ARM GAS  C:\Users\yqh\AppData\Local\Temp\ccRUI3yj.s 			page 14


 354              		.loc 1 318 0
 355 0000 024B     		ldr	r3, .L26
 356 0002 4FF48022 		mov	r2, #262144
 357 0006 1A60     		str	r2, [r3]
 358 0008 7047     		bx	lr
 359              	.L27:
 360 000a 00BF     		.align	2
 361              	.L26:
 362 000c 00E100E0 		.word	-536813312
 363              		.cfi_endproc
 364              	.LFE71:
 365              		.size	Timeout_Timer_Isr_Enable, .-Timeout_Timer_Isr_Enable
 366              		.section	.text.Timeout_Timer_Isr_GetState,"ax",%progbits
 367              		.align	1
 368              		.global	Timeout_Timer_Isr_GetState
 369              		.thumb
 370              		.thumb_func
 371              		.type	Timeout_Timer_Isr_GetState, %function
 372              	Timeout_Timer_Isr_GetState:
 373              	.LFB72:
 337:Generated_Source\PSoC5/Timeout_Timer_Isr.c ****     /* Get the state of the general interrupt. */
 374              		.loc 1 337 0
 375              		.cfi_startproc
 376              		@ args = 0, pretend = 0, frame = 0
 377              		@ frame_needed = 0, uses_anonymous_args = 0
 378              		@ link register save eliminated.
 339:Generated_Source\PSoC5/Timeout_Timer_Isr.c **** }
 379              		.loc 1 339 0
 380 0000 024B     		ldr	r3, .L29
 381 0002 1868     		ldr	r0, [r3]
 340:Generated_Source\PSoC5/Timeout_Timer_Isr.c **** 
 382              		.loc 1 340 0
 383 0004 C0F38040 		ubfx	r0, r0, #18, #1
 384 0008 7047     		bx	lr
 385              	.L30:
 386 000a 00BF     		.align	2
 387              	.L29:
 388 000c 00E100E0 		.word	-536813312
 389              		.cfi_endproc
 390              	.LFE72:
 391              		.size	Timeout_Timer_Isr_GetState, .-Timeout_Timer_Isr_GetState
 392              		.section	.text.Timeout_Timer_Isr_Disable,"ax",%progbits
 393              		.align	1
 394              		.global	Timeout_Timer_Isr_Disable
 395              		.thumb
 396              		.thumb_func
 397              		.type	Timeout_Timer_Isr_Disable, %function
 398              	Timeout_Timer_Isr_Disable:
 399              	.LFB73:
 358:Generated_Source\PSoC5/Timeout_Timer_Isr.c ****     /* Disable the general interrupt. */
 400              		.loc 1 358 0
 401              		.cfi_startproc
 402              		@ args = 0, pretend = 0, frame = 0
 403              		@ frame_needed = 0, uses_anonymous_args = 0
 404              		@ link register save eliminated.
 405              		.loc 1 360 0
 406 0000 024B     		ldr	r3, .L32
ARM GAS  C:\Users\yqh\AppData\Local\Temp\ccRUI3yj.s 			page 15


 407 0002 4FF48022 		mov	r2, #262144
 408 0006 1A60     		str	r2, [r3]
 409 0008 7047     		bx	lr
 410              	.L33:
 411 000a 00BF     		.align	2
 412              	.L32:
 413 000c 80E100E0 		.word	-536813184
 414              		.cfi_endproc
 415              	.LFE73:
 416              		.size	Timeout_Timer_Isr_Disable, .-Timeout_Timer_Isr_Disable
 417              		.section	.text.Timeout_Timer_Isr_SetPending,"ax",%progbits
 418              		.align	1
 419              		.global	Timeout_Timer_Isr_SetPending
 420              		.thumb
 421              		.thumb_func
 422              		.type	Timeout_Timer_Isr_SetPending, %function
 423              	Timeout_Timer_Isr_SetPending:
 424              	.LFB74:
 361:Generated_Source\PSoC5/Timeout_Timer_Isr.c **** }
 362:Generated_Source\PSoC5/Timeout_Timer_Isr.c **** 
 363:Generated_Source\PSoC5/Timeout_Timer_Isr.c **** 
 364:Generated_Source\PSoC5/Timeout_Timer_Isr.c **** /*******************************************************************************
 365:Generated_Source\PSoC5/Timeout_Timer_Isr.c **** * Function Name: Timeout_Timer_Isr_SetPending
 366:Generated_Source\PSoC5/Timeout_Timer_Isr.c **** ********************************************************************************
 367:Generated_Source\PSoC5/Timeout_Timer_Isr.c **** *
 368:Generated_Source\PSoC5/Timeout_Timer_Isr.c **** * Summary:
 369:Generated_Source\PSoC5/Timeout_Timer_Isr.c **** *   Causes the Interrupt to enter the pending state, a software method of
 370:Generated_Source\PSoC5/Timeout_Timer_Isr.c **** *   generating the interrupt.
 371:Generated_Source\PSoC5/Timeout_Timer_Isr.c **** *
 372:Generated_Source\PSoC5/Timeout_Timer_Isr.c **** * Parameters:
 373:Generated_Source\PSoC5/Timeout_Timer_Isr.c **** *   None
 374:Generated_Source\PSoC5/Timeout_Timer_Isr.c **** *
 375:Generated_Source\PSoC5/Timeout_Timer_Isr.c **** * Return:
 376:Generated_Source\PSoC5/Timeout_Timer_Isr.c **** *   None
 377:Generated_Source\PSoC5/Timeout_Timer_Isr.c **** *
 378:Generated_Source\PSoC5/Timeout_Timer_Isr.c **** * Side Effects:
 379:Generated_Source\PSoC5/Timeout_Timer_Isr.c **** *   If interrupts are enabled and the interrupt is set up properly, the ISR is
 380:Generated_Source\PSoC5/Timeout_Timer_Isr.c **** *   entered (depending on the priority of this interrupt and other pending 
 381:Generated_Source\PSoC5/Timeout_Timer_Isr.c **** *   interrupts).
 382:Generated_Source\PSoC5/Timeout_Timer_Isr.c **** *
 383:Generated_Source\PSoC5/Timeout_Timer_Isr.c **** *******************************************************************************/
 384:Generated_Source\PSoC5/Timeout_Timer_Isr.c **** void Timeout_Timer_Isr_SetPending(void)
 385:Generated_Source\PSoC5/Timeout_Timer_Isr.c **** {
 425              		.loc 1 385 0
 426              		.cfi_startproc
 427              		@ args = 0, pretend = 0, frame = 0
 428              		@ frame_needed = 0, uses_anonymous_args = 0
 429              		@ link register save eliminated.
 386:Generated_Source\PSoC5/Timeout_Timer_Isr.c ****     *Timeout_Timer_Isr_INTC_SET_PD = Timeout_Timer_Isr__INTC_MASK;
 430              		.loc 1 386 0
 431 0000 024B     		ldr	r3, .L35
 432 0002 4FF48022 		mov	r2, #262144
 433 0006 1A60     		str	r2, [r3]
 434 0008 7047     		bx	lr
 435              	.L36:
 436 000a 00BF     		.align	2
 437              	.L35:
ARM GAS  C:\Users\yqh\AppData\Local\Temp\ccRUI3yj.s 			page 16


 438 000c 00E200E0 		.word	-536813056
 439              		.cfi_endproc
 440              	.LFE74:
 441              		.size	Timeout_Timer_Isr_SetPending, .-Timeout_Timer_Isr_SetPending
 442              		.section	.text.Timeout_Timer_Isr_ClearPending,"ax",%progbits
 443              		.align	1
 444              		.global	Timeout_Timer_Isr_ClearPending
 445              		.thumb
 446              		.thumb_func
 447              		.type	Timeout_Timer_Isr_ClearPending, %function
 448              	Timeout_Timer_Isr_ClearPending:
 449              	.LFB75:
 387:Generated_Source\PSoC5/Timeout_Timer_Isr.c **** }
 388:Generated_Source\PSoC5/Timeout_Timer_Isr.c **** 
 389:Generated_Source\PSoC5/Timeout_Timer_Isr.c **** 
 390:Generated_Source\PSoC5/Timeout_Timer_Isr.c **** /*******************************************************************************
 391:Generated_Source\PSoC5/Timeout_Timer_Isr.c **** * Function Name: Timeout_Timer_Isr_ClearPending
 392:Generated_Source\PSoC5/Timeout_Timer_Isr.c **** ********************************************************************************
 393:Generated_Source\PSoC5/Timeout_Timer_Isr.c **** *
 394:Generated_Source\PSoC5/Timeout_Timer_Isr.c **** * Summary:
 395:Generated_Source\PSoC5/Timeout_Timer_Isr.c **** *   Clears a pending interrupt in the interrupt controller.
 396:Generated_Source\PSoC5/Timeout_Timer_Isr.c **** *
 397:Generated_Source\PSoC5/Timeout_Timer_Isr.c **** *   Note Some interrupt sources are clear-on-read and require the block 
 398:Generated_Source\PSoC5/Timeout_Timer_Isr.c **** *   interrupt/status register to be read/cleared with the appropriate block API 
 399:Generated_Source\PSoC5/Timeout_Timer_Isr.c **** *   (GPIO, UART, and so on). Otherwise the ISR will continue to remain in 
 400:Generated_Source\PSoC5/Timeout_Timer_Isr.c **** *   pending state even though the interrupt itself is cleared using this API.
 401:Generated_Source\PSoC5/Timeout_Timer_Isr.c **** *
 402:Generated_Source\PSoC5/Timeout_Timer_Isr.c **** * Parameters:
 403:Generated_Source\PSoC5/Timeout_Timer_Isr.c **** *   None
 404:Generated_Source\PSoC5/Timeout_Timer_Isr.c **** *
 405:Generated_Source\PSoC5/Timeout_Timer_Isr.c **** * Return:
 406:Generated_Source\PSoC5/Timeout_Timer_Isr.c **** *   None
 407:Generated_Source\PSoC5/Timeout_Timer_Isr.c **** *
 408:Generated_Source\PSoC5/Timeout_Timer_Isr.c **** *******************************************************************************/
 409:Generated_Source\PSoC5/Timeout_Timer_Isr.c **** void Timeout_Timer_Isr_ClearPending(void)
 410:Generated_Source\PSoC5/Timeout_Timer_Isr.c **** {
 450              		.loc 1 410 0
 451              		.cfi_startproc
 452              		@ args = 0, pretend = 0, frame = 0
 453              		@ frame_needed = 0, uses_anonymous_args = 0
 454              		@ link register save eliminated.
 411:Generated_Source\PSoC5/Timeout_Timer_Isr.c ****     *Timeout_Timer_Isr_INTC_CLR_PD = Timeout_Timer_Isr__INTC_MASK;
 455              		.loc 1 411 0
 456 0000 024B     		ldr	r3, .L38
 457 0002 4FF48022 		mov	r2, #262144
 458 0006 1A60     		str	r2, [r3]
 459 0008 7047     		bx	lr
 460              	.L39:
 461 000a 00BF     		.align	2
 462              	.L38:
 463 000c 80E200E0 		.word	-536812928
 464              		.cfi_endproc
 465              	.LFE75:
 466              		.size	Timeout_Timer_Isr_ClearPending, .-Timeout_Timer_Isr_ClearPending
 467              		.comm	ledr_on,1,1
 468              		.comm	card_in_buf,4,4
 469              		.comm	card_ack,4,4
ARM GAS  C:\Users\yqh\AppData\Local\Temp\ccRUI3yj.s 			page 17


 470              		.comm	tamper_out_polarity,4,4
 471              		.comm	tamperCR_polarity,4,4
 472              		.comm	tp_old,1,1
 473              		.comm	hw_old,1,1
 474              		.comm	currentAccessType,1,1
 475              		.comm	s,40,4
 476              		.text
 477              	.Letext0:
 478              		.file 2 "c:\\program files (x86)\\cypress\\psoc creator\\4.0\\psoc creator\\import\\gnu\\arm\\4.9.
 479              		.file 3 "c:\\program files (x86)\\cypress\\psoc creator\\4.0\\psoc creator\\import\\gnu\\arm\\4.9.
 480              		.file 4 "Generated_Source\\PSoC5/cytypes.h"
 481              		.file 5 "./softuart.h"
 482              		.file 6 "Generated_Source\\PSoC5/core_cm3.h"
 483              		.file 7 "./system.h"
 484              		.file 8 "Generated_Source\\PSoC5\\Timeout_Timer.h"