ARM GAS  C:\Users\Yiquing\AppData\Local\Temp\ccOGLayf.s 			page 1


   1              		.syntax unified
   2              		.cpu cortex-m3
   3              		.fpu softvfp
   4              		.eabi_attribute 20, 1
   5              		.eabi_attribute 21, 1
   6              		.eabi_attribute 23, 3
   7              		.eabi_attribute 24, 1
   8              		.eabi_attribute 25, 1
   9              		.eabi_attribute 26, 1
  10              		.eabi_attribute 30, 6
  11              		.eabi_attribute 34, 1
  12              		.eabi_attribute 18, 4
  13              		.thumb
  14              		.file	"isr_SW_Rst.c"
  15              		.text
  16              	.Ltext0:
  17              		.cfi_sections	.debug_frame
  18              		.comm	s,40,4
  19              		.comm	currentAccessType,1,1
  20              		.comm	old,1,1
  21              		.comm	TAMPERCR_POLARITY,4,4
  22              		.comm	card_ack,4,4
  23              		.comm	card_in_buf,4,4
  24              		.comm	got_pulse,1,1
  25              		.comm	f2f_pulsewidth,4,4
  26              		.comm	timeout_cnt,4,4
  27              		.comm	activate_f2ftimer,1,1
  28              		.comm	buttonPressed,1,1
  29              		.comm	buttonReleased,1,1
  30              		.comm	buttonDuration,4,4
  31              		.section	.text.isr_SW_Rst_Start,"ax",%progbits
  32              		.align	2
  33              		.global	isr_SW_Rst_Start
  34              		.thumb
  35              		.thumb_func
  36              		.type	isr_SW_Rst_Start, %function
  37              	isr_SW_Rst_Start:
  38              	.LFB0:
  39              		.file 1 ".\\Generated_Source\\PSoC5\\isr_SW_Rst.c"
   1:.\Generated_Source\PSoC5/isr_SW_Rst.c **** /*******************************************************************************
   2:.\Generated_Source\PSoC5/isr_SW_Rst.c **** * File Name: isr_SW_Rst.c  
   3:.\Generated_Source\PSoC5/isr_SW_Rst.c **** * Version 1.70
   4:.\Generated_Source\PSoC5/isr_SW_Rst.c **** *
   5:.\Generated_Source\PSoC5/isr_SW_Rst.c **** *  Description:
   6:.\Generated_Source\PSoC5/isr_SW_Rst.c **** *   API for controlling the state of an interrupt.
   7:.\Generated_Source\PSoC5/isr_SW_Rst.c **** *
   8:.\Generated_Source\PSoC5/isr_SW_Rst.c **** *
   9:.\Generated_Source\PSoC5/isr_SW_Rst.c **** *  Note:
  10:.\Generated_Source\PSoC5/isr_SW_Rst.c **** *
  11:.\Generated_Source\PSoC5/isr_SW_Rst.c **** ********************************************************************************
  12:.\Generated_Source\PSoC5/isr_SW_Rst.c **** * Copyright 2008-2015, Cypress Semiconductor Corporation.  All rights reserved.
  13:.\Generated_Source\PSoC5/isr_SW_Rst.c **** * You may use this file only in accordance with the license, terms, conditions, 
  14:.\Generated_Source\PSoC5/isr_SW_Rst.c **** * disclaimers, and limitations in the end user license agreement accompanying 
  15:.\Generated_Source\PSoC5/isr_SW_Rst.c **** * the software package with which this file was provided.
  16:.\Generated_Source\PSoC5/isr_SW_Rst.c **** *******************************************************************************/
  17:.\Generated_Source\PSoC5/isr_SW_Rst.c **** 
  18:.\Generated_Source\PSoC5/isr_SW_Rst.c **** 
ARM GAS  C:\Users\Yiquing\AppData\Local\Temp\ccOGLayf.s 			page 2


  19:.\Generated_Source\PSoC5/isr_SW_Rst.c **** #include <cydevice_trm.h>
  20:.\Generated_Source\PSoC5/isr_SW_Rst.c **** #include <CyLib.h>
  21:.\Generated_Source\PSoC5/isr_SW_Rst.c **** #include <isr_SW_Rst.h>
  22:.\Generated_Source\PSoC5/isr_SW_Rst.c **** 
  23:.\Generated_Source\PSoC5/isr_SW_Rst.c **** #if !defined(isr_SW_Rst__REMOVED) /* Check for removal by optimization */
  24:.\Generated_Source\PSoC5/isr_SW_Rst.c **** 
  25:.\Generated_Source\PSoC5/isr_SW_Rst.c **** /*******************************************************************************
  26:.\Generated_Source\PSoC5/isr_SW_Rst.c **** *  Place your includes, defines and code here 
  27:.\Generated_Source\PSoC5/isr_SW_Rst.c **** ********************************************************************************/
  28:.\Generated_Source\PSoC5/isr_SW_Rst.c **** /* `#START isr_SW_Rst_intc` */
  29:.\Generated_Source\PSoC5/isr_SW_Rst.c **** #include "FltrReg.h"
  30:.\Generated_Source\PSoC5/isr_SW_Rst.c **** #include "LED_GRN.h"
  31:.\Generated_Source\PSoC5/isr_SW_Rst.c **** #include "system.h"
  32:.\Generated_Source\PSoC5/isr_SW_Rst.c ****     
  33:.\Generated_Source\PSoC5/isr_SW_Rst.c **** char buttonPressed;
  34:.\Generated_Source\PSoC5/isr_SW_Rst.c **** char buttonReleased;
  35:.\Generated_Source\PSoC5/isr_SW_Rst.c **** long buttonDuration;
  36:.\Generated_Source\PSoC5/isr_SW_Rst.c ****     
  37:.\Generated_Source\PSoC5/isr_SW_Rst.c ****     
  38:.\Generated_Source\PSoC5/isr_SW_Rst.c ****     
  39:.\Generated_Source\PSoC5/isr_SW_Rst.c **** /* `#END` */
  40:.\Generated_Source\PSoC5/isr_SW_Rst.c **** 
  41:.\Generated_Source\PSoC5/isr_SW_Rst.c **** #ifndef CYINT_IRQ_BASE
  42:.\Generated_Source\PSoC5/isr_SW_Rst.c **** #define CYINT_IRQ_BASE      16
  43:.\Generated_Source\PSoC5/isr_SW_Rst.c **** #endif /* CYINT_IRQ_BASE */
  44:.\Generated_Source\PSoC5/isr_SW_Rst.c **** #ifndef CYINT_VECT_TABLE
  45:.\Generated_Source\PSoC5/isr_SW_Rst.c **** #define CYINT_VECT_TABLE    ((cyisraddress **) CYREG_NVIC_VECT_OFFSET)
  46:.\Generated_Source\PSoC5/isr_SW_Rst.c **** #endif /* CYINT_VECT_TABLE */
  47:.\Generated_Source\PSoC5/isr_SW_Rst.c **** 
  48:.\Generated_Source\PSoC5/isr_SW_Rst.c **** /* Declared in startup, used to set unused interrupts to. */
  49:.\Generated_Source\PSoC5/isr_SW_Rst.c **** CY_ISR_PROTO(IntDefaultHandler);
  50:.\Generated_Source\PSoC5/isr_SW_Rst.c **** 
  51:.\Generated_Source\PSoC5/isr_SW_Rst.c **** 
  52:.\Generated_Source\PSoC5/isr_SW_Rst.c **** /*******************************************************************************
  53:.\Generated_Source\PSoC5/isr_SW_Rst.c **** * Function Name: isr_SW_Rst_Start
  54:.\Generated_Source\PSoC5/isr_SW_Rst.c **** ********************************************************************************
  55:.\Generated_Source\PSoC5/isr_SW_Rst.c **** *
  56:.\Generated_Source\PSoC5/isr_SW_Rst.c **** * Summary:
  57:.\Generated_Source\PSoC5/isr_SW_Rst.c **** *  Set up the interrupt and enable it. This function disables the interrupt, 
  58:.\Generated_Source\PSoC5/isr_SW_Rst.c **** *  sets the default interrupt vector, sets the priority from the value in the
  59:.\Generated_Source\PSoC5/isr_SW_Rst.c **** *  Design Wide Resources Interrupt Editor, then enables the interrupt to the 
  60:.\Generated_Source\PSoC5/isr_SW_Rst.c **** *  interrupt controller.
  61:.\Generated_Source\PSoC5/isr_SW_Rst.c **** *
  62:.\Generated_Source\PSoC5/isr_SW_Rst.c **** * Parameters:  
  63:.\Generated_Source\PSoC5/isr_SW_Rst.c **** *   None
  64:.\Generated_Source\PSoC5/isr_SW_Rst.c **** *
  65:.\Generated_Source\PSoC5/isr_SW_Rst.c **** * Return:
  66:.\Generated_Source\PSoC5/isr_SW_Rst.c **** *   None
  67:.\Generated_Source\PSoC5/isr_SW_Rst.c **** *
  68:.\Generated_Source\PSoC5/isr_SW_Rst.c **** *******************************************************************************/
  69:.\Generated_Source\PSoC5/isr_SW_Rst.c **** void isr_SW_Rst_Start(void)
  70:.\Generated_Source\PSoC5/isr_SW_Rst.c **** {
  40              		.loc 1 70 0
  41              		.cfi_startproc
  42              		@ args = 0, pretend = 0, frame = 0
  43              		@ frame_needed = 1, uses_anonymous_args = 0
  44 0000 80B5     		push	{r7, lr}
ARM GAS  C:\Users\Yiquing\AppData\Local\Temp\ccOGLayf.s 			page 3


  45              		.cfi_def_cfa_offset 8
  46              		.cfi_offset 7, -8
  47              		.cfi_offset 14, -4
  48 0002 00AF     		add	r7, sp, #0
  49              		.cfi_def_cfa_register 7
  71:.\Generated_Source\PSoC5/isr_SW_Rst.c ****     /* For all we know the interrupt is active. */
  72:.\Generated_Source\PSoC5/isr_SW_Rst.c ****     isr_SW_Rst_Disable();
  50              		.loc 1 72 0
  51 0004 FFF7FEFF 		bl	isr_SW_Rst_Disable
  73:.\Generated_Source\PSoC5/isr_SW_Rst.c **** 
  74:.\Generated_Source\PSoC5/isr_SW_Rst.c ****     /* Set the ISR to point to the isr_SW_Rst Interrupt. */
  75:.\Generated_Source\PSoC5/isr_SW_Rst.c ****     isr_SW_Rst_SetVector(&isr_SW_Rst_Interrupt);
  52              		.loc 1 75 0
  53 0008 0448     		ldr	r0, .L2
  54 000a FFF7FEFF 		bl	isr_SW_Rst_SetVector
  76:.\Generated_Source\PSoC5/isr_SW_Rst.c **** 
  77:.\Generated_Source\PSoC5/isr_SW_Rst.c ****     /* Set the priority. */
  78:.\Generated_Source\PSoC5/isr_SW_Rst.c ****     isr_SW_Rst_SetPriority((uint8)isr_SW_Rst_INTC_PRIOR_NUMBER);
  55              		.loc 1 78 0
  56 000e 0720     		movs	r0, #7
  57 0010 FFF7FEFF 		bl	isr_SW_Rst_SetPriority
  79:.\Generated_Source\PSoC5/isr_SW_Rst.c **** 
  80:.\Generated_Source\PSoC5/isr_SW_Rst.c ****     /* Enable it. */
  81:.\Generated_Source\PSoC5/isr_SW_Rst.c ****     isr_SW_Rst_Enable();
  58              		.loc 1 81 0
  59 0014 FFF7FEFF 		bl	isr_SW_Rst_Enable
  82:.\Generated_Source\PSoC5/isr_SW_Rst.c **** }
  60              		.loc 1 82 0
  61 0018 80BD     		pop	{r7, pc}
  62              	.L3:
  63 001a 00BF     		.align	2
  64              	.L2:
  65 001c 00000000 		.word	isr_SW_Rst_Interrupt
  66              		.cfi_endproc
  67              	.LFE0:
  68              		.size	isr_SW_Rst_Start, .-isr_SW_Rst_Start
  69              		.section	.text.isr_SW_Rst_StartEx,"ax",%progbits
  70              		.align	2
  71              		.global	isr_SW_Rst_StartEx
  72              		.thumb
  73              		.thumb_func
  74              		.type	isr_SW_Rst_StartEx, %function
  75              	isr_SW_Rst_StartEx:
  76              	.LFB1:
  83:.\Generated_Source\PSoC5/isr_SW_Rst.c **** 
  84:.\Generated_Source\PSoC5/isr_SW_Rst.c **** 
  85:.\Generated_Source\PSoC5/isr_SW_Rst.c **** /*******************************************************************************
  86:.\Generated_Source\PSoC5/isr_SW_Rst.c **** * Function Name: isr_SW_Rst_StartEx
  87:.\Generated_Source\PSoC5/isr_SW_Rst.c **** ********************************************************************************
  88:.\Generated_Source\PSoC5/isr_SW_Rst.c **** *
  89:.\Generated_Source\PSoC5/isr_SW_Rst.c **** * Summary:
  90:.\Generated_Source\PSoC5/isr_SW_Rst.c **** *  Sets up the interrupt and enables it. This function disables the interrupt,
  91:.\Generated_Source\PSoC5/isr_SW_Rst.c **** *  sets the interrupt vector based on the address passed in, sets the priority 
  92:.\Generated_Source\PSoC5/isr_SW_Rst.c **** *  from the value in the Design Wide Resources Interrupt Editor, then enables 
  93:.\Generated_Source\PSoC5/isr_SW_Rst.c **** *  the interrupt to the interrupt controller.
  94:.\Generated_Source\PSoC5/isr_SW_Rst.c **** *  
  95:.\Generated_Source\PSoC5/isr_SW_Rst.c **** *  When defining ISR functions, the CY_ISR and CY_ISR_PROTO macros should be 
ARM GAS  C:\Users\Yiquing\AppData\Local\Temp\ccOGLayf.s 			page 4


  96:.\Generated_Source\PSoC5/isr_SW_Rst.c **** *  used to provide consistent definition across compilers:
  97:.\Generated_Source\PSoC5/isr_SW_Rst.c **** *  
  98:.\Generated_Source\PSoC5/isr_SW_Rst.c **** *  Function definition example:
  99:.\Generated_Source\PSoC5/isr_SW_Rst.c **** *   CY_ISR(MyISR)
 100:.\Generated_Source\PSoC5/isr_SW_Rst.c **** *   {
 101:.\Generated_Source\PSoC5/isr_SW_Rst.c **** *   }
 102:.\Generated_Source\PSoC5/isr_SW_Rst.c **** *   Function prototype example:
 103:.\Generated_Source\PSoC5/isr_SW_Rst.c **** *   CY_ISR_PROTO(MyISR);
 104:.\Generated_Source\PSoC5/isr_SW_Rst.c **** *
 105:.\Generated_Source\PSoC5/isr_SW_Rst.c **** * Parameters:  
 106:.\Generated_Source\PSoC5/isr_SW_Rst.c **** *   address: Address of the ISR to set in the interrupt vector table.
 107:.\Generated_Source\PSoC5/isr_SW_Rst.c **** *
 108:.\Generated_Source\PSoC5/isr_SW_Rst.c **** * Return:
 109:.\Generated_Source\PSoC5/isr_SW_Rst.c **** *   None
 110:.\Generated_Source\PSoC5/isr_SW_Rst.c **** *
 111:.\Generated_Source\PSoC5/isr_SW_Rst.c **** *******************************************************************************/
 112:.\Generated_Source\PSoC5/isr_SW_Rst.c **** void isr_SW_Rst_StartEx(cyisraddress address)
 113:.\Generated_Source\PSoC5/isr_SW_Rst.c **** {
  77              		.loc 1 113 0
  78              		.cfi_startproc
  79              		@ args = 0, pretend = 0, frame = 8
  80              		@ frame_needed = 1, uses_anonymous_args = 0
  81 0000 80B5     		push	{r7, lr}
  82              		.cfi_def_cfa_offset 8
  83              		.cfi_offset 7, -8
  84              		.cfi_offset 14, -4
  85 0002 82B0     		sub	sp, sp, #8
  86              		.cfi_def_cfa_offset 16
  87 0004 00AF     		add	r7, sp, #0
  88              		.cfi_def_cfa_register 7
  89 0006 7860     		str	r0, [r7, #4]
 114:.\Generated_Source\PSoC5/isr_SW_Rst.c ****     /* For all we know the interrupt is active. */
 115:.\Generated_Source\PSoC5/isr_SW_Rst.c ****     isr_SW_Rst_Disable();
  90              		.loc 1 115 0
  91 0008 FFF7FEFF 		bl	isr_SW_Rst_Disable
 116:.\Generated_Source\PSoC5/isr_SW_Rst.c **** 
 117:.\Generated_Source\PSoC5/isr_SW_Rst.c ****     /* Set the ISR to point to the isr_SW_Rst Interrupt. */
 118:.\Generated_Source\PSoC5/isr_SW_Rst.c ****     isr_SW_Rst_SetVector(address);
  92              		.loc 1 118 0
  93 000c 7868     		ldr	r0, [r7, #4]
  94 000e FFF7FEFF 		bl	isr_SW_Rst_SetVector
 119:.\Generated_Source\PSoC5/isr_SW_Rst.c **** 
 120:.\Generated_Source\PSoC5/isr_SW_Rst.c ****     /* Set the priority. */
 121:.\Generated_Source\PSoC5/isr_SW_Rst.c ****     isr_SW_Rst_SetPriority((uint8)isr_SW_Rst_INTC_PRIOR_NUMBER);
  95              		.loc 1 121 0
  96 0012 0720     		movs	r0, #7
  97 0014 FFF7FEFF 		bl	isr_SW_Rst_SetPriority
 122:.\Generated_Source\PSoC5/isr_SW_Rst.c **** 
 123:.\Generated_Source\PSoC5/isr_SW_Rst.c ****     /* Enable it. */
 124:.\Generated_Source\PSoC5/isr_SW_Rst.c ****     isr_SW_Rst_Enable();
  98              		.loc 1 124 0
  99 0018 FFF7FEFF 		bl	isr_SW_Rst_Enable
 125:.\Generated_Source\PSoC5/isr_SW_Rst.c **** }
 100              		.loc 1 125 0
 101 001c 0837     		adds	r7, r7, #8
 102 001e BD46     		mov	sp, r7
 103              		@ sp needed
ARM GAS  C:\Users\Yiquing\AppData\Local\Temp\ccOGLayf.s 			page 5


 104 0020 80BD     		pop	{r7, pc}
 105              		.cfi_endproc
 106              	.LFE1:
 107              		.size	isr_SW_Rst_StartEx, .-isr_SW_Rst_StartEx
 108 0022 00BF     		.section	.text.isr_SW_Rst_Stop,"ax",%progbits
 109              		.align	2
 110              		.global	isr_SW_Rst_Stop
 111              		.thumb
 112              		.thumb_func
 113              		.type	isr_SW_Rst_Stop, %function
 114              	isr_SW_Rst_Stop:
 115              	.LFB2:
 126:.\Generated_Source\PSoC5/isr_SW_Rst.c **** 
 127:.\Generated_Source\PSoC5/isr_SW_Rst.c **** 
 128:.\Generated_Source\PSoC5/isr_SW_Rst.c **** /*******************************************************************************
 129:.\Generated_Source\PSoC5/isr_SW_Rst.c **** * Function Name: isr_SW_Rst_Stop
 130:.\Generated_Source\PSoC5/isr_SW_Rst.c **** ********************************************************************************
 131:.\Generated_Source\PSoC5/isr_SW_Rst.c **** *
 132:.\Generated_Source\PSoC5/isr_SW_Rst.c **** * Summary:
 133:.\Generated_Source\PSoC5/isr_SW_Rst.c **** *   Disables and removes the interrupt.
 134:.\Generated_Source\PSoC5/isr_SW_Rst.c **** *
 135:.\Generated_Source\PSoC5/isr_SW_Rst.c **** * Parameters:  
 136:.\Generated_Source\PSoC5/isr_SW_Rst.c **** *   None
 137:.\Generated_Source\PSoC5/isr_SW_Rst.c **** *
 138:.\Generated_Source\PSoC5/isr_SW_Rst.c **** * Return:
 139:.\Generated_Source\PSoC5/isr_SW_Rst.c **** *   None
 140:.\Generated_Source\PSoC5/isr_SW_Rst.c **** *
 141:.\Generated_Source\PSoC5/isr_SW_Rst.c **** *******************************************************************************/
 142:.\Generated_Source\PSoC5/isr_SW_Rst.c **** void isr_SW_Rst_Stop(void)
 143:.\Generated_Source\PSoC5/isr_SW_Rst.c **** {
 116              		.loc 1 143 0
 117              		.cfi_startproc
 118              		@ args = 0, pretend = 0, frame = 0
 119              		@ frame_needed = 1, uses_anonymous_args = 0
 120 0000 80B5     		push	{r7, lr}
 121              		.cfi_def_cfa_offset 8
 122              		.cfi_offset 7, -8
 123              		.cfi_offset 14, -4
 124 0002 00AF     		add	r7, sp, #0
 125              		.cfi_def_cfa_register 7
 144:.\Generated_Source\PSoC5/isr_SW_Rst.c ****     /* Disable this interrupt. */
 145:.\Generated_Source\PSoC5/isr_SW_Rst.c ****     isr_SW_Rst_Disable();
 126              		.loc 1 145 0
 127 0004 FFF7FEFF 		bl	isr_SW_Rst_Disable
 146:.\Generated_Source\PSoC5/isr_SW_Rst.c **** 
 147:.\Generated_Source\PSoC5/isr_SW_Rst.c ****     /* Set the ISR to point to the passive one. */
 148:.\Generated_Source\PSoC5/isr_SW_Rst.c ****     isr_SW_Rst_SetVector(&IntDefaultHandler);
 128              		.loc 1 148 0
 129 0008 0148     		ldr	r0, .L6
 130 000a FFF7FEFF 		bl	isr_SW_Rst_SetVector
 149:.\Generated_Source\PSoC5/isr_SW_Rst.c **** }
 131              		.loc 1 149 0
 132 000e 80BD     		pop	{r7, pc}
 133              	.L7:
 134              		.align	2
 135              	.L6:
 136 0010 00000000 		.word	IntDefaultHandler
ARM GAS  C:\Users\Yiquing\AppData\Local\Temp\ccOGLayf.s 			page 6


 137              		.cfi_endproc
 138              	.LFE2:
 139              		.size	isr_SW_Rst_Stop, .-isr_SW_Rst_Stop
 140              		.section	.text.isr_SW_Rst_Interrupt,"ax",%progbits
 141              		.align	2
 142              		.global	isr_SW_Rst_Interrupt
 143              		.thumb
 144              		.thumb_func
 145              		.type	isr_SW_Rst_Interrupt, %function
 146              	isr_SW_Rst_Interrupt:
 147              	.LFB3:
 150:.\Generated_Source\PSoC5/isr_SW_Rst.c **** 
 151:.\Generated_Source\PSoC5/isr_SW_Rst.c **** 
 152:.\Generated_Source\PSoC5/isr_SW_Rst.c **** /*******************************************************************************
 153:.\Generated_Source\PSoC5/isr_SW_Rst.c **** * Function Name: isr_SW_Rst_Interrupt
 154:.\Generated_Source\PSoC5/isr_SW_Rst.c **** ********************************************************************************
 155:.\Generated_Source\PSoC5/isr_SW_Rst.c **** *
 156:.\Generated_Source\PSoC5/isr_SW_Rst.c **** * Summary:
 157:.\Generated_Source\PSoC5/isr_SW_Rst.c **** *   The default Interrupt Service Routine for isr_SW_Rst.
 158:.\Generated_Source\PSoC5/isr_SW_Rst.c **** *
 159:.\Generated_Source\PSoC5/isr_SW_Rst.c **** *   Add custom code between the coments to keep the next version of this file
 160:.\Generated_Source\PSoC5/isr_SW_Rst.c **** *   from over writting your code.
 161:.\Generated_Source\PSoC5/isr_SW_Rst.c **** *
 162:.\Generated_Source\PSoC5/isr_SW_Rst.c **** * Parameters:  
 163:.\Generated_Source\PSoC5/isr_SW_Rst.c **** *
 164:.\Generated_Source\PSoC5/isr_SW_Rst.c **** * Return:
 165:.\Generated_Source\PSoC5/isr_SW_Rst.c **** *   None
 166:.\Generated_Source\PSoC5/isr_SW_Rst.c **** *
 167:.\Generated_Source\PSoC5/isr_SW_Rst.c **** *******************************************************************************/
 168:.\Generated_Source\PSoC5/isr_SW_Rst.c **** CY_ISR(isr_SW_Rst_Interrupt)
 169:.\Generated_Source\PSoC5/isr_SW_Rst.c **** {
 148              		.loc 1 169 0
 149              		.cfi_startproc
 150              		@ args = 0, pretend = 0, frame = 8
 151              		@ frame_needed = 1, uses_anonymous_args = 0
 152 0000 80B5     		push	{r7, lr}
 153              		.cfi_def_cfa_offset 8
 154              		.cfi_offset 7, -8
 155              		.cfi_offset 14, -4
 156 0002 82B0     		sub	sp, sp, #8
 157              		.cfi_def_cfa_offset 16
 158 0004 00AF     		add	r7, sp, #0
 159              		.cfi_def_cfa_register 7
 170:.\Generated_Source\PSoC5/isr_SW_Rst.c ****     /*  Place your Interrupt code here. */
 171:.\Generated_Source\PSoC5/isr_SW_Rst.c ****     /* `#START isr_SW_Rst_Interrupt` */
 172:.\Generated_Source\PSoC5/isr_SW_Rst.c ****     uint8 status_reg;
 173:.\Generated_Source\PSoC5/isr_SW_Rst.c ****     
 174:.\Generated_Source\PSoC5/isr_SW_Rst.c ****     status_reg = FltrReg_Read();
 160              		.loc 1 174 0
 161 0006 FFF7FEFF 		bl	FltrReg_Read
 162 000a 0346     		mov	r3, r0
 163 000c FB71     		strb	r3, [r7, #7]
 175:.\Generated_Source\PSoC5/isr_SW_Rst.c ****     if (status_reg & 0x1){
 164              		.loc 1 175 0
 165 000e FB79     		ldrb	r3, [r7, #7]	@ zero_extendqisi2
 166 0010 03F00103 		and	r3, r3, #1
 167 0014 002B     		cmp	r3, #0
ARM GAS  C:\Users\Yiquing\AppData\Local\Temp\ccOGLayf.s 			page 7


 168 0016 0CD0     		beq	.L9
 176:.\Generated_Source\PSoC5/isr_SW_Rst.c ****         LED_GRN_Write(0); //on
 169              		.loc 1 176 0
 170 0018 0020     		movs	r0, #0
 171 001a FFF7FEFF 		bl	LED_GRN_Write
 177:.\Generated_Source\PSoC5/isr_SW_Rst.c ****         buttonPressed = 1;
 172              		.loc 1 177 0
 173 001e 0B4B     		ldr	r3, .L11
 174 0020 0122     		movs	r2, #1
 175 0022 1A70     		strb	r2, [r3]
 178:.\Generated_Source\PSoC5/isr_SW_Rst.c ****         buttonReleased = 0;
 176              		.loc 1 178 0
 177 0024 0A4B     		ldr	r3, .L11+4
 178 0026 0022     		movs	r2, #0
 179 0028 1A70     		strb	r2, [r3]
 179:.\Generated_Source\PSoC5/isr_SW_Rst.c ****         buttonDuration = 0;
 180              		.loc 1 179 0
 181 002a 0A4B     		ldr	r3, .L11+8
 182 002c 0022     		movs	r2, #0
 183 002e 1A60     		str	r2, [r3]
 184 0030 08E0     		b	.L8
 185              	.L9:
 180:.\Generated_Source\PSoC5/isr_SW_Rst.c ****     }else{
 181:.\Generated_Source\PSoC5/isr_SW_Rst.c ****         LED_GRN_Write(1); //off
 186              		.loc 1 181 0
 187 0032 0120     		movs	r0, #1
 188 0034 FFF7FEFF 		bl	LED_GRN_Write
 182:.\Generated_Source\PSoC5/isr_SW_Rst.c ****         buttonPressed = 0;
 189              		.loc 1 182 0
 190 0038 044B     		ldr	r3, .L11
 191 003a 0022     		movs	r2, #0
 192 003c 1A70     		strb	r2, [r3]
 183:.\Generated_Source\PSoC5/isr_SW_Rst.c ****         buttonReleased = 1;
 193              		.loc 1 183 0
 194 003e 044B     		ldr	r3, .L11+4
 195 0040 0122     		movs	r2, #1
 196 0042 1A70     		strb	r2, [r3]
 197              	.L8:
 184:.\Generated_Source\PSoC5/isr_SW_Rst.c ****     }
 185:.\Generated_Source\PSoC5/isr_SW_Rst.c ****     /* `#END` */
 186:.\Generated_Source\PSoC5/isr_SW_Rst.c **** }
 198              		.loc 1 186 0
 199 0044 0837     		adds	r7, r7, #8
 200 0046 BD46     		mov	sp, r7
 201              		@ sp needed
 202 0048 80BD     		pop	{r7, pc}
 203              	.L12:
 204 004a 00BF     		.align	2
 205              	.L11:
 206 004c 00000000 		.word	buttonPressed
 207 0050 00000000 		.word	buttonReleased
 208 0054 00000000 		.word	buttonDuration
 209              		.cfi_endproc
 210              	.LFE3:
 211              		.size	isr_SW_Rst_Interrupt, .-isr_SW_Rst_Interrupt
 212              		.section	.text.isr_SW_Rst_SetVector,"ax",%progbits
 213              		.align	2
ARM GAS  C:\Users\Yiquing\AppData\Local\Temp\ccOGLayf.s 			page 8


 214              		.global	isr_SW_Rst_SetVector
 215              		.thumb
 216              		.thumb_func
 217              		.type	isr_SW_Rst_SetVector, %function
 218              	isr_SW_Rst_SetVector:
 219              	.LFB4:
 187:.\Generated_Source\PSoC5/isr_SW_Rst.c **** 
 188:.\Generated_Source\PSoC5/isr_SW_Rst.c **** 
 189:.\Generated_Source\PSoC5/isr_SW_Rst.c **** /*******************************************************************************
 190:.\Generated_Source\PSoC5/isr_SW_Rst.c **** * Function Name: isr_SW_Rst_SetVector
 191:.\Generated_Source\PSoC5/isr_SW_Rst.c **** ********************************************************************************
 192:.\Generated_Source\PSoC5/isr_SW_Rst.c **** *
 193:.\Generated_Source\PSoC5/isr_SW_Rst.c **** * Summary:
 194:.\Generated_Source\PSoC5/isr_SW_Rst.c **** *   Change the ISR vector for the Interrupt. Note calling isr_SW_Rst_Start
 195:.\Generated_Source\PSoC5/isr_SW_Rst.c **** *   will override any effect this method would have had. To set the vector 
 196:.\Generated_Source\PSoC5/isr_SW_Rst.c **** *   before the component has been started use isr_SW_Rst_StartEx instead.
 197:.\Generated_Source\PSoC5/isr_SW_Rst.c **** * 
 198:.\Generated_Source\PSoC5/isr_SW_Rst.c **** *   When defining ISR functions, the CY_ISR and CY_ISR_PROTO macros should be 
 199:.\Generated_Source\PSoC5/isr_SW_Rst.c **** *   used to provide consistent definition across compilers:
 200:.\Generated_Source\PSoC5/isr_SW_Rst.c **** *
 201:.\Generated_Source\PSoC5/isr_SW_Rst.c **** *   Function definition example:
 202:.\Generated_Source\PSoC5/isr_SW_Rst.c **** *   CY_ISR(MyISR)
 203:.\Generated_Source\PSoC5/isr_SW_Rst.c **** *   {
 204:.\Generated_Source\PSoC5/isr_SW_Rst.c **** *   }
 205:.\Generated_Source\PSoC5/isr_SW_Rst.c **** *
 206:.\Generated_Source\PSoC5/isr_SW_Rst.c **** *   Function prototype example:
 207:.\Generated_Source\PSoC5/isr_SW_Rst.c **** *     CY_ISR_PROTO(MyISR);
 208:.\Generated_Source\PSoC5/isr_SW_Rst.c **** *
 209:.\Generated_Source\PSoC5/isr_SW_Rst.c **** * Parameters:
 210:.\Generated_Source\PSoC5/isr_SW_Rst.c **** *   address: Address of the ISR to set in the interrupt vector table.
 211:.\Generated_Source\PSoC5/isr_SW_Rst.c **** *
 212:.\Generated_Source\PSoC5/isr_SW_Rst.c **** * Return:
 213:.\Generated_Source\PSoC5/isr_SW_Rst.c **** *   None
 214:.\Generated_Source\PSoC5/isr_SW_Rst.c **** *
 215:.\Generated_Source\PSoC5/isr_SW_Rst.c **** *******************************************************************************/
 216:.\Generated_Source\PSoC5/isr_SW_Rst.c **** void isr_SW_Rst_SetVector(cyisraddress address)
 217:.\Generated_Source\PSoC5/isr_SW_Rst.c **** {
 220              		.loc 1 217 0
 221              		.cfi_startproc
 222              		@ args = 0, pretend = 0, frame = 16
 223              		@ frame_needed = 1, uses_anonymous_args = 0
 224              		@ link register save eliminated.
 225 0000 80B4     		push	{r7}
 226              		.cfi_def_cfa_offset 4
 227              		.cfi_offset 7, -4
 228 0002 85B0     		sub	sp, sp, #20
 229              		.cfi_def_cfa_offset 24
 230 0004 00AF     		add	r7, sp, #0
 231              		.cfi_def_cfa_register 7
 232 0006 7860     		str	r0, [r7, #4]
 218:.\Generated_Source\PSoC5/isr_SW_Rst.c ****     cyisraddress * ramVectorTable;
 219:.\Generated_Source\PSoC5/isr_SW_Rst.c **** 
 220:.\Generated_Source\PSoC5/isr_SW_Rst.c ****     ramVectorTable = (cyisraddress *) *CYINT_VECT_TABLE;
 233              		.loc 1 220 0
 234 0008 054B     		ldr	r3, .L14
 235 000a 1B68     		ldr	r3, [r3]
 236 000c FB60     		str	r3, [r7, #12]
ARM GAS  C:\Users\Yiquing\AppData\Local\Temp\ccOGLayf.s 			page 9


 221:.\Generated_Source\PSoC5/isr_SW_Rst.c **** 
 222:.\Generated_Source\PSoC5/isr_SW_Rst.c ****     ramVectorTable[CYINT_IRQ_BASE + (uint32)isr_SW_Rst__INTC_NUMBER] = address;
 237              		.loc 1 222 0
 238 000e FB68     		ldr	r3, [r7, #12]
 239 0010 4C33     		adds	r3, r3, #76
 240 0012 7A68     		ldr	r2, [r7, #4]
 241 0014 1A60     		str	r2, [r3]
 223:.\Generated_Source\PSoC5/isr_SW_Rst.c **** }
 242              		.loc 1 223 0
 243 0016 1437     		adds	r7, r7, #20
 244 0018 BD46     		mov	sp, r7
 245              		@ sp needed
 246 001a 5DF8047B 		ldr	r7, [sp], #4
 247 001e 7047     		bx	lr
 248              	.L15:
 249              		.align	2
 250              	.L14:
 251 0020 08ED00E0 		.word	-536810232
 252              		.cfi_endproc
 253              	.LFE4:
 254              		.size	isr_SW_Rst_SetVector, .-isr_SW_Rst_SetVector
 255              		.section	.text.isr_SW_Rst_GetVector,"ax",%progbits
 256              		.align	2
 257              		.global	isr_SW_Rst_GetVector
 258              		.thumb
 259              		.thumb_func
 260              		.type	isr_SW_Rst_GetVector, %function
 261              	isr_SW_Rst_GetVector:
 262              	.LFB5:
 224:.\Generated_Source\PSoC5/isr_SW_Rst.c **** 
 225:.\Generated_Source\PSoC5/isr_SW_Rst.c **** 
 226:.\Generated_Source\PSoC5/isr_SW_Rst.c **** /*******************************************************************************
 227:.\Generated_Source\PSoC5/isr_SW_Rst.c **** * Function Name: isr_SW_Rst_GetVector
 228:.\Generated_Source\PSoC5/isr_SW_Rst.c **** ********************************************************************************
 229:.\Generated_Source\PSoC5/isr_SW_Rst.c **** *
 230:.\Generated_Source\PSoC5/isr_SW_Rst.c **** * Summary:
 231:.\Generated_Source\PSoC5/isr_SW_Rst.c **** *   Gets the "address" of the current ISR vector for the Interrupt.
 232:.\Generated_Source\PSoC5/isr_SW_Rst.c **** *
 233:.\Generated_Source\PSoC5/isr_SW_Rst.c **** * Parameters:
 234:.\Generated_Source\PSoC5/isr_SW_Rst.c **** *   None
 235:.\Generated_Source\PSoC5/isr_SW_Rst.c **** *
 236:.\Generated_Source\PSoC5/isr_SW_Rst.c **** * Return:
 237:.\Generated_Source\PSoC5/isr_SW_Rst.c **** *   Address of the ISR in the interrupt vector table.
 238:.\Generated_Source\PSoC5/isr_SW_Rst.c **** *
 239:.\Generated_Source\PSoC5/isr_SW_Rst.c **** *******************************************************************************/
 240:.\Generated_Source\PSoC5/isr_SW_Rst.c **** cyisraddress isr_SW_Rst_GetVector(void)
 241:.\Generated_Source\PSoC5/isr_SW_Rst.c **** {
 263              		.loc 1 241 0
 264              		.cfi_startproc
 265              		@ args = 0, pretend = 0, frame = 8
 266              		@ frame_needed = 1, uses_anonymous_args = 0
 267              		@ link register save eliminated.
 268 0000 80B4     		push	{r7}
 269              		.cfi_def_cfa_offset 4
 270              		.cfi_offset 7, -4
 271 0002 83B0     		sub	sp, sp, #12
 272              		.cfi_def_cfa_offset 16
ARM GAS  C:\Users\Yiquing\AppData\Local\Temp\ccOGLayf.s 			page 10


 273 0004 00AF     		add	r7, sp, #0
 274              		.cfi_def_cfa_register 7
 242:.\Generated_Source\PSoC5/isr_SW_Rst.c ****     cyisraddress * ramVectorTable;
 243:.\Generated_Source\PSoC5/isr_SW_Rst.c **** 
 244:.\Generated_Source\PSoC5/isr_SW_Rst.c ****     ramVectorTable = (cyisraddress *) *CYINT_VECT_TABLE;
 275              		.loc 1 244 0
 276 0006 054B     		ldr	r3, .L18
 277 0008 1B68     		ldr	r3, [r3]
 278 000a 7B60     		str	r3, [r7, #4]
 245:.\Generated_Source\PSoC5/isr_SW_Rst.c **** 
 246:.\Generated_Source\PSoC5/isr_SW_Rst.c ****     return ramVectorTable[CYINT_IRQ_BASE + (uint32)isr_SW_Rst__INTC_NUMBER];
 279              		.loc 1 246 0
 280 000c 7B68     		ldr	r3, [r7, #4]
 281 000e DB6C     		ldr	r3, [r3, #76]
 247:.\Generated_Source\PSoC5/isr_SW_Rst.c **** }
 282              		.loc 1 247 0
 283 0010 1846     		mov	r0, r3
 284 0012 0C37     		adds	r7, r7, #12
 285 0014 BD46     		mov	sp, r7
 286              		@ sp needed
 287 0016 5DF8047B 		ldr	r7, [sp], #4
 288 001a 7047     		bx	lr
 289              	.L19:
 290              		.align	2
 291              	.L18:
 292 001c 08ED00E0 		.word	-536810232
 293              		.cfi_endproc
 294              	.LFE5:
 295              		.size	isr_SW_Rst_GetVector, .-isr_SW_Rst_GetVector
 296              		.section	.text.isr_SW_Rst_SetPriority,"ax",%progbits
 297              		.align	2
 298              		.global	isr_SW_Rst_SetPriority
 299              		.thumb
 300              		.thumb_func
 301              		.type	isr_SW_Rst_SetPriority, %function
 302              	isr_SW_Rst_SetPriority:
 303              	.LFB6:
 248:.\Generated_Source\PSoC5/isr_SW_Rst.c **** 
 249:.\Generated_Source\PSoC5/isr_SW_Rst.c **** 
 250:.\Generated_Source\PSoC5/isr_SW_Rst.c **** /*******************************************************************************
 251:.\Generated_Source\PSoC5/isr_SW_Rst.c **** * Function Name: isr_SW_Rst_SetPriority
 252:.\Generated_Source\PSoC5/isr_SW_Rst.c **** ********************************************************************************
 253:.\Generated_Source\PSoC5/isr_SW_Rst.c **** *
 254:.\Generated_Source\PSoC5/isr_SW_Rst.c **** * Summary:
 255:.\Generated_Source\PSoC5/isr_SW_Rst.c **** *   Sets the Priority of the Interrupt. 
 256:.\Generated_Source\PSoC5/isr_SW_Rst.c **** *
 257:.\Generated_Source\PSoC5/isr_SW_Rst.c **** *   Note calling isr_SW_Rst_Start or isr_SW_Rst_StartEx will 
 258:.\Generated_Source\PSoC5/isr_SW_Rst.c **** *   override any effect this API would have had. This API should only be called
 259:.\Generated_Source\PSoC5/isr_SW_Rst.c **** *   after isr_SW_Rst_Start or isr_SW_Rst_StartEx has been called. 
 260:.\Generated_Source\PSoC5/isr_SW_Rst.c **** *   To set the initial priority for the component, use the Design-Wide Resources
 261:.\Generated_Source\PSoC5/isr_SW_Rst.c **** *   Interrupt Editor.
 262:.\Generated_Source\PSoC5/isr_SW_Rst.c **** *
 263:.\Generated_Source\PSoC5/isr_SW_Rst.c **** *   Note This API has no effect on Non-maskable interrupt NMI).
 264:.\Generated_Source\PSoC5/isr_SW_Rst.c **** *
 265:.\Generated_Source\PSoC5/isr_SW_Rst.c **** * Parameters:
 266:.\Generated_Source\PSoC5/isr_SW_Rst.c **** *   priority: Priority of the interrupt, 0 being the highest priority
 267:.\Generated_Source\PSoC5/isr_SW_Rst.c **** *             PSoC 3 and PSoC 5LP: Priority is from 0 to 7.
ARM GAS  C:\Users\Yiquing\AppData\Local\Temp\ccOGLayf.s 			page 11


 268:.\Generated_Source\PSoC5/isr_SW_Rst.c **** *             PSoC 4: Priority is from 0 to 3.
 269:.\Generated_Source\PSoC5/isr_SW_Rst.c **** *
 270:.\Generated_Source\PSoC5/isr_SW_Rst.c **** * Return:
 271:.\Generated_Source\PSoC5/isr_SW_Rst.c **** *   None
 272:.\Generated_Source\PSoC5/isr_SW_Rst.c **** *
 273:.\Generated_Source\PSoC5/isr_SW_Rst.c **** *******************************************************************************/
 274:.\Generated_Source\PSoC5/isr_SW_Rst.c **** void isr_SW_Rst_SetPriority(uint8 priority)
 275:.\Generated_Source\PSoC5/isr_SW_Rst.c **** {
 304              		.loc 1 275 0
 305              		.cfi_startproc
 306              		@ args = 0, pretend = 0, frame = 8
 307              		@ frame_needed = 1, uses_anonymous_args = 0
 308              		@ link register save eliminated.
 309 0000 80B4     		push	{r7}
 310              		.cfi_def_cfa_offset 4
 311              		.cfi_offset 7, -4
 312 0002 83B0     		sub	sp, sp, #12
 313              		.cfi_def_cfa_offset 16
 314 0004 00AF     		add	r7, sp, #0
 315              		.cfi_def_cfa_register 7
 316 0006 0346     		mov	r3, r0
 317 0008 FB71     		strb	r3, [r7, #7]
 276:.\Generated_Source\PSoC5/isr_SW_Rst.c ****     *isr_SW_Rst_INTC_PRIOR = priority << 5;
 318              		.loc 1 276 0
 319 000a 054B     		ldr	r3, .L21
 320 000c FA79     		ldrb	r2, [r7, #7]
 321 000e 5201     		lsls	r2, r2, #5
 322 0010 D2B2     		uxtb	r2, r2
 323 0012 1A70     		strb	r2, [r3]
 277:.\Generated_Source\PSoC5/isr_SW_Rst.c **** }
 324              		.loc 1 277 0
 325 0014 0C37     		adds	r7, r7, #12
 326 0016 BD46     		mov	sp, r7
 327              		@ sp needed
 328 0018 5DF8047B 		ldr	r7, [sp], #4
 329 001c 7047     		bx	lr
 330              	.L22:
 331 001e 00BF     		.align	2
 332              	.L21:
 333 0020 03E400E0 		.word	-536812541
 334              		.cfi_endproc
 335              	.LFE6:
 336              		.size	isr_SW_Rst_SetPriority, .-isr_SW_Rst_SetPriority
 337              		.section	.text.isr_SW_Rst_GetPriority,"ax",%progbits
 338              		.align	2
 339              		.global	isr_SW_Rst_GetPriority
 340              		.thumb
 341              		.thumb_func
 342              		.type	isr_SW_Rst_GetPriority, %function
 343              	isr_SW_Rst_GetPriority:
 344              	.LFB7:
 278:.\Generated_Source\PSoC5/isr_SW_Rst.c **** 
 279:.\Generated_Source\PSoC5/isr_SW_Rst.c **** 
 280:.\Generated_Source\PSoC5/isr_SW_Rst.c **** /*******************************************************************************
 281:.\Generated_Source\PSoC5/isr_SW_Rst.c **** * Function Name: isr_SW_Rst_GetPriority
 282:.\Generated_Source\PSoC5/isr_SW_Rst.c **** ********************************************************************************
 283:.\Generated_Source\PSoC5/isr_SW_Rst.c **** *
ARM GAS  C:\Users\Yiquing\AppData\Local\Temp\ccOGLayf.s 			page 12


 284:.\Generated_Source\PSoC5/isr_SW_Rst.c **** * Summary:
 285:.\Generated_Source\PSoC5/isr_SW_Rst.c **** *   Gets the Priority of the Interrupt.
 286:.\Generated_Source\PSoC5/isr_SW_Rst.c **** *
 287:.\Generated_Source\PSoC5/isr_SW_Rst.c **** * Parameters:
 288:.\Generated_Source\PSoC5/isr_SW_Rst.c **** *   None
 289:.\Generated_Source\PSoC5/isr_SW_Rst.c **** *
 290:.\Generated_Source\PSoC5/isr_SW_Rst.c **** * Return:
 291:.\Generated_Source\PSoC5/isr_SW_Rst.c **** *   Priority of the interrupt, 0 being the highest priority
 292:.\Generated_Source\PSoC5/isr_SW_Rst.c **** *    PSoC 3 and PSoC 5LP: Priority is from 0 to 7.
 293:.\Generated_Source\PSoC5/isr_SW_Rst.c **** *    PSoC 4: Priority is from 0 to 3.
 294:.\Generated_Source\PSoC5/isr_SW_Rst.c **** *
 295:.\Generated_Source\PSoC5/isr_SW_Rst.c **** *******************************************************************************/
 296:.\Generated_Source\PSoC5/isr_SW_Rst.c **** uint8 isr_SW_Rst_GetPriority(void)
 297:.\Generated_Source\PSoC5/isr_SW_Rst.c **** {
 345              		.loc 1 297 0
 346              		.cfi_startproc
 347              		@ args = 0, pretend = 0, frame = 8
 348              		@ frame_needed = 1, uses_anonymous_args = 0
 349              		@ link register save eliminated.
 350 0000 80B4     		push	{r7}
 351              		.cfi_def_cfa_offset 4
 352              		.cfi_offset 7, -4
 353 0002 83B0     		sub	sp, sp, #12
 354              		.cfi_def_cfa_offset 16
 355 0004 00AF     		add	r7, sp, #0
 356              		.cfi_def_cfa_register 7
 298:.\Generated_Source\PSoC5/isr_SW_Rst.c ****     uint8 priority;
 299:.\Generated_Source\PSoC5/isr_SW_Rst.c **** 
 300:.\Generated_Source\PSoC5/isr_SW_Rst.c **** 
 301:.\Generated_Source\PSoC5/isr_SW_Rst.c ****     priority = *isr_SW_Rst_INTC_PRIOR >> 5;
 357              		.loc 1 301 0
 358 0006 064B     		ldr	r3, .L25
 359 0008 1B78     		ldrb	r3, [r3]
 360 000a DBB2     		uxtb	r3, r3
 361 000c 5B09     		lsrs	r3, r3, #5
 362 000e FB71     		strb	r3, [r7, #7]
 302:.\Generated_Source\PSoC5/isr_SW_Rst.c **** 
 303:.\Generated_Source\PSoC5/isr_SW_Rst.c ****     return priority;
 363              		.loc 1 303 0
 364 0010 FB79     		ldrb	r3, [r7, #7]	@ zero_extendqisi2
 304:.\Generated_Source\PSoC5/isr_SW_Rst.c **** }
 365              		.loc 1 304 0
 366 0012 1846     		mov	r0, r3
 367 0014 0C37     		adds	r7, r7, #12
 368 0016 BD46     		mov	sp, r7
 369              		@ sp needed
 370 0018 5DF8047B 		ldr	r7, [sp], #4
 371 001c 7047     		bx	lr
 372              	.L26:
 373 001e 00BF     		.align	2
 374              	.L25:
 375 0020 03E400E0 		.word	-536812541
 376              		.cfi_endproc
 377              	.LFE7:
 378              		.size	isr_SW_Rst_GetPriority, .-isr_SW_Rst_GetPriority
 379              		.section	.text.isr_SW_Rst_Enable,"ax",%progbits
 380              		.align	2
ARM GAS  C:\Users\Yiquing\AppData\Local\Temp\ccOGLayf.s 			page 13


 381              		.global	isr_SW_Rst_Enable
 382              		.thumb
 383              		.thumb_func
 384              		.type	isr_SW_Rst_Enable, %function
 385              	isr_SW_Rst_Enable:
 386              	.LFB8:
 305:.\Generated_Source\PSoC5/isr_SW_Rst.c **** 
 306:.\Generated_Source\PSoC5/isr_SW_Rst.c **** 
 307:.\Generated_Source\PSoC5/isr_SW_Rst.c **** /*******************************************************************************
 308:.\Generated_Source\PSoC5/isr_SW_Rst.c **** * Function Name: isr_SW_Rst_Enable
 309:.\Generated_Source\PSoC5/isr_SW_Rst.c **** ********************************************************************************
 310:.\Generated_Source\PSoC5/isr_SW_Rst.c **** *
 311:.\Generated_Source\PSoC5/isr_SW_Rst.c **** * Summary:
 312:.\Generated_Source\PSoC5/isr_SW_Rst.c **** *   Enables the interrupt to the interrupt controller. Do not call this function
 313:.\Generated_Source\PSoC5/isr_SW_Rst.c **** *   unless ISR_Start() has been called or the functionality of the ISR_Start() 
 314:.\Generated_Source\PSoC5/isr_SW_Rst.c **** *   function, which sets the vector and the priority, has been called.
 315:.\Generated_Source\PSoC5/isr_SW_Rst.c **** *
 316:.\Generated_Source\PSoC5/isr_SW_Rst.c **** * Parameters:
 317:.\Generated_Source\PSoC5/isr_SW_Rst.c **** *   None
 318:.\Generated_Source\PSoC5/isr_SW_Rst.c **** *
 319:.\Generated_Source\PSoC5/isr_SW_Rst.c **** * Return:
 320:.\Generated_Source\PSoC5/isr_SW_Rst.c **** *   None
 321:.\Generated_Source\PSoC5/isr_SW_Rst.c **** *
 322:.\Generated_Source\PSoC5/isr_SW_Rst.c **** *******************************************************************************/
 323:.\Generated_Source\PSoC5/isr_SW_Rst.c **** void isr_SW_Rst_Enable(void)
 324:.\Generated_Source\PSoC5/isr_SW_Rst.c **** {
 387              		.loc 1 324 0
 388              		.cfi_startproc
 389              		@ args = 0, pretend = 0, frame = 0
 390              		@ frame_needed = 1, uses_anonymous_args = 0
 391              		@ link register save eliminated.
 392 0000 80B4     		push	{r7}
 393              		.cfi_def_cfa_offset 4
 394              		.cfi_offset 7, -4
 395 0002 00AF     		add	r7, sp, #0
 396              		.cfi_def_cfa_register 7
 325:.\Generated_Source\PSoC5/isr_SW_Rst.c ****     /* Enable the general interrupt. */
 326:.\Generated_Source\PSoC5/isr_SW_Rst.c ****     *isr_SW_Rst_INTC_SET_EN = isr_SW_Rst__INTC_MASK;
 397              		.loc 1 326 0
 398 0004 034B     		ldr	r3, .L28
 399 0006 0822     		movs	r2, #8
 400 0008 1A60     		str	r2, [r3]
 327:.\Generated_Source\PSoC5/isr_SW_Rst.c **** }
 401              		.loc 1 327 0
 402 000a BD46     		mov	sp, r7
 403              		@ sp needed
 404 000c 5DF8047B 		ldr	r7, [sp], #4
 405 0010 7047     		bx	lr
 406              	.L29:
 407 0012 00BF     		.align	2
 408              	.L28:
 409 0014 00E100E0 		.word	-536813312
 410              		.cfi_endproc
 411              	.LFE8:
 412              		.size	isr_SW_Rst_Enable, .-isr_SW_Rst_Enable
 413              		.section	.text.isr_SW_Rst_GetState,"ax",%progbits
 414              		.align	2
ARM GAS  C:\Users\Yiquing\AppData\Local\Temp\ccOGLayf.s 			page 14


 415              		.global	isr_SW_Rst_GetState
 416              		.thumb
 417              		.thumb_func
 418              		.type	isr_SW_Rst_GetState, %function
 419              	isr_SW_Rst_GetState:
 420              	.LFB9:
 328:.\Generated_Source\PSoC5/isr_SW_Rst.c **** 
 329:.\Generated_Source\PSoC5/isr_SW_Rst.c **** 
 330:.\Generated_Source\PSoC5/isr_SW_Rst.c **** /*******************************************************************************
 331:.\Generated_Source\PSoC5/isr_SW_Rst.c **** * Function Name: isr_SW_Rst_GetState
 332:.\Generated_Source\PSoC5/isr_SW_Rst.c **** ********************************************************************************
 333:.\Generated_Source\PSoC5/isr_SW_Rst.c **** *
 334:.\Generated_Source\PSoC5/isr_SW_Rst.c **** * Summary:
 335:.\Generated_Source\PSoC5/isr_SW_Rst.c **** *   Gets the state (enabled, disabled) of the Interrupt.
 336:.\Generated_Source\PSoC5/isr_SW_Rst.c **** *
 337:.\Generated_Source\PSoC5/isr_SW_Rst.c **** * Parameters:
 338:.\Generated_Source\PSoC5/isr_SW_Rst.c **** *   None
 339:.\Generated_Source\PSoC5/isr_SW_Rst.c **** *
 340:.\Generated_Source\PSoC5/isr_SW_Rst.c **** * Return:
 341:.\Generated_Source\PSoC5/isr_SW_Rst.c **** *   1 if enabled, 0 if disabled.
 342:.\Generated_Source\PSoC5/isr_SW_Rst.c **** *
 343:.\Generated_Source\PSoC5/isr_SW_Rst.c **** *******************************************************************************/
 344:.\Generated_Source\PSoC5/isr_SW_Rst.c **** uint8 isr_SW_Rst_GetState(void)
 345:.\Generated_Source\PSoC5/isr_SW_Rst.c **** {
 421              		.loc 1 345 0
 422              		.cfi_startproc
 423              		@ args = 0, pretend = 0, frame = 0
 424              		@ frame_needed = 1, uses_anonymous_args = 0
 425              		@ link register save eliminated.
 426 0000 80B4     		push	{r7}
 427              		.cfi_def_cfa_offset 4
 428              		.cfi_offset 7, -4
 429 0002 00AF     		add	r7, sp, #0
 430              		.cfi_def_cfa_register 7
 346:.\Generated_Source\PSoC5/isr_SW_Rst.c ****     /* Get the state of the general interrupt. */
 347:.\Generated_Source\PSoC5/isr_SW_Rst.c ****     return ((*isr_SW_Rst_INTC_SET_EN & (uint32)isr_SW_Rst__INTC_MASK) != 0u) ? 1u:0u;
 431              		.loc 1 347 0
 432 0004 064B     		ldr	r3, .L34
 433 0006 1B68     		ldr	r3, [r3]
 434 0008 03F00803 		and	r3, r3, #8
 435 000c 002B     		cmp	r3, #0
 436 000e 01D0     		beq	.L31
 437              		.loc 1 347 0 is_stmt 0 discriminator 1
 438 0010 0123     		movs	r3, #1
 439 0012 00E0     		b	.L32
 440              	.L31:
 441              		.loc 1 347 0 discriminator 2
 442 0014 0023     		movs	r3, #0
 443              	.L32:
 348:.\Generated_Source\PSoC5/isr_SW_Rst.c **** }
 444              		.loc 1 348 0 is_stmt 1 discriminator 3
 445 0016 1846     		mov	r0, r3
 446 0018 BD46     		mov	sp, r7
 447              		@ sp needed
 448 001a 5DF8047B 		ldr	r7, [sp], #4
 449 001e 7047     		bx	lr
 450              	.L35:
ARM GAS  C:\Users\Yiquing\AppData\Local\Temp\ccOGLayf.s 			page 15


 451              		.align	2
 452              	.L34:
 453 0020 00E100E0 		.word	-536813312
 454              		.cfi_endproc
 455              	.LFE9:
 456              		.size	isr_SW_Rst_GetState, .-isr_SW_Rst_GetState
 457              		.section	.text.isr_SW_Rst_Disable,"ax",%progbits
 458              		.align	2
 459              		.global	isr_SW_Rst_Disable
 460              		.thumb
 461              		.thumb_func
 462              		.type	isr_SW_Rst_Disable, %function
 463              	isr_SW_Rst_Disable:
 464              	.LFB10:
 349:.\Generated_Source\PSoC5/isr_SW_Rst.c **** 
 350:.\Generated_Source\PSoC5/isr_SW_Rst.c **** 
 351:.\Generated_Source\PSoC5/isr_SW_Rst.c **** /*******************************************************************************
 352:.\Generated_Source\PSoC5/isr_SW_Rst.c **** * Function Name: isr_SW_Rst_Disable
 353:.\Generated_Source\PSoC5/isr_SW_Rst.c **** ********************************************************************************
 354:.\Generated_Source\PSoC5/isr_SW_Rst.c **** *
 355:.\Generated_Source\PSoC5/isr_SW_Rst.c **** * Summary:
 356:.\Generated_Source\PSoC5/isr_SW_Rst.c **** *   Disables the Interrupt in the interrupt controller.
 357:.\Generated_Source\PSoC5/isr_SW_Rst.c **** *
 358:.\Generated_Source\PSoC5/isr_SW_Rst.c **** * Parameters:
 359:.\Generated_Source\PSoC5/isr_SW_Rst.c **** *   None
 360:.\Generated_Source\PSoC5/isr_SW_Rst.c **** *
 361:.\Generated_Source\PSoC5/isr_SW_Rst.c **** * Return:
 362:.\Generated_Source\PSoC5/isr_SW_Rst.c **** *   None
 363:.\Generated_Source\PSoC5/isr_SW_Rst.c **** *
 364:.\Generated_Source\PSoC5/isr_SW_Rst.c **** *******************************************************************************/
 365:.\Generated_Source\PSoC5/isr_SW_Rst.c **** void isr_SW_Rst_Disable(void)
 366:.\Generated_Source\PSoC5/isr_SW_Rst.c **** {
 465              		.loc 1 366 0
 466              		.cfi_startproc
 467              		@ args = 0, pretend = 0, frame = 0
 468              		@ frame_needed = 1, uses_anonymous_args = 0
 469              		@ link register save eliminated.
 470 0000 80B4     		push	{r7}
 471              		.cfi_def_cfa_offset 4
 472              		.cfi_offset 7, -4
 473 0002 00AF     		add	r7, sp, #0
 474              		.cfi_def_cfa_register 7
 367:.\Generated_Source\PSoC5/isr_SW_Rst.c ****     /* Disable the general interrupt. */
 368:.\Generated_Source\PSoC5/isr_SW_Rst.c ****     *isr_SW_Rst_INTC_CLR_EN = isr_SW_Rst__INTC_MASK;
 475              		.loc 1 368 0
 476 0004 034B     		ldr	r3, .L37
 477 0006 0822     		movs	r2, #8
 478 0008 1A60     		str	r2, [r3]
 369:.\Generated_Source\PSoC5/isr_SW_Rst.c **** }
 479              		.loc 1 369 0
 480 000a BD46     		mov	sp, r7
 481              		@ sp needed
 482 000c 5DF8047B 		ldr	r7, [sp], #4
 483 0010 7047     		bx	lr
 484              	.L38:
 485 0012 00BF     		.align	2
 486              	.L37:
ARM GAS  C:\Users\Yiquing\AppData\Local\Temp\ccOGLayf.s 			page 16


 487 0014 80E100E0 		.word	-536813184
 488              		.cfi_endproc
 489              	.LFE10:
 490              		.size	isr_SW_Rst_Disable, .-isr_SW_Rst_Disable
 491              		.section	.text.isr_SW_Rst_SetPending,"ax",%progbits
 492              		.align	2
 493              		.global	isr_SW_Rst_SetPending
 494              		.thumb
 495              		.thumb_func
 496              		.type	isr_SW_Rst_SetPending, %function
 497              	isr_SW_Rst_SetPending:
 498              	.LFB11:
 370:.\Generated_Source\PSoC5/isr_SW_Rst.c **** 
 371:.\Generated_Source\PSoC5/isr_SW_Rst.c **** 
 372:.\Generated_Source\PSoC5/isr_SW_Rst.c **** /*******************************************************************************
 373:.\Generated_Source\PSoC5/isr_SW_Rst.c **** * Function Name: isr_SW_Rst_SetPending
 374:.\Generated_Source\PSoC5/isr_SW_Rst.c **** ********************************************************************************
 375:.\Generated_Source\PSoC5/isr_SW_Rst.c **** *
 376:.\Generated_Source\PSoC5/isr_SW_Rst.c **** * Summary:
 377:.\Generated_Source\PSoC5/isr_SW_Rst.c **** *   Causes the Interrupt to enter the pending state, a software method of
 378:.\Generated_Source\PSoC5/isr_SW_Rst.c **** *   generating the interrupt.
 379:.\Generated_Source\PSoC5/isr_SW_Rst.c **** *
 380:.\Generated_Source\PSoC5/isr_SW_Rst.c **** * Parameters:
 381:.\Generated_Source\PSoC5/isr_SW_Rst.c **** *   None
 382:.\Generated_Source\PSoC5/isr_SW_Rst.c **** *
 383:.\Generated_Source\PSoC5/isr_SW_Rst.c **** * Return:
 384:.\Generated_Source\PSoC5/isr_SW_Rst.c **** *   None
 385:.\Generated_Source\PSoC5/isr_SW_Rst.c **** *
 386:.\Generated_Source\PSoC5/isr_SW_Rst.c **** * Side Effects:
 387:.\Generated_Source\PSoC5/isr_SW_Rst.c **** *   If interrupts are enabled and the interrupt is set up properly, the ISR is
 388:.\Generated_Source\PSoC5/isr_SW_Rst.c **** *   entered (depending on the priority of this interrupt and other pending 
 389:.\Generated_Source\PSoC5/isr_SW_Rst.c **** *   interrupts).
 390:.\Generated_Source\PSoC5/isr_SW_Rst.c **** *
 391:.\Generated_Source\PSoC5/isr_SW_Rst.c **** *******************************************************************************/
 392:.\Generated_Source\PSoC5/isr_SW_Rst.c **** void isr_SW_Rst_SetPending(void)
 393:.\Generated_Source\PSoC5/isr_SW_Rst.c **** {
 499              		.loc 1 393 0
 500              		.cfi_startproc
 501              		@ args = 0, pretend = 0, frame = 0
 502              		@ frame_needed = 1, uses_anonymous_args = 0
 503              		@ link register save eliminated.
 504 0000 80B4     		push	{r7}
 505              		.cfi_def_cfa_offset 4
 506              		.cfi_offset 7, -4
 507 0002 00AF     		add	r7, sp, #0
 508              		.cfi_def_cfa_register 7
 394:.\Generated_Source\PSoC5/isr_SW_Rst.c ****     *isr_SW_Rst_INTC_SET_PD = isr_SW_Rst__INTC_MASK;
 509              		.loc 1 394 0
 510 0004 034B     		ldr	r3, .L40
 511 0006 0822     		movs	r2, #8
 512 0008 1A60     		str	r2, [r3]
 395:.\Generated_Source\PSoC5/isr_SW_Rst.c **** }
 513              		.loc 1 395 0
 514 000a BD46     		mov	sp, r7
 515              		@ sp needed
 516 000c 5DF8047B 		ldr	r7, [sp], #4
 517 0010 7047     		bx	lr
ARM GAS  C:\Users\Yiquing\AppData\Local\Temp\ccOGLayf.s 			page 17


 518              	.L41:
 519 0012 00BF     		.align	2
 520              	.L40:
 521 0014 00E200E0 		.word	-536813056
 522              		.cfi_endproc
 523              	.LFE11:
 524              		.size	isr_SW_Rst_SetPending, .-isr_SW_Rst_SetPending
 525              		.section	.text.isr_SW_Rst_ClearPending,"ax",%progbits
 526              		.align	2
 527              		.global	isr_SW_Rst_ClearPending
 528              		.thumb
 529              		.thumb_func
 530              		.type	isr_SW_Rst_ClearPending, %function
 531              	isr_SW_Rst_ClearPending:
 532              	.LFB12:
 396:.\Generated_Source\PSoC5/isr_SW_Rst.c **** 
 397:.\Generated_Source\PSoC5/isr_SW_Rst.c **** 
 398:.\Generated_Source\PSoC5/isr_SW_Rst.c **** /*******************************************************************************
 399:.\Generated_Source\PSoC5/isr_SW_Rst.c **** * Function Name: isr_SW_Rst_ClearPending
 400:.\Generated_Source\PSoC5/isr_SW_Rst.c **** ********************************************************************************
 401:.\Generated_Source\PSoC5/isr_SW_Rst.c **** *
 402:.\Generated_Source\PSoC5/isr_SW_Rst.c **** * Summary:
 403:.\Generated_Source\PSoC5/isr_SW_Rst.c **** *   Clears a pending interrupt in the interrupt controller.
 404:.\Generated_Source\PSoC5/isr_SW_Rst.c **** *
 405:.\Generated_Source\PSoC5/isr_SW_Rst.c **** *   Note Some interrupt sources are clear-on-read and require the block 
 406:.\Generated_Source\PSoC5/isr_SW_Rst.c **** *   interrupt/status register to be read/cleared with the appropriate block API 
 407:.\Generated_Source\PSoC5/isr_SW_Rst.c **** *   (GPIO, UART, and so on). Otherwise the ISR will continue to remain in 
 408:.\Generated_Source\PSoC5/isr_SW_Rst.c **** *   pending state even though the interrupt itself is cleared using this API.
 409:.\Generated_Source\PSoC5/isr_SW_Rst.c **** *
 410:.\Generated_Source\PSoC5/isr_SW_Rst.c **** * Parameters:
 411:.\Generated_Source\PSoC5/isr_SW_Rst.c **** *   None
 412:.\Generated_Source\PSoC5/isr_SW_Rst.c **** *
 413:.\Generated_Source\PSoC5/isr_SW_Rst.c **** * Return:
 414:.\Generated_Source\PSoC5/isr_SW_Rst.c **** *   None
 415:.\Generated_Source\PSoC5/isr_SW_Rst.c **** *
 416:.\Generated_Source\PSoC5/isr_SW_Rst.c **** *******************************************************************************/
 417:.\Generated_Source\PSoC5/isr_SW_Rst.c **** void isr_SW_Rst_ClearPending(void)
 418:.\Generated_Source\PSoC5/isr_SW_Rst.c **** {
 533              		.loc 1 418 0
 534              		.cfi_startproc
 535              		@ args = 0, pretend = 0, frame = 0
 536              		@ frame_needed = 1, uses_anonymous_args = 0
 537              		@ link register save eliminated.
 538 0000 80B4     		push	{r7}
 539              		.cfi_def_cfa_offset 4
 540              		.cfi_offset 7, -4
 541 0002 00AF     		add	r7, sp, #0
 542              		.cfi_def_cfa_register 7
 419:.\Generated_Source\PSoC5/isr_SW_Rst.c ****     *isr_SW_Rst_INTC_CLR_PD = isr_SW_Rst__INTC_MASK;
 543              		.loc 1 419 0
 544 0004 034B     		ldr	r3, .L43
 545 0006 0822     		movs	r2, #8
 546 0008 1A60     		str	r2, [r3]
 420:.\Generated_Source\PSoC5/isr_SW_Rst.c **** }
 547              		.loc 1 420 0
 548 000a BD46     		mov	sp, r7
 549              		@ sp needed
ARM GAS  C:\Users\Yiquing\AppData\Local\Temp\ccOGLayf.s 			page 18


 550 000c 5DF8047B 		ldr	r7, [sp], #4
 551 0010 7047     		bx	lr
 552              	.L44:
 553 0012 00BF     		.align	2
 554              	.L43:
 555 0014 80E200E0 		.word	-536812928
 556              		.cfi_endproc
 557              	.LFE12:
 558              		.size	isr_SW_Rst_ClearPending, .-isr_SW_Rst_ClearPending
 559              		.text
 560              	.Letext0:
 561              		.file 2 "Generated_Source\\PSoC5/cytypes.h"
 562              		.file 3 "./softuart.h"
 563              		.file 4 "./system.h"