ARM GAS  C:\Users\Yiquing\AppData\Local\Temp\cchQmg9g.s 			page 1


   1              		.syntax unified
   2              		.cpu cortex-m3
   3              		.fpu softvfp
   4              		.eabi_attribute 20, 1
   5              		.eabi_attribute 21, 1
   6              		.eabi_attribute 23, 3
   7              		.eabi_attribute 24, 1
   8              		.eabi_attribute 25, 1
   9              		.eabi_attribute 26, 1
  10              		.eabi_attribute 30, 6
  11              		.eabi_attribute 34, 1
  12              		.eabi_attribute 18, 4
  13              		.thumb
  14              		.file	"isr_F2F_edge.c"
  15              		.text
  16              	.Ltext0:
  17              		.cfi_sections	.debug_frame
  18              		.comm	s,40,4
  19              		.comm	currentAccessType,1,1
  20              		.comm	old,1,1
  21              		.comm	TAMPERCR_POLARITY,4,4
  22              		.comm	card_ack,4,4
  23              		.comm	card_in_buf,4,4
  24              		.comm	got_pulse,1,1
  25              		.comm	f2f_pulsewidth,4,4
  26              		.comm	timeout_cnt,4,4
  27              		.comm	activate_f2ftimer,1,1
  28              		.section	.text.isr_F2F_edge_Start,"ax",%progbits
  29              		.align	2
  30              		.global	isr_F2F_edge_Start
  31              		.thumb
  32              		.thumb_func
  33              		.type	isr_F2F_edge_Start, %function
  34              	isr_F2F_edge_Start:
  35              	.LFB0:
  36              		.file 1 ".\\Generated_Source\\PSoC5\\isr_F2F_edge.c"
   1:.\Generated_Source\PSoC5/isr_F2F_edge.c **** /*******************************************************************************
   2:.\Generated_Source\PSoC5/isr_F2F_edge.c **** * File Name: isr_F2F_edge.c  
   3:.\Generated_Source\PSoC5/isr_F2F_edge.c **** * Version 1.70
   4:.\Generated_Source\PSoC5/isr_F2F_edge.c **** *
   5:.\Generated_Source\PSoC5/isr_F2F_edge.c **** *  Description:
   6:.\Generated_Source\PSoC5/isr_F2F_edge.c **** *   API for controlling the state of an interrupt.
   7:.\Generated_Source\PSoC5/isr_F2F_edge.c **** *
   8:.\Generated_Source\PSoC5/isr_F2F_edge.c **** *
   9:.\Generated_Source\PSoC5/isr_F2F_edge.c **** *  Note:
  10:.\Generated_Source\PSoC5/isr_F2F_edge.c **** *
  11:.\Generated_Source\PSoC5/isr_F2F_edge.c **** ********************************************************************************
  12:.\Generated_Source\PSoC5/isr_F2F_edge.c **** * Copyright 2008-2015, Cypress Semiconductor Corporation.  All rights reserved.
  13:.\Generated_Source\PSoC5/isr_F2F_edge.c **** * You may use this file only in accordance with the license, terms, conditions, 
  14:.\Generated_Source\PSoC5/isr_F2F_edge.c **** * disclaimers, and limitations in the end user license agreement accompanying 
  15:.\Generated_Source\PSoC5/isr_F2F_edge.c **** * the software package with which this file was provided.
  16:.\Generated_Source\PSoC5/isr_F2F_edge.c **** *******************************************************************************/
  17:.\Generated_Source\PSoC5/isr_F2F_edge.c **** 
  18:.\Generated_Source\PSoC5/isr_F2F_edge.c **** 
  19:.\Generated_Source\PSoC5/isr_F2F_edge.c **** #include <cydevice_trm.h>
  20:.\Generated_Source\PSoC5/isr_F2F_edge.c **** #include <CyLib.h>
  21:.\Generated_Source\PSoC5/isr_F2F_edge.c **** #include <isr_F2F_edge.h>
ARM GAS  C:\Users\Yiquing\AppData\Local\Temp\cchQmg9g.s 			page 2


  22:.\Generated_Source\PSoC5/isr_F2F_edge.c **** 
  23:.\Generated_Source\PSoC5/isr_F2F_edge.c **** #if !defined(isr_F2F_edge__REMOVED) /* Check for removal by optimization */
  24:.\Generated_Source\PSoC5/isr_F2F_edge.c **** 
  25:.\Generated_Source\PSoC5/isr_F2F_edge.c **** /*******************************************************************************
  26:.\Generated_Source\PSoC5/isr_F2F_edge.c **** *  Place your includes, defines and code here 
  27:.\Generated_Source\PSoC5/isr_F2F_edge.c **** ********************************************************************************/
  28:.\Generated_Source\PSoC5/isr_F2F_edge.c **** /* `#START isr_F2F_edge_intc` */
  29:.\Generated_Source\PSoC5/isr_F2F_edge.c **** #include "FilterReg.h"
  30:.\Generated_Source\PSoC5/isr_F2F_edge.c **** #include "Timeout_Timer.h"
  31:.\Generated_Source\PSoC5/isr_F2F_edge.c **** #include "system.h"
  32:.\Generated_Source\PSoC5/isr_F2F_edge.c **** /* `#END` */
  33:.\Generated_Source\PSoC5/isr_F2F_edge.c **** 
  34:.\Generated_Source\PSoC5/isr_F2F_edge.c **** #ifndef CYINT_IRQ_BASE
  35:.\Generated_Source\PSoC5/isr_F2F_edge.c **** #define CYINT_IRQ_BASE      16
  36:.\Generated_Source\PSoC5/isr_F2F_edge.c **** #endif /* CYINT_IRQ_BASE */
  37:.\Generated_Source\PSoC5/isr_F2F_edge.c **** #ifndef CYINT_VECT_TABLE
  38:.\Generated_Source\PSoC5/isr_F2F_edge.c **** #define CYINT_VECT_TABLE    ((cyisraddress **) CYREG_NVIC_VECT_OFFSET)
  39:.\Generated_Source\PSoC5/isr_F2F_edge.c **** #endif /* CYINT_VECT_TABLE */
  40:.\Generated_Source\PSoC5/isr_F2F_edge.c **** 
  41:.\Generated_Source\PSoC5/isr_F2F_edge.c **** /* Declared in startup, used to set unused interrupts to. */
  42:.\Generated_Source\PSoC5/isr_F2F_edge.c **** CY_ISR_PROTO(IntDefaultHandler);
  43:.\Generated_Source\PSoC5/isr_F2F_edge.c **** 
  44:.\Generated_Source\PSoC5/isr_F2F_edge.c **** 
  45:.\Generated_Source\PSoC5/isr_F2F_edge.c **** /*******************************************************************************
  46:.\Generated_Source\PSoC5/isr_F2F_edge.c **** * Function Name: isr_F2F_edge_Start
  47:.\Generated_Source\PSoC5/isr_F2F_edge.c **** ********************************************************************************
  48:.\Generated_Source\PSoC5/isr_F2F_edge.c **** *
  49:.\Generated_Source\PSoC5/isr_F2F_edge.c **** * Summary:
  50:.\Generated_Source\PSoC5/isr_F2F_edge.c **** *  Set up the interrupt and enable it. This function disables the interrupt, 
  51:.\Generated_Source\PSoC5/isr_F2F_edge.c **** *  sets the default interrupt vector, sets the priority from the value in the
  52:.\Generated_Source\PSoC5/isr_F2F_edge.c **** *  Design Wide Resources Interrupt Editor, then enables the interrupt to the 
  53:.\Generated_Source\PSoC5/isr_F2F_edge.c **** *  interrupt controller.
  54:.\Generated_Source\PSoC5/isr_F2F_edge.c **** *
  55:.\Generated_Source\PSoC5/isr_F2F_edge.c **** * Parameters:  
  56:.\Generated_Source\PSoC5/isr_F2F_edge.c **** *   None
  57:.\Generated_Source\PSoC5/isr_F2F_edge.c **** *
  58:.\Generated_Source\PSoC5/isr_F2F_edge.c **** * Return:
  59:.\Generated_Source\PSoC5/isr_F2F_edge.c **** *   None
  60:.\Generated_Source\PSoC5/isr_F2F_edge.c **** *
  61:.\Generated_Source\PSoC5/isr_F2F_edge.c **** *******************************************************************************/
  62:.\Generated_Source\PSoC5/isr_F2F_edge.c **** void isr_F2F_edge_Start(void)
  63:.\Generated_Source\PSoC5/isr_F2F_edge.c **** {
  37              		.loc 1 63 0
  38              		.cfi_startproc
  39              		@ args = 0, pretend = 0, frame = 0
  40              		@ frame_needed = 1, uses_anonymous_args = 0
  41 0000 80B5     		push	{r7, lr}
  42              		.cfi_def_cfa_offset 8
  43              		.cfi_offset 7, -8
  44              		.cfi_offset 14, -4
  45 0002 00AF     		add	r7, sp, #0
  46              		.cfi_def_cfa_register 7
  64:.\Generated_Source\PSoC5/isr_F2F_edge.c ****     /* For all we know the interrupt is active. */
  65:.\Generated_Source\PSoC5/isr_F2F_edge.c ****     isr_F2F_edge_Disable();
  47              		.loc 1 65 0
  48 0004 FFF7FEFF 		bl	isr_F2F_edge_Disable
  66:.\Generated_Source\PSoC5/isr_F2F_edge.c **** 
ARM GAS  C:\Users\Yiquing\AppData\Local\Temp\cchQmg9g.s 			page 3


  67:.\Generated_Source\PSoC5/isr_F2F_edge.c ****     /* Set the ISR to point to the isr_F2F_edge Interrupt. */
  68:.\Generated_Source\PSoC5/isr_F2F_edge.c ****     isr_F2F_edge_SetVector(&isr_F2F_edge_Interrupt);
  49              		.loc 1 68 0
  50 0008 0448     		ldr	r0, .L2
  51 000a FFF7FEFF 		bl	isr_F2F_edge_SetVector
  69:.\Generated_Source\PSoC5/isr_F2F_edge.c **** 
  70:.\Generated_Source\PSoC5/isr_F2F_edge.c ****     /* Set the priority. */
  71:.\Generated_Source\PSoC5/isr_F2F_edge.c ****     isr_F2F_edge_SetPriority((uint8)isr_F2F_edge_INTC_PRIOR_NUMBER);
  52              		.loc 1 71 0
  53 000e 0720     		movs	r0, #7
  54 0010 FFF7FEFF 		bl	isr_F2F_edge_SetPriority
  72:.\Generated_Source\PSoC5/isr_F2F_edge.c **** 
  73:.\Generated_Source\PSoC5/isr_F2F_edge.c ****     /* Enable it. */
  74:.\Generated_Source\PSoC5/isr_F2F_edge.c ****     isr_F2F_edge_Enable();
  55              		.loc 1 74 0
  56 0014 FFF7FEFF 		bl	isr_F2F_edge_Enable
  75:.\Generated_Source\PSoC5/isr_F2F_edge.c **** }
  57              		.loc 1 75 0
  58 0018 80BD     		pop	{r7, pc}
  59              	.L3:
  60 001a 00BF     		.align	2
  61              	.L2:
  62 001c 00000000 		.word	isr_F2F_edge_Interrupt
  63              		.cfi_endproc
  64              	.LFE0:
  65              		.size	isr_F2F_edge_Start, .-isr_F2F_edge_Start
  66              		.section	.text.isr_F2F_edge_StartEx,"ax",%progbits
  67              		.align	2
  68              		.global	isr_F2F_edge_StartEx
  69              		.thumb
  70              		.thumb_func
  71              		.type	isr_F2F_edge_StartEx, %function
  72              	isr_F2F_edge_StartEx:
  73              	.LFB1:
  76:.\Generated_Source\PSoC5/isr_F2F_edge.c **** 
  77:.\Generated_Source\PSoC5/isr_F2F_edge.c **** 
  78:.\Generated_Source\PSoC5/isr_F2F_edge.c **** /*******************************************************************************
  79:.\Generated_Source\PSoC5/isr_F2F_edge.c **** * Function Name: isr_F2F_edge_StartEx
  80:.\Generated_Source\PSoC5/isr_F2F_edge.c **** ********************************************************************************
  81:.\Generated_Source\PSoC5/isr_F2F_edge.c **** *
  82:.\Generated_Source\PSoC5/isr_F2F_edge.c **** * Summary:
  83:.\Generated_Source\PSoC5/isr_F2F_edge.c **** *  Sets up the interrupt and enables it. This function disables the interrupt,
  84:.\Generated_Source\PSoC5/isr_F2F_edge.c **** *  sets the interrupt vector based on the address passed in, sets the priority 
  85:.\Generated_Source\PSoC5/isr_F2F_edge.c **** *  from the value in the Design Wide Resources Interrupt Editor, then enables 
  86:.\Generated_Source\PSoC5/isr_F2F_edge.c **** *  the interrupt to the interrupt controller.
  87:.\Generated_Source\PSoC5/isr_F2F_edge.c **** *  
  88:.\Generated_Source\PSoC5/isr_F2F_edge.c **** *  When defining ISR functions, the CY_ISR and CY_ISR_PROTO macros should be 
  89:.\Generated_Source\PSoC5/isr_F2F_edge.c **** *  used to provide consistent definition across compilers:
  90:.\Generated_Source\PSoC5/isr_F2F_edge.c **** *  
  91:.\Generated_Source\PSoC5/isr_F2F_edge.c **** *  Function definition example:
  92:.\Generated_Source\PSoC5/isr_F2F_edge.c **** *   CY_ISR(MyISR)
  93:.\Generated_Source\PSoC5/isr_F2F_edge.c **** *   {
  94:.\Generated_Source\PSoC5/isr_F2F_edge.c **** *   }
  95:.\Generated_Source\PSoC5/isr_F2F_edge.c **** *   Function prototype example:
  96:.\Generated_Source\PSoC5/isr_F2F_edge.c **** *   CY_ISR_PROTO(MyISR);
  97:.\Generated_Source\PSoC5/isr_F2F_edge.c **** *
  98:.\Generated_Source\PSoC5/isr_F2F_edge.c **** * Parameters:  
ARM GAS  C:\Users\Yiquing\AppData\Local\Temp\cchQmg9g.s 			page 4


  99:.\Generated_Source\PSoC5/isr_F2F_edge.c **** *   address: Address of the ISR to set in the interrupt vector table.
 100:.\Generated_Source\PSoC5/isr_F2F_edge.c **** *
 101:.\Generated_Source\PSoC5/isr_F2F_edge.c **** * Return:
 102:.\Generated_Source\PSoC5/isr_F2F_edge.c **** *   None
 103:.\Generated_Source\PSoC5/isr_F2F_edge.c **** *
 104:.\Generated_Source\PSoC5/isr_F2F_edge.c **** *******************************************************************************/
 105:.\Generated_Source\PSoC5/isr_F2F_edge.c **** void isr_F2F_edge_StartEx(cyisraddress address)
 106:.\Generated_Source\PSoC5/isr_F2F_edge.c **** {
  74              		.loc 1 106 0
  75              		.cfi_startproc
  76              		@ args = 0, pretend = 0, frame = 8
  77              		@ frame_needed = 1, uses_anonymous_args = 0
  78 0000 80B5     		push	{r7, lr}
  79              		.cfi_def_cfa_offset 8
  80              		.cfi_offset 7, -8
  81              		.cfi_offset 14, -4
  82 0002 82B0     		sub	sp, sp, #8
  83              		.cfi_def_cfa_offset 16
  84 0004 00AF     		add	r7, sp, #0
  85              		.cfi_def_cfa_register 7
  86 0006 7860     		str	r0, [r7, #4]
 107:.\Generated_Source\PSoC5/isr_F2F_edge.c ****     /* For all we know the interrupt is active. */
 108:.\Generated_Source\PSoC5/isr_F2F_edge.c ****     isr_F2F_edge_Disable();
  87              		.loc 1 108 0
  88 0008 FFF7FEFF 		bl	isr_F2F_edge_Disable
 109:.\Generated_Source\PSoC5/isr_F2F_edge.c **** 
 110:.\Generated_Source\PSoC5/isr_F2F_edge.c ****     /* Set the ISR to point to the isr_F2F_edge Interrupt. */
 111:.\Generated_Source\PSoC5/isr_F2F_edge.c ****     isr_F2F_edge_SetVector(address);
  89              		.loc 1 111 0
  90 000c 7868     		ldr	r0, [r7, #4]
  91 000e FFF7FEFF 		bl	isr_F2F_edge_SetVector
 112:.\Generated_Source\PSoC5/isr_F2F_edge.c **** 
 113:.\Generated_Source\PSoC5/isr_F2F_edge.c ****     /* Set the priority. */
 114:.\Generated_Source\PSoC5/isr_F2F_edge.c ****     isr_F2F_edge_SetPriority((uint8)isr_F2F_edge_INTC_PRIOR_NUMBER);
  92              		.loc 1 114 0
  93 0012 0720     		movs	r0, #7
  94 0014 FFF7FEFF 		bl	isr_F2F_edge_SetPriority
 115:.\Generated_Source\PSoC5/isr_F2F_edge.c **** 
 116:.\Generated_Source\PSoC5/isr_F2F_edge.c ****     /* Enable it. */
 117:.\Generated_Source\PSoC5/isr_F2F_edge.c ****     isr_F2F_edge_Enable();
  95              		.loc 1 117 0
  96 0018 FFF7FEFF 		bl	isr_F2F_edge_Enable
 118:.\Generated_Source\PSoC5/isr_F2F_edge.c **** }
  97              		.loc 1 118 0
  98 001c 0837     		adds	r7, r7, #8
  99 001e BD46     		mov	sp, r7
 100              		@ sp needed
 101 0020 80BD     		pop	{r7, pc}
 102              		.cfi_endproc
 103              	.LFE1:
 104              		.size	isr_F2F_edge_StartEx, .-isr_F2F_edge_StartEx
 105 0022 00BF     		.section	.text.isr_F2F_edge_Stop,"ax",%progbits
 106              		.align	2
 107              		.global	isr_F2F_edge_Stop
 108              		.thumb
 109              		.thumb_func
 110              		.type	isr_F2F_edge_Stop, %function
ARM GAS  C:\Users\Yiquing\AppData\Local\Temp\cchQmg9g.s 			page 5


 111              	isr_F2F_edge_Stop:
 112              	.LFB2:
 119:.\Generated_Source\PSoC5/isr_F2F_edge.c **** 
 120:.\Generated_Source\PSoC5/isr_F2F_edge.c **** 
 121:.\Generated_Source\PSoC5/isr_F2F_edge.c **** /*******************************************************************************
 122:.\Generated_Source\PSoC5/isr_F2F_edge.c **** * Function Name: isr_F2F_edge_Stop
 123:.\Generated_Source\PSoC5/isr_F2F_edge.c **** ********************************************************************************
 124:.\Generated_Source\PSoC5/isr_F2F_edge.c **** *
 125:.\Generated_Source\PSoC5/isr_F2F_edge.c **** * Summary:
 126:.\Generated_Source\PSoC5/isr_F2F_edge.c **** *   Disables and removes the interrupt.
 127:.\Generated_Source\PSoC5/isr_F2F_edge.c **** *
 128:.\Generated_Source\PSoC5/isr_F2F_edge.c **** * Parameters:  
 129:.\Generated_Source\PSoC5/isr_F2F_edge.c **** *   None
 130:.\Generated_Source\PSoC5/isr_F2F_edge.c **** *
 131:.\Generated_Source\PSoC5/isr_F2F_edge.c **** * Return:
 132:.\Generated_Source\PSoC5/isr_F2F_edge.c **** *   None
 133:.\Generated_Source\PSoC5/isr_F2F_edge.c **** *
 134:.\Generated_Source\PSoC5/isr_F2F_edge.c **** *******************************************************************************/
 135:.\Generated_Source\PSoC5/isr_F2F_edge.c **** void isr_F2F_edge_Stop(void)
 136:.\Generated_Source\PSoC5/isr_F2F_edge.c **** {
 113              		.loc 1 136 0
 114              		.cfi_startproc
 115              		@ args = 0, pretend = 0, frame = 0
 116              		@ frame_needed = 1, uses_anonymous_args = 0
 117 0000 80B5     		push	{r7, lr}
 118              		.cfi_def_cfa_offset 8
 119              		.cfi_offset 7, -8
 120              		.cfi_offset 14, -4
 121 0002 00AF     		add	r7, sp, #0
 122              		.cfi_def_cfa_register 7
 137:.\Generated_Source\PSoC5/isr_F2F_edge.c ****     /* Disable this interrupt. */
 138:.\Generated_Source\PSoC5/isr_F2F_edge.c ****     isr_F2F_edge_Disable();
 123              		.loc 1 138 0
 124 0004 FFF7FEFF 		bl	isr_F2F_edge_Disable
 139:.\Generated_Source\PSoC5/isr_F2F_edge.c **** 
 140:.\Generated_Source\PSoC5/isr_F2F_edge.c ****     /* Set the ISR to point to the passive one. */
 141:.\Generated_Source\PSoC5/isr_F2F_edge.c ****     isr_F2F_edge_SetVector(&IntDefaultHandler);
 125              		.loc 1 141 0
 126 0008 0148     		ldr	r0, .L6
 127 000a FFF7FEFF 		bl	isr_F2F_edge_SetVector
 142:.\Generated_Source\PSoC5/isr_F2F_edge.c **** }
 128              		.loc 1 142 0
 129 000e 80BD     		pop	{r7, pc}
 130              	.L7:
 131              		.align	2
 132              	.L6:
 133 0010 00000000 		.word	IntDefaultHandler
 134              		.cfi_endproc
 135              	.LFE2:
 136              		.size	isr_F2F_edge_Stop, .-isr_F2F_edge_Stop
 137              		.section	.text.isr_F2F_edge_Interrupt,"ax",%progbits
 138              		.align	2
 139              		.global	isr_F2F_edge_Interrupt
 140              		.thumb
 141              		.thumb_func
 142              		.type	isr_F2F_edge_Interrupt, %function
 143              	isr_F2F_edge_Interrupt:
ARM GAS  C:\Users\Yiquing\AppData\Local\Temp\cchQmg9g.s 			page 6


 144              	.LFB3:
 143:.\Generated_Source\PSoC5/isr_F2F_edge.c **** 
 144:.\Generated_Source\PSoC5/isr_F2F_edge.c **** 
 145:.\Generated_Source\PSoC5/isr_F2F_edge.c **** /*******************************************************************************
 146:.\Generated_Source\PSoC5/isr_F2F_edge.c **** * Function Name: isr_F2F_edge_Interrupt
 147:.\Generated_Source\PSoC5/isr_F2F_edge.c **** ********************************************************************************
 148:.\Generated_Source\PSoC5/isr_F2F_edge.c **** *
 149:.\Generated_Source\PSoC5/isr_F2F_edge.c **** * Summary:
 150:.\Generated_Source\PSoC5/isr_F2F_edge.c **** *   The default Interrupt Service Routine for isr_F2F_edge.
 151:.\Generated_Source\PSoC5/isr_F2F_edge.c **** *
 152:.\Generated_Source\PSoC5/isr_F2F_edge.c **** *   Add custom code between the coments to keep the next version of this file
 153:.\Generated_Source\PSoC5/isr_F2F_edge.c **** *   from over writting your code.
 154:.\Generated_Source\PSoC5/isr_F2F_edge.c **** *
 155:.\Generated_Source\PSoC5/isr_F2F_edge.c **** * Parameters:  
 156:.\Generated_Source\PSoC5/isr_F2F_edge.c **** *
 157:.\Generated_Source\PSoC5/isr_F2F_edge.c **** * Return:
 158:.\Generated_Source\PSoC5/isr_F2F_edge.c **** *   None
 159:.\Generated_Source\PSoC5/isr_F2F_edge.c **** *
 160:.\Generated_Source\PSoC5/isr_F2F_edge.c **** *******************************************************************************/
 161:.\Generated_Source\PSoC5/isr_F2F_edge.c **** CY_ISR(isr_F2F_edge_Interrupt)
 162:.\Generated_Source\PSoC5/isr_F2F_edge.c **** {
 145              		.loc 1 162 0
 146              		.cfi_startproc
 147              		@ args = 0, pretend = 0, frame = 0
 148              		@ frame_needed = 1, uses_anonymous_args = 0
 149 0000 80B5     		push	{r7, lr}
 150              		.cfi_def_cfa_offset 8
 151              		.cfi_offset 7, -8
 152              		.cfi_offset 14, -4
 153 0002 00AF     		add	r7, sp, #0
 154              		.cfi_def_cfa_register 7
 163:.\Generated_Source\PSoC5/isr_F2F_edge.c ****     /*  Place your Interrupt code here. */
 164:.\Generated_Source\PSoC5/isr_F2F_edge.c ****     /* `#START isr_F2F_edge_Interrupt` */
 165:.\Generated_Source\PSoC5/isr_F2F_edge.c ****     FilterReg_Read();  //reset debouncer
 155              		.loc 1 165 0
 156 0004 FFF7FEFF 		bl	FilterReg_Read
 166:.\Generated_Source\PSoC5/isr_F2F_edge.c ****     if(activate_f2ftimer == 1)
 157              		.loc 1 166 0
 158 0008 0D4B     		ldr	r3, .L11
 159 000a 1B78     		ldrb	r3, [r3]	@ zero_extendqisi2
 160 000c 012B     		cmp	r3, #1
 161 000e 15D1     		bne	.L8
 167:.\Generated_Source\PSoC5/isr_F2F_edge.c ****     {
 168:.\Generated_Source\PSoC5/isr_F2F_edge.c ****         if(timeout_cnt != 0 && timeout_cnt <0x40){
 162              		.loc 1 168 0
 163 0010 0C4B     		ldr	r3, .L11+4
 164 0012 1B68     		ldr	r3, [r3]
 165 0014 002B     		cmp	r3, #0
 166 0016 0AD0     		beq	.L10
 167              		.loc 1 168 0 is_stmt 0 discriminator 1
 168 0018 0A4B     		ldr	r3, .L11+4
 169 001a 1B68     		ldr	r3, [r3]
 170 001c 3F2B     		cmp	r3, #63
 171 001e 06DC     		bgt	.L10
 169:.\Generated_Source\PSoC5/isr_F2F_edge.c ****             got_pulse = 1;
 172              		.loc 1 169 0 is_stmt 1
 173 0020 094B     		ldr	r3, .L11+8
ARM GAS  C:\Users\Yiquing\AppData\Local\Temp\cchQmg9g.s 			page 7


 174 0022 0122     		movs	r2, #1
 175 0024 1A70     		strb	r2, [r3]
 170:.\Generated_Source\PSoC5/isr_F2F_edge.c ****             f2f_pulsewidth = timeout_cnt;
 176              		.loc 1 170 0
 177 0026 074B     		ldr	r3, .L11+4
 178 0028 1A68     		ldr	r2, [r3]
 179 002a 084B     		ldr	r3, .L11+12
 180 002c 1A60     		str	r2, [r3]
 181              	.L10:
 171:.\Generated_Source\PSoC5/isr_F2F_edge.c ****         }
 172:.\Generated_Source\PSoC5/isr_F2F_edge.c **** 
 173:.\Generated_Source\PSoC5/isr_F2F_edge.c ****         Timeout_Timer_Stop();
 182              		.loc 1 173 0
 183 002e FFF7FEFF 		bl	Timeout_Timer_Stop
 174:.\Generated_Source\PSoC5/isr_F2F_edge.c ****         timeout_cnt = 0;
 184              		.loc 1 174 0
 185 0032 044B     		ldr	r3, .L11+4
 186 0034 0022     		movs	r2, #0
 187 0036 1A60     		str	r2, [r3]
 175:.\Generated_Source\PSoC5/isr_F2F_edge.c ****         Timeout_Timer_Start();
 188              		.loc 1 175 0
 189 0038 FFF7FEFF 		bl	Timeout_Timer_Start
 190              	.L8:
 176:.\Generated_Source\PSoC5/isr_F2F_edge.c ****     }
 177:.\Generated_Source\PSoC5/isr_F2F_edge.c ****     
 178:.\Generated_Source\PSoC5/isr_F2F_edge.c ****     /* `#END` */
 179:.\Generated_Source\PSoC5/isr_F2F_edge.c **** }
 191              		.loc 1 179 0
 192 003c 80BD     		pop	{r7, pc}
 193              	.L12:
 194 003e 00BF     		.align	2
 195              	.L11:
 196 0040 00000000 		.word	activate_f2ftimer
 197 0044 00000000 		.word	timeout_cnt
 198 0048 00000000 		.word	got_pulse
 199 004c 00000000 		.word	f2f_pulsewidth
 200              		.cfi_endproc
 201              	.LFE3:
 202              		.size	isr_F2F_edge_Interrupt, .-isr_F2F_edge_Interrupt
 203              		.section	.text.isr_F2F_edge_SetVector,"ax",%progbits
 204              		.align	2
 205              		.global	isr_F2F_edge_SetVector
 206              		.thumb
 207              		.thumb_func
 208              		.type	isr_F2F_edge_SetVector, %function
 209              	isr_F2F_edge_SetVector:
 210              	.LFB4:
 180:.\Generated_Source\PSoC5/isr_F2F_edge.c **** 
 181:.\Generated_Source\PSoC5/isr_F2F_edge.c **** 
 182:.\Generated_Source\PSoC5/isr_F2F_edge.c **** /*******************************************************************************
 183:.\Generated_Source\PSoC5/isr_F2F_edge.c **** * Function Name: isr_F2F_edge_SetVector
 184:.\Generated_Source\PSoC5/isr_F2F_edge.c **** ********************************************************************************
 185:.\Generated_Source\PSoC5/isr_F2F_edge.c **** *
 186:.\Generated_Source\PSoC5/isr_F2F_edge.c **** * Summary:
 187:.\Generated_Source\PSoC5/isr_F2F_edge.c **** *   Change the ISR vector for the Interrupt. Note calling isr_F2F_edge_Start
 188:.\Generated_Source\PSoC5/isr_F2F_edge.c **** *   will override any effect this method would have had. To set the vector 
 189:.\Generated_Source\PSoC5/isr_F2F_edge.c **** *   before the component has been started use isr_F2F_edge_StartEx instead.
ARM GAS  C:\Users\Yiquing\AppData\Local\Temp\cchQmg9g.s 			page 8


 190:.\Generated_Source\PSoC5/isr_F2F_edge.c **** * 
 191:.\Generated_Source\PSoC5/isr_F2F_edge.c **** *   When defining ISR functions, the CY_ISR and CY_ISR_PROTO macros should be 
 192:.\Generated_Source\PSoC5/isr_F2F_edge.c **** *   used to provide consistent definition across compilers:
 193:.\Generated_Source\PSoC5/isr_F2F_edge.c **** *
 194:.\Generated_Source\PSoC5/isr_F2F_edge.c **** *   Function definition example:
 195:.\Generated_Source\PSoC5/isr_F2F_edge.c **** *   CY_ISR(MyISR)
 196:.\Generated_Source\PSoC5/isr_F2F_edge.c **** *   {
 197:.\Generated_Source\PSoC5/isr_F2F_edge.c **** *   }
 198:.\Generated_Source\PSoC5/isr_F2F_edge.c **** *
 199:.\Generated_Source\PSoC5/isr_F2F_edge.c **** *   Function prototype example:
 200:.\Generated_Source\PSoC5/isr_F2F_edge.c **** *     CY_ISR_PROTO(MyISR);
 201:.\Generated_Source\PSoC5/isr_F2F_edge.c **** *
 202:.\Generated_Source\PSoC5/isr_F2F_edge.c **** * Parameters:
 203:.\Generated_Source\PSoC5/isr_F2F_edge.c **** *   address: Address of the ISR to set in the interrupt vector table.
 204:.\Generated_Source\PSoC5/isr_F2F_edge.c **** *
 205:.\Generated_Source\PSoC5/isr_F2F_edge.c **** * Return:
 206:.\Generated_Source\PSoC5/isr_F2F_edge.c **** *   None
 207:.\Generated_Source\PSoC5/isr_F2F_edge.c **** *
 208:.\Generated_Source\PSoC5/isr_F2F_edge.c **** *******************************************************************************/
 209:.\Generated_Source\PSoC5/isr_F2F_edge.c **** void isr_F2F_edge_SetVector(cyisraddress address)
 210:.\Generated_Source\PSoC5/isr_F2F_edge.c **** {
 211              		.loc 1 210 0
 212              		.cfi_startproc
 213              		@ args = 0, pretend = 0, frame = 16
 214              		@ frame_needed = 1, uses_anonymous_args = 0
 215              		@ link register save eliminated.
 216 0000 80B4     		push	{r7}
 217              		.cfi_def_cfa_offset 4
 218              		.cfi_offset 7, -4
 219 0002 85B0     		sub	sp, sp, #20
 220              		.cfi_def_cfa_offset 24
 221 0004 00AF     		add	r7, sp, #0
 222              		.cfi_def_cfa_register 7
 223 0006 7860     		str	r0, [r7, #4]
 211:.\Generated_Source\PSoC5/isr_F2F_edge.c ****     cyisraddress * ramVectorTable;
 212:.\Generated_Source\PSoC5/isr_F2F_edge.c **** 
 213:.\Generated_Source\PSoC5/isr_F2F_edge.c ****     ramVectorTable = (cyisraddress *) *CYINT_VECT_TABLE;
 224              		.loc 1 213 0
 225 0008 054B     		ldr	r3, .L14
 226 000a 1B68     		ldr	r3, [r3]
 227 000c FB60     		str	r3, [r7, #12]
 214:.\Generated_Source\PSoC5/isr_F2F_edge.c **** 
 215:.\Generated_Source\PSoC5/isr_F2F_edge.c ****     ramVectorTable[CYINT_IRQ_BASE + (uint32)isr_F2F_edge__INTC_NUMBER] = address;
 228              		.loc 1 215 0
 229 000e FB68     		ldr	r3, [r7, #12]
 230 0010 4833     		adds	r3, r3, #72
 231 0012 7A68     		ldr	r2, [r7, #4]
 232 0014 1A60     		str	r2, [r3]
 216:.\Generated_Source\PSoC5/isr_F2F_edge.c **** }
 233              		.loc 1 216 0
 234 0016 1437     		adds	r7, r7, #20
 235 0018 BD46     		mov	sp, r7
 236              		@ sp needed
 237 001a 5DF8047B 		ldr	r7, [sp], #4
 238 001e 7047     		bx	lr
 239              	.L15:
 240              		.align	2
ARM GAS  C:\Users\Yiquing\AppData\Local\Temp\cchQmg9g.s 			page 9


 241              	.L14:
 242 0020 08ED00E0 		.word	-536810232
 243              		.cfi_endproc
 244              	.LFE4:
 245              		.size	isr_F2F_edge_SetVector, .-isr_F2F_edge_SetVector
 246              		.section	.text.isr_F2F_edge_GetVector,"ax",%progbits
 247              		.align	2
 248              		.global	isr_F2F_edge_GetVector
 249              		.thumb
 250              		.thumb_func
 251              		.type	isr_F2F_edge_GetVector, %function
 252              	isr_F2F_edge_GetVector:
 253              	.LFB5:
 217:.\Generated_Source\PSoC5/isr_F2F_edge.c **** 
 218:.\Generated_Source\PSoC5/isr_F2F_edge.c **** 
 219:.\Generated_Source\PSoC5/isr_F2F_edge.c **** /*******************************************************************************
 220:.\Generated_Source\PSoC5/isr_F2F_edge.c **** * Function Name: isr_F2F_edge_GetVector
 221:.\Generated_Source\PSoC5/isr_F2F_edge.c **** ********************************************************************************
 222:.\Generated_Source\PSoC5/isr_F2F_edge.c **** *
 223:.\Generated_Source\PSoC5/isr_F2F_edge.c **** * Summary:
 224:.\Generated_Source\PSoC5/isr_F2F_edge.c **** *   Gets the "address" of the current ISR vector for the Interrupt.
 225:.\Generated_Source\PSoC5/isr_F2F_edge.c **** *
 226:.\Generated_Source\PSoC5/isr_F2F_edge.c **** * Parameters:
 227:.\Generated_Source\PSoC5/isr_F2F_edge.c **** *   None
 228:.\Generated_Source\PSoC5/isr_F2F_edge.c **** *
 229:.\Generated_Source\PSoC5/isr_F2F_edge.c **** * Return:
 230:.\Generated_Source\PSoC5/isr_F2F_edge.c **** *   Address of the ISR in the interrupt vector table.
 231:.\Generated_Source\PSoC5/isr_F2F_edge.c **** *
 232:.\Generated_Source\PSoC5/isr_F2F_edge.c **** *******************************************************************************/
 233:.\Generated_Source\PSoC5/isr_F2F_edge.c **** cyisraddress isr_F2F_edge_GetVector(void)
 234:.\Generated_Source\PSoC5/isr_F2F_edge.c **** {
 254              		.loc 1 234 0
 255              		.cfi_startproc
 256              		@ args = 0, pretend = 0, frame = 8
 257              		@ frame_needed = 1, uses_anonymous_args = 0
 258              		@ link register save eliminated.
 259 0000 80B4     		push	{r7}
 260              		.cfi_def_cfa_offset 4
 261              		.cfi_offset 7, -4
 262 0002 83B0     		sub	sp, sp, #12
 263              		.cfi_def_cfa_offset 16
 264 0004 00AF     		add	r7, sp, #0
 265              		.cfi_def_cfa_register 7
 235:.\Generated_Source\PSoC5/isr_F2F_edge.c ****     cyisraddress * ramVectorTable;
 236:.\Generated_Source\PSoC5/isr_F2F_edge.c **** 
 237:.\Generated_Source\PSoC5/isr_F2F_edge.c ****     ramVectorTable = (cyisraddress *) *CYINT_VECT_TABLE;
 266              		.loc 1 237 0
 267 0006 054B     		ldr	r3, .L18
 268 0008 1B68     		ldr	r3, [r3]
 269 000a 7B60     		str	r3, [r7, #4]
 238:.\Generated_Source\PSoC5/isr_F2F_edge.c **** 
 239:.\Generated_Source\PSoC5/isr_F2F_edge.c ****     return ramVectorTable[CYINT_IRQ_BASE + (uint32)isr_F2F_edge__INTC_NUMBER];
 270              		.loc 1 239 0
 271 000c 7B68     		ldr	r3, [r7, #4]
 272 000e 9B6C     		ldr	r3, [r3, #72]
 240:.\Generated_Source\PSoC5/isr_F2F_edge.c **** }
 273              		.loc 1 240 0
ARM GAS  C:\Users\Yiquing\AppData\Local\Temp\cchQmg9g.s 			page 10


 274 0010 1846     		mov	r0, r3
 275 0012 0C37     		adds	r7, r7, #12
 276 0014 BD46     		mov	sp, r7
 277              		@ sp needed
 278 0016 5DF8047B 		ldr	r7, [sp], #4
 279 001a 7047     		bx	lr
 280              	.L19:
 281              		.align	2
 282              	.L18:
 283 001c 08ED00E0 		.word	-536810232
 284              		.cfi_endproc
 285              	.LFE5:
 286              		.size	isr_F2F_edge_GetVector, .-isr_F2F_edge_GetVector
 287              		.section	.text.isr_F2F_edge_SetPriority,"ax",%progbits
 288              		.align	2
 289              		.global	isr_F2F_edge_SetPriority
 290              		.thumb
 291              		.thumb_func
 292              		.type	isr_F2F_edge_SetPriority, %function
 293              	isr_F2F_edge_SetPriority:
 294              	.LFB6:
 241:.\Generated_Source\PSoC5/isr_F2F_edge.c **** 
 242:.\Generated_Source\PSoC5/isr_F2F_edge.c **** 
 243:.\Generated_Source\PSoC5/isr_F2F_edge.c **** /*******************************************************************************
 244:.\Generated_Source\PSoC5/isr_F2F_edge.c **** * Function Name: isr_F2F_edge_SetPriority
 245:.\Generated_Source\PSoC5/isr_F2F_edge.c **** ********************************************************************************
 246:.\Generated_Source\PSoC5/isr_F2F_edge.c **** *
 247:.\Generated_Source\PSoC5/isr_F2F_edge.c **** * Summary:
 248:.\Generated_Source\PSoC5/isr_F2F_edge.c **** *   Sets the Priority of the Interrupt. 
 249:.\Generated_Source\PSoC5/isr_F2F_edge.c **** *
 250:.\Generated_Source\PSoC5/isr_F2F_edge.c **** *   Note calling isr_F2F_edge_Start or isr_F2F_edge_StartEx will 
 251:.\Generated_Source\PSoC5/isr_F2F_edge.c **** *   override any effect this API would have had. This API should only be called
 252:.\Generated_Source\PSoC5/isr_F2F_edge.c **** *   after isr_F2F_edge_Start or isr_F2F_edge_StartEx has been called. 
 253:.\Generated_Source\PSoC5/isr_F2F_edge.c **** *   To set the initial priority for the component, use the Design-Wide Resources
 254:.\Generated_Source\PSoC5/isr_F2F_edge.c **** *   Interrupt Editor.
 255:.\Generated_Source\PSoC5/isr_F2F_edge.c **** *
 256:.\Generated_Source\PSoC5/isr_F2F_edge.c **** *   Note This API has no effect on Non-maskable interrupt NMI).
 257:.\Generated_Source\PSoC5/isr_F2F_edge.c **** *
 258:.\Generated_Source\PSoC5/isr_F2F_edge.c **** * Parameters:
 259:.\Generated_Source\PSoC5/isr_F2F_edge.c **** *   priority: Priority of the interrupt, 0 being the highest priority
 260:.\Generated_Source\PSoC5/isr_F2F_edge.c **** *             PSoC 3 and PSoC 5LP: Priority is from 0 to 7.
 261:.\Generated_Source\PSoC5/isr_F2F_edge.c **** *             PSoC 4: Priority is from 0 to 3.
 262:.\Generated_Source\PSoC5/isr_F2F_edge.c **** *
 263:.\Generated_Source\PSoC5/isr_F2F_edge.c **** * Return:
 264:.\Generated_Source\PSoC5/isr_F2F_edge.c **** *   None
 265:.\Generated_Source\PSoC5/isr_F2F_edge.c **** *
 266:.\Generated_Source\PSoC5/isr_F2F_edge.c **** *******************************************************************************/
 267:.\Generated_Source\PSoC5/isr_F2F_edge.c **** void isr_F2F_edge_SetPriority(uint8 priority)
 268:.\Generated_Source\PSoC5/isr_F2F_edge.c **** {
 295              		.loc 1 268 0
 296              		.cfi_startproc
 297              		@ args = 0, pretend = 0, frame = 8
 298              		@ frame_needed = 1, uses_anonymous_args = 0
 299              		@ link register save eliminated.
 300 0000 80B4     		push	{r7}
 301              		.cfi_def_cfa_offset 4
 302              		.cfi_offset 7, -4
ARM GAS  C:\Users\Yiquing\AppData\Local\Temp\cchQmg9g.s 			page 11


 303 0002 83B0     		sub	sp, sp, #12
 304              		.cfi_def_cfa_offset 16
 305 0004 00AF     		add	r7, sp, #0
 306              		.cfi_def_cfa_register 7
 307 0006 0346     		mov	r3, r0
 308 0008 FB71     		strb	r3, [r7, #7]
 269:.\Generated_Source\PSoC5/isr_F2F_edge.c ****     *isr_F2F_edge_INTC_PRIOR = priority << 5;
 309              		.loc 1 269 0
 310 000a 054B     		ldr	r3, .L21
 311 000c FA79     		ldrb	r2, [r7, #7]
 312 000e 5201     		lsls	r2, r2, #5
 313 0010 D2B2     		uxtb	r2, r2
 314 0012 1A70     		strb	r2, [r3]
 270:.\Generated_Source\PSoC5/isr_F2F_edge.c **** }
 315              		.loc 1 270 0
 316 0014 0C37     		adds	r7, r7, #12
 317 0016 BD46     		mov	sp, r7
 318              		@ sp needed
 319 0018 5DF8047B 		ldr	r7, [sp], #4
 320 001c 7047     		bx	lr
 321              	.L22:
 322 001e 00BF     		.align	2
 323              	.L21:
 324 0020 02E400E0 		.word	-536812542
 325              		.cfi_endproc
 326              	.LFE6:
 327              		.size	isr_F2F_edge_SetPriority, .-isr_F2F_edge_SetPriority
 328              		.section	.text.isr_F2F_edge_GetPriority,"ax",%progbits
 329              		.align	2
 330              		.global	isr_F2F_edge_GetPriority
 331              		.thumb
 332              		.thumb_func
 333              		.type	isr_F2F_edge_GetPriority, %function
 334              	isr_F2F_edge_GetPriority:
 335              	.LFB7:
 271:.\Generated_Source\PSoC5/isr_F2F_edge.c **** 
 272:.\Generated_Source\PSoC5/isr_F2F_edge.c **** 
 273:.\Generated_Source\PSoC5/isr_F2F_edge.c **** /*******************************************************************************
 274:.\Generated_Source\PSoC5/isr_F2F_edge.c **** * Function Name: isr_F2F_edge_GetPriority
 275:.\Generated_Source\PSoC5/isr_F2F_edge.c **** ********************************************************************************
 276:.\Generated_Source\PSoC5/isr_F2F_edge.c **** *
 277:.\Generated_Source\PSoC5/isr_F2F_edge.c **** * Summary:
 278:.\Generated_Source\PSoC5/isr_F2F_edge.c **** *   Gets the Priority of the Interrupt.
 279:.\Generated_Source\PSoC5/isr_F2F_edge.c **** *
 280:.\Generated_Source\PSoC5/isr_F2F_edge.c **** * Parameters:
 281:.\Generated_Source\PSoC5/isr_F2F_edge.c **** *   None
 282:.\Generated_Source\PSoC5/isr_F2F_edge.c **** *
 283:.\Generated_Source\PSoC5/isr_F2F_edge.c **** * Return:
 284:.\Generated_Source\PSoC5/isr_F2F_edge.c **** *   Priority of the interrupt, 0 being the highest priority
 285:.\Generated_Source\PSoC5/isr_F2F_edge.c **** *    PSoC 3 and PSoC 5LP: Priority is from 0 to 7.
 286:.\Generated_Source\PSoC5/isr_F2F_edge.c **** *    PSoC 4: Priority is from 0 to 3.
 287:.\Generated_Source\PSoC5/isr_F2F_edge.c **** *
 288:.\Generated_Source\PSoC5/isr_F2F_edge.c **** *******************************************************************************/
 289:.\Generated_Source\PSoC5/isr_F2F_edge.c **** uint8 isr_F2F_edge_GetPriority(void)
 290:.\Generated_Source\PSoC5/isr_F2F_edge.c **** {
 336              		.loc 1 290 0
 337              		.cfi_startproc
ARM GAS  C:\Users\Yiquing\AppData\Local\Temp\cchQmg9g.s 			page 12


 338              		@ args = 0, pretend = 0, frame = 8
 339              		@ frame_needed = 1, uses_anonymous_args = 0
 340              		@ link register save eliminated.
 341 0000 80B4     		push	{r7}
 342              		.cfi_def_cfa_offset 4
 343              		.cfi_offset 7, -4
 344 0002 83B0     		sub	sp, sp, #12
 345              		.cfi_def_cfa_offset 16
 346 0004 00AF     		add	r7, sp, #0
 347              		.cfi_def_cfa_register 7
 291:.\Generated_Source\PSoC5/isr_F2F_edge.c ****     uint8 priority;
 292:.\Generated_Source\PSoC5/isr_F2F_edge.c **** 
 293:.\Generated_Source\PSoC5/isr_F2F_edge.c **** 
 294:.\Generated_Source\PSoC5/isr_F2F_edge.c ****     priority = *isr_F2F_edge_INTC_PRIOR >> 5;
 348              		.loc 1 294 0
 349 0006 064B     		ldr	r3, .L25
 350 0008 1B78     		ldrb	r3, [r3]
 351 000a DBB2     		uxtb	r3, r3
 352 000c 5B09     		lsrs	r3, r3, #5
 353 000e FB71     		strb	r3, [r7, #7]
 295:.\Generated_Source\PSoC5/isr_F2F_edge.c **** 
 296:.\Generated_Source\PSoC5/isr_F2F_edge.c ****     return priority;
 354              		.loc 1 296 0
 355 0010 FB79     		ldrb	r3, [r7, #7]	@ zero_extendqisi2
 297:.\Generated_Source\PSoC5/isr_F2F_edge.c **** }
 356              		.loc 1 297 0
 357 0012 1846     		mov	r0, r3
 358 0014 0C37     		adds	r7, r7, #12
 359 0016 BD46     		mov	sp, r7
 360              		@ sp needed
 361 0018 5DF8047B 		ldr	r7, [sp], #4
 362 001c 7047     		bx	lr
 363              	.L26:
 364 001e 00BF     		.align	2
 365              	.L25:
 366 0020 02E400E0 		.word	-536812542
 367              		.cfi_endproc
 368              	.LFE7:
 369              		.size	isr_F2F_edge_GetPriority, .-isr_F2F_edge_GetPriority
 370              		.section	.text.isr_F2F_edge_Enable,"ax",%progbits
 371              		.align	2
 372              		.global	isr_F2F_edge_Enable
 373              		.thumb
 374              		.thumb_func
 375              		.type	isr_F2F_edge_Enable, %function
 376              	isr_F2F_edge_Enable:
 377              	.LFB8:
 298:.\Generated_Source\PSoC5/isr_F2F_edge.c **** 
 299:.\Generated_Source\PSoC5/isr_F2F_edge.c **** 
 300:.\Generated_Source\PSoC5/isr_F2F_edge.c **** /*******************************************************************************
 301:.\Generated_Source\PSoC5/isr_F2F_edge.c **** * Function Name: isr_F2F_edge_Enable
 302:.\Generated_Source\PSoC5/isr_F2F_edge.c **** ********************************************************************************
 303:.\Generated_Source\PSoC5/isr_F2F_edge.c **** *
 304:.\Generated_Source\PSoC5/isr_F2F_edge.c **** * Summary:
 305:.\Generated_Source\PSoC5/isr_F2F_edge.c **** *   Enables the interrupt to the interrupt controller. Do not call this function
 306:.\Generated_Source\PSoC5/isr_F2F_edge.c **** *   unless ISR_Start() has been called or the functionality of the ISR_Start() 
 307:.\Generated_Source\PSoC5/isr_F2F_edge.c **** *   function, which sets the vector and the priority, has been called.
ARM GAS  C:\Users\Yiquing\AppData\Local\Temp\cchQmg9g.s 			page 13


 308:.\Generated_Source\PSoC5/isr_F2F_edge.c **** *
 309:.\Generated_Source\PSoC5/isr_F2F_edge.c **** * Parameters:
 310:.\Generated_Source\PSoC5/isr_F2F_edge.c **** *   None
 311:.\Generated_Source\PSoC5/isr_F2F_edge.c **** *
 312:.\Generated_Source\PSoC5/isr_F2F_edge.c **** * Return:
 313:.\Generated_Source\PSoC5/isr_F2F_edge.c **** *   None
 314:.\Generated_Source\PSoC5/isr_F2F_edge.c **** *
 315:.\Generated_Source\PSoC5/isr_F2F_edge.c **** *******************************************************************************/
 316:.\Generated_Source\PSoC5/isr_F2F_edge.c **** void isr_F2F_edge_Enable(void)
 317:.\Generated_Source\PSoC5/isr_F2F_edge.c **** {
 378              		.loc 1 317 0
 379              		.cfi_startproc
 380              		@ args = 0, pretend = 0, frame = 0
 381              		@ frame_needed = 1, uses_anonymous_args = 0
 382              		@ link register save eliminated.
 383 0000 80B4     		push	{r7}
 384              		.cfi_def_cfa_offset 4
 385              		.cfi_offset 7, -4
 386 0002 00AF     		add	r7, sp, #0
 387              		.cfi_def_cfa_register 7
 318:.\Generated_Source\PSoC5/isr_F2F_edge.c ****     /* Enable the general interrupt. */
 319:.\Generated_Source\PSoC5/isr_F2F_edge.c ****     *isr_F2F_edge_INTC_SET_EN = isr_F2F_edge__INTC_MASK;
 388              		.loc 1 319 0
 389 0004 034B     		ldr	r3, .L28
 390 0006 0422     		movs	r2, #4
 391 0008 1A60     		str	r2, [r3]
 320:.\Generated_Source\PSoC5/isr_F2F_edge.c **** }
 392              		.loc 1 320 0
 393 000a BD46     		mov	sp, r7
 394              		@ sp needed
 395 000c 5DF8047B 		ldr	r7, [sp], #4
 396 0010 7047     		bx	lr
 397              	.L29:
 398 0012 00BF     		.align	2
 399              	.L28:
 400 0014 00E100E0 		.word	-536813312
 401              		.cfi_endproc
 402              	.LFE8:
 403              		.size	isr_F2F_edge_Enable, .-isr_F2F_edge_Enable
 404              		.section	.text.isr_F2F_edge_GetState,"ax",%progbits
 405              		.align	2
 406              		.global	isr_F2F_edge_GetState
 407              		.thumb
 408              		.thumb_func
 409              		.type	isr_F2F_edge_GetState, %function
 410              	isr_F2F_edge_GetState:
 411              	.LFB9:
 321:.\Generated_Source\PSoC5/isr_F2F_edge.c **** 
 322:.\Generated_Source\PSoC5/isr_F2F_edge.c **** 
 323:.\Generated_Source\PSoC5/isr_F2F_edge.c **** /*******************************************************************************
 324:.\Generated_Source\PSoC5/isr_F2F_edge.c **** * Function Name: isr_F2F_edge_GetState
 325:.\Generated_Source\PSoC5/isr_F2F_edge.c **** ********************************************************************************
 326:.\Generated_Source\PSoC5/isr_F2F_edge.c **** *
 327:.\Generated_Source\PSoC5/isr_F2F_edge.c **** * Summary:
 328:.\Generated_Source\PSoC5/isr_F2F_edge.c **** *   Gets the state (enabled, disabled) of the Interrupt.
 329:.\Generated_Source\PSoC5/isr_F2F_edge.c **** *
 330:.\Generated_Source\PSoC5/isr_F2F_edge.c **** * Parameters:
ARM GAS  C:\Users\Yiquing\AppData\Local\Temp\cchQmg9g.s 			page 14


 331:.\Generated_Source\PSoC5/isr_F2F_edge.c **** *   None
 332:.\Generated_Source\PSoC5/isr_F2F_edge.c **** *
 333:.\Generated_Source\PSoC5/isr_F2F_edge.c **** * Return:
 334:.\Generated_Source\PSoC5/isr_F2F_edge.c **** *   1 if enabled, 0 if disabled.
 335:.\Generated_Source\PSoC5/isr_F2F_edge.c **** *
 336:.\Generated_Source\PSoC5/isr_F2F_edge.c **** *******************************************************************************/
 337:.\Generated_Source\PSoC5/isr_F2F_edge.c **** uint8 isr_F2F_edge_GetState(void)
 338:.\Generated_Source\PSoC5/isr_F2F_edge.c **** {
 412              		.loc 1 338 0
 413              		.cfi_startproc
 414              		@ args = 0, pretend = 0, frame = 0
 415              		@ frame_needed = 1, uses_anonymous_args = 0
 416              		@ link register save eliminated.
 417 0000 80B4     		push	{r7}
 418              		.cfi_def_cfa_offset 4
 419              		.cfi_offset 7, -4
 420 0002 00AF     		add	r7, sp, #0
 421              		.cfi_def_cfa_register 7
 339:.\Generated_Source\PSoC5/isr_F2F_edge.c ****     /* Get the state of the general interrupt. */
 340:.\Generated_Source\PSoC5/isr_F2F_edge.c ****     return ((*isr_F2F_edge_INTC_SET_EN & (uint32)isr_F2F_edge__INTC_MASK) != 0u) ? 1u:0u;
 422              		.loc 1 340 0
 423 0004 064B     		ldr	r3, .L34
 424 0006 1B68     		ldr	r3, [r3]
 425 0008 03F00403 		and	r3, r3, #4
 426 000c 002B     		cmp	r3, #0
 427 000e 01D0     		beq	.L31
 428              		.loc 1 340 0 is_stmt 0 discriminator 1
 429 0010 0123     		movs	r3, #1
 430 0012 00E0     		b	.L32
 431              	.L31:
 432              		.loc 1 340 0 discriminator 2
 433 0014 0023     		movs	r3, #0
 434              	.L32:
 341:.\Generated_Source\PSoC5/isr_F2F_edge.c **** }
 435              		.loc 1 341 0 is_stmt 1 discriminator 3
 436 0016 1846     		mov	r0, r3
 437 0018 BD46     		mov	sp, r7
 438              		@ sp needed
 439 001a 5DF8047B 		ldr	r7, [sp], #4
 440 001e 7047     		bx	lr
 441              	.L35:
 442              		.align	2
 443              	.L34:
 444 0020 00E100E0 		.word	-536813312
 445              		.cfi_endproc
 446              	.LFE9:
 447              		.size	isr_F2F_edge_GetState, .-isr_F2F_edge_GetState
 448              		.section	.text.isr_F2F_edge_Disable,"ax",%progbits
 449              		.align	2
 450              		.global	isr_F2F_edge_Disable
 451              		.thumb
 452              		.thumb_func
 453              		.type	isr_F2F_edge_Disable, %function
 454              	isr_F2F_edge_Disable:
 455              	.LFB10:
 342:.\Generated_Source\PSoC5/isr_F2F_edge.c **** 
 343:.\Generated_Source\PSoC5/isr_F2F_edge.c **** 
ARM GAS  C:\Users\Yiquing\AppData\Local\Temp\cchQmg9g.s 			page 15


 344:.\Generated_Source\PSoC5/isr_F2F_edge.c **** /*******************************************************************************
 345:.\Generated_Source\PSoC5/isr_F2F_edge.c **** * Function Name: isr_F2F_edge_Disable
 346:.\Generated_Source\PSoC5/isr_F2F_edge.c **** ********************************************************************************
 347:.\Generated_Source\PSoC5/isr_F2F_edge.c **** *
 348:.\Generated_Source\PSoC5/isr_F2F_edge.c **** * Summary:
 349:.\Generated_Source\PSoC5/isr_F2F_edge.c **** *   Disables the Interrupt in the interrupt controller.
 350:.\Generated_Source\PSoC5/isr_F2F_edge.c **** *
 351:.\Generated_Source\PSoC5/isr_F2F_edge.c **** * Parameters:
 352:.\Generated_Source\PSoC5/isr_F2F_edge.c **** *   None
 353:.\Generated_Source\PSoC5/isr_F2F_edge.c **** *
 354:.\Generated_Source\PSoC5/isr_F2F_edge.c **** * Return:
 355:.\Generated_Source\PSoC5/isr_F2F_edge.c **** *   None
 356:.\Generated_Source\PSoC5/isr_F2F_edge.c **** *
 357:.\Generated_Source\PSoC5/isr_F2F_edge.c **** *******************************************************************************/
 358:.\Generated_Source\PSoC5/isr_F2F_edge.c **** void isr_F2F_edge_Disable(void)
 359:.\Generated_Source\PSoC5/isr_F2F_edge.c **** {
 456              		.loc 1 359 0
 457              		.cfi_startproc
 458              		@ args = 0, pretend = 0, frame = 0
 459              		@ frame_needed = 1, uses_anonymous_args = 0
 460              		@ link register save eliminated.
 461 0000 80B4     		push	{r7}
 462              		.cfi_def_cfa_offset 4
 463              		.cfi_offset 7, -4
 464 0002 00AF     		add	r7, sp, #0
 465              		.cfi_def_cfa_register 7
 360:.\Generated_Source\PSoC5/isr_F2F_edge.c ****     /* Disable the general interrupt. */
 361:.\Generated_Source\PSoC5/isr_F2F_edge.c ****     *isr_F2F_edge_INTC_CLR_EN = isr_F2F_edge__INTC_MASK;
 466              		.loc 1 361 0
 467 0004 034B     		ldr	r3, .L37
 468 0006 0422     		movs	r2, #4
 469 0008 1A60     		str	r2, [r3]
 362:.\Generated_Source\PSoC5/isr_F2F_edge.c **** }
 470              		.loc 1 362 0
 471 000a BD46     		mov	sp, r7
 472              		@ sp needed
 473 000c 5DF8047B 		ldr	r7, [sp], #4
 474 0010 7047     		bx	lr
 475              	.L38:
 476 0012 00BF     		.align	2
 477              	.L37:
 478 0014 80E100E0 		.word	-536813184
 479              		.cfi_endproc
 480              	.LFE10:
 481              		.size	isr_F2F_edge_Disable, .-isr_F2F_edge_Disable
 482              		.section	.text.isr_F2F_edge_SetPending,"ax",%progbits
 483              		.align	2
 484              		.global	isr_F2F_edge_SetPending
 485              		.thumb
 486              		.thumb_func
 487              		.type	isr_F2F_edge_SetPending, %function
 488              	isr_F2F_edge_SetPending:
 489              	.LFB11:
 363:.\Generated_Source\PSoC5/isr_F2F_edge.c **** 
 364:.\Generated_Source\PSoC5/isr_F2F_edge.c **** 
 365:.\Generated_Source\PSoC5/isr_F2F_edge.c **** /*******************************************************************************
 366:.\Generated_Source\PSoC5/isr_F2F_edge.c **** * Function Name: isr_F2F_edge_SetPending
ARM GAS  C:\Users\Yiquing\AppData\Local\Temp\cchQmg9g.s 			page 16


 367:.\Generated_Source\PSoC5/isr_F2F_edge.c **** ********************************************************************************
 368:.\Generated_Source\PSoC5/isr_F2F_edge.c **** *
 369:.\Generated_Source\PSoC5/isr_F2F_edge.c **** * Summary:
 370:.\Generated_Source\PSoC5/isr_F2F_edge.c **** *   Causes the Interrupt to enter the pending state, a software method of
 371:.\Generated_Source\PSoC5/isr_F2F_edge.c **** *   generating the interrupt.
 372:.\Generated_Source\PSoC5/isr_F2F_edge.c **** *
 373:.\Generated_Source\PSoC5/isr_F2F_edge.c **** * Parameters:
 374:.\Generated_Source\PSoC5/isr_F2F_edge.c **** *   None
 375:.\Generated_Source\PSoC5/isr_F2F_edge.c **** *
 376:.\Generated_Source\PSoC5/isr_F2F_edge.c **** * Return:
 377:.\Generated_Source\PSoC5/isr_F2F_edge.c **** *   None
 378:.\Generated_Source\PSoC5/isr_F2F_edge.c **** *
 379:.\Generated_Source\PSoC5/isr_F2F_edge.c **** * Side Effects:
 380:.\Generated_Source\PSoC5/isr_F2F_edge.c **** *   If interrupts are enabled and the interrupt is set up properly, the ISR is
 381:.\Generated_Source\PSoC5/isr_F2F_edge.c **** *   entered (depending on the priority of this interrupt and other pending 
 382:.\Generated_Source\PSoC5/isr_F2F_edge.c **** *   interrupts).
 383:.\Generated_Source\PSoC5/isr_F2F_edge.c **** *
 384:.\Generated_Source\PSoC5/isr_F2F_edge.c **** *******************************************************************************/
 385:.\Generated_Source\PSoC5/isr_F2F_edge.c **** void isr_F2F_edge_SetPending(void)
 386:.\Generated_Source\PSoC5/isr_F2F_edge.c **** {
 490              		.loc 1 386 0
 491              		.cfi_startproc
 492              		@ args = 0, pretend = 0, frame = 0
 493              		@ frame_needed = 1, uses_anonymous_args = 0
 494              		@ link register save eliminated.
 495 0000 80B4     		push	{r7}
 496              		.cfi_def_cfa_offset 4
 497              		.cfi_offset 7, -4
 498 0002 00AF     		add	r7, sp, #0
 499              		.cfi_def_cfa_register 7
 387:.\Generated_Source\PSoC5/isr_F2F_edge.c ****     *isr_F2F_edge_INTC_SET_PD = isr_F2F_edge__INTC_MASK;
 500              		.loc 1 387 0
 501 0004 034B     		ldr	r3, .L40
 502 0006 0422     		movs	r2, #4
 503 0008 1A60     		str	r2, [r3]
 388:.\Generated_Source\PSoC5/isr_F2F_edge.c **** }
 504              		.loc 1 388 0
 505 000a BD46     		mov	sp, r7
 506              		@ sp needed
 507 000c 5DF8047B 		ldr	r7, [sp], #4
 508 0010 7047     		bx	lr
 509              	.L41:
 510 0012 00BF     		.align	2
 511              	.L40:
 512 0014 00E200E0 		.word	-536813056
 513              		.cfi_endproc
 514              	.LFE11:
 515              		.size	isr_F2F_edge_SetPending, .-isr_F2F_edge_SetPending
 516              		.section	.text.isr_F2F_edge_ClearPending,"ax",%progbits
 517              		.align	2
 518              		.global	isr_F2F_edge_ClearPending
 519              		.thumb
 520              		.thumb_func
 521              		.type	isr_F2F_edge_ClearPending, %function
 522              	isr_F2F_edge_ClearPending:
 523              	.LFB12:
 389:.\Generated_Source\PSoC5/isr_F2F_edge.c **** 
ARM GAS  C:\Users\Yiquing\AppData\Local\Temp\cchQmg9g.s 			page 17


 390:.\Generated_Source\PSoC5/isr_F2F_edge.c **** 
 391:.\Generated_Source\PSoC5/isr_F2F_edge.c **** /*******************************************************************************
 392:.\Generated_Source\PSoC5/isr_F2F_edge.c **** * Function Name: isr_F2F_edge_ClearPending
 393:.\Generated_Source\PSoC5/isr_F2F_edge.c **** ********************************************************************************
 394:.\Generated_Source\PSoC5/isr_F2F_edge.c **** *
 395:.\Generated_Source\PSoC5/isr_F2F_edge.c **** * Summary:
 396:.\Generated_Source\PSoC5/isr_F2F_edge.c **** *   Clears a pending interrupt in the interrupt controller.
 397:.\Generated_Source\PSoC5/isr_F2F_edge.c **** *
 398:.\Generated_Source\PSoC5/isr_F2F_edge.c **** *   Note Some interrupt sources are clear-on-read and require the block 
 399:.\Generated_Source\PSoC5/isr_F2F_edge.c **** *   interrupt/status register to be read/cleared with the appropriate block API 
 400:.\Generated_Source\PSoC5/isr_F2F_edge.c **** *   (GPIO, UART, and so on). Otherwise the ISR will continue to remain in 
 401:.\Generated_Source\PSoC5/isr_F2F_edge.c **** *   pending state even though the interrupt itself is cleared using this API.
 402:.\Generated_Source\PSoC5/isr_F2F_edge.c **** *
 403:.\Generated_Source\PSoC5/isr_F2F_edge.c **** * Parameters:
 404:.\Generated_Source\PSoC5/isr_F2F_edge.c **** *   None
 405:.\Generated_Source\PSoC5/isr_F2F_edge.c **** *
 406:.\Generated_Source\PSoC5/isr_F2F_edge.c **** * Return:
 407:.\Generated_Source\PSoC5/isr_F2F_edge.c **** *   None
 408:.\Generated_Source\PSoC5/isr_F2F_edge.c **** *
 409:.\Generated_Source\PSoC5/isr_F2F_edge.c **** *******************************************************************************/
 410:.\Generated_Source\PSoC5/isr_F2F_edge.c **** void isr_F2F_edge_ClearPending(void)
 411:.\Generated_Source\PSoC5/isr_F2F_edge.c **** {
 524              		.loc 1 411 0
 525              		.cfi_startproc
 526              		@ args = 0, pretend = 0, frame = 0
 527              		@ frame_needed = 1, uses_anonymous_args = 0
 528              		@ link register save eliminated.
 529 0000 80B4     		push	{r7}
 530              		.cfi_def_cfa_offset 4
 531              		.cfi_offset 7, -4
 532 0002 00AF     		add	r7, sp, #0
 533              		.cfi_def_cfa_register 7
 412:.\Generated_Source\PSoC5/isr_F2F_edge.c ****     *isr_F2F_edge_INTC_CLR_PD = isr_F2F_edge__INTC_MASK;
 534              		.loc 1 412 0
 535 0004 034B     		ldr	r3, .L43
 536 0006 0422     		movs	r2, #4
 537 0008 1A60     		str	r2, [r3]
 413:.\Generated_Source\PSoC5/isr_F2F_edge.c **** }
 538              		.loc 1 413 0
 539 000a BD46     		mov	sp, r7
 540              		@ sp needed
 541 000c 5DF8047B 		ldr	r7, [sp], #4
 542 0010 7047     		bx	lr
 543              	.L44:
 544 0012 00BF     		.align	2
 545              	.L43:
 546 0014 80E200E0 		.word	-536812928
 547              		.cfi_endproc
 548              	.LFE12:
 549              		.size	isr_F2F_edge_ClearPending, .-isr_F2F_edge_ClearPending
 550              		.text
 551              	.Letext0:
 552              		.file 2 "Generated_Source\\PSoC5/cytypes.h"
 553              		.file 3 "./softuart.h"
 554              		.file 4 "./system.h"