ARM GAS  C:\Users\Yiquing\AppData\Local\Temp\ccsLuOSR.s 			page 1


   1              		.syntax unified
   2              		.cpu cortex-m3
   3              		.fpu softvfp
   4              		.eabi_attribute 20, 1
   5              		.eabi_attribute 21, 1
   6              		.eabi_attribute 23, 3
   7              		.eabi_attribute 24, 1
   8              		.eabi_attribute 25, 1
   9              		.eabi_attribute 26, 1
  10              		.eabi_attribute 30, 6
  11              		.eabi_attribute 34, 1
  12              		.eabi_attribute 18, 4
  13              		.thumb
  14              		.file	"Tamper_Timer_PM.c"
  15              		.text
  16              	.Ltext0:
  17              		.cfi_sections	.debug_frame
  18              		.bss
  19              		.align	2
  20              	Tamper_Timer_backup:
  21 0000 00       		.space	1
  22 0001 000000   		.section	.text.Tamper_Timer_SaveConfig,"ax",%progbits
  23              		.align	2
  24              		.global	Tamper_Timer_SaveConfig
  25              		.thumb
  26              		.thumb_func
  27              		.type	Tamper_Timer_SaveConfig, %function
  28              	Tamper_Timer_SaveConfig:
  29              	.LFB0:
  30              		.file 1 ".\\Generated_Source\\PSoC5\\Tamper_Timer_PM.c"
   1:.\Generated_Source\PSoC5/Tamper_Timer_PM.c **** /*******************************************************************************
   2:.\Generated_Source\PSoC5/Tamper_Timer_PM.c **** * File Name: Tamper_Timer_PM.c
   3:.\Generated_Source\PSoC5/Tamper_Timer_PM.c **** * Version 2.70
   4:.\Generated_Source\PSoC5/Tamper_Timer_PM.c **** *
   5:.\Generated_Source\PSoC5/Tamper_Timer_PM.c **** *  Description:
   6:.\Generated_Source\PSoC5/Tamper_Timer_PM.c **** *     This file provides the power management source code to API for the
   7:.\Generated_Source\PSoC5/Tamper_Timer_PM.c **** *     Timer.
   8:.\Generated_Source\PSoC5/Tamper_Timer_PM.c **** *
   9:.\Generated_Source\PSoC5/Tamper_Timer_PM.c **** *   Note:
  10:.\Generated_Source\PSoC5/Tamper_Timer_PM.c **** *     None
  11:.\Generated_Source\PSoC5/Tamper_Timer_PM.c **** *
  12:.\Generated_Source\PSoC5/Tamper_Timer_PM.c **** *******************************************************************************
  13:.\Generated_Source\PSoC5/Tamper_Timer_PM.c **** * Copyright 2008-2014, Cypress Semiconductor Corporation.  All rights reserved.
  14:.\Generated_Source\PSoC5/Tamper_Timer_PM.c **** * You may use this file only in accordance with the license, terms, conditions,
  15:.\Generated_Source\PSoC5/Tamper_Timer_PM.c **** * disclaimers, and limitations in the end user license agreement accompanying
  16:.\Generated_Source\PSoC5/Tamper_Timer_PM.c **** * the software package with which this file was provided.
  17:.\Generated_Source\PSoC5/Tamper_Timer_PM.c **** ********************************************************************************/
  18:.\Generated_Source\PSoC5/Tamper_Timer_PM.c **** 
  19:.\Generated_Source\PSoC5/Tamper_Timer_PM.c **** #include "Tamper_Timer.h"
  20:.\Generated_Source\PSoC5/Tamper_Timer_PM.c **** 
  21:.\Generated_Source\PSoC5/Tamper_Timer_PM.c **** static Tamper_Timer_backupStruct Tamper_Timer_backup;
  22:.\Generated_Source\PSoC5/Tamper_Timer_PM.c **** 
  23:.\Generated_Source\PSoC5/Tamper_Timer_PM.c **** 
  24:.\Generated_Source\PSoC5/Tamper_Timer_PM.c **** /*******************************************************************************
  25:.\Generated_Source\PSoC5/Tamper_Timer_PM.c **** * Function Name: Tamper_Timer_SaveConfig
  26:.\Generated_Source\PSoC5/Tamper_Timer_PM.c **** ********************************************************************************
  27:.\Generated_Source\PSoC5/Tamper_Timer_PM.c **** *
ARM GAS  C:\Users\Yiquing\AppData\Local\Temp\ccsLuOSR.s 			page 2


  28:.\Generated_Source\PSoC5/Tamper_Timer_PM.c **** * Summary:
  29:.\Generated_Source\PSoC5/Tamper_Timer_PM.c **** *     Save the current user configuration
  30:.\Generated_Source\PSoC5/Tamper_Timer_PM.c **** *
  31:.\Generated_Source\PSoC5/Tamper_Timer_PM.c **** * Parameters:
  32:.\Generated_Source\PSoC5/Tamper_Timer_PM.c **** *  void
  33:.\Generated_Source\PSoC5/Tamper_Timer_PM.c **** *
  34:.\Generated_Source\PSoC5/Tamper_Timer_PM.c **** * Return:
  35:.\Generated_Source\PSoC5/Tamper_Timer_PM.c **** *  void
  36:.\Generated_Source\PSoC5/Tamper_Timer_PM.c **** *
  37:.\Generated_Source\PSoC5/Tamper_Timer_PM.c **** * Global variables:
  38:.\Generated_Source\PSoC5/Tamper_Timer_PM.c **** *  Tamper_Timer_backup:  Variables of this global structure are modified to
  39:.\Generated_Source\PSoC5/Tamper_Timer_PM.c **** *  store the values of non retention configuration registers when Sleep() API is
  40:.\Generated_Source\PSoC5/Tamper_Timer_PM.c **** *  called.
  41:.\Generated_Source\PSoC5/Tamper_Timer_PM.c **** *
  42:.\Generated_Source\PSoC5/Tamper_Timer_PM.c **** *******************************************************************************/
  43:.\Generated_Source\PSoC5/Tamper_Timer_PM.c **** void Tamper_Timer_SaveConfig(void) 
  44:.\Generated_Source\PSoC5/Tamper_Timer_PM.c **** {
  31              		.loc 1 44 0
  32              		.cfi_startproc
  33              		@ args = 0, pretend = 0, frame = 0
  34              		@ frame_needed = 1, uses_anonymous_args = 0
  35              		@ link register save eliminated.
  36 0000 80B4     		push	{r7}
  37              		.cfi_def_cfa_offset 4
  38              		.cfi_offset 7, -4
  39 0002 00AF     		add	r7, sp, #0
  40              		.cfi_def_cfa_register 7
  45:.\Generated_Source\PSoC5/Tamper_Timer_PM.c ****     #if (!Tamper_Timer_UsingFixedFunction)
  46:.\Generated_Source\PSoC5/Tamper_Timer_PM.c ****         Tamper_Timer_backup.TimerUdb = Tamper_Timer_ReadCounter();
  47:.\Generated_Source\PSoC5/Tamper_Timer_PM.c ****         Tamper_Timer_backup.InterruptMaskValue = Tamper_Timer_STATUS_MASK;
  48:.\Generated_Source\PSoC5/Tamper_Timer_PM.c ****         #if (Tamper_Timer_UsingHWCaptureCounter)
  49:.\Generated_Source\PSoC5/Tamper_Timer_PM.c ****             Tamper_Timer_backup.TimerCaptureCounter = Tamper_Timer_ReadCaptureCount();
  50:.\Generated_Source\PSoC5/Tamper_Timer_PM.c ****         #endif /* Back Up capture counter register  */
  51:.\Generated_Source\PSoC5/Tamper_Timer_PM.c **** 
  52:.\Generated_Source\PSoC5/Tamper_Timer_PM.c ****         #if(!Tamper_Timer_UDB_CONTROL_REG_REMOVED)
  53:.\Generated_Source\PSoC5/Tamper_Timer_PM.c ****             Tamper_Timer_backup.TimerControlRegister = Tamper_Timer_ReadControlRegister();
  54:.\Generated_Source\PSoC5/Tamper_Timer_PM.c ****         #endif /* Backup the enable state of the Timer component */
  55:.\Generated_Source\PSoC5/Tamper_Timer_PM.c ****     #endif /* Backup non retention registers in UDB implementation. All fixed function registers ar
  56:.\Generated_Source\PSoC5/Tamper_Timer_PM.c **** }
  41              		.loc 1 56 0
  42 0004 BD46     		mov	sp, r7
  43              		@ sp needed
  44 0006 5DF8047B 		ldr	r7, [sp], #4
  45 000a 7047     		bx	lr
  46              		.cfi_endproc
  47              	.LFE0:
  48              		.size	Tamper_Timer_SaveConfig, .-Tamper_Timer_SaveConfig
  49              		.section	.text.Tamper_Timer_RestoreConfig,"ax",%progbits
  50              		.align	2
  51              		.global	Tamper_Timer_RestoreConfig
  52              		.thumb
  53              		.thumb_func
  54              		.type	Tamper_Timer_RestoreConfig, %function
  55              	Tamper_Timer_RestoreConfig:
  56              	.LFB1:
  57:.\Generated_Source\PSoC5/Tamper_Timer_PM.c **** 
  58:.\Generated_Source\PSoC5/Tamper_Timer_PM.c **** 
ARM GAS  C:\Users\Yiquing\AppData\Local\Temp\ccsLuOSR.s 			page 3


  59:.\Generated_Source\PSoC5/Tamper_Timer_PM.c **** /*******************************************************************************
  60:.\Generated_Source\PSoC5/Tamper_Timer_PM.c **** * Function Name: Tamper_Timer_RestoreConfig
  61:.\Generated_Source\PSoC5/Tamper_Timer_PM.c **** ********************************************************************************
  62:.\Generated_Source\PSoC5/Tamper_Timer_PM.c **** *
  63:.\Generated_Source\PSoC5/Tamper_Timer_PM.c **** * Summary:
  64:.\Generated_Source\PSoC5/Tamper_Timer_PM.c **** *  Restores the current user configuration.
  65:.\Generated_Source\PSoC5/Tamper_Timer_PM.c **** *
  66:.\Generated_Source\PSoC5/Tamper_Timer_PM.c **** * Parameters:
  67:.\Generated_Source\PSoC5/Tamper_Timer_PM.c **** *  void
  68:.\Generated_Source\PSoC5/Tamper_Timer_PM.c **** *
  69:.\Generated_Source\PSoC5/Tamper_Timer_PM.c **** * Return:
  70:.\Generated_Source\PSoC5/Tamper_Timer_PM.c **** *  void
  71:.\Generated_Source\PSoC5/Tamper_Timer_PM.c **** *
  72:.\Generated_Source\PSoC5/Tamper_Timer_PM.c **** * Global variables:
  73:.\Generated_Source\PSoC5/Tamper_Timer_PM.c **** *  Tamper_Timer_backup:  Variables of this global structure are used to
  74:.\Generated_Source\PSoC5/Tamper_Timer_PM.c **** *  restore the values of non retention registers on wakeup from sleep mode.
  75:.\Generated_Source\PSoC5/Tamper_Timer_PM.c **** *
  76:.\Generated_Source\PSoC5/Tamper_Timer_PM.c **** *******************************************************************************/
  77:.\Generated_Source\PSoC5/Tamper_Timer_PM.c **** void Tamper_Timer_RestoreConfig(void) 
  78:.\Generated_Source\PSoC5/Tamper_Timer_PM.c **** {   
  57              		.loc 1 78 0
  58              		.cfi_startproc
  59              		@ args = 0, pretend = 0, frame = 0
  60              		@ frame_needed = 1, uses_anonymous_args = 0
  61              		@ link register save eliminated.
  62 0000 80B4     		push	{r7}
  63              		.cfi_def_cfa_offset 4
  64              		.cfi_offset 7, -4
  65 0002 00AF     		add	r7, sp, #0
  66              		.cfi_def_cfa_register 7
  79:.\Generated_Source\PSoC5/Tamper_Timer_PM.c ****     #if (!Tamper_Timer_UsingFixedFunction)
  80:.\Generated_Source\PSoC5/Tamper_Timer_PM.c **** 
  81:.\Generated_Source\PSoC5/Tamper_Timer_PM.c ****         Tamper_Timer_WriteCounter(Tamper_Timer_backup.TimerUdb);
  82:.\Generated_Source\PSoC5/Tamper_Timer_PM.c ****         Tamper_Timer_STATUS_MASK =Tamper_Timer_backup.InterruptMaskValue;
  83:.\Generated_Source\PSoC5/Tamper_Timer_PM.c ****         #if (Tamper_Timer_UsingHWCaptureCounter)
  84:.\Generated_Source\PSoC5/Tamper_Timer_PM.c ****             Tamper_Timer_SetCaptureCount(Tamper_Timer_backup.TimerCaptureCounter);
  85:.\Generated_Source\PSoC5/Tamper_Timer_PM.c ****         #endif /* Restore Capture counter register*/
  86:.\Generated_Source\PSoC5/Tamper_Timer_PM.c **** 
  87:.\Generated_Source\PSoC5/Tamper_Timer_PM.c ****         #if(!Tamper_Timer_UDB_CONTROL_REG_REMOVED)
  88:.\Generated_Source\PSoC5/Tamper_Timer_PM.c ****             Tamper_Timer_WriteControlRegister(Tamper_Timer_backup.TimerControlRegister);
  89:.\Generated_Source\PSoC5/Tamper_Timer_PM.c ****         #endif /* Restore the enable state of the Timer component */
  90:.\Generated_Source\PSoC5/Tamper_Timer_PM.c ****     #endif /* Restore non retention registers in the UDB implementation only */
  91:.\Generated_Source\PSoC5/Tamper_Timer_PM.c **** }
  67              		.loc 1 91 0
  68 0004 BD46     		mov	sp, r7
  69              		@ sp needed
  70 0006 5DF8047B 		ldr	r7, [sp], #4
  71 000a 7047     		bx	lr
  72              		.cfi_endproc
  73              	.LFE1:
  74              		.size	Tamper_Timer_RestoreConfig, .-Tamper_Timer_RestoreConfig
  75              		.section	.text.Tamper_Timer_Sleep,"ax",%progbits
  76              		.align	2
  77              		.global	Tamper_Timer_Sleep
  78              		.thumb
  79              		.thumb_func
  80              		.type	Tamper_Timer_Sleep, %function
ARM GAS  C:\Users\Yiquing\AppData\Local\Temp\ccsLuOSR.s 			page 4


  81              	Tamper_Timer_Sleep:
  82              	.LFB2:
  92:.\Generated_Source\PSoC5/Tamper_Timer_PM.c **** 
  93:.\Generated_Source\PSoC5/Tamper_Timer_PM.c **** 
  94:.\Generated_Source\PSoC5/Tamper_Timer_PM.c **** /*******************************************************************************
  95:.\Generated_Source\PSoC5/Tamper_Timer_PM.c **** * Function Name: Tamper_Timer_Sleep
  96:.\Generated_Source\PSoC5/Tamper_Timer_PM.c **** ********************************************************************************
  97:.\Generated_Source\PSoC5/Tamper_Timer_PM.c **** *
  98:.\Generated_Source\PSoC5/Tamper_Timer_PM.c **** * Summary:
  99:.\Generated_Source\PSoC5/Tamper_Timer_PM.c **** *     Stop and Save the user configuration
 100:.\Generated_Source\PSoC5/Tamper_Timer_PM.c **** *
 101:.\Generated_Source\PSoC5/Tamper_Timer_PM.c **** * Parameters:
 102:.\Generated_Source\PSoC5/Tamper_Timer_PM.c **** *  void
 103:.\Generated_Source\PSoC5/Tamper_Timer_PM.c **** *
 104:.\Generated_Source\PSoC5/Tamper_Timer_PM.c **** * Return:
 105:.\Generated_Source\PSoC5/Tamper_Timer_PM.c **** *  void
 106:.\Generated_Source\PSoC5/Tamper_Timer_PM.c **** *
 107:.\Generated_Source\PSoC5/Tamper_Timer_PM.c **** * Global variables:
 108:.\Generated_Source\PSoC5/Tamper_Timer_PM.c **** *  Tamper_Timer_backup.TimerEnableState:  Is modified depending on the
 109:.\Generated_Source\PSoC5/Tamper_Timer_PM.c **** *  enable state of the block before entering sleep mode.
 110:.\Generated_Source\PSoC5/Tamper_Timer_PM.c **** *
 111:.\Generated_Source\PSoC5/Tamper_Timer_PM.c **** *******************************************************************************/
 112:.\Generated_Source\PSoC5/Tamper_Timer_PM.c **** void Tamper_Timer_Sleep(void) 
 113:.\Generated_Source\PSoC5/Tamper_Timer_PM.c **** {
  83              		.loc 1 113 0
  84              		.cfi_startproc
  85              		@ args = 0, pretend = 0, frame = 0
  86              		@ frame_needed = 1, uses_anonymous_args = 0
  87 0000 80B5     		push	{r7, lr}
  88              		.cfi_def_cfa_offset 8
  89              		.cfi_offset 7, -8
  90              		.cfi_offset 14, -4
  91 0002 00AF     		add	r7, sp, #0
  92              		.cfi_def_cfa_register 7
 114:.\Generated_Source\PSoC5/Tamper_Timer_PM.c ****     #if(!Tamper_Timer_UDB_CONTROL_REG_REMOVED)
 115:.\Generated_Source\PSoC5/Tamper_Timer_PM.c ****         /* Save Counter's enable state */
 116:.\Generated_Source\PSoC5/Tamper_Timer_PM.c ****         if(Tamper_Timer_CTRL_ENABLE == (Tamper_Timer_CONTROL & Tamper_Timer_CTRL_ENABLE))
  93              		.loc 1 116 0
  94 0004 094B     		ldr	r3, .L6
  95 0006 1B78     		ldrb	r3, [r3]
  96 0008 DBB2     		uxtb	r3, r3
  97 000a 03F00103 		and	r3, r3, #1
  98 000e 002B     		cmp	r3, #0
  99 0010 03D0     		beq	.L4
 117:.\Generated_Source\PSoC5/Tamper_Timer_PM.c ****         {
 118:.\Generated_Source\PSoC5/Tamper_Timer_PM.c ****             /* Timer is enabled */
 119:.\Generated_Source\PSoC5/Tamper_Timer_PM.c ****             Tamper_Timer_backup.TimerEnableState = 1u;
 100              		.loc 1 119 0
 101 0012 074B     		ldr	r3, .L6+4
 102 0014 0122     		movs	r2, #1
 103 0016 1A70     		strb	r2, [r3]
 104 0018 02E0     		b	.L5
 105              	.L4:
 120:.\Generated_Source\PSoC5/Tamper_Timer_PM.c ****         }
 121:.\Generated_Source\PSoC5/Tamper_Timer_PM.c ****         else
 122:.\Generated_Source\PSoC5/Tamper_Timer_PM.c ****         {
 123:.\Generated_Source\PSoC5/Tamper_Timer_PM.c ****             /* Timer is disabled */
ARM GAS  C:\Users\Yiquing\AppData\Local\Temp\ccsLuOSR.s 			page 5


 124:.\Generated_Source\PSoC5/Tamper_Timer_PM.c ****             Tamper_Timer_backup.TimerEnableState = 0u;
 106              		.loc 1 124 0
 107 001a 054B     		ldr	r3, .L6+4
 108 001c 0022     		movs	r2, #0
 109 001e 1A70     		strb	r2, [r3]
 110              	.L5:
 125:.\Generated_Source\PSoC5/Tamper_Timer_PM.c ****         }
 126:.\Generated_Source\PSoC5/Tamper_Timer_PM.c ****     #endif /* Back up enable state from the Timer control register */
 127:.\Generated_Source\PSoC5/Tamper_Timer_PM.c ****     Tamper_Timer_Stop();
 111              		.loc 1 127 0
 112 0020 FFF7FEFF 		bl	Tamper_Timer_Stop
 128:.\Generated_Source\PSoC5/Tamper_Timer_PM.c ****     Tamper_Timer_SaveConfig();
 113              		.loc 1 128 0
 114 0024 FFF7FEFF 		bl	Tamper_Timer_SaveConfig
 129:.\Generated_Source\PSoC5/Tamper_Timer_PM.c **** }
 115              		.loc 1 129 0
 116 0028 80BD     		pop	{r7, pc}
 117              	.L7:
 118 002a 00BF     		.align	2
 119              	.L6:
 120 002c 004F0040 		.word	1073762048
 121 0030 00000000 		.word	Tamper_Timer_backup
 122              		.cfi_endproc
 123              	.LFE2:
 124              		.size	Tamper_Timer_Sleep, .-Tamper_Timer_Sleep
 125              		.section	.text.Tamper_Timer_Wakeup,"ax",%progbits
 126              		.align	2
 127              		.global	Tamper_Timer_Wakeup
 128              		.thumb
 129              		.thumb_func
 130              		.type	Tamper_Timer_Wakeup, %function
 131              	Tamper_Timer_Wakeup:
 132              	.LFB3:
 130:.\Generated_Source\PSoC5/Tamper_Timer_PM.c **** 
 131:.\Generated_Source\PSoC5/Tamper_Timer_PM.c **** 
 132:.\Generated_Source\PSoC5/Tamper_Timer_PM.c **** /*******************************************************************************
 133:.\Generated_Source\PSoC5/Tamper_Timer_PM.c **** * Function Name: Tamper_Timer_Wakeup
 134:.\Generated_Source\PSoC5/Tamper_Timer_PM.c **** ********************************************************************************
 135:.\Generated_Source\PSoC5/Tamper_Timer_PM.c **** *
 136:.\Generated_Source\PSoC5/Tamper_Timer_PM.c **** * Summary:
 137:.\Generated_Source\PSoC5/Tamper_Timer_PM.c **** *  Restores and enables the user configuration
 138:.\Generated_Source\PSoC5/Tamper_Timer_PM.c **** *
 139:.\Generated_Source\PSoC5/Tamper_Timer_PM.c **** * Parameters:
 140:.\Generated_Source\PSoC5/Tamper_Timer_PM.c **** *  void
 141:.\Generated_Source\PSoC5/Tamper_Timer_PM.c **** *
 142:.\Generated_Source\PSoC5/Tamper_Timer_PM.c **** * Return:
 143:.\Generated_Source\PSoC5/Tamper_Timer_PM.c **** *  void
 144:.\Generated_Source\PSoC5/Tamper_Timer_PM.c **** *
 145:.\Generated_Source\PSoC5/Tamper_Timer_PM.c **** * Global variables:
 146:.\Generated_Source\PSoC5/Tamper_Timer_PM.c **** *  Tamper_Timer_backup.enableState:  Is used to restore the enable state of
 147:.\Generated_Source\PSoC5/Tamper_Timer_PM.c **** *  block on wakeup from sleep mode.
 148:.\Generated_Source\PSoC5/Tamper_Timer_PM.c **** *
 149:.\Generated_Source\PSoC5/Tamper_Timer_PM.c **** *******************************************************************************/
 150:.\Generated_Source\PSoC5/Tamper_Timer_PM.c **** void Tamper_Timer_Wakeup(void) 
 151:.\Generated_Source\PSoC5/Tamper_Timer_PM.c **** {
 133              		.loc 1 151 0
 134              		.cfi_startproc
ARM GAS  C:\Users\Yiquing\AppData\Local\Temp\ccsLuOSR.s 			page 6


 135              		@ args = 0, pretend = 0, frame = 0
 136              		@ frame_needed = 1, uses_anonymous_args = 0
 137 0000 80B5     		push	{r7, lr}
 138              		.cfi_def_cfa_offset 8
 139              		.cfi_offset 7, -8
 140              		.cfi_offset 14, -4
 141 0002 00AF     		add	r7, sp, #0
 142              		.cfi_def_cfa_register 7
 152:.\Generated_Source\PSoC5/Tamper_Timer_PM.c ****     Tamper_Timer_RestoreConfig();
 143              		.loc 1 152 0
 144 0004 FFF7FEFF 		bl	Tamper_Timer_RestoreConfig
 153:.\Generated_Source\PSoC5/Tamper_Timer_PM.c ****     #if(!Tamper_Timer_UDB_CONTROL_REG_REMOVED)
 154:.\Generated_Source\PSoC5/Tamper_Timer_PM.c ****         if(Tamper_Timer_backup.TimerEnableState == 1u)
 145              		.loc 1 154 0
 146 0008 034B     		ldr	r3, .L10
 147 000a 1B78     		ldrb	r3, [r3]	@ zero_extendqisi2
 148 000c 012B     		cmp	r3, #1
 149 000e 01D1     		bne	.L8
 155:.\Generated_Source\PSoC5/Tamper_Timer_PM.c ****         {     /* Enable Timer's operation */
 156:.\Generated_Source\PSoC5/Tamper_Timer_PM.c ****                 Tamper_Timer_Enable();
 150              		.loc 1 156 0
 151 0010 FFF7FEFF 		bl	Tamper_Timer_Enable
 152              	.L8:
 157:.\Generated_Source\PSoC5/Tamper_Timer_PM.c ****         } /* Do nothing if Timer was disabled before */
 158:.\Generated_Source\PSoC5/Tamper_Timer_PM.c ****     #endif /* Remove this code section if Control register is removed */
 159:.\Generated_Source\PSoC5/Tamper_Timer_PM.c **** }
 153              		.loc 1 159 0
 154 0014 80BD     		pop	{r7, pc}
 155              	.L11:
 156 0016 00BF     		.align	2
 157              	.L10:
 158 0018 00000000 		.word	Tamper_Timer_backup
 159              		.cfi_endproc
 160              	.LFE3:
 161              		.size	Tamper_Timer_Wakeup, .-Tamper_Timer_Wakeup
 162              		.text
 163              	.Letext0:
 164              		.file 2 ".\\Generated_Source\\PSoC5\\cytypes.h"
 165              		.file 3 ".\\Generated_Source\\PSoC5\\Tamper_Timer.h"