ARM GAS  C:\Users\Rajesh\AppData\Local\Temp\ccgfupv2.s 			page 1


   1              		.syntax unified
   2              		.cpu cortex-m0
   3              		.fpu softvfp
   4              		.eabi_attribute 20, 1
   5              		.eabi_attribute 21, 1
   6              		.eabi_attribute 23, 3
   7              		.eabi_attribute 24, 1
   8              		.eabi_attribute 25, 1
   9              		.eabi_attribute 26, 1
  10              		.eabi_attribute 30, 2
  11              		.eabi_attribute 34, 0
  12              		.eabi_attribute 18, 4
  13              		.thumb
  14              		.syntax unified
  15              		.file	"main.c"
  16              		.text
  17              	.Ltext0:
  18              		.cfi_sections	.debug_frame
  19              		.section	.text.isr_MYTIMER_Interrupt,"ax",%progbits
  20              		.align	2
  21              		.global	isr_MYTIMER_Interrupt
  22              		.code	16
  23              		.thumb_func
  24              		.type	isr_MYTIMER_Interrupt, %function
  25              	isr_MYTIMER_Interrupt:
  26              	.LFB36:
  27              		.file 1 "main.c"
   1:main.c        **** /* ========================================
   2:main.c        ****  *
   3:main.c        ****  * Copyright YOUR COMPANY, THE YEAR
   4:main.c        ****  * All Rights Reserved
   5:main.c        ****  * UNPUBLISHED, LICENSED SOFTWARE.
   6:main.c        ****  *
   7:main.c        ****  * CONFIDENTIAL AND PROPRIETARY INFORMATION
   8:main.c        ****  * WHICH IS THE PROPERTY OF your company.
   9:main.c        ****  *
  10:main.c        ****  * ========================================
  11:main.c        **** */
  12:main.c        **** #include <project.h>
  13:main.c        **** 
  14:main.c        **** #define SET_V 40000
  15:main.c        **** #define MAX_DUTY 66
  16:main.c        **** //95
  17:main.c        **** 
  18:main.c        **** 
  19:main.c        **** 
  20:main.c        **** 
  21:main.c        **** typedef struct
  22:main.c        **** {
  23:main.c        ****     unsigned char action;
  24:main.c        ****     unsigned char hv_enable;
  25:main.c        ****     unsigned char hv_volt;
  26:main.c        ****     unsigned char led_enable;
  27:main.c        ****     unsigned char trig_source;
  28:main.c        ****     unsigned char i_set;
  29:main.c        ****     unsigned char max_time;
  30:main.c        ****     unsigned char min_v;
ARM GAS  C:\Users\Rajesh\AppData\Local\Temp\ccgfupv2.s 			page 2


  31:main.c        ****     unsigned char pwm;
  32:main.c        ****     unsigned char max_duty;
  33:main.c        ****     unsigned char version;
  34:main.c        ****     unsigned char dvdt;
  35:main.c        ****     unsigned char fill[19];
  36:main.c        ****     
  37:main.c        **** }SETTINGS;
  38:main.c        **** 
  39:main.c        **** 
  40:main.c        **** #define LED_LEFT 1
  41:main.c        **** #define LED_RIGHT 2
  42:main.c        **** #define LED_FACE  4
  43:main.c        **** 
  44:main.c        **** volatile SETTINGS set;
  45:main.c        **** 
  46:main.c        **** volatile char in_trig=0;
  47:main.c        **** 
  48:main.c        **** #define I_TERM_DIV 1000 
  49:main.c        **** #define P_TERM_DIV 200
  50:main.c        **** int p_term_div=35;
  51:main.c        **** 
  52:main.c        **** int i_term_div =600;
  53:main.c        **** #define MAX_I_TERM ((set.max_duty-5)*I_TERM_DIV)
  54:main.c        **** 
  55:main.c        **** // return the current voltage in mv
  56:main.c        ****     static int i_term=0;
  57:main.c        **** #define STORE_SIZE 100
  58:main.c        **** int store[STORE_SIZE];
  59:main.c        **** int st_idx=0;
  60:main.c        **** static int last_val =0;
  61:main.c        **** 
  62:main.c        **** int DoVLoop(int v_set)
  63:main.c        **** {
  64:main.c        ****     int v;
  65:main.c        ****     int err;
  66:main.c        ****     int set_val;
  67:main.c        ****     int val;
  68:main.c        ****     static int old_v;
  69:main.c        **** static int old_set_val=0;
  70:main.c        ****     static int mv;
  71:main.c        ****     // ADC_IsEndConversion(ADC_WAIT_FOR_RESULT);
  72:main.c        ****     val = ADC_GetResult16(0) ;
  73:main.c        ****     v = ADC_CountsTo_mVolts(0,val)*30;
  74:main.c        ****     
  75:main.c        ****     if (set.min_v>(v/1000))
  76:main.c        ****        set.min_v=v/1000;
  77:main.c        ****     
  78:main.c        ****     // calculate the error in voltage
  79:main.c        ****     err = v_set - v;
  80:main.c        ****     
  81:main.c        ****     // calculate the integral term
  82:main.c        ****     i_term = i_term+err;
  83:main.c        ****     if (i_term>MAX_I_TERM)
  84:main.c        ****        i_term = MAX_I_TERM;
  85:main.c        ****     if (i_term<0)
  86:main.c        ****       i_term=0;
  87:main.c        ****     
ARM GAS  C:\Users\Rajesh\AppData\Local\Temp\ccgfupv2.s 			page 3


  88:main.c        ****     // calculate the value
  89:main.c        ****     set_val = i_term/i_term_div + err/p_term_div;
  90:main.c        ****     
  91:main.c        ****     if (set_val>(set.max_duty*4))
  92:main.c        ****        set_val = (set.max_duty*4);
  93:main.c        ****     if (set_val<1)
  94:main.c        ****         set_val=1;
  95:main.c        ****     set.pwm=set_val;
  96:main.c        ****     
  97:main.c        ****  #define PWM_BASELINE 55
  98:main.c        ****  #define VIN  12000
  99:main.c        ****  #define DV_RATE 1150
 100:main.c        ****     set.max_duty=90;
 101:main.c        ****     // this ensures that the voltage does not go up too fast
 102:main.c        ****  // next version this should be done by limiting the inductor current 
 103:main.c        ****     mv=(PWM_BASELINE+(v-VIN)/ (DV_RATE))*4;
 104:main.c        ****     if (set_val>mv)
 105:main.c        ****         set_val=mv;
 106:main.c        ****     
 107:main.c        ****     if (set_val>old_set_val)
 108:main.c        ****        {
 109:main.c        ****         //set_val = old_set_val+1;
 110:main.c        ****         }
 111:main.c        ****     old_v=v;
 112:main.c        ****     PWM_CHARGE_WriteCompare(set_val);
 113:main.c        ****     old_set_val=set_val;
 114:main.c        ****     
 115:main.c        ****     store[st_idx]=set_val;
 116:main.c        ****     st_idx++;
 117:main.c        ****     if (st_idx==STORE_SIZE) st_idx=0;
 118:main.c        **** last_val = v;
 119:main.c        ****     return v;
 120:main.c        **** }
 121:main.c        **** /*int i_i_term =0;
 122:main.c        **** int i_i_term_div = 5;
 123:main.c        **** int p_i_term_div = 1;
 124:main.c        **** #define MAX_II_TERM 200
 125:main.c        **** int DoILoop(int i_set)
 126:main.c        **** {
 127:main.c        ****     int v;
 128:main.c        ****     int err;
 129:main.c        ****     int set_val;
 130:main.c        ****     int val;
 131:main.c        ****     static int old_set_val;
 132:main.c        **** 
 133:main.c        ****     // ADC_IsEndConversion(ADC_WAIT_FOR_RESULT);
 134:main.c        ****     val = ADC_GetResult16(0) ;
 135:main.c        ****     v = ADC_CountsTo_mVolts(0,val)*30;
 136:main.c        ****     
 137:main.c        ****     if (set.min_v>(v/1000))
 138:main.c        ****        set.min_v=v/1000;
 139:main.c        ****     
 140:main.c        ****     // calculate the error in voltage
 141:main.c        ****     err = i_set - (v-last_val);
 142:main.c        ****     last_val=v;
 143:main.c        ****     // calculate the integral term
 144:main.c        ****     i_i_term = i_i_term+err;
ARM GAS  C:\Users\Rajesh\AppData\Local\Temp\ccgfupv2.s 			page 4


 145:main.c        ****     if (i_i_term>MAX_II_TERM)
 146:main.c        ****        i_i_term = MAX_II_TERM;
 147:main.c        ****     if (i_i_term<0)
 148:main.c        ****       i_i_term=0;
 149:main.c        ****     
 150:main.c        ****     // calculate the value
 151:main.c        ****     set_val = i_i_term/i_i_term_div + err*p_i_term_div;
 152:main.c        ****     
 153:main.c        ****     if (set_val>(set.max_duty*4))
 154:main.c        ****        set_val = (set.max_duty*4);
 155:main.c        ****     if (set_val<1)
 156:main.c        ****         set_val=1;
 157:main.c        ****     set.pwm=set_val;
 158:main.c        ****     
 159:main.c        ****     
 160:main.c        ****     if (set_val>old_set_val)
 161:main.c        ****        {
 162:main.c        ****         set_val = old_set_val+1;
 163:main.c        ****         }
 164:main.c        ****     PWM_CHARGE_WriteCompare(set_val);
 165:main.c        ****     old_set_val=set_val;
 166:main.c        ****     
 167:main.c        ****     store[st_idx]=set_val;
 168:main.c        ****     st_idx++;
 169:main.c        ****     if (st_idx==STORE_SIZE) st_idx=0;
 170:main.c        ****     return v;
 171:main.c        **** }
 172:main.c        **** 
 173:main.c        **** */
 174:main.c        **** #define UA_PER_BIT 2.4
 175:main.c        **** #define VI_RESISTOR 1000.0
 176:main.c        **** #define CS_RESISTOR 0.2
 177:main.c        **** 
 178:main.c        **** #define V_PER_BIT UA_PER_BIT*VI_RESISTOR/1000000.0
 179:main.c        **** #define DAC_I(i) ((float)i*CS_RESISTOR)/(V_PER_BIT)/10/2
 180:main.c        **** 
 181:main.c        **** 
 182:main.c        **** volatile uint8 comBuff[32];
 183:main.c        **** 
 184:main.c        **** int t_count=0;
 185:main.c        **** volatile uint8_t tick =0;
 186:main.c        **** int set_v=0;
 187:main.c        **** 
 188:main.c        **** 
 189:main.c        **** 
 190:main.c        **** // HV task runs off a timer
 191:main.c        **** // 12Mhz 40000 = 300 hz
 192:main.c        **** #define TASK_TIME_MS  3.3333
 193:main.c        **** #define RAMP_RATE_V_PER_MS  .05
 194:main.c        **** #define RAMP_RATE  (1000*RAMP_RATE_V_PER_MS/TASK_TIME_MS)
 195:main.c        **** 
 196:main.c        **** //int rset=10;
 197:main.c        **** void  HV_Task()
 198:main.c        **** {
 199:main.c        ****     static int last_v=0;
 200:main.c        ****         if (set.hv_enable && (in_trig==0))
 201:main.c        ****         {
ARM GAS  C:\Users\Rajesh\AppData\Local\Temp\ccgfupv2.s 			page 5


 202:main.c        ****             // this is done to minimize the ramp time
 203:main.c        ****              //   val = ;PWM
 204:main.c        ****       /*      last_v = ADC_CountsTo_mVolts(0, ADC_GetResult16(0))*30;
 205:main.c        ****             if (last_v> set.hv_volt*1000)
 206:main.c        ****                DoVLoop(set.hv_volt*1000);
 207:main.c        ****             else
 208:main.c        ****                DoILoop(2);
 209:main.c        ****         */    
 210:main.c        ****            
 211:main.c        ****             if (set_v> set.hv_volt*1000)
 212:main.c        ****                 set_v=set.hv_volt*1000;
 213:main.c        ****             
 214:main.c        ****             if (set_v<set.hv_volt*1000)
 215:main.c        ****                 {
 216:main.c        ****                 set_v=set_v+set.dvdt;
 217:main.c        ****                 if (set_v >set.hv_volt*1000)
 218:main.c        ****                     set_v=set.hv_volt*1000;
 219:main.c        ****                 }
 220:main.c        ****             last_v=DoVLoop(set_v);
 221:main.c        ****             
 222:main.c        ****         }
 223:main.c        ****         
 224:main.c        ****      else
 225:main.c        ****            {
 226:main.c        ****             PWM_CHARGE_WriteCompare(1);
 227:main.c        ****             set_v = ADC_CountsTo_mVolts(0, ADC_GetResult16(0))*30;
 228:main.c        ****             i_term=0;
 229:main.c        ****             //i_i_term=0;
 230:main.c        ****             in_trig=0;
 231:main.c        ****             store[st_idx]=-1;
 232:main.c        ****             st_idx++;
 233:main.c        ****             if (st_idx==STORE_SIZE)
 234:main.c        ****                st_idx=0;
 235:main.c        ****             }
 236:main.c        **** }
 237:main.c        **** 
 238:main.c        **** CY_ISR(isr_MYTIMER_Interrupt)
 239:main.c        **** {
  28              		.loc 1 239 0
  29              		.cfi_startproc
  30              		@ args = 0, pretend = 0, frame = 0
  31              		@ frame_needed = 0, uses_anonymous_args = 0
  32 0000 10B5     		push	{r4, lr}
  33              		.cfi_def_cfa_offset 8
  34              		.cfi_offset 4, -8
  35              		.cfi_offset 14, -4
 240:main.c        ****     TIMER_ClearInterrupt(TIMER_INTR_MASK_TC);
  36              		.loc 1 240 0
  37 0002 0120     		movs	r0, #1
  38 0004 FFF7FEFF 		bl	TIMER_ClearInterrupt
  39              	.LVL0:
 241:main.c        ****     tick=1;
  40              		.loc 1 241 0
  41 0008 0122     		movs	r2, #1
  42 000a 034B     		ldr	r3, .L2
 242:main.c        ****     t_count++;
 243:main.c        **** 
ARM GAS  C:\Users\Rajesh\AppData\Local\Temp\ccgfupv2.s 			page 6


 244:main.c        **** }
  43              		.loc 1 244 0
  44              		@ sp needed
 241:main.c        ****     tick=1;
  45              		.loc 1 241 0
  46 000c 1A70     		strb	r2, [r3]
 242:main.c        ****     t_count++;
  47              		.loc 1 242 0
  48 000e 5A68     		ldr	r2, [r3, #4]
  49 0010 0132     		adds	r2, r2, #1
  50 0012 5A60     		str	r2, [r3, #4]
  51              		.loc 1 244 0
  52 0014 10BD     		pop	{r4, pc}
  53              	.L3:
  54 0016 C046     		.align	2
  55              	.L2:
  56 0018 00000000 		.word	.LANCHOR0
  57              		.cfi_endproc
  58              	.LFE36:
  59              		.size	isr_MYTIMER_Interrupt, .-isr_MYTIMER_Interrupt
  60              		.global	__aeabi_ui2f
  61              		.global	__aeabi_f2d
  62              		.global	__aeabi_dmul
  63              		.global	__aeabi_ddiv
  64              		.global	__aeabi_d2iz
  65              		.section	.text.TrigTask.part.5,"ax",%progbits
  66              		.align	2
  67              		.code	16
  68              		.thumb_func
  69              		.type	TrigTask.part.5, %function
  70              	TrigTask.part.5:
  71              	.LFB49:
 245:main.c        **** 
 246:main.c        **** 
 247:main.c        **** 
 248:main.c        **** // opamp 2 is the right one
 249:main.c        **** 
 250:main.c        **** 
 251:main.c        **** uint8 GetTrig(void)
 252:main.c        **** {
 253:main.c        ****        if (
 254:main.c        ****             (set.trig_source&LED_FACE && TRIG_FACE_Read()) ||
 255:main.c        ****             (set.trig_source&LED_RIGHT && TRIG_RIGHT_Read()) ||
 256:main.c        ****             (set.trig_source&LED_LEFT && TRIG_LEFT_Read())  
 257:main.c        ****           )
 258:main.c        ****         return 1;
 259:main.c        ****     else
 260:main.c        ****        return 0;
 261:main.c        ****  }
 262:main.c        **** 
 263:main.c        **** void Init_bb_i2c(uint8 *space);
 264:main.c        **** void DriveLeft(uint8 on)
 265:main.c        **** {
 266:main.c        ****     if (on)
 267:main.c        ****       {
 268:main.c        ****       VREF_A_SetDriveMode(VREF_A_DM_ALG_HIZ);
 269:main.c        ****       Opamp_1_Start();
ARM GAS  C:\Users\Rajesh\AppData\Local\Temp\ccgfupv2.s 			page 7


 270:main.c        ****      }
 271:main.c        ****     else
 272:main.c        ****     {
 273:main.c        ****       VREF_A_SetDriveMode(VREF_A_DM_STRONG);
 274:main.c        ****       Opamp_1_Stop();
 275:main.c        ****     }
 276:main.c        **** }
 277:main.c        **** void DriveRight(uint8 on)
 278:main.c        **** {
 279:main.c        ****     if (on)
 280:main.c        ****       {
 281:main.c        ****       VREF_B_SetDriveMode(VREF_B_DM_ALG_HIZ);
 282:main.c        ****       Opamp_2_Start();
 283:main.c        ****      }
 284:main.c        ****     else
 285:main.c        ****     {
 286:main.c        ****       VREF_B_SetDriveMode(VREF_B_DM_STRONG);
 287:main.c        ****       Opamp_2_Stop();
 288:main.c        ****     }
 289:main.c        **** }
 290:main.c        **** void DriveFace(uint8 on)
 291:main.c        **** {
 292:main.c        ****     if (on)
 293:main.c        ****       {
 294:main.c        ****       VREF_C_SetDriveMode(VREF_C_DM_ALG_HIZ);
 295:main.c        ****       Opamp_FACE_Start();
 296:main.c        ****      }
 297:main.c        ****     else
 298:main.c        ****     {
 299:main.c        ****       VREF_C_SetDriveMode(VREF_C_DM_STRONG);
 300:main.c        ****       Opamp_FACE_Stop();
 301:main.c        ****     }
 302:main.c        **** }
 303:main.c        **** 
 304:main.c        **** 
 305:main.c        **** void TrigTask()
  72              		.loc 1 305 0
  73              		.cfi_startproc
  74              		@ args = 0, pretend = 0, frame = 0
  75              		@ frame_needed = 0, uses_anonymous_args = 0
  76 0000 F0B5     		push	{r4, r5, r6, r7, lr}
  77              		.cfi_def_cfa_offset 20
  78              		.cfi_offset 4, -20
  79              		.cfi_offset 5, -16
  80              		.cfi_offset 6, -12
  81              		.cfi_offset 7, -8
  82              		.cfi_offset 14, -4
  83 0002 4746     		mov	r7, r8
  84 0004 80B4     		push	{r7}
  85              		.cfi_def_cfa_offset 24
  86              		.cfi_offset 8, -24
  87              	.LBB63:
 306:main.c        **** {
 307:main.c        ****     int x;
 308:main.c        ****       if (GetTrig())
 309:main.c        ****             {        
 310:main.c        ****             int v = DAC_I((float)set.i_set);
ARM GAS  C:\Users\Rajesh\AppData\Local\Temp\ccgfupv2.s 			page 8


  88              		.loc 1 310 0
  89 0006 594C     		ldr	r4, .L54
 311:main.c        ****             PWM_CHARGE_WriteCompare(1);
  90              		.loc 1 311 0
  91 0008 0120     		movs	r0, #1
 310:main.c        ****             PWM_CHARGE_WriteCompare(1);
  92              		.loc 1 310 0
  93 000a 6579     		ldrb	r5, [r4, #5]
 312:main.c        ****             i_term=0;
 313:main.c        ****             in_trig=1;
  94              		.loc 1 313 0
  95 000c 0126     		movs	r6, #1
 311:main.c        ****             i_term=0;
  96              		.loc 1 311 0
  97 000e FFF7FEFF 		bl	PWM_CHARGE_WriteCompare
  98              	.LVL1:
 312:main.c        ****             i_term=0;
  99              		.loc 1 312 0
 100 0012 0022     		movs	r2, #0
 101 0014 564B     		ldr	r3, .L54+4
 310:main.c        ****             PWM_CHARGE_WriteCompare(1);
 102              		.loc 1 310 0
 103 0016 EDB2     		uxtb	r5, r5
 104              	.LVL2:
 312:main.c        ****             i_term=0;
 105              		.loc 1 312 0
 106 0018 9A60     		str	r2, [r3, #8]
 107              		.loc 1 313 0
 108 001a 1E73     		strb	r6, [r3, #12]
 314:main.c        ****             IDAC_1_SetValue(v);
 109              		.loc 1 314 0
 110 001c 2800     		movs	r0, r5
 111 001e FFF7FEFF 		bl	__aeabi_ui2f
 112              	.LVL3:
 113 0022 FFF7FEFF 		bl	__aeabi_f2d
 114              	.LVL4:
 115 0026 534A     		ldr	r2, .L54+8
 116 0028 534B     		ldr	r3, .L54+12
 117 002a FFF7FEFF 		bl	__aeabi_dmul
 118              	.LVL5:
 119 002e 534A     		ldr	r2, .L54+16
 120 0030 534B     		ldr	r3, .L54+20
 121 0032 FFF7FEFF 		bl	__aeabi_ddiv
 122              	.LVL6:
 123 0036 0022     		movs	r2, #0
 124 0038 524B     		ldr	r3, .L54+24
 125 003a FFF7FEFF 		bl	__aeabi_ddiv
 126              	.LVL7:
 127 003e 524B     		ldr	r3, .L54+28
 128 0040 0022     		movs	r2, #0
 129 0042 FFF7FEFF 		bl	__aeabi_dmul
 130              	.LVL8:
 131 0046 FFF7FEFF 		bl	__aeabi_d2iz
 132              	.LVL9:
 133 004a 0500     		movs	r5, r0
 134              	.LVL10:
 135 004c FFF7FEFF 		bl	IDAC_1_SetValue
ARM GAS  C:\Users\Rajesh\AppData\Local\Temp\ccgfupv2.s 			page 9


 136              	.LVL11:
 315:main.c        ****             IDAC_2_SetValue(v);
 137              		.loc 1 315 0
 138 0050 2800     		movs	r0, r5
 139 0052 FFF7FEFF 		bl	IDAC_2_SetValue
 140              	.LVL12:
 316:main.c        ****  
 317:main.c        ****             if (set.led_enable&LED_LEFT)
 141              		.loc 1 317 0
 142 0056 E378     		ldrb	r3, [r4, #3]
 143 0058 1E42     		tst	r6, r3
 144 005a 00D0     		beq	.LCB92
 145 005c 6DE0     		b	.L47	@long jump
 146              	.LCB92:
 318:main.c        ****                 DriveLeft(1);
 319:main.c        ****             if (set.led_enable&LED_RIGHT)
 147              		.loc 1 319 0
 148 005e E378     		ldrb	r3, [r4, #3]
 149 0060 9B07     		lsls	r3, r3, #30
 150 0062 00D5     		bpl	.LCB99
 151 0064 72E0     		b	.L48	@long jump
 152              	.LCB99:
 153              	.L6:
 320:main.c        ****                 DriveRight(1);
 321:main.c        ****             
 322:main.c        ****             if (set.led_enable&LED_FACE)
 154              		.loc 1 322 0
 155 0066 E378     		ldrb	r3, [r4, #3]
 156 0068 5B07     		lsls	r3, r3, #29
 157 006a 00D5     		bpl	.LCB107
 158 006c 77E0     		b	.L49	@long jump
 159              	.LCB107:
 160              	.L7:
 161              	.LVL13:
 323:main.c        ****                 DriveFace(1);
 324:main.c        ****             for (x=0;x<set.max_time*100;x++)
 162              		.loc 1 324 0
 163 006e A379     		ldrb	r3, [r4, #6]
 164 0070 002B     		cmp	r3, #0
 165 0072 0ED0     		beq	.L8
 166              	.LBB64:
 167              	.LBB65:
 255:main.c        ****             (set.trig_source&LED_LEFT && TRIG_LEFT_Read())  
 168              		.loc 1 255 0
 169 0074 0123     		movs	r3, #1
 253:main.c        ****             (set.trig_source&LED_FACE && TRIG_FACE_Read()) ||
 170              		.loc 1 253 0
 171 0076 0426     		movs	r6, #4
 255:main.c        ****             (set.trig_source&LED_LEFT && TRIG_LEFT_Read())  
 172              		.loc 1 255 0
 173 0078 9846     		mov	r8, r3
 254:main.c        ****             (set.trig_source&LED_RIGHT && TRIG_RIGHT_Read()) ||
 174              		.loc 1 254 0
 175 007a 2379     		ldrb	r3, [r4, #4]
 176              	.LBE65:
 177              	.LBE64:
 178              		.loc 1 324 0
ARM GAS  C:\Users\Rajesh\AppData\Local\Temp\ccgfupv2.s 			page 10


 179 007c 0025     		movs	r5, #0
 180              	.LVL14:
 181              	.LBB71:
 182              	.LBB68:
 254:main.c        ****             (set.trig_source&LED_RIGHT && TRIG_RIGHT_Read()) ||
 183              		.loc 1 254 0
 184 007e 0227     		movs	r7, #2
 253:main.c        ****             (set.trig_source&LED_FACE && TRIG_FACE_Read()) ||
 185              		.loc 1 253 0
 186 0080 1E42     		tst	r6, r3
 187 0082 4ED1     		bne	.L9
 188              	.L13:
 255:main.c        ****             (set.trig_source&LED_LEFT && TRIG_LEFT_Read())  
 189              		.loc 1 255 0
 190 0084 2379     		ldrb	r3, [r4, #4]
 254:main.c        ****             (set.trig_source&LED_RIGHT && TRIG_RIGHT_Read()) ||
 191              		.loc 1 254 0
 192 0086 1F42     		tst	r7, r3
 193 0088 52D1     		bne	.L50
 194              	.L11:
 255:main.c        ****             (set.trig_source&LED_LEFT && TRIG_LEFT_Read())  
 195              		.loc 1 255 0
 196 008a 4246     		mov	r2, r8
 256:main.c        ****           )
 197              		.loc 1 256 0
 198 008c 2379     		ldrb	r3, [r4, #4]
 255:main.c        ****             (set.trig_source&LED_LEFT && TRIG_LEFT_Read())  
 199              		.loc 1 255 0
 200 008e 1A42     		tst	r2, r3
 201 0090 3AD1     		bne	.L51
 202              	.LVL15:
 203              	.L8:
 204              	.LBE68:
 205              	.LBE71:
 206              	.LBB72:
 207              	.LBB73:
 299:main.c        ****       Opamp_FACE_Stop();
 208              		.loc 1 299 0
 209 0092 0620     		movs	r0, #6
 210 0094 FFF7FEFF 		bl	VREF_C_SetDriveMode
 211              	.LVL16:
 300:main.c        ****     }
 212              		.loc 1 300 0
 213 0098 FFF7FEFF 		bl	Opamp_FACE_Stop
 214              	.LVL17:
 215              	.LBE73:
 216              	.LBE72:
 217              	.LBB74:
 218              	.LBB75:
 273:main.c        ****       Opamp_1_Stop();
 219              		.loc 1 273 0
 220 009c 0620     		movs	r0, #6
 221 009e FFF7FEFF 		bl	VREF_A_SetDriveMode
 222              	.LVL18:
 274:main.c        ****     }
 223              		.loc 1 274 0
 224 00a2 FFF7FEFF 		bl	Opamp_1_Stop
ARM GAS  C:\Users\Rajesh\AppData\Local\Temp\ccgfupv2.s 			page 11


 225              	.LVL19:
 226              	.LBE75:
 227              	.LBE74:
 228              	.LBB76:
 229              	.LBB77:
 286:main.c        ****       Opamp_2_Stop();
 230              		.loc 1 286 0
 231 00a6 0620     		movs	r0, #6
 232 00a8 FFF7FEFF 		bl	VREF_B_SetDriveMode
 233              	.LVL20:
 234              	.LBE77:
 235              	.LBE76:
 236              	.LBB79:
 237              	.LBB80:
 253:main.c        ****             (set.trig_source&LED_FACE && TRIG_FACE_Read()) ||
 238              		.loc 1 253 0
 239 00ac 0425     		movs	r5, #4
 240              	.LBE80:
 241              	.LBE79:
 242              	.LBB85:
 243              	.LBB78:
 287:main.c        ****     }
 244              		.loc 1 287 0
 245 00ae FFF7FEFF 		bl	Opamp_2_Stop
 246              	.LVL21:
 247              	.LBE78:
 248              	.LBE85:
 249              	.LBB86:
 250              	.LBB83:
 254:main.c        ****             (set.trig_source&LED_RIGHT && TRIG_RIGHT_Read()) ||
 251              		.loc 1 254 0
 252 00b2 0226     		movs	r6, #2
 255:main.c        ****             (set.trig_source&LED_LEFT && TRIG_LEFT_Read())  
 253              		.loc 1 255 0
 254 00b4 0127     		movs	r7, #1
 255              	.L24:
 254:main.c        ****             (set.trig_source&LED_RIGHT && TRIG_RIGHT_Read()) ||
 256              		.loc 1 254 0
 257 00b6 2379     		ldrb	r3, [r4, #4]
 253:main.c        ****             (set.trig_source&LED_FACE && TRIG_FACE_Read()) ||
 258              		.loc 1 253 0
 259 00b8 1D42     		tst	r5, r3
 260 00ba 19D1     		bne	.L16
 261              	.L20:
 255:main.c        ****             (set.trig_source&LED_LEFT && TRIG_LEFT_Read())  
 262              		.loc 1 255 0
 263 00bc 2379     		ldrb	r3, [r4, #4]
 254:main.c        ****             (set.trig_source&LED_RIGHT && TRIG_RIGHT_Read()) ||
 264              		.loc 1 254 0
 265 00be 1E42     		tst	r6, r3
 266 00c0 1DD1     		bne	.L52
 267              	.L18:
 256:main.c        ****           )
 268              		.loc 1 256 0
 269 00c2 2379     		ldrb	r3, [r4, #4]
 255:main.c        ****             (set.trig_source&LED_LEFT && TRIG_LEFT_Read())  
 270              		.loc 1 255 0
ARM GAS  C:\Users\Rajesh\AppData\Local\Temp\ccgfupv2.s 			page 12


 271 00c4 1F42     		tst	r7, r3
 272 00c6 0CD1     		bne	.L53
 273              	.L22:
 274              	.LBE83:
 275              	.LBE86:
 325:main.c        ****                 if (GetTrig()==0)
 326:main.c        ****                    break;
 327:main.c        ****     //        in_trig=0;
 328:main.c        ****             DriveFace(0);
 329:main.c        ****             DriveLeft(0);
 330:main.c        ****             DriveRight(0);
 331:main.c        ****              while(GetTrig());
 332:main.c        ****             // use the upper 4 bits to enable the toggle mode
 333:main.c        ****             set.led_enable=(set.led_enable&0xf0) | ( (set.led_enable^(set.led_enable>>4))&0xf);
 276              		.loc 1 333 0
 277 00c8 E178     		ldrb	r1, [r4, #3]
 278 00ca E378     		ldrb	r3, [r4, #3]
 279 00cc E278     		ldrb	r2, [r4, #3]
 280              	.LBE63:
 334:main.c        ****  
 335:main.c        ****             }
 336:main.c        ****     
 337:main.c        **** }
 281              		.loc 1 337 0
 282              		@ sp needed
 283              	.LBB99:
 333:main.c        ****  
 284              		.loc 1 333 0
 285 00ce 1209     		lsrs	r2, r2, #4
 286 00d0 5340     		eors	r3, r2
 287 00d2 0F22     		movs	r2, #15
 288 00d4 1340     		ands	r3, r2
 289 00d6 9143     		bics	r1, r2
 290 00d8 0B43     		orrs	r3, r1
 291 00da E370     		strb	r3, [r4, #3]
 292              	.LBE99:
 293              		.loc 1 337 0
 294 00dc 04BC     		pop	{r2}
 295 00de 9046     		mov	r8, r2
 296 00e0 F0BD     		pop	{r4, r5, r6, r7, pc}
 297              	.L53:
 298              	.LBB100:
 299              	.LBB87:
 300              	.LBB84:
 301              	.LBB81:
 302              	.LBB82:
 256:main.c        ****           )
 303              		.loc 1 256 0
 304 00e2 FFF7FEFF 		bl	TRIG_LEFT_Read
 305              	.LVL22:
 306 00e6 0028     		cmp	r0, #0
 307 00e8 EED0     		beq	.L22
 308              	.LBE82:
 309              	.LBE81:
 254:main.c        ****             (set.trig_source&LED_RIGHT && TRIG_RIGHT_Read()) ||
 310              		.loc 1 254 0
 311 00ea 2379     		ldrb	r3, [r4, #4]
ARM GAS  C:\Users\Rajesh\AppData\Local\Temp\ccgfupv2.s 			page 13


 253:main.c        ****             (set.trig_source&LED_FACE && TRIG_FACE_Read()) ||
 312              		.loc 1 253 0
 313 00ec 1D42     		tst	r5, r3
 314 00ee E5D0     		beq	.L20
 315              	.L16:
 254:main.c        ****             (set.trig_source&LED_RIGHT && TRIG_RIGHT_Read()) ||
 316              		.loc 1 254 0
 317 00f0 FFF7FEFF 		bl	TRIG_FACE_Read
 318              	.LVL23:
 319 00f4 0028     		cmp	r0, #0
 320 00f6 DED1     		bne	.L24
 255:main.c        ****             (set.trig_source&LED_LEFT && TRIG_LEFT_Read())  
 321              		.loc 1 255 0
 322 00f8 2379     		ldrb	r3, [r4, #4]
 254:main.c        ****             (set.trig_source&LED_RIGHT && TRIG_RIGHT_Read()) ||
 323              		.loc 1 254 0
 324 00fa 1E42     		tst	r6, r3
 325 00fc E1D0     		beq	.L18
 326              	.L52:
 255:main.c        ****             (set.trig_source&LED_LEFT && TRIG_LEFT_Read())  
 327              		.loc 1 255 0
 328 00fe FFF7FEFF 		bl	TRIG_RIGHT_Read
 329              	.LVL24:
 330 0102 0028     		cmp	r0, #0
 331 0104 DDD0     		beq	.L18
 332 0106 D6E7     		b	.L24
 333              	.LVL25:
 334              	.L51:
 335              	.LBE84:
 336              	.LBE87:
 337              	.LBB88:
 338              	.LBB69:
 339              	.LBB66:
 340              	.LBB67:
 256:main.c        ****           )
 341              		.loc 1 256 0
 342 0108 FFF7FEFF 		bl	TRIG_LEFT_Read
 343              	.LVL26:
 344 010c 0028     		cmp	r0, #0
 345 010e C0D0     		beq	.L8
 346              	.L12:
 347              	.LBE67:
 348              	.LBE66:
 349              	.LBE69:
 350              	.LBE88:
 324:main.c        ****                 if (GetTrig()==0)
 351              		.loc 1 324 0
 352 0110 6423     		movs	r3, #100
 353 0112 A279     		ldrb	r2, [r4, #6]
 354 0114 0135     		adds	r5, r5, #1
 355              	.LVL27:
 356 0116 5343     		muls	r3, r2
 357 0118 9D42     		cmp	r5, r3
 358 011a BADA     		bge	.L8
 359              	.LBB89:
 360              	.LBB70:
 254:main.c        ****             (set.trig_source&LED_RIGHT && TRIG_RIGHT_Read()) ||
ARM GAS  C:\Users\Rajesh\AppData\Local\Temp\ccgfupv2.s 			page 14


 361              		.loc 1 254 0
 362 011c 2379     		ldrb	r3, [r4, #4]
 253:main.c        ****             (set.trig_source&LED_FACE && TRIG_FACE_Read()) ||
 363              		.loc 1 253 0
 364 011e 1E42     		tst	r6, r3
 365 0120 B0D0     		beq	.L13
 366              	.L9:
 254:main.c        ****             (set.trig_source&LED_RIGHT && TRIG_RIGHT_Read()) ||
 367              		.loc 1 254 0
 368 0122 FFF7FEFF 		bl	TRIG_FACE_Read
 369              	.LVL28:
 370 0126 0028     		cmp	r0, #0
 371 0128 F2D1     		bne	.L12
 255:main.c        ****             (set.trig_source&LED_LEFT && TRIG_LEFT_Read())  
 372              		.loc 1 255 0
 373 012a 2379     		ldrb	r3, [r4, #4]
 254:main.c        ****             (set.trig_source&LED_RIGHT && TRIG_RIGHT_Read()) ||
 374              		.loc 1 254 0
 375 012c 1F42     		tst	r7, r3
 376 012e ACD0     		beq	.L11
 377              	.L50:
 255:main.c        ****             (set.trig_source&LED_LEFT && TRIG_LEFT_Read())  
 378              		.loc 1 255 0
 379 0130 FFF7FEFF 		bl	TRIG_RIGHT_Read
 380              	.LVL29:
 381 0134 0028     		cmp	r0, #0
 382 0136 A8D0     		beq	.L11
 383 0138 EAE7     		b	.L12
 384              	.LVL30:
 385              	.L47:
 386              	.LBE70:
 387              	.LBE89:
 388              	.LBB90:
 389              	.LBB91:
 390              	.LBB92:
 268:main.c        ****       Opamp_1_Start();
 391              		.loc 1 268 0
 392 013a 0020     		movs	r0, #0
 393 013c FFF7FEFF 		bl	VREF_A_SetDriveMode
 394              	.LVL31:
 269:main.c        ****      }
 395              		.loc 1 269 0
 396 0140 FFF7FEFF 		bl	Opamp_1_Start
 397              	.LVL32:
 398              	.LBE92:
 399              	.LBE91:
 400              	.LBE90:
 319:main.c        ****                 DriveRight(1);
 401              		.loc 1 319 0
 402 0144 E378     		ldrb	r3, [r4, #3]
 403 0146 9B07     		lsls	r3, r3, #30
 404 0148 00D4     		bmi	.LCB352
 405 014a 8CE7     		b	.L6	@long jump
 406              	.LCB352:
 407              	.LVL33:
 408              	.L48:
 409              	.LBB93:
ARM GAS  C:\Users\Rajesh\AppData\Local\Temp\ccgfupv2.s 			page 15


 410              	.LBB94:
 411              	.LBB95:
 281:main.c        ****       Opamp_2_Start();
 412              		.loc 1 281 0
 413 014c 0020     		movs	r0, #0
 414 014e FFF7FEFF 		bl	VREF_B_SetDriveMode
 415              	.LVL34:
 282:main.c        ****      }
 416              		.loc 1 282 0
 417 0152 FFF7FEFF 		bl	Opamp_2_Start
 418              	.LVL35:
 419              	.LBE95:
 420              	.LBE94:
 421              	.LBE93:
 322:main.c        ****                 DriveFace(1);
 422              		.loc 1 322 0
 423 0156 E378     		ldrb	r3, [r4, #3]
 424 0158 5B07     		lsls	r3, r3, #29
 425 015a 00D4     		bmi	.LCB371
 426 015c 87E7     		b	.L7	@long jump
 427              	.LCB371:
 428              	.LVL36:
 429              	.L49:
 430              	.LBB96:
 431              	.LBB97:
 432              	.LBB98:
 294:main.c        ****       Opamp_FACE_Start();
 433              		.loc 1 294 0
 434 015e 0020     		movs	r0, #0
 435 0160 FFF7FEFF 		bl	VREF_C_SetDriveMode
 436              	.LVL37:
 295:main.c        ****      }
 437              		.loc 1 295 0
 438 0164 FFF7FEFF 		bl	Opamp_FACE_Start
 439              	.LVL38:
 440 0168 81E7     		b	.L7
 441              	.L55:
 442 016a C046     		.align	2
 443              	.L54:
 444 016c 00000000 		.word	set
 445 0170 00000000 		.word	.LANCHOR0
 446 0174 9A999999 		.word	-1717986918
 447 0178 9999C93F 		.word	1070176665
 448 017c 61325530 		.word	810889825
 449 0180 2AA9633F 		.word	1063495978
 450 0184 00002440 		.word	1076101120
 451 0188 0000E03F 		.word	1071644672
 452              	.LBE98:
 453              	.LBE97:
 454              	.LBE96:
 455              	.LBE100:
 456              		.cfi_endproc
 457              	.LFE49:
 458              		.size	TrigTask.part.5, .-TrigTask.part.5
 459              		.global	__aeabi_idiv
 460              		.section	.text.DoVLoop,"ax",%progbits
 461              		.align	2
ARM GAS  C:\Users\Rajesh\AppData\Local\Temp\ccgfupv2.s 			page 16


 462              		.global	DoVLoop
 463              		.code	16
 464              		.thumb_func
 465              		.type	DoVLoop, %function
 466              	DoVLoop:
 467              	.LFB34:
  63:main.c        ****     int v;
 468              		.loc 1 63 0
 469              		.cfi_startproc
 470              		@ args = 0, pretend = 0, frame = 0
 471              		@ frame_needed = 0, uses_anonymous_args = 0
 472              	.LVL39:
 473 0000 F8B5     		push	{r3, r4, r5, r6, r7, lr}
 474              		.cfi_def_cfa_offset 24
 475              		.cfi_offset 3, -24
 476              		.cfi_offset 4, -20
 477              		.cfi_offset 5, -16
 478              		.cfi_offset 6, -12
 479              		.cfi_offset 7, -8
 480              		.cfi_offset 14, -4
 481 0002 4F46     		mov	r7, r9
 482 0004 4646     		mov	r6, r8
 483 0006 0400     		movs	r4, r0
 484 0008 C0B4     		push	{r6, r7}
 485              		.cfi_def_cfa_offset 32
 486              		.cfi_offset 8, -32
 487              		.cfi_offset 9, -28
  72:main.c        ****     v = ADC_CountsTo_mVolts(0,val)*30;
 488              		.loc 1 72 0
 489 000a 0020     		movs	r0, #0
 490              	.LVL40:
 491 000c FFF7FEFF 		bl	ADC_GetResult16
 492              	.LVL41:
 493 0010 0100     		movs	r1, r0
 494              	.LVL42:
  73:main.c        ****     
 495              		.loc 1 73 0
 496 0012 0020     		movs	r0, #0
 497 0014 FFF7FEFF 		bl	ADC_CountsTo_mVolts
 498              	.LVL43:
  75:main.c        ****        set.min_v=v/1000;
 499              		.loc 1 75 0
 500 0018 FA21     		movs	r1, #250
  73:main.c        ****     
 501              		.loc 1 73 0
 502 001a 0301     		lsls	r3, r0, #4
  75:main.c        ****        set.min_v=v/1000;
 503              		.loc 1 75 0
 504 001c 2C4E     		ldr	r6, .L68
  73:main.c        ****     
 505              		.loc 1 73 0
 506 001e 1D1A     		subs	r5, r3, r0
  75:main.c        ****        set.min_v=v/1000;
 507              		.loc 1 75 0
 508 0020 F779     		ldrb	r7, [r6, #7]
  73:main.c        ****     
 509              		.loc 1 73 0
ARM GAS  C:\Users\Rajesh\AppData\Local\Temp\ccgfupv2.s 			page 17


 510 0022 6D00     		lsls	r5, r5, #1
 511              	.LVL44:
  75:main.c        ****        set.min_v=v/1000;
 512              		.loc 1 75 0
 513 0024 8900     		lsls	r1, r1, #2
 514 0026 2800     		movs	r0, r5
 515 0028 FFB2     		uxtb	r7, r7
 516 002a FFF7FEFF 		bl	__aeabi_idiv
 517              	.LVL45:
 518 002e 8742     		cmp	r7, r0
 519 0030 01DD     		ble	.L57
  76:main.c        ****     
 520              		.loc 1 76 0
 521 0032 C0B2     		uxtb	r0, r0
 522 0034 F071     		strb	r0, [r6, #7]
 523              	.L57:
  83:main.c        ****        i_term = MAX_I_TERM;
 524              		.loc 1 83 0
 525 0036 FA22     		movs	r2, #250
  82:main.c        ****     if (i_term>MAX_I_TERM)
 526              		.loc 1 82 0
 527 0038 264F     		ldr	r7, .L68+4
  79:main.c        ****     
 528              		.loc 1 79 0
 529 003a 641B     		subs	r4, r4, r5
 530              	.LVL46:
  82:main.c        ****     if (i_term>MAX_I_TERM)
 531              		.loc 1 82 0
 532 003c BB68     		ldr	r3, [r7, #8]
  83:main.c        ****        i_term = MAX_I_TERM;
 533              		.loc 1 83 0
 534 003e 9200     		lsls	r2, r2, #2
  82:main.c        ****     if (i_term>MAX_I_TERM)
 535              		.loc 1 82 0
 536 0040 E018     		adds	r0, r4, r3
 537 0042 B860     		str	r0, [r7, #8]
  83:main.c        ****        i_term = MAX_I_TERM;
 538              		.loc 1 83 0
 539 0044 737A     		ldrb	r3, [r6, #9]
 540 0046 053B     		subs	r3, r3, #5
 541 0048 5343     		muls	r3, r2
 542 004a 9842     		cmp	r0, r3
 543 004c 03DD     		ble	.L58
  84:main.c        ****     if (i_term<0)
 544              		.loc 1 84 0
 545 004e 707A     		ldrb	r0, [r6, #9]
 546 0050 0538     		subs	r0, r0, #5
 547 0052 5043     		muls	r0, r2
 548 0054 B860     		str	r0, [r7, #8]
 549              	.L58:
  85:main.c        ****       i_term=0;
 550              		.loc 1 85 0
 551 0056 0028     		cmp	r0, #0
 552 0058 36DB     		blt	.L67
 553              	.L59:
  89:main.c        ****     
 554              		.loc 1 89 0
ARM GAS  C:\Users\Rajesh\AppData\Local\Temp\ccgfupv2.s 			page 18


 555 005a 1F4B     		ldr	r3, .L68+8
 556 005c 9846     		mov	r8, r3
 557 005e 1968     		ldr	r1, [r3]
 558 0060 FFF7FEFF 		bl	__aeabi_idiv
 559              	.LVL47:
 560 0064 4346     		mov	r3, r8
 561 0066 8146     		mov	r9, r0
 562 0068 5968     		ldr	r1, [r3, #4]
 563 006a 2000     		movs	r0, r4
 564 006c FFF7FEFF 		bl	__aeabi_idiv
 565              	.LVL48:
  91:main.c        ****        set_val = (set.max_duty*4);
 566              		.loc 1 91 0
 567 0070 737A     		ldrb	r3, [r6, #9]
  89:main.c        ****     
 568              		.loc 1 89 0
 569 0072 4844     		add	r0, r0, r9
 570 0074 0400     		movs	r4, r0
 571              	.LVL49:
  91:main.c        ****        set_val = (set.max_duty*4);
 572              		.loc 1 91 0
 573 0076 9B00     		lsls	r3, r3, #2
 574 0078 9842     		cmp	r0, r3
 575 007a 01DD     		ble	.L60
  92:main.c        ****     if (set_val<1)
 576              		.loc 1 92 0
 577 007c 747A     		ldrb	r4, [r6, #9]
 578 007e A400     		lsls	r4, r4, #2
 579              	.LVL50:
 580              	.L60:
  93:main.c        ****         set_val=1;
 581              		.loc 1 93 0
 582 0080 002C     		cmp	r4, #0
 583 0082 1EDD     		ble	.L65
 584 0084 E3B2     		uxtb	r3, r4
 585              	.LVL51:
 586              	.L61:
  95:main.c        ****     
 587              		.loc 1 95 0
 588 0086 3372     		strb	r3, [r6, #8]
 100:main.c        ****     // this ensures that the voltage does not go up too fast
 589              		.loc 1 100 0
 590 0088 5A23     		movs	r3, #90
 591 008a 7372     		strb	r3, [r6, #9]
 103:main.c        ****     if (set_val>mv)
 592              		.loc 1 103 0
 593 008c 134B     		ldr	r3, .L68+12
 594 008e 1449     		ldr	r1, .L68+16
 595 0090 E818     		adds	r0, r5, r3
 596 0092 FFF7FEFF 		bl	__aeabi_idiv
 597              	.LVL52:
 598 0096 3730     		adds	r0, r0, #55
 599 0098 8000     		lsls	r0, r0, #2
 600 009a 8442     		cmp	r4, r0
 601 009c 00DD     		ble	.L62
 602 009e 0400     		movs	r4, r0
 603              	.LVL53:
ARM GAS  C:\Users\Rajesh\AppData\Local\Temp\ccgfupv2.s 			page 19


 604              	.L62:
 112:main.c        ****     old_set_val=set_val;
 605              		.loc 1 112 0
 606 00a0 2000     		movs	r0, r4
 607 00a2 FFF7FEFF 		bl	PWM_CHARGE_WriteCompare
 608              	.LVL54:
 115:main.c        ****     st_idx++;
 609              		.loc 1 115 0
 610 00a6 3B69     		ldr	r3, [r7, #16]
 611 00a8 0E4A     		ldr	r2, .L68+20
 612 00aa 9900     		lsls	r1, r3, #2
 116:main.c        ****     if (st_idx==STORE_SIZE) st_idx=0;
 613              		.loc 1 116 0
 614 00ac 0133     		adds	r3, r3, #1
 115:main.c        ****     st_idx++;
 615              		.loc 1 115 0
 616 00ae 8C50     		str	r4, [r1, r2]
 117:main.c        **** last_val = v;
 617              		.loc 1 117 0
 618 00b0 642B     		cmp	r3, #100
 619 00b2 00D1     		bne	.L66
 117:main.c        **** last_val = v;
 620              		.loc 1 117 0 is_stmt 0 discriminator 1
 621 00b4 0023     		movs	r3, #0
 622              	.L66:
 120:main.c        **** /*int i_i_term =0;
 623              		.loc 1 120 0 is_stmt 1 discriminator 1
 624 00b6 2800     		movs	r0, r5
 117:main.c        **** last_val = v;
 625              		.loc 1 117 0 discriminator 1
 626 00b8 3B61     		str	r3, [r7, #16]
 120:main.c        **** /*int i_i_term =0;
 627              		.loc 1 120 0 discriminator 1
 628              		@ sp needed
 629              	.LVL55:
 630              	.LVL56:
 631 00ba 0CBC     		pop	{r2, r3}
 632 00bc 9046     		mov	r8, r2
 633 00be 9946     		mov	r9, r3
 634 00c0 F8BD     		pop	{r3, r4, r5, r6, r7, pc}
 635              	.LVL57:
 636              	.L65:
 637 00c2 0123     		movs	r3, #1
  94:main.c        ****     set.pwm=set_val;
 638              		.loc 1 94 0
 639 00c4 0124     		movs	r4, #1
 640              	.LVL58:
 641 00c6 DEE7     		b	.L61
 642              	.LVL59:
 643              	.L67:
  86:main.c        ****     
 644              		.loc 1 86 0
 645 00c8 0023     		movs	r3, #0
 646 00ca 0020     		movs	r0, #0
 647 00cc BB60     		str	r3, [r7, #8]
 648 00ce C4E7     		b	.L59
 649              	.L69:
ARM GAS  C:\Users\Rajesh\AppData\Local\Temp\ccgfupv2.s 			page 20


 650              		.align	2
 651              	.L68:
 652 00d0 00000000 		.word	set
 653 00d4 00000000 		.word	.LANCHOR0
 654 00d8 00000000 		.word	.LANCHOR1
 655 00dc 20D1FFFF 		.word	-12000
 656 00e0 7E040000 		.word	1150
 657 00e4 00000000 		.word	store
 658              		.cfi_endproc
 659              	.LFE34:
 660              		.size	DoVLoop, .-DoVLoop
 661              		.section	.text.HV_Task,"ax",%progbits
 662              		.align	2
 663              		.global	HV_Task
 664              		.code	16
 665              		.thumb_func
 666              		.type	HV_Task, %function
 667              	HV_Task:
 668              	.LFB35:
 198:main.c        ****     static int last_v=0;
 669              		.loc 1 198 0
 670              		.cfi_startproc
 671              		@ args = 0, pretend = 0, frame = 0
 672              		@ frame_needed = 0, uses_anonymous_args = 0
 673 0000 70B5     		push	{r4, r5, r6, lr}
 674              		.cfi_def_cfa_offset 16
 675              		.cfi_offset 4, -16
 676              		.cfi_offset 5, -12
 677              		.cfi_offset 6, -8
 678              		.cfi_offset 14, -4
 200:main.c        ****         {
 679              		.loc 1 200 0
 680 0002 224B     		ldr	r3, .L80
 681 0004 224C     		ldr	r4, .L80+4
 682 0006 5A78     		ldrb	r2, [r3, #1]
 683 0008 002A     		cmp	r2, #0
 684 000a 1CD0     		beq	.L71
 200:main.c        ****         {
 685              		.loc 1 200 0 is_stmt 0 discriminator 1
 686 000c 227B     		ldrb	r2, [r4, #12]
 687 000e 002A     		cmp	r2, #0
 688 0010 19D1     		bne	.L71
 689              	.LBB103:
 690              	.LBB104:
 211:main.c        ****                 set_v=set.hv_volt*1000;
 691              		.loc 1 211 0 is_stmt 1
 692 0012 FA21     		movs	r1, #250
 693 0014 9A78     		ldrb	r2, [r3, #2]
 694 0016 8900     		lsls	r1, r1, #2
 695 0018 4A43     		muls	r2, r1
 696 001a 6069     		ldr	r0, [r4, #20]
 697 001c 8242     		cmp	r2, r0
 698 001e 30DB     		blt	.L79
 699              	.L72:
 214:main.c        ****                 {
 700              		.loc 1 214 0
 701 0020 FA21     		movs	r1, #250
ARM GAS  C:\Users\Rajesh\AppData\Local\Temp\ccgfupv2.s 			page 21


 702 0022 9A78     		ldrb	r2, [r3, #2]
 703 0024 8900     		lsls	r1, r1, #2
 704 0026 4A43     		muls	r2, r1
 705 0028 8242     		cmp	r2, r0
 706 002a 09DD     		ble	.L73
 216:main.c        ****                 if (set_v >set.hv_volt*1000)
 707              		.loc 1 216 0
 708 002c DA7A     		ldrb	r2, [r3, #11]
 709 002e 8018     		adds	r0, r0, r2
 710 0030 6061     		str	r0, [r4, #20]
 217:main.c        ****                     set_v=set.hv_volt*1000;
 711              		.loc 1 217 0
 712 0032 9A78     		ldrb	r2, [r3, #2]
 713 0034 4A43     		muls	r2, r1
 714 0036 9042     		cmp	r0, r2
 715 0038 02DD     		ble	.L73
 218:main.c        ****                 }
 716              		.loc 1 218 0
 717 003a 9878     		ldrb	r0, [r3, #2]
 718 003c 4843     		muls	r0, r1
 719 003e 6061     		str	r0, [r4, #20]
 720              	.L73:
 220:main.c        ****             
 721              		.loc 1 220 0
 722 0040 FFF7FEFF 		bl	DoVLoop
 723              	.LVL60:
 724 0044 1AE0     		b	.L70
 725              	.L71:
 726              	.LBE104:
 727              	.LBE103:
 226:main.c        ****             set_v = ADC_CountsTo_mVolts(0, ADC_GetResult16(0))*30;
 728              		.loc 1 226 0
 729 0046 0120     		movs	r0, #1
 730 0048 FFF7FEFF 		bl	PWM_CHARGE_WriteCompare
 731              	.LVL61:
 227:main.c        ****             i_term=0;
 732              		.loc 1 227 0
 733 004c 0020     		movs	r0, #0
 734 004e FFF7FEFF 		bl	ADC_GetResult16
 735              	.LVL62:
 736 0052 0100     		movs	r1, r0
 737 0054 0020     		movs	r0, #0
 738 0056 FFF7FEFF 		bl	ADC_CountsTo_mVolts
 739              	.LVL63:
 231:main.c        ****             st_idx++;
 740              		.loc 1 231 0
 741 005a 0125     		movs	r5, #1
 228:main.c        ****             //i_i_term=0;
 742              		.loc 1 228 0
 743 005c 0022     		movs	r2, #0
 227:main.c        ****             i_term=0;
 744              		.loc 1 227 0
 745 005e 0301     		lsls	r3, r0, #4
 746 0060 181A     		subs	r0, r3, r0
 231:main.c        ****             st_idx++;
 747              		.loc 1 231 0
 748 0062 2369     		ldr	r3, [r4, #16]
ARM GAS  C:\Users\Rajesh\AppData\Local\Temp\ccgfupv2.s 			page 22


 227:main.c        ****             i_term=0;
 749              		.loc 1 227 0
 750 0064 4000     		lsls	r0, r0, #1
 231:main.c        ****             st_idx++;
 751              		.loc 1 231 0
 752 0066 0B49     		ldr	r1, .L80+8
 227:main.c        ****             i_term=0;
 753              		.loc 1 227 0
 754 0068 6061     		str	r0, [r4, #20]
 231:main.c        ****             st_idx++;
 755              		.loc 1 231 0
 756 006a 6D42     		rsbs	r5, r5, #0
 757 006c 9800     		lsls	r0, r3, #2
 232:main.c        ****             if (st_idx==STORE_SIZE)
 758              		.loc 1 232 0
 759 006e 0133     		adds	r3, r3, #1
 228:main.c        ****             //i_i_term=0;
 760              		.loc 1 228 0
 761 0070 A260     		str	r2, [r4, #8]
 230:main.c        ****             store[st_idx]=-1;
 762              		.loc 1 230 0
 763 0072 2273     		strb	r2, [r4, #12]
 231:main.c        ****             st_idx++;
 764              		.loc 1 231 0
 765 0074 4550     		str	r5, [r0, r1]
 233:main.c        ****                st_idx=0;
 766              		.loc 1 233 0
 767 0076 642B     		cmp	r3, #100
 768 0078 01D0     		beq	.L75
 232:main.c        ****             if (st_idx==STORE_SIZE)
 769              		.loc 1 232 0
 770 007a 2361     		str	r3, [r4, #16]
 771              	.L70:
 236:main.c        **** 
 772              		.loc 1 236 0
 773              		@ sp needed
 774 007c 70BD     		pop	{r4, r5, r6, pc}
 775              	.L75:
 234:main.c        ****             }
 776              		.loc 1 234 0
 777 007e 2261     		str	r2, [r4, #16]
 236:main.c        **** 
 778              		.loc 1 236 0
 779 0080 FCE7     		b	.L70
 780              	.L79:
 781              	.LBB106:
 782              	.LBB105:
 212:main.c        ****             
 783              		.loc 1 212 0
 784 0082 9878     		ldrb	r0, [r3, #2]
 785 0084 4843     		muls	r0, r1
 786 0086 6061     		str	r0, [r4, #20]
 787 0088 CAE7     		b	.L72
 788              	.L81:
 789 008a C046     		.align	2
 790              	.L80:
 791 008c 00000000 		.word	set
ARM GAS  C:\Users\Rajesh\AppData\Local\Temp\ccgfupv2.s 			page 23


 792 0090 00000000 		.word	.LANCHOR0
 793 0094 00000000 		.word	store
 794              	.LBE105:
 795              	.LBE106:
 796              		.cfi_endproc
 797              	.LFE35:
 798              		.size	HV_Task, .-HV_Task
 799              		.section	.text.GetTrig,"ax",%progbits
 800              		.align	2
 801              		.global	GetTrig
 802              		.code	16
 803              		.thumb_func
 804              		.type	GetTrig, %function
 805              	GetTrig:
 806              	.LFB37:
 252:main.c        ****        if (
 807              		.loc 1 252 0
 808              		.cfi_startproc
 809              		@ args = 0, pretend = 0, frame = 0
 810              		@ frame_needed = 0, uses_anonymous_args = 0
 811 0000 10B5     		push	{r4, lr}
 812              		.cfi_def_cfa_offset 8
 813              		.cfi_offset 4, -8
 814              		.cfi_offset 14, -4
 254:main.c        ****             (set.trig_source&LED_RIGHT && TRIG_RIGHT_Read()) ||
 815              		.loc 1 254 0
 816 0002 0F4C     		ldr	r4, .L97
 817 0004 2379     		ldrb	r3, [r4, #4]
 253:main.c        ****             (set.trig_source&LED_FACE && TRIG_FACE_Read()) ||
 818              		.loc 1 253 0
 819 0006 5B07     		lsls	r3, r3, #29
 820 0008 0DD4     		bmi	.L83
 821              	.L86:
 255:main.c        ****             (set.trig_source&LED_LEFT && TRIG_LEFT_Read())  
 822              		.loc 1 255 0
 823 000a 2379     		ldrb	r3, [r4, #4]
 254:main.c        ****             (set.trig_source&LED_RIGHT && TRIG_RIGHT_Read()) ||
 824              		.loc 1 254 0
 825 000c 9B07     		lsls	r3, r3, #30
 826 000e 10D4     		bmi	.L95
 827              	.L85:
 828 0010 0120     		movs	r0, #1
 256:main.c        ****           )
 829              		.loc 1 256 0
 830 0012 2379     		ldrb	r3, [r4, #4]
 831 0014 1840     		ands	r0, r3
 255:main.c        ****             (set.trig_source&LED_LEFT && TRIG_LEFT_Read())  
 832              		.loc 1 255 0
 833 0016 00D1     		bne	.L96
 834              	.L87:
 261:main.c        **** 
 835              		.loc 1 261 0
 836              		@ sp needed
 837 0018 10BD     		pop	{r4, pc}
 838              	.L96:
 839              	.LBB109:
 840              	.LBB110:
ARM GAS  C:\Users\Rajesh\AppData\Local\Temp\ccgfupv2.s 			page 24


 256:main.c        ****           )
 841              		.loc 1 256 0
 842 001a FFF7FEFF 		bl	TRIG_LEFT_Read
 843              	.LVL64:
 844              	.LBE110:
 845              	.LBE109:
 258:main.c        ****     else
 846              		.loc 1 258 0
 847 001e 431E     		subs	r3, r0, #1
 848 0020 9841     		sbcs	r0, r0, r3
 849 0022 C0B2     		uxtb	r0, r0
 850 0024 F8E7     		b	.L87
 851              	.L83:
 254:main.c        ****             (set.trig_source&LED_RIGHT && TRIG_RIGHT_Read()) ||
 852              		.loc 1 254 0
 853 0026 FFF7FEFF 		bl	TRIG_FACE_Read
 854              	.LVL65:
 855 002a 0028     		cmp	r0, #0
 856 002c EDD0     		beq	.L86
 258:main.c        ****     else
 857              		.loc 1 258 0
 858 002e 0120     		movs	r0, #1
 859 0030 F2E7     		b	.L87
 860              	.L95:
 255:main.c        ****             (set.trig_source&LED_LEFT && TRIG_LEFT_Read())  
 861              		.loc 1 255 0
 862 0032 FFF7FEFF 		bl	TRIG_RIGHT_Read
 863              	.LVL66:
 864 0036 0028     		cmp	r0, #0
 865 0038 EAD0     		beq	.L85
 258:main.c        ****     else
 866              		.loc 1 258 0
 867 003a 0120     		movs	r0, #1
 868 003c ECE7     		b	.L87
 869              	.L98:
 870 003e C046     		.align	2
 871              	.L97:
 872 0040 00000000 		.word	set
 873              		.cfi_endproc
 874              	.LFE37:
 875              		.size	GetTrig, .-GetTrig
 876              		.section	.text.DriveLeft,"ax",%progbits
 877              		.align	2
 878              		.global	DriveLeft
 879              		.code	16
 880              		.thumb_func
 881              		.type	DriveLeft, %function
 882              	DriveLeft:
 883              	.LFB38:
 265:main.c        ****     if (on)
 884              		.loc 1 265 0
 885              		.cfi_startproc
 886              		@ args = 0, pretend = 0, frame = 0
 887              		@ frame_needed = 0, uses_anonymous_args = 0
 888              	.LVL67:
 889 0000 10B5     		push	{r4, lr}
 890              		.cfi_def_cfa_offset 8
ARM GAS  C:\Users\Rajesh\AppData\Local\Temp\ccgfupv2.s 			page 25


 891              		.cfi_offset 4, -8
 892              		.cfi_offset 14, -4
 266:main.c        ****       {
 893              		.loc 1 266 0
 894 0002 0028     		cmp	r0, #0
 895 0004 05D1     		bne	.L102
 273:main.c        ****       Opamp_1_Stop();
 896              		.loc 1 273 0
 897 0006 0620     		movs	r0, #6
 898              	.LVL68:
 899 0008 FFF7FEFF 		bl	VREF_A_SetDriveMode
 900              	.LVL69:
 274:main.c        ****     }
 901              		.loc 1 274 0
 902 000c FFF7FEFF 		bl	Opamp_1_Stop
 903              	.LVL70:
 904              	.L99:
 276:main.c        **** void DriveRight(uint8 on)
 905              		.loc 1 276 0
 906              		@ sp needed
 907 0010 10BD     		pop	{r4, pc}
 908              	.LVL71:
 909              	.L102:
 910              	.LBB113:
 911              	.LBB114:
 268:main.c        ****       Opamp_1_Start();
 912              		.loc 1 268 0
 913 0012 0020     		movs	r0, #0
 914              	.LVL72:
 915 0014 FFF7FEFF 		bl	VREF_A_SetDriveMode
 916              	.LVL73:
 269:main.c        ****      }
 917              		.loc 1 269 0
 918 0018 FFF7FEFF 		bl	Opamp_1_Start
 919              	.LVL74:
 920 001c F8E7     		b	.L99
 921              	.LBE114:
 922              	.LBE113:
 923              		.cfi_endproc
 924              	.LFE38:
 925              		.size	DriveLeft, .-DriveLeft
 926 001e C046     		.section	.text.DriveRight,"ax",%progbits
 927              		.align	2
 928              		.global	DriveRight
 929              		.code	16
 930              		.thumb_func
 931              		.type	DriveRight, %function
 932              	DriveRight:
 933              	.LFB39:
 278:main.c        ****     if (on)
 934              		.loc 1 278 0
 935              		.cfi_startproc
 936              		@ args = 0, pretend = 0, frame = 0
 937              		@ frame_needed = 0, uses_anonymous_args = 0
 938              	.LVL75:
 939 0000 10B5     		push	{r4, lr}
 940              		.cfi_def_cfa_offset 8
ARM GAS  C:\Users\Rajesh\AppData\Local\Temp\ccgfupv2.s 			page 26


 941              		.cfi_offset 4, -8
 942              		.cfi_offset 14, -4
 279:main.c        ****       {
 943              		.loc 1 279 0
 944 0002 0028     		cmp	r0, #0
 945 0004 05D1     		bne	.L106
 286:main.c        ****       Opamp_2_Stop();
 946              		.loc 1 286 0
 947 0006 0620     		movs	r0, #6
 948              	.LVL76:
 949 0008 FFF7FEFF 		bl	VREF_B_SetDriveMode
 950              	.LVL77:
 287:main.c        ****     }
 951              		.loc 1 287 0
 952 000c FFF7FEFF 		bl	Opamp_2_Stop
 953              	.LVL78:
 954              	.L103:
 289:main.c        **** void DriveFace(uint8 on)
 955              		.loc 1 289 0
 956              		@ sp needed
 957 0010 10BD     		pop	{r4, pc}
 958              	.LVL79:
 959              	.L106:
 960              	.LBB117:
 961              	.LBB118:
 281:main.c        ****       Opamp_2_Start();
 962              		.loc 1 281 0
 963 0012 0020     		movs	r0, #0
 964              	.LVL80:
 965 0014 FFF7FEFF 		bl	VREF_B_SetDriveMode
 966              	.LVL81:
 282:main.c        ****      }
 967              		.loc 1 282 0
 968 0018 FFF7FEFF 		bl	Opamp_2_Start
 969              	.LVL82:
 970 001c F8E7     		b	.L103
 971              	.LBE118:
 972              	.LBE117:
 973              		.cfi_endproc
 974              	.LFE39:
 975              		.size	DriveRight, .-DriveRight
 976 001e C046     		.section	.text.DriveFace,"ax",%progbits
 977              		.align	2
 978              		.global	DriveFace
 979              		.code	16
 980              		.thumb_func
 981              		.type	DriveFace, %function
 982              	DriveFace:
 983              	.LFB40:
 291:main.c        ****     if (on)
 984              		.loc 1 291 0
 985              		.cfi_startproc
 986              		@ args = 0, pretend = 0, frame = 0
 987              		@ frame_needed = 0, uses_anonymous_args = 0
 988              	.LVL83:
 989 0000 10B5     		push	{r4, lr}
 990              		.cfi_def_cfa_offset 8
ARM GAS  C:\Users\Rajesh\AppData\Local\Temp\ccgfupv2.s 			page 27


 991              		.cfi_offset 4, -8
 992              		.cfi_offset 14, -4
 292:main.c        ****       {
 993              		.loc 1 292 0
 994 0002 0028     		cmp	r0, #0
 995 0004 05D1     		bne	.L110
 299:main.c        ****       Opamp_FACE_Stop();
 996              		.loc 1 299 0
 997 0006 0620     		movs	r0, #6
 998              	.LVL84:
 999 0008 FFF7FEFF 		bl	VREF_C_SetDriveMode
 1000              	.LVL85:
 300:main.c        ****     }
 1001              		.loc 1 300 0
 1002 000c FFF7FEFF 		bl	Opamp_FACE_Stop
 1003              	.LVL86:
 1004              	.L107:
 302:main.c        **** 
 1005              		.loc 1 302 0
 1006              		@ sp needed
 1007 0010 10BD     		pop	{r4, pc}
 1008              	.LVL87:
 1009              	.L110:
 1010              	.LBB121:
 1011              	.LBB122:
 294:main.c        ****       Opamp_FACE_Start();
 1012              		.loc 1 294 0
 1013 0012 0020     		movs	r0, #0
 1014              	.LVL88:
 1015 0014 FFF7FEFF 		bl	VREF_C_SetDriveMode
 1016              	.LVL89:
 295:main.c        ****      }
 1017              		.loc 1 295 0
 1018 0018 FFF7FEFF 		bl	Opamp_FACE_Start
 1019              	.LVL90:
 1020 001c F8E7     		b	.L107
 1021              	.LBE122:
 1022              	.LBE121:
 1023              		.cfi_endproc
 1024              	.LFE40:
 1025              		.size	DriveFace, .-DriveFace
 1026 001e C046     		.section	.text.TrigTask,"ax",%progbits
 1027              		.align	2
 1028              		.global	TrigTask
 1029              		.code	16
 1030              		.thumb_func
 1031              		.type	TrigTask, %function
 1032              	TrigTask:
 1033              	.LFB41:
 306:main.c        ****     int x;
 1034              		.loc 1 306 0
 1035              		.cfi_startproc
 1036              		@ args = 0, pretend = 0, frame = 0
 1037              		@ frame_needed = 0, uses_anonymous_args = 0
 1038 0000 10B5     		push	{r4, lr}
 1039              		.cfi_def_cfa_offset 8
 1040              		.cfi_offset 4, -8
ARM GAS  C:\Users\Rajesh\AppData\Local\Temp\ccgfupv2.s 			page 28


 1041              		.cfi_offset 14, -4
 1042              	.LBB127:
 1043              	.LBB128:
 254:main.c        ****             (set.trig_source&LED_RIGHT && TRIG_RIGHT_Read()) ||
 1044              		.loc 1 254 0
 1045 0002 104C     		ldr	r4, .L125
 1046 0004 2379     		ldrb	r3, [r4, #4]
 253:main.c        ****             (set.trig_source&LED_FACE && TRIG_FACE_Read()) ||
 1047              		.loc 1 253 0
 1048 0006 5B07     		lsls	r3, r3, #29
 1049 0008 0DD4     		bmi	.L112
 255:main.c        ****             (set.trig_source&LED_LEFT && TRIG_LEFT_Read())  
 1050              		.loc 1 255 0
 1051 000a 2379     		ldrb	r3, [r4, #4]
 254:main.c        ****             (set.trig_source&LED_RIGHT && TRIG_RIGHT_Read()) ||
 1052              		.loc 1 254 0
 1053 000c 9B07     		lsls	r3, r3, #30
 1054 000e 11D4     		bmi	.L123
 1055              	.L114:
 256:main.c        ****           )
 1056              		.loc 1 256 0
 1057 0010 2379     		ldrb	r3, [r4, #4]
 255:main.c        ****             (set.trig_source&LED_LEFT && TRIG_LEFT_Read())  
 1058              		.loc 1 255 0
 1059 0012 DB07     		lsls	r3, r3, #31
 1060 0014 00D4     		bmi	.L124
 1061              	.L111:
 1062              	.LBE128:
 1063              	.LBE127:
 1064              		.loc 1 337 0
 1065              		@ sp needed
 1066 0016 10BD     		pop	{r4, pc}
 1067              	.L124:
 1068              	.LBB133:
 1069              	.LBB131:
 1070              	.LBB129:
 1071              	.LBB130:
 256:main.c        ****           )
 1072              		.loc 1 256 0
 1073 0018 FFF7FEFF 		bl	TRIG_LEFT_Read
 1074              	.LVL91:
 1075 001c 0028     		cmp	r0, #0
 1076 001e FAD0     		beq	.L111
 1077              	.L115:
 1078              	.LBE130:
 1079              	.LBE129:
 1080              	.LBE131:
 1081              	.LBE133:
 1082 0020 FFF7FEFF 		bl	TrigTask.part.5
 1083              	.LVL92:
 1084 0024 F7E7     		b	.L111
 1085              	.L112:
 1086              	.LBB134:
 1087              	.LBB132:
 254:main.c        ****             (set.trig_source&LED_RIGHT && TRIG_RIGHT_Read()) ||
 1088              		.loc 1 254 0
 1089 0026 FFF7FEFF 		bl	TRIG_FACE_Read
ARM GAS  C:\Users\Rajesh\AppData\Local\Temp\ccgfupv2.s 			page 29


 1090              	.LVL93:
 1091 002a 0028     		cmp	r0, #0
 1092 002c F8D1     		bne	.L115
 255:main.c        ****             (set.trig_source&LED_LEFT && TRIG_LEFT_Read())  
 1093              		.loc 1 255 0
 1094 002e 2379     		ldrb	r3, [r4, #4]
 254:main.c        ****             (set.trig_source&LED_RIGHT && TRIG_RIGHT_Read()) ||
 1095              		.loc 1 254 0
 1096 0030 9B07     		lsls	r3, r3, #30
 1097 0032 EDD5     		bpl	.L114
 1098              	.L123:
 255:main.c        ****             (set.trig_source&LED_LEFT && TRIG_LEFT_Read())  
 1099              		.loc 1 255 0
 1100 0034 FFF7FEFF 		bl	TRIG_RIGHT_Read
 1101              	.LVL94:
 1102 0038 0028     		cmp	r0, #0
 1103 003a E9D0     		beq	.L114
 1104              	.LBE132:
 1105              	.LBE134:
 1106 003c FFF7FEFF 		bl	TrigTask.part.5
 1107              	.LVL95:
 1108 0040 E9E7     		b	.L111
 1109              	.L126:
 1110 0042 C046     		.align	2
 1111              	.L125:
 1112 0044 00000000 		.word	set
 1113              		.cfi_endproc
 1114              	.LFE41:
 1115              		.size	TrigTask, .-TrigTask
 1116              		.section	.text.trigger_ISR,"ax",%progbits
 1117              		.align	2
 1118              		.global	trigger_ISR
 1119              		.code	16
 1120              		.thumb_func
 1121              		.type	trigger_ISR, %function
 1122              	trigger_ISR:
 1123              	.LFB42:
 338:main.c        **** 
 339:main.c        **** void trigger_ISR(void)
 340:main.c        **** {
 1124              		.loc 1 340 0
 1125              		.cfi_startproc
 1126              		@ args = 0, pretend = 0, frame = 0
 1127              		@ frame_needed = 0, uses_anonymous_args = 0
 1128 0000 10B5     		push	{r4, lr}
 1129              		.cfi_def_cfa_offset 8
 1130              		.cfi_offset 4, -8
 1131              		.cfi_offset 14, -4
 1132              	.LBB141:
 1133              	.LBB142:
 1134              	.LBB143:
 1135              	.LBB144:
 254:main.c        ****             (set.trig_source&LED_RIGHT && TRIG_RIGHT_Read()) ||
 1136              		.loc 1 254 0
 1137 0002 104C     		ldr	r4, .L141
 1138 0004 2379     		ldrb	r3, [r4, #4]
 253:main.c        ****             (set.trig_source&LED_FACE && TRIG_FACE_Read()) ||
ARM GAS  C:\Users\Rajesh\AppData\Local\Temp\ccgfupv2.s 			page 30


 1139              		.loc 1 253 0
 1140 0006 5B07     		lsls	r3, r3, #29
 1141 0008 0DD4     		bmi	.L128
 255:main.c        ****             (set.trig_source&LED_LEFT && TRIG_LEFT_Read())  
 1142              		.loc 1 255 0
 1143 000a 2379     		ldrb	r3, [r4, #4]
 254:main.c        ****             (set.trig_source&LED_RIGHT && TRIG_RIGHT_Read()) ||
 1144              		.loc 1 254 0
 1145 000c 9B07     		lsls	r3, r3, #30
 1146 000e 11D4     		bmi	.L139
 1147              	.L130:
 256:main.c        ****           )
 1148              		.loc 1 256 0
 1149 0010 2379     		ldrb	r3, [r4, #4]
 255:main.c        ****             (set.trig_source&LED_LEFT && TRIG_LEFT_Read())  
 1150              		.loc 1 255 0
 1151 0012 DB07     		lsls	r3, r3, #31
 1152 0014 00D4     		bmi	.L140
 1153              	.L127:
 1154              	.LBE144:
 1155              	.LBE143:
 1156              	.LBE142:
 1157              	.LBE141:
 341:main.c        ****     TrigTask();
 342:main.c        **** }
 1158              		.loc 1 342 0
 1159              		@ sp needed
 1160 0016 10BD     		pop	{r4, pc}
 1161              	.L140:
 1162              	.LBB152:
 1163              	.LBB151:
 1164              	.LBB149:
 1165              	.LBB147:
 1166              	.LBB145:
 1167              	.LBB146:
 256:main.c        ****           )
 1168              		.loc 1 256 0
 1169 0018 FFF7FEFF 		bl	TRIG_LEFT_Read
 1170              	.LVL96:
 1171 001c 0028     		cmp	r0, #0
 1172 001e FAD0     		beq	.L127
 1173              	.L131:
 1174              	.LBE146:
 1175              	.LBE145:
 1176              	.LBE147:
 1177              	.LBE149:
 1178 0020 FFF7FEFF 		bl	TrigTask.part.5
 1179              	.LVL97:
 1180 0024 F7E7     		b	.L127
 1181              	.L128:
 1182              	.LBB150:
 1183              	.LBB148:
 254:main.c        ****             (set.trig_source&LED_RIGHT && TRIG_RIGHT_Read()) ||
 1184              		.loc 1 254 0
 1185 0026 FFF7FEFF 		bl	TRIG_FACE_Read
 1186              	.LVL98:
 1187 002a 0028     		cmp	r0, #0
ARM GAS  C:\Users\Rajesh\AppData\Local\Temp\ccgfupv2.s 			page 31


 1188 002c F8D1     		bne	.L131
 255:main.c        ****             (set.trig_source&LED_LEFT && TRIG_LEFT_Read())  
 1189              		.loc 1 255 0
 1190 002e 2379     		ldrb	r3, [r4, #4]
 254:main.c        ****             (set.trig_source&LED_RIGHT && TRIG_RIGHT_Read()) ||
 1191              		.loc 1 254 0
 1192 0030 9B07     		lsls	r3, r3, #30
 1193 0032 EDD5     		bpl	.L130
 1194              	.L139:
 255:main.c        ****             (set.trig_source&LED_LEFT && TRIG_LEFT_Read())  
 1195              		.loc 1 255 0
 1196 0034 FFF7FEFF 		bl	TRIG_RIGHT_Read
 1197              	.LVL99:
 1198 0038 0028     		cmp	r0, #0
 1199 003a E9D0     		beq	.L130
 1200              	.LBE148:
 1201              	.LBE150:
 1202 003c FFF7FEFF 		bl	TrigTask.part.5
 1203              	.LVL100:
 1204 0040 E9E7     		b	.L127
 1205              	.L142:
 1206 0042 C046     		.align	2
 1207              	.L141:
 1208 0044 00000000 		.word	set
 1209              	.LBE151:
 1210              	.LBE152:
 1211              		.cfi_endproc
 1212              	.LFE42:
 1213              		.size	trigger_ISR, .-trigger_ISR
 1214              		.section	.text.startup.main,"ax",%progbits
 1215              		.align	2
 1216              		.global	main
 1217              		.code	16
 1218              		.thumb_func
 1219              		.type	main, %function
 1220              	main:
 1221              	.LFB43:
 343:main.c        **** 
 344:main.c        **** #define VERSION 6
 345:main.c        **** int main()
 346:main.c        **** {
 1222              		.loc 1 346 0
 1223              		.cfi_startproc
 1224              		@ args = 0, pretend = 0, frame = 0
 1225              		@ frame_needed = 0, uses_anonymous_args = 0
 1226 0000 F8B5     		push	{r3, r4, r5, r6, r7, lr}
 1227              		.cfi_def_cfa_offset 24
 1228              		.cfi_offset 3, -24
 1229              		.cfi_offset 4, -20
 1230              		.cfi_offset 5, -16
 1231              		.cfi_offset 6, -12
 1232              		.cfi_offset 7, -8
 1233              		.cfi_offset 14, -4
 1234 0002 4F46     		mov	r7, r9
 1235 0004 4646     		mov	r6, r8
 1236 0006 C0B4     		push	{r6, r7}
 1237              		.cfi_def_cfa_offset 32
ARM GAS  C:\Users\Rajesh\AppData\Local\Temp\ccgfupv2.s 			page 32


 1238              		.cfi_offset 8, -32
 1239              		.cfi_offset 9, -28
 347:main.c        ****     CyGlobalIntEnable; /* Enable global interrupts. */
 1240              		.loc 1 347 0
 1241              		.syntax divided
 1242              	@ 347 "main.c" 1
 1243 0008 62B6     		CPSIE   i
 1244              	@ 0 "" 2
 1245              	.LVL101:
 348:main.c        ****     int x;
 349:main.c        ****     int16 val;
 350:main.c        ****     int v;
 351:main.c        ****     int err;
 352:main.c        ****     int i_term=0;
 353:main.c        ****     int set_val;
 354:main.c        ****     int z;
 355:main.c        ****     
 356:main.c        ****     
 357:main.c        ****     PWM_CHARGE_Start();
 1246              		.loc 1 357 0
 1247              		.thumb
 1248              		.syntax unified
 1249 000a FFF7FEFF 		bl	PWM_CHARGE_Start
 1250              	.LVL102:
 358:main.c        ****     IDAC_1_Start();
 1251              		.loc 1 358 0
 1252 000e FFF7FEFF 		bl	IDAC_1_Start
 1253              	.LVL103:
 359:main.c        ****     IDAC_2_Start();
 1254              		.loc 1 359 0
 1255 0012 FFF7FEFF 		bl	IDAC_2_Start
 1256              	.LVL104:
 360:main.c        **** 
 361:main.c        ****     ADC_Start();
 1257              		.loc 1 361 0
 1258 0016 FFF7FEFF 		bl	ADC_Start
 1259              	.LVL105:
 362:main.c        ****     ADC_StartConvert();
 1260              		.loc 1 362 0
 1261 001a FFF7FEFF 		bl	ADC_StartConvert
 1262              	.LVL106:
 363:main.c        ****     z = DAC_I(4.0);
 364:main.c        ****     
 365:main.c        ****     
 366:main.c        ****     // initial settings
 367:main.c        ****     
 368:main.c        ****     set.hv_enable=0;
 1263              		.loc 1 368 0
 1264 001e 0023     		movs	r3, #0
 1265 0020 4F4D     		ldr	r5, .L157
 1266 0022 6B70     		strb	r3, [r5, #1]
 369:main.c        ****     set.hv_volt=16;
 1267              		.loc 1 369 0
 1268 0024 1033     		adds	r3, r3, #16
 1269 0026 AB70     		strb	r3, [r5, #2]
 370:main.c        ****     set.max_time=5;
 1270              		.loc 1 370 0
ARM GAS  C:\Users\Rajesh\AppData\Local\Temp\ccgfupv2.s 			page 33


 1271 0028 0B3B     		subs	r3, r3, #11
 1272 002a AB71     		strb	r3, [r5, #6]
 371:main.c        ****     set.led_enable=LED_LEFT;
 1273              		.loc 1 371 0
 1274 002c 043B     		subs	r3, r3, #4
 1275 002e EB70     		strb	r3, [r5, #3]
 372:main.c        ****     set.trig_source=LED_LEFT;
 1276              		.loc 1 372 0
 1277 0030 2B71     		strb	r3, [r5, #4]
 373:main.c        ****     set.i_set=4;
 1278              		.loc 1 373 0
 1279 0032 0333     		adds	r3, r3, #3
 1280 0034 6B71     		strb	r3, [r5, #5]
 374:main.c        ****     set.max_duty=MAX_DUTY;
 1281              		.loc 1 374 0
 1282 0036 3E33     		adds	r3, r3, #62
 1283 0038 6B72     		strb	r3, [r5, #9]
 375:main.c        ****     set.version=VERSION;
 1284              		.loc 1 375 0
 1285 003a 3C3B     		subs	r3, r3, #60
 1286 003c AB72     		strb	r3, [r5, #10]
 376:main.c        ****     set.dvdt=100;
 1287              		.loc 1 376 0
 1288 003e 5E33     		adds	r3, r3, #94
 1289 0040 EB72     		strb	r3, [r5, #11]
 1290              	.LVL107:
 377:main.c        ****     z=10;
 378:main.c        ****     Opamp_1_Start();
 1291              		.loc 1 378 0
 1292 0042 FFF7FEFF 		bl	Opamp_1_Start
 1293              	.LVL108:
 379:main.c        ****     IDAC_1_SetValue(200);
 1294              		.loc 1 379 0
 1295 0046 C820     		movs	r0, #200
 1296 0048 FFF7FEFF 		bl	IDAC_1_SetValue
 1297              	.LVL109:
 380:main.c        ****     
 381:main.c        ****     VREF_A_SetDriveMode(VREF_A_DM_STRONG);
 1298              		.loc 1 381 0
 1299 004c 0620     		movs	r0, #6
 1300 004e FFF7FEFF 		bl	VREF_A_SetDriveMode
 1301              	.LVL110:
 382:main.c        ****     VREF_B_SetDriveMode(VREF_B_DM_STRONG);
 1302              		.loc 1 382 0
 1303 0052 0620     		movs	r0, #6
 1304 0054 FFF7FEFF 		bl	VREF_B_SetDriveMode
 1305              	.LVL111:
 383:main.c        ****     z=DAC_I(4);
 384:main.c        ****     IDAC_1_SetValue(z);
 1306              		.loc 1 384 0
 1307 0058 1020     		movs	r0, #16
 1308 005a FFF7FEFF 		bl	IDAC_1_SetValue
 1309              	.LVL112:
 385:main.c        ****     IDAC_2_SetValue(z);
 1310              		.loc 1 385 0
 1311 005e 1020     		movs	r0, #16
 1312 0060 FFF7FEFF 		bl	IDAC_2_SetValue
ARM GAS  C:\Users\Rajesh\AppData\Local\Temp\ccgfupv2.s 			page 34


 1313              	.LVL113:
 1314              	.LBB163:
 1315              	.LBB164:
 273:main.c        ****       Opamp_1_Stop();
 1316              		.loc 1 273 0
 1317 0064 0620     		movs	r0, #6
 1318 0066 FFF7FEFF 		bl	VREF_A_SetDriveMode
 1319              	.LVL114:
 274:main.c        ****     }
 1320              		.loc 1 274 0
 1321 006a FFF7FEFF 		bl	Opamp_1_Stop
 1322              	.LVL115:
 1323              	.LBE164:
 1324              	.LBE163:
 1325              	.LBB165:
 1326              	.LBB166:
 286:main.c        ****       Opamp_2_Stop();
 1327              		.loc 1 286 0
 1328 006e 0620     		movs	r0, #6
 1329 0070 FFF7FEFF 		bl	VREF_B_SetDriveMode
 1330              	.LVL116:
 287:main.c        ****     }
 1331              		.loc 1 287 0
 1332 0074 FFF7FEFF 		bl	Opamp_2_Stop
 1333              	.LVL117:
 1334              	.LBE166:
 1335              	.LBE165:
 1336              	.LBB167:
 1337              	.LBB168:
 299:main.c        ****       Opamp_FACE_Stop();
 1338              		.loc 1 299 0
 1339 0078 0620     		movs	r0, #6
 1340 007a FFF7FEFF 		bl	VREF_C_SetDriveMode
 1341              	.LVL118:
 300:main.c        ****     }
 1342              		.loc 1 300 0
 1343 007e FFF7FEFF 		bl	Opamp_FACE_Stop
 1344              	.LVL119:
 1345              	.LBE168:
 1346              	.LBE167:
 386:main.c        **** 
 387:main.c        ****   
 388:main.c        **** 
 389:main.c        ****     
 390:main.c        ****     /* Place your initialization/startup code here (e.g. MyInst_Start()) */
 391:main.c        ****     DriveLeft(0);
 392:main.c        ****     DriveRight(0);
 393:main.c        ****     DriveFace(0);
 394:main.c        ****     ADC_Start();
 1347              		.loc 1 394 0
 1348 0082 FFF7FEFF 		bl	ADC_Start
 1349              	.LVL120:
 395:main.c        ****     TIMER_Start();
 1350              		.loc 1 395 0
 1351 0086 FFF7FEFF 		bl	TIMER_Start
 1352              	.LVL121:
 396:main.c        ****     isr_TIMER_Start();
ARM GAS  C:\Users\Rajesh\AppData\Local\Temp\ccgfupv2.s 			page 35


 1353              		.loc 1 396 0
 1354 008a FFF7FEFF 		bl	isr_TIMER_Start
 1355              	.LVL122:
 397:main.c        ****     isr_TIMER_SetVector(isr_MYTIMER_Interrupt);
 1356              		.loc 1 397 0
 1357 008e 3548     		ldr	r0, .L157+4
 1358 0090 FFF7FEFF 		bl	isr_TIMER_SetVector
 1359              	.LVL123:
 1360 0094 0A23     		movs	r3, #10
 398:main.c        ****     
 399:main.c        ****     for (z=0;z< 32;z++)
 1361              		.loc 1 399 0
 1362 0096 0022     		movs	r2, #0
 1363 0098 3349     		ldr	r1, .L157+8
 1364              	.LVL124:
 1365              	.L144:
 400:main.c        ****      comBuff[z]=z*2+10;
 1366              		.loc 1 400 0 discriminator 3
 1367 009a 8B54     		strb	r3, [r1, r2]
 1368 009c 0233     		adds	r3, r3, #2
 399:main.c        ****      comBuff[z]=z*2+10;
 1369              		.loc 1 399 0 discriminator 3
 1370 009e 0132     		adds	r2, r2, #1
 1371              	.LVL125:
 1372 00a0 DBB2     		uxtb	r3, r3
 1373 00a2 202A     		cmp	r2, #32
 1374 00a4 F9D1     		bne	.L144
 401:main.c        ****     
 402:main.c        ****     //EZI2C_EzI2CSetBuffer1(32, 16, &set.action);
 403:main.c        ****     //EZI2C_Start();
 404:main.c        ****     //EZI2C_EzI2CSetBuffer1(32, 16, &set.action);
 405:main.c        ****    isr_bbi2c_Start();
 1375              		.loc 1 405 0
 1376 00a6 FFF7FEFF 		bl	isr_bbi2c_Start
 1377              	.LVL126:
 406:main.c        ****    isr_bbi2c_Enable();
 1378              		.loc 1 406 0
 1379 00aa FFF7FEFF 		bl	isr_bbi2c_Enable
 1380              	.LVL127:
 407:main.c        **** //    IDAC8_1_Start();
 408:main.c        ****  
 409:main.c        **** //    OLD_SDA_Write(1);
 410:main.c        ****    // Init_bb_i2c((uint8 *)&set.action);
 411:main.c        ****      EZI2C_EzI2CSetBuffer1(32, 16, &set.action);
 1381              		.loc 1 411 0
 1382 00ae 2A00     		movs	r2, r5
 1383 00b0 1021     		movs	r1, #16
 1384 00b2 2020     		movs	r0, #32
 1385 00b4 FFF7FEFF 		bl	EZI2C_EzI2CSetBuffer1
 1386              	.LVL128:
 412:main.c        ****     EZI2C_Start();
 1387              		.loc 1 412 0
 1388 00b8 FFF7FEFF 		bl	EZI2C_Start
 1389              	.LVL129:
 413:main.c        ****     EZI2C_EzI2CSetBuffer1(32, 16, &set.action);
 1390              		.loc 1 413 0
 1391 00bc 2A00     		movs	r2, r5
ARM GAS  C:\Users\Rajesh\AppData\Local\Temp\ccgfupv2.s 			page 36


 1392 00be 1021     		movs	r1, #16
 1393 00c0 2020     		movs	r0, #32
 1394 00c2 FFF7FEFF 		bl	EZI2C_EzI2CSetBuffer1
 1395              	.LVL130:
 1396 00c6 294B     		ldr	r3, .L157+12
 1397              	.LBB169:
 1398              	.LBB170:
 1399              	.LBB171:
 1400              	.LBB172:
 211:main.c        ****                 set_v=set.hv_volt*1000;
 1401              		.loc 1 211 0
 1402 00c8 FA27     		movs	r7, #250
 1403 00ca 9946     		mov	r9, r3
 1404              	.LBE172:
 1405              	.LBE171:
 231:main.c        ****             st_idx++;
 1406              		.loc 1 231 0
 1407 00cc 0123     		movs	r3, #1
 1408 00ce 5B42     		rsbs	r3, r3, #0
 1409 00d0 274C     		ldr	r4, .L157+16
 1410              	.LBE170:
 1411              	.LBE169:
 414:main.c        ****     while(0)
 415:main.c        ****     {
 416:main.c        ****     CyDelayUs(60000);   
 417:main.c        ****     CyDelayUs(60000);
 418:main.c        ****     DriveLeft(1);
 419:main.c        ****     CyDelayUs(4000);  
 420:main.c        ****     DriveLeft(0);
 421:main.c        ****     CyDelayUs(60000);   
 422:main.c        ****     CyDelayUs(60000);
 423:main.c        ****     DriveRight(1);
 424:main.c        ****     CyDelayUs(4000);  
 425:main.c        ****     DriveRight(0);
 426:main.c        ****     }
 427:main.c        ****     for(;;)
 428:main.c        ****     {
 429:main.c        ****         /* Place your application code here. */
 430:main.c        ****         if (tick)
 431:main.c        ****          {
 432:main.c        ****           tick=0;
 1412              		.loc 1 432 0
 1413 00d2 0026     		movs	r6, #0
 1414              	.LBB179:
 1415              	.LBB177:
 231:main.c        ****             st_idx++;
 1416              		.loc 1 231 0
 1417 00d4 9846     		mov	r8, r3
 1418              	.LBB175:
 1419              	.LBB173:
 211:main.c        ****                 set_v=set.hv_volt*1000;
 1420              		.loc 1 211 0
 1421 00d6 BF00     		lsls	r7, r7, #2
 1422              	.LBE173:
 1423              	.LBE175:
 1424              	.LBE177:
 1425              	.LBE179:
ARM GAS  C:\Users\Rajesh\AppData\Local\Temp\ccgfupv2.s 			page 37


 414:main.c        ****     while(0)
 1426              		.loc 1 414 0
 1427 00d8 03E0     		b	.L152
 1428              	.L146:
 433:main.c        ****           HV_Task();
 434:main.c        ****         }
 435:main.c        ****       Control_Trig_Write(set.trig_source);
 1429              		.loc 1 435 0
 1430 00da 2879     		ldrb	r0, [r5, #4]
 1431 00dc C0B2     		uxtb	r0, r0
 1432 00de FFF7FEFF 		bl	Control_Trig_Write
 1433              	.LVL131:
 1434              	.L152:
 430:main.c        ****          {
 1435              		.loc 1 430 0
 1436 00e2 2378     		ldrb	r3, [r4]
 1437 00e4 002B     		cmp	r3, #0
 1438 00e6 F8D0     		beq	.L146
 432:main.c        ****           HV_Task();
 1439              		.loc 1 432 0
 1440 00e8 2670     		strb	r6, [r4]
 1441              	.LBB180:
 1442              	.LBB178:
 200:main.c        ****         {
 1443              		.loc 1 200 0
 1444 00ea 6B78     		ldrb	r3, [r5, #1]
 1445 00ec 002B     		cmp	r3, #0
 1446 00ee 1BD0     		beq	.L147
 1447 00f0 237B     		ldrb	r3, [r4, #12]
 1448 00f2 002B     		cmp	r3, #0
 1449 00f4 18D1     		bne	.L147
 1450              	.LBB176:
 1451              	.LBB174:
 211:main.c        ****                 set_v=set.hv_volt*1000;
 1452              		.loc 1 211 0
 1453 00f6 AB78     		ldrb	r3, [r5, #2]
 1454 00f8 6069     		ldr	r0, [r4, #20]
 1455 00fa 7B43     		muls	r3, r7
 1456 00fc 8342     		cmp	r3, r0
 1457 00fe 02DA     		bge	.L148
 212:main.c        ****             
 1458              		.loc 1 212 0
 1459 0100 A878     		ldrb	r0, [r5, #2]
 1460 0102 7843     		muls	r0, r7
 1461 0104 6061     		str	r0, [r4, #20]
 1462              	.L148:
 214:main.c        ****                 {
 1463              		.loc 1 214 0
 1464 0106 AB78     		ldrb	r3, [r5, #2]
 1465 0108 7B43     		muls	r3, r7
 1466 010a 8342     		cmp	r3, r0
 1467 010c 09DD     		ble	.L149
 216:main.c        ****                 if (set_v >set.hv_volt*1000)
 1468              		.loc 1 216 0
 1469 010e EB7A     		ldrb	r3, [r5, #11]
 1470 0110 C018     		adds	r0, r0, r3
 1471 0112 6061     		str	r0, [r4, #20]
ARM GAS  C:\Users\Rajesh\AppData\Local\Temp\ccgfupv2.s 			page 38


 217:main.c        ****                     set_v=set.hv_volt*1000;
 1472              		.loc 1 217 0
 1473 0114 AB78     		ldrb	r3, [r5, #2]
 1474 0116 7B43     		muls	r3, r7
 1475 0118 9842     		cmp	r0, r3
 1476 011a 02DD     		ble	.L149
 218:main.c        ****                 }
 1477              		.loc 1 218 0
 1478 011c A878     		ldrb	r0, [r5, #2]
 1479 011e 7843     		muls	r0, r7
 1480 0120 6061     		str	r0, [r4, #20]
 1481              	.L149:
 220:main.c        ****             
 1482              		.loc 1 220 0
 1483 0122 FFF7FEFF 		bl	DoVLoop
 1484              	.LVL132:
 1485 0126 D8E7     		b	.L146
 1486              	.L147:
 1487              	.LBE174:
 1488              	.LBE176:
 226:main.c        ****             set_v = ADC_CountsTo_mVolts(0, ADC_GetResult16(0))*30;
 1489              		.loc 1 226 0
 1490 0128 0120     		movs	r0, #1
 1491 012a FFF7FEFF 		bl	PWM_CHARGE_WriteCompare
 1492              	.LVL133:
 227:main.c        ****             i_term=0;
 1493              		.loc 1 227 0
 1494 012e 0020     		movs	r0, #0
 1495 0130 FFF7FEFF 		bl	ADC_GetResult16
 1496              	.LVL134:
 1497 0134 0100     		movs	r1, r0
 1498 0136 0020     		movs	r0, #0
 1499 0138 FFF7FEFF 		bl	ADC_CountsTo_mVolts
 1500              	.LVL135:
 1501 013c 0301     		lsls	r3, r0, #4
 1502 013e 181A     		subs	r0, r3, r0
 1503 0140 4000     		lsls	r0, r0, #1
 1504 0142 6061     		str	r0, [r4, #20]
 231:main.c        ****             st_idx++;
 1505              		.loc 1 231 0
 1506 0144 4946     		mov	r1, r9
 1507 0146 4046     		mov	r0, r8
 1508 0148 2369     		ldr	r3, [r4, #16]
 228:main.c        ****             //i_i_term=0;
 1509              		.loc 1 228 0
 1510 014a A660     		str	r6, [r4, #8]
 231:main.c        ****             st_idx++;
 1511              		.loc 1 231 0
 1512 014c 9A00     		lsls	r2, r3, #2
 232:main.c        ****             if (st_idx==STORE_SIZE)
 1513              		.loc 1 232 0
 1514 014e 0133     		adds	r3, r3, #1
 230:main.c        ****             store[st_idx]=-1;
 1515              		.loc 1 230 0
 1516 0150 2673     		strb	r6, [r4, #12]
 231:main.c        ****             st_idx++;
 1517              		.loc 1 231 0
ARM GAS  C:\Users\Rajesh\AppData\Local\Temp\ccgfupv2.s 			page 39


 1518 0152 8850     		str	r0, [r1, r2]
 233:main.c        ****                st_idx=0;
 1519              		.loc 1 233 0
 1520 0154 642B     		cmp	r3, #100
 1521 0156 01D0     		beq	.L150
 232:main.c        ****             if (st_idx==STORE_SIZE)
 1522              		.loc 1 232 0
 1523 0158 2361     		str	r3, [r4, #16]
 1524 015a BEE7     		b	.L146
 1525              	.L150:
 234:main.c        ****             }
 1526              		.loc 1 234 0
 1527 015c 2661     		str	r6, [r4, #16]
 1528 015e BCE7     		b	.L146
 1529              	.L158:
 1530              		.align	2
 1531              	.L157:
 1532 0160 00000000 		.word	set
 1533 0164 00000000 		.word	isr_MYTIMER_Interrupt
 1534 0168 00000000 		.word	comBuff
 1535 016c 00000000 		.word	store
 1536 0170 00000000 		.word	.LANCHOR0
 1537              	.LBE178:
 1538              	.LBE180:
 1539              		.cfi_endproc
 1540              	.LFE43:
 1541              		.size	main, .-main
 1542              		.global	set_v
 1543              		.global	tick
 1544              		.global	t_count
 1545              		.comm	comBuff,32,4
 1546              		.global	st_idx
 1547              		.comm	store,400,4
 1548              		.global	i_term_div
 1549              		.global	p_term_div
 1550              		.global	in_trig
 1551              		.comm	set,31,4
 1552              		.data
 1553              		.align	2
 1554              		.set	.LANCHOR1,. + 0
 1555              		.type	i_term_div, %object
 1556              		.size	i_term_div, 4
 1557              	i_term_div:
 1558 0000 58020000 		.word	600
 1559              		.type	p_term_div, %object
 1560              		.size	p_term_div, 4
 1561              	p_term_div:
 1562 0004 23000000 		.word	35
 1563              		.bss
 1564              		.align	2
 1565              		.set	.LANCHOR0,. + 0
 1566              		.type	tick, %object
 1567              		.size	tick, 1
 1568              	tick:
 1569 0000 00       		.space	1
 1570 0001 000000   		.space	3
 1571              		.type	t_count, %object
ARM GAS  C:\Users\Rajesh\AppData\Local\Temp\ccgfupv2.s 			page 40


 1572              		.size	t_count, 4
 1573              	t_count:
 1574 0004 00000000 		.space	4
 1575              		.type	i_term, %object
 1576              		.size	i_term, 4
 1577              	i_term:
 1578 0008 00000000 		.space	4
 1579              		.type	in_trig, %object
 1580              		.size	in_trig, 1
 1581              	in_trig:
 1582 000c 00       		.space	1
 1583 000d 000000   		.space	3
 1584              		.type	st_idx, %object
 1585              		.size	st_idx, 4
 1586              	st_idx:
 1587 0010 00000000 		.space	4
 1588              		.type	set_v, %object
 1589              		.size	set_v, 4
 1590              	set_v:
 1591 0014 00000000 		.space	4
 1592              		.text
 1593              	.Letext0:
 1594              		.file 2 "c:\\program files (x86)\\cypress\\psoc creator\\4.2\\psoc creator\\import\\gnu\\arm\\5.4.
 1595              		.file 3 "c:\\program files (x86)\\cypress\\psoc creator\\4.2\\psoc creator\\import\\gnu\\arm\\5.4.
 1596              		.file 4 "Generated_Source\\PSoC4/cytypes.h"
 1597              		.file 5 "Generated_Source\\PSoC4/TIMER.h"
 1598              		.file 6 "Generated_Source\\PSoC4/TRIG_LEFT.h"
 1599              		.file 7 "Generated_Source\\PSoC4/TRIG_FACE.h"
 1600              		.file 8 "Generated_Source\\PSoC4/TRIG_RIGHT.h"
 1601              		.file 9 "Generated_Source\\PSoC4/VREF_C.h"
 1602              		.file 10 "Generated_Source\\PSoC4/Opamp_FACE.h"
 1603              		.file 11 "Generated_Source\\PSoC4/VREF_A.h"
 1604              		.file 12 "Generated_Source\\PSoC4/Opamp_1.h"
 1605              		.file 13 "Generated_Source\\PSoC4/VREF_B.h"
 1606              		.file 14 "Generated_Source\\PSoC4/Opamp_2.h"
 1607              		.file 15 "Generated_Source\\PSoC4/PWM_CHARGE.h"
 1608              		.file 16 "Generated_Source\\PSoC4/IDAC_1.h"
 1609              		.file 17 "Generated_Source\\PSoC4/IDAC_2.h"
 1610              		.file 18 "Generated_Source\\PSoC4/ADC.h"
 1611              		.file 19 "Generated_Source\\PSoC4/isr_TIMER.h"
 1612              		.file 20 "Generated_Source\\PSoC4/isr_bbi2c.h"
 1613              		.file 21 "Generated_Source\\PSoC4/EZI2C_EZI2C.h"
 1614              		.file 22 "Generated_Source\\PSoC4/EZI2C.h"
 1615              		.file 23 "Generated_Source\\PSoC4/Control_Trig.h"