ARM GAS  C:\Users\ilya\AppData\Local\Temp\ccISHRhi.s 			page 1


   1              		.syntax unified
   2              		.cpu cortex-m0
   3              		.fpu softvfp
   4              		.eabi_attribute 20, 1
   5              		.eabi_attribute 21, 1
   6              		.eabi_attribute 23, 3
   7              		.eabi_attribute 24, 1
   8              		.eabi_attribute 25, 1
   9              		.eabi_attribute 26, 1
  10              		.eabi_attribute 30, 2
  11              		.eabi_attribute 34, 0
  12              		.eabi_attribute 18, 4
  13              		.thumb
  14              		.syntax unified
  15              		.file	"IDAC_2_PM.c"
  16              		.text
  17              	.Ltext0:
  18              		.cfi_sections	.debug_frame
  19              		.section	.text.IDAC_2_SaveConfig,"ax",%progbits
  20              		.align	2
  21              		.global	IDAC_2_SaveConfig
  22              		.code	16
  23              		.thumb_func
  24              		.type	IDAC_2_SaveConfig, %function
  25              	IDAC_2_SaveConfig:
  26              	.LFB6:
  27              		.cfi_startproc
  28              		@ args = 0, pretend = 0, frame = 0
  29              		@ frame_needed = 0, uses_anonymous_args = 0
  30              		@ link register save eliminated.
  31              		@ sp needed
  32 0000 7047     		bx	lr
  33              		.cfi_endproc
  34              	.LFE6:
  35              		.size	IDAC_2_SaveConfig, .-IDAC_2_SaveConfig
  36 0002 C046     		.section	.text.IDAC_2_Sleep,"ax",%progbits
  37              		.align	2
  38              		.global	IDAC_2_Sleep
  39              		.code	16
  40              		.thumb_func
  41              		.type	IDAC_2_Sleep, %function
  42              	IDAC_2_Sleep:
  43              	.LFB2:
  44              		.file 1 "Generated_Source\\PSoC4\\IDAC_2_PM.c"
   1:Generated_Source\PSoC4/IDAC_2_PM.c **** /*******************************************************************************
   2:Generated_Source\PSoC4/IDAC_2_PM.c **** * File Name: IDAC_2_PM.c
   3:Generated_Source\PSoC4/IDAC_2_PM.c **** * Version 1.10
   4:Generated_Source\PSoC4/IDAC_2_PM.c **** *
   5:Generated_Source\PSoC4/IDAC_2_PM.c **** * Description:
   6:Generated_Source\PSoC4/IDAC_2_PM.c **** *  This file provides Low power mode APIs for IDAC_P4 component.
   7:Generated_Source\PSoC4/IDAC_2_PM.c **** *
   8:Generated_Source\PSoC4/IDAC_2_PM.c **** ********************************************************************************
   9:Generated_Source\PSoC4/IDAC_2_PM.c **** * Copyright 2013-2015, Cypress Semiconductor Corporation.  All rights reserved.
  10:Generated_Source\PSoC4/IDAC_2_PM.c **** * You may use this file only in accordance with the license, terms, conditions,
  11:Generated_Source\PSoC4/IDAC_2_PM.c **** * disclaimers, and limitations in the end user license agreement accompanying
  12:Generated_Source\PSoC4/IDAC_2_PM.c **** * the software package with which this file was provided.
  13:Generated_Source\PSoC4/IDAC_2_PM.c **** *******************************************************************************/
ARM GAS  C:\Users\ilya\AppData\Local\Temp\ccISHRhi.s 			page 2


  14:Generated_Source\PSoC4/IDAC_2_PM.c **** 
  15:Generated_Source\PSoC4/IDAC_2_PM.c **** #include "IDAC_2.h"
  16:Generated_Source\PSoC4/IDAC_2_PM.c **** 
  17:Generated_Source\PSoC4/IDAC_2_PM.c **** 
  18:Generated_Source\PSoC4/IDAC_2_PM.c **** static IDAC_2_BACKUP_STRUCT IDAC_2_backup;
  19:Generated_Source\PSoC4/IDAC_2_PM.c **** 
  20:Generated_Source\PSoC4/IDAC_2_PM.c **** 
  21:Generated_Source\PSoC4/IDAC_2_PM.c **** /*******************************************************************************
  22:Generated_Source\PSoC4/IDAC_2_PM.c **** * Function Name: IDAC_2_SaveConfig
  23:Generated_Source\PSoC4/IDAC_2_PM.c **** ********************************************************************************
  24:Generated_Source\PSoC4/IDAC_2_PM.c **** *
  25:Generated_Source\PSoC4/IDAC_2_PM.c **** * Summary:
  26:Generated_Source\PSoC4/IDAC_2_PM.c **** *  Saves component state before sleep
  27:Generated_Source\PSoC4/IDAC_2_PM.c **** * Parameters:
  28:Generated_Source\PSoC4/IDAC_2_PM.c **** *  None
  29:Generated_Source\PSoC4/IDAC_2_PM.c **** *
  30:Generated_Source\PSoC4/IDAC_2_PM.c **** * Return:
  31:Generated_Source\PSoC4/IDAC_2_PM.c **** *  None
  32:Generated_Source\PSoC4/IDAC_2_PM.c **** *
  33:Generated_Source\PSoC4/IDAC_2_PM.c **** * Global Variables:
  34:Generated_Source\PSoC4/IDAC_2_PM.c **** *  None
  35:Generated_Source\PSoC4/IDAC_2_PM.c **** *
  36:Generated_Source\PSoC4/IDAC_2_PM.c **** *******************************************************************************/
  37:Generated_Source\PSoC4/IDAC_2_PM.c **** void IDAC_2_SaveConfig(void)
  38:Generated_Source\PSoC4/IDAC_2_PM.c **** {
  39:Generated_Source\PSoC4/IDAC_2_PM.c ****     /* All registers are retention - nothing to save */
  40:Generated_Source\PSoC4/IDAC_2_PM.c **** }
  41:Generated_Source\PSoC4/IDAC_2_PM.c **** 
  42:Generated_Source\PSoC4/IDAC_2_PM.c **** 
  43:Generated_Source\PSoC4/IDAC_2_PM.c **** /*******************************************************************************
  44:Generated_Source\PSoC4/IDAC_2_PM.c **** * Function Name: IDAC_2_Sleep
  45:Generated_Source\PSoC4/IDAC_2_PM.c **** ********************************************************************************
  46:Generated_Source\PSoC4/IDAC_2_PM.c **** *
  47:Generated_Source\PSoC4/IDAC_2_PM.c **** * Summary:
  48:Generated_Source\PSoC4/IDAC_2_PM.c **** *  Calls _SaveConfig() function
  49:Generated_Source\PSoC4/IDAC_2_PM.c **** * Parameters:
  50:Generated_Source\PSoC4/IDAC_2_PM.c **** *  None
  51:Generated_Source\PSoC4/IDAC_2_PM.c **** *
  52:Generated_Source\PSoC4/IDAC_2_PM.c **** * Return:
  53:Generated_Source\PSoC4/IDAC_2_PM.c **** *  None
  54:Generated_Source\PSoC4/IDAC_2_PM.c **** *
  55:Generated_Source\PSoC4/IDAC_2_PM.c **** *******************************************************************************/
  56:Generated_Source\PSoC4/IDAC_2_PM.c **** void IDAC_2_Sleep(void)
  57:Generated_Source\PSoC4/IDAC_2_PM.c **** {
  45              		.loc 1 57 0
  46              		.cfi_startproc
  47              		@ args = 0, pretend = 0, frame = 0
  48              		@ frame_needed = 0, uses_anonymous_args = 0
  58:Generated_Source\PSoC4/IDAC_2_PM.c ****         if(0u != (IDAC_2_IDAC_CONTROL_REG & ((uint32)IDAC_2_IDAC_MODE_MASK <<
  49              		.loc 1 58 0
  50 0000 064B     		ldr	r3, .L3
  57:Generated_Source\PSoC4/IDAC_2_PM.c ****         if(0u != (IDAC_2_IDAC_CONTROL_REG & ((uint32)IDAC_2_IDAC_MODE_MASK <<
  51              		.loc 1 57 0
  52 0002 10B5     		push	{r4, lr}
  53              		.cfi_def_cfa_offset 8
  54              		.cfi_offset 4, -8
  55              		.cfi_offset 14, -4
ARM GAS  C:\Users\ilya\AppData\Local\Temp\ccISHRhi.s 			page 3


  56              		.loc 1 58 0
  57 0004 1A68     		ldr	r2, [r3]
  58 0006 C023     		movs	r3, #192
  59 0008 9B00     		lsls	r3, r3, #2
  60 000a 1340     		ands	r3, r2
  61 000c 5A1E     		subs	r2, r3, #1
  62 000e 9341     		sbcs	r3, r3, r2
  63 0010 034A     		ldr	r2, .L3+4
  59:Generated_Source\PSoC4/IDAC_2_PM.c ****         IDAC_2_IDAC_MODE_POSITION)))
  60:Generated_Source\PSoC4/IDAC_2_PM.c ****         {
  61:Generated_Source\PSoC4/IDAC_2_PM.c ****             IDAC_2_backup.enableState = 1u;
  62:Generated_Source\PSoC4/IDAC_2_PM.c ****         }
  63:Generated_Source\PSoC4/IDAC_2_PM.c ****         else
  64:Generated_Source\PSoC4/IDAC_2_PM.c ****         {
  65:Generated_Source\PSoC4/IDAC_2_PM.c ****             IDAC_2_backup.enableState = 0u;
  66:Generated_Source\PSoC4/IDAC_2_PM.c ****         }
  67:Generated_Source\PSoC4/IDAC_2_PM.c **** 
  68:Generated_Source\PSoC4/IDAC_2_PM.c ****     IDAC_2_Stop();
  69:Generated_Source\PSoC4/IDAC_2_PM.c ****     IDAC_2_SaveConfig();
  70:Generated_Source\PSoC4/IDAC_2_PM.c **** }
  64              		.loc 1 70 0
  65              		@ sp needed
  66 0012 1370     		strb	r3, [r2]
  68:Generated_Source\PSoC4/IDAC_2_PM.c ****     IDAC_2_SaveConfig();
  67              		.loc 1 68 0
  68 0014 FFF7FEFF 		bl	IDAC_2_Stop
  69              	.LVL0:
  70              		.loc 1 70 0
  71 0018 10BD     		pop	{r4, pc}
  72              	.L4:
  73 001a C046     		.align	2
  74              	.L3:
  75 001c 08002940 		.word	1076428808
  76 0020 00000000 		.word	.LANCHOR0
  77              		.cfi_endproc
  78              	.LFE2:
  79              		.size	IDAC_2_Sleep, .-IDAC_2_Sleep
  80              		.section	.text.IDAC_2_RestoreConfig,"ax",%progbits
  81              		.align	2
  82              		.global	IDAC_2_RestoreConfig
  83              		.code	16
  84              		.thumb_func
  85              		.type	IDAC_2_RestoreConfig, %function
  86              	IDAC_2_RestoreConfig:
  87              	.LFB3:
  71:Generated_Source\PSoC4/IDAC_2_PM.c **** 
  72:Generated_Source\PSoC4/IDAC_2_PM.c **** 
  73:Generated_Source\PSoC4/IDAC_2_PM.c **** /*******************************************************************************
  74:Generated_Source\PSoC4/IDAC_2_PM.c **** * Function Name: IDAC_2_RestoreConfig
  75:Generated_Source\PSoC4/IDAC_2_PM.c **** ********************************************************************************
  76:Generated_Source\PSoC4/IDAC_2_PM.c **** *
  77:Generated_Source\PSoC4/IDAC_2_PM.c **** * Summary:
  78:Generated_Source\PSoC4/IDAC_2_PM.c **** *  Restores component state after wakeup
  79:Generated_Source\PSoC4/IDAC_2_PM.c **** * Parameters:
  80:Generated_Source\PSoC4/IDAC_2_PM.c **** *  None
  81:Generated_Source\PSoC4/IDAC_2_PM.c **** *
  82:Generated_Source\PSoC4/IDAC_2_PM.c **** * Return:
ARM GAS  C:\Users\ilya\AppData\Local\Temp\ccISHRhi.s 			page 4


  83:Generated_Source\PSoC4/IDAC_2_PM.c **** *  None
  84:Generated_Source\PSoC4/IDAC_2_PM.c **** *
  85:Generated_Source\PSoC4/IDAC_2_PM.c **** * Global Variables:
  86:Generated_Source\PSoC4/IDAC_2_PM.c **** *  None
  87:Generated_Source\PSoC4/IDAC_2_PM.c **** *
  88:Generated_Source\PSoC4/IDAC_2_PM.c **** *******************************************************************************/
  89:Generated_Source\PSoC4/IDAC_2_PM.c **** void IDAC_2_RestoreConfig(void)
  90:Generated_Source\PSoC4/IDAC_2_PM.c **** {
  88              		.loc 1 90 0
  89              		.cfi_startproc
  90              		@ args = 0, pretend = 0, frame = 0
  91              		@ frame_needed = 0, uses_anonymous_args = 0
  92              		@ link register save eliminated.
  91:Generated_Source\PSoC4/IDAC_2_PM.c ****     /* All registers are retention - nothing to save */
  92:Generated_Source\PSoC4/IDAC_2_PM.c **** }
  93              		.loc 1 92 0
  94              		@ sp needed
  95 0000 7047     		bx	lr
  96              		.cfi_endproc
  97              	.LFE3:
  98              		.size	IDAC_2_RestoreConfig, .-IDAC_2_RestoreConfig
  99 0002 C046     		.section	.text.IDAC_2_Wakeup,"ax",%progbits
 100              		.align	2
 101              		.global	IDAC_2_Wakeup
 102              		.code	16
 103              		.thumb_func
 104              		.type	IDAC_2_Wakeup, %function
 105              	IDAC_2_Wakeup:
 106              	.LFB4:
  93:Generated_Source\PSoC4/IDAC_2_PM.c **** 
  94:Generated_Source\PSoC4/IDAC_2_PM.c **** 
  95:Generated_Source\PSoC4/IDAC_2_PM.c **** /*******************************************************************************
  96:Generated_Source\PSoC4/IDAC_2_PM.c **** * Function Name: IDAC_2_Wakeup
  97:Generated_Source\PSoC4/IDAC_2_PM.c **** ********************************************************************************
  98:Generated_Source\PSoC4/IDAC_2_PM.c **** *
  99:Generated_Source\PSoC4/IDAC_2_PM.c **** * Summary:
 100:Generated_Source\PSoC4/IDAC_2_PM.c **** *  Calls _RestoreConfig() function
 101:Generated_Source\PSoC4/IDAC_2_PM.c **** * Parameters:
 102:Generated_Source\PSoC4/IDAC_2_PM.c **** *  None
 103:Generated_Source\PSoC4/IDAC_2_PM.c **** *
 104:Generated_Source\PSoC4/IDAC_2_PM.c **** * Return:
 105:Generated_Source\PSoC4/IDAC_2_PM.c **** *  None
 106:Generated_Source\PSoC4/IDAC_2_PM.c **** *
 107:Generated_Source\PSoC4/IDAC_2_PM.c **** *******************************************************************************/
 108:Generated_Source\PSoC4/IDAC_2_PM.c **** void IDAC_2_Wakeup(void)
 109:Generated_Source\PSoC4/IDAC_2_PM.c **** {
 107              		.loc 1 109 0
 108              		.cfi_startproc
 109              		@ args = 0, pretend = 0, frame = 0
 110              		@ frame_needed = 0, uses_anonymous_args = 0
 111 0000 10B5     		push	{r4, lr}
 112              		.cfi_def_cfa_offset 8
 113              		.cfi_offset 4, -8
 114              		.cfi_offset 14, -4
 110:Generated_Source\PSoC4/IDAC_2_PM.c ****     /* Restore IDAC register settings */
 111:Generated_Source\PSoC4/IDAC_2_PM.c ****     IDAC_2_RestoreConfig();
 112:Generated_Source\PSoC4/IDAC_2_PM.c ****     if(IDAC_2_backup.enableState == 1u)
ARM GAS  C:\Users\ilya\AppData\Local\Temp\ccISHRhi.s 			page 5


 115              		.loc 1 112 0
 116 0002 044B     		ldr	r3, .L10
 117 0004 1B78     		ldrb	r3, [r3]
 118 0006 012B     		cmp	r3, #1
 119 0008 00D0     		beq	.L9
 120              	.L6:
 113:Generated_Source\PSoC4/IDAC_2_PM.c ****     {
 114:Generated_Source\PSoC4/IDAC_2_PM.c ****         /* Enable operation */
 115:Generated_Source\PSoC4/IDAC_2_PM.c ****         IDAC_2_Enable();
 116:Generated_Source\PSoC4/IDAC_2_PM.c ****     } /* Do nothing if the component was disabled before */
 117:Generated_Source\PSoC4/IDAC_2_PM.c **** 
 118:Generated_Source\PSoC4/IDAC_2_PM.c **** }
 121              		.loc 1 118 0
 122              		@ sp needed
 123 000a 10BD     		pop	{r4, pc}
 124              	.L9:
 115:Generated_Source\PSoC4/IDAC_2_PM.c ****     } /* Do nothing if the component was disabled before */
 125              		.loc 1 115 0
 126 000c FFF7FEFF 		bl	IDAC_2_Enable
 127              	.LVL1:
 128              		.loc 1 118 0
 129 0010 FBE7     		b	.L6
 130              	.L11:
 131 0012 C046     		.align	2
 132              	.L10:
 133 0014 00000000 		.word	.LANCHOR0
 134              		.cfi_endproc
 135              	.LFE4:
 136              		.size	IDAC_2_Wakeup, .-IDAC_2_Wakeup
 137              		.bss
 138              		.align	2
 139              		.set	.LANCHOR0,. + 0
 140              		.type	IDAC_2_backup, %object
 141              		.size	IDAC_2_backup, 1
 142              	IDAC_2_backup:
 143 0000 00       		.space	1
 144              		.text
 145              	.Letext0:
 146              		.file 2 "Generated_Source\\PSoC4\\cytypes.h"
 147              		.file 3 "Generated_Source\\PSoC4\\IDAC_2.h"