ARM GAS  C:\Users\ilya\AppData\Local\Temp\ccPv0R0f.s 			page 1


   1              		.syntax unified
   2              		.cpu cortex-m0
   3              		.fpu softvfp
   4              		.eabi_attribute 20, 1
   5              		.eabi_attribute 21, 1
   6              		.eabi_attribute 23, 3
   7              		.eabi_attribute 24, 1
   8              		.eabi_attribute 25, 1
   9              		.eabi_attribute 26, 1
  10              		.eabi_attribute 30, 2
  11              		.eabi_attribute 34, 0
  12              		.eabi_attribute 18, 4
  13              		.thumb
  14              		.syntax unified
  15              		.file	"IDAC_1.c"
  16              		.text
  17              	.Ltext0:
  18              		.cfi_sections	.debug_frame
  19              		.section	.text.IDAC_1_Init,"ax",%progbits
  20              		.align	2
  21              		.global	IDAC_1_Init
  22              		.code	16
  23              		.thumb_func
  24              		.type	IDAC_1_Init, %function
  25              	IDAC_1_Init:
  26              	.LFB1:
  27              		.file 1 "Generated_Source\\PSoC4\\IDAC_1.c"
   1:Generated_Source\PSoC4/IDAC_1.c **** /*******************************************************************************
   2:Generated_Source\PSoC4/IDAC_1.c **** * File Name: IDAC_1.c
   3:Generated_Source\PSoC4/IDAC_1.c **** * Version 1.10
   4:Generated_Source\PSoC4/IDAC_1.c **** *
   5:Generated_Source\PSoC4/IDAC_1.c **** * Description:
   6:Generated_Source\PSoC4/IDAC_1.c **** *  This file provides the source code of APIs for the IDAC_P4 component.
   7:Generated_Source\PSoC4/IDAC_1.c **** *
   8:Generated_Source\PSoC4/IDAC_1.c **** *******************************************************************************
   9:Generated_Source\PSoC4/IDAC_1.c **** * Copyright 2013-2015, Cypress Semiconductor Corporation.  All rights reserved.
  10:Generated_Source\PSoC4/IDAC_1.c **** * You may use this file only in accordance with the license, terms, conditions,
  11:Generated_Source\PSoC4/IDAC_1.c **** * disclaimers, and limitations in the end user license agreement accompanying
  12:Generated_Source\PSoC4/IDAC_1.c **** * the software package with which this file was provided.
  13:Generated_Source\PSoC4/IDAC_1.c **** *******************************************************************************/
  14:Generated_Source\PSoC4/IDAC_1.c **** 
  15:Generated_Source\PSoC4/IDAC_1.c **** #include "IDAC_1.h"
  16:Generated_Source\PSoC4/IDAC_1.c **** 
  17:Generated_Source\PSoC4/IDAC_1.c **** uint32 IDAC_1_initVar = 0u;
  18:Generated_Source\PSoC4/IDAC_1.c **** 
  19:Generated_Source\PSoC4/IDAC_1.c **** 
  20:Generated_Source\PSoC4/IDAC_1.c **** /*******************************************************************************
  21:Generated_Source\PSoC4/IDAC_1.c **** * Function Name: IDAC_1_Init
  22:Generated_Source\PSoC4/IDAC_1.c **** ********************************************************************************
  23:Generated_Source\PSoC4/IDAC_1.c **** *
  24:Generated_Source\PSoC4/IDAC_1.c **** * Summary:
  25:Generated_Source\PSoC4/IDAC_1.c **** *  Initializes IDAC registers with initial values provided from customizer.
  26:Generated_Source\PSoC4/IDAC_1.c **** *
  27:Generated_Source\PSoC4/IDAC_1.c **** * Parameters:
  28:Generated_Source\PSoC4/IDAC_1.c **** *  None
  29:Generated_Source\PSoC4/IDAC_1.c **** *
  30:Generated_Source\PSoC4/IDAC_1.c **** * Return:
ARM GAS  C:\Users\ilya\AppData\Local\Temp\ccPv0R0f.s 			page 2


  31:Generated_Source\PSoC4/IDAC_1.c **** *  None
  32:Generated_Source\PSoC4/IDAC_1.c **** *
  33:Generated_Source\PSoC4/IDAC_1.c **** * Global variables:
  34:Generated_Source\PSoC4/IDAC_1.c **** *  None
  35:Generated_Source\PSoC4/IDAC_1.c **** *
  36:Generated_Source\PSoC4/IDAC_1.c **** *******************************************************************************/
  37:Generated_Source\PSoC4/IDAC_1.c **** void IDAC_1_Init(void)
  38:Generated_Source\PSoC4/IDAC_1.c **** {
  28              		.loc 1 38 0
  29              		.cfi_startproc
  30              		@ args = 0, pretend = 0, frame = 0
  31              		@ frame_needed = 0, uses_anonymous_args = 0
  32 0000 10B5     		push	{r4, lr}
  33              		.cfi_def_cfa_offset 8
  34              		.cfi_offset 4, -8
  35              		.cfi_offset 14, -4
  39:Generated_Source\PSoC4/IDAC_1.c ****     uint32 regVal;
  40:Generated_Source\PSoC4/IDAC_1.c ****     uint8 enableInterrupts;
  41:Generated_Source\PSoC4/IDAC_1.c **** 
  42:Generated_Source\PSoC4/IDAC_1.c ****     /* Set initial configuration */
  43:Generated_Source\PSoC4/IDAC_1.c ****     enableInterrupts = CyEnterCriticalSection();
  44:Generated_Source\PSoC4/IDAC_1.c ****     
  45:Generated_Source\PSoC4/IDAC_1.c ****     #if(IDAC_1_MODE_SOURCE == IDAC_1_IDAC_POLARITY)
  46:Generated_Source\PSoC4/IDAC_1.c ****         regVal  = IDAC_1_CSD_TRIM1_REG & ~(IDAC_1_CSD_IDAC_TRIM1_MASK);
  36              		.loc 1 46 0
  37 0002 0F24     		movs	r4, #15
  43:Generated_Source\PSoC4/IDAC_1.c ****     
  38              		.loc 1 43 0
  39 0004 FFF7FEFF 		bl	CyEnterCriticalSection
  40              	.LVL0:
  41              		.loc 1 46 0
  42 0008 0C49     		ldr	r1, .L2
  47:Generated_Source\PSoC4/IDAC_1.c ****         regVal |=  (IDAC_1_SFLASH_TRIM1_REG & IDAC_1_CSD_IDAC_TRIM1_MASK);
  43              		.loc 1 47 0
  44 000a 0D4B     		ldr	r3, .L2+4
  46:Generated_Source\PSoC4/IDAC_1.c ****         regVal |=  (IDAC_1_SFLASH_TRIM1_REG & IDAC_1_CSD_IDAC_TRIM1_MASK);
  45              		.loc 1 46 0
  46 000c 0A68     		ldr	r2, [r1]
  47              		.loc 1 47 0
  48 000e 1B78     		ldrb	r3, [r3]
  46:Generated_Source\PSoC4/IDAC_1.c ****         regVal |=  (IDAC_1_SFLASH_TRIM1_REG & IDAC_1_CSD_IDAC_TRIM1_MASK);
  49              		.loc 1 46 0
  50 0010 A243     		bics	r2, r4
  51              	.LVL1:
  52              		.loc 1 47 0
  53 0012 2340     		ands	r3, r4
  54 0014 1343     		orrs	r3, r2
  55              	.LVL2:
  48:Generated_Source\PSoC4/IDAC_1.c ****         IDAC_1_CSD_TRIM1_REG = regVal;
  49:Generated_Source\PSoC4/IDAC_1.c ****     #else
  50:Generated_Source\PSoC4/IDAC_1.c ****         regVal  = IDAC_1_CSD_TRIM2_REG & ~(IDAC_1_CSD_IDAC_TRIM2_MASK);
  51:Generated_Source\PSoC4/IDAC_1.c ****         regVal |=  (IDAC_1_SFLASH_TRIM2_REG & IDAC_1_CSD_IDAC_TRIM2_MASK);
  52:Generated_Source\PSoC4/IDAC_1.c ****         IDAC_1_CSD_TRIM2_REG = regVal;
  53:Generated_Source\PSoC4/IDAC_1.c ****     #endif /* (IDAC_1_MODE_SOURCE == IDAC_1_IDAC_POLARITY) */
  54:Generated_Source\PSoC4/IDAC_1.c **** 
  55:Generated_Source\PSoC4/IDAC_1.c ****     /* clear previous values */
  56:Generated_Source\PSoC4/IDAC_1.c ****     IDAC_1_IDAC_CONTROL_REG &= ((uint32)~((uint32)IDAC_1_IDAC_VALUE_MASK <<
ARM GAS  C:\Users\ilya\AppData\Local\Temp\ccPv0R0f.s 			page 3


  56              		.loc 1 56 0
  57 0016 0B4A     		ldr	r2, .L2+8
  48:Generated_Source\PSoC4/IDAC_1.c ****         IDAC_1_CSD_TRIM1_REG = regVal;
  58              		.loc 1 48 0
  59 0018 0B60     		str	r3, [r1]
  60              		.loc 1 56 0
  61 001a 1368     		ldr	r3, [r2]
  62              	.LVL3:
  57:Generated_Source\PSoC4/IDAC_1.c ****         IDAC_1_IDAC_VALUE_POSITION)) | ((uint32)~((uint32)IDAC_1_IDAC_MODE_MASK <<
  58:Generated_Source\PSoC4/IDAC_1.c ****         IDAC_1_IDAC_MODE_POSITION))  | ((uint32)~((uint32)IDAC_1_IDAC_RANGE_MASK  <<
  59:Generated_Source\PSoC4/IDAC_1.c ****         IDAC_1_IDAC_RANGE_POSITION));
  60:Generated_Source\PSoC4/IDAC_1.c **** 
  61:Generated_Source\PSoC4/IDAC_1.c ****     IDAC_1_IDAC_POLARITY_CONTROL_REG &= (~(uint32)((uint32)IDAC_1_IDAC_POLARITY_MASK <<
  63              		.loc 1 61 0
  64 001c 0A49     		ldr	r1, .L2+12
  65              	.LVL4:
  56:Generated_Source\PSoC4/IDAC_1.c ****         IDAC_1_IDAC_VALUE_POSITION)) | ((uint32)~((uint32)IDAC_1_IDAC_MODE_MASK <<
  66              		.loc 1 56 0
  67 001e 1360     		str	r3, [r2]
  68              	.LVL5:
  69              		.loc 1 61 0
  70 0020 0A4B     		ldr	r3, .L2+16
  62:Generated_Source\PSoC4/IDAC_1.c ****         IDAC_1_IDAC_POLARITY_POSITION));
  63:Generated_Source\PSoC4/IDAC_1.c **** 
  64:Generated_Source\PSoC4/IDAC_1.c ****     /* set new configuration */
  65:Generated_Source\PSoC4/IDAC_1.c ****     IDAC_1_IDAC_CONTROL_REG |= (((uint32)IDAC_1_IDAC_INIT_VALUE <<
  66:Generated_Source\PSoC4/IDAC_1.c ****         IDAC_1_IDAC_VALUE_POSITION) | ((uint32)IDAC_1_IDAC_RANGE <<
  67:Generated_Source\PSoC4/IDAC_1.c ****         IDAC_1_IDAC_RANGE_POSITION));
  68:Generated_Source\PSoC4/IDAC_1.c **** 
  69:Generated_Source\PSoC4/IDAC_1.c ****     IDAC_1_IDAC_POLARITY_CONTROL_REG |= ((uint32)IDAC_1_IDAC_POLARITY <<
  70:Generated_Source\PSoC4/IDAC_1.c ****                                                            IDAC_1_IDAC_POLARITY_POSITION);
  71:Generated_Source\PSoC4/IDAC_1.c **** 
  72:Generated_Source\PSoC4/IDAC_1.c ****     CyExitCriticalSection(enableInterrupts);
  73:Generated_Source\PSoC4/IDAC_1.c **** 
  74:Generated_Source\PSoC4/IDAC_1.c **** }
  71              		.loc 1 74 0
  72              		@ sp needed
  61:Generated_Source\PSoC4/IDAC_1.c ****         IDAC_1_IDAC_POLARITY_POSITION));
  73              		.loc 1 61 0
  74 0022 1C68     		ldr	r4, [r3]
  75 0024 2140     		ands	r1, r4
  65:Generated_Source\PSoC4/IDAC_1.c ****         IDAC_1_IDAC_VALUE_POSITION) | ((uint32)IDAC_1_IDAC_RANGE <<
  76              		.loc 1 65 0
  77 0026 8024     		movs	r4, #128
  61:Generated_Source\PSoC4/IDAC_1.c ****         IDAC_1_IDAC_POLARITY_POSITION));
  78              		.loc 1 61 0
  79 0028 1960     		str	r1, [r3]
  65:Generated_Source\PSoC4/IDAC_1.c ****         IDAC_1_IDAC_VALUE_POSITION) | ((uint32)IDAC_1_IDAC_RANGE <<
  80              		.loc 1 65 0
  81 002a 1168     		ldr	r1, [r2]
  82 002c E400     		lsls	r4, r4, #3
  83 002e 2143     		orrs	r1, r4
  84 0030 1160     		str	r1, [r2]
  69:Generated_Source\PSoC4/IDAC_1.c ****                                                            IDAC_1_IDAC_POLARITY_POSITION);
  85              		.loc 1 69 0
  86 0032 1A68     		ldr	r2, [r3]
  87 0034 1A60     		str	r2, [r3]
ARM GAS  C:\Users\ilya\AppData\Local\Temp\ccPv0R0f.s 			page 4


  72:Generated_Source\PSoC4/IDAC_1.c **** 
  88              		.loc 1 72 0
  89 0036 FFF7FEFF 		bl	CyExitCriticalSection
  90              	.LVL6:
  91              		.loc 1 74 0
  92 003a 10BD     		pop	{r4, pc}
  93              	.L3:
  94              		.align	2
  95              	.L2:
  96 003c 00FF2840 		.word	1076428544
  97 0040 60F1FF0F 		.word	268431712
  98 0044 08002840 		.word	1076363272
  99 0048 FFFFFEFF 		.word	-65537
 100 004c 04002840 		.word	1076363268
 101              		.cfi_endproc
 102              	.LFE1:
 103              		.size	IDAC_1_Init, .-IDAC_1_Init
 104              		.section	.text.IDAC_1_Enable,"ax",%progbits
 105              		.align	2
 106              		.global	IDAC_1_Enable
 107              		.code	16
 108              		.thumb_func
 109              		.type	IDAC_1_Enable, %function
 110              	IDAC_1_Enable:
 111              	.LFB2:
  75:Generated_Source\PSoC4/IDAC_1.c **** 
  76:Generated_Source\PSoC4/IDAC_1.c **** 
  77:Generated_Source\PSoC4/IDAC_1.c **** /*******************************************************************************
  78:Generated_Source\PSoC4/IDAC_1.c **** * Function Name: IDAC_1_Enable
  79:Generated_Source\PSoC4/IDAC_1.c **** ********************************************************************************
  80:Generated_Source\PSoC4/IDAC_1.c **** *
  81:Generated_Source\PSoC4/IDAC_1.c **** * Summary:
  82:Generated_Source\PSoC4/IDAC_1.c **** *  Enables IDAC operations.
  83:Generated_Source\PSoC4/IDAC_1.c **** *
  84:Generated_Source\PSoC4/IDAC_1.c **** * Parameters:
  85:Generated_Source\PSoC4/IDAC_1.c **** *  None
  86:Generated_Source\PSoC4/IDAC_1.c **** *
  87:Generated_Source\PSoC4/IDAC_1.c **** * Return:
  88:Generated_Source\PSoC4/IDAC_1.c **** *  None
  89:Generated_Source\PSoC4/IDAC_1.c **** *
  90:Generated_Source\PSoC4/IDAC_1.c **** * Global variables:
  91:Generated_Source\PSoC4/IDAC_1.c **** *  None
  92:Generated_Source\PSoC4/IDAC_1.c **** *
  93:Generated_Source\PSoC4/IDAC_1.c **** *******************************************************************************/
  94:Generated_Source\PSoC4/IDAC_1.c **** void IDAC_1_Enable(void)
  95:Generated_Source\PSoC4/IDAC_1.c **** {
 112              		.loc 1 95 0
 113              		.cfi_startproc
 114              		@ args = 0, pretend = 0, frame = 0
 115              		@ frame_needed = 0, uses_anonymous_args = 0
 116 0000 10B5     		push	{r4, lr}
 117              		.cfi_def_cfa_offset 8
 118              		.cfi_offset 4, -8
 119              		.cfi_offset 14, -4
  96:Generated_Source\PSoC4/IDAC_1.c ****     uint8 enableInterrupts;
  97:Generated_Source\PSoC4/IDAC_1.c **** 
  98:Generated_Source\PSoC4/IDAC_1.c ****     enableInterrupts = CyEnterCriticalSection();
ARM GAS  C:\Users\ilya\AppData\Local\Temp\ccPv0R0f.s 			page 5


 120              		.loc 1 98 0
 121 0002 FFF7FEFF 		bl	CyEnterCriticalSection
 122              	.LVL7:
  99:Generated_Source\PSoC4/IDAC_1.c **** 
 100:Generated_Source\PSoC4/IDAC_1.c ****     /* Enable the IDAC */
 101:Generated_Source\PSoC4/IDAC_1.c ****     IDAC_1_IDAC_CONTROL_REG |= ((uint32)IDAC_1_IDAC_EN_MODE <<
 123              		.loc 1 101 0
 124 0006 C021     		movs	r1, #192
 125 0008 064A     		ldr	r2, .L5
 126 000a 8900     		lsls	r1, r1, #2
 127 000c 1368     		ldr	r3, [r2]
 102:Generated_Source\PSoC4/IDAC_1.c ****                                                   IDAC_1_IDAC_MODE_POSITION);
 103:Generated_Source\PSoC4/IDAC_1.c ****     IDAC_1_IDAC_POLARITY_CONTROL_REG |= ((uint32)IDAC_1_IDAC_CSD_EN <<
 104:Generated_Source\PSoC4/IDAC_1.c ****                                                            IDAC_1_IDAC_CSD_EN_POSITION);
 105:Generated_Source\PSoC4/IDAC_1.c ****     CyExitCriticalSection(enableInterrupts);
 106:Generated_Source\PSoC4/IDAC_1.c **** 
 107:Generated_Source\PSoC4/IDAC_1.c **** }
 128              		.loc 1 107 0
 129              		@ sp needed
 101:Generated_Source\PSoC4/IDAC_1.c ****                                                   IDAC_1_IDAC_MODE_POSITION);
 130              		.loc 1 101 0
 131 000e 0B43     		orrs	r3, r1
 103:Generated_Source\PSoC4/IDAC_1.c ****                                                            IDAC_1_IDAC_CSD_EN_POSITION);
 132              		.loc 1 103 0
 133 0010 8021     		movs	r1, #128
 101:Generated_Source\PSoC4/IDAC_1.c ****                                                   IDAC_1_IDAC_MODE_POSITION);
 134              		.loc 1 101 0
 135 0012 1360     		str	r3, [r2]
 103:Generated_Source\PSoC4/IDAC_1.c ****                                                            IDAC_1_IDAC_CSD_EN_POSITION);
 136              		.loc 1 103 0
 137 0014 044A     		ldr	r2, .L5+4
 138 0016 0906     		lsls	r1, r1, #24
 139 0018 1368     		ldr	r3, [r2]
 140 001a 0B43     		orrs	r3, r1
 141 001c 1360     		str	r3, [r2]
 105:Generated_Source\PSoC4/IDAC_1.c **** 
 142              		.loc 1 105 0
 143 001e FFF7FEFF 		bl	CyExitCriticalSection
 144              	.LVL8:
 145              		.loc 1 107 0
 146 0022 10BD     		pop	{r4, pc}
 147              	.L6:
 148              		.align	2
 149              	.L5:
 150 0024 08002840 		.word	1076363272
 151 0028 04002840 		.word	1076363268
 152              		.cfi_endproc
 153              	.LFE2:
 154              		.size	IDAC_1_Enable, .-IDAC_1_Enable
 155              		.section	.text.IDAC_1_Start,"ax",%progbits
 156              		.align	2
 157              		.global	IDAC_1_Start
 158              		.code	16
 159              		.thumb_func
 160              		.type	IDAC_1_Start, %function
 161              	IDAC_1_Start:
 162              	.LFB3:
ARM GAS  C:\Users\ilya\AppData\Local\Temp\ccPv0R0f.s 			page 6


 108:Generated_Source\PSoC4/IDAC_1.c **** 
 109:Generated_Source\PSoC4/IDAC_1.c **** 
 110:Generated_Source\PSoC4/IDAC_1.c **** /*******************************************************************************
 111:Generated_Source\PSoC4/IDAC_1.c **** * Function Name: IDAC_1_Start
 112:Generated_Source\PSoC4/IDAC_1.c **** ********************************************************************************
 113:Generated_Source\PSoC4/IDAC_1.c **** *
 114:Generated_Source\PSoC4/IDAC_1.c **** * Summary:
 115:Generated_Source\PSoC4/IDAC_1.c **** *  Starts the IDAC hardware.
 116:Generated_Source\PSoC4/IDAC_1.c **** *
 117:Generated_Source\PSoC4/IDAC_1.c **** * Parameters:
 118:Generated_Source\PSoC4/IDAC_1.c **** *  None
 119:Generated_Source\PSoC4/IDAC_1.c **** *
 120:Generated_Source\PSoC4/IDAC_1.c **** * Return:
 121:Generated_Source\PSoC4/IDAC_1.c **** *  None
 122:Generated_Source\PSoC4/IDAC_1.c **** *
 123:Generated_Source\PSoC4/IDAC_1.c **** * Global variables:
 124:Generated_Source\PSoC4/IDAC_1.c **** *  IDAC_1_initVar
 125:Generated_Source\PSoC4/IDAC_1.c **** *
 126:Generated_Source\PSoC4/IDAC_1.c **** *******************************************************************************/
 127:Generated_Source\PSoC4/IDAC_1.c **** void IDAC_1_Start(void)
 128:Generated_Source\PSoC4/IDAC_1.c **** {
 163              		.loc 1 128 0
 164              		.cfi_startproc
 165              		@ args = 0, pretend = 0, frame = 0
 166              		@ frame_needed = 0, uses_anonymous_args = 0
 167 0000 70B5     		push	{r4, r5, r6, lr}
 168              		.cfi_def_cfa_offset 16
 169              		.cfi_offset 4, -16
 170              		.cfi_offset 5, -12
 171              		.cfi_offset 6, -8
 172              		.cfi_offset 14, -4
 129:Generated_Source\PSoC4/IDAC_1.c ****     if(0u == IDAC_1_initVar)
 173              		.loc 1 129 0
 174 0002 194C     		ldr	r4, .L10
 175 0004 2368     		ldr	r3, [r4]
 176 0006 002B     		cmp	r3, #0
 177 0008 1DD1     		bne	.L8
 178              	.LBB6:
 179              	.LBB7:
  46:Generated_Source\PSoC4/IDAC_1.c ****         regVal |=  (IDAC_1_SFLASH_TRIM1_REG & IDAC_1_CSD_IDAC_TRIM1_MASK);
 180              		.loc 1 46 0
 181 000a 0F25     		movs	r5, #15
  43:Generated_Source\PSoC4/IDAC_1.c ****     
 182              		.loc 1 43 0
 183 000c FFF7FEFF 		bl	CyEnterCriticalSection
 184              	.LVL9:
  46:Generated_Source\PSoC4/IDAC_1.c ****         regVal |=  (IDAC_1_SFLASH_TRIM1_REG & IDAC_1_CSD_IDAC_TRIM1_MASK);
 185              		.loc 1 46 0
 186 0010 1649     		ldr	r1, .L10+4
  47:Generated_Source\PSoC4/IDAC_1.c ****         IDAC_1_CSD_TRIM1_REG = regVal;
 187              		.loc 1 47 0
 188 0012 174B     		ldr	r3, .L10+8
  46:Generated_Source\PSoC4/IDAC_1.c ****         regVal |=  (IDAC_1_SFLASH_TRIM1_REG & IDAC_1_CSD_IDAC_TRIM1_MASK);
 189              		.loc 1 46 0
 190 0014 0A68     		ldr	r2, [r1]
  47:Generated_Source\PSoC4/IDAC_1.c ****         IDAC_1_CSD_TRIM1_REG = regVal;
 191              		.loc 1 47 0
ARM GAS  C:\Users\ilya\AppData\Local\Temp\ccPv0R0f.s 			page 7


 192 0016 1B78     		ldrb	r3, [r3]
  46:Generated_Source\PSoC4/IDAC_1.c ****         regVal |=  (IDAC_1_SFLASH_TRIM1_REG & IDAC_1_CSD_IDAC_TRIM1_MASK);
 193              		.loc 1 46 0
 194 0018 AA43     		bics	r2, r5
 195              	.LVL10:
  47:Generated_Source\PSoC4/IDAC_1.c ****         IDAC_1_CSD_TRIM1_REG = regVal;
 196              		.loc 1 47 0
 197 001a 2B40     		ands	r3, r5
 198 001c 1343     		orrs	r3, r2
 199              	.LVL11:
  56:Generated_Source\PSoC4/IDAC_1.c ****         IDAC_1_IDAC_VALUE_POSITION)) | ((uint32)~((uint32)IDAC_1_IDAC_MODE_MASK <<
 200              		.loc 1 56 0
 201 001e 154A     		ldr	r2, .L10+12
  48:Generated_Source\PSoC4/IDAC_1.c ****     #else
 202              		.loc 1 48 0
 203 0020 0B60     		str	r3, [r1]
  56:Generated_Source\PSoC4/IDAC_1.c ****         IDAC_1_IDAC_VALUE_POSITION)) | ((uint32)~((uint32)IDAC_1_IDAC_MODE_MASK <<
 204              		.loc 1 56 0
 205 0022 1368     		ldr	r3, [r2]
 206              	.LVL12:
  61:Generated_Source\PSoC4/IDAC_1.c ****         IDAC_1_IDAC_POLARITY_POSITION));
 207              		.loc 1 61 0
 208 0024 1449     		ldr	r1, .L10+16
 209              	.LVL13:
  56:Generated_Source\PSoC4/IDAC_1.c ****         IDAC_1_IDAC_VALUE_POSITION)) | ((uint32)~((uint32)IDAC_1_IDAC_MODE_MASK <<
 210              		.loc 1 56 0
 211 0026 1360     		str	r3, [r2]
 212              	.LVL14:
  61:Generated_Source\PSoC4/IDAC_1.c ****         IDAC_1_IDAC_POLARITY_POSITION));
 213              		.loc 1 61 0
 214 0028 144B     		ldr	r3, .L10+20
 215 002a 1D68     		ldr	r5, [r3]
 216 002c 2940     		ands	r1, r5
  65:Generated_Source\PSoC4/IDAC_1.c ****         IDAC_1_IDAC_VALUE_POSITION) | ((uint32)IDAC_1_IDAC_RANGE <<
 217              		.loc 1 65 0
 218 002e 8025     		movs	r5, #128
  61:Generated_Source\PSoC4/IDAC_1.c ****         IDAC_1_IDAC_POLARITY_POSITION));
 219              		.loc 1 61 0
 220 0030 1960     		str	r1, [r3]
  65:Generated_Source\PSoC4/IDAC_1.c ****         IDAC_1_IDAC_VALUE_POSITION) | ((uint32)IDAC_1_IDAC_RANGE <<
 221              		.loc 1 65 0
 222 0032 1168     		ldr	r1, [r2]
 223 0034 ED00     		lsls	r5, r5, #3
 224 0036 2943     		orrs	r1, r5
 225 0038 1160     		str	r1, [r2]
  69:Generated_Source\PSoC4/IDAC_1.c ****                                                            IDAC_1_IDAC_POLARITY_POSITION);
 226              		.loc 1 69 0
 227 003a 1A68     		ldr	r2, [r3]
 228 003c 1A60     		str	r2, [r3]
  72:Generated_Source\PSoC4/IDAC_1.c **** 
 229              		.loc 1 72 0
 230 003e FFF7FEFF 		bl	CyExitCriticalSection
 231              	.LVL15:
 232              	.LBE7:
 233              	.LBE6:
 130:Generated_Source\PSoC4/IDAC_1.c ****     {
 131:Generated_Source\PSoC4/IDAC_1.c ****         IDAC_1_Init();
ARM GAS  C:\Users\ilya\AppData\Local\Temp\ccPv0R0f.s 			page 8


 132:Generated_Source\PSoC4/IDAC_1.c ****         IDAC_1_initVar = 1u;
 234              		.loc 1 132 0
 235 0042 0123     		movs	r3, #1
 236 0044 2360     		str	r3, [r4]
 237              	.L8:
 238              	.LBB8:
 239              	.LBB9:
  98:Generated_Source\PSoC4/IDAC_1.c **** 
 240              		.loc 1 98 0
 241 0046 FFF7FEFF 		bl	CyEnterCriticalSection
 242              	.LVL16:
 101:Generated_Source\PSoC4/IDAC_1.c ****                                                   IDAC_1_IDAC_MODE_POSITION);
 243              		.loc 1 101 0
 244 004a C021     		movs	r1, #192
 245 004c 094A     		ldr	r2, .L10+12
 246 004e 8900     		lsls	r1, r1, #2
 247 0050 1368     		ldr	r3, [r2]
 248              	.LBE9:
 249              	.LBE8:
 133:Generated_Source\PSoC4/IDAC_1.c ****     }
 134:Generated_Source\PSoC4/IDAC_1.c **** 
 135:Generated_Source\PSoC4/IDAC_1.c ****     IDAC_1_Enable();
 136:Generated_Source\PSoC4/IDAC_1.c **** 
 137:Generated_Source\PSoC4/IDAC_1.c **** }
 250              		.loc 1 137 0
 251              		@ sp needed
 252              	.LBB11:
 253              	.LBB10:
 101:Generated_Source\PSoC4/IDAC_1.c ****                                                   IDAC_1_IDAC_MODE_POSITION);
 254              		.loc 1 101 0
 255 0052 0B43     		orrs	r3, r1
 103:Generated_Source\PSoC4/IDAC_1.c ****                                                            IDAC_1_IDAC_CSD_EN_POSITION);
 256              		.loc 1 103 0
 257 0054 8021     		movs	r1, #128
 101:Generated_Source\PSoC4/IDAC_1.c ****                                                   IDAC_1_IDAC_MODE_POSITION);
 258              		.loc 1 101 0
 259 0056 1360     		str	r3, [r2]
 103:Generated_Source\PSoC4/IDAC_1.c ****                                                            IDAC_1_IDAC_CSD_EN_POSITION);
 260              		.loc 1 103 0
 261 0058 084A     		ldr	r2, .L10+20
 262 005a 0906     		lsls	r1, r1, #24
 263 005c 1368     		ldr	r3, [r2]
 264 005e 0B43     		orrs	r3, r1
 265 0060 1360     		str	r3, [r2]
 105:Generated_Source\PSoC4/IDAC_1.c **** 
 266              		.loc 1 105 0
 267 0062 FFF7FEFF 		bl	CyExitCriticalSection
 268              	.LVL17:
 269              	.LBE10:
 270              	.LBE11:
 271              		.loc 1 137 0
 272 0066 70BD     		pop	{r4, r5, r6, pc}
 273              	.L11:
 274              		.align	2
 275              	.L10:
 276 0068 00000000 		.word	.LANCHOR0
 277 006c 00FF2840 		.word	1076428544
ARM GAS  C:\Users\ilya\AppData\Local\Temp\ccPv0R0f.s 			page 9


 278 0070 60F1FF0F 		.word	268431712
 279 0074 08002840 		.word	1076363272
 280 0078 FFFFFEFF 		.word	-65537
 281 007c 04002840 		.word	1076363268
 282              		.cfi_endproc
 283              	.LFE3:
 284              		.size	IDAC_1_Start, .-IDAC_1_Start
 285              		.section	.text.IDAC_1_Stop,"ax",%progbits
 286              		.align	2
 287              		.global	IDAC_1_Stop
 288              		.code	16
 289              		.thumb_func
 290              		.type	IDAC_1_Stop, %function
 291              	IDAC_1_Stop:
 292              	.LFB4:
 138:Generated_Source\PSoC4/IDAC_1.c **** 
 139:Generated_Source\PSoC4/IDAC_1.c **** 
 140:Generated_Source\PSoC4/IDAC_1.c **** /*******************************************************************************
 141:Generated_Source\PSoC4/IDAC_1.c **** * Function Name: IDAC_1_Stop
 142:Generated_Source\PSoC4/IDAC_1.c **** ********************************************************************************
 143:Generated_Source\PSoC4/IDAC_1.c **** *
 144:Generated_Source\PSoC4/IDAC_1.c **** * Summary:
 145:Generated_Source\PSoC4/IDAC_1.c **** *  Stops the IDAC hardware.
 146:Generated_Source\PSoC4/IDAC_1.c **** *
 147:Generated_Source\PSoC4/IDAC_1.c **** * Parameters:
 148:Generated_Source\PSoC4/IDAC_1.c **** *  None
 149:Generated_Source\PSoC4/IDAC_1.c **** *
 150:Generated_Source\PSoC4/IDAC_1.c **** * Return:
 151:Generated_Source\PSoC4/IDAC_1.c **** *  None
 152:Generated_Source\PSoC4/IDAC_1.c **** *
 153:Generated_Source\PSoC4/IDAC_1.c **** * Global variables:
 154:Generated_Source\PSoC4/IDAC_1.c **** *  None
 155:Generated_Source\PSoC4/IDAC_1.c **** *
 156:Generated_Source\PSoC4/IDAC_1.c **** *******************************************************************************/
 157:Generated_Source\PSoC4/IDAC_1.c **** void IDAC_1_Stop(void)
 158:Generated_Source\PSoC4/IDAC_1.c **** {
 293              		.loc 1 158 0
 294              		.cfi_startproc
 295              		@ args = 0, pretend = 0, frame = 0
 296              		@ frame_needed = 0, uses_anonymous_args = 0
 297 0000 10B5     		push	{r4, lr}
 298              		.cfi_def_cfa_offset 8
 299              		.cfi_offset 4, -8
 300              		.cfi_offset 14, -4
 159:Generated_Source\PSoC4/IDAC_1.c ****     uint8 enableInterrupts;
 160:Generated_Source\PSoC4/IDAC_1.c **** 
 161:Generated_Source\PSoC4/IDAC_1.c ****     enableInterrupts = CyEnterCriticalSection();
 301              		.loc 1 161 0
 302 0002 FFF7FEFF 		bl	CyEnterCriticalSection
 303              	.LVL18:
 162:Generated_Source\PSoC4/IDAC_1.c **** 
 163:Generated_Source\PSoC4/IDAC_1.c ****     /* Disable the IDAC */
 164:Generated_Source\PSoC4/IDAC_1.c ****     IDAC_1_IDAC_CONTROL_REG &= ((uint32)~((uint32)IDAC_1_IDAC_MODE_MASK <<
 304              		.loc 1 164 0
 305 0006 044A     		ldr	r2, .L13
 306 0008 044B     		ldr	r3, .L13+4
 307 000a 1168     		ldr	r1, [r2]
ARM GAS  C:\Users\ilya\AppData\Local\Temp\ccPv0R0f.s 			page 10


 165:Generated_Source\PSoC4/IDAC_1.c ****         IDAC_1_IDAC_MODE_POSITION));
 166:Generated_Source\PSoC4/IDAC_1.c ****     CyExitCriticalSection(enableInterrupts);
 167:Generated_Source\PSoC4/IDAC_1.c **** }
 308              		.loc 1 167 0
 309              		@ sp needed
 164:Generated_Source\PSoC4/IDAC_1.c ****         IDAC_1_IDAC_MODE_POSITION));
 310              		.loc 1 164 0
 311 000c 0B40     		ands	r3, r1
 312 000e 1360     		str	r3, [r2]
 166:Generated_Source\PSoC4/IDAC_1.c **** }
 313              		.loc 1 166 0
 314 0010 FFF7FEFF 		bl	CyExitCriticalSection
 315              	.LVL19:
 316              		.loc 1 167 0
 317 0014 10BD     		pop	{r4, pc}
 318              	.L14:
 319 0016 C046     		.align	2
 320              	.L13:
 321 0018 08002840 		.word	1076363272
 322 001c FFFCFFFF 		.word	-769
 323              		.cfi_endproc
 324              	.LFE4:
 325              		.size	IDAC_1_Stop, .-IDAC_1_Stop
 326              		.section	.text.IDAC_1_SetValue,"ax",%progbits
 327              		.align	2
 328              		.global	IDAC_1_SetValue
 329              		.code	16
 330              		.thumb_func
 331              		.type	IDAC_1_SetValue, %function
 332              	IDAC_1_SetValue:
 333              	.LFB5:
 168:Generated_Source\PSoC4/IDAC_1.c **** 
 169:Generated_Source\PSoC4/IDAC_1.c **** 
 170:Generated_Source\PSoC4/IDAC_1.c **** /*******************************************************************************
 171:Generated_Source\PSoC4/IDAC_1.c **** * Function Name: IDAC_1_SetValue
 172:Generated_Source\PSoC4/IDAC_1.c **** ********************************************************************************
 173:Generated_Source\PSoC4/IDAC_1.c **** *
 174:Generated_Source\PSoC4/IDAC_1.c **** * Summary:
 175:Generated_Source\PSoC4/IDAC_1.c **** *  Sets the IDAC value.
 176:Generated_Source\PSoC4/IDAC_1.c **** *
 177:Generated_Source\PSoC4/IDAC_1.c **** * Parameters:
 178:Generated_Source\PSoC4/IDAC_1.c **** *  uint32 value
 179:Generated_Source\PSoC4/IDAC_1.c **** *
 180:Generated_Source\PSoC4/IDAC_1.c **** * Return:
 181:Generated_Source\PSoC4/IDAC_1.c **** *  None
 182:Generated_Source\PSoC4/IDAC_1.c **** *
 183:Generated_Source\PSoC4/IDAC_1.c **** * Global variables:
 184:Generated_Source\PSoC4/IDAC_1.c **** *  None
 185:Generated_Source\PSoC4/IDAC_1.c **** *
 186:Generated_Source\PSoC4/IDAC_1.c **** *******************************************************************************/
 187:Generated_Source\PSoC4/IDAC_1.c **** void IDAC_1_SetValue(uint32 value)
 188:Generated_Source\PSoC4/IDAC_1.c **** {
 334              		.loc 1 188 0
 335              		.cfi_startproc
 336              		@ args = 0, pretend = 0, frame = 0
 337              		@ frame_needed = 0, uses_anonymous_args = 0
 338              	.LVL20:
ARM GAS  C:\Users\ilya\AppData\Local\Temp\ccPv0R0f.s 			page 11


 339 0000 10B5     		push	{r4, lr}
 340              		.cfi_def_cfa_offset 8
 341              		.cfi_offset 4, -8
 342              		.cfi_offset 14, -4
 343              		.loc 1 188 0
 344 0002 0400     		movs	r4, r0
 189:Generated_Source\PSoC4/IDAC_1.c ****     uint8 enableInterrupts;
 190:Generated_Source\PSoC4/IDAC_1.c ****     uint32 newRegisterValue;
 191:Generated_Source\PSoC4/IDAC_1.c **** 
 192:Generated_Source\PSoC4/IDAC_1.c ****     enableInterrupts = CyEnterCriticalSection();
 345              		.loc 1 192 0
 346 0004 FFF7FEFF 		bl	CyEnterCriticalSection
 347              	.LVL21:
 193:Generated_Source\PSoC4/IDAC_1.c **** 
 194:Generated_Source\PSoC4/IDAC_1.c ****     #if(IDAC_1_IDAC_VALUE_POSITION != 0u)
 195:Generated_Source\PSoC4/IDAC_1.c ****         newRegisterValue = ((IDAC_1_IDAC_CONTROL_REG & (~(uint32)((uint32)IDAC_1_IDAC_VALUE_MASK <<
 196:Generated_Source\PSoC4/IDAC_1.c ****         IDAC_1_IDAC_VALUE_POSITION))) | (value << IDAC_1_IDAC_VALUE_POSITION));
 197:Generated_Source\PSoC4/IDAC_1.c ****     #else
 198:Generated_Source\PSoC4/IDAC_1.c ****         newRegisterValue = ((IDAC_1_IDAC_CONTROL_REG & (~(uint32)IDAC_1_IDAC_VALUE_MASK)) | value);
 348              		.loc 1 198 0
 349 0008 FF21     		movs	r1, #255
 350 000a 044A     		ldr	r2, .L16
 199:Generated_Source\PSoC4/IDAC_1.c ****     #endif /* IDAC_1_IDAC_VALUE_POSITION != 0u */
 200:Generated_Source\PSoC4/IDAC_1.c **** 
 201:Generated_Source\PSoC4/IDAC_1.c ****     IDAC_1_IDAC_CONTROL_REG = newRegisterValue;
 202:Generated_Source\PSoC4/IDAC_1.c **** 
 203:Generated_Source\PSoC4/IDAC_1.c ****     CyExitCriticalSection(enableInterrupts);
 204:Generated_Source\PSoC4/IDAC_1.c **** }
 351              		.loc 1 204 0
 352              		@ sp needed
 198:Generated_Source\PSoC4/IDAC_1.c ****     #endif /* IDAC_1_IDAC_VALUE_POSITION != 0u */
 353              		.loc 1 198 0
 354 000c 1368     		ldr	r3, [r2]
 355 000e 8B43     		bics	r3, r1
 356 0010 1C43     		orrs	r4, r3
 357              	.LVL22:
 201:Generated_Source\PSoC4/IDAC_1.c **** 
 358              		.loc 1 201 0
 359 0012 1460     		str	r4, [r2]
 203:Generated_Source\PSoC4/IDAC_1.c **** }
 360              		.loc 1 203 0
 361 0014 FFF7FEFF 		bl	CyExitCriticalSection
 362              	.LVL23:
 363              	.LVL24:
 364              		.loc 1 204 0
 365 0018 10BD     		pop	{r4, pc}
 366              	.L17:
 367 001a C046     		.align	2
 368              	.L16:
 369 001c 08002840 		.word	1076363272
 370              		.cfi_endproc
 371              	.LFE5:
 372              		.size	IDAC_1_SetValue, .-IDAC_1_SetValue
 373              		.global	IDAC_1_initVar
 374              		.bss
 375              		.align	2
 376              		.set	.LANCHOR0,. + 0
ARM GAS  C:\Users\ilya\AppData\Local\Temp\ccPv0R0f.s 			page 12


 377              		.type	IDAC_1_initVar, %object
 378              		.size	IDAC_1_initVar, 4
 379              	IDAC_1_initVar:
 380 0000 00000000 		.space	4
 381              		.text
 382              	.Letext0:
 383              		.file 2 "Generated_Source\\PSoC4\\cytypes.h"
 384              		.file 3 "Generated_Source\\PSoC4\\CyLib.h"