ARM GAS  C:\Users\bramamu\AppData\Local\Temp\cczceNxl.s 			page 1


   1              		.syntax unified
   2              		.cpu cortex-m3
   3              		.fpu softvfp
   4              		.eabi_attribute 20, 1
   5              		.eabi_attribute 21, 1
   6              		.eabi_attribute 23, 3
   7              		.eabi_attribute 24, 1
   8              		.eabi_attribute 25, 1
   9              		.eabi_attribute 26, 1
  10              		.eabi_attribute 30, 6
  11              		.eabi_attribute 34, 1
  12              		.eabi_attribute 18, 4
  13              		.thumb
  14              		.file	"BootloaderI2C.c"
  15              		.text
  16              	.Ltext0:
  17              		.cfi_sections	.debug_frame
  18              		.global	BootloaderI2C_Checksum
  19              		.section	.bootloader,"a",%progbits
  20              		.type	BootloaderI2C_Checksum, %object
  21              		.size	BootloaderI2C_Checksum, 1
  22              	BootloaderI2C_Checksum:
  23 0000 00       		.space	1
  24              		.global	BootloaderI2C_ChecksumAccess
  25              		.data
  26              		.align	2
  27              		.type	BootloaderI2C_ChecksumAccess, %object
  28              		.size	BootloaderI2C_ChecksumAccess, 4
  29              	BootloaderI2C_ChecksumAccess:
  30 0000 00000000 		.word	BootloaderI2C_Checksum
  31              		.global	BootloaderI2C_SizeBytes
  32              		.section	.bootloader
  33 0001 000000   		.align	2
  34              		.type	BootloaderI2C_SizeBytes, %object
  35              		.size	BootloaderI2C_SizeBytes, 4
  36              	BootloaderI2C_SizeBytes:
  37 0004 FFFFFFFF 		.word	-1
  38              		.global	BootloaderI2C_SizeBytesAccess
  39              		.data
  40              		.align	2
  41              		.type	BootloaderI2C_SizeBytesAccess, %object
  42              		.size	BootloaderI2C_SizeBytesAccess, 4
  43              	BootloaderI2C_SizeBytesAccess:
  44 0004 00000000 		.word	BootloaderI2C_SizeBytes
  45              		.section	.text.BootloaderI2C_CalcPacketChecksum,"ax",%progbits
  46              		.align	2
  47              		.thumb
  48              		.thumb_func
  49              		.type	BootloaderI2C_CalcPacketChecksum, %function
  50              	BootloaderI2C_CalcPacketChecksum:
  51              	.LFB56:
  52              		.file 1 ".\\Generated_Source\\PSoC5\\BootloaderI2C.c"
   1:.\Generated_Source\PSoC5/BootloaderI2C.c **** /*******************************************************************************
   2:.\Generated_Source\PSoC5/BootloaderI2C.c **** * File Name: BootloaderI2C.c
   3:.\Generated_Source\PSoC5/BootloaderI2C.c **** * Version 1.20
   4:.\Generated_Source\PSoC5/BootloaderI2C.c **** *
   5:.\Generated_Source\PSoC5/BootloaderI2C.c **** *  Description:
ARM GAS  C:\Users\bramamu\AppData\Local\Temp\cczceNxl.s 			page 2


   6:.\Generated_Source\PSoC5/BootloaderI2C.c **** *   Provides an API for the Bootloader component. The API includes functions
   7:.\Generated_Source\PSoC5/BootloaderI2C.c **** *   for starting boot loading operations, validating the application and
   8:.\Generated_Source\PSoC5/BootloaderI2C.c **** *   jumping to the application.
   9:.\Generated_Source\PSoC5/BootloaderI2C.c **** *
  10:.\Generated_Source\PSoC5/BootloaderI2C.c **** ********************************************************************************
  11:.\Generated_Source\PSoC5/BootloaderI2C.c **** * Copyright 2008-2013, Cypress Semiconductor Corporation.  All rights reserved.
  12:.\Generated_Source\PSoC5/BootloaderI2C.c **** * You may use this file only in accordance with the license, terms, conditions,
  13:.\Generated_Source\PSoC5/BootloaderI2C.c **** * disclaimers, and limitations in the end user license agreement accompanying
  14:.\Generated_Source\PSoC5/BootloaderI2C.c **** * the software package with which this file was provided.
  15:.\Generated_Source\PSoC5/BootloaderI2C.c **** *******************************************************************************/
  16:.\Generated_Source\PSoC5/BootloaderI2C.c **** 
  17:.\Generated_Source\PSoC5/BootloaderI2C.c **** #include "BootloaderI2C_PVT.h"
  18:.\Generated_Source\PSoC5/BootloaderI2C.c **** 
  19:.\Generated_Source\PSoC5/BootloaderI2C.c **** #include "project.h"
  20:.\Generated_Source\PSoC5/BootloaderI2C.c **** #include <string.h>
  21:.\Generated_Source\PSoC5/BootloaderI2C.c **** 
  22:.\Generated_Source\PSoC5/BootloaderI2C.c **** 
  23:.\Generated_Source\PSoC5/BootloaderI2C.c **** /*******************************************************************************
  24:.\Generated_Source\PSoC5/BootloaderI2C.c **** * The Checksum and SizeBytes are forcefully set in code. We then post process
  25:.\Generated_Source\PSoC5/BootloaderI2C.c **** * the hex file from the linker and inject their values then. When the hex file
  26:.\Generated_Source\PSoC5/BootloaderI2C.c **** * is loaded onto the device these two variables should have valid values.
  27:.\Generated_Source\PSoC5/BootloaderI2C.c **** * Because the compiler can do optimizations remove the constant
  28:.\Generated_Source\PSoC5/BootloaderI2C.c **** * accesses, these should not be accessed directly. Instead, the variables
  29:.\Generated_Source\PSoC5/BootloaderI2C.c **** * CyBtldr_ChecksumAccess & CyBtldr_SizeBytesAccess should be used to get the
  30:.\Generated_Source\PSoC5/BootloaderI2C.c **** * proper values at runtime.
  31:.\Generated_Source\PSoC5/BootloaderI2C.c **** *******************************************************************************/
  32:.\Generated_Source\PSoC5/BootloaderI2C.c **** #if defined(__ARMCC_VERSION) || defined (__GNUC__)
  33:.\Generated_Source\PSoC5/BootloaderI2C.c ****     __attribute__((section (".bootloader")))
  34:.\Generated_Source\PSoC5/BootloaderI2C.c **** #elif defined (__ICCARM__)
  35:.\Generated_Source\PSoC5/BootloaderI2C.c ****     #pragma location=".bootloader"
  36:.\Generated_Source\PSoC5/BootloaderI2C.c **** #endif  /* defined(__ARMCC_VERSION) || defined (__GNUC__) */
  37:.\Generated_Source\PSoC5/BootloaderI2C.c **** 
  38:.\Generated_Source\PSoC5/BootloaderI2C.c **** const uint8  CYCODE BootloaderI2C_Checksum = 0u;
  39:.\Generated_Source\PSoC5/BootloaderI2C.c **** const uint8  CYCODE *BootloaderI2C_ChecksumAccess  = (const uint8  CYCODE *)(&BootloaderI2C_Checksu
  40:.\Generated_Source\PSoC5/BootloaderI2C.c **** 
  41:.\Generated_Source\PSoC5/BootloaderI2C.c **** #if defined(__ARMCC_VERSION) || defined (__GNUC__)
  42:.\Generated_Source\PSoC5/BootloaderI2C.c ****     __attribute__((section (".bootloader")))
  43:.\Generated_Source\PSoC5/BootloaderI2C.c **** #elif defined (__ICCARM__)
  44:.\Generated_Source\PSoC5/BootloaderI2C.c ****     #pragma location=".bootloader"
  45:.\Generated_Source\PSoC5/BootloaderI2C.c **** #endif  /* defined(__ARMCC_VERSION) || defined (__GNUC__) */
  46:.\Generated_Source\PSoC5/BootloaderI2C.c **** 
  47:.\Generated_Source\PSoC5/BootloaderI2C.c **** const uint32 CYCODE BootloaderI2C_SizeBytes = 0xFFFFFFFFu;
  48:.\Generated_Source\PSoC5/BootloaderI2C.c **** const uint32 CYCODE *BootloaderI2C_SizeBytesAccess = (const uint32 CYCODE *)(&BootloaderI2C_SizeByt
  49:.\Generated_Source\PSoC5/BootloaderI2C.c **** 
  50:.\Generated_Source\PSoC5/BootloaderI2C.c **** 
  51:.\Generated_Source\PSoC5/BootloaderI2C.c **** #if(0u != BootloaderI2C_DUAL_APP_BOOTLOADER)
  52:.\Generated_Source\PSoC5/BootloaderI2C.c ****     uint8 BootloaderI2C_activeApp = BootloaderI2C_MD_BTLDB_ACTIVE_NONE;
  53:.\Generated_Source\PSoC5/BootloaderI2C.c **** #else
  54:.\Generated_Source\PSoC5/BootloaderI2C.c ****     #define BootloaderI2C_activeApp      (BootloaderI2C_MD_BTLDB_ACTIVE_0)
  55:.\Generated_Source\PSoC5/BootloaderI2C.c **** #endif  /* (0u != BootloaderI2C_DUAL_APP_BOOTLOADER) */
  56:.\Generated_Source\PSoC5/BootloaderI2C.c **** 
  57:.\Generated_Source\PSoC5/BootloaderI2C.c **** 
  58:.\Generated_Source\PSoC5/BootloaderI2C.c **** /***************************************
  59:.\Generated_Source\PSoC5/BootloaderI2C.c **** *     Function Prototypes
  60:.\Generated_Source\PSoC5/BootloaderI2C.c **** ***************************************/
  61:.\Generated_Source\PSoC5/BootloaderI2C.c **** static cystatus BootloaderI2C_WritePacket(uint8 status, uint8 buffer[], uint16 size) CYSMALL \
  62:.\Generated_Source\PSoC5/BootloaderI2C.c ****                                     ;
ARM GAS  C:\Users\bramamu\AppData\Local\Temp\cczceNxl.s 			page 3


  63:.\Generated_Source\PSoC5/BootloaderI2C.c **** 
  64:.\Generated_Source\PSoC5/BootloaderI2C.c **** static uint16   BootloaderI2C_CalcPacketChecksum(const uint8 buffer[], uint16 size) CYSMALL \
  65:.\Generated_Source\PSoC5/BootloaderI2C.c ****                                     ;
  66:.\Generated_Source\PSoC5/BootloaderI2C.c **** 
  67:.\Generated_Source\PSoC5/BootloaderI2C.c **** static uint8    BootloaderI2C_Calc8BitFlashSum(uint32 start, uint32 size) CYSMALL \
  68:.\Generated_Source\PSoC5/BootloaderI2C.c ****                                     ;
  69:.\Generated_Source\PSoC5/BootloaderI2C.c **** #if(!CY_PSOC4)
  70:.\Generated_Source\PSoC5/BootloaderI2C.c **** static uint8    BootloaderI2C_Calc8BitEepromSum(uint32 start, uint32 size) CYSMALL \
  71:.\Generated_Source\PSoC5/BootloaderI2C.c ****                                     ;
  72:.\Generated_Source\PSoC5/BootloaderI2C.c **** #endif /* (!CY_PSOC4) */
  73:.\Generated_Source\PSoC5/BootloaderI2C.c **** 
  74:.\Generated_Source\PSoC5/BootloaderI2C.c **** static void     BootloaderI2C_HostLink(uint8 timeOut) \
  75:.\Generated_Source\PSoC5/BootloaderI2C.c ****                                     ;
  76:.\Generated_Source\PSoC5/BootloaderI2C.c **** 
  77:.\Generated_Source\PSoC5/BootloaderI2C.c **** static void     BootloaderI2C_LaunchApplication(void) CYSMALL \
  78:.\Generated_Source\PSoC5/BootloaderI2C.c ****                                     ;
  79:.\Generated_Source\PSoC5/BootloaderI2C.c **** 
  80:.\Generated_Source\PSoC5/BootloaderI2C.c **** static cystatus BootloaderI2C_ValidateBootloadable(uint8 appId) CYSMALL \
  81:.\Generated_Source\PSoC5/BootloaderI2C.c ****                                     ;
  82:.\Generated_Source\PSoC5/BootloaderI2C.c **** 
  83:.\Generated_Source\PSoC5/BootloaderI2C.c **** static uint32   BootloaderI2C_GetMetadata(uint8 fieldName, uint8 appId)\
  84:.\Generated_Source\PSoC5/BootloaderI2C.c ****                                     ;
  85:.\Generated_Source\PSoC5/BootloaderI2C.c **** 
  86:.\Generated_Source\PSoC5/BootloaderI2C.c **** #if(!CY_PSOC3)
  87:.\Generated_Source\PSoC5/BootloaderI2C.c ****     /* Implementation for the PSoC 3 resides in a BootloaderI2C_psoc3.a51 file.  */
  88:.\Generated_Source\PSoC5/BootloaderI2C.c ****     static void     BootloaderI2C_LaunchBootloadable(uint32 appAddr);
  89:.\Generated_Source\PSoC5/BootloaderI2C.c **** #endif  /* (!CY_PSOC3) */
  90:.\Generated_Source\PSoC5/BootloaderI2C.c **** 
  91:.\Generated_Source\PSoC5/BootloaderI2C.c **** 
  92:.\Generated_Source\PSoC5/BootloaderI2C.c **** /*******************************************************************************
  93:.\Generated_Source\PSoC5/BootloaderI2C.c **** * Function Name: BootloaderI2C_CalcPacketChecksum
  94:.\Generated_Source\PSoC5/BootloaderI2C.c **** ********************************************************************************
  95:.\Generated_Source\PSoC5/BootloaderI2C.c **** *
  96:.\Generated_Source\PSoC5/BootloaderI2C.c **** * Summary:
  97:.\Generated_Source\PSoC5/BootloaderI2C.c **** *  This computes the 16 bit checksum for the provided number of bytes contained
  98:.\Generated_Source\PSoC5/BootloaderI2C.c **** *  in the provided buffer
  99:.\Generated_Source\PSoC5/BootloaderI2C.c **** *
 100:.\Generated_Source\PSoC5/BootloaderI2C.c **** * Parameters:
 101:.\Generated_Source\PSoC5/BootloaderI2C.c **** *  buffer:
 102:.\Generated_Source\PSoC5/BootloaderI2C.c **** *     The buffer containing the data to compute the checksum for
 103:.\Generated_Source\PSoC5/BootloaderI2C.c **** *  size:
 104:.\Generated_Source\PSoC5/BootloaderI2C.c **** *     The number of bytes in buffer to compute the checksum for
 105:.\Generated_Source\PSoC5/BootloaderI2C.c **** *
 106:.\Generated_Source\PSoC5/BootloaderI2C.c **** * Returns:
 107:.\Generated_Source\PSoC5/BootloaderI2C.c **** *  16 bit checksum for the provided data
 108:.\Generated_Source\PSoC5/BootloaderI2C.c **** *
 109:.\Generated_Source\PSoC5/BootloaderI2C.c **** *******************************************************************************/
 110:.\Generated_Source\PSoC5/BootloaderI2C.c **** static uint16 BootloaderI2C_CalcPacketChecksum(const uint8 buffer[], uint16 size) \
 111:.\Generated_Source\PSoC5/BootloaderI2C.c ****                     CYSMALL 
 112:.\Generated_Source\PSoC5/BootloaderI2C.c **** {
  53              		.loc 1 112 0
  54              		.cfi_startproc
  55              		@ args = 0, pretend = 0, frame = 16
  56              		@ frame_needed = 1, uses_anonymous_args = 0
  57              		@ link register save eliminated.
  58 0000 80B4     		push	{r7}
  59              	.LCFI0:
ARM GAS  C:\Users\bramamu\AppData\Local\Temp\cczceNxl.s 			page 4


  60              		.cfi_def_cfa_offset 4
  61              		.cfi_offset 7, -4
  62 0002 85B0     		sub	sp, sp, #20
  63              	.LCFI1:
  64              		.cfi_def_cfa_offset 24
  65 0004 00AF     		add	r7, sp, #0
  66              	.LCFI2:
  67              		.cfi_def_cfa_register 7
  68 0006 7860     		str	r0, [r7, #4]
  69 0008 0B46     		mov	r3, r1
  70 000a 7B80     		strh	r3, [r7, #2]	@ movhi
 113:.\Generated_Source\PSoC5/BootloaderI2C.c ****     #if(0u != BootloaderI2C_PACKET_CHECKSUM_CRC)
 114:.\Generated_Source\PSoC5/BootloaderI2C.c **** 
 115:.\Generated_Source\PSoC5/BootloaderI2C.c ****         uint16 CYDATA crc = BootloaderI2C_CRC_CCITT_INITIAL_VALUE;
 116:.\Generated_Source\PSoC5/BootloaderI2C.c ****         uint16 CYDATA tmp;
 117:.\Generated_Source\PSoC5/BootloaderI2C.c ****         uint8  CYDATA i;
 118:.\Generated_Source\PSoC5/BootloaderI2C.c ****         uint16 CYDATA tmpIndex = size;
 119:.\Generated_Source\PSoC5/BootloaderI2C.c **** 
 120:.\Generated_Source\PSoC5/BootloaderI2C.c ****         if(0u == size)
 121:.\Generated_Source\PSoC5/BootloaderI2C.c ****         {
 122:.\Generated_Source\PSoC5/BootloaderI2C.c ****             crc = ~crc;
 123:.\Generated_Source\PSoC5/BootloaderI2C.c ****         }
 124:.\Generated_Source\PSoC5/BootloaderI2C.c ****         else
 125:.\Generated_Source\PSoC5/BootloaderI2C.c ****         {
 126:.\Generated_Source\PSoC5/BootloaderI2C.c ****             do
 127:.\Generated_Source\PSoC5/BootloaderI2C.c ****             {
 128:.\Generated_Source\PSoC5/BootloaderI2C.c ****                 tmp = buffer[tmpIndex - size];
 129:.\Generated_Source\PSoC5/BootloaderI2C.c **** 
 130:.\Generated_Source\PSoC5/BootloaderI2C.c ****                 for (i = 0u; i < 8u; i++)
 131:.\Generated_Source\PSoC5/BootloaderI2C.c ****                 {
 132:.\Generated_Source\PSoC5/BootloaderI2C.c ****                     if (0u != ((crc & 0x0001u) ^ (tmp & 0x0001u)))
 133:.\Generated_Source\PSoC5/BootloaderI2C.c ****                     {
 134:.\Generated_Source\PSoC5/BootloaderI2C.c ****                         crc = (crc >> 1u) ^ BootloaderI2C_CRC_CCITT_POLYNOMIAL;
 135:.\Generated_Source\PSoC5/BootloaderI2C.c ****                     }
 136:.\Generated_Source\PSoC5/BootloaderI2C.c ****                     else
 137:.\Generated_Source\PSoC5/BootloaderI2C.c ****                     {
 138:.\Generated_Source\PSoC5/BootloaderI2C.c ****                         crc >>= 1u;
 139:.\Generated_Source\PSoC5/BootloaderI2C.c ****                     }
 140:.\Generated_Source\PSoC5/BootloaderI2C.c **** 
 141:.\Generated_Source\PSoC5/BootloaderI2C.c ****                     tmp >>= 1u;
 142:.\Generated_Source\PSoC5/BootloaderI2C.c ****                 }
 143:.\Generated_Source\PSoC5/BootloaderI2C.c **** 
 144:.\Generated_Source\PSoC5/BootloaderI2C.c ****                 size--;
 145:.\Generated_Source\PSoC5/BootloaderI2C.c ****             }
 146:.\Generated_Source\PSoC5/BootloaderI2C.c ****             while(0u != size);
 147:.\Generated_Source\PSoC5/BootloaderI2C.c **** 
 148:.\Generated_Source\PSoC5/BootloaderI2C.c ****             crc = ~crc;
 149:.\Generated_Source\PSoC5/BootloaderI2C.c ****             tmp = crc;
 150:.\Generated_Source\PSoC5/BootloaderI2C.c ****             crc = ( uint16 )(crc << 8u) | (tmp >> 8u);
 151:.\Generated_Source\PSoC5/BootloaderI2C.c ****         }
 152:.\Generated_Source\PSoC5/BootloaderI2C.c **** 
 153:.\Generated_Source\PSoC5/BootloaderI2C.c ****         return(crc);
 154:.\Generated_Source\PSoC5/BootloaderI2C.c **** 
 155:.\Generated_Source\PSoC5/BootloaderI2C.c ****     #else
 156:.\Generated_Source\PSoC5/BootloaderI2C.c **** 
 157:.\Generated_Source\PSoC5/BootloaderI2C.c ****         uint16 CYDATA sum = 0u;
  71              		.loc 1 157 0
ARM GAS  C:\Users\bramamu\AppData\Local\Temp\cczceNxl.s 			page 5


  72 000c 4FF00003 		mov	r3, #0
  73 0010 FB81     		strh	r3, [r7, #14]	@ movhi
 158:.\Generated_Source\PSoC5/BootloaderI2C.c **** 
 159:.\Generated_Source\PSoC5/BootloaderI2C.c ****         while (size > 0u)
  74              		.loc 1 159 0
  75 0012 0DE0     		b	.L2
  76              	.L3:
 160:.\Generated_Source\PSoC5/BootloaderI2C.c ****         {
 161:.\Generated_Source\PSoC5/BootloaderI2C.c ****             sum += buffer[size - 1u];
  77              		.loc 1 161 0
  78 0014 7B88     		ldrh	r3, [r7, #2]
  79 0016 03F1FF33 		add	r3, r3, #-1
  80 001a 7A68     		ldr	r2, [r7, #4]
  81 001c D318     		adds	r3, r2, r3
  82 001e 1B78     		ldrb	r3, [r3, #0]	@ zero_extendqisi2
  83 0020 1A46     		mov	r2, r3
  84 0022 FB89     		ldrh	r3, [r7, #14]	@ movhi
  85 0024 D318     		adds	r3, r2, r3
  86 0026 FB81     		strh	r3, [r7, #14]	@ movhi
 162:.\Generated_Source\PSoC5/BootloaderI2C.c ****             size--;
  87              		.loc 1 162 0
  88 0028 7B88     		ldrh	r3, [r7, #2]	@ movhi
  89 002a 03F1FF33 		add	r3, r3, #-1
  90 002e 7B80     		strh	r3, [r7, #2]	@ movhi
  91              	.L2:
 159:.\Generated_Source\PSoC5/BootloaderI2C.c ****         while (size > 0u)
  92              		.loc 1 159 0 discriminator 1
  93 0030 7B88     		ldrh	r3, [r7, #2]
  94 0032 002B     		cmp	r3, #0
  95 0034 EED1     		bne	.L3
 163:.\Generated_Source\PSoC5/BootloaderI2C.c ****         }
 164:.\Generated_Source\PSoC5/BootloaderI2C.c **** 
 165:.\Generated_Source\PSoC5/BootloaderI2C.c ****         return(( uint16 )1u + ( uint16 )(~sum));
  96              		.loc 1 165 0
  97 0036 FB89     		ldrh	r3, [r7, #14]	@ movhi
  98 0038 C3F10003 		rsb	r3, r3, #0
  99 003c 9BB2     		uxth	r3, r3
 166:.\Generated_Source\PSoC5/BootloaderI2C.c **** 
 167:.\Generated_Source\PSoC5/BootloaderI2C.c ****     #endif /* (0u != BootloaderI2C_PACKET_CHECKSUM_CRC) */
 168:.\Generated_Source\PSoC5/BootloaderI2C.c **** }
 100              		.loc 1 168 0
 101 003e 1846     		mov	r0, r3
 102 0040 07F11407 		add	r7, r7, #20
 103 0044 BD46     		mov	sp, r7
 104 0046 80BC     		pop	{r7}
 105 0048 7047     		bx	lr
 106              		.cfi_endproc
 107              	.LFE56:
 108              		.size	BootloaderI2C_CalcPacketChecksum, .-BootloaderI2C_CalcPacketChecksum
 109 004a 00BF     		.section	.text.BootloaderI2C_Calc8BitFlashSum,"ax",%progbits
 110              		.align	2
 111              		.thumb
 112              		.thumb_func
 113              		.type	BootloaderI2C_Calc8BitFlashSum, %function
 114              	BootloaderI2C_Calc8BitFlashSum:
 115              	.LFB57:
 169:.\Generated_Source\PSoC5/BootloaderI2C.c **** 
ARM GAS  C:\Users\bramamu\AppData\Local\Temp\cczceNxl.s 			page 6


 170:.\Generated_Source\PSoC5/BootloaderI2C.c **** 
 171:.\Generated_Source\PSoC5/BootloaderI2C.c **** /*******************************************************************************
 172:.\Generated_Source\PSoC5/BootloaderI2C.c **** * Function Name: BootloaderI2C_Calc8BitFlashSum
 173:.\Generated_Source\PSoC5/BootloaderI2C.c **** ********************************************************************************
 174:.\Generated_Source\PSoC5/BootloaderI2C.c **** *
 175:.\Generated_Source\PSoC5/BootloaderI2C.c **** * Summary:
 176:.\Generated_Source\PSoC5/BootloaderI2C.c **** *  This computes the 8 bit sum for the provided number of bytes contained in
 177:.\Generated_Source\PSoC5/BootloaderI2C.c **** *  flash.
 178:.\Generated_Source\PSoC5/BootloaderI2C.c **** *
 179:.\Generated_Source\PSoC5/BootloaderI2C.c **** * Parameters:
 180:.\Generated_Source\PSoC5/BootloaderI2C.c **** *  start:
 181:.\Generated_Source\PSoC5/BootloaderI2C.c **** *     The starting address to start summing data for
 182:.\Generated_Source\PSoC5/BootloaderI2C.c **** *  size:
 183:.\Generated_Source\PSoC5/BootloaderI2C.c **** *     The number of bytes to read and compute the sum for
 184:.\Generated_Source\PSoC5/BootloaderI2C.c **** *
 185:.\Generated_Source\PSoC5/BootloaderI2C.c **** * Returns:
 186:.\Generated_Source\PSoC5/BootloaderI2C.c **** *   8 bit sum for the provided data
 187:.\Generated_Source\PSoC5/BootloaderI2C.c **** *
 188:.\Generated_Source\PSoC5/BootloaderI2C.c **** *******************************************************************************/
 189:.\Generated_Source\PSoC5/BootloaderI2C.c **** static uint8 BootloaderI2C_Calc8BitFlashSum(uint32 start, uint32 size) \
 190:.\Generated_Source\PSoC5/BootloaderI2C.c ****                 CYSMALL 
 191:.\Generated_Source\PSoC5/BootloaderI2C.c **** {
 116              		.loc 1 191 0
 117              		.cfi_startproc
 118              		@ args = 0, pretend = 0, frame = 16
 119              		@ frame_needed = 1, uses_anonymous_args = 0
 120              		@ link register save eliminated.
 121 0000 80B4     		push	{r7}
 122              	.LCFI3:
 123              		.cfi_def_cfa_offset 4
 124              		.cfi_offset 7, -4
 125 0002 85B0     		sub	sp, sp, #20
 126              	.LCFI4:
 127              		.cfi_def_cfa_offset 24
 128 0004 00AF     		add	r7, sp, #0
 129              	.LCFI5:
 130              		.cfi_def_cfa_register 7
 131 0006 7860     		str	r0, [r7, #4]
 132 0008 3960     		str	r1, [r7, #0]
 192:.\Generated_Source\PSoC5/BootloaderI2C.c ****     uint8 CYDATA sum = 0u;
 133              		.loc 1 192 0
 134 000a 4FF00003 		mov	r3, #0
 135 000e FB73     		strb	r3, [r7, #15]
 193:.\Generated_Source\PSoC5/BootloaderI2C.c **** 
 194:.\Generated_Source\PSoC5/BootloaderI2C.c ****     while (size > 0u)
 136              		.loc 1 194 0
 137 0010 0AE0     		b	.L6
 138              	.L7:
 195:.\Generated_Source\PSoC5/BootloaderI2C.c ****     {
 196:.\Generated_Source\PSoC5/BootloaderI2C.c ****         size--;
 139              		.loc 1 196 0
 140 0012 3B68     		ldr	r3, [r7, #0]
 141 0014 03F1FF33 		add	r3, r3, #-1
 142 0018 3B60     		str	r3, [r7, #0]
 197:.\Generated_Source\PSoC5/BootloaderI2C.c ****         sum += BootloaderI2C_GET_CODE_BYTE(start + size);
 143              		.loc 1 197 0
 144 001a 7A68     		ldr	r2, [r7, #4]
ARM GAS  C:\Users\bramamu\AppData\Local\Temp\cczceNxl.s 			page 7


 145 001c 3B68     		ldr	r3, [r7, #0]
 146 001e D318     		adds	r3, r2, r3
 147 0020 1A78     		ldrb	r2, [r3, #0]	@ zero_extendqisi2
 148 0022 FB7B     		ldrb	r3, [r7, #15]
 149 0024 D318     		adds	r3, r2, r3
 150 0026 FB73     		strb	r3, [r7, #15]
 151              	.L6:
 194:.\Generated_Source\PSoC5/BootloaderI2C.c ****     while (size > 0u)
 152              		.loc 1 194 0 discriminator 1
 153 0028 3B68     		ldr	r3, [r7, #0]
 154 002a 002B     		cmp	r3, #0
 155 002c F1D1     		bne	.L7
 198:.\Generated_Source\PSoC5/BootloaderI2C.c ****     }
 199:.\Generated_Source\PSoC5/BootloaderI2C.c **** 
 200:.\Generated_Source\PSoC5/BootloaderI2C.c ****     return(sum);
 156              		.loc 1 200 0
 157 002e FB7B     		ldrb	r3, [r7, #15]	@ zero_extendqisi2
 201:.\Generated_Source\PSoC5/BootloaderI2C.c **** }
 158              		.loc 1 201 0
 159 0030 1846     		mov	r0, r3
 160 0032 07F11407 		add	r7, r7, #20
 161 0036 BD46     		mov	sp, r7
 162 0038 80BC     		pop	{r7}
 163 003a 7047     		bx	lr
 164              		.cfi_endproc
 165              	.LFE57:
 166              		.size	BootloaderI2C_Calc8BitFlashSum, .-BootloaderI2C_Calc8BitFlashSum
 167              		.section	.text.BootloaderI2C_Calc8BitEepromSum,"ax",%progbits
 168              		.align	2
 169              		.thumb
 170              		.thumb_func
 171              		.type	BootloaderI2C_Calc8BitEepromSum, %function
 172              	BootloaderI2C_Calc8BitEepromSum:
 173              	.LFB58:
 202:.\Generated_Source\PSoC5/BootloaderI2C.c **** 
 203:.\Generated_Source\PSoC5/BootloaderI2C.c **** 
 204:.\Generated_Source\PSoC5/BootloaderI2C.c **** #if(!CY_PSOC4)
 205:.\Generated_Source\PSoC5/BootloaderI2C.c **** 
 206:.\Generated_Source\PSoC5/BootloaderI2C.c ****     /*******************************************************************************
 207:.\Generated_Source\PSoC5/BootloaderI2C.c ****     * Function Name: BootloaderI2C_Calc8BitEepromSum
 208:.\Generated_Source\PSoC5/BootloaderI2C.c ****     ********************************************************************************
 209:.\Generated_Source\PSoC5/BootloaderI2C.c ****     *
 210:.\Generated_Source\PSoC5/BootloaderI2C.c ****     * Summary:
 211:.\Generated_Source\PSoC5/BootloaderI2C.c ****     *  This computes the 8 bit sum for the provided number of bytes contained in
 212:.\Generated_Source\PSoC5/BootloaderI2C.c ****     *  EEPROM.
 213:.\Generated_Source\PSoC5/BootloaderI2C.c ****     *
 214:.\Generated_Source\PSoC5/BootloaderI2C.c ****     * Parameters:
 215:.\Generated_Source\PSoC5/BootloaderI2C.c ****     *  start:
 216:.\Generated_Source\PSoC5/BootloaderI2C.c ****     *     The starting address to start summing data for
 217:.\Generated_Source\PSoC5/BootloaderI2C.c ****     *  size:
 218:.\Generated_Source\PSoC5/BootloaderI2C.c ****     *     The number of bytes to read and compute the sum for
 219:.\Generated_Source\PSoC5/BootloaderI2C.c ****     *
 220:.\Generated_Source\PSoC5/BootloaderI2C.c ****     * Returns:
 221:.\Generated_Source\PSoC5/BootloaderI2C.c ****     *   8 bit sum for the provided data
 222:.\Generated_Source\PSoC5/BootloaderI2C.c ****     *
 223:.\Generated_Source\PSoC5/BootloaderI2C.c ****     *******************************************************************************/
 224:.\Generated_Source\PSoC5/BootloaderI2C.c ****     static uint8 BootloaderI2C_Calc8BitEepromSum(uint32 start, uint32 size) \
ARM GAS  C:\Users\bramamu\AppData\Local\Temp\cczceNxl.s 			page 8


 225:.\Generated_Source\PSoC5/BootloaderI2C.c ****                     CYSMALL 
 226:.\Generated_Source\PSoC5/BootloaderI2C.c ****     {
 174              		.loc 1 226 0
 175              		.cfi_startproc
 176              		@ args = 0, pretend = 0, frame = 16
 177              		@ frame_needed = 1, uses_anonymous_args = 0
 178              		@ link register save eliminated.
 179 0000 80B4     		push	{r7}
 180              	.LCFI6:
 181              		.cfi_def_cfa_offset 4
 182              		.cfi_offset 7, -4
 183 0002 85B0     		sub	sp, sp, #20
 184              	.LCFI7:
 185              		.cfi_def_cfa_offset 24
 186 0004 00AF     		add	r7, sp, #0
 187              	.LCFI8:
 188              		.cfi_def_cfa_register 7
 189 0006 7860     		str	r0, [r7, #4]
 190 0008 3960     		str	r1, [r7, #0]
 227:.\Generated_Source\PSoC5/BootloaderI2C.c ****         uint8 CYDATA sum = 0u;
 191              		.loc 1 227 0
 192 000a 4FF00003 		mov	r3, #0
 193 000e FB73     		strb	r3, [r7, #15]
 228:.\Generated_Source\PSoC5/BootloaderI2C.c **** 
 229:.\Generated_Source\PSoC5/BootloaderI2C.c ****         while (size > 0u)
 194              		.loc 1 229 0
 195 0010 0EE0     		b	.L10
 196              	.L11:
 230:.\Generated_Source\PSoC5/BootloaderI2C.c ****         {
 231:.\Generated_Source\PSoC5/BootloaderI2C.c ****             size--;
 197              		.loc 1 231 0
 198 0012 3B68     		ldr	r3, [r7, #0]
 199 0014 03F1FF33 		add	r3, r3, #-1
 200 0018 3B60     		str	r3, [r7, #0]
 232:.\Generated_Source\PSoC5/BootloaderI2C.c ****             sum += BootloaderI2C_GET_EEPROM_BYTE(start + size);
 201              		.loc 1 232 0
 202 001a 7A68     		ldr	r2, [r7, #4]
 203 001c 3B68     		ldr	r3, [r7, #0]
 204 001e D318     		adds	r3, r2, r3
 205 0020 03F18043 		add	r3, r3, #1073741824
 206 0024 03F50043 		add	r3, r3, #32768
 207 0028 1A78     		ldrb	r2, [r3, #0]	@ zero_extendqisi2
 208 002a FB7B     		ldrb	r3, [r7, #15]
 209 002c D318     		adds	r3, r2, r3
 210 002e FB73     		strb	r3, [r7, #15]
 211              	.L10:
 229:.\Generated_Source\PSoC5/BootloaderI2C.c ****         while (size > 0u)
 212              		.loc 1 229 0 discriminator 1
 213 0030 3B68     		ldr	r3, [r7, #0]
 214 0032 002B     		cmp	r3, #0
 215 0034 EDD1     		bne	.L11
 233:.\Generated_Source\PSoC5/BootloaderI2C.c ****         }
 234:.\Generated_Source\PSoC5/BootloaderI2C.c **** 
 235:.\Generated_Source\PSoC5/BootloaderI2C.c ****         return(sum);
 216              		.loc 1 235 0
 217 0036 FB7B     		ldrb	r3, [r7, #15]	@ zero_extendqisi2
 236:.\Generated_Source\PSoC5/BootloaderI2C.c ****     }
ARM GAS  C:\Users\bramamu\AppData\Local\Temp\cczceNxl.s 			page 9


 218              		.loc 1 236 0
 219 0038 1846     		mov	r0, r3
 220 003a 07F11407 		add	r7, r7, #20
 221 003e BD46     		mov	sp, r7
 222 0040 80BC     		pop	{r7}
 223 0042 7047     		bx	lr
 224              		.cfi_endproc
 225              	.LFE58:
 226              		.size	BootloaderI2C_Calc8BitEepromSum, .-BootloaderI2C_Calc8BitEepromSum
 227              		.section	.text.BootloaderI2C_Start,"ax",%progbits
 228              		.align	2
 229              		.global	BootloaderI2C_Start
 230              		.thumb
 231              		.thumb_func
 232              		.type	BootloaderI2C_Start, %function
 233              	BootloaderI2C_Start:
 234              	.LFB59:
 237:.\Generated_Source\PSoC5/BootloaderI2C.c **** 
 238:.\Generated_Source\PSoC5/BootloaderI2C.c **** #endif  /* (!CY_PSOC4) */
 239:.\Generated_Source\PSoC5/BootloaderI2C.c **** 
 240:.\Generated_Source\PSoC5/BootloaderI2C.c **** 
 241:.\Generated_Source\PSoC5/BootloaderI2C.c **** /*******************************************************************************
 242:.\Generated_Source\PSoC5/BootloaderI2C.c **** * Function Name: BootloaderI2C_Start
 243:.\Generated_Source\PSoC5/BootloaderI2C.c **** ********************************************************************************
 244:.\Generated_Source\PSoC5/BootloaderI2C.c **** * Summary:
 245:.\Generated_Source\PSoC5/BootloaderI2C.c **** *  This function is called in order executing following algorithm:
 246:.\Generated_Source\PSoC5/BootloaderI2C.c **** *
 247:.\Generated_Source\PSoC5/BootloaderI2C.c **** *  - Identify active bootloadable application (applicable only to
 248:.\Generated_Source\PSoC5/BootloaderI2C.c **** *    Multi-application bootloader)
 249:.\Generated_Source\PSoC5/BootloaderI2C.c **** *
 250:.\Generated_Source\PSoC5/BootloaderI2C.c **** *  - Validate bootloader application (desing-time configurable, Bootloader
 251:.\Generated_Source\PSoC5/BootloaderI2C.c **** *    application validation option of the component customizer)
 252:.\Generated_Source\PSoC5/BootloaderI2C.c **** *
 253:.\Generated_Source\PSoC5/BootloaderI2C.c **** *  - Validate active bootloadable application
 254:.\Generated_Source\PSoC5/BootloaderI2C.c **** *
 255:.\Generated_Source\PSoC5/BootloaderI2C.c **** *  - Run communication subroutine (desing-time configurable, Wait for command
 256:.\Generated_Source\PSoC5/BootloaderI2C.c **** *    option of the component customizer)
 257:.\Generated_Source\PSoC5/BootloaderI2C.c **** *
 258:.\Generated_Source\PSoC5/BootloaderI2C.c **** *  - Schedule bootloadable and reset device
 259:.\Generated_Source\PSoC5/BootloaderI2C.c **** *
 260:.\Generated_Source\PSoC5/BootloaderI2C.c **** * Parameters:
 261:.\Generated_Source\PSoC5/BootloaderI2C.c **** *  None
 262:.\Generated_Source\PSoC5/BootloaderI2C.c **** *
 263:.\Generated_Source\PSoC5/BootloaderI2C.c **** * Return:
 264:.\Generated_Source\PSoC5/BootloaderI2C.c **** *  This method will never return. It will either load a new application and
 265:.\Generated_Source\PSoC5/BootloaderI2C.c **** *  reset the device or it will jump directly to the existing application.
 266:.\Generated_Source\PSoC5/BootloaderI2C.c **** *
 267:.\Generated_Source\PSoC5/BootloaderI2C.c **** * Side Effects:
 268:.\Generated_Source\PSoC5/BootloaderI2C.c **** *  If this method determines that the bootloader appliation itself is corrupt,
 269:.\Generated_Source\PSoC5/BootloaderI2C.c **** *  this method will not return, instead it will simply hang the application.
 270:.\Generated_Source\PSoC5/BootloaderI2C.c **** *
 271:.\Generated_Source\PSoC5/BootloaderI2C.c **** *******************************************************************************/
 272:.\Generated_Source\PSoC5/BootloaderI2C.c **** void BootloaderI2C_Start(void) CYSMALL 
 273:.\Generated_Source\PSoC5/BootloaderI2C.c **** {
 235              		.loc 1 273 0
 236              		.cfi_startproc
 237              		@ args = 0, pretend = 0, frame = 296
ARM GAS  C:\Users\bramamu\AppData\Local\Temp\cczceNxl.s 			page 10


 238              		@ frame_needed = 1, uses_anonymous_args = 0
 239 0000 80B5     		push	{r7, lr}
 240              	.LCFI9:
 241              		.cfi_def_cfa_offset 8
 242              		.cfi_offset 7, -8
 243              		.cfi_offset 14, -4
 244 0002 CAB0     		sub	sp, sp, #296
 245              	.LCFI10:
 246              		.cfi_def_cfa_offset 304
 247 0004 00AF     		add	r7, sp, #0
 248              	.LCFI11:
 249              		.cfi_def_cfa_register 7
 274:.\Generated_Source\PSoC5/BootloaderI2C.c ****     #if(0u != BootloaderI2C_BOOTLOADER_APP_VALIDATION)
 275:.\Generated_Source\PSoC5/BootloaderI2C.c ****         uint8 CYDATA calcedChecksum;
 276:.\Generated_Source\PSoC5/BootloaderI2C.c ****     #endif    /* (0u != BootloaderI2C_BOOTLOADER_APP_VALIDATION) */
 277:.\Generated_Source\PSoC5/BootloaderI2C.c **** 
 278:.\Generated_Source\PSoC5/BootloaderI2C.c ****     #if(!CY_PSOC4)
 279:.\Generated_Source\PSoC5/BootloaderI2C.c ****         uint8 CYXDATA BootloaderI2C_flashBuffer[BootloaderI2C_FROW_SIZE];
 280:.\Generated_Source\PSoC5/BootloaderI2C.c ****     #endif  /* (!CY_PSOC4) */
 281:.\Generated_Source\PSoC5/BootloaderI2C.c **** 
 282:.\Generated_Source\PSoC5/BootloaderI2C.c ****     cystatus tmpStatus;
 283:.\Generated_Source\PSoC5/BootloaderI2C.c **** 
 284:.\Generated_Source\PSoC5/BootloaderI2C.c **** 
 285:.\Generated_Source\PSoC5/BootloaderI2C.c ****     /* Identify active bootloadable application */
 286:.\Generated_Source\PSoC5/BootloaderI2C.c ****     #if(0u != BootloaderI2C_DUAL_APP_BOOTLOADER)
 287:.\Generated_Source\PSoC5/BootloaderI2C.c **** 
 288:.\Generated_Source\PSoC5/BootloaderI2C.c ****         if(BootloaderI2C_MD_BTLDB_ACTIVE_VALUE(0u) == BootloaderI2C_MD_BTLDB_IS_ACTIVE)
 289:.\Generated_Source\PSoC5/BootloaderI2C.c ****         {
 290:.\Generated_Source\PSoC5/BootloaderI2C.c ****             BootloaderI2C_activeApp = BootloaderI2C_MD_BTLDB_ACTIVE_0;
 291:.\Generated_Source\PSoC5/BootloaderI2C.c ****         }
 292:.\Generated_Source\PSoC5/BootloaderI2C.c ****         else if (BootloaderI2C_MD_BTLDB_ACTIVE_VALUE(1u) == BootloaderI2C_MD_BTLDB_IS_ACTIVE)
 293:.\Generated_Source\PSoC5/BootloaderI2C.c ****         {
 294:.\Generated_Source\PSoC5/BootloaderI2C.c ****             BootloaderI2C_activeApp = BootloaderI2C_MD_BTLDB_ACTIVE_1;
 295:.\Generated_Source\PSoC5/BootloaderI2C.c ****         }
 296:.\Generated_Source\PSoC5/BootloaderI2C.c ****         else
 297:.\Generated_Source\PSoC5/BootloaderI2C.c ****         {
 298:.\Generated_Source\PSoC5/BootloaderI2C.c ****             BootloaderI2C_activeApp = BootloaderI2C_MD_BTLDB_ACTIVE_NONE;
 299:.\Generated_Source\PSoC5/BootloaderI2C.c ****         }
 300:.\Generated_Source\PSoC5/BootloaderI2C.c **** 
 301:.\Generated_Source\PSoC5/BootloaderI2C.c ****     #endif  /* (0u != BootloaderI2C_DUAL_APP_BOOTLOADER) */
 302:.\Generated_Source\PSoC5/BootloaderI2C.c **** 
 303:.\Generated_Source\PSoC5/BootloaderI2C.c **** 
 304:.\Generated_Source\PSoC5/BootloaderI2C.c ****     /* Initialize Flash subsystem for non-PSoC 4 devices */
 305:.\Generated_Source\PSoC5/BootloaderI2C.c ****     #if(!CY_PSOC4)
 306:.\Generated_Source\PSoC5/BootloaderI2C.c ****         if (CYRET_SUCCESS != CySetTemp())
 250              		.loc 1 306 0
 251 0006 FFF7FEFF 		bl	CySetTemp
 252 000a 0346     		mov	r3, r0
 253 000c 002B     		cmp	r3, #0
 254 000e 03D0     		beq	.L14
 307:.\Generated_Source\PSoC5/BootloaderI2C.c ****         {
 308:.\Generated_Source\PSoC5/BootloaderI2C.c ****             CyHalt(0x00u);
 255              		.loc 1 308 0
 256 0010 4FF00000 		mov	r0, #0
 257 0014 FFF7FEFF 		bl	CyHalt
 258              	.L14:
 309:.\Generated_Source\PSoC5/BootloaderI2C.c ****         }
ARM GAS  C:\Users\bramamu\AppData\Local\Temp\cczceNxl.s 			page 11


 310:.\Generated_Source\PSoC5/BootloaderI2C.c **** 
 311:.\Generated_Source\PSoC5/BootloaderI2C.c ****         if (CYRET_SUCCESS != CySetFlashEEBuffer(BootloaderI2C_flashBuffer))
 259              		.loc 1 311 0
 260 0018 3B46     		mov	r3, r7
 261 001a 1846     		mov	r0, r3
 262 001c FFF7FEFF 		bl	CySetFlashEEBuffer
 263 0020 0346     		mov	r3, r0
 264 0022 002B     		cmp	r3, #0
 265 0024 03D0     		beq	.L15
 312:.\Generated_Source\PSoC5/BootloaderI2C.c ****         {
 313:.\Generated_Source\PSoC5/BootloaderI2C.c ****             CyHalt(0x00u);
 266              		.loc 1 313 0
 267 0026 4FF00000 		mov	r0, #0
 268 002a FFF7FEFF 		bl	CyHalt
 269              	.L15:
 314:.\Generated_Source\PSoC5/BootloaderI2C.c ****         }
 315:.\Generated_Source\PSoC5/BootloaderI2C.c ****     #endif  /* (CY_PSOC4) */
 316:.\Generated_Source\PSoC5/BootloaderI2C.c **** 
 317:.\Generated_Source\PSoC5/BootloaderI2C.c **** 
 318:.\Generated_Source\PSoC5/BootloaderI2C.c ****     /***********************************************************************
 319:.\Generated_Source\PSoC5/BootloaderI2C.c ****     * Bootloader Application Validation
 320:.\Generated_Source\PSoC5/BootloaderI2C.c ****     *
 321:.\Generated_Source\PSoC5/BootloaderI2C.c ****     * Halt device if:
 322:.\Generated_Source\PSoC5/BootloaderI2C.c ****     *  - Calculated checksum does not much one stored in metadata section
 323:.\Generated_Source\PSoC5/BootloaderI2C.c ****     *  - Invalid pointer to the place where bootloader application ends
 324:.\Generated_Source\PSoC5/BootloaderI2C.c ****     *  - Flash subsystem where not initialized correctly
 325:.\Generated_Source\PSoC5/BootloaderI2C.c ****     ***********************************************************************/
 326:.\Generated_Source\PSoC5/BootloaderI2C.c ****     #if(0u != BootloaderI2C_BOOTLOADER_APP_VALIDATION)
 327:.\Generated_Source\PSoC5/BootloaderI2C.c **** 
 328:.\Generated_Source\PSoC5/BootloaderI2C.c ****         /* Calculate Bootloader application checksum */
 329:.\Generated_Source\PSoC5/BootloaderI2C.c ****         calcedChecksum = BootloaderI2C_Calc8BitFlashSum(BootloaderI2C_MD_BTLDR_ADDR_PTR,
 270              		.loc 1 329 0
 271 002e 40F20003 		movw	r3, #:lower16:BootloaderI2C_SizeBytesAccess
 272 0032 C0F20003 		movt	r3, #:upper16:BootloaderI2C_SizeBytesAccess
 273 0036 1B68     		ldr	r3, [r3, #0]
 274 0038 1B68     		ldr	r3, [r3, #0]
 275 003a 4FF00000 		mov	r0, #0
 276 003e 1946     		mov	r1, r3
 277 0040 FFF7FEFF 		bl	BootloaderI2C_Calc8BitFlashSum
 278 0044 0346     		mov	r3, r0
 279 0046 87F82731 		strb	r3, [r7, #295]
 330:.\Generated_Source\PSoC5/BootloaderI2C.c ****                 *BootloaderI2C_SizeBytesAccess - BootloaderI2C_MD_BTLDR_ADDR_PTR);
 331:.\Generated_Source\PSoC5/BootloaderI2C.c **** 
 332:.\Generated_Source\PSoC5/BootloaderI2C.c ****         /* we actually included the checksum, so remove it */
 333:.\Generated_Source\PSoC5/BootloaderI2C.c ****         calcedChecksum -= *BootloaderI2C_ChecksumAccess;
 280              		.loc 1 333 0
 281 004a 40F20003 		movw	r3, #:lower16:BootloaderI2C_ChecksumAccess
 282 004e C0F20003 		movt	r3, #:upper16:BootloaderI2C_ChecksumAccess
 283 0052 1B68     		ldr	r3, [r3, #0]
 284 0054 1B78     		ldrb	r3, [r3, #0]	@ zero_extendqisi2
 285 0056 97F82721 		ldrb	r2, [r7, #295]
 286 005a D31A     		subs	r3, r2, r3
 287 005c 87F82731 		strb	r3, [r7, #295]
 334:.\Generated_Source\PSoC5/BootloaderI2C.c ****         calcedChecksum = ( uint8 )1u + ( uint8 )(~calcedChecksum);
 288              		.loc 1 334 0
 289 0060 97F82731 		ldrb	r3, [r7, #295]
 290 0064 C3F10003 		rsb	r3, r3, #0
ARM GAS  C:\Users\bramamu\AppData\Local\Temp\cczceNxl.s 			page 12


 291 0068 87F82731 		strb	r3, [r7, #295]
 335:.\Generated_Source\PSoC5/BootloaderI2C.c **** 
 336:.\Generated_Source\PSoC5/BootloaderI2C.c ****         /* Checksum and pointer to bootloader verification */
 337:.\Generated_Source\PSoC5/BootloaderI2C.c ****         if((calcedChecksum != *BootloaderI2C_ChecksumAccess) ||
 292              		.loc 1 337 0
 293 006c 40F20003 		movw	r3, #:lower16:BootloaderI2C_ChecksumAccess
 294 0070 C0F20003 		movt	r3, #:upper16:BootloaderI2C_ChecksumAccess
 295 0074 1B68     		ldr	r3, [r3, #0]
 296 0076 1B78     		ldrb	r3, [r3, #0]	@ zero_extendqisi2
 297 0078 97F82721 		ldrb	r2, [r7, #295]	@ zero_extendqisi2
 298 007c 9A42     		cmp	r2, r3
 299 007e 07D1     		bne	.L16
 338:.\Generated_Source\PSoC5/BootloaderI2C.c ****            (0u == *BootloaderI2C_SizeBytesAccess))
 300              		.loc 1 338 0 discriminator 1
 301 0080 40F20003 		movw	r3, #:lower16:BootloaderI2C_SizeBytesAccess
 302 0084 C0F20003 		movt	r3, #:upper16:BootloaderI2C_SizeBytesAccess
 303 0088 1B68     		ldr	r3, [r3, #0]
 304 008a 1B68     		ldr	r3, [r3, #0]
 337:.\Generated_Source\PSoC5/BootloaderI2C.c ****         if((calcedChecksum != *BootloaderI2C_ChecksumAccess) ||
 305              		.loc 1 337 0 discriminator 1
 306 008c 002B     		cmp	r3, #0
 307 008e 03D1     		bne	.L17
 308              	.L16:
 339:.\Generated_Source\PSoC5/BootloaderI2C.c ****         {
 340:.\Generated_Source\PSoC5/BootloaderI2C.c ****             CyHalt(0x00u);
 309              		.loc 1 340 0
 310 0090 4FF00000 		mov	r0, #0
 311 0094 FFF7FEFF 		bl	CyHalt
 312              	.L17:
 341:.\Generated_Source\PSoC5/BootloaderI2C.c ****         }
 342:.\Generated_Source\PSoC5/BootloaderI2C.c **** 
 343:.\Generated_Source\PSoC5/BootloaderI2C.c ****     #endif  /* (0u != BootloaderI2C_BOOTLOADER_APP_VALIDATION) */
 344:.\Generated_Source\PSoC5/BootloaderI2C.c **** 
 345:.\Generated_Source\PSoC5/BootloaderI2C.c **** 
 346:.\Generated_Source\PSoC5/BootloaderI2C.c ****     /***********************************************************************
 347:.\Generated_Source\PSoC5/BootloaderI2C.c ****     * Active Bootloadable Application Validation
 348:.\Generated_Source\PSoC5/BootloaderI2C.c ****     *
 349:.\Generated_Source\PSoC5/BootloaderI2C.c ****     * If active bootloadable application is invalid or bootloader
 350:.\Generated_Source\PSoC5/BootloaderI2C.c ****     * application is scheduled - do the following:
 351:.\Generated_Source\PSoC5/BootloaderI2C.c ****     *  - schedule bootloader application to be run after software reset
 352:.\Generated_Source\PSoC5/BootloaderI2C.c ****     *  - Go to the communication subroutine. Will wait for commands forever
 353:.\Generated_Source\PSoC5/BootloaderI2C.c ****     ***********************************************************************/
 354:.\Generated_Source\PSoC5/BootloaderI2C.c ****     tmpStatus = BootloaderI2C_ValidateBootloadable(BootloaderI2C_activeApp);
 313              		.loc 1 354 0
 314 0098 4FF00000 		mov	r0, #0
 315 009c FFF7FEFF 		bl	BootloaderI2C_ValidateBootloadable
 316 00a0 C7F82001 		str	r0, [r7, #288]
 355:.\Generated_Source\PSoC5/BootloaderI2C.c **** 
 356:.\Generated_Source\PSoC5/BootloaderI2C.c ****     if ((BootloaderI2C_GET_RUN_TYPE == BootloaderI2C_START_BTLDR) ||
 317              		.loc 1 356 0
 318 00a4 44F2FA63 		movw	r3, #18170
 319 00a8 C4F20003 		movt	r3, 16384
 320 00ac 1B78     		ldrb	r3, [r3, #0]
 321 00ae DBB2     		uxtb	r3, r3
 322 00b0 03F0C003 		and	r3, r3, #192
 323 00b4 402B     		cmp	r3, #64
 324 00b6 03D0     		beq	.L18
ARM GAS  C:\Users\bramamu\AppData\Local\Temp\cczceNxl.s 			page 13


 325              		.loc 1 356 0 is_stmt 0 discriminator 1
 326 00b8 D7F82031 		ldr	r3, [r7, #288]
 327 00bc 002B     		cmp	r3, #0
 328 00be 0AD0     		beq	.L19
 329              	.L18:
 357:.\Generated_Source\PSoC5/BootloaderI2C.c ****         (CYRET_SUCCESS != tmpStatus))
 358:.\Generated_Source\PSoC5/BootloaderI2C.c ****     {
 359:.\Generated_Source\PSoC5/BootloaderI2C.c ****         BootloaderI2C_SET_RUN_TYPE(0u);
 330              		.loc 1 359 0 is_stmt 1
 331 00c0 44F2FA63 		movw	r3, #18170
 332 00c4 C4F20003 		movt	r3, 16384
 333 00c8 4FF00002 		mov	r2, #0
 334 00cc 1A70     		strb	r2, [r3, #0]
 360:.\Generated_Source\PSoC5/BootloaderI2C.c **** 
 361:.\Generated_Source\PSoC5/BootloaderI2C.c ****         BootloaderI2C_HostLink(BootloaderI2C_WAIT_FOR_COMMAND_FOREVER);
 335              		.loc 1 361 0
 336 00ce 4FF00000 		mov	r0, #0
 337 00d2 FFF7FEFF 		bl	BootloaderI2C_HostLink
 338              	.L19:
 362:.\Generated_Source\PSoC5/BootloaderI2C.c ****     }
 363:.\Generated_Source\PSoC5/BootloaderI2C.c **** 
 364:.\Generated_Source\PSoC5/BootloaderI2C.c **** 
 365:.\Generated_Source\PSoC5/BootloaderI2C.c ****     /* Go to the communication subroutine. Will wait for commands specifed time */
 366:.\Generated_Source\PSoC5/BootloaderI2C.c ****     #if(0u != BootloaderI2C_WAIT_FOR_COMMAND)
 367:.\Generated_Source\PSoC5/BootloaderI2C.c **** 
 368:.\Generated_Source\PSoC5/BootloaderI2C.c ****         /* Timeout is in 100s of miliseconds */
 369:.\Generated_Source\PSoC5/BootloaderI2C.c ****         BootloaderI2C_HostLink(BootloaderI2C_WAIT_FOR_COMMAND_TIME);
 339              		.loc 1 369 0
 340 00d6 4FF01400 		mov	r0, #20
 341 00da FFF7FEFF 		bl	BootloaderI2C_HostLink
 370:.\Generated_Source\PSoC5/BootloaderI2C.c **** 
 371:.\Generated_Source\PSoC5/BootloaderI2C.c ****     #endif  /* (0u != BootloaderI2C_WAIT_FOR_COMMAND) */
 372:.\Generated_Source\PSoC5/BootloaderI2C.c **** 
 373:.\Generated_Source\PSoC5/BootloaderI2C.c **** 
 374:.\Generated_Source\PSoC5/BootloaderI2C.c ****     /* Schedule bootloadable application and perform software reset */
 375:.\Generated_Source\PSoC5/BootloaderI2C.c ****     BootloaderI2C_LaunchApplication();
 342              		.loc 1 375 0
 343 00de FFF7FEFF 		bl	BootloaderI2C_LaunchApplication
 376:.\Generated_Source\PSoC5/BootloaderI2C.c **** }
 344              		.loc 1 376 0
 345 00e2 07F59477 		add	r7, r7, #296
 346 00e6 BD46     		mov	sp, r7
 347 00e8 80BD     		pop	{r7, pc}
 348              		.cfi_endproc
 349              	.LFE59:
 350              		.size	BootloaderI2C_Start, .-BootloaderI2C_Start
 351 00ea 00BF     		.section	.text.BootloaderI2C_LaunchApplication,"ax",%progbits
 352              		.align	2
 353              		.thumb
 354              		.thumb_func
 355              		.type	BootloaderI2C_LaunchApplication, %function
 356              	BootloaderI2C_LaunchApplication:
 357              	.LFB60:
 377:.\Generated_Source\PSoC5/BootloaderI2C.c **** 
 378:.\Generated_Source\PSoC5/BootloaderI2C.c **** 
 379:.\Generated_Source\PSoC5/BootloaderI2C.c **** /*******************************************************************************
 380:.\Generated_Source\PSoC5/BootloaderI2C.c **** * Function Name: BootloaderI2C_LaunchApplication
ARM GAS  C:\Users\bramamu\AppData\Local\Temp\cczceNxl.s 			page 14


 381:.\Generated_Source\PSoC5/BootloaderI2C.c **** ********************************************************************************
 382:.\Generated_Source\PSoC5/BootloaderI2C.c **** *
 383:.\Generated_Source\PSoC5/BootloaderI2C.c **** * Summary:
 384:.\Generated_Source\PSoC5/BootloaderI2C.c **** *  Jumps the PC to the start address of the user application in flash.
 385:.\Generated_Source\PSoC5/BootloaderI2C.c **** *
 386:.\Generated_Source\PSoC5/BootloaderI2C.c **** * Parameters:
 387:.\Generated_Source\PSoC5/BootloaderI2C.c **** *  None
 388:.\Generated_Source\PSoC5/BootloaderI2C.c **** *
 389:.\Generated_Source\PSoC5/BootloaderI2C.c **** * Returns:
 390:.\Generated_Source\PSoC5/BootloaderI2C.c **** *  This method will never return if it succesfully goes to the user application.
 391:.\Generated_Source\PSoC5/BootloaderI2C.c **** *
 392:.\Generated_Source\PSoC5/BootloaderI2C.c **** *******************************************************************************/
 393:.\Generated_Source\PSoC5/BootloaderI2C.c **** static void BootloaderI2C_LaunchApplication(void) CYSMALL 
 394:.\Generated_Source\PSoC5/BootloaderI2C.c **** {
 358              		.loc 1 394 0
 359              		.cfi_startproc
 360              		@ args = 0, pretend = 0, frame = 0
 361              		@ frame_needed = 1, uses_anonymous_args = 0
 362 0000 80B5     		push	{r7, lr}
 363              	.LCFI12:
 364              		.cfi_def_cfa_offset 8
 365              		.cfi_offset 7, -8
 366              		.cfi_offset 14, -4
 367 0002 00AF     		add	r7, sp, #0
 368              	.LCFI13:
 369              		.cfi_def_cfa_register 7
 395:.\Generated_Source\PSoC5/BootloaderI2C.c ****     /* Schedule Bootloadable to start after reset */
 396:.\Generated_Source\PSoC5/BootloaderI2C.c ****     BootloaderI2C_SET_RUN_TYPE(BootloaderI2C_START_APP);
 370              		.loc 1 396 0
 371 0004 44F2FA63 		movw	r3, #18170
 372 0008 C4F20003 		movt	r3, 16384
 373 000c 4FF08002 		mov	r2, #128
 374 0010 1A70     		strb	r2, [r3, #0]
 397:.\Generated_Source\PSoC5/BootloaderI2C.c **** 
 398:.\Generated_Source\PSoC5/BootloaderI2C.c ****     CySoftwareReset();
 375              		.loc 1 398 0
 376 0012 FFF7FEFF 		bl	CySoftwareReset
 399:.\Generated_Source\PSoC5/BootloaderI2C.c **** }
 377              		.loc 1 399 0
 378 0016 80BD     		pop	{r7, pc}
 379              		.cfi_endproc
 380              	.LFE60:
 381              		.size	BootloaderI2C_LaunchApplication, .-BootloaderI2C_LaunchApplication
 382              		.section	.text.CyBtldr_CheckLaunch,"ax",%progbits
 383              		.align	2
 384              		.global	CyBtldr_CheckLaunch
 385              		.thumb
 386              		.thumb_func
 387              		.type	CyBtldr_CheckLaunch, %function
 388              	CyBtldr_CheckLaunch:
 389              	.LFB61:
 400:.\Generated_Source\PSoC5/BootloaderI2C.c **** 
 401:.\Generated_Source\PSoC5/BootloaderI2C.c **** 
 402:.\Generated_Source\PSoC5/BootloaderI2C.c **** /*******************************************************************************
 403:.\Generated_Source\PSoC5/BootloaderI2C.c **** * Function Name: CyBtldr_CheckLaunch
 404:.\Generated_Source\PSoC5/BootloaderI2C.c **** ********************************************************************************
 405:.\Generated_Source\PSoC5/BootloaderI2C.c **** *
ARM GAS  C:\Users\bramamu\AppData\Local\Temp\cczceNxl.s 			page 15


 406:.\Generated_Source\PSoC5/BootloaderI2C.c **** * Summary:
 407:.\Generated_Source\PSoC5/BootloaderI2C.c **** *  This routine checks to see if the bootloader or the bootloadable application
 408:.\Generated_Source\PSoC5/BootloaderI2C.c **** *  should be run.  If the application is to be run, it will start executing.
 409:.\Generated_Source\PSoC5/BootloaderI2C.c **** *  If the bootloader is to be run, it will return so the bootloader can
 410:.\Generated_Source\PSoC5/BootloaderI2C.c **** *  continue starting up.
 411:.\Generated_Source\PSoC5/BootloaderI2C.c **** *
 412:.\Generated_Source\PSoC5/BootloaderI2C.c **** * Parameters:
 413:.\Generated_Source\PSoC5/BootloaderI2C.c **** *  None
 414:.\Generated_Source\PSoC5/BootloaderI2C.c **** *
 415:.\Generated_Source\PSoC5/BootloaderI2C.c **** * Returns:
 416:.\Generated_Source\PSoC5/BootloaderI2C.c **** *  None
 417:.\Generated_Source\PSoC5/BootloaderI2C.c **** *
 418:.\Generated_Source\PSoC5/BootloaderI2C.c **** *******************************************************************************/
 419:.\Generated_Source\PSoC5/BootloaderI2C.c **** void CyBtldr_CheckLaunch(void) CYSMALL 
 420:.\Generated_Source\PSoC5/BootloaderI2C.c **** {
 390              		.loc 1 420 0
 391              		.cfi_startproc
 392              		@ args = 0, pretend = 0, frame = 0
 393              		@ frame_needed = 1, uses_anonymous_args = 0
 394 0000 80B5     		push	{r7, lr}
 395              	.LCFI14:
 396              		.cfi_def_cfa_offset 8
 397              		.cfi_offset 7, -8
 398              		.cfi_offset 14, -4
 399 0002 00AF     		add	r7, sp, #0
 400              	.LCFI15:
 401              		.cfi_def_cfa_register 7
 421:.\Generated_Source\PSoC5/BootloaderI2C.c **** 
 422:.\Generated_Source\PSoC5/BootloaderI2C.c **** #if(CY_PSOC4)
 423:.\Generated_Source\PSoC5/BootloaderI2C.c **** 
 424:.\Generated_Source\PSoC5/BootloaderI2C.c ****     /*******************************************************************************
 425:.\Generated_Source\PSoC5/BootloaderI2C.c ****     * Set cyBtldrRunType to zero in case of non-software reset occured. This means
 426:.\Generated_Source\PSoC5/BootloaderI2C.c ****     * that bootloader application is scheduled - that is initial clean state. The
 427:.\Generated_Source\PSoC5/BootloaderI2C.c ****     * value of cyBtldrRunType is valid only in case of software reset.
 428:.\Generated_Source\PSoC5/BootloaderI2C.c ****     *******************************************************************************/
 429:.\Generated_Source\PSoC5/BootloaderI2C.c ****     if (0u == (BootloaderI2C_RES_CAUSE_REG & BootloaderI2C_RES_CAUSE_RESET_SOFT))
 430:.\Generated_Source\PSoC5/BootloaderI2C.c ****     {
 431:.\Generated_Source\PSoC5/BootloaderI2C.c ****         cyBtldrRunType = 0u;
 432:.\Generated_Source\PSoC5/BootloaderI2C.c ****     }
 433:.\Generated_Source\PSoC5/BootloaderI2C.c **** 
 434:.\Generated_Source\PSoC5/BootloaderI2C.c **** #endif /* (CY_PSOC4) */
 435:.\Generated_Source\PSoC5/BootloaderI2C.c **** 
 436:.\Generated_Source\PSoC5/BootloaderI2C.c **** 
 437:.\Generated_Source\PSoC5/BootloaderI2C.c ****     if (BootloaderI2C_GET_RUN_TYPE == BootloaderI2C_START_APP)
 402              		.loc 1 437 0
 403 0004 44F2FA63 		movw	r3, #18170
 404 0008 C4F20003 		movt	r3, 16384
 405 000c 1B78     		ldrb	r3, [r3, #0]
 406 000e DBB2     		uxtb	r3, r3
 407 0010 03F0C003 		and	r3, r3, #192
 408 0014 802B     		cmp	r3, #128
 409 0016 19D1     		bne	.L21
 438:.\Generated_Source\PSoC5/BootloaderI2C.c ****     {
 439:.\Generated_Source\PSoC5/BootloaderI2C.c ****         BootloaderI2C_SET_RUN_TYPE(0u);
 410              		.loc 1 439 0
 411 0018 44F2FA63 		movw	r3, #18170
 412 001c C4F20003 		movt	r3, 16384
ARM GAS  C:\Users\bramamu\AppData\Local\Temp\cczceNxl.s 			page 16


 413 0020 4FF00002 		mov	r2, #0
 414 0024 1A70     		strb	r2, [r3, #0]
 440:.\Generated_Source\PSoC5/BootloaderI2C.c **** 
 441:.\Generated_Source\PSoC5/BootloaderI2C.c ****         /*******************************************************************************
 442:.\Generated_Source\PSoC5/BootloaderI2C.c ****         * Indicates that we have told ourselves to jump to the application since we have
 443:.\Generated_Source\PSoC5/BootloaderI2C.c ****         * already told ourselves to jump, we do not do any expensive verification of the
 444:.\Generated_Source\PSoC5/BootloaderI2C.c ****         * application. We just check to make sure that the value at CY_APP_ADDR_ADDRESS
 445:.\Generated_Source\PSoC5/BootloaderI2C.c ****         * is something other than 0.
 446:.\Generated_Source\PSoC5/BootloaderI2C.c ****         *******************************************************************************/
 447:.\Generated_Source\PSoC5/BootloaderI2C.c ****         if(0u != BootloaderI2C_GetMetadata(BootloaderI2C_GET_METADATA_BTLDB_ADDR, BootloaderI2C_act
 415              		.loc 1 447 0
 416 0026 4FF00100 		mov	r0, #1
 417 002a 4FF00001 		mov	r1, #0
 418 002e FFF7FEFF 		bl	BootloaderI2C_GetMetadata
 419 0032 0346     		mov	r3, r0
 420 0034 002B     		cmp	r3, #0
 421 0036 09D0     		beq	.L21
 448:.\Generated_Source\PSoC5/BootloaderI2C.c ****         {
 449:.\Generated_Source\PSoC5/BootloaderI2C.c ****             /* Never return from this method */
 450:.\Generated_Source\PSoC5/BootloaderI2C.c ****             BootloaderI2C_LaunchBootloadable(BootloaderI2C_GetMetadata(BootloaderI2C_GET_METADATA_B
 422              		.loc 1 450 0
 423 0038 4FF00100 		mov	r0, #1
 424 003c 4FF00001 		mov	r1, #0
 425 0040 FFF7FEFF 		bl	BootloaderI2C_GetMetadata
 426 0044 0346     		mov	r3, r0
 427 0046 1846     		mov	r0, r3
 428 0048 FFF7FEFF 		bl	BootloaderI2C_LaunchBootloadable
 429              	.L21:
 451:.\Generated_Source\PSoC5/BootloaderI2C.c ****                                                                              BootloaderI2C_activeAp
 452:.\Generated_Source\PSoC5/BootloaderI2C.c ****         }
 453:.\Generated_Source\PSoC5/BootloaderI2C.c ****     }
 454:.\Generated_Source\PSoC5/BootloaderI2C.c **** }
 430              		.loc 1 454 0
 431 004c 80BD     		pop	{r7, pc}
 432              		.cfi_endproc
 433              	.LFE61:
 434              		.size	CyBtldr_CheckLaunch, .-CyBtldr_CheckLaunch
 435 004e 00BF     		.section	.text.BootloaderI2C_LaunchBootloadable,"ax",%progbits
 436              		.align	2
 437              		.thumb
 438              		.thumb_func
 439              		.type	BootloaderI2C_LaunchBootloadable, %function
 440              	BootloaderI2C_LaunchBootloadable:
 441              	.LFB62:
 455:.\Generated_Source\PSoC5/BootloaderI2C.c **** 
 456:.\Generated_Source\PSoC5/BootloaderI2C.c **** 
 457:.\Generated_Source\PSoC5/BootloaderI2C.c **** /* Moves the arguement appAddr (RO) into PC, moving execution to the appAddr */
 458:.\Generated_Source\PSoC5/BootloaderI2C.c **** #if defined (__ARMCC_VERSION)
 459:.\Generated_Source\PSoC5/BootloaderI2C.c **** 
 460:.\Generated_Source\PSoC5/BootloaderI2C.c ****     __asm static void BootloaderI2C_LaunchBootloadable(uint32 appAddr)
 461:.\Generated_Source\PSoC5/BootloaderI2C.c ****     {
 462:.\Generated_Source\PSoC5/BootloaderI2C.c ****         BX  R0
 463:.\Generated_Source\PSoC5/BootloaderI2C.c ****         ALIGN
 464:.\Generated_Source\PSoC5/BootloaderI2C.c ****     }
 465:.\Generated_Source\PSoC5/BootloaderI2C.c **** 
 466:.\Generated_Source\PSoC5/BootloaderI2C.c **** #elif defined(__GNUC__)
 467:.\Generated_Source\PSoC5/BootloaderI2C.c **** 
ARM GAS  C:\Users\bramamu\AppData\Local\Temp\cczceNxl.s 			page 17


 468:.\Generated_Source\PSoC5/BootloaderI2C.c ****     __attribute__((noinline)) /* Workaround for GCC toolchain bug with inlining */
 469:.\Generated_Source\PSoC5/BootloaderI2C.c ****     __attribute__((naked))
 470:.\Generated_Source\PSoC5/BootloaderI2C.c ****     static void BootloaderI2C_LaunchBootloadable(uint32 appAddr)
 471:.\Generated_Source\PSoC5/BootloaderI2C.c ****     {
 442              		.loc 1 471 0
 443              		.cfi_startproc
 444              		@ Naked Function: prologue and epilogue provided by programmer.
 445              		@ args = 0, pretend = 0, frame = 0
 446              		@ frame_needed = 1, uses_anonymous_args = 0
 472:.\Generated_Source\PSoC5/BootloaderI2C.c ****         __asm volatile("    BX  R0\n");
 447              		.loc 1 472 0
 448              	@ 472 ".\Generated_Source\PSoC5\BootloaderI2C.c" 1
 449 0000 0047     		    BX  R0
 450              	
 451              	@ 0 "" 2
 473:.\Generated_Source\PSoC5/BootloaderI2C.c ****     }
 452              		.loc 1 473 0
 453              		.thumb
 454              		.cfi_endproc
 455              	.LFE62:
 456              		.size	BootloaderI2C_LaunchBootloadable, .-BootloaderI2C_LaunchBootloadable
 457 0002 00BF     		.section	.text.BootloaderI2C_ValidateBootloadable,"ax",%progbits
 458              		.align	2
 459              		.thumb
 460              		.thumb_func
 461              		.type	BootloaderI2C_ValidateBootloadable, %function
 462              	BootloaderI2C_ValidateBootloadable:
 463              	.LFB63:
 474:.\Generated_Source\PSoC5/BootloaderI2C.c **** 
 475:.\Generated_Source\PSoC5/BootloaderI2C.c **** #elif defined (__ICCARM__)
 476:.\Generated_Source\PSoC5/BootloaderI2C.c **** 
 477:.\Generated_Source\PSoC5/BootloaderI2C.c ****     static void BootloaderI2C_LaunchBootloadable(uint32 appAddr)
 478:.\Generated_Source\PSoC5/BootloaderI2C.c ****     {
 479:.\Generated_Source\PSoC5/BootloaderI2C.c ****         __asm volatile("    BX  R0\n");
 480:.\Generated_Source\PSoC5/BootloaderI2C.c ****     }
 481:.\Generated_Source\PSoC5/BootloaderI2C.c **** 
 482:.\Generated_Source\PSoC5/BootloaderI2C.c **** #endif  /* (__ARMCC_VERSION) */
 483:.\Generated_Source\PSoC5/BootloaderI2C.c **** 
 484:.\Generated_Source\PSoC5/BootloaderI2C.c **** 
 485:.\Generated_Source\PSoC5/BootloaderI2C.c **** /*******************************************************************************
 486:.\Generated_Source\PSoC5/BootloaderI2C.c **** * Function Name: BootloaderI2C_ValidateBootloadable
 487:.\Generated_Source\PSoC5/BootloaderI2C.c **** ********************************************************************************
 488:.\Generated_Source\PSoC5/BootloaderI2C.c **** * Summary:
 489:.\Generated_Source\PSoC5/BootloaderI2C.c **** *  This routine computes the checksum, zero check, 0xFF check of the
 490:.\Generated_Source\PSoC5/BootloaderI2C.c **** *  application area to determine whether a valid application is loaded.
 491:.\Generated_Source\PSoC5/BootloaderI2C.c **** *
 492:.\Generated_Source\PSoC5/BootloaderI2C.c **** * Parameters:
 493:.\Generated_Source\PSoC5/BootloaderI2C.c **** *  appId:
 494:.\Generated_Source\PSoC5/BootloaderI2C.c **** *      The application number to verify
 495:.\Generated_Source\PSoC5/BootloaderI2C.c **** *
 496:.\Generated_Source\PSoC5/BootloaderI2C.c **** * Returns:
 497:.\Generated_Source\PSoC5/BootloaderI2C.c **** *  CYRET_SUCCESS  - if successful
 498:.\Generated_Source\PSoC5/BootloaderI2C.c **** *  CYRET_BAD_DATA - if the bootloadable is corrupt
 499:.\Generated_Source\PSoC5/BootloaderI2C.c **** *
 500:.\Generated_Source\PSoC5/BootloaderI2C.c **** *******************************************************************************/
 501:.\Generated_Source\PSoC5/BootloaderI2C.c **** static cystatus BootloaderI2C_ValidateBootloadable(uint8 appId) CYSMALL \
 502:.\Generated_Source\PSoC5/BootloaderI2C.c **** 
ARM GAS  C:\Users\bramamu\AppData\Local\Temp\cczceNxl.s 			page 18


 503:.\Generated_Source\PSoC5/BootloaderI2C.c ****     {
 464              		.loc 1 503 0
 465              		.cfi_startproc
 466              		@ args = 0, pretend = 0, frame = 24
 467              		@ frame_needed = 1, uses_anonymous_args = 0
 468 0000 90B5     		push	{r4, r7, lr}
 469              	.LCFI16:
 470              		.cfi_def_cfa_offset 12
 471              		.cfi_offset 4, -12
 472              		.cfi_offset 7, -8
 473              		.cfi_offset 14, -4
 474 0002 87B0     		sub	sp, sp, #28
 475              	.LCFI17:
 476              		.cfi_def_cfa_offset 40
 477 0004 00AF     		add	r7, sp, #0
 478              	.LCFI18:
 479              		.cfi_def_cfa_register 7
 480 0006 0346     		mov	r3, r0
 481 0008 FB71     		strb	r3, [r7, #7]
 504:.\Generated_Source\PSoC5/BootloaderI2C.c ****         uint32 CYDATA idx;
 505:.\Generated_Source\PSoC5/BootloaderI2C.c **** 
 506:.\Generated_Source\PSoC5/BootloaderI2C.c ****         uint32 CYDATA end   = BootloaderI2C_FIRST_APP_BYTE(appId) +
 482              		.loc 1 506 0
 483 000a FB79     		ldrb	r3, [r7, #7]	@ zero_extendqisi2
 484 000c 4FF00200 		mov	r0, #2
 485 0010 1946     		mov	r1, r3
 486 0012 FFF7FEFF 		bl	BootloaderI2C_GetMetadata
 487 0016 0346     		mov	r3, r0
 488 0018 03F10103 		add	r3, r3, #1
 489 001c 4FEA0324 		lsl	r4, r3, #8
 507:.\Generated_Source\PSoC5/BootloaderI2C.c ****                                 BootloaderI2C_GetMetadata(BootloaderI2C_GET_METADATA_BTLDB_LENGTH,
 490              		.loc 1 507 0
 491 0020 FB79     		ldrb	r3, [r7, #7]	@ zero_extendqisi2
 492 0022 4FF00300 		mov	r0, #3
 493 0026 1946     		mov	r1, r3
 494 0028 FFF7FEFF 		bl	BootloaderI2C_GetMetadata
 495 002c 0346     		mov	r3, r0
 506:.\Generated_Source\PSoC5/BootloaderI2C.c ****         uint32 CYDATA end   = BootloaderI2C_FIRST_APP_BYTE(appId) +
 496              		.loc 1 506 0
 497 002e E318     		adds	r3, r4, r3
 498 0030 FB60     		str	r3, [r7, #12]
 508:.\Generated_Source\PSoC5/BootloaderI2C.c ****                                                        appId);
 509:.\Generated_Source\PSoC5/BootloaderI2C.c **** 
 510:.\Generated_Source\PSoC5/BootloaderI2C.c ****         CYBIT         valid = 0u; /* Assume bad flash image */
 499              		.loc 1 510 0
 500 0032 4FF00003 		mov	r3, #0
 501 0036 FB74     		strb	r3, [r7, #19]
 511:.\Generated_Source\PSoC5/BootloaderI2C.c ****         uint8  CYDATA calcedChecksum = 0u;
 502              		.loc 1 511 0
 503 0038 4FF00003 		mov	r3, #0
 504 003c BB74     		strb	r3, [r7, #18]
 512:.\Generated_Source\PSoC5/BootloaderI2C.c **** 
 513:.\Generated_Source\PSoC5/BootloaderI2C.c **** 
 514:.\Generated_Source\PSoC5/BootloaderI2C.c ****         #if(0u != BootloaderI2C_DUAL_APP_BOOTLOADER)
 515:.\Generated_Source\PSoC5/BootloaderI2C.c **** 
 516:.\Generated_Source\PSoC5/BootloaderI2C.c ****             if(appId > 1u)
 517:.\Generated_Source\PSoC5/BootloaderI2C.c ****             {
ARM GAS  C:\Users\bramamu\AppData\Local\Temp\cczceNxl.s 			page 19


 518:.\Generated_Source\PSoC5/BootloaderI2C.c ****                 return(CYRET_BAD_DATA);
 519:.\Generated_Source\PSoC5/BootloaderI2C.c ****             }
 520:.\Generated_Source\PSoC5/BootloaderI2C.c **** 
 521:.\Generated_Source\PSoC5/BootloaderI2C.c ****         #endif  /* (0u != BootloaderI2C_DUAL_APP_BOOTLOADER) */
 522:.\Generated_Source\PSoC5/BootloaderI2C.c **** 
 523:.\Generated_Source\PSoC5/BootloaderI2C.c **** 
 524:.\Generated_Source\PSoC5/BootloaderI2C.c ****         #if(0u != BootloaderI2C_FAST_APP_VALIDATION)
 525:.\Generated_Source\PSoC5/BootloaderI2C.c **** 
 526:.\Generated_Source\PSoC5/BootloaderI2C.c ****             if(BootloaderI2C_MD_BTLDB_VERIFIED_VALUE(appId) == BootloaderI2C_MD_BTLDB_IS_VERIFIED)
 527:.\Generated_Source\PSoC5/BootloaderI2C.c ****             {
 528:.\Generated_Source\PSoC5/BootloaderI2C.c ****                 return(CYRET_SUCCESS);
 529:.\Generated_Source\PSoC5/BootloaderI2C.c ****             }
 530:.\Generated_Source\PSoC5/BootloaderI2C.c **** 
 531:.\Generated_Source\PSoC5/BootloaderI2C.c ****         #endif  /* (0u != BootloaderI2C_FAST_APP_VALIDATION) */
 532:.\Generated_Source\PSoC5/BootloaderI2C.c **** 
 533:.\Generated_Source\PSoC5/BootloaderI2C.c **** 
 534:.\Generated_Source\PSoC5/BootloaderI2C.c ****         /* Calculate checksum of bootloadable image */
 535:.\Generated_Source\PSoC5/BootloaderI2C.c ****         for(idx = BootloaderI2C_FIRST_APP_BYTE(appId); idx < end; ++idx)
 505              		.loc 1 535 0
 506 003e FB79     		ldrb	r3, [r7, #7]	@ zero_extendqisi2
 507 0040 4FF00200 		mov	r0, #2
 508 0044 1946     		mov	r1, r3
 509 0046 FFF7FEFF 		bl	BootloaderI2C_GetMetadata
 510 004a 0346     		mov	r3, r0
 511 004c 03F10103 		add	r3, r3, #1
 512 0050 4FEA0323 		lsl	r3, r3, #8
 513 0054 7B61     		str	r3, [r7, #20]
 514 0056 13E0     		b	.L25
 515              	.L27:
 516              	.LBB2:
 536:.\Generated_Source\PSoC5/BootloaderI2C.c ****         {
 537:.\Generated_Source\PSoC5/BootloaderI2C.c ****             uint8 CYDATA curByte = BootloaderI2C_GET_CODE_BYTE(idx);
 517              		.loc 1 537 0
 518 0058 7B69     		ldr	r3, [r7, #20]
 519 005a 1B78     		ldrb	r3, [r3, #0]
 520 005c FB72     		strb	r3, [r7, #11]
 538:.\Generated_Source\PSoC5/BootloaderI2C.c **** 
 539:.\Generated_Source\PSoC5/BootloaderI2C.c ****             if((curByte != 0u) && (curByte != 0xFFu))
 521              		.loc 1 539 0
 522 005e FB7A     		ldrb	r3, [r7, #11]	@ zero_extendqisi2
 523 0060 002B     		cmp	r3, #0
 524 0062 05D0     		beq	.L26
 525              		.loc 1 539 0 is_stmt 0 discriminator 1
 526 0064 FB7A     		ldrb	r3, [r7, #11]	@ zero_extendqisi2
 527 0066 FF2B     		cmp	r3, #255
 528 0068 02D0     		beq	.L26
 540:.\Generated_Source\PSoC5/BootloaderI2C.c ****             {
 541:.\Generated_Source\PSoC5/BootloaderI2C.c ****                 valid = 1u;
 529              		.loc 1 541 0 is_stmt 1
 530 006a 4FF00103 		mov	r3, #1
 531 006e FB74     		strb	r3, [r7, #19]
 532              	.L26:
 542:.\Generated_Source\PSoC5/BootloaderI2C.c ****             }
 543:.\Generated_Source\PSoC5/BootloaderI2C.c **** 
 544:.\Generated_Source\PSoC5/BootloaderI2C.c ****             calcedChecksum += curByte;
 533              		.loc 1 544 0
 534 0070 BA7C     		ldrb	r2, [r7, #18]
ARM GAS  C:\Users\bramamu\AppData\Local\Temp\cczceNxl.s 			page 20


 535 0072 FB7A     		ldrb	r3, [r7, #11]
 536 0074 D318     		adds	r3, r2, r3
 537 0076 BB74     		strb	r3, [r7, #18]
 538              	.LBE2:
 535:.\Generated_Source\PSoC5/BootloaderI2C.c ****         for(idx = BootloaderI2C_FIRST_APP_BYTE(appId); idx < end; ++idx)
 539              		.loc 1 535 0
 540 0078 7B69     		ldr	r3, [r7, #20]
 541 007a 03F10103 		add	r3, r3, #1
 542 007e 7B61     		str	r3, [r7, #20]
 543              	.L25:
 535:.\Generated_Source\PSoC5/BootloaderI2C.c ****         for(idx = BootloaderI2C_FIRST_APP_BYTE(appId); idx < end; ++idx)
 544              		.loc 1 535 0 is_stmt 0 discriminator 1
 545 0080 7A69     		ldr	r2, [r7, #20]
 546 0082 FB68     		ldr	r3, [r7, #12]
 547 0084 9A42     		cmp	r2, r3
 548 0086 E7D3     		bcc	.L27
 545:.\Generated_Source\PSoC5/BootloaderI2C.c ****         }
 546:.\Generated_Source\PSoC5/BootloaderI2C.c **** 
 547:.\Generated_Source\PSoC5/BootloaderI2C.c **** 
 548:.\Generated_Source\PSoC5/BootloaderI2C.c ****         /***************************************************************************
 549:.\Generated_Source\PSoC5/BootloaderI2C.c ****         * We do not compute checksum over the meta data section, so no need to
 550:.\Generated_Source\PSoC5/BootloaderI2C.c ****         * subtract off App Verified or App Active information here like we do when
 551:.\Generated_Source\PSoC5/BootloaderI2C.c ****         * verifying a row.
 552:.\Generated_Source\PSoC5/BootloaderI2C.c ****         ***************************************************************************/
 553:.\Generated_Source\PSoC5/BootloaderI2C.c **** 
 554:.\Generated_Source\PSoC5/BootloaderI2C.c **** 
 555:.\Generated_Source\PSoC5/BootloaderI2C.c ****         #if((!CY_PSOC4) && (CYDEV_ECC_ENABLE == 0u))
 556:.\Generated_Source\PSoC5/BootloaderI2C.c **** 
 557:.\Generated_Source\PSoC5/BootloaderI2C.c ****             /* Add ECC data to checksum */
 558:.\Generated_Source\PSoC5/BootloaderI2C.c ****             idx = ((BootloaderI2C_FIRST_APP_BYTE(appId)) >> 3u);
 549              		.loc 1 558 0 is_stmt 1
 550 0088 FB79     		ldrb	r3, [r7, #7]	@ zero_extendqisi2
 551 008a 4FF00200 		mov	r0, #2
 552 008e 1946     		mov	r1, r3
 553 0090 FFF7FEFF 		bl	BootloaderI2C_GetMetadata
 554 0094 0346     		mov	r3, r0
 555 0096 03F10103 		add	r3, r3, #1
 556 009a 4FEA0323 		lsl	r3, r3, #8
 557 009e 4FEAD303 		lsr	r3, r3, #3
 558 00a2 7B61     		str	r3, [r7, #20]
 559:.\Generated_Source\PSoC5/BootloaderI2C.c **** 
 560:.\Generated_Source\PSoC5/BootloaderI2C.c ****             /* Flash may run into meta data, ECC does not so use full row */
 561:.\Generated_Source\PSoC5/BootloaderI2C.c ****             end = (end == (CY_FLASH_SIZE - BootloaderI2C_MD_SIZEOF))
 562:.\Generated_Source\PSoC5/BootloaderI2C.c ****                 ? (CY_FLASH_SIZE >> 3u)
 563:.\Generated_Source\PSoC5/BootloaderI2C.c ****                 : (end >> 3u);
 559              		.loc 1 563 0
 560 00a4 FA68     		ldr	r2, [r7, #12]
 561 00a6 4FF6C073 		movw	r3, #65472
 562 00aa C0F20303 		movt	r3, 3
 563 00ae 9A42     		cmp	r2, r3
 564 00b0 03D0     		beq	.L28
 565              		.loc 1 563 0 is_stmt 0 discriminator 1
 566 00b2 FB68     		ldr	r3, [r7, #12]
 567 00b4 4FEAD303 		lsr	r3, r3, #3
 568 00b8 01E0     		b	.L29
 569              	.L28:
 570              		.loc 1 563 0 discriminator 2
ARM GAS  C:\Users\bramamu\AppData\Local\Temp\cczceNxl.s 			page 21


 571 00ba 4FF40043 		mov	r3, #32768
 572              	.L29:
 561:.\Generated_Source\PSoC5/BootloaderI2C.c ****             end = (end == (CY_FLASH_SIZE - BootloaderI2C_MD_SIZEOF))
 573              		.loc 1 561 0 is_stmt 1
 574 00be FB60     		str	r3, [r7, #12]
 564:.\Generated_Source\PSoC5/BootloaderI2C.c **** 
 565:.\Generated_Source\PSoC5/BootloaderI2C.c ****             for (; idx < end; ++idx)
 575              		.loc 1 565 0
 576 00c0 0BE0     		b	.L30
 577              	.L31:
 566:.\Generated_Source\PSoC5/BootloaderI2C.c ****             {
 567:.\Generated_Source\PSoC5/BootloaderI2C.c ****                 calcedChecksum += CY_GET_XTND_REG8((volatile uint8 *)(CYDEV_ECC_BASE + idx));
 578              		.loc 1 567 0 discriminator 2
 579 00c2 7B69     		ldr	r3, [r7, #20]
 580 00c4 03F19043 		add	r3, r3, #1207959552
 581 00c8 1B78     		ldrb	r3, [r3, #0]
 582 00ca DAB2     		uxtb	r2, r3
 583 00cc BB7C     		ldrb	r3, [r7, #18]
 584 00ce D318     		adds	r3, r2, r3
 585 00d0 BB74     		strb	r3, [r7, #18]
 565:.\Generated_Source\PSoC5/BootloaderI2C.c ****             for (; idx < end; ++idx)
 586              		.loc 1 565 0 discriminator 2
 587 00d2 7B69     		ldr	r3, [r7, #20]
 588 00d4 03F10103 		add	r3, r3, #1
 589 00d8 7B61     		str	r3, [r7, #20]
 590              	.L30:
 565:.\Generated_Source\PSoC5/BootloaderI2C.c ****             for (; idx < end; ++idx)
 591              		.loc 1 565 0 is_stmt 0 discriminator 1
 592 00da 7A69     		ldr	r2, [r7, #20]
 593 00dc FB68     		ldr	r3, [r7, #12]
 594 00de 9A42     		cmp	r2, r3
 595 00e0 EFD3     		bcc	.L31
 568:.\Generated_Source\PSoC5/BootloaderI2C.c ****             }
 569:.\Generated_Source\PSoC5/BootloaderI2C.c **** 
 570:.\Generated_Source\PSoC5/BootloaderI2C.c ****         #endif  /* ((!CY_PSOC4) && (CYDEV_ECC_ENABLE == 0u)) */
 571:.\Generated_Source\PSoC5/BootloaderI2C.c **** 
 572:.\Generated_Source\PSoC5/BootloaderI2C.c **** 
 573:.\Generated_Source\PSoC5/BootloaderI2C.c ****         calcedChecksum = ( uint8 )1u + ( uint8 )(~calcedChecksum);
 596              		.loc 1 573 0 is_stmt 1
 597 00e2 BB7C     		ldrb	r3, [r7, #18]
 598 00e4 C3F10003 		rsb	r3, r3, #0
 599 00e8 BB74     		strb	r3, [r7, #18]
 574:.\Generated_Source\PSoC5/BootloaderI2C.c **** 
 575:.\Generated_Source\PSoC5/BootloaderI2C.c ****         if((calcedChecksum != BootloaderI2C_MD_BTLDB_CHECKSUM_VALUE(appId)) ||
 600              		.loc 1 575 0
 601 00ea FA79     		ldrb	r2, [r7, #7]	@ zero_extendqisi2
 602 00ec 1346     		mov	r3, r2
 603 00ee 4FEA0363 		lsl	r3, r3, #24
 604 00f2 9B1A     		subs	r3, r3, r2
 605 00f4 4FEA0323 		lsl	r3, r3, #8
 606 00f8 03F57F33 		add	r3, r3, #261120
 607 00fc 03F57073 		add	r3, r3, #960
 608 0100 1B78     		ldrb	r3, [r3, #0]
 609 0102 DBB2     		uxtb	r3, r3
 610 0104 BA7C     		ldrb	r2, [r7, #18]	@ zero_extendqisi2
 611 0106 9A42     		cmp	r2, r3
 612 0108 02D1     		bne	.L32
ARM GAS  C:\Users\bramamu\AppData\Local\Temp\cczceNxl.s 			page 22


 613              		.loc 1 575 0 is_stmt 0 discriminator 1
 614 010a FB7C     		ldrb	r3, [r7, #19]	@ zero_extendqisi2
 615 010c 002B     		cmp	r3, #0
 616 010e 02D1     		bne	.L33
 617              	.L32:
 576:.\Generated_Source\PSoC5/BootloaderI2C.c ****            (0u == valid))
 577:.\Generated_Source\PSoC5/BootloaderI2C.c ****         {
 578:.\Generated_Source\PSoC5/BootloaderI2C.c ****             return(CYRET_BAD_DATA);
 618              		.loc 1 578 0 is_stmt 1
 619 0110 4FF00603 		mov	r3, #6
 620 0114 01E0     		b	.L34
 621              	.L33:
 579:.\Generated_Source\PSoC5/BootloaderI2C.c ****         }
 580:.\Generated_Source\PSoC5/BootloaderI2C.c **** 
 581:.\Generated_Source\PSoC5/BootloaderI2C.c **** 
 582:.\Generated_Source\PSoC5/BootloaderI2C.c ****         #if(0u != BootloaderI2C_FAST_APP_VALIDATION)
 583:.\Generated_Source\PSoC5/BootloaderI2C.c ****             BootloaderI2C_SetFlashByte((uint32) BootloaderI2C_MD_BTLDB_VERIFIED_OFFSET(appId),
 584:.\Generated_Source\PSoC5/BootloaderI2C.c ****                                           BootloaderI2C_MD_BTLDB_IS_VERIFIED);
 585:.\Generated_Source\PSoC5/BootloaderI2C.c ****         #endif  /* (0u != BootloaderI2C_FAST_APP_VALIDATION) */
 586:.\Generated_Source\PSoC5/BootloaderI2C.c **** 
 587:.\Generated_Source\PSoC5/BootloaderI2C.c **** 
 588:.\Generated_Source\PSoC5/BootloaderI2C.c ****         return(CYRET_SUCCESS);
 622              		.loc 1 588 0
 623 0116 4FF00003 		mov	r3, #0
 624              	.L34:
 589:.\Generated_Source\PSoC5/BootloaderI2C.c **** }
 625              		.loc 1 589 0
 626 011a 1846     		mov	r0, r3
 627 011c 07F11C07 		add	r7, r7, #28
 628 0120 BD46     		mov	sp, r7
 629 0122 90BD     		pop	{r4, r7, pc}
 630              		.cfi_endproc
 631              	.LFE63:
 632              		.size	BootloaderI2C_ValidateBootloadable, .-BootloaderI2C_ValidateBootloadable
 633              		.section	.rodata
 634              		.align	2
 635              	.LC0:
 636 0000 69E0112E 		.word	772923497
 637 0004 00       		.byte	0
 638 0005 14       		.byte	20
 639 0006 01       		.byte	1
 640 0007 01       		.byte	1
 641              		.section	.text.BootloaderI2C_HostLink,"ax",%progbits
 642              		.align	2
 643              		.thumb
 644              		.thumb_func
 645              		.type	BootloaderI2C_HostLink, %function
 646              	BootloaderI2C_HostLink:
 647              	.LFB64:
 590:.\Generated_Source\PSoC5/BootloaderI2C.c **** 
 591:.\Generated_Source\PSoC5/BootloaderI2C.c **** 
 592:.\Generated_Source\PSoC5/BootloaderI2C.c **** /*******************************************************************************
 593:.\Generated_Source\PSoC5/BootloaderI2C.c **** * Function Name: BootloaderI2C_HostLink
 594:.\Generated_Source\PSoC5/BootloaderI2C.c **** ********************************************************************************
 595:.\Generated_Source\PSoC5/BootloaderI2C.c **** *
 596:.\Generated_Source\PSoC5/BootloaderI2C.c **** * Summary:
 597:.\Generated_Source\PSoC5/BootloaderI2C.c **** *  Causes the bootloader to attempt to read data being transmitted by the
ARM GAS  C:\Users\bramamu\AppData\Local\Temp\cczceNxl.s 			page 23


 598:.\Generated_Source\PSoC5/BootloaderI2C.c **** *  host application.  If data is sent from the host, this establishes the
 599:.\Generated_Source\PSoC5/BootloaderI2C.c **** *  communication interface to process all requests.
 600:.\Generated_Source\PSoC5/BootloaderI2C.c **** *
 601:.\Generated_Source\PSoC5/BootloaderI2C.c **** * Parameters:
 602:.\Generated_Source\PSoC5/BootloaderI2C.c **** *  timeOut:
 603:.\Generated_Source\PSoC5/BootloaderI2C.c **** *   The amount of time to listen for data before giving up. Timeout is
 604:.\Generated_Source\PSoC5/BootloaderI2C.c **** *   measured in 10s of ms.  Use 0 for infinite wait.
 605:.\Generated_Source\PSoC5/BootloaderI2C.c **** *
 606:.\Generated_Source\PSoC5/BootloaderI2C.c **** * Return:
 607:.\Generated_Source\PSoC5/BootloaderI2C.c **** *   None
 608:.\Generated_Source\PSoC5/BootloaderI2C.c **** *
 609:.\Generated_Source\PSoC5/BootloaderI2C.c **** *******************************************************************************/
 610:.\Generated_Source\PSoC5/BootloaderI2C.c **** static void BootloaderI2C_HostLink(uint8 timeOut) 
 611:.\Generated_Source\PSoC5/BootloaderI2C.c **** {
 648              		.loc 1 611 0
 649              		.cfi_startproc
 650              		@ args = 0, pretend = 0, frame = 944
 651              		@ frame_needed = 1, uses_anonymous_args = 0
 652 0000 80B5     		push	{r7, lr}
 653              	.LCFI19:
 654              		.cfi_def_cfa_offset 8
 655              		.cfi_offset 7, -8
 656              		.cfi_offset 14, -4
 657 0002 ADF56C7D 		sub	sp, sp, #944
 658              	.LCFI20:
 659              		.cfi_def_cfa_offset 952
 660 0006 00AF     		add	r7, sp, #0
 661              	.LCFI21:
 662              		.cfi_def_cfa_register 7
 663 0008 0246     		mov	r2, r0
 664 000a 07F10703 		add	r3, r7, #7
 665 000e 1A70     		strb	r2, [r3, #0]
 612:.\Generated_Source\PSoC5/BootloaderI2C.c ****     uint16    CYDATA numberRead;
 613:.\Generated_Source\PSoC5/BootloaderI2C.c ****     uint16    CYDATA rspSize;
 614:.\Generated_Source\PSoC5/BootloaderI2C.c ****     uint8     CYDATA ackCode;
 615:.\Generated_Source\PSoC5/BootloaderI2C.c ****     uint16    CYDATA pktChecksum;
 616:.\Generated_Source\PSoC5/BootloaderI2C.c ****     cystatus  CYDATA readStat;
 617:.\Generated_Source\PSoC5/BootloaderI2C.c ****     uint16    CYDATA pktSize    = 0u;
 666              		.loc 1 617 0
 667 0010 4FF00003 		mov	r3, #0
 668 0014 A7F8AA33 		strh	r3, [r7, #938]	@ movhi
 618:.\Generated_Source\PSoC5/BootloaderI2C.c ****     uint16    CYDATA dataOffset = 0u;
 669              		.loc 1 618 0
 670 0018 4FF00003 		mov	r3, #0
 671 001c A7F8A833 		strh	r3, [r7, #936]	@ movhi
 619:.\Generated_Source\PSoC5/BootloaderI2C.c ****     uint8     CYDATA timeOutCnt = 10u;
 672              		.loc 1 619 0
 673 0020 4FF00A03 		mov	r3, #10
 674 0024 87F8A733 		strb	r3, [r7, #935]
 620:.\Generated_Source\PSoC5/BootloaderI2C.c **** 
 621:.\Generated_Source\PSoC5/BootloaderI2C.c ****     #if(0u == BootloaderI2C_DUAL_APP_BOOTLOADER)
 622:.\Generated_Source\PSoC5/BootloaderI2C.c ****         uint8 CYDATA clearedMetaData = 0u;
 675              		.loc 1 622 0
 676 0028 4FF00003 		mov	r3, #0
 677 002c 87F8A633 		strb	r3, [r7, #934]
 623:.\Generated_Source\PSoC5/BootloaderI2C.c ****     #endif  /* (0u == BootloaderI2C_DUAL_APP_BOOTLOADER) */
 624:.\Generated_Source\PSoC5/BootloaderI2C.c **** 
ARM GAS  C:\Users\bramamu\AppData\Local\Temp\cczceNxl.s 			page 24


 625:.\Generated_Source\PSoC5/BootloaderI2C.c ****     CYBIT     communicationState = BootloaderI2C_COMMUNICATION_STATE_IDLE;
 678              		.loc 1 625 0
 679 0030 4FF00003 		mov	r3, #0
 680 0034 87F8A533 		strb	r3, [r7, #933]
 626:.\Generated_Source\PSoC5/BootloaderI2C.c **** 
 627:.\Generated_Source\PSoC5/BootloaderI2C.c ****     uint8     packetBuffer[BootloaderI2C_SIZEOF_COMMAND_BUFFER];
 628:.\Generated_Source\PSoC5/BootloaderI2C.c ****     uint8     dataBuffer  [BootloaderI2C_SIZEOF_COMMAND_BUFFER];
 629:.\Generated_Source\PSoC5/BootloaderI2C.c **** 
 630:.\Generated_Source\PSoC5/BootloaderI2C.c **** 
 631:.\Generated_Source\PSoC5/BootloaderI2C.c ****     /* Initialize communications channel. */
 632:.\Generated_Source\PSoC5/BootloaderI2C.c ****     CyBtldrCommStart();
 681              		.loc 1 632 0
 682 0038 FFF7FEFF 		bl	I2CSlave_CyBtldrCommStart
 633:.\Generated_Source\PSoC5/BootloaderI2C.c **** 
 634:.\Generated_Source\PSoC5/BootloaderI2C.c ****     /* Enable global interrupts */
 635:.\Generated_Source\PSoC5/BootloaderI2C.c ****     CyGlobalIntEnable;
 683              		.loc 1 635 0
 684              	@ 635 ".\Generated_Source\PSoC5\BootloaderI2C.c" 1
 685 003c 62B6     		CPSIE   i
 686              	@ 0 "" 2
 687              		.thumb
 688              	.L84:
 636:.\Generated_Source\PSoC5/BootloaderI2C.c **** 
 637:.\Generated_Source\PSoC5/BootloaderI2C.c ****     do
 638:.\Generated_Source\PSoC5/BootloaderI2C.c ****     {
 639:.\Generated_Source\PSoC5/BootloaderI2C.c ****         ackCode = CYRET_SUCCESS;
 689              		.loc 1 639 0
 690 003e 4FF00003 		mov	r3, #0
 691 0042 87F8AD33 		strb	r3, [r7, #941]
 692              	.L40:
 640:.\Generated_Source\PSoC5/BootloaderI2C.c **** 
 641:.\Generated_Source\PSoC5/BootloaderI2C.c ****         do
 642:.\Generated_Source\PSoC5/BootloaderI2C.c ****         {
 643:.\Generated_Source\PSoC5/BootloaderI2C.c ****             readStat = CyBtldrCommRead(packetBuffer,
 693              		.loc 1 643 0
 694 0046 07F10703 		add	r3, r7, #7
 695 004a 1B78     		ldrb	r3, [r3, #0]	@ zero_extendqisi2
 696 004c 002B     		cmp	r3, #0
 697 004e 03D0     		beq	.L36
 698              		.loc 1 643 0 is_stmt 0 discriminator 1
 699 0050 07F10703 		add	r3, r7, #7
 700 0054 1B78     		ldrb	r3, [r3, #0]	@ zero_extendqisi2
 701 0056 01E0     		b	.L37
 702              	.L36:
 703              		.loc 1 643 0 discriminator 2
 704 0058 4FF0FF03 		mov	r3, #255
 705              	.L37:
 706              		.loc 1 643 0 discriminator 3
 707 005c 07F51871 		add	r1, r7, #608
 708 0060 07F28E32 		addw	r2, r7, #910
 709 0064 0846     		mov	r0, r1
 710 0066 4FF49671 		mov	r1, #300
 711 006a FFF7FEFF 		bl	I2CSlave_CyBtldrCommRead
 712 006e C7F89C03 		str	r0, [r7, #924]
 644:.\Generated_Source\PSoC5/BootloaderI2C.c ****                                         BootloaderI2C_SIZEOF_COMMAND_BUFFER,
 645:.\Generated_Source\PSoC5/BootloaderI2C.c ****                                         &numberRead,
 646:.\Generated_Source\PSoC5/BootloaderI2C.c ****                                         (0u == timeOut) ? 0xFFu : timeOut);
ARM GAS  C:\Users\bramamu\AppData\Local\Temp\cczceNxl.s 			page 25


 647:.\Generated_Source\PSoC5/BootloaderI2C.c ****             if (0u != timeOut)
 713              		.loc 1 647 0 is_stmt 1 discriminator 3
 714 0072 07F10703 		add	r3, r7, #7
 715 0076 1B78     		ldrb	r3, [r3, #0]	@ zero_extendqisi2
 716 0078 002B     		cmp	r3, #0
 717 007a 05D0     		beq	.L38
 648:.\Generated_Source\PSoC5/BootloaderI2C.c ****             {
 649:.\Generated_Source\PSoC5/BootloaderI2C.c ****                 timeOutCnt--;
 718              		.loc 1 649 0
 719 007c 97F8A733 		ldrb	r3, [r7, #935]
 720 0080 03F1FF33 		add	r3, r3, #-1
 721 0084 87F8A733 		strb	r3, [r7, #935]
 722              	.L38:
 650:.\Generated_Source\PSoC5/BootloaderI2C.c ****             }
 651:.\Generated_Source\PSoC5/BootloaderI2C.c **** 
 652:.\Generated_Source\PSoC5/BootloaderI2C.c ****         } while ( (0u != timeOutCnt) && (readStat != CYRET_SUCCESS) );
 723              		.loc 1 652 0
 724 0088 97F8A733 		ldrb	r3, [r7, #935]	@ zero_extendqisi2
 725 008c 002B     		cmp	r3, #0
 726 008e 03D0     		beq	.L39
 727              		.loc 1 652 0 is_stmt 0 discriminator 1
 728 0090 D7F89C33 		ldr	r3, [r7, #924]
 729 0094 002B     		cmp	r3, #0
 730 0096 D6D1     		bne	.L40
 731              	.L39:
 653:.\Generated_Source\PSoC5/BootloaderI2C.c **** 
 654:.\Generated_Source\PSoC5/BootloaderI2C.c **** 
 655:.\Generated_Source\PSoC5/BootloaderI2C.c ****         if( readStat != CYRET_SUCCESS )
 732              		.loc 1 655 0 is_stmt 1
 733 0098 D7F89C33 		ldr	r3, [r7, #924]
 734 009c 002B     		cmp	r3, #0
 735 009e 40F0CA82 		bne	.L85
 736              	.L41:
 656:.\Generated_Source\PSoC5/BootloaderI2C.c ****         {
 657:.\Generated_Source\PSoC5/BootloaderI2C.c ****             continue;
 658:.\Generated_Source\PSoC5/BootloaderI2C.c ****         }
 659:.\Generated_Source\PSoC5/BootloaderI2C.c **** 
 660:.\Generated_Source\PSoC5/BootloaderI2C.c ****         if((numberRead < BootloaderI2C_MIN_PKT_SIZE) ||
 737              		.loc 1 660 0
 738 00a2 B7F88E33 		ldrh	r3, [r7, #910]
 739 00a6 062B     		cmp	r3, #6
 740 00a8 04D9     		bls	.L43
 661:.\Generated_Source\PSoC5/BootloaderI2C.c ****            (packetBuffer[BootloaderI2C_SOP_ADDR] != BootloaderI2C_SOP))
 741              		.loc 1 661 0 discriminator 1
 742 00aa 07F51873 		add	r3, r7, #608
 743 00ae 1B78     		ldrb	r3, [r3, #0]	@ zero_extendqisi2
 660:.\Generated_Source\PSoC5/BootloaderI2C.c ****         if((numberRead < BootloaderI2C_MIN_PKT_SIZE) ||
 744              		.loc 1 660 0 discriminator 1
 745 00b0 012B     		cmp	r3, #1
 746 00b2 04D0     		beq	.L44
 747              	.L43:
 662:.\Generated_Source\PSoC5/BootloaderI2C.c ****         {
 663:.\Generated_Source\PSoC5/BootloaderI2C.c ****             ackCode = BootloaderI2C_ERR_DATA;
 748              		.loc 1 663 0
 749 00b4 4FF00403 		mov	r3, #4
 750 00b8 87F8AD33 		strb	r3, [r7, #941]
 751 00bc 4EE0     		b	.L45
ARM GAS  C:\Users\bramamu\AppData\Local\Temp\cczceNxl.s 			page 26


 752              	.L44:
 664:.\Generated_Source\PSoC5/BootloaderI2C.c ****         }
 665:.\Generated_Source\PSoC5/BootloaderI2C.c ****         else
 666:.\Generated_Source\PSoC5/BootloaderI2C.c ****         {
 667:.\Generated_Source\PSoC5/BootloaderI2C.c ****             pktSize = ((uint16)((uint16)packetBuffer[BootloaderI2C_SIZE_ADDR + 1u] << 8u)) |
 753              		.loc 1 667 0
 754 00be 07F51873 		add	r3, r7, #608
 755 00c2 DB78     		ldrb	r3, [r3, #3]	@ zero_extendqisi2
 756 00c4 4FEA0323 		lsl	r3, r3, #8
 757 00c8 9AB2     		uxth	r2, r3
 668:.\Generated_Source\PSoC5/BootloaderI2C.c ****                                packetBuffer[BootloaderI2C_SIZE_ADDR];
 758              		.loc 1 668 0
 759 00ca 07F51873 		add	r3, r7, #608
 760 00ce 9B78     		ldrb	r3, [r3, #2]	@ zero_extendqisi2
 667:.\Generated_Source\PSoC5/BootloaderI2C.c ****             pktSize = ((uint16)((uint16)packetBuffer[BootloaderI2C_SIZE_ADDR + 1u] << 8u)) |
 761              		.loc 1 667 0
 762 00d0 1343     		orrs	r3, r3, r2
 763 00d2 A7F8AA33 		strh	r3, [r7, #938]	@ movhi
 669:.\Generated_Source\PSoC5/BootloaderI2C.c **** 
 670:.\Generated_Source\PSoC5/BootloaderI2C.c ****             pktChecksum = ((uint16)((uint16)packetBuffer[BootloaderI2C_CHK_ADDR(pktSize) + 1u] << 8
 764              		.loc 1 670 0
 765 00d6 B7F8AA33 		ldrh	r3, [r7, #938]
 766 00da 03F10503 		add	r3, r3, #5
 767 00de 07F51872 		add	r2, r7, #608
 768 00e2 D35C     		ldrb	r3, [r2, r3]	@ zero_extendqisi2
 769 00e4 4FEA0323 		lsl	r3, r3, #8
 770 00e8 9AB2     		uxth	r2, r3
 671:.\Generated_Source\PSoC5/BootloaderI2C.c ****                                    packetBuffer[BootloaderI2C_CHK_ADDR(pktSize)];
 771              		.loc 1 671 0
 772 00ea B7F8AA33 		ldrh	r3, [r7, #938]
 773 00ee 03F10403 		add	r3, r3, #4
 774 00f2 07F51871 		add	r1, r7, #608
 775 00f6 CB5C     		ldrb	r3, [r1, r3]	@ zero_extendqisi2
 670:.\Generated_Source\PSoC5/BootloaderI2C.c ****             pktChecksum = ((uint16)((uint16)packetBuffer[BootloaderI2C_CHK_ADDR(pktSize) + 1u] << 8
 776              		.loc 1 670 0
 777 00f8 1343     		orrs	r3, r3, r2
 778 00fa A7F89A33 		strh	r3, [r7, #922]	@ movhi
 672:.\Generated_Source\PSoC5/BootloaderI2C.c **** 
 673:.\Generated_Source\PSoC5/BootloaderI2C.c ****             if((pktSize + BootloaderI2C_MIN_PKT_SIZE) > numberRead)
 779              		.loc 1 673 0
 780 00fe B7F8AA33 		ldrh	r3, [r7, #938]
 781 0102 03F10702 		add	r2, r3, #7
 782 0106 B7F88E33 		ldrh	r3, [r7, #910]
 783 010a 9A42     		cmp	r2, r3
 784 010c 04D9     		bls	.L46
 674:.\Generated_Source\PSoC5/BootloaderI2C.c ****             {
 675:.\Generated_Source\PSoC5/BootloaderI2C.c ****                 ackCode = BootloaderI2C_ERR_LENGTH;
 785              		.loc 1 675 0
 786 010e 4FF00303 		mov	r3, #3
 787 0112 87F8AD33 		strb	r3, [r7, #941]
 788 0116 21E0     		b	.L45
 789              	.L46:
 676:.\Generated_Source\PSoC5/BootloaderI2C.c ****             }
 677:.\Generated_Source\PSoC5/BootloaderI2C.c ****             else if(packetBuffer[BootloaderI2C_EOP_ADDR(pktSize)] != BootloaderI2C_EOP)
 790              		.loc 1 677 0
 791 0118 B7F8AA33 		ldrh	r3, [r7, #938]
 792 011c 03F10603 		add	r3, r3, #6
ARM GAS  C:\Users\bramamu\AppData\Local\Temp\cczceNxl.s 			page 27


 793 0120 07F51872 		add	r2, r7, #608
 794 0124 D35C     		ldrb	r3, [r2, r3]	@ zero_extendqisi2
 795 0126 172B     		cmp	r3, #23
 796 0128 04D0     		beq	.L47
 678:.\Generated_Source\PSoC5/BootloaderI2C.c ****             {
 679:.\Generated_Source\PSoC5/BootloaderI2C.c ****                 ackCode = BootloaderI2C_ERR_DATA;
 797              		.loc 1 679 0
 798 012a 4FF00403 		mov	r3, #4
 799 012e 87F8AD33 		strb	r3, [r7, #941]
 800 0132 13E0     		b	.L45
 801              	.L47:
 680:.\Generated_Source\PSoC5/BootloaderI2C.c ****             }
 681:.\Generated_Source\PSoC5/BootloaderI2C.c ****             else if(pktChecksum != BootloaderI2C_CalcPacketChecksum(packetBuffer,
 802              		.loc 1 681 0
 803 0134 B7F8AA33 		ldrh	r3, [r7, #938]	@ movhi
 804 0138 03F10403 		add	r3, r3, #4
 805 013c 9BB2     		uxth	r3, r3
 806 013e 07F51872 		add	r2, r7, #608
 807 0142 1046     		mov	r0, r2
 808 0144 1946     		mov	r1, r3
 809 0146 FFF7FEFF 		bl	BootloaderI2C_CalcPacketChecksum
 810 014a 0346     		mov	r3, r0
 811 014c B7F89A23 		ldrh	r2, [r7, #922]
 812 0150 9A42     		cmp	r2, r3
 813 0152 03D0     		beq	.L45
 682:.\Generated_Source\PSoC5/BootloaderI2C.c ****                                                                         pktSize + BootloaderI2C_DAT
 683:.\Generated_Source\PSoC5/BootloaderI2C.c ****             {
 684:.\Generated_Source\PSoC5/BootloaderI2C.c ****                 ackCode = BootloaderI2C_ERR_CHECKSUM;
 814              		.loc 1 684 0
 815 0154 4FF00803 		mov	r3, #8
 816 0158 87F8AD33 		strb	r3, [r7, #941]
 817              	.L45:
 685:.\Generated_Source\PSoC5/BootloaderI2C.c ****             }
 686:.\Generated_Source\PSoC5/BootloaderI2C.c ****             else
 687:.\Generated_Source\PSoC5/BootloaderI2C.c ****             {
 688:.\Generated_Source\PSoC5/BootloaderI2C.c ****                 /* Empty section */
 689:.\Generated_Source\PSoC5/BootloaderI2C.c ****             }
 690:.\Generated_Source\PSoC5/BootloaderI2C.c ****         }
 691:.\Generated_Source\PSoC5/BootloaderI2C.c **** 
 692:.\Generated_Source\PSoC5/BootloaderI2C.c ****         rspSize = 0u;
 818              		.loc 1 692 0
 819 015c 4FF00003 		mov	r3, #0
 820 0160 A7F8AE33 		strh	r3, [r7, #942]	@ movhi
 693:.\Generated_Source\PSoC5/BootloaderI2C.c ****         if(ackCode == CYRET_SUCCESS)
 821              		.loc 1 693 0
 822 0164 97F8AD33 		ldrb	r3, [r7, #941]	@ zero_extendqisi2
 823 0168 002B     		cmp	r3, #0
 824 016a 40F05882 		bne	.L48
 825              	.LBB3:
 694:.\Generated_Source\PSoC5/BootloaderI2C.c ****         {
 695:.\Generated_Source\PSoC5/BootloaderI2C.c ****             uint8 CYDATA btldrData = packetBuffer[BootloaderI2C_DATA_ADDR];
 826              		.loc 1 695 0
 827 016e 07F51873 		add	r3, r7, #608
 828 0172 1B79     		ldrb	r3, [r3, #4]
 829 0174 87F89933 		strb	r3, [r7, #921]
 696:.\Generated_Source\PSoC5/BootloaderI2C.c **** 
 697:.\Generated_Source\PSoC5/BootloaderI2C.c ****             ackCode = BootloaderI2C_ERR_DATA;
ARM GAS  C:\Users\bramamu\AppData\Local\Temp\cczceNxl.s 			page 28


 830              		.loc 1 697 0
 831 0178 4FF00403 		mov	r3, #4
 832 017c 87F8AD33 		strb	r3, [r7, #941]
 698:.\Generated_Source\PSoC5/BootloaderI2C.c ****             switch(packetBuffer[BootloaderI2C_CMD_ADDR])
 833              		.loc 1 698 0
 834 0180 07F51873 		add	r3, r7, #608
 835 0184 5B78     		ldrb	r3, [r3, #1]	@ zero_extendqisi2
 836 0186 A3F13103 		sub	r3, r3, #49
 837 018a 0A2B     		cmp	r3, #10
 838 018c 00F23582 		bhi	.L49
 839 0190 01A2     		adr	r2, .L58
 840 0192 52F823F0 		ldr	pc, [r2, r3, lsl #2]
 841 0196 00BF     		.align	2
 842              	.L58:
 843 0198 C5010000 		.word	.L50+1
 844 019c 07020000 		.word	.L51+1
 845 01a0 FB050000 		.word	.L49+1
 846 01a4 71020000 		.word	.L52+1
 847 01a8 DB030000 		.word	.L53+1
 848 01ac FB050000 		.word	.L49+1
 849 01b0 EF030000 		.word	.L54+1
 850 01b4 4B040000 		.word	.L55+1
 851 01b8 71020000 		.word	.L52+1
 852 01bc 9D040000 		.word	.L56+1
 853 01c0 D9050000 		.word	.L57+1
 854              	.L50:
 699:.\Generated_Source\PSoC5/BootloaderI2C.c ****             {
 700:.\Generated_Source\PSoC5/BootloaderI2C.c **** 
 701:.\Generated_Source\PSoC5/BootloaderI2C.c **** 
 702:.\Generated_Source\PSoC5/BootloaderI2C.c ****             /***************************************************************************
 703:.\Generated_Source\PSoC5/BootloaderI2C.c ****             *   Get metadata
 704:.\Generated_Source\PSoC5/BootloaderI2C.c ****             ***************************************************************************/
 705:.\Generated_Source\PSoC5/BootloaderI2C.c ****             #if(0u != BootloaderI2C_CMD_GET_METADATA)
 706:.\Generated_Source\PSoC5/BootloaderI2C.c **** 
 707:.\Generated_Source\PSoC5/BootloaderI2C.c ****                 case BootloaderI2C_COMMAND_GET_METADATA:
 708:.\Generated_Source\PSoC5/BootloaderI2C.c **** 
 709:.\Generated_Source\PSoC5/BootloaderI2C.c ****                     if((BootloaderI2C_COMMUNICATION_STATE_ACTIVE == communicationState) && (pktSize
 710:.\Generated_Source\PSoC5/BootloaderI2C.c ****                     {
 711:.\Generated_Source\PSoC5/BootloaderI2C.c ****                         if (btldrData >= BootloaderI2C_MAX_NUM_OF_BTLDB)
 712:.\Generated_Source\PSoC5/BootloaderI2C.c ****                         {
 713:.\Generated_Source\PSoC5/BootloaderI2C.c ****                             ackCode = BootloaderI2C_ERR_APP;
 714:.\Generated_Source\PSoC5/BootloaderI2C.c ****                         }
 715:.\Generated_Source\PSoC5/BootloaderI2C.c ****                         else if(CYRET_SUCCESS == BootloaderI2C_ValidateBootloadable(btldrData))
 716:.\Generated_Source\PSoC5/BootloaderI2C.c ****                         {
 717:.\Generated_Source\PSoC5/BootloaderI2C.c ****                             #if(CY_PSOC3)
 718:.\Generated_Source\PSoC5/BootloaderI2C.c ****                                 (void) memcpy(&packetBuffer[BootloaderI2C_DATA_ADDR],
 719:.\Generated_Source\PSoC5/BootloaderI2C.c ****                                             ((uint8  CYCODE *) (BootloaderI2C_META_BASE(btldrData))
 720:.\Generated_Source\PSoC5/BootloaderI2C.c ****                             #else
 721:.\Generated_Source\PSoC5/BootloaderI2C.c ****                                 (void) memcpy(&packetBuffer[BootloaderI2C_DATA_ADDR],
 722:.\Generated_Source\PSoC5/BootloaderI2C.c ****                                             (uint8 *) BootloaderI2C_META_BASE(btldrData), 56u);
 723:.\Generated_Source\PSoC5/BootloaderI2C.c ****                             #endif  /* (CY_PSOC3) */
 724:.\Generated_Source\PSoC5/BootloaderI2C.c **** 
 725:.\Generated_Source\PSoC5/BootloaderI2C.c ****                             rspSize = 56u;
 726:.\Generated_Source\PSoC5/BootloaderI2C.c ****                             ackCode = CYRET_SUCCESS;
 727:.\Generated_Source\PSoC5/BootloaderI2C.c ****                         }
 728:.\Generated_Source\PSoC5/BootloaderI2C.c ****                         else
 729:.\Generated_Source\PSoC5/BootloaderI2C.c ****                         {
ARM GAS  C:\Users\bramamu\AppData\Local\Temp\cczceNxl.s 			page 29


 730:.\Generated_Source\PSoC5/BootloaderI2C.c ****                             ackCode = BootloaderI2C_ERR_APP;
 731:.\Generated_Source\PSoC5/BootloaderI2C.c ****                         }
 732:.\Generated_Source\PSoC5/BootloaderI2C.c ****                     }
 733:.\Generated_Source\PSoC5/BootloaderI2C.c ****                     break;
 734:.\Generated_Source\PSoC5/BootloaderI2C.c **** 
 735:.\Generated_Source\PSoC5/BootloaderI2C.c ****             #endif  /* (0u != BootloaderI2C_CMD_GET_METADATA) */
 736:.\Generated_Source\PSoC5/BootloaderI2C.c **** 
 737:.\Generated_Source\PSoC5/BootloaderI2C.c **** 
 738:.\Generated_Source\PSoC5/BootloaderI2C.c ****             /***************************************************************************
 739:.\Generated_Source\PSoC5/BootloaderI2C.c ****             *   Verify checksum
 740:.\Generated_Source\PSoC5/BootloaderI2C.c ****             ***************************************************************************/
 741:.\Generated_Source\PSoC5/BootloaderI2C.c ****             case BootloaderI2C_COMMAND_CHECKSUM:
 742:.\Generated_Source\PSoC5/BootloaderI2C.c **** 
 743:.\Generated_Source\PSoC5/BootloaderI2C.c ****                 if((BootloaderI2C_COMMUNICATION_STATE_ACTIVE == communicationState) && (pktSize == 
 855              		.loc 1 743 0
 856 01c4 97F8A533 		ldrb	r3, [r7, #933]	@ zero_extendqisi2
 857 01c8 012B     		cmp	r3, #1
 858 01ca 40F01B82 		bne	.L86
 859              		.loc 1 743 0 is_stmt 0 discriminator 1
 860 01ce B7F8AA33 		ldrh	r3, [r7, #938]
 861 01d2 002B     		cmp	r3, #0
 862 01d4 40F01682 		bne	.L86
 744:.\Generated_Source\PSoC5/BootloaderI2C.c ****                 {
 745:.\Generated_Source\PSoC5/BootloaderI2C.c ****                     packetBuffer[BootloaderI2C_DATA_ADDR] =
 746:.\Generated_Source\PSoC5/BootloaderI2C.c ****                             (uint8)(BootloaderI2C_ValidateBootloadable(BootloaderI2C_activeApp) == 
 863              		.loc 1 746 0 is_stmt 1
 864 01d8 4FF00000 		mov	r0, #0
 865 01dc FFF7FEFF 		bl	BootloaderI2C_ValidateBootloadable
 866 01e0 0346     		mov	r3, r0
 867 01e2 002B     		cmp	r3, #0
 868 01e4 14BF     		ite	ne
 869 01e6 0023     		movne	r3, #0
 870 01e8 0123     		moveq	r3, #1
 871 01ea DBB2     		uxtb	r3, r3
 872 01ec 1A46     		mov	r2, r3
 745:.\Generated_Source\PSoC5/BootloaderI2C.c ****                     packetBuffer[BootloaderI2C_DATA_ADDR] =
 873              		.loc 1 745 0
 874 01ee 07F51873 		add	r3, r7, #608
 875 01f2 1A71     		strb	r2, [r3, #4]
 747:.\Generated_Source\PSoC5/BootloaderI2C.c **** 
 748:.\Generated_Source\PSoC5/BootloaderI2C.c ****                     rspSize = 1u;
 876              		.loc 1 748 0
 877 01f4 4FF00103 		mov	r3, #1
 878 01f8 A7F8AE33 		strh	r3, [r7, #942]	@ movhi
 749:.\Generated_Source\PSoC5/BootloaderI2C.c ****                     ackCode = CYRET_SUCCESS;
 879              		.loc 1 749 0
 880 01fc 4FF00003 		mov	r3, #0
 881 0200 87F8AD33 		strb	r3, [r7, #941]
 750:.\Generated_Source\PSoC5/BootloaderI2C.c ****                 }
 751:.\Generated_Source\PSoC5/BootloaderI2C.c ****                 break;
 882              		.loc 1 751 0
 883 0204 FEE1     		b	.L86
 884              	.L51:
 752:.\Generated_Source\PSoC5/BootloaderI2C.c **** 
 753:.\Generated_Source\PSoC5/BootloaderI2C.c **** 
 754:.\Generated_Source\PSoC5/BootloaderI2C.c ****             /***************************************************************************
 755:.\Generated_Source\PSoC5/BootloaderI2C.c ****             *   Get flash size
ARM GAS  C:\Users\bramamu\AppData\Local\Temp\cczceNxl.s 			page 30


 756:.\Generated_Source\PSoC5/BootloaderI2C.c ****             ***************************************************************************/
 757:.\Generated_Source\PSoC5/BootloaderI2C.c ****             #if(0u != BootloaderI2C_CMD_GET_FLASH_SIZE_AVAIL)
 758:.\Generated_Source\PSoC5/BootloaderI2C.c **** 
 759:.\Generated_Source\PSoC5/BootloaderI2C.c ****                 case BootloaderI2C_COMMAND_REPORT_SIZE:
 760:.\Generated_Source\PSoC5/BootloaderI2C.c **** 
 761:.\Generated_Source\PSoC5/BootloaderI2C.c ****                     if((BootloaderI2C_COMMUNICATION_STATE_ACTIVE == communicationState) && (pktSize
 885              		.loc 1 761 0
 886 0206 97F8A533 		ldrb	r3, [r7, #933]	@ zero_extendqisi2
 887 020a 012B     		cmp	r3, #1
 888 020c 40F0FC81 		bne	.L87
 889              		.loc 1 761 0 is_stmt 0 discriminator 1
 890 0210 B7F8AA33 		ldrh	r3, [r7, #938]
 891 0214 012B     		cmp	r3, #1
 892 0216 40F0F781 		bne	.L87
 762:.\Generated_Source\PSoC5/BootloaderI2C.c ****                     {
 763:.\Generated_Source\PSoC5/BootloaderI2C.c ****                         /* btldrData holds flash array ID sent by host */
 764:.\Generated_Source\PSoC5/BootloaderI2C.c ****                         if(btldrData < BootloaderI2C_NUM_OF_FLASH_ARRAYS)
 893              		.loc 1 764 0 is_stmt 1
 894 021a 97F89933 		ldrb	r3, [r7, #921]	@ zero_extendqisi2
 895 021e 032B     		cmp	r3, #3
 896 0220 00F2F281 		bhi	.L87
 897              	.LBB4:
 765:.\Generated_Source\PSoC5/BootloaderI2C.c ****                         {
 766:.\Generated_Source\PSoC5/BootloaderI2C.c ****                             #if (1u == BootloaderI2C_NUM_OF_FLASH_ARRAYS)
 767:.\Generated_Source\PSoC5/BootloaderI2C.c ****                                 uint16 CYDATA startRow = (uint16)*BootloaderI2C_SizeBytesAccess / C
 768:.\Generated_Source\PSoC5/BootloaderI2C.c ****                             #else
 769:.\Generated_Source\PSoC5/BootloaderI2C.c ****                                 uint16 CYDATA startRow = 0u;
 898              		.loc 1 769 0
 899 0224 4FF00003 		mov	r3, #0
 900 0228 A7F89633 		strh	r3, [r7, #918]	@ movhi
 770:.\Generated_Source\PSoC5/BootloaderI2C.c ****                             #endif  /* (1u == BootloaderI2C_NUM_OF_FLASH_ARRAYS) */
 771:.\Generated_Source\PSoC5/BootloaderI2C.c **** 
 772:.\Generated_Source\PSoC5/BootloaderI2C.c ****                             packetBuffer[BootloaderI2C_DATA_ADDR]      = LO8(startRow);
 901              		.loc 1 772 0
 902 022c B7F89633 		ldrh	r3, [r7, #918]	@ movhi
 903 0230 DAB2     		uxtb	r2, r3
 904 0232 07F51873 		add	r3, r7, #608
 905 0236 1A71     		strb	r2, [r3, #4]
 773:.\Generated_Source\PSoC5/BootloaderI2C.c ****                             packetBuffer[BootloaderI2C_DATA_ADDR + 1u] = HI8(startRow);
 906              		.loc 1 773 0
 907 0238 B7F89633 		ldrh	r3, [r7, #918]
 908 023c 4FEA1323 		lsr	r3, r3, #8
 909 0240 9BB2     		uxth	r3, r3
 910 0242 DAB2     		uxtb	r2, r3
 911 0244 07F51873 		add	r3, r7, #608
 912 0248 5A71     		strb	r2, [r3, #5]
 774:.\Generated_Source\PSoC5/BootloaderI2C.c ****                             packetBuffer[BootloaderI2C_DATA_ADDR + 2u] = LO8(CY_FLASH_NUMBER_ROWS -
 913              		.loc 1 774 0
 914 024a 07F51873 		add	r3, r7, #608
 915 024e 4FF0FF02 		mov	r2, #255
 916 0252 9A71     		strb	r2, [r3, #6]
 775:.\Generated_Source\PSoC5/BootloaderI2C.c ****                             packetBuffer[BootloaderI2C_DATA_ADDR + 3u] = HI8(CY_FLASH_NUMBER_ROWS -
 917              		.loc 1 775 0
 918 0254 07F51873 		add	r3, r7, #608
 919 0258 4FF00302 		mov	r2, #3
 920 025c DA71     		strb	r2, [r3, #7]
 776:.\Generated_Source\PSoC5/BootloaderI2C.c **** 
ARM GAS  C:\Users\bramamu\AppData\Local\Temp\cczceNxl.s 			page 31


 777:.\Generated_Source\PSoC5/BootloaderI2C.c ****                             rspSize = 4u;
 921              		.loc 1 777 0
 922 025e 4FF00403 		mov	r3, #4
 923 0262 A7F8AE33 		strh	r3, [r7, #942]	@ movhi
 778:.\Generated_Source\PSoC5/BootloaderI2C.c ****                             ackCode = CYRET_SUCCESS;
 924              		.loc 1 778 0
 925 0266 4FF00003 		mov	r3, #0
 926 026a 87F8AD33 		strb	r3, [r7, #941]
 927              	.LBE4:
 779:.\Generated_Source\PSoC5/BootloaderI2C.c ****                         }
 780:.\Generated_Source\PSoC5/BootloaderI2C.c **** 
 781:.\Generated_Source\PSoC5/BootloaderI2C.c ****                     }
 782:.\Generated_Source\PSoC5/BootloaderI2C.c ****                     break;
 928              		.loc 1 782 0
 929 026e CBE1     		b	.L87
 930              	.L52:
 783:.\Generated_Source\PSoC5/BootloaderI2C.c **** 
 784:.\Generated_Source\PSoC5/BootloaderI2C.c ****             #endif  /* (0u != BootloaderI2C_CMD_GET_FLASH_SIZE_AVAIL) */
 785:.\Generated_Source\PSoC5/BootloaderI2C.c **** 
 786:.\Generated_Source\PSoC5/BootloaderI2C.c **** 
 787:.\Generated_Source\PSoC5/BootloaderI2C.c ****             /***************************************************************************
 788:.\Generated_Source\PSoC5/BootloaderI2C.c ****             *   Get application status
 789:.\Generated_Source\PSoC5/BootloaderI2C.c ****             ***************************************************************************/
 790:.\Generated_Source\PSoC5/BootloaderI2C.c ****             #if(0u != BootloaderI2C_DUAL_APP_BOOTLOADER)
 791:.\Generated_Source\PSoC5/BootloaderI2C.c **** 
 792:.\Generated_Source\PSoC5/BootloaderI2C.c ****                 #if(0u != BootloaderI2C_CMD_GET_APP_STATUS_AVAIL)
 793:.\Generated_Source\PSoC5/BootloaderI2C.c **** 
 794:.\Generated_Source\PSoC5/BootloaderI2C.c ****                     case BootloaderI2C_COMMAND_APP_STATUS:
 795:.\Generated_Source\PSoC5/BootloaderI2C.c **** 
 796:.\Generated_Source\PSoC5/BootloaderI2C.c ****                         if((BootloaderI2C_COMMUNICATION_STATE_ACTIVE == communicationState) && (pkt
 797:.\Generated_Source\PSoC5/BootloaderI2C.c ****                         {
 798:.\Generated_Source\PSoC5/BootloaderI2C.c **** 
 799:.\Generated_Source\PSoC5/BootloaderI2C.c ****                             packetBuffer[BootloaderI2C_DATA_ADDR] =
 800:.\Generated_Source\PSoC5/BootloaderI2C.c ****                                 (uint8)BootloaderI2C_ValidateBootloadable(btldrData);
 801:.\Generated_Source\PSoC5/BootloaderI2C.c **** 
 802:.\Generated_Source\PSoC5/BootloaderI2C.c ****                             packetBuffer[BootloaderI2C_DATA_ADDR + 1u] =
 803:.\Generated_Source\PSoC5/BootloaderI2C.c ****                                 (uint8)BootloaderI2C_MD_BTLDB_ACTIVE_VALUE(btldrData);
 804:.\Generated_Source\PSoC5/BootloaderI2C.c **** 
 805:.\Generated_Source\PSoC5/BootloaderI2C.c ****                             rspSize = 2u;
 806:.\Generated_Source\PSoC5/BootloaderI2C.c ****                             ackCode = CYRET_SUCCESS;
 807:.\Generated_Source\PSoC5/BootloaderI2C.c ****                         }
 808:.\Generated_Source\PSoC5/BootloaderI2C.c ****                         break;
 809:.\Generated_Source\PSoC5/BootloaderI2C.c **** 
 810:.\Generated_Source\PSoC5/BootloaderI2C.c ****                 #endif  /* (0u != BootloaderI2C_CMD_GET_APP_STATUS_AVAIL) */
 811:.\Generated_Source\PSoC5/BootloaderI2C.c **** 
 812:.\Generated_Source\PSoC5/BootloaderI2C.c ****             #endif  /* (0u != BootloaderI2C_DUAL_APP_BOOTLOADER) */
 813:.\Generated_Source\PSoC5/BootloaderI2C.c **** 
 814:.\Generated_Source\PSoC5/BootloaderI2C.c **** 
 815:.\Generated_Source\PSoC5/BootloaderI2C.c ****             /***************************************************************************
 816:.\Generated_Source\PSoC5/BootloaderI2C.c ****             *   Program / Erase row
 817:.\Generated_Source\PSoC5/BootloaderI2C.c ****             ***************************************************************************/
 818:.\Generated_Source\PSoC5/BootloaderI2C.c ****             case BootloaderI2C_COMMAND_PROGRAM:
 819:.\Generated_Source\PSoC5/BootloaderI2C.c **** 
 820:.\Generated_Source\PSoC5/BootloaderI2C.c ****             /* The btldrData variable holds Flash Array ID */
 821:.\Generated_Source\PSoC5/BootloaderI2C.c **** 
 822:.\Generated_Source\PSoC5/BootloaderI2C.c ****         #if (0u != BootloaderI2C_CMD_ERASE_ROW_AVAIL)
 823:.\Generated_Source\PSoC5/BootloaderI2C.c **** 
ARM GAS  C:\Users\bramamu\AppData\Local\Temp\cczceNxl.s 			page 32


 824:.\Generated_Source\PSoC5/BootloaderI2C.c ****             case BootloaderI2C_COMMAND_ERASE:
 825:.\Generated_Source\PSoC5/BootloaderI2C.c ****                 if (BootloaderI2C_COMMAND_ERASE == packetBuffer[BootloaderI2C_CMD_ADDR])
 931              		.loc 1 825 0
 932 0270 07F51873 		add	r3, r7, #608
 933 0274 5B78     		ldrb	r3, [r3, #1]	@ zero_extendqisi2
 934 0276 342B     		cmp	r3, #52
 935 0278 25D1     		bne	.L61
 826:.\Generated_Source\PSoC5/BootloaderI2C.c ****                 {
 827:.\Generated_Source\PSoC5/BootloaderI2C.c ****                     if ((BootloaderI2C_COMMUNICATION_STATE_ACTIVE == communicationState) && (pktSiz
 936              		.loc 1 827 0
 937 027a 97F8A533 		ldrb	r3, [r7, #933]	@ zero_extendqisi2
 938 027e 012B     		cmp	r3, #1
 939 0280 40F0CD81 		bne	.L48
 940              		.loc 1 827 0 is_stmt 0 discriminator 1
 941 0284 B7F8AA33 		ldrh	r3, [r7, #938]
 942 0288 032B     		cmp	r3, #3
 943 028a 40F0C881 		bne	.L48
 828:.\Generated_Source\PSoC5/BootloaderI2C.c ****                     {
 829:.\Generated_Source\PSoC5/BootloaderI2C.c ****                         #if(!CY_PSOC4)
 830:.\Generated_Source\PSoC5/BootloaderI2C.c ****                             if((btldrData >= BootloaderI2C_FIRST_EE_ARRAYID) &&
 944              		.loc 1 830 0 is_stmt 1
 945 028e 97F89933 		ldrb	r3, [r7, #921]	@ zero_extendqisi2
 946 0292 3F2B     		cmp	r3, #63
 947 0294 09D9     		bls	.L62
 831:.\Generated_Source\PSoC5/BootloaderI2C.c ****                                (btldrData <= BootloaderI2C_LAST_EE_ARRAYID))
 948              		.loc 1 831 0 discriminator 1
 949 0296 97F89933 		ldrb	r3, [r7, #921]	@ zero_extendqisi2
 830:.\Generated_Source\PSoC5/BootloaderI2C.c ****                             if((btldrData >= BootloaderI2C_FIRST_EE_ARRAYID) &&
 950              		.loc 1 830 0 discriminator 1
 951 029a 5BB2     		sxtb	r3, r3
 952 029c 002B     		cmp	r3, #0
 953 029e 04DB     		blt	.L62
 832:.\Generated_Source\PSoC5/BootloaderI2C.c ****                             {
 833:.\Generated_Source\PSoC5/BootloaderI2C.c ****                                 /* Size of EEPROM row */
 834:.\Generated_Source\PSoC5/BootloaderI2C.c ****                                 dataOffset = CY_EEPROM_SIZEOF_ROW;
 954              		.loc 1 834 0
 955 02a0 4FF01003 		mov	r3, #16
 956 02a4 A7F8A833 		strh	r3, [r7, #936]	@ movhi
 957 02a8 03E0     		b	.L63
 958              	.L62:
 835:.\Generated_Source\PSoC5/BootloaderI2C.c ****                             }
 836:.\Generated_Source\PSoC5/BootloaderI2C.c ****                             else
 837:.\Generated_Source\PSoC5/BootloaderI2C.c ****                             {
 838:.\Generated_Source\PSoC5/BootloaderI2C.c ****                                 /* Size of FLASH row (depends on ECC configuration) */
 839:.\Generated_Source\PSoC5/BootloaderI2C.c ****                                 dataOffset = BootloaderI2C_FROW_SIZE;
 959              		.loc 1 839 0
 960 02aa 4FF49073 		mov	r3, #288
 961 02ae A7F8A833 		strh	r3, [r7, #936]	@ movhi
 962              	.L63:
 840:.\Generated_Source\PSoC5/BootloaderI2C.c ****                             }
 841:.\Generated_Source\PSoC5/BootloaderI2C.c ****                         #else
 842:.\Generated_Source\PSoC5/BootloaderI2C.c ****                             /* Size of FLASH row (no ECC available) */
 843:.\Generated_Source\PSoC5/BootloaderI2C.c ****                             dataOffset = BootloaderI2C_FROW_SIZE;
 844:.\Generated_Source\PSoC5/BootloaderI2C.c ****                         #endif  /* (!CY_PSOC4) */
 845:.\Generated_Source\PSoC5/BootloaderI2C.c **** 
 846:.\Generated_Source\PSoC5/BootloaderI2C.c ****                         #if(CY_PSOC3)
 847:.\Generated_Source\PSoC5/BootloaderI2C.c ****                             (void) memset(dataBuffer, (char8) 0, (int16) dataOffset);
ARM GAS  C:\Users\bramamu\AppData\Local\Temp\cczceNxl.s 			page 33


 848:.\Generated_Source\PSoC5/BootloaderI2C.c ****                         #else
 849:.\Generated_Source\PSoC5/BootloaderI2C.c ****                             (void) memset(dataBuffer, 0, dataOffset);
 963              		.loc 1 849 0
 964 02b2 B7F8A833 		ldrh	r3, [r7, #936]
 965 02b6 07F59A72 		add	r2, r7, #308
 966 02ba 1046     		mov	r0, r2
 967 02bc 4FF00001 		mov	r1, #0
 968 02c0 1A46     		mov	r2, r3
 969 02c2 FFF7FEFF 		bl	memset
 970              	.L61:
 850:.\Generated_Source\PSoC5/BootloaderI2C.c ****                         #endif  /* (CY_PSOC3) */
 851:.\Generated_Source\PSoC5/BootloaderI2C.c ****                     }
 852:.\Generated_Source\PSoC5/BootloaderI2C.c ****                     else
 853:.\Generated_Source\PSoC5/BootloaderI2C.c ****                     {
 854:.\Generated_Source\PSoC5/BootloaderI2C.c ****                         break;
 855:.\Generated_Source\PSoC5/BootloaderI2C.c ****                     }
 856:.\Generated_Source\PSoC5/BootloaderI2C.c ****                 }
 857:.\Generated_Source\PSoC5/BootloaderI2C.c **** 
 858:.\Generated_Source\PSoC5/BootloaderI2C.c ****         #endif  /* (0u != BootloaderI2C_CMD_ERASE_ROW_AVAIL) */
 859:.\Generated_Source\PSoC5/BootloaderI2C.c **** 
 860:.\Generated_Source\PSoC5/BootloaderI2C.c **** 
 861:.\Generated_Source\PSoC5/BootloaderI2C.c ****                 if((BootloaderI2C_COMMUNICATION_STATE_ACTIVE == communicationState) && (pktSize >= 
 971              		.loc 1 861 0
 972 02c6 97F8A533 		ldrb	r3, [r7, #933]	@ zero_extendqisi2
 973 02ca 012B     		cmp	r3, #1
 974 02cc 40F09E81 		bne	.L88
 975              		.loc 1 861 0 is_stmt 0 discriminator 1
 976 02d0 B7F8AA33 		ldrh	r3, [r7, #938]
 977 02d4 022B     		cmp	r3, #2
 978 02d6 40F29981 		bls	.L88
 862:.\Generated_Source\PSoC5/BootloaderI2C.c ****                 {
 863:.\Generated_Source\PSoC5/BootloaderI2C.c **** 
 864:.\Generated_Source\PSoC5/BootloaderI2C.c ****                     /* The command may be sent along with the last block of data, to program the ro
 865:.\Generated_Source\PSoC5/BootloaderI2C.c ****                     #if(CY_PSOC3)
 866:.\Generated_Source\PSoC5/BootloaderI2C.c ****                         (void) memcpy(&dataBuffer[dataOffset],
 867:.\Generated_Source\PSoC5/BootloaderI2C.c ****                                       &packetBuffer[BootloaderI2C_DATA_ADDR + 3u],
 868:.\Generated_Source\PSoC5/BootloaderI2C.c ****                                       ( int16 )pktSize - 3);
 869:.\Generated_Source\PSoC5/BootloaderI2C.c ****                     #else
 870:.\Generated_Source\PSoC5/BootloaderI2C.c ****                         (void) memcpy(&dataBuffer[dataOffset],
 979              		.loc 1 870 0 is_stmt 1
 980 02da B7F8A833 		ldrh	r3, [r7, #936]
 981 02de 07F59A72 		add	r2, r7, #308
 982 02e2 D118     		adds	r1, r2, r3
 983 02e4 B7F8AA33 		ldrh	r3, [r7, #938]
 984 02e8 A3F10303 		sub	r3, r3, #3
 871:.\Generated_Source\PSoC5/BootloaderI2C.c ****                                       &packetBuffer[BootloaderI2C_DATA_ADDR + 3u],
 985              		.loc 1 871 0
 986 02ec 07F51872 		add	r2, r7, #608
 987 02f0 02F10702 		add	r2, r2, #7
 870:.\Generated_Source\PSoC5/BootloaderI2C.c ****                         (void) memcpy(&dataBuffer[dataOffset],
 988              		.loc 1 870 0
 989 02f4 0846     		mov	r0, r1
 990 02f6 1146     		mov	r1, r2
 991 02f8 1A46     		mov	r2, r3
 992 02fa FFF7FEFF 		bl	memcpy
 872:.\Generated_Source\PSoC5/BootloaderI2C.c ****                                       pktSize - 3u);
 873:.\Generated_Source\PSoC5/BootloaderI2C.c ****                     #endif  /* (CY_PSOC3) */
ARM GAS  C:\Users\bramamu\AppData\Local\Temp\cczceNxl.s 			page 34


 874:.\Generated_Source\PSoC5/BootloaderI2C.c **** 
 875:.\Generated_Source\PSoC5/BootloaderI2C.c ****                     dataOffset += (pktSize - 3u);
 993              		.loc 1 875 0
 994 02fe B7F8A823 		ldrh	r2, [r7, #936]	@ movhi
 995 0302 B7F8AA33 		ldrh	r3, [r7, #938]	@ movhi
 996 0306 D318     		adds	r3, r2, r3
 997 0308 9BB2     		uxth	r3, r3
 998 030a A3F10303 		sub	r3, r3, #3
 999 030e A7F8A833 		strh	r3, [r7, #936]	@ movhi
 876:.\Generated_Source\PSoC5/BootloaderI2C.c **** 
 877:.\Generated_Source\PSoC5/BootloaderI2C.c ****                     #if(!CY_PSOC4)
 878:.\Generated_Source\PSoC5/BootloaderI2C.c ****                         if((btldrData >= BootloaderI2C_FIRST_EE_ARRAYID) &&
 1000              		.loc 1 878 0
 1001 0312 97F89933 		ldrb	r3, [r7, #921]	@ zero_extendqisi2
 1002 0316 3F2B     		cmp	r3, #63
 1003 0318 0BD9     		bls	.L65
 879:.\Generated_Source\PSoC5/BootloaderI2C.c ****                            (btldrData <= BootloaderI2C_LAST_EE_ARRAYID))
 1004              		.loc 1 879 0 discriminator 1
 1005 031a 97F89933 		ldrb	r3, [r7, #921]	@ zero_extendqisi2
 878:.\Generated_Source\PSoC5/BootloaderI2C.c ****                         if((btldrData >= BootloaderI2C_FIRST_EE_ARRAYID) &&
 1006              		.loc 1 878 0 discriminator 1
 1007 031e 5BB2     		sxtb	r3, r3
 1008 0320 002B     		cmp	r3, #0
 1009 0322 06DB     		blt	.L65
 880:.\Generated_Source\PSoC5/BootloaderI2C.c ****                         {
 881:.\Generated_Source\PSoC5/BootloaderI2C.c **** 
 882:.\Generated_Source\PSoC5/BootloaderI2C.c ****                             CyEEPROM_Start();
 1010              		.loc 1 882 0
 1011 0324 FFF7FEFF 		bl	CyEEPROM_Start
 883:.\Generated_Source\PSoC5/BootloaderI2C.c **** 
 884:.\Generated_Source\PSoC5/BootloaderI2C.c ****                             /* Size of EEPROM row */
 885:.\Generated_Source\PSoC5/BootloaderI2C.c ****                             pktSize = CY_EEPROM_SIZEOF_ROW;
 1012              		.loc 1 885 0
 1013 0328 4FF01003 		mov	r3, #16
 1014 032c A7F8AA33 		strh	r3, [r7, #938]	@ movhi
 1015 0330 03E0     		b	.L66
 1016              	.L65:
 886:.\Generated_Source\PSoC5/BootloaderI2C.c ****                         }
 887:.\Generated_Source\PSoC5/BootloaderI2C.c ****                         else
 888:.\Generated_Source\PSoC5/BootloaderI2C.c ****                         {
 889:.\Generated_Source\PSoC5/BootloaderI2C.c ****                             /* Size of FLASH row (depends on ECC configuration) */
 890:.\Generated_Source\PSoC5/BootloaderI2C.c ****                             pktSize = BootloaderI2C_FROW_SIZE;
 1017              		.loc 1 890 0
 1018 0332 4FF49073 		mov	r3, #288
 1019 0336 A7F8AA33 		strh	r3, [r7, #938]	@ movhi
 1020              	.L66:
 891:.\Generated_Source\PSoC5/BootloaderI2C.c ****                         }
 892:.\Generated_Source\PSoC5/BootloaderI2C.c ****                     #else
 893:.\Generated_Source\PSoC5/BootloaderI2C.c ****                         /* Size of FLASH row (no ECC available) */
 894:.\Generated_Source\PSoC5/BootloaderI2C.c ****                         pktSize = BootloaderI2C_FROW_SIZE;
 895:.\Generated_Source\PSoC5/BootloaderI2C.c ****                     #endif  /* (!CY_PSOC4) */
 896:.\Generated_Source\PSoC5/BootloaderI2C.c **** 
 897:.\Generated_Source\PSoC5/BootloaderI2C.c **** 
 898:.\Generated_Source\PSoC5/BootloaderI2C.c ****                     /* Check if we have all data to program */
 899:.\Generated_Source\PSoC5/BootloaderI2C.c ****                     if(dataOffset == pktSize)
 1021              		.loc 1 899 0
 1022 033a B7F8A823 		ldrh	r2, [r7, #936]
ARM GAS  C:\Users\bramamu\AppData\Local\Temp\cczceNxl.s 			page 35


 1023 033e B7F8AA33 		ldrh	r3, [r7, #938]
 1024 0342 9A42     		cmp	r2, r3
 1025 0344 40D1     		bne	.L67
 900:.\Generated_Source\PSoC5/BootloaderI2C.c ****                     {
 901:.\Generated_Source\PSoC5/BootloaderI2C.c ****                         /* Get FLASH/EEPROM row number */
 902:.\Generated_Source\PSoC5/BootloaderI2C.c ****                         dataOffset = ((uint16)((uint16)packetBuffer[BootloaderI2C_DATA_ADDR + 2u] <
 1026              		.loc 1 902 0
 1027 0346 07F51873 		add	r3, r7, #608
 1028 034a 9B79     		ldrb	r3, [r3, #6]	@ zero_extendqisi2
 1029 034c 4FEA0323 		lsl	r3, r3, #8
 1030 0350 9AB2     		uxth	r2, r3
 903:.\Generated_Source\PSoC5/BootloaderI2C.c ****                                               packetBuffer[BootloaderI2C_DATA_ADDR + 1u];
 1031              		.loc 1 903 0
 1032 0352 07F51873 		add	r3, r7, #608
 1033 0356 5B79     		ldrb	r3, [r3, #5]	@ zero_extendqisi2
 902:.\Generated_Source\PSoC5/BootloaderI2C.c ****                         dataOffset = ((uint16)((uint16)packetBuffer[BootloaderI2C_DATA_ADDR + 2u] <
 1034              		.loc 1 902 0
 1035 0358 1343     		orrs	r3, r3, r2
 1036 035a A7F8A833 		strh	r3, [r7, #936]	@ movhi
 904:.\Generated_Source\PSoC5/BootloaderI2C.c **** 
 905:.\Generated_Source\PSoC5/BootloaderI2C.c ****                         #if(!CY_PSOC4)
 906:.\Generated_Source\PSoC5/BootloaderI2C.c ****                             if(btldrData <= BootloaderI2C_LAST_FLASH_ARRAYID)
 1037              		.loc 1 906 0
 1038 035e 97F89933 		ldrb	r3, [r7, #921]	@ zero_extendqisi2
 1039 0362 3F2B     		cmp	r3, #63
 1040 0364 1BD8     		bhi	.L68
 907:.\Generated_Source\PSoC5/BootloaderI2C.c ****                             {
 908:.\Generated_Source\PSoC5/BootloaderI2C.c ****                         #endif  /* (!CY_PSOC4) */
 909:.\Generated_Source\PSoC5/BootloaderI2C.c **** 
 910:.\Generated_Source\PSoC5/BootloaderI2C.c ****                         #if(0u == BootloaderI2C_DUAL_APP_BOOTLOADER)
 911:.\Generated_Source\PSoC5/BootloaderI2C.c **** 
 912:.\Generated_Source\PSoC5/BootloaderI2C.c ****                             if(0u == clearedMetaData)
 1041              		.loc 1 912 0
 1042 0366 97F8A633 		ldrb	r3, [r7, #934]	@ zero_extendqisi2
 1043 036a 002B     		cmp	r3, #0
 1044 036c 17D1     		bne	.L68
 1045              	.LBB5:
 913:.\Generated_Source\PSoC5/BootloaderI2C.c ****                             {
 914:.\Generated_Source\PSoC5/BootloaderI2C.c ****                                 /* Metadata section must be filled with zeroes */
 915:.\Generated_Source\PSoC5/BootloaderI2C.c **** 
 916:.\Generated_Source\PSoC5/BootloaderI2C.c ****                                 uint8 erase[BootloaderI2C_FROW_SIZE];
 917:.\Generated_Source\PSoC5/BootloaderI2C.c **** 
 918:.\Generated_Source\PSoC5/BootloaderI2C.c ****                                 #if(CY_PSOC3)
 919:.\Generated_Source\PSoC5/BootloaderI2C.c ****                                     (void) memset(erase, (char8) 0, (int16) BootloaderI2C_FROW_SIZE
 920:.\Generated_Source\PSoC5/BootloaderI2C.c ****                                 #else
 921:.\Generated_Source\PSoC5/BootloaderI2C.c ****                                     (void) memset(erase, 0, BootloaderI2C_FROW_SIZE);
 1046              		.loc 1 921 0
 1047 036e 07F10C03 		add	r3, r7, #12
 1048 0372 1846     		mov	r0, r3
 1049 0374 4FF00001 		mov	r1, #0
 1050 0378 4FF49072 		mov	r2, #288
 1051 037c FFF7FEFF 		bl	memset
 922:.\Generated_Source\PSoC5/BootloaderI2C.c ****                                 #endif  /* (CY_PSOC3) */
 923:.\Generated_Source\PSoC5/BootloaderI2C.c **** 
 924:.\Generated_Source\PSoC5/BootloaderI2C.c ****                                 #if(CY_PSOC4)
 925:.\Generated_Source\PSoC5/BootloaderI2C.c ****                                     (void) CySysFlashWriteRow(BootloaderI2C_MD_ROW, erase);
 926:.\Generated_Source\PSoC5/BootloaderI2C.c ****                                 #else
ARM GAS  C:\Users\bramamu\AppData\Local\Temp\cczceNxl.s 			page 36


 927:.\Generated_Source\PSoC5/BootloaderI2C.c ****                                     (void) CyWriteRowFull((uint8)  BootloaderI2C_MD_FLASH_ARRAY_NUM
 928:.\Generated_Source\PSoC5/BootloaderI2C.c ****                                                           (uint16) BootloaderI2C_MD_ROW,
 929:.\Generated_Source\PSoC5/BootloaderI2C.c ****                                                                     erase,
 1052              		.loc 1 929 0
 1053 0380 07F10C03 		add	r3, r7, #12
 927:.\Generated_Source\PSoC5/BootloaderI2C.c ****                                     (void) CyWriteRowFull((uint8)  BootloaderI2C_MD_FLASH_ARRAY_NUM
 1054              		.loc 1 927 0
 1055 0384 4FF00300 		mov	r0, #3
 1056 0388 4FF0FF01 		mov	r1, #255
 1057 038c 1A46     		mov	r2, r3
 1058 038e 4FF49073 		mov	r3, #288
 1059 0392 FFF7FEFF 		bl	CyWriteRowFull
 930:.\Generated_Source\PSoC5/BootloaderI2C.c ****                                                                     BootloaderI2C_FROW_SIZE);
 931:.\Generated_Source\PSoC5/BootloaderI2C.c ****                                 #endif  /* (CY_PSOC4) */
 932:.\Generated_Source\PSoC5/BootloaderI2C.c **** 
 933:.\Generated_Source\PSoC5/BootloaderI2C.c ****                                 /* Set up flag that metadata was cleared */
 934:.\Generated_Source\PSoC5/BootloaderI2C.c ****                                 clearedMetaData = 1u;
 1060              		.loc 1 934 0
 1061 0396 4FF00103 		mov	r3, #1
 1062 039a 87F8A633 		strb	r3, [r7, #934]
 1063              	.L68:
 1064              	.LBE5:
 935:.\Generated_Source\PSoC5/BootloaderI2C.c ****                             }
 936:.\Generated_Source\PSoC5/BootloaderI2C.c **** 
 937:.\Generated_Source\PSoC5/BootloaderI2C.c ****                         #else
 938:.\Generated_Source\PSoC5/BootloaderI2C.c **** 
 939:.\Generated_Source\PSoC5/BootloaderI2C.c ****                             if(BootloaderI2C_activeApp < BootloaderI2C_MD_BTLDB_ACTIVE_NONE)
 940:.\Generated_Source\PSoC5/BootloaderI2C.c ****                             {
 941:.\Generated_Source\PSoC5/BootloaderI2C.c ****                                 /* First active bootloadable application row */
 942:.\Generated_Source\PSoC5/BootloaderI2C.c ****                                 uint16 firstRow = (uint16) 1u +
 943:.\Generated_Source\PSoC5/BootloaderI2C.c ****                                     (uint16) BootloaderI2C_GetMetadata(BootloaderI2C_GET_METADATA_B
 944:.\Generated_Source\PSoC5/BootloaderI2C.c ****                                                                           BootloaderI2C_activeApp);
 945:.\Generated_Source\PSoC5/BootloaderI2C.c **** 
 946:.\Generated_Source\PSoC5/BootloaderI2C.c ****                                 #if(CY_PSOC4)
 947:.\Generated_Source\PSoC5/BootloaderI2C.c ****                                     uint16 row = dataOffset;
 948:.\Generated_Source\PSoC5/BootloaderI2C.c ****                                 #else
 949:.\Generated_Source\PSoC5/BootloaderI2C.c ****                                     uint16 row = (uint16)(btldrData * (CYDEV_FLS_SECTOR_SIZE / CYDE
 950:.\Generated_Source\PSoC5/BootloaderI2C.c ****                                                   dataOffset;
 951:.\Generated_Source\PSoC5/BootloaderI2C.c ****                                 #endif  /* (CY_PSOC4) */
 952:.\Generated_Source\PSoC5/BootloaderI2C.c **** 
 953:.\Generated_Source\PSoC5/BootloaderI2C.c **** 
 954:.\Generated_Source\PSoC5/BootloaderI2C.c ****                                 /******************************************************************
 955:.\Generated_Source\PSoC5/BootloaderI2C.c ****                                 * Last row is equal to the first row plus the number of rows availa
 956:.\Generated_Source\PSoC5/BootloaderI2C.c ****                                 * app. To compute this, we first subtract the number of appliaction
 957:.\Generated_Source\PSoC5/BootloaderI2C.c ****                                 * the total flash rows: (CY_FLASH_NUMBER_ROWS - 2u).
 958:.\Generated_Source\PSoC5/BootloaderI2C.c ****                                 *
 959:.\Generated_Source\PSoC5/BootloaderI2C.c ****                                 * Then subtract off the first row:
 960:.\Generated_Source\PSoC5/BootloaderI2C.c ****                                 * App Rows = (CY_FLASH_NUMBER_ROWS - 2u - firstRow)
 961:.\Generated_Source\PSoC5/BootloaderI2C.c ****                                 * Then divide that number by the number of application that must fi
 962:.\Generated_Source\PSoC5/BootloaderI2C.c ****                                 * space, if we are app1 then that number is 2, if app2 then 1.  Our
 963:.\Generated_Source\PSoC5/BootloaderI2C.c ****                                 * then: (2u - BootloaderI2C_activeApp).
 964:.\Generated_Source\PSoC5/BootloaderI2C.c ****                                 *
 965:.\Generated_Source\PSoC5/BootloaderI2C.c ****                                 * Adding this number to firstRow gives the address right beyond our
 966:.\Generated_Source\PSoC5/BootloaderI2C.c ****                                 * so we subtract 1.
 967:.\Generated_Source\PSoC5/BootloaderI2C.c ****                                 *******************************************************************
 968:.\Generated_Source\PSoC5/BootloaderI2C.c ****                                 uint16 lastRow = (firstRow - 1u) +
 969:.\Generated_Source\PSoC5/BootloaderI2C.c ****                                                   ((uint16)((CYDEV_FLASH_SIZE / CYDEV_FLS_ROW_SIZE)
ARM GAS  C:\Users\bramamu\AppData\Local\Temp\cczceNxl.s 			page 37


 970:.\Generated_Source\PSoC5/BootloaderI2C.c ****                                                   ((uint16)2u - (uint16)BootloaderI2C_activeApp));
 971:.\Generated_Source\PSoC5/BootloaderI2C.c **** 
 972:.\Generated_Source\PSoC5/BootloaderI2C.c **** 
 973:.\Generated_Source\PSoC5/BootloaderI2C.c ****                                 /******************************************************************
 974:.\Generated_Source\PSoC5/BootloaderI2C.c ****                                 * Check to see if the row to program is within the range of the act
 975:.\Generated_Source\PSoC5/BootloaderI2C.c ****                                 * application, or if it maches the active application's metadata ro
 976:.\Generated_Source\PSoC5/BootloaderI2C.c ****                                 * refuse to program as it would corrupt the active app.
 977:.\Generated_Source\PSoC5/BootloaderI2C.c ****                                 *******************************************************************
 978:.\Generated_Source\PSoC5/BootloaderI2C.c ****                                 if(((row >= firstRow) && (row <= lastRow)) ||
 979:.\Generated_Source\PSoC5/BootloaderI2C.c ****                                    ((btldrData == BootloaderI2C_MD_FLASH_ARRAY_NUM) &&
 980:.\Generated_Source\PSoC5/BootloaderI2C.c ****                                    (dataOffset == BootloaderI2C_MD_ROW_NUM(BootloaderI2C_activeApp)
 981:.\Generated_Source\PSoC5/BootloaderI2C.c ****                                 {
 982:.\Generated_Source\PSoC5/BootloaderI2C.c ****                                     ackCode = BootloaderI2C_ERR_ACTIVE;
 983:.\Generated_Source\PSoC5/BootloaderI2C.c ****                                     dataOffset = 0u;
 984:.\Generated_Source\PSoC5/BootloaderI2C.c ****                                     break;
 985:.\Generated_Source\PSoC5/BootloaderI2C.c ****                                 }
 986:.\Generated_Source\PSoC5/BootloaderI2C.c ****                             }
 987:.\Generated_Source\PSoC5/BootloaderI2C.c **** 
 988:.\Generated_Source\PSoC5/BootloaderI2C.c ****                         #endif  /* (0u == BootloaderI2C_DUAL_APP_BOOTLOADER) */
 989:.\Generated_Source\PSoC5/BootloaderI2C.c **** 
 990:.\Generated_Source\PSoC5/BootloaderI2C.c ****                         #if(!CY_PSOC4)
 991:.\Generated_Source\PSoC5/BootloaderI2C.c ****                             }
 992:.\Generated_Source\PSoC5/BootloaderI2C.c ****                         #endif  /* (!CY_PSOC4) */
 993:.\Generated_Source\PSoC5/BootloaderI2C.c **** 
 994:.\Generated_Source\PSoC5/BootloaderI2C.c ****                         #if(CY_PSOC4)
 995:.\Generated_Source\PSoC5/BootloaderI2C.c **** 
 996:.\Generated_Source\PSoC5/BootloaderI2C.c ****                             ackCode = (CYRET_SUCCESS != CySysFlashWriteRow((uint32) dataOffset, dat
 997:.\Generated_Source\PSoC5/BootloaderI2C.c ****                                 ? BootloaderI2C_ERR_ROW \
 998:.\Generated_Source\PSoC5/BootloaderI2C.c ****                                 : CYRET_SUCCESS;
 999:.\Generated_Source\PSoC5/BootloaderI2C.c **** 
1000:.\Generated_Source\PSoC5/BootloaderI2C.c ****                         #else
1001:.\Generated_Source\PSoC5/BootloaderI2C.c **** 
1002:.\Generated_Source\PSoC5/BootloaderI2C.c ****                             ackCode = (CYRET_SUCCESS != CyWriteRowFull(btldrData, dataOffset, dataB
 1065              		.loc 1 1002 0
 1066 039e 97F89903 		ldrb	r0, [r7, #921]	@ zero_extendqisi2
 1067 03a2 B7F8A813 		ldrh	r1, [r7, #936]
 1068 03a6 07F59A72 		add	r2, r7, #308
 1069 03aa B7F8AA33 		ldrh	r3, [r7, #938]
 1070 03ae FFF7FEFF 		bl	CyWriteRowFull
 1071 03b2 0346     		mov	r3, r0
 1072 03b4 002B     		cmp	r3, #0
 1073 03b6 02D0     		beq	.L69
 1074              		.loc 1 1002 0 is_stmt 0 discriminator 1
 1075 03b8 4FF00A03 		mov	r3, #10
 1076 03bc 01E0     		b	.L70
 1077              	.L69:
 1078              		.loc 1 1002 0 discriminator 2
 1079 03be 4FF00003 		mov	r3, #0
 1080              	.L70:
 1081              		.loc 1 1002 0 discriminator 3
 1082 03c2 87F8AD33 		strb	r3, [r7, #941]
 1083 03c6 03E0     		b	.L71
 1084              	.L67:
1003:.\Generated_Source\PSoC5/BootloaderI2C.c ****                                 ? BootloaderI2C_ERR_ROW \
1004:.\Generated_Source\PSoC5/BootloaderI2C.c ****                                 : CYRET_SUCCESS;
1005:.\Generated_Source\PSoC5/BootloaderI2C.c **** 
1006:.\Generated_Source\PSoC5/BootloaderI2C.c ****                         #endif  /* (CY_PSOC4) */
ARM GAS  C:\Users\bramamu\AppData\Local\Temp\cczceNxl.s 			page 38


1007:.\Generated_Source\PSoC5/BootloaderI2C.c **** 
1008:.\Generated_Source\PSoC5/BootloaderI2C.c ****                     }
1009:.\Generated_Source\PSoC5/BootloaderI2C.c ****                     else
1010:.\Generated_Source\PSoC5/BootloaderI2C.c ****                     {
1011:.\Generated_Source\PSoC5/BootloaderI2C.c ****                         ackCode = BootloaderI2C_ERR_LENGTH;
 1085              		.loc 1 1011 0 is_stmt 1
 1086 03c8 4FF00303 		mov	r3, #3
 1087 03cc 87F8AD33 		strb	r3, [r7, #941]
 1088              	.L71:
1012:.\Generated_Source\PSoC5/BootloaderI2C.c ****                     }
1013:.\Generated_Source\PSoC5/BootloaderI2C.c **** 
1014:.\Generated_Source\PSoC5/BootloaderI2C.c ****                     dataOffset = 0u;
 1089              		.loc 1 1014 0
 1090 03d0 4FF00003 		mov	r3, #0
 1091 03d4 A7F8A833 		strh	r3, [r7, #936]	@ movhi
1015:.\Generated_Source\PSoC5/BootloaderI2C.c ****                 }
1016:.\Generated_Source\PSoC5/BootloaderI2C.c ****                 break;
 1092              		.loc 1 1016 0
 1093 03d8 18E1     		b	.L88
 1094              	.L53:
1017:.\Generated_Source\PSoC5/BootloaderI2C.c **** 
1018:.\Generated_Source\PSoC5/BootloaderI2C.c **** 
1019:.\Generated_Source\PSoC5/BootloaderI2C.c ****             /***************************************************************************
1020:.\Generated_Source\PSoC5/BootloaderI2C.c ****             *   Sync bootloader
1021:.\Generated_Source\PSoC5/BootloaderI2C.c ****             ***************************************************************************/
1022:.\Generated_Source\PSoC5/BootloaderI2C.c ****             #if(0u != BootloaderI2C_CMD_SYNC_BOOTLOADER_AVAIL)
1023:.\Generated_Source\PSoC5/BootloaderI2C.c **** 
1024:.\Generated_Source\PSoC5/BootloaderI2C.c ****             case BootloaderI2C_COMMAND_SYNC:
1025:.\Generated_Source\PSoC5/BootloaderI2C.c **** 
1026:.\Generated_Source\PSoC5/BootloaderI2C.c ****                 if(BootloaderI2C_COMMUNICATION_STATE_ACTIVE == communicationState)
 1095              		.loc 1 1026 0
 1096 03da 97F8A533 		ldrb	r3, [r7, #933]	@ zero_extendqisi2
 1097 03de 012B     		cmp	r3, #1
 1098 03e0 40F01681 		bne	.L89
1027:.\Generated_Source\PSoC5/BootloaderI2C.c ****                 {
1028:.\Generated_Source\PSoC5/BootloaderI2C.c ****                     /* If something failed the host would send this command to reset the bootloader
1029:.\Generated_Source\PSoC5/BootloaderI2C.c ****                     dataOffset = 0u;
 1099              		.loc 1 1029 0
 1100 03e4 4FF00003 		mov	r3, #0
 1101 03e8 A7F8A833 		strh	r3, [r7, #936]	@ movhi
1030:.\Generated_Source\PSoC5/BootloaderI2C.c **** 
1031:.\Generated_Source\PSoC5/BootloaderI2C.c ****                     /* Don't ack the packet, just get ready to accept the next one */
1032:.\Generated_Source\PSoC5/BootloaderI2C.c ****                     continue;
 1102              		.loc 1 1032 0
 1103 03ec 24E1     		b	.L42
 1104              	.L54:
1033:.\Generated_Source\PSoC5/BootloaderI2C.c ****                 }
1034:.\Generated_Source\PSoC5/BootloaderI2C.c ****                 break;
1035:.\Generated_Source\PSoC5/BootloaderI2C.c **** 
1036:.\Generated_Source\PSoC5/BootloaderI2C.c ****             #endif  /* (0u != BootloaderI2C_CMD_SYNC_BOOTLOADER_AVAIL) */
1037:.\Generated_Source\PSoC5/BootloaderI2C.c **** 
1038:.\Generated_Source\PSoC5/BootloaderI2C.c **** 
1039:.\Generated_Source\PSoC5/BootloaderI2C.c ****             /***************************************************************************
1040:.\Generated_Source\PSoC5/BootloaderI2C.c ****             *   Set active application
1041:.\Generated_Source\PSoC5/BootloaderI2C.c ****             ***************************************************************************/
1042:.\Generated_Source\PSoC5/BootloaderI2C.c ****             #if(0u != BootloaderI2C_DUAL_APP_BOOTLOADER)
1043:.\Generated_Source\PSoC5/BootloaderI2C.c **** 
ARM GAS  C:\Users\bramamu\AppData\Local\Temp\cczceNxl.s 			page 39


1044:.\Generated_Source\PSoC5/BootloaderI2C.c ****                 case BootloaderI2C_COMMAND_APP_ACTIVE:
1045:.\Generated_Source\PSoC5/BootloaderI2C.c **** 
1046:.\Generated_Source\PSoC5/BootloaderI2C.c ****                     if((BootloaderI2C_COMMUNICATION_STATE_ACTIVE == communicationState) && (pktSize
1047:.\Generated_Source\PSoC5/BootloaderI2C.c ****                     {
1048:.\Generated_Source\PSoC5/BootloaderI2C.c ****                         if(CYRET_SUCCESS == BootloaderI2C_ValidateBootloadable(btldrData))
1049:.\Generated_Source\PSoC5/BootloaderI2C.c ****                         {
1050:.\Generated_Source\PSoC5/BootloaderI2C.c ****                             uint8 CYDATA idx;
1051:.\Generated_Source\PSoC5/BootloaderI2C.c **** 
1052:.\Generated_Source\PSoC5/BootloaderI2C.c ****                             for(idx = 0u; idx < BootloaderI2C_MAX_NUM_OF_BTLDB; idx++)
1053:.\Generated_Source\PSoC5/BootloaderI2C.c ****                             {
1054:.\Generated_Source\PSoC5/BootloaderI2C.c ****                                 BootloaderI2C_SetFlashByte((uint32) BootloaderI2C_MD_BTLDB_ACTIVE_O
1055:.\Generated_Source\PSoC5/BootloaderI2C.c ****                                                               (uint8 )(idx == btldrData));
1056:.\Generated_Source\PSoC5/BootloaderI2C.c ****                             }
1057:.\Generated_Source\PSoC5/BootloaderI2C.c ****                             BootloaderI2C_activeApp = btldrData;
1058:.\Generated_Source\PSoC5/BootloaderI2C.c ****                             ackCode = CYRET_SUCCESS;
1059:.\Generated_Source\PSoC5/BootloaderI2C.c ****                         }
1060:.\Generated_Source\PSoC5/BootloaderI2C.c ****                         else
1061:.\Generated_Source\PSoC5/BootloaderI2C.c ****                         {
1062:.\Generated_Source\PSoC5/BootloaderI2C.c ****                             ackCode = BootloaderI2C_ERR_APP;
1063:.\Generated_Source\PSoC5/BootloaderI2C.c ****                         }
1064:.\Generated_Source\PSoC5/BootloaderI2C.c ****                     }
1065:.\Generated_Source\PSoC5/BootloaderI2C.c ****                     break;
1066:.\Generated_Source\PSoC5/BootloaderI2C.c **** 
1067:.\Generated_Source\PSoC5/BootloaderI2C.c ****             #endif  /* (0u != BootloaderI2C_DUAL_APP_BOOTLOADER) */
1068:.\Generated_Source\PSoC5/BootloaderI2C.c **** 
1069:.\Generated_Source\PSoC5/BootloaderI2C.c **** 
1070:.\Generated_Source\PSoC5/BootloaderI2C.c ****             /***************************************************************************
1071:.\Generated_Source\PSoC5/BootloaderI2C.c ****             *   Send data
1072:.\Generated_Source\PSoC5/BootloaderI2C.c ****             ***************************************************************************/
1073:.\Generated_Source\PSoC5/BootloaderI2C.c ****             #if (0u != BootloaderI2C_CMD_SEND_DATA_AVAIL)
1074:.\Generated_Source\PSoC5/BootloaderI2C.c **** 
1075:.\Generated_Source\PSoC5/BootloaderI2C.c ****                 case BootloaderI2C_COMMAND_DATA:
1076:.\Generated_Source\PSoC5/BootloaderI2C.c **** 
1077:.\Generated_Source\PSoC5/BootloaderI2C.c ****                     if(BootloaderI2C_COMMUNICATION_STATE_ACTIVE == communicationState)
 1105              		.loc 1 1077 0
 1106 03ee 97F8A533 		ldrb	r3, [r7, #933]	@ zero_extendqisi2
 1107 03f2 012B     		cmp	r3, #1
 1108 03f4 40F00E81 		bne	.L90
1078:.\Generated_Source\PSoC5/BootloaderI2C.c ****                     {
1079:.\Generated_Source\PSoC5/BootloaderI2C.c ****                         /*  Make sure that dataOffset is valid before copying the data */
1080:.\Generated_Source\PSoC5/BootloaderI2C.c ****                         if((dataOffset + pktSize) <= BootloaderI2C_SIZEOF_COMMAND_BUFFER)
 1109              		.loc 1 1080 0
 1110 03f8 B7F8A823 		ldrh	r2, [r7, #936]
 1111 03fc B7F8AA33 		ldrh	r3, [r7, #938]
 1112 0400 D318     		adds	r3, r2, r3
 1113 0402 B3F5967F 		cmp	r3, #300
 1114 0406 1BD8     		bhi	.L74
1081:.\Generated_Source\PSoC5/BootloaderI2C.c ****                         {
1082:.\Generated_Source\PSoC5/BootloaderI2C.c ****                             ackCode = CYRET_SUCCESS;
 1115              		.loc 1 1082 0
 1116 0408 4FF00003 		mov	r3, #0
 1117 040c 87F8AD33 		strb	r3, [r7, #941]
1083:.\Generated_Source\PSoC5/BootloaderI2C.c **** 
1084:.\Generated_Source\PSoC5/BootloaderI2C.c ****                             #if(CY_PSOC3)
1085:.\Generated_Source\PSoC5/BootloaderI2C.c ****                                 (void) memcpy(&dataBuffer[dataOffset],
1086:.\Generated_Source\PSoC5/BootloaderI2C.c ****                                               &packetBuffer[BootloaderI2C_DATA_ADDR],
1087:.\Generated_Source\PSoC5/BootloaderI2C.c ****                                               ( int16 )pktSize);
ARM GAS  C:\Users\bramamu\AppData\Local\Temp\cczceNxl.s 			page 40


1088:.\Generated_Source\PSoC5/BootloaderI2C.c ****                             #else
1089:.\Generated_Source\PSoC5/BootloaderI2C.c ****                                 (void) memcpy(&dataBuffer[dataOffset],
 1118              		.loc 1 1089 0
 1119 0410 B7F8A833 		ldrh	r3, [r7, #936]
 1120 0414 07F59A72 		add	r2, r7, #308
 1121 0418 D118     		adds	r1, r2, r3
 1122 041a B7F8AA33 		ldrh	r3, [r7, #938]
1090:.\Generated_Source\PSoC5/BootloaderI2C.c ****                                               &packetBuffer[BootloaderI2C_DATA_ADDR],
 1123              		.loc 1 1090 0
 1124 041e 07F51872 		add	r2, r7, #608
 1125 0422 02F10402 		add	r2, r2, #4
1089:.\Generated_Source\PSoC5/BootloaderI2C.c ****                                 (void) memcpy(&dataBuffer[dataOffset],
 1126              		.loc 1 1089 0
 1127 0426 0846     		mov	r0, r1
 1128 0428 1146     		mov	r1, r2
 1129 042a 1A46     		mov	r2, r3
 1130 042c FFF7FEFF 		bl	memcpy
1091:.\Generated_Source\PSoC5/BootloaderI2C.c ****                                               pktSize);
1092:.\Generated_Source\PSoC5/BootloaderI2C.c ****                             #endif  /* (CY_PSOC3) */
1093:.\Generated_Source\PSoC5/BootloaderI2C.c **** 
1094:.\Generated_Source\PSoC5/BootloaderI2C.c ****                             dataOffset += pktSize;
 1131              		.loc 1 1094 0
 1132 0430 B7F8A823 		ldrh	r2, [r7, #936]	@ movhi
 1133 0434 B7F8AA33 		ldrh	r3, [r7, #938]	@ movhi
 1134 0438 D318     		adds	r3, r2, r3
 1135 043a A7F8A833 		strh	r3, [r7, #936]	@ movhi
1095:.\Generated_Source\PSoC5/BootloaderI2C.c ****                         }
1096:.\Generated_Source\PSoC5/BootloaderI2C.c ****                         else
1097:.\Generated_Source\PSoC5/BootloaderI2C.c ****                         {
1098:.\Generated_Source\PSoC5/BootloaderI2C.c ****                             ackCode = BootloaderI2C_ERR_LENGTH;
1099:.\Generated_Source\PSoC5/BootloaderI2C.c ****                         }
1100:.\Generated_Source\PSoC5/BootloaderI2C.c ****                     }
1101:.\Generated_Source\PSoC5/BootloaderI2C.c **** 
1102:.\Generated_Source\PSoC5/BootloaderI2C.c ****                     break;
 1136              		.loc 1 1102 0
 1137 043e E9E0     		b	.L90
 1138              	.L74:
1098:.\Generated_Source\PSoC5/BootloaderI2C.c ****                             ackCode = BootloaderI2C_ERR_LENGTH;
 1139              		.loc 1 1098 0
 1140 0440 4FF00303 		mov	r3, #3
 1141 0444 87F8AD33 		strb	r3, [r7, #941]
 1142              		.loc 1 1102 0
 1143 0448 E4E0     		b	.L90
 1144              	.L55:
1103:.\Generated_Source\PSoC5/BootloaderI2C.c **** 
1104:.\Generated_Source\PSoC5/BootloaderI2C.c ****             #endif  /* (0u != BootloaderI2C_CMD_SEND_DATA_AVAIL) */
1105:.\Generated_Source\PSoC5/BootloaderI2C.c **** 
1106:.\Generated_Source\PSoC5/BootloaderI2C.c **** 
1107:.\Generated_Source\PSoC5/BootloaderI2C.c ****             /***************************************************************************
1108:.\Generated_Source\PSoC5/BootloaderI2C.c ****             *   Enter bootloader
1109:.\Generated_Source\PSoC5/BootloaderI2C.c ****             ***************************************************************************/
1110:.\Generated_Source\PSoC5/BootloaderI2C.c ****             case BootloaderI2C_COMMAND_ENTER:
1111:.\Generated_Source\PSoC5/BootloaderI2C.c **** 
1112:.\Generated_Source\PSoC5/BootloaderI2C.c ****                 if(pktSize == 0u)
 1145              		.loc 1 1112 0
 1146 044a B7F8AA33 		ldrh	r3, [r7, #938]
 1147 044e 002B     		cmp	r3, #0
ARM GAS  C:\Users\bramamu\AppData\Local\Temp\cczceNxl.s 			page 41


 1148 0450 40F0E280 		bne	.L91
 1149              	.LBB6:
1113:.\Generated_Source\PSoC5/BootloaderI2C.c ****                 {
1114:.\Generated_Source\PSoC5/BootloaderI2C.c ****                     #if(CY_PSOC3)
1115:.\Generated_Source\PSoC5/BootloaderI2C.c **** 
1116:.\Generated_Source\PSoC5/BootloaderI2C.c ****                         BootloaderI2C_ENTER CYDATA BtldrVersion =
1117:.\Generated_Source\PSoC5/BootloaderI2C.c ****                             {CYSWAP_ENDIAN32(CYDEV_CHIP_JTAG_ID), CYDEV_CHIP_REV_EXPECT, Bootloader
1118:.\Generated_Source\PSoC5/BootloaderI2C.c **** 
1119:.\Generated_Source\PSoC5/BootloaderI2C.c ****                     #else
1120:.\Generated_Source\PSoC5/BootloaderI2C.c **** 
1121:.\Generated_Source\PSoC5/BootloaderI2C.c ****                         BootloaderI2C_ENTER CYDATA BtldrVersion =
 1150              		.loc 1 1121 0
 1151 0454 07F59672 		add	r2, r7, #300
 1152 0458 40F20003 		movw	r3, #:lower16:.LC0
 1153 045c C0F20003 		movt	r3, #:upper16:.LC0
 1154 0460 93E80300 		ldmia	r3, {r0, r1}
 1155 0464 82E80300 		stmia	r2, {r0, r1}
1122:.\Generated_Source\PSoC5/BootloaderI2C.c ****                             {CYDEV_CHIP_JTAG_ID, CYDEV_CHIP_REV_EXPECT, BootloaderI2C_VERSION};
1123:.\Generated_Source\PSoC5/BootloaderI2C.c **** 
1124:.\Generated_Source\PSoC5/BootloaderI2C.c ****                     #endif  /* (CY_PSOC3) */
1125:.\Generated_Source\PSoC5/BootloaderI2C.c **** 
1126:.\Generated_Source\PSoC5/BootloaderI2C.c ****                     communicationState = BootloaderI2C_COMMUNICATION_STATE_ACTIVE;
 1156              		.loc 1 1126 0
 1157 0468 4FF00103 		mov	r3, #1
 1158 046c 87F8A533 		strb	r3, [r7, #933]
1127:.\Generated_Source\PSoC5/BootloaderI2C.c **** 
1128:.\Generated_Source\PSoC5/BootloaderI2C.c ****                     rspSize = sizeof(BootloaderI2C_ENTER);
 1159              		.loc 1 1128 0
 1160 0470 4FF00803 		mov	r3, #8
 1161 0474 A7F8AE33 		strh	r3, [r7, #942]	@ movhi
1129:.\Generated_Source\PSoC5/BootloaderI2C.c **** 
1130:.\Generated_Source\PSoC5/BootloaderI2C.c ****                     #if(CY_PSOC3)
1131:.\Generated_Source\PSoC5/BootloaderI2C.c ****                         (void) memcpy(&packetBuffer[BootloaderI2C_DATA_ADDR],
1132:.\Generated_Source\PSoC5/BootloaderI2C.c ****                                       &BtldrVersion,
1133:.\Generated_Source\PSoC5/BootloaderI2C.c ****                                       ( int16 )rspSize);
1134:.\Generated_Source\PSoC5/BootloaderI2C.c ****                     #else
1135:.\Generated_Source\PSoC5/BootloaderI2C.c ****                         (void) memcpy(&packetBuffer[BootloaderI2C_DATA_ADDR],
 1162              		.loc 1 1135 0
 1163 0478 B7F8AE33 		ldrh	r3, [r7, #942]
 1164 047c 07F51872 		add	r2, r7, #608
 1165 0480 02F10401 		add	r1, r2, #4
1136:.\Generated_Source\PSoC5/BootloaderI2C.c ****                                       &BtldrVersion,
 1166              		.loc 1 1136 0
 1167 0484 07F59672 		add	r2, r7, #300
1135:.\Generated_Source\PSoC5/BootloaderI2C.c ****                         (void) memcpy(&packetBuffer[BootloaderI2C_DATA_ADDR],
 1168              		.loc 1 1135 0
 1169 0488 0846     		mov	r0, r1
 1170 048a 1146     		mov	r1, r2
 1171 048c 1A46     		mov	r2, r3
 1172 048e FFF7FEFF 		bl	memcpy
1137:.\Generated_Source\PSoC5/BootloaderI2C.c ****                                       rspSize);
1138:.\Generated_Source\PSoC5/BootloaderI2C.c ****                     #endif  /* (CY_PSOC3) */
1139:.\Generated_Source\PSoC5/BootloaderI2C.c **** 
1140:.\Generated_Source\PSoC5/BootloaderI2C.c ****                     ackCode = CYRET_SUCCESS;
 1173              		.loc 1 1140 0
 1174 0492 4FF00003 		mov	r3, #0
 1175 0496 87F8AD33 		strb	r3, [r7, #941]
ARM GAS  C:\Users\bramamu\AppData\Local\Temp\cczceNxl.s 			page 42


 1176              	.LBE6:
1141:.\Generated_Source\PSoC5/BootloaderI2C.c ****                 }
1142:.\Generated_Source\PSoC5/BootloaderI2C.c ****                 break;
 1177              		.loc 1 1142 0
 1178 049a BDE0     		b	.L91
 1179              	.L56:
1143:.\Generated_Source\PSoC5/BootloaderI2C.c **** 
1144:.\Generated_Source\PSoC5/BootloaderI2C.c **** 
1145:.\Generated_Source\PSoC5/BootloaderI2C.c ****             /***************************************************************************
1146:.\Generated_Source\PSoC5/BootloaderI2C.c ****             *   Verify row
1147:.\Generated_Source\PSoC5/BootloaderI2C.c ****             ***************************************************************************/
1148:.\Generated_Source\PSoC5/BootloaderI2C.c ****             case BootloaderI2C_COMMAND_VERIFY:
1149:.\Generated_Source\PSoC5/BootloaderI2C.c **** 
1150:.\Generated_Source\PSoC5/BootloaderI2C.c ****                 if((BootloaderI2C_COMMUNICATION_STATE_ACTIVE == communicationState) && (pktSize == 
 1180              		.loc 1 1150 0
 1181 049c 97F8A533 		ldrb	r3, [r7, #933]	@ zero_extendqisi2
 1182 04a0 012B     		cmp	r3, #1
 1183 04a2 40F0BB80 		bne	.L92
 1184              		.loc 1 1150 0 is_stmt 0 discriminator 1
 1185 04a6 B7F8AA33 		ldrh	r3, [r7, #938]
 1186 04aa 032B     		cmp	r3, #3
 1187 04ac 40F0B680 		bne	.L92
 1188              	.LBB7:
1151:.\Generated_Source\PSoC5/BootloaderI2C.c ****                 {
1152:.\Generated_Source\PSoC5/BootloaderI2C.c ****                     /* Get FLASH/EEPROM row number */
1153:.\Generated_Source\PSoC5/BootloaderI2C.c ****                     uint16 CYDATA rowNum = ((uint16)((uint16)packetBuffer[BootloaderI2C_DATA_ADDR +
 1189              		.loc 1 1153 0 is_stmt 1
 1190 04b0 07F51873 		add	r3, r7, #608
 1191 04b4 9B79     		ldrb	r3, [r3, #6]	@ zero_extendqisi2
 1192 04b6 4FEA0323 		lsl	r3, r3, #8
 1193 04ba 9AB2     		uxth	r2, r3
1154:.\Generated_Source\PSoC5/BootloaderI2C.c ****                                                     packetBuffer[BootloaderI2C_DATA_ADDR + 1u];
 1194              		.loc 1 1154 0
 1195 04bc 07F51873 		add	r3, r7, #608
 1196 04c0 5B79     		ldrb	r3, [r3, #5]	@ zero_extendqisi2
1153:.\Generated_Source\PSoC5/BootloaderI2C.c ****                     uint16 CYDATA rowNum = ((uint16)((uint16)packetBuffer[BootloaderI2C_DATA_ADDR +
 1197              		.loc 1 1153 0
 1198 04c2 1343     		orrs	r3, r3, r2
 1199 04c4 A7F89433 		strh	r3, [r7, #916]	@ movhi
1155:.\Generated_Source\PSoC5/BootloaderI2C.c **** 
1156:.\Generated_Source\PSoC5/BootloaderI2C.c ****                     #if(!CY_PSOC4)
1157:.\Generated_Source\PSoC5/BootloaderI2C.c **** 
1158:.\Generated_Source\PSoC5/BootloaderI2C.c ****                         uint32 CYDATA rowAddr;
1159:.\Generated_Source\PSoC5/BootloaderI2C.c ****                         uint8 CYDATA checksum;
1160:.\Generated_Source\PSoC5/BootloaderI2C.c **** 
1161:.\Generated_Source\PSoC5/BootloaderI2C.c ****                         if((btldrData >= BootloaderI2C_FIRST_EE_ARRAYID) &&
 1200              		.loc 1 1161 0
 1201 04c8 97F89933 		ldrb	r3, [r7, #921]	@ zero_extendqisi2
 1202 04cc 3F2B     		cmp	r3, #63
 1203 04ce 14D9     		bls	.L77
1162:.\Generated_Source\PSoC5/BootloaderI2C.c ****                            (btldrData <= BootloaderI2C_LAST_EE_ARRAYID))
 1204              		.loc 1 1162 0 discriminator 1
 1205 04d0 97F89933 		ldrb	r3, [r7, #921]	@ zero_extendqisi2
1161:.\Generated_Source\PSoC5/BootloaderI2C.c ****                         if((btldrData >= BootloaderI2C_FIRST_EE_ARRAYID) &&
 1206              		.loc 1 1161 0 discriminator 1
 1207 04d4 5BB2     		sxtb	r3, r3
 1208 04d6 002B     		cmp	r3, #0
ARM GAS  C:\Users\bramamu\AppData\Local\Temp\cczceNxl.s 			page 43


 1209 04d8 0FDB     		blt	.L77
1163:.\Generated_Source\PSoC5/BootloaderI2C.c ****                         {
1164:.\Generated_Source\PSoC5/BootloaderI2C.c ****                             /* EEPROM */
1165:.\Generated_Source\PSoC5/BootloaderI2C.c ****                             /* Both PSoC 3 and PSoC 5LP architectures have one EEPROM array. */
1166:.\Generated_Source\PSoC5/BootloaderI2C.c ****                             rowAddr = (uint32)rowNum * CYDEV_EEPROM_ROW_SIZE;
 1210              		.loc 1 1166 0
 1211 04da B7F89433 		ldrh	r3, [r7, #916]
 1212 04de 4FEA0313 		lsl	r3, r3, #4
 1213 04e2 C7F89033 		str	r3, [r7, #912]
1167:.\Generated_Source\PSoC5/BootloaderI2C.c **** 
1168:.\Generated_Source\PSoC5/BootloaderI2C.c ****                             checksum = BootloaderI2C_Calc8BitEepromSum(rowAddr, CYDEV_EEPROM_ROW_SI
 1214              		.loc 1 1168 0
 1215 04e6 D7F89003 		ldr	r0, [r7, #912]
 1216 04ea 4FF01001 		mov	r1, #16
 1217 04ee FFF7FEFF 		bl	BootloaderI2C_Calc8BitEepromSum
 1218 04f2 0346     		mov	r3, r0
 1219 04f4 87F8A433 		strb	r3, [r7, #932]
 1220 04f8 13E0     		b	.L78
 1221              	.L77:
1169:.\Generated_Source\PSoC5/BootloaderI2C.c ****                         }
1170:.\Generated_Source\PSoC5/BootloaderI2C.c ****                         else
1171:.\Generated_Source\PSoC5/BootloaderI2C.c ****                         {
1172:.\Generated_Source\PSoC5/BootloaderI2C.c ****                             /* FLASH */
1173:.\Generated_Source\PSoC5/BootloaderI2C.c ****                             rowAddr = ((uint32)btldrData * CYDEV_FLS_SECTOR_SIZE)
 1222              		.loc 1 1173 0
 1223 04fa 97F89933 		ldrb	r3, [r7, #921]	@ zero_extendqisi2
1174:.\Generated_Source\PSoC5/BootloaderI2C.c ****                                        + ((uint32)rowNum * CYDEV_FLS_ROW_SIZE);
 1224              		.loc 1 1174 0
 1225 04fe 4FEA0322 		lsl	r2, r3, #8
 1226 0502 B7F89433 		ldrh	r3, [r7, #916]
 1227 0506 D318     		adds	r3, r2, r3
1173:.\Generated_Source\PSoC5/BootloaderI2C.c ****                             rowAddr = ((uint32)btldrData * CYDEV_FLS_SECTOR_SIZE)
 1228              		.loc 1 1173 0
 1229 0508 4FEA0323 		lsl	r3, r3, #8
 1230 050c C7F89033 		str	r3, [r7, #912]
1175:.\Generated_Source\PSoC5/BootloaderI2C.c **** 
1176:.\Generated_Source\PSoC5/BootloaderI2C.c ****                             checksum = BootloaderI2C_Calc8BitFlashSum(rowAddr, CYDEV_FLS_ROW_SIZE);
 1231              		.loc 1 1176 0
 1232 0510 D7F89003 		ldr	r0, [r7, #912]
 1233 0514 4FF48071 		mov	r1, #256
 1234 0518 FFF7FEFF 		bl	BootloaderI2C_Calc8BitFlashSum
 1235 051c 0346     		mov	r3, r0
 1236 051e 87F8A433 		strb	r3, [r7, #932]
 1237              	.L78:
1177:.\Generated_Source\PSoC5/BootloaderI2C.c ****                         }
1178:.\Generated_Source\PSoC5/BootloaderI2C.c **** 
1179:.\Generated_Source\PSoC5/BootloaderI2C.c ****                     #else
1180:.\Generated_Source\PSoC5/BootloaderI2C.c **** 
1181:.\Generated_Source\PSoC5/BootloaderI2C.c ****                         uint32 CYDATA rowAddr = ((uint32)btldrData * CYDEV_FLS_SECTOR_SIZE)
1182:.\Generated_Source\PSoC5/BootloaderI2C.c ****                                             + ((uint32)rowNum * CYDEV_FLS_ROW_SIZE);
1183:.\Generated_Source\PSoC5/BootloaderI2C.c **** 
1184:.\Generated_Source\PSoC5/BootloaderI2C.c ****                         uint8 CYDATA checksum = BootloaderI2C_Calc8BitFlashSum(rowAddr, CYDEV_FLS_R
1185:.\Generated_Source\PSoC5/BootloaderI2C.c **** 
1186:.\Generated_Source\PSoC5/BootloaderI2C.c ****                     #endif  /* (!CY_PSOC4) */
1187:.\Generated_Source\PSoC5/BootloaderI2C.c **** 
1188:.\Generated_Source\PSoC5/BootloaderI2C.c **** 
1189:.\Generated_Source\PSoC5/BootloaderI2C.c ****                     /* Calculate checksum on data from ECC */
ARM GAS  C:\Users\bramamu\AppData\Local\Temp\cczceNxl.s 			page 44


1190:.\Generated_Source\PSoC5/BootloaderI2C.c ****                     #if(!CY_PSOC4) && (CYDEV_ECC_ENABLE == 0u)
1191:.\Generated_Source\PSoC5/BootloaderI2C.c **** 
1192:.\Generated_Source\PSoC5/BootloaderI2C.c ****                         if(btldrData <= BootloaderI2C_LAST_FLASH_ARRAYID)
 1238              		.loc 1 1192 0
 1239 0522 97F89933 		ldrb	r3, [r7, #921]	@ zero_extendqisi2
 1240 0526 3F2B     		cmp	r3, #63
 1241 0528 27D8     		bhi	.L79
 1242              	.LBB8:
1193:.\Generated_Source\PSoC5/BootloaderI2C.c ****                         {
1194:.\Generated_Source\PSoC5/BootloaderI2C.c ****                             uint16 CYDATA tmpIndex;
1195:.\Generated_Source\PSoC5/BootloaderI2C.c **** 
1196:.\Generated_Source\PSoC5/BootloaderI2C.c ****                             rowAddr = CYDEV_ECC_BASE + ((uint32)btldrData * (CYDEV_FLS_SECTOR_SIZE 
 1243              		.loc 1 1196 0
 1244 052a 97F89933 		ldrb	r3, [r7, #921]	@ zero_extendqisi2
1197:.\Generated_Source\PSoC5/BootloaderI2C.c ****                                         + ((uint32)rowNum * CYDEV_ECC_ROW_SIZE);
 1245              		.loc 1 1197 0
 1246 052e 03F51033 		add	r3, r3, #147456
 1247 0532 4FEA0322 		lsl	r2, r3, #8
 1248 0536 B7F89433 		ldrh	r3, [r7, #916]
 1249 053a D318     		adds	r3, r2, r3
1196:.\Generated_Source\PSoC5/BootloaderI2C.c ****                             rowAddr = CYDEV_ECC_BASE + ((uint32)btldrData * (CYDEV_FLS_SECTOR_SIZE 
 1250              		.loc 1 1196 0
 1251 053c 4FEA4313 		lsl	r3, r3, #5
 1252 0540 C7F89033 		str	r3, [r7, #912]
1198:.\Generated_Source\PSoC5/BootloaderI2C.c **** 
1199:.\Generated_Source\PSoC5/BootloaderI2C.c ****                             for(tmpIndex = 0u; tmpIndex < CYDEV_ECC_ROW_SIZE; tmpIndex++)
 1253              		.loc 1 1199 0
 1254 0544 4FF00003 		mov	r3, #0
 1255 0548 A7F8A233 		strh	r3, [r7, #930]	@ movhi
 1256 054c 11E0     		b	.L80
 1257              	.L81:
1200:.\Generated_Source\PSoC5/BootloaderI2C.c ****                             {
1201:.\Generated_Source\PSoC5/BootloaderI2C.c ****                                 checksum += CY_GET_XTND_REG8((uint8 CYFAR *)(rowAddr + tmpIndex));
 1258              		.loc 1 1201 0 discriminator 2
 1259 054e B7F8A223 		ldrh	r2, [r7, #930]
 1260 0552 D7F89033 		ldr	r3, [r7, #912]
 1261 0556 D318     		adds	r3, r2, r3
 1262 0558 1B78     		ldrb	r3, [r3, #0]
 1263 055a DAB2     		uxtb	r2, r3
 1264 055c 97F8A433 		ldrb	r3, [r7, #932]
 1265 0560 D318     		adds	r3, r2, r3
 1266 0562 87F8A433 		strb	r3, [r7, #932]
1199:.\Generated_Source\PSoC5/BootloaderI2C.c ****                             for(tmpIndex = 0u; tmpIndex < CYDEV_ECC_ROW_SIZE; tmpIndex++)
 1267              		.loc 1 1199 0 discriminator 2
 1268 0566 B7F8A233 		ldrh	r3, [r7, #930]	@ movhi
 1269 056a 03F10103 		add	r3, r3, #1
 1270 056e A7F8A233 		strh	r3, [r7, #930]	@ movhi
 1271              	.L80:
1199:.\Generated_Source\PSoC5/BootloaderI2C.c ****                             for(tmpIndex = 0u; tmpIndex < CYDEV_ECC_ROW_SIZE; tmpIndex++)
 1272              		.loc 1 1199 0 is_stmt 0 discriminator 1
 1273 0572 B7F8A233 		ldrh	r3, [r7, #930]
 1274 0576 1F2B     		cmp	r3, #31
 1275 0578 E9D9     		bls	.L81
 1276              	.L79:
 1277              	.LBE8:
1202:.\Generated_Source\PSoC5/BootloaderI2C.c ****                             }
1203:.\Generated_Source\PSoC5/BootloaderI2C.c ****                         }
ARM GAS  C:\Users\bramamu\AppData\Local\Temp\cczceNxl.s 			page 45


1204:.\Generated_Source\PSoC5/BootloaderI2C.c **** 
1205:.\Generated_Source\PSoC5/BootloaderI2C.c ****                     #endif  /* (!CY_PSOC4) && (CYDEV_ECC_ENABLE == 0u) */
1206:.\Generated_Source\PSoC5/BootloaderI2C.c **** 
1207:.\Generated_Source\PSoC5/BootloaderI2C.c **** 
1208:.\Generated_Source\PSoC5/BootloaderI2C.c ****                     /******************************************************************************
1209:.\Generated_Source\PSoC5/BootloaderI2C.c ****                     * App Verified & App Active are information that is updated in flash at runtime
1210:.\Generated_Source\PSoC5/BootloaderI2C.c ****                     * remove these items from the checksum to allow the host to verify everything i
1211:.\Generated_Source\PSoC5/BootloaderI2C.c ****                     * correct.
1212:.\Generated_Source\PSoC5/BootloaderI2C.c ****                      ******************************************************************************
1213:.\Generated_Source\PSoC5/BootloaderI2C.c ****                     if((BootloaderI2C_MD_FLASH_ARRAY_NUM == btldrData) &&
 1278              		.loc 1 1213 0 is_stmt 1
 1279 057a 97F89933 		ldrb	r3, [r7, #921]	@ zero_extendqisi2
 1280 057e 032B     		cmp	r3, #3
 1281 0580 19D1     		bne	.L82
 1282              		.loc 1 1213 0 is_stmt 0 discriminator 1
 1283 0582 B7F89433 		ldrh	r3, [r7, #916]
 1284 0586 FF2B     		cmp	r3, #255
 1285 0588 15D1     		bne	.L82
1214:.\Generated_Source\PSoC5/BootloaderI2C.c ****                        (BootloaderI2C_CONTAIN_METADATA(rowNum)))
1215:.\Generated_Source\PSoC5/BootloaderI2C.c ****                     {
1216:.\Generated_Source\PSoC5/BootloaderI2C.c ****                         checksum -= BootloaderI2C_MD_BTLDB_ACTIVE_VALUE  (BootloaderI2C_GET_APP_ID(
 1286              		.loc 1 1216 0 is_stmt 1
 1287 058a 4FF6D073 		movw	r3, #65488
 1288 058e C0F20303 		movt	r3, 3
 1289 0592 1B78     		ldrb	r3, [r3, #0]
 1290 0594 DBB2     		uxtb	r3, r3
 1291 0596 97F8A423 		ldrb	r2, [r7, #932]
 1292 059a D31A     		subs	r3, r2, r3
 1293 059c 87F8A433 		strb	r3, [r7, #932]
1217:.\Generated_Source\PSoC5/BootloaderI2C.c ****                         checksum -= BootloaderI2C_MD_BTLDB_VERIFIED_VALUE(BootloaderI2C_GET_APP_ID(
 1294              		.loc 1 1217 0
 1295 05a0 4FF6D173 		movw	r3, #65489
 1296 05a4 C0F20303 		movt	r3, 3
 1297 05a8 1B78     		ldrb	r3, [r3, #0]
 1298 05aa DBB2     		uxtb	r3, r3
 1299 05ac 97F8A423 		ldrb	r2, [r7, #932]
 1300 05b0 D31A     		subs	r3, r2, r3
 1301 05b2 87F8A433 		strb	r3, [r7, #932]
 1302              	.L82:
1218:.\Generated_Source\PSoC5/BootloaderI2C.c ****                     }
1219:.\Generated_Source\PSoC5/BootloaderI2C.c **** 
1220:.\Generated_Source\PSoC5/BootloaderI2C.c ****                     packetBuffer[BootloaderI2C_DATA_ADDR] = (uint8)1u + (uint8)(~checksum);
 1303              		.loc 1 1220 0
 1304 05b6 97F8A433 		ldrb	r3, [r7, #932]
 1305 05ba C3F10003 		rsb	r3, r3, #0
 1306 05be DAB2     		uxtb	r2, r3
 1307 05c0 07F51873 		add	r3, r7, #608
 1308 05c4 1A71     		strb	r2, [r3, #4]
1221:.\Generated_Source\PSoC5/BootloaderI2C.c ****                     ackCode = CYRET_SUCCESS;
 1309              		.loc 1 1221 0
 1310 05c6 4FF00003 		mov	r3, #0
 1311 05ca 87F8AD33 		strb	r3, [r7, #941]
1222:.\Generated_Source\PSoC5/BootloaderI2C.c ****                     rspSize = 1u;
 1312              		.loc 1 1222 0
 1313 05ce 4FF00103 		mov	r3, #1
 1314 05d2 A7F8AE33 		strh	r3, [r7, #942]	@ movhi
 1315              	.LBE7:
ARM GAS  C:\Users\bramamu\AppData\Local\Temp\cczceNxl.s 			page 46


1223:.\Generated_Source\PSoC5/BootloaderI2C.c ****                 }
1224:.\Generated_Source\PSoC5/BootloaderI2C.c ****                 break;
 1316              		.loc 1 1224 0
 1317 05d6 21E0     		b	.L92
 1318              	.L57:
1225:.\Generated_Source\PSoC5/BootloaderI2C.c **** 
1226:.\Generated_Source\PSoC5/BootloaderI2C.c **** 
1227:.\Generated_Source\PSoC5/BootloaderI2C.c ****             /***************************************************************************
1228:.\Generated_Source\PSoC5/BootloaderI2C.c ****             *   Exit bootloader
1229:.\Generated_Source\PSoC5/BootloaderI2C.c ****             ***************************************************************************/
1230:.\Generated_Source\PSoC5/BootloaderI2C.c ****             case BootloaderI2C_COMMAND_EXIT:
1231:.\Generated_Source\PSoC5/BootloaderI2C.c **** 
1232:.\Generated_Source\PSoC5/BootloaderI2C.c ****                 if(CYRET_SUCCESS == BootloaderI2C_ValidateBootloadable(BootloaderI2C_activeApp))
 1319              		.loc 1 1232 0
 1320 05d8 4FF00000 		mov	r0, #0
 1321 05dc FFF7FEFF 		bl	BootloaderI2C_ValidateBootloadable
 1322 05e0 0346     		mov	r3, r0
 1323 05e2 002B     		cmp	r3, #0
 1324 05e4 06D1     		bne	.L83
1233:.\Generated_Source\PSoC5/BootloaderI2C.c ****                 {
1234:.\Generated_Source\PSoC5/BootloaderI2C.c ****                     BootloaderI2C_SET_RUN_TYPE(BootloaderI2C_START_APP);
 1325              		.loc 1 1234 0
 1326 05e6 44F2FA63 		movw	r3, #18170
 1327 05ea C4F20003 		movt	r3, 16384
 1328 05ee 4FF08002 		mov	r2, #128
 1329 05f2 1A70     		strb	r2, [r3, #0]
 1330              	.L83:
1235:.\Generated_Source\PSoC5/BootloaderI2C.c ****                 }
1236:.\Generated_Source\PSoC5/BootloaderI2C.c **** 
1237:.\Generated_Source\PSoC5/BootloaderI2C.c ****                 CySoftwareReset();
 1331              		.loc 1 1237 0
 1332 05f4 FFF7FEFF 		bl	CySoftwareReset
1238:.\Generated_Source\PSoC5/BootloaderI2C.c **** 
1239:.\Generated_Source\PSoC5/BootloaderI2C.c ****                 /* Will never get here */
1240:.\Generated_Source\PSoC5/BootloaderI2C.c ****                 break;
 1333              		.loc 1 1240 0
 1334 05f8 11E0     		b	.L48
 1335              	.L49:
1241:.\Generated_Source\PSoC5/BootloaderI2C.c **** 
1242:.\Generated_Source\PSoC5/BootloaderI2C.c **** 
1243:.\Generated_Source\PSoC5/BootloaderI2C.c ****             /***************************************************************************
1244:.\Generated_Source\PSoC5/BootloaderI2C.c ****             *   Unsupported command
1245:.\Generated_Source\PSoC5/BootloaderI2C.c ****             ***************************************************************************/
1246:.\Generated_Source\PSoC5/BootloaderI2C.c ****             default:
1247:.\Generated_Source\PSoC5/BootloaderI2C.c ****                 ackCode = BootloaderI2C_ERR_CMD;
 1336              		.loc 1 1247 0
 1337 05fa 4FF00503 		mov	r3, #5
 1338 05fe 87F8AD33 		strb	r3, [r7, #941]
1248:.\Generated_Source\PSoC5/BootloaderI2C.c ****                 break;
 1339              		.loc 1 1248 0
 1340 0602 0CE0     		b	.L48
 1341              	.L86:
 751:.\Generated_Source\PSoC5/BootloaderI2C.c ****                 break;
 1342              		.loc 1 751 0
 1343 0604 00BF     		nop
 1344 0606 0AE0     		b	.L48
 1345              	.L87:
ARM GAS  C:\Users\bramamu\AppData\Local\Temp\cczceNxl.s 			page 47


 782:.\Generated_Source\PSoC5/BootloaderI2C.c ****                     break;
 1346              		.loc 1 782 0
 1347 0608 00BF     		nop
 1348 060a 08E0     		b	.L48
 1349              	.L88:
1016:.\Generated_Source\PSoC5/BootloaderI2C.c ****                 break;
 1350              		.loc 1 1016 0
 1351 060c 00BF     		nop
 1352 060e 06E0     		b	.L48
 1353              	.L89:
1034:.\Generated_Source\PSoC5/BootloaderI2C.c ****                 break;
 1354              		.loc 1 1034 0
 1355 0610 00BF     		nop
 1356 0612 04E0     		b	.L48
 1357              	.L90:
1102:.\Generated_Source\PSoC5/BootloaderI2C.c ****                     break;
 1358              		.loc 1 1102 0
 1359 0614 00BF     		nop
 1360 0616 02E0     		b	.L48
 1361              	.L91:
1142:.\Generated_Source\PSoC5/BootloaderI2C.c ****                 break;
 1362              		.loc 1 1142 0
 1363 0618 00BF     		nop
 1364 061a 00E0     		b	.L48
 1365              	.L92:
1224:.\Generated_Source\PSoC5/BootloaderI2C.c ****                 break;
 1366              		.loc 1 1224 0
 1367 061c 00BF     		nop
 1368              	.L48:
 1369              	.LBE3:
1249:.\Generated_Source\PSoC5/BootloaderI2C.c ****             }
1250:.\Generated_Source\PSoC5/BootloaderI2C.c ****         }
1251:.\Generated_Source\PSoC5/BootloaderI2C.c **** 
1252:.\Generated_Source\PSoC5/BootloaderI2C.c ****         /* ?CK the packet and function. */
1253:.\Generated_Source\PSoC5/BootloaderI2C.c ****         (void) BootloaderI2C_WritePacket(ackCode, packetBuffer, rspSize);
 1370              		.loc 1 1253 0
 1371 061e 97F8AD13 		ldrb	r1, [r7, #941]	@ zero_extendqisi2
 1372 0622 07F51872 		add	r2, r7, #608
 1373 0626 B7F8AE33 		ldrh	r3, [r7, #942]
 1374 062a 0846     		mov	r0, r1
 1375 062c 1146     		mov	r1, r2
 1376 062e 1A46     		mov	r2, r3
 1377 0630 FFF7FEFF 		bl	BootloaderI2C_WritePacket
 1378 0634 00E0     		b	.L42
 1379              	.L85:
 657:.\Generated_Source\PSoC5/BootloaderI2C.c ****             continue;
 1380              		.loc 1 657 0
 1381 0636 00BF     		nop
 1382              	.L42:
1254:.\Generated_Source\PSoC5/BootloaderI2C.c **** 
1255:.\Generated_Source\PSoC5/BootloaderI2C.c ****     } while ((0u == timeOut) || (BootloaderI2C_COMMUNICATION_STATE_ACTIVE == communicationState));
 1383              		.loc 1 1255 0
 1384 0638 07F10703 		add	r3, r7, #7
 1385 063c 1B78     		ldrb	r3, [r3, #0]	@ zero_extendqisi2
 1386 063e 002B     		cmp	r3, #0
 1387 0640 3FF4FDAC 		beq	.L84
 1388              		.loc 1 1255 0 is_stmt 0 discriminator 1
ARM GAS  C:\Users\bramamu\AppData\Local\Temp\cczceNxl.s 			page 48


 1389 0644 97F8A533 		ldrb	r3, [r7, #933]	@ zero_extendqisi2
 1390 0648 012B     		cmp	r3, #1
 1391 064a 3FF4F8AC 		beq	.L84
1256:.\Generated_Source\PSoC5/BootloaderI2C.c **** }
 1392              		.loc 1 1256 0 is_stmt 1
 1393 064e 07F56C77 		add	r7, r7, #944
 1394 0652 BD46     		mov	sp, r7
 1395 0654 80BD     		pop	{r7, pc}
 1396              		.cfi_endproc
 1397              	.LFE64:
 1398              		.size	BootloaderI2C_HostLink, .-BootloaderI2C_HostLink
 1399 0656 00BF     		.section	.text.BootloaderI2C_WritePacket,"ax",%progbits
 1400              		.align	2
 1401              		.thumb
 1402              		.thumb_func
 1403              		.type	BootloaderI2C_WritePacket, %function
 1404              	BootloaderI2C_WritePacket:
 1405              	.LFB65:
1257:.\Generated_Source\PSoC5/BootloaderI2C.c **** 
1258:.\Generated_Source\PSoC5/BootloaderI2C.c **** 
1259:.\Generated_Source\PSoC5/BootloaderI2C.c **** /*******************************************************************************
1260:.\Generated_Source\PSoC5/BootloaderI2C.c **** * Function Name: BootloaderI2C_WritePacket
1261:.\Generated_Source\PSoC5/BootloaderI2C.c **** ********************************************************************************
1262:.\Generated_Source\PSoC5/BootloaderI2C.c **** *
1263:.\Generated_Source\PSoC5/BootloaderI2C.c **** * Summary:
1264:.\Generated_Source\PSoC5/BootloaderI2C.c **** *  Creates a bootloader responce packet and transmits it back to the bootloader
1265:.\Generated_Source\PSoC5/BootloaderI2C.c **** *  host application over the already established communications protocol.
1266:.\Generated_Source\PSoC5/BootloaderI2C.c **** *
1267:.\Generated_Source\PSoC5/BootloaderI2C.c **** * Parameters:
1268:.\Generated_Source\PSoC5/BootloaderI2C.c **** *  status:
1269:.\Generated_Source\PSoC5/BootloaderI2C.c **** *      The status code to pass back as the second byte of the packet
1270:.\Generated_Source\PSoC5/BootloaderI2C.c **** *  buffer:
1271:.\Generated_Source\PSoC5/BootloaderI2C.c **** *      The buffer containing the data portion of the packet
1272:.\Generated_Source\PSoC5/BootloaderI2C.c **** *  size:
1273:.\Generated_Source\PSoC5/BootloaderI2C.c **** *      The number of bytes contained within the buffer to pass back
1274:.\Generated_Source\PSoC5/BootloaderI2C.c **** *
1275:.\Generated_Source\PSoC5/BootloaderI2C.c **** * Return:
1276:.\Generated_Source\PSoC5/BootloaderI2C.c **** *   CYRET_SUCCESS if successful.
1277:.\Generated_Source\PSoC5/BootloaderI2C.c **** *   CYRET_UNKNOWN if there was an error tranmitting the packet.
1278:.\Generated_Source\PSoC5/BootloaderI2C.c **** *
1279:.\Generated_Source\PSoC5/BootloaderI2C.c **** *******************************************************************************/
1280:.\Generated_Source\PSoC5/BootloaderI2C.c **** static cystatus BootloaderI2C_WritePacket(uint8 status, uint8 buffer[], uint16 size) CYSMALL \
1281:.\Generated_Source\PSoC5/BootloaderI2C.c ****                                             
1282:.\Generated_Source\PSoC5/BootloaderI2C.c **** {
 1406              		.loc 1 1282 0
 1407              		.cfi_startproc
 1408              		@ args = 0, pretend = 0, frame = 16
 1409              		@ frame_needed = 1, uses_anonymous_args = 0
 1410 0000 80B5     		push	{r7, lr}
 1411              	.LCFI22:
 1412              		.cfi_def_cfa_offset 8
 1413              		.cfi_offset 7, -8
 1414              		.cfi_offset 14, -4
 1415 0002 84B0     		sub	sp, sp, #16
 1416              	.LCFI23:
 1417              		.cfi_def_cfa_offset 24
 1418 0004 00AF     		add	r7, sp, #0
ARM GAS  C:\Users\bramamu\AppData\Local\Temp\cczceNxl.s 			page 49


 1419              	.LCFI24:
 1420              		.cfi_def_cfa_register 7
 1421 0006 3960     		str	r1, [r7, #0]
 1422 0008 1346     		mov	r3, r2
 1423 000a 0246     		mov	r2, r0
 1424 000c FA71     		strb	r2, [r7, #7]
 1425 000e BB80     		strh	r3, [r7, #4]	@ movhi
1283:.\Generated_Source\PSoC5/BootloaderI2C.c ****     uint16 CYDATA checksum;
1284:.\Generated_Source\PSoC5/BootloaderI2C.c **** 
1285:.\Generated_Source\PSoC5/BootloaderI2C.c ****     /* Start of the packet. */
1286:.\Generated_Source\PSoC5/BootloaderI2C.c ****     buffer[BootloaderI2C_SOP_ADDR]      = BootloaderI2C_SOP;
 1426              		.loc 1 1286 0
 1427 0010 3B68     		ldr	r3, [r7, #0]
 1428 0012 4FF00102 		mov	r2, #1
 1429 0016 1A70     		strb	r2, [r3, #0]
1287:.\Generated_Source\PSoC5/BootloaderI2C.c ****     buffer[BootloaderI2C_CMD_ADDR]      = status;
 1430              		.loc 1 1287 0
 1431 0018 3B68     		ldr	r3, [r7, #0]
 1432 001a 03F10103 		add	r3, r3, #1
 1433 001e FA79     		ldrb	r2, [r7, #7]
 1434 0020 1A70     		strb	r2, [r3, #0]
1288:.\Generated_Source\PSoC5/BootloaderI2C.c ****     buffer[BootloaderI2C_SIZE_ADDR]     = LO8(size);
 1435              		.loc 1 1288 0
 1436 0022 3B68     		ldr	r3, [r7, #0]
 1437 0024 03F10203 		add	r3, r3, #2
 1438 0028 BA88     		ldrh	r2, [r7, #4]
 1439 002a D2B2     		uxtb	r2, r2
 1440 002c 1A70     		strb	r2, [r3, #0]
1289:.\Generated_Source\PSoC5/BootloaderI2C.c ****     buffer[BootloaderI2C_SIZE_ADDR + 1u] = HI8(size);
 1441              		.loc 1 1289 0
 1442 002e 3B68     		ldr	r3, [r7, #0]
 1443 0030 03F10303 		add	r3, r3, #3
 1444 0034 BA88     		ldrh	r2, [r7, #4]
 1445 0036 4FEA1222 		lsr	r2, r2, #8
 1446 003a 92B2     		uxth	r2, r2
 1447 003c D2B2     		uxtb	r2, r2
 1448 003e 1A70     		strb	r2, [r3, #0]
1290:.\Generated_Source\PSoC5/BootloaderI2C.c **** 
1291:.\Generated_Source\PSoC5/BootloaderI2C.c ****     /* Compute the checksum. */
1292:.\Generated_Source\PSoC5/BootloaderI2C.c ****     checksum = BootloaderI2C_CalcPacketChecksum(buffer, size + BootloaderI2C_DATA_ADDR);
 1449              		.loc 1 1292 0
 1450 0040 BB88     		ldrh	r3, [r7, #4]
 1451 0042 03F10403 		add	r3, r3, #4
 1452 0046 9BB2     		uxth	r3, r3
 1453 0048 3868     		ldr	r0, [r7, #0]
 1454 004a 1946     		mov	r1, r3
 1455 004c FFF7FEFF 		bl	BootloaderI2C_CalcPacketChecksum
 1456 0050 0346     		mov	r3, r0
 1457 0052 FB81     		strh	r3, [r7, #14]	@ movhi
1293:.\Generated_Source\PSoC5/BootloaderI2C.c **** 
1294:.\Generated_Source\PSoC5/BootloaderI2C.c ****     buffer[BootloaderI2C_CHK_ADDR(size)]     = LO8(checksum);
 1458              		.loc 1 1294 0
 1459 0054 BB88     		ldrh	r3, [r7, #4]
 1460 0056 03F10403 		add	r3, r3, #4
 1461 005a 3A68     		ldr	r2, [r7, #0]
 1462 005c D318     		adds	r3, r2, r3
 1463 005e FA89     		ldrh	r2, [r7, #14]	@ movhi
ARM GAS  C:\Users\bramamu\AppData\Local\Temp\cczceNxl.s 			page 50


 1464 0060 D2B2     		uxtb	r2, r2
 1465 0062 1A70     		strb	r2, [r3, #0]
1295:.\Generated_Source\PSoC5/BootloaderI2C.c ****     buffer[BootloaderI2C_CHK_ADDR(1u + size)] = HI8(checksum);
 1466              		.loc 1 1295 0
 1467 0064 BB88     		ldrh	r3, [r7, #4]
 1468 0066 03F10503 		add	r3, r3, #5
 1469 006a 3A68     		ldr	r2, [r7, #0]
 1470 006c D318     		adds	r3, r2, r3
 1471 006e FA89     		ldrh	r2, [r7, #14]
 1472 0070 4FEA1222 		lsr	r2, r2, #8
 1473 0074 92B2     		uxth	r2, r2
 1474 0076 D2B2     		uxtb	r2, r2
 1475 0078 1A70     		strb	r2, [r3, #0]
1296:.\Generated_Source\PSoC5/BootloaderI2C.c ****     buffer[BootloaderI2C_EOP_ADDR(size)]     = BootloaderI2C_EOP;
 1476              		.loc 1 1296 0
 1477 007a BB88     		ldrh	r3, [r7, #4]
 1478 007c 03F10603 		add	r3, r3, #6
 1479 0080 3A68     		ldr	r2, [r7, #0]
 1480 0082 D318     		adds	r3, r2, r3
 1481 0084 4FF01702 		mov	r2, #23
 1482 0088 1A70     		strb	r2, [r3, #0]
1297:.\Generated_Source\PSoC5/BootloaderI2C.c **** 
1298:.\Generated_Source\PSoC5/BootloaderI2C.c ****     /* Start the packet transmit. */
1299:.\Generated_Source\PSoC5/BootloaderI2C.c ****     return(CyBtldrCommWrite(buffer, size + BootloaderI2C_MIN_PKT_SIZE, &size, 150u));
 1483              		.loc 1 1299 0
 1484 008a BB88     		ldrh	r3, [r7, #4]
 1485 008c 03F10703 		add	r3, r3, #7
 1486 0090 9AB2     		uxth	r2, r3
 1487 0092 07F10403 		add	r3, r7, #4
 1488 0096 3868     		ldr	r0, [r7, #0]
 1489 0098 1146     		mov	r1, r2
 1490 009a 1A46     		mov	r2, r3
 1491 009c 4FF09603 		mov	r3, #150
 1492 00a0 FFF7FEFF 		bl	I2CSlave_CyBtldrCommWrite
 1493 00a4 0346     		mov	r3, r0
1300:.\Generated_Source\PSoC5/BootloaderI2C.c **** }
 1494              		.loc 1 1300 0
 1495 00a6 1846     		mov	r0, r3
 1496 00a8 07F11007 		add	r7, r7, #16
 1497 00ac BD46     		mov	sp, r7
 1498 00ae 80BD     		pop	{r7, pc}
 1499              		.cfi_endproc
 1500              	.LFE65:
 1501              		.size	BootloaderI2C_WritePacket, .-BootloaderI2C_WritePacket
 1502              		.section	.text.BootloaderI2C_SetFlashByte,"ax",%progbits
 1503              		.align	2
 1504              		.global	BootloaderI2C_SetFlashByte
 1505              		.thumb
 1506              		.thumb_func
 1507              		.type	BootloaderI2C_SetFlashByte, %function
 1508              	BootloaderI2C_SetFlashByte:
 1509              	.LFB66:
1301:.\Generated_Source\PSoC5/BootloaderI2C.c **** 
1302:.\Generated_Source\PSoC5/BootloaderI2C.c **** 
1303:.\Generated_Source\PSoC5/BootloaderI2C.c **** /*******************************************************************************
1304:.\Generated_Source\PSoC5/BootloaderI2C.c **** * Function Name: BootloaderI2C_SetFlashByte
1305:.\Generated_Source\PSoC5/BootloaderI2C.c **** ********************************************************************************
ARM GAS  C:\Users\bramamu\AppData\Local\Temp\cczceNxl.s 			page 51


1306:.\Generated_Source\PSoC5/BootloaderI2C.c **** *
1307:.\Generated_Source\PSoC5/BootloaderI2C.c **** * Summary:
1308:.\Generated_Source\PSoC5/BootloaderI2C.c **** *  Writes byte a flash memory location
1309:.\Generated_Source\PSoC5/BootloaderI2C.c **** *
1310:.\Generated_Source\PSoC5/BootloaderI2C.c **** * Parameters:
1311:.\Generated_Source\PSoC5/BootloaderI2C.c **** *  address:
1312:.\Generated_Source\PSoC5/BootloaderI2C.c **** *      Address in Flash memory where data will be written
1313:.\Generated_Source\PSoC5/BootloaderI2C.c **** *
1314:.\Generated_Source\PSoC5/BootloaderI2C.c **** *  runType:
1315:.\Generated_Source\PSoC5/BootloaderI2C.c **** *      Byte to be written
1316:.\Generated_Source\PSoC5/BootloaderI2C.c **** *
1317:.\Generated_Source\PSoC5/BootloaderI2C.c **** * Return:
1318:.\Generated_Source\PSoC5/BootloaderI2C.c **** *  None
1319:.\Generated_Source\PSoC5/BootloaderI2C.c **** *
1320:.\Generated_Source\PSoC5/BootloaderI2C.c **** *******************************************************************************/
1321:.\Generated_Source\PSoC5/BootloaderI2C.c **** void BootloaderI2C_SetFlashByte(uint32 address, uint8 runType) 
1322:.\Generated_Source\PSoC5/BootloaderI2C.c **** {
 1510              		.loc 1 1322 0
 1511              		.cfi_startproc
 1512              		@ args = 0, pretend = 0, frame = 280
 1513              		@ frame_needed = 1, uses_anonymous_args = 0
 1514 0000 80B5     		push	{r7, lr}
 1515              	.LCFI25:
 1516              		.cfi_def_cfa_offset 8
 1517              		.cfi_offset 7, -8
 1518              		.cfi_offset 14, -4
 1519 0002 C6B0     		sub	sp, sp, #280
 1520              	.LCFI26:
 1521              		.cfi_def_cfa_offset 288
 1522 0004 00AF     		add	r7, sp, #0
 1523              	.LCFI27:
 1524              		.cfi_def_cfa_register 7
 1525 0006 07F10403 		add	r3, r7, #4
 1526 000a 1860     		str	r0, [r3, #0]
 1527 000c 0A46     		mov	r2, r1
 1528 000e 07F10303 		add	r3, r7, #3
 1529 0012 1A70     		strb	r2, [r3, #0]
1323:.\Generated_Source\PSoC5/BootloaderI2C.c ****     uint32 flsAddr = address - CYDEV_FLASH_BASE;
 1530              		.loc 1 1323 0
 1531 0014 07F10403 		add	r3, r7, #4
 1532 0018 1B68     		ldr	r3, [r3, #0]
 1533 001a C7F81031 		str	r3, [r7, #272]
1324:.\Generated_Source\PSoC5/BootloaderI2C.c ****     uint8  rowData[CYDEV_FLS_ROW_SIZE];
1325:.\Generated_Source\PSoC5/BootloaderI2C.c **** 
1326:.\Generated_Source\PSoC5/BootloaderI2C.c ****     #if !(CY_PSOC4)
1327:.\Generated_Source\PSoC5/BootloaderI2C.c ****         uint8 arrayId = ( uint8 )(flsAddr / CYDEV_FLS_SECTOR_SIZE);
 1534              		.loc 1 1327 0
 1535 001e D7F81031 		ldr	r3, [r7, #272]
 1536 0022 4FEA1343 		lsr	r3, r3, #16
 1537 0026 87F80F31 		strb	r3, [r7, #271]
1328:.\Generated_Source\PSoC5/BootloaderI2C.c ****     #endif  /* !(CY_PSOC4) */
1329:.\Generated_Source\PSoC5/BootloaderI2C.c **** 
1330:.\Generated_Source\PSoC5/BootloaderI2C.c ****     uint16 rowNum = ( uint16 )((flsAddr % CYDEV_FLS_SECTOR_SIZE) / CYDEV_FLS_ROW_SIZE);
 1538              		.loc 1 1330 0
 1539 002a D7F81031 		ldr	r3, [r7, #272]
 1540 002e 4FEA0343 		lsl	r3, r3, #16
 1541 0032 4FEA1343 		lsr	r3, r3, #16
ARM GAS  C:\Users\bramamu\AppData\Local\Temp\cczceNxl.s 			page 52


 1542 0036 4FEA1323 		lsr	r3, r3, #8
 1543 003a A7F80C31 		strh	r3, [r7, #268]	@ movhi
1331:.\Generated_Source\PSoC5/BootloaderI2C.c ****     uint32 baseAddr = address - (address % CYDEV_FLS_ROW_SIZE);
 1544              		.loc 1 1331 0
 1545 003e 07F10403 		add	r3, r7, #4
 1546 0042 1B68     		ldr	r3, [r3, #0]
 1547 0044 23F0FF03 		bic	r3, r3, #255
 1548 0048 C7F80831 		str	r3, [r7, #264]
1332:.\Generated_Source\PSoC5/BootloaderI2C.c ****     uint16 idx;
1333:.\Generated_Source\PSoC5/BootloaderI2C.c **** 
1334:.\Generated_Source\PSoC5/BootloaderI2C.c ****     for(idx = 0u; idx < CYDEV_FLS_ROW_SIZE; idx++)
 1549              		.loc 1 1334 0
 1550 004c 4FF00003 		mov	r3, #0
 1551 0050 A7F81631 		strh	r3, [r7, #278]	@ movhi
 1552 0054 10E0     		b	.L96
 1553              	.L97:
1335:.\Generated_Source\PSoC5/BootloaderI2C.c ****     {
1336:.\Generated_Source\PSoC5/BootloaderI2C.c ****         rowData[idx] = BootloaderI2C_GET_CODE_BYTE(baseAddr + idx);
 1554              		.loc 1 1336 0 discriminator 2
 1555 0056 B7F81631 		ldrh	r3, [r7, #278]
 1556 005a B7F81611 		ldrh	r1, [r7, #278]
 1557 005e D7F80821 		ldr	r2, [r7, #264]
 1558 0062 8A18     		adds	r2, r1, r2
 1559 0064 1178     		ldrb	r1, [r2, #0]	@ zero_extendqisi2
 1560 0066 07F10802 		add	r2, r7, #8
 1561 006a D154     		strb	r1, [r2, r3]
1334:.\Generated_Source\PSoC5/BootloaderI2C.c ****     for(idx = 0u; idx < CYDEV_FLS_ROW_SIZE; idx++)
 1562              		.loc 1 1334 0 discriminator 2
 1563 006c B7F81631 		ldrh	r3, [r7, #278]	@ movhi
 1564 0070 03F10103 		add	r3, r3, #1
 1565 0074 A7F81631 		strh	r3, [r7, #278]	@ movhi
 1566              	.L96:
1334:.\Generated_Source\PSoC5/BootloaderI2C.c ****     for(idx = 0u; idx < CYDEV_FLS_ROW_SIZE; idx++)
 1567              		.loc 1 1334 0 is_stmt 0 discriminator 1
 1568 0078 B7F81631 		ldrh	r3, [r7, #278]
 1569 007c FF2B     		cmp	r3, #255
 1570 007e EAD9     		bls	.L97
1337:.\Generated_Source\PSoC5/BootloaderI2C.c ****     }
1338:.\Generated_Source\PSoC5/BootloaderI2C.c **** 
1339:.\Generated_Source\PSoC5/BootloaderI2C.c ****     rowData[address % CYDEV_FLS_ROW_SIZE] = runType;
 1571              		.loc 1 1339 0 is_stmt 1
 1572 0080 07F10403 		add	r3, r7, #4
 1573 0084 1B68     		ldr	r3, [r3, #0]
 1574 0086 DBB2     		uxtb	r3, r3
 1575 0088 07F10802 		add	r2, r7, #8
 1576 008c 07F10301 		add	r1, r7, #3
 1577 0090 0978     		ldrb	r1, [r1, #0]
 1578 0092 D154     		strb	r1, [r2, r3]
1340:.\Generated_Source\PSoC5/BootloaderI2C.c **** 
1341:.\Generated_Source\PSoC5/BootloaderI2C.c ****     #if(CY_PSOC4)
1342:.\Generated_Source\PSoC5/BootloaderI2C.c ****         (void) CySysFlashWriteRow((uint32) rowNum, rowData);
1343:.\Generated_Source\PSoC5/BootloaderI2C.c ****     #else
1344:.\Generated_Source\PSoC5/BootloaderI2C.c ****         (void) CyWriteRowData(arrayId, rowNum, rowData);
 1579              		.loc 1 1344 0
 1580 0094 97F80F11 		ldrb	r1, [r7, #271]	@ zero_extendqisi2
 1581 0098 B7F80C21 		ldrh	r2, [r7, #268]
 1582 009c 07F10803 		add	r3, r7, #8
ARM GAS  C:\Users\bramamu\AppData\Local\Temp\cczceNxl.s 			page 53


 1583 00a0 0846     		mov	r0, r1
 1584 00a2 1146     		mov	r1, r2
 1585 00a4 1A46     		mov	r2, r3
 1586 00a6 FFF7FEFF 		bl	CyWriteRowData
1345:.\Generated_Source\PSoC5/BootloaderI2C.c ****     #endif  /* (CY_PSOC4) */
1346:.\Generated_Source\PSoC5/BootloaderI2C.c **** }
 1587              		.loc 1 1346 0
 1588 00aa 07F58C77 		add	r7, r7, #280
 1589 00ae BD46     		mov	sp, r7
 1590 00b0 80BD     		pop	{r7, pc}
 1591              		.cfi_endproc
 1592              	.LFE66:
 1593              		.size	BootloaderI2C_SetFlashByte, .-BootloaderI2C_SetFlashByte
 1594 00b2 00BF     		.section	.text.BootloaderI2C_GetMetadata,"ax",%progbits
 1595              		.align	2
 1596              		.thumb
 1597              		.thumb_func
 1598              		.type	BootloaderI2C_GetMetadata, %function
 1599              	BootloaderI2C_GetMetadata:
 1600              	.LFB67:
1347:.\Generated_Source\PSoC5/BootloaderI2C.c **** 
1348:.\Generated_Source\PSoC5/BootloaderI2C.c **** 
1349:.\Generated_Source\PSoC5/BootloaderI2C.c **** /*******************************************************************************
1350:.\Generated_Source\PSoC5/BootloaderI2C.c **** * Function Name: BootloaderI2C_GetMetadata
1351:.\Generated_Source\PSoC5/BootloaderI2C.c **** ********************************************************************************
1352:.\Generated_Source\PSoC5/BootloaderI2C.c **** *
1353:.\Generated_Source\PSoC5/BootloaderI2C.c **** * Summary:
1354:.\Generated_Source\PSoC5/BootloaderI2C.c **** *  Returns value of the multi-byte field.
1355:.\Generated_Source\PSoC5/BootloaderI2C.c **** *
1356:.\Generated_Source\PSoC5/BootloaderI2C.c **** * Parameters:
1357:.\Generated_Source\PSoC5/BootloaderI2C.c **** *  fieldName:
1358:.\Generated_Source\PSoC5/BootloaderI2C.c **** *   The field to get data from:
1359:.\Generated_Source\PSoC5/BootloaderI2C.c **** *     BootloaderI2C_GET_METADATA_BTLDB_ADDR
1360:.\Generated_Source\PSoC5/BootloaderI2C.c **** *     BootloaderI2C_GET_METADATA_BTLDR_LAST_ROW
1361:.\Generated_Source\PSoC5/BootloaderI2C.c **** *     BootloaderI2C_GET_METADATA_BTLDB_LENGTH
1362:.\Generated_Source\PSoC5/BootloaderI2C.c **** *     BootloaderI2C_GET_METADATA_BTLDR_APP_VERSION
1363:.\Generated_Source\PSoC5/BootloaderI2C.c **** *     BootloaderI2C_GET_METADATA_BTLDB_APP_VERSION
1364:.\Generated_Source\PSoC5/BootloaderI2C.c **** *     BootloaderI2C_GET_METADATA_BTLDB_APP_ID
1365:.\Generated_Source\PSoC5/BootloaderI2C.c **** *     BootloaderI2C_GET_METADATA_BTLDB_APP_CUST_ID
1366:.\Generated_Source\PSoC5/BootloaderI2C.c **** *
1367:.\Generated_Source\PSoC5/BootloaderI2C.c **** *  appId:
1368:.\Generated_Source\PSoC5/BootloaderI2C.c **** *   Number of the bootlodable application.
1369:.\Generated_Source\PSoC5/BootloaderI2C.c **** *
1370:.\Generated_Source\PSoC5/BootloaderI2C.c **** * Return:
1371:.\Generated_Source\PSoC5/BootloaderI2C.c **** *  None
1372:.\Generated_Source\PSoC5/BootloaderI2C.c **** *
1373:.\Generated_Source\PSoC5/BootloaderI2C.c **** *******************************************************************************/
1374:.\Generated_Source\PSoC5/BootloaderI2C.c **** static uint32 BootloaderI2C_GetMetadata(uint8 fieldName, uint8 appId)
1375:.\Generated_Source\PSoC5/BootloaderI2C.c **** {
 1601              		.loc 1 1375 0
 1602              		.cfi_startproc
 1603              		@ args = 0, pretend = 0, frame = 24
 1604              		@ frame_needed = 1, uses_anonymous_args = 0
 1605 0000 80B5     		push	{r7, lr}
 1606              	.LCFI28:
 1607              		.cfi_def_cfa_offset 8
 1608              		.cfi_offset 7, -8
ARM GAS  C:\Users\bramamu\AppData\Local\Temp\cczceNxl.s 			page 54


 1609              		.cfi_offset 14, -4
 1610 0002 86B0     		sub	sp, sp, #24
 1611              	.LCFI29:
 1612              		.cfi_def_cfa_offset 32
 1613 0004 00AF     		add	r7, sp, #0
 1614              	.LCFI30:
 1615              		.cfi_def_cfa_register 7
 1616 0006 0246     		mov	r2, r0
 1617 0008 0B46     		mov	r3, r1
 1618 000a FA71     		strb	r2, [r7, #7]
 1619 000c BB71     		strb	r3, [r7, #6]
1376:.\Generated_Source\PSoC5/BootloaderI2C.c ****     uint32 fieldPtr;
1377:.\Generated_Source\PSoC5/BootloaderI2C.c ****     uint8  fieldSize = 2u;
 1620              		.loc 1 1377 0
 1621 000e 4FF00203 		mov	r3, #2
 1622 0012 FB74     		strb	r3, [r7, #19]
1378:.\Generated_Source\PSoC5/BootloaderI2C.c ****     uint32 result;
1379:.\Generated_Source\PSoC5/BootloaderI2C.c **** 
1380:.\Generated_Source\PSoC5/BootloaderI2C.c ****     switch (fieldName)
 1623              		.loc 1 1380 0
 1624 0014 FB79     		ldrb	r3, [r7, #7]	@ zero_extendqisi2
 1625 0016 03F1FF33 		add	r3, r3, #-1
 1626 001a 062B     		cmp	r3, #6
 1627 001c 74D8     		bhi	.L99
 1628 001e 01A2     		adr	r2, .L107
 1629 0020 52F823F0 		ldr	pc, [r2, r3, lsl #2]
 1630              		.align	2
 1631              	.L107:
 1632 0024 7B000000 		.word	.L100+1
 1633 0028 9B000000 		.word	.L101+1
 1634 002c B5000000 		.word	.L102+1
 1635 0030 61000000 		.word	.L103+1
 1636 0034 D5000000 		.word	.L104+1
 1637 0038 EF000000 		.word	.L105+1
 1638 003c 41000000 		.word	.L106+1
 1639              	.L106:
1381:.\Generated_Source\PSoC5/BootloaderI2C.c ****     {
1382:.\Generated_Source\PSoC5/BootloaderI2C.c ****     case BootloaderI2C_GET_METADATA_BTLDB_APP_CUST_ID:
1383:.\Generated_Source\PSoC5/BootloaderI2C.c ****         fieldPtr  = BootloaderI2C_MD_BTLDB_APP_CUST_ID_OFFSET(appId);
 1640              		.loc 1 1383 0
 1641 0040 BA79     		ldrb	r2, [r7, #6]	@ zero_extendqisi2
 1642 0042 1346     		mov	r3, r2
 1643 0044 4FEA0363 		lsl	r3, r3, #24
 1644 0048 9B1A     		subs	r3, r3, r2
 1645 004a 4FEA0323 		lsl	r3, r3, #8
 1646 004e 03F57F33 		add	r3, r3, #261120
 1647 0052 03F57673 		add	r3, r3, #984
 1648 0056 7B61     		str	r3, [r7, #20]
1384:.\Generated_Source\PSoC5/BootloaderI2C.c ****         fieldSize = 4u;
 1649              		.loc 1 1384 0
 1650 0058 4FF00403 		mov	r3, #4
 1651 005c FB74     		strb	r3, [r7, #19]
1385:.\Generated_Source\PSoC5/BootloaderI2C.c ****         break;
 1652              		.loc 1 1385 0
 1653 005e 5BE0     		b	.L108
 1654              	.L103:
1386:.\Generated_Source\PSoC5/BootloaderI2C.c **** 
ARM GAS  C:\Users\bramamu\AppData\Local\Temp\cczceNxl.s 			page 55


1387:.\Generated_Source\PSoC5/BootloaderI2C.c ****     case BootloaderI2C_GET_METADATA_BTLDR_APP_VERSION:
1388:.\Generated_Source\PSoC5/BootloaderI2C.c ****         fieldPtr  = BootloaderI2C_MD_BTLDR_APP_VERSION_OFFSET(appId);
 1655              		.loc 1 1388 0
 1656 0060 BA79     		ldrb	r2, [r7, #6]	@ zero_extendqisi2
 1657 0062 1346     		mov	r3, r2
 1658 0064 4FEA0363 		lsl	r3, r3, #24
 1659 0068 9B1A     		subs	r3, r3, r2
 1660 006a 4FEA0323 		lsl	r3, r3, #8
 1661 006e 03F57F33 		add	r3, r3, #261120
 1662 0072 03F2D233 		addw	r3, r3, #978
 1663 0076 7B61     		str	r3, [r7, #20]
1389:.\Generated_Source\PSoC5/BootloaderI2C.c ****         break;
 1664              		.loc 1 1389 0
 1665 0078 4EE0     		b	.L108
 1666              	.L100:
1390:.\Generated_Source\PSoC5/BootloaderI2C.c **** 
1391:.\Generated_Source\PSoC5/BootloaderI2C.c ****     case BootloaderI2C_GET_METADATA_BTLDB_ADDR:
1392:.\Generated_Source\PSoC5/BootloaderI2C.c ****         fieldPtr  = BootloaderI2C_MD_BTLDB_ADDR_OFFSET(appId);
 1667              		.loc 1 1392 0
 1668 007a BA79     		ldrb	r2, [r7, #6]	@ zero_extendqisi2
 1669 007c 1346     		mov	r3, r2
 1670 007e 4FEA0363 		lsl	r3, r3, #24
 1671 0082 9B1A     		subs	r3, r3, r2
 1672 0084 4FEA0323 		lsl	r3, r3, #8
 1673 0088 03F57F33 		add	r3, r3, #261120
 1674 008c 03F2C133 		addw	r3, r3, #961
 1675 0090 7B61     		str	r3, [r7, #20]
1393:.\Generated_Source\PSoC5/BootloaderI2C.c ****     #if(!CY_PSOC3)
1394:.\Generated_Source\PSoC5/BootloaderI2C.c ****         fieldSize = 4u;
 1676              		.loc 1 1394 0
 1677 0092 4FF00403 		mov	r3, #4
 1678 0096 FB74     		strb	r3, [r7, #19]
1395:.\Generated_Source\PSoC5/BootloaderI2C.c ****     #endif  /* (!CY_PSOC3) */
1396:.\Generated_Source\PSoC5/BootloaderI2C.c ****         break;
 1679              		.loc 1 1396 0
 1680 0098 3EE0     		b	.L108
 1681              	.L101:
1397:.\Generated_Source\PSoC5/BootloaderI2C.c **** 
1398:.\Generated_Source\PSoC5/BootloaderI2C.c ****     case BootloaderI2C_GET_METADATA_BTLDR_LAST_ROW:
1399:.\Generated_Source\PSoC5/BootloaderI2C.c ****         fieldPtr  = BootloaderI2C_MD_BTLDR_LAST_ROW_OFFSET(appId);
 1682              		.loc 1 1399 0
 1683 009a BA79     		ldrb	r2, [r7, #6]	@ zero_extendqisi2
 1684 009c 1346     		mov	r3, r2
 1685 009e 4FEA0363 		lsl	r3, r3, #24
 1686 00a2 9B1A     		subs	r3, r3, r2
 1687 00a4 4FEA0323 		lsl	r3, r3, #8
 1688 00a8 03F57F33 		add	r3, r3, #261120
 1689 00ac 03F2C533 		addw	r3, r3, #965
 1690 00b0 7B61     		str	r3, [r7, #20]
1400:.\Generated_Source\PSoC5/BootloaderI2C.c ****         break;
 1691              		.loc 1 1400 0
 1692 00b2 31E0     		b	.L108
 1693              	.L102:
1401:.\Generated_Source\PSoC5/BootloaderI2C.c **** 
1402:.\Generated_Source\PSoC5/BootloaderI2C.c ****     case BootloaderI2C_GET_METADATA_BTLDB_LENGTH:
1403:.\Generated_Source\PSoC5/BootloaderI2C.c ****         fieldPtr  = BootloaderI2C_MD_BTLDB_LENGTH_OFFSET(appId);
 1694              		.loc 1 1403 0
ARM GAS  C:\Users\bramamu\AppData\Local\Temp\cczceNxl.s 			page 56


 1695 00b4 BA79     		ldrb	r2, [r7, #6]	@ zero_extendqisi2
 1696 00b6 1346     		mov	r3, r2
 1697 00b8 4FEA0363 		lsl	r3, r3, #24
 1698 00bc 9B1A     		subs	r3, r3, r2
 1699 00be 4FEA0323 		lsl	r3, r3, #8
 1700 00c2 03F57F33 		add	r3, r3, #261120
 1701 00c6 03F2C933 		addw	r3, r3, #969
 1702 00ca 7B61     		str	r3, [r7, #20]
1404:.\Generated_Source\PSoC5/BootloaderI2C.c ****     #if(!CY_PSOC3)
1405:.\Generated_Source\PSoC5/BootloaderI2C.c ****         fieldSize = 4u;
 1703              		.loc 1 1405 0
 1704 00cc 4FF00403 		mov	r3, #4
 1705 00d0 FB74     		strb	r3, [r7, #19]
1406:.\Generated_Source\PSoC5/BootloaderI2C.c ****     #endif  /* (!CY_PSOC3) */
1407:.\Generated_Source\PSoC5/BootloaderI2C.c ****         break;
 1706              		.loc 1 1407 0
 1707 00d2 21E0     		b	.L108
 1708              	.L104:
1408:.\Generated_Source\PSoC5/BootloaderI2C.c **** 
1409:.\Generated_Source\PSoC5/BootloaderI2C.c ****     case BootloaderI2C_GET_METADATA_BTLDB_APP_VERSION:
1410:.\Generated_Source\PSoC5/BootloaderI2C.c ****         fieldPtr  = BootloaderI2C_MD_BTLDB_APP_VERSION_OFFSET(appId);
 1709              		.loc 1 1410 0
 1710 00d4 BA79     		ldrb	r2, [r7, #6]	@ zero_extendqisi2
 1711 00d6 1346     		mov	r3, r2
 1712 00d8 4FEA0363 		lsl	r3, r3, #24
 1713 00dc 9B1A     		subs	r3, r3, r2
 1714 00de 4FEA0323 		lsl	r3, r3, #8
 1715 00e2 03F57F33 		add	r3, r3, #261120
 1716 00e6 03F2D633 		addw	r3, r3, #982
 1717 00ea 7B61     		str	r3, [r7, #20]
1411:.\Generated_Source\PSoC5/BootloaderI2C.c ****         break;
 1718              		.loc 1 1411 0
 1719 00ec 14E0     		b	.L108
 1720              	.L105:
1412:.\Generated_Source\PSoC5/BootloaderI2C.c **** 
1413:.\Generated_Source\PSoC5/BootloaderI2C.c ****     case BootloaderI2C_GET_METADATA_BTLDB_APP_ID:
1414:.\Generated_Source\PSoC5/BootloaderI2C.c ****         fieldPtr  = BootloaderI2C_MD_BTLDB_APP_ID_OFFSET(appId);
 1721              		.loc 1 1414 0
 1722 00ee BA79     		ldrb	r2, [r7, #6]	@ zero_extendqisi2
 1723 00f0 1346     		mov	r3, r2
 1724 00f2 4FEA0363 		lsl	r3, r3, #24
 1725 00f6 9B1A     		subs	r3, r3, r2
 1726 00f8 4FEA0323 		lsl	r3, r3, #8
 1727 00fc 03F57F33 		add	r3, r3, #261120
 1728 0100 03F57573 		add	r3, r3, #980
 1729 0104 7B61     		str	r3, [r7, #20]
1415:.\Generated_Source\PSoC5/BootloaderI2C.c ****         break;
 1730              		.loc 1 1415 0
 1731 0106 07E0     		b	.L108
 1732              	.L99:
1416:.\Generated_Source\PSoC5/BootloaderI2C.c **** 
1417:.\Generated_Source\PSoC5/BootloaderI2C.c ****     default:
1418:.\Generated_Source\PSoC5/BootloaderI2C.c ****         /* Should never be here */
1419:.\Generated_Source\PSoC5/BootloaderI2C.c ****         CYASSERT(0u != 0u);
 1733              		.loc 1 1419 0 discriminator 1
 1734 0108 4FF00000 		mov	r0, #0
 1735 010c FFF7FEFF 		bl	CyHalt
ARM GAS  C:\Users\bramamu\AppData\Local\Temp\cczceNxl.s 			page 57


1420:.\Generated_Source\PSoC5/BootloaderI2C.c ****         fieldPtr  = 0u;
 1736              		.loc 1 1420 0 discriminator 1
 1737 0110 4FF00003 		mov	r3, #0
 1738 0114 7B61     		str	r3, [r7, #20]
1421:.\Generated_Source\PSoC5/BootloaderI2C.c ****         break;
 1739              		.loc 1 1421 0
 1740 0116 00BF     		nop
 1741              	.L108:
1422:.\Generated_Source\PSoC5/BootloaderI2C.c ****     }
1423:.\Generated_Source\PSoC5/BootloaderI2C.c **** 
1424:.\Generated_Source\PSoC5/BootloaderI2C.c **** 
1425:.\Generated_Source\PSoC5/BootloaderI2C.c ****     /* Read all fields as big-endian */
1426:.\Generated_Source\PSoC5/BootloaderI2C.c ****     if (2u == fieldSize)
 1742              		.loc 1 1426 0
 1743 0118 FB7C     		ldrb	r3, [r7, #19]	@ zero_extendqisi2
 1744 011a 022B     		cmp	r3, #2
 1745 011c 0ED1     		bne	.L109
1427:.\Generated_Source\PSoC5/BootloaderI2C.c ****     {
1428:.\Generated_Source\PSoC5/BootloaderI2C.c ****         result =  (uint32) CY_GET_XTND_REG8((volatile uint8 *)(fieldPtr + 1u));
 1746              		.loc 1 1428 0
 1747 011e 7B69     		ldr	r3, [r7, #20]
 1748 0120 03F10103 		add	r3, r3, #1
 1749 0124 1B78     		ldrb	r3, [r3, #0]
 1750 0126 DBB2     		uxtb	r3, r3
 1751 0128 FB60     		str	r3, [r7, #12]
1429:.\Generated_Source\PSoC5/BootloaderI2C.c ****         result |= (uint32) CY_GET_XTND_REG8((volatile uint8 *) fieldPtr      ) <<  8u;
 1752              		.loc 1 1429 0
 1753 012a 7B69     		ldr	r3, [r7, #20]
 1754 012c 1B78     		ldrb	r3, [r3, #0]
 1755 012e DBB2     		uxtb	r3, r3
 1756 0130 4FEA0323 		lsl	r3, r3, #8
 1757 0134 FA68     		ldr	r2, [r7, #12]
 1758 0136 1343     		orrs	r3, r3, r2
 1759 0138 FB60     		str	r3, [r7, #12]
 1760 013a 21E0     		b	.L110
 1761              	.L109:
1430:.\Generated_Source\PSoC5/BootloaderI2C.c ****     }
1431:.\Generated_Source\PSoC5/BootloaderI2C.c ****     else
1432:.\Generated_Source\PSoC5/BootloaderI2C.c ****     {
1433:.\Generated_Source\PSoC5/BootloaderI2C.c ****         result =  (uint32) CY_GET_XTND_REG8((volatile uint8 *)(fieldPtr + 3u));
 1762              		.loc 1 1433 0
 1763 013c 7B69     		ldr	r3, [r7, #20]
 1764 013e 03F10303 		add	r3, r3, #3
 1765 0142 1B78     		ldrb	r3, [r3, #0]
 1766 0144 DBB2     		uxtb	r3, r3
 1767 0146 FB60     		str	r3, [r7, #12]
1434:.\Generated_Source\PSoC5/BootloaderI2C.c ****         result |= (uint32) CY_GET_XTND_REG8((volatile uint8 *)(fieldPtr + 2u)) <<  8u;
 1768              		.loc 1 1434 0
 1769 0148 7B69     		ldr	r3, [r7, #20]
 1770 014a 03F10203 		add	r3, r3, #2
 1771 014e 1B78     		ldrb	r3, [r3, #0]
 1772 0150 DBB2     		uxtb	r3, r3
 1773 0152 4FEA0323 		lsl	r3, r3, #8
 1774 0156 FA68     		ldr	r2, [r7, #12]
 1775 0158 1343     		orrs	r3, r3, r2
 1776 015a FB60     		str	r3, [r7, #12]
1435:.\Generated_Source\PSoC5/BootloaderI2C.c ****         result |= (uint32) CY_GET_XTND_REG8((volatile uint8 *)(fieldPtr + 1u)) << 16u;
ARM GAS  C:\Users\bramamu\AppData\Local\Temp\cczceNxl.s 			page 58


 1777              		.loc 1 1435 0
 1778 015c 7B69     		ldr	r3, [r7, #20]
 1779 015e 03F10103 		add	r3, r3, #1
 1780 0162 1B78     		ldrb	r3, [r3, #0]
 1781 0164 DBB2     		uxtb	r3, r3
 1782 0166 4FEA0343 		lsl	r3, r3, #16
 1783 016a FA68     		ldr	r2, [r7, #12]
 1784 016c 1343     		orrs	r3, r3, r2
 1785 016e FB60     		str	r3, [r7, #12]
1436:.\Generated_Source\PSoC5/BootloaderI2C.c ****         result |= (uint32) CY_GET_XTND_REG8((volatile uint8 *)(fieldPtr     )) << 24u;
 1786              		.loc 1 1436 0
 1787 0170 7B69     		ldr	r3, [r7, #20]
 1788 0172 1B78     		ldrb	r3, [r3, #0]
 1789 0174 DBB2     		uxtb	r3, r3
 1790 0176 4FEA0363 		lsl	r3, r3, #24
 1791 017a FA68     		ldr	r2, [r7, #12]
 1792 017c 1343     		orrs	r3, r3, r2
 1793 017e FB60     		str	r3, [r7, #12]
 1794              	.L110:
1437:.\Generated_Source\PSoC5/BootloaderI2C.c ****     }
1438:.\Generated_Source\PSoC5/BootloaderI2C.c **** 
1439:.\Generated_Source\PSoC5/BootloaderI2C.c ****     /* Following fields should be little-endian */
1440:.\Generated_Source\PSoC5/BootloaderI2C.c **** #if(!CY_PSOC3)
1441:.\Generated_Source\PSoC5/BootloaderI2C.c ****     switch (fieldName)
 1795              		.loc 1 1441 0
 1796 0180 FB79     		ldrb	r3, [r7, #7]	@ zero_extendqisi2
 1797 0182 022B     		cmp	r3, #2
 1798 0184 04D0     		beq	.L113
 1799 0186 032B     		cmp	r3, #3
 1800 0188 0FD0     		beq	.L112
 1801 018a 012B     		cmp	r3, #1
 1802 018c 0DD0     		beq	.L112
 1803 018e 21E0     		b	.L116
 1804              	.L113:
1442:.\Generated_Source\PSoC5/BootloaderI2C.c ****     {
1443:.\Generated_Source\PSoC5/BootloaderI2C.c ****     case BootloaderI2C_GET_METADATA_BTLDR_LAST_ROW:
1444:.\Generated_Source\PSoC5/BootloaderI2C.c ****         result = CYSWAP_ENDIAN16(result);
 1805              		.loc 1 1444 0
 1806 0190 FB68     		ldr	r3, [r7, #12]
 1807 0192 9BB2     		uxth	r3, r3
 1808 0194 4FEA0323 		lsl	r3, r3, #8
 1809 0198 9AB2     		uxth	r2, r3
 1810 019a FB68     		ldr	r3, [r7, #12]
 1811 019c 4FEA1323 		lsr	r3, r3, #8
 1812 01a0 9BB2     		uxth	r3, r3
 1813 01a2 1343     		orrs	r3, r3, r2
 1814 01a4 9BB2     		uxth	r3, r3
 1815 01a6 FB60     		str	r3, [r7, #12]
1445:.\Generated_Source\PSoC5/BootloaderI2C.c ****         break;
 1816              		.loc 1 1445 0
 1817 01a8 15E0     		b	.L114
 1818              	.L112:
1446:.\Generated_Source\PSoC5/BootloaderI2C.c **** 
1447:.\Generated_Source\PSoC5/BootloaderI2C.c ****     case BootloaderI2C_GET_METADATA_BTLDB_ADDR:
1448:.\Generated_Source\PSoC5/BootloaderI2C.c ****     case BootloaderI2C_GET_METADATA_BTLDB_LENGTH:
1449:.\Generated_Source\PSoC5/BootloaderI2C.c ****         result = CYSWAP_ENDIAN32(result);
 1819              		.loc 1 1449 0
ARM GAS  C:\Users\bramamu\AppData\Local\Temp\cczceNxl.s 			page 59


 1820 01aa FB68     		ldr	r3, [r7, #12]
 1821 01ac 4FEA1362 		lsr	r2, r3, #24
 1822 01b0 FB68     		ldr	r3, [r7, #12]
 1823 01b2 03F47F03 		and	r3, r3, #16711680
 1824 01b6 4FEA1323 		lsr	r3, r3, #8
 1825 01ba 1A43     		orrs	r2, r2, r3
 1826 01bc FB68     		ldr	r3, [r7, #12]
 1827 01be 03F47F43 		and	r3, r3, #65280
 1828 01c2 4FEA0323 		lsl	r3, r3, #8
 1829 01c6 1A43     		orrs	r2, r2, r3
 1830 01c8 FB68     		ldr	r3, [r7, #12]
 1831 01ca 4FEA0363 		lsl	r3, r3, #24
 1832 01ce 1343     		orrs	r3, r3, r2
 1833 01d0 FB60     		str	r3, [r7, #12]
1450:.\Generated_Source\PSoC5/BootloaderI2C.c ****         break;
 1834              		.loc 1 1450 0
 1835 01d2 00E0     		b	.L114
 1836              	.L116:
1451:.\Generated_Source\PSoC5/BootloaderI2C.c **** 
1452:.\Generated_Source\PSoC5/BootloaderI2C.c ****     default:
1453:.\Generated_Source\PSoC5/BootloaderI2C.c ****         break;
 1837              		.loc 1 1453 0
 1838 01d4 00BF     		nop
 1839              	.L114:
1454:.\Generated_Source\PSoC5/BootloaderI2C.c ****     }
1455:.\Generated_Source\PSoC5/BootloaderI2C.c **** 
1456:.\Generated_Source\PSoC5/BootloaderI2C.c **** #endif  /* (!CY_PSOC3) */
1457:.\Generated_Source\PSoC5/BootloaderI2C.c **** 
1458:.\Generated_Source\PSoC5/BootloaderI2C.c ****     return (result);
 1840              		.loc 1 1458 0
 1841 01d6 FB68     		ldr	r3, [r7, #12]
1459:.\Generated_Source\PSoC5/BootloaderI2C.c **** }
 1842              		.loc 1 1459 0
 1843 01d8 1846     		mov	r0, r3
 1844 01da 07F11807 		add	r7, r7, #24
 1845 01de BD46     		mov	sp, r7
 1846 01e0 80BD     		pop	{r7, pc}
 1847              		.cfi_endproc
 1848              	.LFE67:
 1849              		.size	BootloaderI2C_GetMetadata, .-BootloaderI2C_GetMetadata
 1850 01e2 00BF     		.text
 1851              	.Letext0:
 1852              		.file 2 "c:\\program files (x86)\\cypress\\psoc creator\\3.0\\psoc creator\\import\\gnu_cs\\arm\\4
 1853              		.file 3 ".\\Generated_Source\\PSoC5\\cytypes.h"
 1854              		.file 4 ".\\Generated_Source\\PSoC5\\BootloaderI2C_PVT.h"
 1855              		.file 5 "./Generated_Source/PSoC5/core_cm3.h"