ARM GAS  C:\Users\bramamu\AppData\Local\Temp\cczceNxl.s 			page 1


   1              		.syntax unified
   2              		.cpu cortex-m3
   3              		.fpu softvfp
   4              		.eabi_attribute 20, 1
   5              		.eabi_attribute 21, 1
   6              		.eabi_attribute 23, 3
   7              		.eabi_attribute 24, 1
   8              		.eabi_attribute 25, 1
   9              		.eabi_attribute 26, 1
  10              		.eabi_attribute 30, 6
  11              		.eabi_attribute 34, 1
  12              		.eabi_attribute 18, 4
  13              		.thumb
  14              		.file	"BootloaderI2C.c"
  15              		.text
  16              	.Ltext0:
  17              		.cfi_sections	.debug_frame
  18              		.global	BootloaderI2C_Checksum
  19              		.section	.bootloader,"a",%progbits
  20              		.type	BootloaderI2C_Checksum, %object
  21              		.size	BootloaderI2C_Checksum, 1
  22              	BootloaderI2C_Checksum:
  23 0000 00       		.space	1
  24              		.global	BootloaderI2C_ChecksumAccess
  25              		.data
  26              		.align	2
  27              		.type	BootloaderI2C_ChecksumAccess, %object
  28              		.size	BootloaderI2C_ChecksumAccess, 4
  29              	BootloaderI2C_ChecksumAccess:
  30 0000 00000000 		.word	BootloaderI2C_Checksum
  31              		.global	BootloaderI2C_SizeBytes
  32              		.section	.bootloader
  33 0001 000000   		.align	2
  34              		.type	BootloaderI2C_SizeBytes, %object
  35              		.size	BootloaderI2C_SizeBytes, 4
  36              	BootloaderI2C_SizeBytes:
  37 0004 FFFFFFFF 		.word	-1
  38              		.global	BootloaderI2C_SizeBytesAccess
  39              		.data
  40              		.align	2
  41              		.type	BootloaderI2C_SizeBytesAccess, %object
  42              		.size	BootloaderI2C_SizeBytesAccess, 4
  43              	BootloaderI2C_SizeBytesAccess:
  44 0004 00000000 		.word	BootloaderI2C_SizeBytes
  45              		.section	.text.BootloaderI2C_CalcPacketChecksum,"ax",%progbits
  46              		.align	2
  47              		.thumb
  48              		.thumb_func
  49              		.type	BootloaderI2C_CalcPacketChecksum, %function
  50              	BootloaderI2C_CalcPacketChecksum:
  51              	.LFB56:
  52              		.file 1 ".\\Generated_Source\\PSoC5\\BootloaderI2C.c"
   1:.\Generated_Source\PSoC5/BootloaderI2C.c **** /*******************************************************************************
   2:.\Generated_Source\PSoC5/BootloaderI2C.c **** * File Name: BootloaderI2C.c
   3:.\Generated_Source\PSoC5/BootloaderI2C.c **** * Version 1.20
   4:.\Generated_Source\PSoC5/BootloaderI2C.c **** *
   5:.\Generated_Source\PSoC5/BootloaderI2C.c **** *  Description:
ARM GAS  C:\Users\bramamu\AppData\Local\Temp\cczceNxl.s 			page 2


   6:.\Generated_Source\PSoC5/BootloaderI2C.c **** *   Provides an API for the Bootloader component. The API includes functions
   7:.\Generated_Source\PSoC5/BootloaderI2C.c **** *   for starting boot loading operations, validating the application and
   8:.\Generated_Source\PSoC5/BootloaderI2C.c **** *   jumping to the application.
   9:.\Generated_Source\PSoC5/BootloaderI2C.c **** *
  10:.\Generated_Source\PSoC5/BootloaderI2C.c **** ********************************************************************************
  11:.\Generated_Source\PSoC5/BootloaderI2C.c **** * Copyright 2008-2013, Cypress Semiconductor Corporation.  All rights reserved.
  12:.\Generated_Source\PSoC5/BootloaderI2C.c **** * You may use this file only in accordance with the license, terms, conditions,
  13:.\Generated_Source\PSoC5/BootloaderI2C.c **** * disclaimers, and limitations in the end user license agreement accompanying
  14:.\Generated_Source\PSoC5/BootloaderI2C.c **** * the software package with which this file was provided.
  15:.\Generated_Source\PSoC5/BootloaderI2C.c **** *******************************************************************************/
  16:.\Generated_Source\PSoC5/BootloaderI2C.c **** 
  17:.\Generated_Source\PSoC5/BootloaderI2C.c **** #include "BootloaderI2C_PVT.h"
  18:.\Generated_Source\PSoC5/BootloaderI2C.c **** 
  19:.\Generated_Source\PSoC5/BootloaderI2C.c **** #include "project.h"
  20:.\Generated_Source\PSoC5/BootloaderI2C.c **** #include <string.h>
  21:.\Generated_Source\PSoC5/BootloaderI2C.c **** 
  22:.\Generated_Source\PSoC5/BootloaderI2C.c **** 
  23:.\Generated_Source\PSoC5/BootloaderI2C.c **** /*******************************************************************************
  24:.\Generated_Source\PSoC5/BootloaderI2C.c **** * The Checksum and SizeBytes are forcefully set in code. We then post process
  25:.\Generated_Source\PSoC5/BootloaderI2C.c **** * the hex file from the linker and inject their values then. When the hex file
  26:.\Generated_Source\PSoC5/BootloaderI2C.c **** * is loaded onto the device these two variables should have valid values.
  27:.\Generated_Source\PSoC5/BootloaderI2C.c **** * Because the compiler can do optimizations remove the constant
  28:.\Generated_Source\PSoC5/BootloaderI2C.c **** * accesses, these should not be accessed directly. Instead, the variables
  29:.\Generated_Source\PSoC5/BootloaderI2C.c **** * CyBtldr_ChecksumAccess & CyBtldr_SizeBytesAccess should be used to get the
  30:.\Generated_Source\PSoC5/BootloaderI2C.c **** * proper values at runtime.
  31:.\Generated_Source\PSoC5/BootloaderI2C.c **** *******************************************************************************/
  32:.\Generated_Source\PSoC5/BootloaderI2C.c **** #if defined(__ARMCC_VERSION) || defined (__GNUC__)
  33:.\Generated_Source\PSoC5/BootloaderI2C.c ****     __attribute__((section (".bootloader")))
  34:.\Generated_Source\PSoC5/BootloaderI2C.c **** #elif defined (__ICCARM__)
  35:.\Generated_Source\PSoC5/BootloaderI2C.c ****     #pragma location=".bootloader"
  36:.\Generated_Source\PSoC5/BootloaderI2C.c **** #endif  /* defined(__ARMCC_VERSION) || defined (__GNUC__) */
  37:.\Generated_Source\PSoC5/BootloaderI2C.c **** 
  38:.\Generated_Source\PSoC5/BootloaderI2C.c **** const uint8  CYCODE BootloaderI2C_Checksum = 0u;
  39:.\Generated_Source\PSoC5/BootloaderI2C.c **** const uint8  CYCODE *BootloaderI2C_ChecksumAccess  = (const uint8  CYCODE *)(&BootloaderI2C_Checksu
  40:.\Generated_Source\PSoC5/BootloaderI2C.c **** 
  41:.\Generated_Source\PSoC5/BootloaderI2C.c **** #if defined(__ARMCC_VERSION) || defined (__GNUC__)
  42:.\Generated_Source\PSoC5/BootloaderI2C.c ****     __attribute__((section (".bootloader")))
  43:.\Generated_Source\PSoC5/BootloaderI2C.c **** #elif defined (__ICCARM__)
  44:.\Generated_Source\PSoC5/BootloaderI2C.c ****     #pragma location=".bootloader"
  45:.\Generated_Source\PSoC5/BootloaderI2C.c **** #endif  /* defined(__ARMCC_VERSION) || defined (__GNUC__) */
  46:.\Generated_Source\PSoC5/BootloaderI2C.c **** 
  47:.\Generated_Source\PSoC5/BootloaderI2C.c **** const uint32 CYCODE BootloaderI2C_SizeBytes = 0xFFFFFFFFu;
  48:.\Generated_Source\PSoC5/BootloaderI2C.c **** const uint32 CYCODE *BootloaderI2C_SizeBytesAccess = (const uint32 CYCODE *)(&BootloaderI2C_SizeByt
  49:.\Generated_Source\PSoC5/BootloaderI2C.c **** 
  50:.\Generated_Source\PSoC5/BootloaderI2C.c **** 
  51:.\Generated_Source\PSoC5/BootloaderI2C.c **** #if(0u != BootloaderI2C_DUAL_APP_BOOTLOADER)
  52:.\Generated_Source\PSoC5/BootloaderI2C.c ****     uint8 BootloaderI2C_activeApp = BootloaderI2C_MD_BTLDB_ACTIVE_NONE;
  53:.\Generated_Source\PSoC5/BootloaderI2C.c **** #else
  54:.\Generated_Source\PSoC5/BootloaderI2C.c ****     #define BootloaderI2C_activeApp      (BootloaderI2C_MD_BTLDB_ACTIVE_0)
  55:.\Generated_Source\PSoC5/BootloaderI2C.c **** #endif  /* (0u != BootloaderI2C_DUAL_APP_BOOTLOADER) */
  56:.\Generated_Source\PSoC5/BootloaderI2C.c **** 
  57:.\Generated_Source\PSoC5/BootloaderI2C.c **** 
  58:.\Generated_Source\PSoC5/BootloaderI2C.c **** /***************************************
  59:.\Generated_Source\PSoC5/BootloaderI2C.c **** *     Function Prototypes
  60:.\Generated_Source\PSoC5/BootloaderI2C.c **** ***************************************/
  61:.\Generated_Source\PSoC5/BootloaderI2C.c **** static cystatus BootloaderI2C_WritePacket(uint8 status, uint8 buffer[], uint16 size) CYSMALL \
  62:.\Generated_Source\PSoC5/BootloaderI2C.c ****                                     ;
ARM GAS  C:\Users\bramamu\AppData\Local\Temp\cczceNxl.s 			page 3


  63:.\Generated_Source\PSoC5/BootloaderI2C.c **** 
  64:.\Generated_Source\PSoC5/BootloaderI2C.c **** static uint16   BootloaderI2C_CalcPacketChecksum(const uint8 buffer[], uint16 size) CYSMALL \
  65:.\Generated_Source\PSoC5/BootloaderI2C.c ****                                     ;
  66:.\Generated_Source\PSoC5/BootloaderI2C.c **** 
  67:.\Generated_Source\PSoC5/BootloaderI2C.c **** static uint8    BootloaderI2C_Calc8BitFlashSum(uint32 start, uint32 size) CYSMALL \
  68:.\Generated_Source\PSoC5/BootloaderI2C.c ****                                     ;
  69:.\Generated_Source\PSoC5/BootloaderI2C.c **** #if(!CY_PSOC4)
  70:.\Generated_Source\PSoC5/BootloaderI2C.c **** static uint8    BootloaderI2C_Calc8BitEepromSum(uint32 start, uint32 size) CYSMALL \
  71:.\Generated_Source\PSoC5/BootloaderI2C.c ****                                     ;
  72:.\Generated_Source\PSoC5/BootloaderI2C.c **** #endif /* (!CY_PSOC4) */
  73:.\Generated_Source\PSoC5/BootloaderI2C.c **** 
  74:.\Generated_Source\PSoC5/BootloaderI2C.c **** static void     BootloaderI2C_HostLink(uint8 timeOut) \
  75:.\Generated_Source\PSoC5/BootloaderI2C.c ****                                     ;
  76:.\Generated_Source\PSoC5/BootloaderI2C.c **** 
  77:.\Generated_Source\PSoC5/BootloaderI2C.c **** static void     BootloaderI2C_LaunchApplication(void) CYSMALL \
  78:.\Generated_Source\PSoC5/BootloaderI2C.c ****                                     ;
  79:.\Generated_Source\PSoC5/BootloaderI2C.c **** 
  80:.\Generated_Source\PSoC5/BootloaderI2C.c **** static cystatus BootloaderI2C_ValidateBootloadable(uint8 appId) CYSMALL \
  81:.\Generated_Source\PSoC5/BootloaderI2C.c ****                                     ;
  82:.\Generated_Source\PSoC5/BootloaderI2C.c **** 
  83:.\Generated_Source\PSoC5/BootloaderI2C.c **** static uint32   BootloaderI2C_GetMetadata(uint8 fieldName, uint8 appId)\
  84:.\Generated_Source\PSoC5/BootloaderI2C.c ****                                     ;
  85:.\Generated_Source\PSoC5/BootloaderI2C.c **** 
  86:.\Generated_Source\PSoC5/BootloaderI2C.c **** #if(!CY_PSOC3)
  87:.\Generated_Source\PSoC5/BootloaderI2C.c ****     /* Implementation for the PSoC 3 resides in a BootloaderI2C_psoc3.a51 file.  */
  88:.\Generated_Source\PSoC5/BootloaderI2C.c ****     static void     BootloaderI2C_LaunchBootloadable(uint32 appAddr);
  89:.\Generated_Source\PSoC5/BootloaderI2C.c **** #endif  /* (!CY_PSOC3) */
  90:.\Generated_Source\PSoC5/BootloaderI2C.c **** 
  91:.\Generated_Source\PSoC5/BootloaderI2C.c **** 
  92:.\Generated_Source\PSoC5/BootloaderI2C.c **** /*******************************************************************************
  93:.\Generated_Source\PSoC5/BootloaderI2C.c **** * Function Name: BootloaderI2C_CalcPacketChecksum
  94:.\Generated_Source\PSoC5/BootloaderI2C.c **** ********************************************************************************
  95:.\Generated_Source\PSoC5/BootloaderI2C.c **** *
  96:.\Generated_Source\PSoC5/BootloaderI2C.c **** * Summary:
  97:.\Generated_Source\PSoC5/BootloaderI2C.c **** *  This computes the 16 bit checksum for the provided number of bytes contained
  98:.\Generated_Source\PSoC5/BootloaderI2C.c **** *  in the provided buffer
  99:.\Generated_Source\PSoC5/BootloaderI2C.c **** *
 100:.\Generated_Source\PSoC5/BootloaderI2C.c **** * Parameters:
 101:.\Generated_Source\PSoC5/BootloaderI2C.c **** *  buffer:
 102:.\Generated_Source\PSoC5/BootloaderI2C.c **** *     The buffer containing the data to compute the checksum for
 103:.\Generated_Source\PSoC5/BootloaderI2C.c **** *  size:
 104:.\Generated_Source\PSoC5/BootloaderI2C.c **** *     The number of bytes in buffer to compute the checksum for
 105:.\Generated_Source\PSoC5/BootloaderI2C.c **** *
 106:.\Generated_Source\PSoC5/BootloaderI2C.c **** * Returns:
 107:.\Generated_Source\PSoC5/BootloaderI2C.c **** *  16 bit checksum for the provided data
 108:.\Generated_Source\PSoC5/BootloaderI2C.c **** *
 109:.\Generated_Source\PSoC5/BootloaderI2C.c **** *******************************************************************************/
 110:.\Generated_Source\PSoC5/BootloaderI2C.c **** static uint16 BootloaderI2C_CalcPacketChecksum(const uint8 buffer[], uint16 size) \
 111:.\Generated_Source\PSoC5/BootloaderI2C.c ****                     CYSMALL 
 112:.\Generated_Source\PSoC5/BootloaderI2C.c **** {
  53              		.loc 1 112 0
  54              		.cfi_startproc
  55              		@ args = 0, pretend = 0, frame = 16
  56              		@ frame_needed = 1, uses_anonymous_args = 0
  57              		@ link register save eliminated.
  58 0000 80B4     		push	{r7}
  59              	.LCFI0:
ARM GAS  C:\Users\bramamu\AppData\Local\Temp\cczceNxl.s 			page 4


  60              		.cfi_def_cfa_offset 4
  61              		.cfi_offset 7, -4
  62 0002 85B0     		sub	sp, sp, #20
  63              	.LCFI1:
  64              		.cfi_def_cfa_offset 24
  65 0004 00AF     		add	r7, sp, #0
  66              	.LCFI2:
  67              		.cfi_def_cfa_register 7
  68 0006 7860     		str	r0, [r7, #4]
  69 0008 0B46     		mov	r3, r1
  70 000a 7B80     		strh	r3, [r7, #2]	@ movhi
 113:.\Generated_Source\PSoC5/BootloaderI2C.c ****     #if(0u != BootloaderI2C_PACKET_CHECKSUM_CRC)
 114:.\Generated_Source\PSoC5/BootloaderI2C.c **** 
 115:.\Generated_Source\PSoC5/BootloaderI2C.c ****         uint16 CYDATA crc = BootloaderI2C_CRC_CCITT_INITIAL_VALUE;
 116:.\Generated_Source\PSoC5/BootloaderI2C.c ****         uint16 CYDATA tmp;
 117:.\Generated_Source\PSoC5/BootloaderI2C.c ****         uint8  CYDATA i;
 118:.\Generated_Source\PSoC5/BootloaderI2C.c ****         uint16 CYDATA tmpIndex = size;
 119:.\Generated_Source\PSoC5/BootloaderI2C.c **** 
 120:.\Generated_Source\PSoC5/BootloaderI2C.c ****         if(0u == size)
 121:.\Generated_Source\PSoC5/BootloaderI2C.c ****         {
 122:.\Generated_Source\PSoC5/BootloaderI2C.c ****             crc = ~crc;
 123:.\Generated_Source\PSoC5/BootloaderI2C.c ****         }
 124:.\Generated_Source\PSoC5/BootloaderI2C.c ****         else
 125:.\Generated_Source\PSoC5/BootloaderI2C.c ****         {
 126:.\Generated_Source\PSoC5/BootloaderI2C.c ****             do
 127:.\Generated_Source\PSoC5/BootloaderI2C.c ****             {
 128:.\Generated_Source\PSoC5/BootloaderI2C.c ****                 tmp = buffer[tmpIndex - size];
 129:.\Generated_Source\PSoC5/BootloaderI2C.c **** 
 130:.\Generated_Source\PSoC5/BootloaderI2C.c ****                 for (i = 0u; i < 8u; i++)
 131:.\Generated_Source\PSoC5/BootloaderI2C.c ****                 {
 132:.\Generated_Source\PSoC5/BootloaderI2C.c ****                     if (0u != ((crc & 0x0001u) ^ (tmp & 0x0001u)))
 133:.\Generated_Source\PSoC5/BootloaderI2C.c ****                     {
 134:.\Generated_Source\PSoC5/BootloaderI2C.c ****                         crc = (crc >> 1u) ^ BootloaderI2C_CRC_CCITT_POLYNOMIAL;
 135:.\Generated_Source\PSoC5/BootloaderI2C.c ****                     }
 136:.\Generated_Source\PSoC5/BootloaderI2C.c ****                     else
 137:.\Generated_Source\PSoC5/BootloaderI2C.c ****                     {
 138:.\Generated_Source\PSoC5/BootloaderI2C.c ****                         crc >>= 1u;
 139:.\Generated_Source\PSoC5/BootloaderI2C.c ****                     }
 140:.\Generated_Source\PSoC5/BootloaderI2C.c **** 
 141:.\Generated_Source\PSoC5/BootloaderI2C.c ****                     tmp >>= 1u;
 142:.\Generated_Source\PSoC5/BootloaderI2C.c ****                 }
 143:.\Generated_Source\PSoC5/BootloaderI2C.c **** 
 144:.\Generated_Source\PSoC5/BootloaderI2C.c ****                 size--;
 145:.\Generated_Source\PSoC5/BootloaderI2C.c ****             }
 146:.\Generated_Source\PSoC5/BootloaderI2C.c ****             while(0u != size);
 147:.\Generated_Source\PSoC5/BootloaderI2C.c **** 
 148:.\Generated_Source\PSoC5/BootloaderI2C.c ****             crc = ~crc;
 149:.\Generated_Source\PSoC5/BootloaderI2C.c ****             tmp = crc;
 150:.\Generated_Source\PSoC5/BootloaderI2C.c ****             crc = ( uint16 )(crc << 8u) | (tmp >> 8u);
 151:.\Generated_Source\PSoC5/BootloaderI2C.c ****         }
 152:.\Generated_Source\PSoC5/BootloaderI2C.c **** 
 153:.\Generated_Source\PSoC5/BootloaderI2C.c ****         return(crc);
 154:.\Generated_Source\PSoC5/BootloaderI2C.c **** 
 155:.\Generated_Source\PSoC5/BootloaderI2C.c ****     #else
 156:.\Generated_Source\PSoC5/BootloaderI2C.c **** 
 157:.\Generated_Source\PSoC5/BootloaderI2C.c ****         uint16 CYDATA sum = 0u;
  71              		.loc 1 157 0
ARM GAS  C:\Users\bramamu\AppData\Local\Temp\cczceNxl.s 			page 5


  72 000c 4FF00003 		mov	r3, #0
  73 0010 FB81     		strh	r3, [r7, #14]	@ movhi
 158:.\Generated_Source\PSoC5/BootloaderI2C.c **** 
 159:.\Generated_Source\PSoC5/BootloaderI2C.c ****         while (size > 0u)
  74              		.loc 1 159 0
  75 0012 0DE0     		b	.L2
  76              	.L3:
 160:.\Generated_Source\PSoC5/BootloaderI2C.c ****         {
 161:.\Generated_Source\PSoC5/BootloaderI2C.c ****             sum += buffer[size - 1u];
  77              		.loc 1 161 0
  78 0014 7B88     		ldrh	r3, [r7, #2]
  79 0016 03F1FF33 		add	r3, r3, #-1
  80 001a 7A68     		ldr	r2, [r7, #4]
  81 001c D318     		adds	r3, r2, r3
  82 001e 1B78     		ldrb	r3, [r3, #0]	@ zero_extendqisi2
  83 0020 1A46     		mov	r2, r3
  84 0022 FB89     		ldrh	r3, [r7, #14]	@ movhi
  85 0024 D318     		adds	r3, r2, r3
  86 0026 FB81     		strh	r3, [r7, #14]	@ movhi
 162:.\Generated_Source\PSoC5/BootloaderI2C.c ****             size--;
  87              		.loc 1 162 0
  88 0028 7B88     		ldrh	r3, [r7, #2]	@ movhi
  89 002a 03F1FF33 		add	r3, r3, #-1
  90 002e 7B80     		strh	r3, [r7, #2]	@ movhi
  91              	.L2:
 159:.\Generated_Source\PSoC5/BootloaderI2C.c ****         while (size > 0u)
  92              		.loc 1 159 0 discriminator 1
  93 0030 7B88     		ldrh	r3, [r7, #2]
  94 0032 002B     		cmp	r3, #0
  95 0034 EED1     		bne	.L3
 163:.\Generated_Source\PSoC5/BootloaderI2C.c ****         }
 164:.\Generated_Source\PSoC5/BootloaderI2C.c **** 
 165:.\Generated_Source\PSoC5/BootloaderI2C.c ****         return(( uint16 )1u + ( uint16 )(~sum));
  96              		.loc 1 165 0
  97 0036 FB89     		ldrh	r3, [r7, #14]	@ movhi
  98 0038 C3F10003 		rsb	r3, r3, #0
  99 003c 9BB2     		uxth	r3, r3
 166:.\Generated_Source\PSoC5/BootloaderI2C.c **** 
 167:.\Generated_Source\PSoC5/BootloaderI2C.c ****     #endif /* (0u != BootloaderI2C_PACKET_CHECKSUM_CRC) */
 168:.\Generated_Source\PSoC5/BootloaderI2C.c **** }
 100              		.loc 1 168 0
 101 003e 1846     		mov	r0, r3
 102 0040 07F11407 		add	r7, r7, #20
 103 0044 BD46     		mov	sp, r7
 104 0046 80BC     		pop	{r7}
 105 0048 7047     		bx	lr
 106              		.cfi_endproc
 107              	.LFE56:
 108              		.size	BootloaderI2C_CalcPacketChecksum, .-BootloaderI2C_CalcPacketChecksum
 109 004a 00BF     		.section	.text.BootloaderI2C_Calc8BitFlashSum,"ax",%progbits
 110              		.align	2
 111              		.thumb
 112              		.thumb_func
 113              		.type	BootloaderI2C_Calc8BitFlashSum, %function
 114              	BootloaderI2C_Calc8BitFlashSum:
 115              	.LFB57:
 169:.\Generated_Source\PSoC5/BootloaderI2C.c **** 
ARM GAS  C:\Users\bramamu\AppData\Local\Temp\cczceNxl.s 			page 6


 170:.\Generated_Source\PSoC5/BootloaderI2C.c **** 
 171:.\Generated_Source\PSoC5/BootloaderI2C.c **** /*******************************************************************************
 172:.\Generated_Source\PSoC5/BootloaderI2C.c **** * Function Name: BootloaderI2C_Calc8BitFlashSum
 173:.\Generated_Source\PSoC5/BootloaderI2C.c **** ********************************************************************************
 174:.\Generated_Source\PSoC5/BootloaderI2C.c **** *
 175:.\Generated_Source\PSoC5/BootloaderI2C.c **** * Summary:
 176:.\Generated_Source\PSoC5/BootloaderI2C.c **** *  This computes the 8 bit sum for the provided number of bytes contained in
 177:.\Generated_Source\PSoC5/BootloaderI2C.c **** *  flash.
 178:.\Generated_Source\PSoC5/BootloaderI2C.c **** *
 179:.\Generated_Source\PSoC5/BootloaderI2C.c **** * Parameters:
 180:.\Generated_Source\PSoC5/BootloaderI2C.c **** *  start:
 181:.\Generated_Source\PSoC5/BootloaderI2C.c **** *     The starting address to start summing data for
 182:.\Generated_Source\PSoC5/BootloaderI2C.c **** *  size:
 183:.\Generated_Source\PSoC5/BootloaderI2C.c **** *     The number of bytes to read and compute the sum for
 184:.\Generated_Source\PSoC5/BootloaderI2C.c **** *
 185:.\Generated_Source\PSoC5/BootloaderI2C.c **** * Returns:
 186:.\Generated_Source\PSoC5/BootloaderI2C.c **** *   8 bit sum for the provided data
 187:.\Generated_Source\PSoC5/BootloaderI2C.c **** *
 188:.\Generated_Source\PSoC5/BootloaderI2C.c **** *******************************************************************************/
 189:.\Generated_Source\PSoC5/BootloaderI2C.c **** static uint8 BootloaderI2C_Calc8BitFlashSum(uint32 start, uint32 size) \
 190:.\Generated_Source\PSoC5/BootloaderI2C.c ****                 CYSMALL 
 191:.\Generated_Source\PSoC5/BootloaderI2C.c **** {
 116              		.loc 1 191 0
 117              		.cfi_startproc
 118              		@ args = 0, pretend = 0, frame = 16
 119              		@ frame_needed = 1, uses_anonymous_args = 0
 120              		@ link register save eliminated.
 121 0000 80B4     		push	{r7}
 122              	.LCFI3:
 123              		.cfi_def_cfa_offset 4
 124              		.cfi_offset 7, -4
 125 0002 85B0     		sub	sp, sp, #20
 126              	.LCFI4:
 127              		.cfi_def_cfa_offset 24
 128 0004 00AF     		add	r7, sp, #0
 129              	.LCFI5:
 130              		.cfi_def_cfa_register 7
 131 0006 7860     		str	r0, [r7, #4]
 132 0008 3960     		str	r1, [r7, #0]
 192:.\Generated_Source\PSoC5/BootloaderI2C.c ****     uint8 CYDATA sum = 0u;
 133              		.loc 1 192 0
 134 000a 4FF00003 		mov	r3, #0
 135 000e FB73     		strb	r3, [r7, #15]
 193:.\Generated_Source\PSoC5/BootloaderI2C.c **** 
 194:.\Generated_Source\PSoC5/BootloaderI2C.c ****     while (size > 0u)
 136              		.loc 1 194 0
 137 0010 0AE0     		b	.L6
 138              	.L7:
 195:.\Generated_Source\PSoC5/BootloaderI2C.c ****     {
 196:.\Generated_Source\PSoC5/BootloaderI2C.c ****         size--;
 139              		.loc 1 196 0
 140 0012 3B68     		ldr	r3, [r7, #0]
 141 0014 03F1FF33 		add	r3, r3, #-1
 142 0018 3B60     		str	r3, [r7, #0]
 197:.\Generated_Source\PSoC5/BootloaderI2C.c ****         sum += BootloaderI2C_GET_CODE_BYTE(start + size);
 143              		.loc 1 197 0
 144 001a 7A68     		ldr	r2, [r7, #4]
ARM GAS  C:\Users\bramamu\AppData\Local\Temp\cczceNxl.s 			page 7


 145 001c 3B68     		ldr	r3, [r7, #0]
 146 001e D318     		adds	r3, r2, r3
 147 0020 1A78     		ldrb	r2, [r3, #0]	@ zero_extendqisi2
 148 0022 FB7B     		ldrb	r3, [r7, #15]
 149 0024 D318     		adds	r3, r2, r3
 150 0026 FB73     		strb	r3, [r7, #15]
 151              	.L6:
 194:.\Generated_Source\PSoC5/BootloaderI2C.c ****     while (size > 0u)
 152              		.loc 1 194 0 discriminator 1
 153 0028 3B68     		ldr	r3, [r7, #0]
 154 002a 002B     		cmp	r3, #0
 155 002c F1D1     		bne	.L7
 198:.\Generated_Source\PSoC5/BootloaderI2C.c ****     }
 199:.\Generated_Source\PSoC5/BootloaderI2C.c **** 
 200:.\Generated_Source\PSoC5/BootloaderI2C.c ****     return(sum);
 156              		.loc 1 200 0
 157 002e FB7B     		ldrb	r3, [r7, #15]	@ zero_extendqisi2
 201:.\Generated_Source\PSoC5/BootloaderI2C.c **** }
 158              		.loc 1 201 0
 159 0030 1846     		mov	r0, r3
 160 0032 07F11407 		add	r7, r7, #20
 161 0036 BD46     		mov	sp, r7
 162 0038 80BC     		pop	{r7}
 163 003a 7047     		bx	lr
 164              		.cfi_endproc
 165              	.LFE57:
 166              		.size	BootloaderI2C_Calc8BitFlashSum, .-BootloaderI2C_Calc8BitFlashSum
 167              		.section	.text.BootloaderI2C_Calc8BitEepromSum,"ax",%progbits
 168              		.align	2
 169              		.thumb
 170              		.thumb_func
 171              		.type	BootloaderI2C_Calc8BitEepromSum, %function
 172              	BootloaderI2C_Calc8BitEepromSum:
 173              	.LFB58:
 202:.\Generated_Source\PSoC5/BootloaderI2C.c **** 
 203:.\Generated_Source\PSoC5/BootloaderI2C.c **** 
 204:.\Generated_Source\PSoC5/BootloaderI2C.c **** #if(!CY_PSOC4)
 205:.\Generated_Source\PSoC5/BootloaderI2C.c **** 
 206:.\Generated_Source\PSoC5/BootloaderI2C.c ****     /*******************************************************************************
 207:.\Generated_Source\PSoC5/BootloaderI2C.c ****     * Function Name: BootloaderI2C_Calc8BitEepromSum
 208:.\Generated_Source\PSoC5/BootloaderI2C.c ****     ********************************************************************************
 209:.\Generated_Source\PSoC5/BootloaderI2C.c ****     *
 210:.\Generated_Source\PSoC5/BootloaderI2C.c ****     * Summary:
 211:.\Generated_Source\PSoC5/BootloaderI2C.c ****     *  This computes the 8 bit sum for the provided number of bytes contained in
 212:.\Generated_Source\PSoC5/BootloaderI2C.c ****     *  EEPROM.
 213:.\Generated_Source\PSoC5/BootloaderI2C.c ****     *
 214:.\Generated_Source\PSoC5/BootloaderI2C.c ****     * Parameters:
 215:.\Generated_Source\PSoC5/BootloaderI2C.c ****     *  start:
 216:.\Generated_Source\PSoC5/BootloaderI2C.c ****     *     The starting address to start summing data for
 217:.\Generated_Source\PSoC5/BootloaderI2C.c ****     *  size:
 218:.\Generated_Source\PSoC5/BootloaderI2C.c ****     *     The number of bytes to read and compute the sum for
 219:.\Generated_Source\PSoC5/BootloaderI2C.c ****     *
 220:.\Generated_Source\PSoC5/BootloaderI2C.c ****     * Returns:
 221:.\Generated_Source\PSoC5/BootloaderI2C.c ****     *   8 bit sum for the provided data
 222:.\Generated_Source\PSoC5/BootloaderI2C.c ****     *
 223:.\Generated_Source\PSoC5/BootloaderI2C.c ****     *******************************************************************************/
 224:.\Generated_Source\PSoC5/BootloaderI2C.c ****     static uint8 BootloaderI2C_Calc8BitEepromSum(uint32 start, uint32 size) \
ARM GAS  C:\Users\bramamu\AppData\Local\Temp\cczceNxl.s 			page 8


 225:.\Generated_Source\PSoC5/BootloaderI2C.c ****                     CYSMALL 
 226:.\Generated_Source\PSoC5/BootloaderI2C.c ****     {
 174              		.loc 1 226 0
 175              		.cfi_startproc
 176              		@ args = 0, pretend = 0, frame = 16
 177              		@ frame_needed = 1, uses_anonymous_args = 0
 178              		@ link register save eliminated.
 179 0000 80B4     		push	{r7}
 180              	.LCFI6:
 181              		.cfi_def_cfa_offset 4
 182              		.cfi_offset 7, -4
 183 0002 85B0     		sub	sp, sp, #20
 184              	.LCFI7:
 185              		.cfi_def_cfa_offset 24
 186 0004 00AF     		add	r7, sp, #0
 187              	.LCFI8:
 188              		.cfi_def_cfa_register 7
 189 0006 7860     		str	r0, [r7, #4]
 190 0008 3960     		str	r1, [r7, #0]
 227:.\Generated_Source\PSoC5/BootloaderI2C.c ****         uint8 CYDATA sum = 0u;
 191              		.loc 1 227 0
 192 000a 4FF00003 		mov	r3, #0
 193 000e FB73     		strb	r3, [r7, #15]
 228:.\Generated_Source\PSoC5/BootloaderI2C.c **** 
 229:.\Generated_Source\PSoC5/BootloaderI2C.c ****         while (size > 0u)
 194              		.loc 1 229 0
 195 0010 0EE0     		b	.L10
 196              	.L11:
 230:.\Generated_Source\PSoC5/BootloaderI2C.c ****         {
 231:.\Generated_Source\PSoC5/BootloaderI2C.c ****             size--;
 197              		.loc 1 231 0
 198 0012 3B68     		ldr	r3, [r7, #0]
 199 0014 03F1FF33 		add	r3, r3, #-1
 200 0018 3B60     		str	r3, [r7, #0]
 232:.\Generated_Source\PSoC5/BootloaderI2C.c ****             sum += BootloaderI2C_GET_EEPROM_BYTE(start + size);
 201              		.loc 1 232 0
 202 001a 7A68     		ldr	r2, [r7, #4]
 203 001c 3B68     		ldr	r3, [r7, #0]
 204 001e D318     		adds	r3, r2, r3
 205 0020 03F18043 		add	r3, r3, #1073741824
 206 0024 03F50043 		add	r3, r3, #32768
 207 0028 1A78     		ldrb	r2, [r3, #0]	@ zero_extendqisi2
 208 002a FB7B     		ldrb	r3, [r7, #15]
 209 002c D318     		adds	r3, r2, r3
 210 002e FB73     		strb	r3, [r7, #15]
 211              	.L10:
 229:.\Generated_Source\PSoC5/BootloaderI2C.c ****         while (size > 0u)
 212              		.loc 1 229 0 discriminator 1
 213 0030 3B68     		ldr	r3, [r7, #0]
 214 0032 002B     		cmp	r3, #0
 215 0034 EDD1     		bne	.L11
 233:.\Generated_Source\PSoC5/BootloaderI2C.c ****         }
 234:.\Generated_Source\PSoC5/BootloaderI2C.c **** 
 235:.\Generated_Source\PSoC5/BootloaderI2C.c ****         return(sum);
 216              		.loc 1 235 0
 217 0036 FB7B     		ldrb	r3, [r7, #15]	@ zero_extendqisi2
 236:.\Generated_Source\PSoC5/BootloaderI2C.c ****     }
ARM GAS  C:\Users\bramamu\AppData\Local\Temp\cczceNxl.s 			page 9


 218              		.loc 1 236 0
 219 0038 1846     		mov	r0, r3
 220 003a 07F11407 		add	r7, r7, #20
 221 003e BD46     		mov	sp, r7
 222 0040 80BC     		pop	{r7}
 223 0042 7047     		bx	lr
 224              		.cfi_endproc
 225              	.LFE58:
 226              		.size	BootloaderI2C_Calc8BitEepromSum, .-BootloaderI2C_Calc8BitEepromSum
 227              		.section	.text.BootloaderI2C_Start,"ax",%progbits
 228              		.align	2
 229              		.global	BootloaderI2C_Start
 230              		.thumb
 231              		.thumb_func
 232              		.type	BootloaderI2C_Start, %function
 233              	BootloaderI2C_Start:
 234              	.LFB59:
 237:.\Generated_Source\PSoC5/BootloaderI2C.c **** 
 238:.\Generated_Source\PSoC5/BootloaderI2C.c **** #endif  /* (!CY_PSOC4) */
 239:.\Generated_Source\PSoC5/BootloaderI2C.c **** 
 240:.\Generated_Source\PSoC5/BootloaderI2C.c **** 
 241:.\Generated_Source\PSoC5/BootloaderI2C.c **** /*******************************************************************************
 242:.\Generated_Source\PSoC5/BootloaderI2C.c **** * Function Name: BootloaderI2C_Start
 243:.\Generated_Source\PSoC5/BootloaderI2C.c **** ********************************************************************************
 244:.\Generated_Source\PSoC5/BootloaderI2C.c **** * Summary:
 245:.\Generated_Source\PSoC5/BootloaderI2C.c **** *  This function is called in order executing following algorithm:
 246:.\Generated_Source\PSoC5/BootloaderI2C.c **** *
 247:.\Generated_Source\PSoC5/BootloaderI2C.c **** *  - Identify active bootloadable application (applicable only to
 248:.\Generated_Source\PSoC5/BootloaderI2C.c **** *    Multi-application bootloader)
 249:.\Generated_Source\PSoC5/BootloaderI2C.c **** *
 250:.\Generated_Source\PSoC5/BootloaderI2C.c **** *  - Validate bootloader application (desing-time configurable, Bootloader
 251:.\Generated_Source\PSoC5/BootloaderI2C.c **** *    application validation option of the component customizer)
 252:.\Generated_Source\PSoC5/BootloaderI2C.c **** *
 253:.\Generated_Source\PSoC5/BootloaderI2C.c **** *  - Validate active bootloadable application
 254:.\Generated_Source\PSoC5/BootloaderI2C.c **** *
 255:.\Generated_Source\PSoC5/BootloaderI2C.c **** *  - Run communication subroutine (desing-time configurable, Wait for command
 256:.\Generated_Source\PSoC5/BootloaderI2C.c **** *    option of the component customizer)
 257:.\Generated_Source\PSoC5/BootloaderI2C.c **** *
 258:.\Generated_Source\PSoC5/BootloaderI2C.c **** *  - Schedule bootloadable and reset device
 259:.\Generated_Source\PSoC5/BootloaderI2C.c **** *
 260:.\Generated_Source\PSoC5/BootloaderI2C.c **** * Parameters:
 261:.\Generated_Source\PSoC5/BootloaderI2C.c **** *  None
 262:.\Generated_Source\PSoC5/BootloaderI2C.c **** *
 263:.\Generated_Source\PSoC5/BootloaderI2C.c **** * Return:
 264:.\Generated_Source\PSoC5/BootloaderI2C.c **** *  This method will never return. It will either load a new application and
 265:.\Generated_Source\PSoC5/BootloaderI2C.c **** *  reset the device or it will jump directly to the existing application.
 266:.\Generated_Source\PSoC5/BootloaderI2C.c **** *
 267:.\Generated_Source\PSoC5/BootloaderI2C.c **** * Side Effects:
 268:.\Generated_Source\PSoC5/BootloaderI2C.c **** *  If this method determines that the bootloader appliation itself is corrupt,
 269:.\Generated_Source\PSoC5/BootloaderI2C.c **** *  this method will not return, instead it will simply hang the application.
 270:.\Generated_Source\PSoC5/BootloaderI2C.c **** *
 271:.\Generated_Source\PSoC5/BootloaderI2C.c **** *******************************************************************************/
 272:.\Generated_Source\PSoC5/BootloaderI2C.c **** void BootloaderI2C_Start(void) CYSMALL 
 273:.\Generated_Source\PSoC5/BootloaderI2C.c **** {
 235              		.loc 1 273 0
 236              		.cfi_startproc
 237              		@ args = 0, pretend = 0, frame = 296
ARM GAS  C:\Users\bramamu\AppData\Local\Temp\cczceNxl.s 			page 10


 238              		@ frame_needed = 1, uses_anonymous_args = 0
 239 0000 80B5     		push	{r7, lr}
 240              	.LCFI9:
 241              		.cfi_def_cfa_offset 8
 242              		.cfi_offset 7, -8
 243              		.cfi_offset 14, -4
 244 0002 CAB0     		sub	sp, sp, #296
 245              	.LCFI10:
 246              		.cfi_def_cfa_offset 304
 247 0004 00AF     		add	r7, sp, #0
 248              	.LCFI11:
 249              		.cfi_def_cfa_register 7
 274:.\Generated_Source\PSoC5/BootloaderI2C.c ****     #if(0u != BootloaderI2C_BOOTLOADER_APP_VALIDATION)
 275:.\Generated_Source\PSoC5/BootloaderI2C.c ****         uint8 CYDATA calcedChecksum;
 276:.\Generated_Source\PSoC5/BootloaderI2C.c ****     #endif    /* (0u != BootloaderI2C_BOOTLOADER_APP_VALIDATION) */
 277:.\Generated_Source\PSoC5/BootloaderI2C.c **** 
 278:.\Generated_Source\PSoC5/BootloaderI2C.c ****     #if(!CY_PSOC4)
 279:.\Generated_Source\PSoC5/BootloaderI2C.c ****         uint8 CYXDATA BootloaderI2C_flashBuffer[BootloaderI2C_FROW_SIZE];
 280:.\Generated_Source\PSoC5/BootloaderI2C.c ****     #endif  /* (!CY_PSOC4) */
 281:.\Generated_Source\PSoC5/BootloaderI2C.c **** 
 282:.\Generated_Source\PSoC5/BootloaderI2C.c ****     cystatus tmpStatus;
 283:.\Generated_Source\PSoC5/BootloaderI2C.c **** 
 284:.\Generated_Source\PSoC5/BootloaderI2C.c **** 
 285:.\Generated_Source\PSoC5/BootloaderI2C.c ****     /* Identify active bootloadable application */
 286:.\Generated_Source\PSoC5/BootloaderI2C.c ****     #if(0u != BootloaderI2C_DUAL_APP_BOOTLOADER)
 287:.\Generated_Source\PSoC5/BootloaderI2C.c **** 
 288:.\Generated_Source\PSoC5/BootloaderI2C.c ****         if(BootloaderI2C_MD_BTLDB_ACTIVE_VALUE(0u) == BootloaderI2C_MD_BTLDB_IS_ACTIVE)
 289:.\Generated_Source\PSoC5/BootloaderI2C.c ****         {
 290:.\Generated_Source\PSoC5/BootloaderI2C.c ****             BootloaderI2C_activeApp = BootloaderI2C_MD_BTLDB_ACTIVE_0;
 291:.\Generated_Source\PSoC5/BootloaderI2C.c ****         }
 292:.\Generated_Source\PSoC5/BootloaderI2C.c ****         else if (BootloaderI2C_MD_BTLDB_ACTIVE_VALUE(1u) == BootloaderI2C_MD_BTLDB_IS_ACTIVE)
 293:.\Generated_Source\PSoC5/BootloaderI2C.c ****         {
 294:.\Generated_Source\PSoC5/BootloaderI2C.c ****             BootloaderI2C_activeApp = BootloaderI2C_MD_BTLDB_ACTIVE_1;
 295:.\Generated_Source\PSoC5/BootloaderI2C.c ****         }
 296:.\Generated_Source\PSoC5/BootloaderI2C.c ****         else
 297:.\Generated_Source\PSoC5/BootloaderI2C.c ****         {
 298:.\Generated_Source\PSoC5/BootloaderI2C.c ****             BootloaderI2C_activeApp = BootloaderI2C_MD_BTLDB_ACTIVE_NONE;
 299:.\Generated_Source\PSoC5/BootloaderI2C.c ****         }
 300:.\Generated_Source\PSoC5/BootloaderI2C.c **** 
 301:.\Generated_Source\PSoC5/BootloaderI2C.c ****     #endif  /* (0u != BootloaderI2C_DUAL_APP_BOOTLOADER) */
 302:.\Generated_Source\PSoC5/BootloaderI2C.c **** 
 303:.\Generated_Source\PSoC5/BootloaderI2C.c **** 
 304:.\Generated_Source\PSoC5/BootloaderI2C.c ****     /* Initialize Flash subsystem for non-PSoC 4 devices */
 305:.\Generated_Source\PSoC5/BootloaderI2C.c ****     #if(!CY_PSOC4)
 306:.\Generated_Source\PSoC5/BootloaderI2C.c ****         if (CYRET_SUCCESS != CySetTemp())
 250              		.loc 1 306 0
 251 0006 FFF7FEFF 		bl	CySetTemp
 252 000a 0346     		mov	r3, r0
 253 000c 002B     		cmp	r3, #0
 254 000e 03D0     		beq	.L14
 307:.\Generated_Source\PSoC5/BootloaderI2C.c ****         {
 308:.\Generated_Source\PSoC5/BootloaderI2C.c ****             CyHalt(0x00u);
 255              		.loc 1 308 0
 256 0010 4FF00000 		mov	r0, #0
 257 0014 FFF7FEFF 		bl	CyHalt
 258              	.L14:
 309:.\Generated_Source\PSoC5/BootloaderI2C.c ****         }
ARM GAS  C:\Users\bramamu\AppData\Local\Temp\cczceNxl.s 			page 11


 310:.\Generated_Source\PSoC5/BootloaderI2C.c **** 
 311:.\Generated_Source\PSoC5/BootloaderI2C.c ****         if (CYRET_SUCCESS != CySetFlashEEBuffer(BootloaderI2C_flashBuffer))
 259              		.loc 1 311 0
 260 0018 3B46     		mov	r3, r7
 261 001a 1846     		mov	r0, r3
 262 001c FFF7FEFF 		bl	CySetFlashEEBuffer
 263 0020 0346     		mov	r3, r0
 264 0022 002B     		cmp	r3, #0
 265 0024 03D0     		beq	.L15
 312:.\Generated_Source\PSoC5/BootloaderI2C.c ****         {
 313:.\Generated_Source\PSoC5/BootloaderI2C.c ****             CyHalt(0x00u);
 266              		.loc 1 313 0
 267 0026 4FF00000 		mov	r0, #0
 268 002a FFF7FEFF 		bl	CyHalt
 269              	.L15:
 314:.\Generated_Source\PSoC5/BootloaderI2C.c ****         }
 315:.\Generated_Source\PSoC5/BootloaderI2C.c ****     #endif  /* (CY_PSOC4) */
 316:.\Generated_Source\PSoC5/BootloaderI2C.c **** 
 317:.\Generated_Source\PSoC5/BootloaderI2C.c **** 
 318:.\Generated_Source\PSoC5/BootloaderI2C.c ****     /***********************************************************************
 319:.\Generated_Source\PSoC5/BootloaderI2C.c ****     * Bootloader Application Validation
 320:.\Generated_Source\PSoC5/BootloaderI2C.c ****     *
 321:.\Generated_Source\PSoC5/BootloaderI2C.c ****     * Halt device if:
 322:.\Generated_Source\PSoC5/BootloaderI2C.c ****     *  - Calculated checksum does not much one stored in metadata section
 323:.\Generated_Source\PSoC5/BootloaderI2C.c ****     *  - Invalid pointer to the place where bootloader application ends
 324:.\Generated_Source\PSoC5/BootloaderI2C.c ****     *  - Flash subsystem where not initialized correctly
 325:.\Generated_Source\PSoC5/BootloaderI2C.c ****     ***********************************************************************/
 326:.\Generated_Source\PSoC5/BootloaderI2C.c ****     #if(0u != BootloaderI2C_BOOTLOADER_APP_VALIDATION)
 327:.\Generated_Source\PSoC5/BootloaderI2C.c **** 
 328:.\Generated_Source\PSoC5/BootloaderI2C.c ****         /* Calculate Bootloader application checksum */
 329:.\Generated_Source\PSoC5/BootloaderI2C.c ****         calcedChecksum = BootloaderI2C_Calc8BitFlashSum(BootloaderI2C_MD_BTLDR_ADDR_PTR,
 270              		.loc 1 329 0
 271 002e 40F20003 		movw	r3, #:lower16:BootloaderI2C_SizeBytesAccess
 272 0032 C0F20003 		movt	r3, #:upper16:BootloaderI2C_SizeBytesAccess
 273 0036 1B68     		ldr	r3, [r3, #0]
 274 0038 1B68     		ldr	r3, [r3, #0]
 275 003a 4FF00000 		mov	r0, #0
 276 003e 1946     		mov	r1, r3
 277 0040 FFF7FEFF 		bl	BootloaderI2C_Calc8BitFlashSum
 278 0044 0346     		mov	r3, r0
 279 0046 87F82731 		strb	r3, [r7, #295]
 330:.\Generated_Source\PSoC5/BootloaderI2C.c ****                 *BootloaderI2C_SizeBytesAccess - BootloaderI2C_MD_BTLDR_ADDR_PTR);
 331:.\Generated_Source\PSoC5/BootloaderI2C.c **** 
 332:.\Generated_Source\PSoC5/BootloaderI2C.c ****         /* we actually included the checksum, so remove it */
 333:.\Generated_Source\PSoC5/BootloaderI2C.c ****         calcedChecksum -= *BootloaderI2C_ChecksumAccess;
 280              		.loc 1 333 0
 281 004a 40F20003 		movw	r3, #:lower16:BootloaderI2C_ChecksumAccess
 282 004e C0F20003 		movt	r3, #:upper16:BootloaderI2C_ChecksumAccess
 283 0052 1B68     		ldr	r3, [r3, #0]
 284 0054 1B78     		ldrb	r3, [r3, #0]	@ zero_extendqisi2
 285 0056 97F82721 		ldrb	r2, [r7, #295]
 286 005a D31A     		subs	r3, r2, r3
 287 005c 87F82731 		strb	r3, [r7, #295]
 334:.\Generated_Source\PSoC5/BootloaderI2C.c ****         calcedChecksum = ( uint8 )1u + ( uint8 )(~calcedChecksum);
 288              		.loc 1 334 0
 289 0060 97F82731 		ldrb	r3, [r7, #295]
 290 0064 C3F10003 		rsb	r3, r3, #0
ARM GAS  C:\Users\bramamu\AppData\Local\Temp\cczceNxl.s 			page 12


 291 0068 87F82731 		strb	r3, [r7, #295]
 335:.\Generated_Source\PSoC5/BootloaderI2C.c **** 
 336:.\Generated_Source\PSoC5/BootloaderI2C.c ****         /* Checksum and pointer to bootloader verification */
 337:.\Generated_Source\PSoC5/BootloaderI2C.c ****         if((calcedChecksum != *BootloaderI2C_ChecksumAccess) ||
 292              		.loc 1 337 0
 293 006c 40F20003 		movw	r3, #:lower16:BootloaderI2C_ChecksumAccess
 294 0070 C0F20003 		movt	r3, #:upper16:BootloaderI2C_ChecksumAccess
 295 0074 1B68     		ldr	r3, [r3, #0]
 296 0076 1B78     		ldrb	r3, [r3, #0]	@ zero_extendqisi2
 297 0078 97F82721 		ldrb	r2, [r7, #295]	@ zero_extendqisi2
 298 007c 9A42     		cmp	r2, r3
 299 007e 07D1     		bne	.L16
 338:.\Generated_Source\PSoC5/BootloaderI2C.c ****            (0u == *BootloaderI2C_SizeBytesAccess))
 300              		.loc 1 338 0 discriminator 1
 301 0080 40F20003 		movw	r3, #:lower16:BootloaderI2C_SizeBytesAccess
 302 0084 C0F20003 		movt	r3, #:upper16:BootloaderI2C_SizeBytesAccess
 303 0088 1B68     		ldr	r3, [r3, #0]
 304 008a 1B68     		ldr	r3, [r3, #0]
 337:.\Generated_Source\PSoC5/BootloaderI2C.c ****         if((calcedChecksum != *BootloaderI2C_ChecksumAccess) ||
 305              		.loc 1 337 0 discriminator 1
 306 008c 002B     		cmp	r3, #0
 307 008e 03D1     		bne	.L17
 308              	.L16:
 339:.\Generated_Source\PSoC5/BootloaderI2C.c ****         {
 340:.\Generated_Source\PSoC5/BootloaderI2C.c ****             CyHalt(0x00u);
 309              		.loc 1 340 0
 310 0090 4FF00000 		mov	r0, #0
 311 0094 FFF7FEFF 		bl	CyHalt
 312              	.L17:
 341:.\Generated_Source\PSoC5/BootloaderI2C.c ****         }
 342:.\Generated_Source\PSoC5/BootloaderI2C.c **** 
 343:.\Generated_Source\PSoC5/BootloaderI2C.c ****     #endif  /* (0u != BootloaderI2C_BOOTLOADER_APP_VALIDATION) */
 344:.\Generated_Source\PSoC5/BootloaderI2C.c **** 
 345:.\Generated_Source\PSoC5/BootloaderI2C.c **** 
 346:.\Generated_Source\PSoC5/BootloaderI2C.c ****     /***********************************************************************
 347:.\Generated_Source\PSoC5/BootloaderI2C.c ****     * Active Bootloadable Application Validation
 348:.\Generated_Source\PSoC5/BootloaderI2C.c ****     *
 349:.\Generated_Source\PSoC5/BootloaderI2C.c ****     * If active bootloadable application is invalid or bootloader
 350:.\Generated_Source\PSoC5/BootloaderI2C.c ****     * application is scheduled - do the following:
 351:.\Generated_Source\PSoC5/BootloaderI2C.c ****     *  - schedule bootloader application to be run after software reset
 352:.\Generated_Source\PSoC5/BootloaderI2C.c ****     *  - Go to the communication subroutine. Will wait for commands forever
 353:.\Generated_Source\PSoC5/BootloaderI2C.c ****     ***********************************************************************/
 354:.\Generated_Source\PSoC5/BootloaderI2C.c ****     tmpStatus = BootloaderI2C_ValidateBootloadable(BootloaderI2C_activeApp);
 313              		.loc 1 354 0
 314 0098 4FF00000 		mov	r0, #0
 315 009c FFF7FEFF 		bl	BootloaderI2C_ValidateBootloadable
 316 00a0 C7F82001 		str	r0, [r7, #288]
 355:.\Generated_Source\PSoC5/BootloaderI2C.c **** 
 356:.\Generated_Source\PSoC5/BootloaderI2C.c ****     if ((BootloaderI2C_GET_RUN_TYPE == BootloaderI2C_START_BTLDR) ||
 317              		.loc 1 356 0
 318 00a4 44F2FA63 		movw	r3, #18170
 319 00a8 C4F20003 		movt	r3, 16384
 320 00ac 1B78     		ldrb	r3, [r3, #0]
 321 00ae DBB2     		uxtb	r3, r3
 322 00b0 03F0C003 		and	r3, r3, #192
 323 00b4 402B     		cmp	r3, #64
 324 00b6 03D0     		beq	.L18
ARM GAS  C:\Users\bramamu\AppData\Local\Temp\cczceNxl.s 			page 13


 325              		.loc 1 356 0 is_stmt 0 discriminator 1
 326 00b8 D7F82031 		ldr	r3, [r7, #288]
 327 00bc 002B     		cmp	r3, #0
 328 00be 0AD0     		beq	.L19
 329              	.L18:
 357:.\Generated_Source\PSoC5/BootloaderI2C.c ****         (CYRET_SUCCESS != tmpStatus))
 358:.\Generated_Source\PSoC5/BootloaderI2C.c ****     {
 359:.\Generated_Source\PSoC5/BootloaderI2C.c ****         BootloaderI2C_SET_RUN_TYPE(0u);
 330              		.loc 1 359 0 is_stmt 1
 331 00c0 44F2FA63 		movw	r3, #18170
 332 00c4 C4F20003 		movt	r3, 16384
 333 00c8 4FF00002 		mov	r2, #0
 334 00cc 1A70     		strb	r2, [r3, #0]
 360:.\Generated_Source\PSoC5/BootloaderI2C.c **** 
 361:.\Generated_Source\PSoC5/BootloaderI2C.c ****         BootloaderI2C_HostLink(BootloaderI2C_WAIT_FOR_COMMAND_FOREVER);
 335              		.loc 1 361 0
 336 00ce 4FF00000 		mov	r0, #0
 337 00d2 FFF7FEFF 		bl	BootloaderI2C_HostLink
 338              	.L19:
 362:.\Generated_Source\PSoC5/BootloaderI2C.c ****     }
 363:.\Generated_Source\PSoC5/BootloaderI2C.c **** 
 364:.\Generated_Source\PSoC5/BootloaderI2C.c **** 
 365:.\Generated_Source\PSoC5/BootloaderI2C.c ****     /* Go to the communication subroutine. Will wait for commands specifed time */
 366:.\Generated_Source\PSoC5/BootloaderI2C.c ****     #if(0u != BootloaderI2C_WAIT_FOR_COMMAND)
 367:.\Generated_Source\PSoC5/BootloaderI2C.c **** 
 368:.\Generated_Source\PSoC5/BootloaderI2C.c ****         /* Timeout is in 100s of miliseconds */
 369:.\Generated_Source\PSoC5/BootloaderI2C.c ****         BootloaderI2C_HostLink(BootloaderI2C_WAIT_FOR_COMMAND_TIME);
 339              		.loc 1 369 0
 340 00d6 4FF01400 		mov	r0, #20
 341 00da FFF7FEFF 		bl	BootloaderI2C_HostLink
 370:.\Generated_Source\PSoC5/BootloaderI2C.c **** 
 371:.\Generated_Source\PSoC5/BootloaderI2C.c ****     #endif  /* (0u != BootloaderI2C_WAIT_FOR_COMMAND) */
 372:.\Generated_Source\PSoC5/BootloaderI2C.c **** 
 373:.\Generated_Source\PSoC5/BootloaderI2C.c **** 
 374:.\Generated_Source\PSoC5/BootloaderI2C.c ****     /* Schedule bootloadable application and perform software reset */
 375:.\Generated_Source\PSoC5/BootloaderI2C.c ****     BootloaderI2C_LaunchApplication();
 342              		.loc 1 375 0
 343 00de FFF7FEFF 		bl	BootloaderI2C_LaunchApplication
 376:.\Generated_Source\PSoC5/BootloaderI2C.c **** }
 344              		.loc 1 376 0
 345 00e2 07F59477 		add	r7, r7, #296
 346 00e6 BD46     		mov	sp, r7
 347 00e8 80BD     		pop	{r7, pc}
 348              		.cfi_endproc
 349              	.LFE59:
 350              		.size	BootloaderI2C_Start, .-BootloaderI2C_Start
 351 00ea 00BF     		.section	.text.BootloaderI2C_LaunchApplication,"ax",%progbits
 352              		.align	2
 353              		.thumb
 354              		.thumb_func
 355              		.type	BootloaderI2C_LaunchApplication, %function
 356              	BootloaderI2C_LaunchApplication:
 357              	.LFB60:
 377:.\Generated_Source\PSoC5/BootloaderI2C.c **** 
 378:.\Generated_Source\PSoC5/BootloaderI2C.c **** 
 379:.\Generated_Source\PSoC5/BootloaderI2C.c **** /*******************************************************************************
 380:.\Generated_Source\PSoC5/BootloaderI2C.c **** * Function Name: BootloaderI2C_LaunchApplication
ARM GAS  C:\Users\bramamu\AppData\Local\Temp\cczceNxl.s 			page 14


 381:.\Generated_Source\PSoC5/BootloaderI2C.c **** ********************************************************************************
 382:.\Generated_Source\PSoC5/BootloaderI2C.c **** *
 383:.\Generated_Source\PSoC5/BootloaderI2C.c **** * Summary:
 384:.\Generated_Source\PSoC5/BootloaderI2C.c **** *  Jumps the PC to the start address of the user application in flash.
 385:.\Generated_Source\PSoC5/BootloaderI2C.c **** *
 386:.\Generated_Source\PSoC5/BootloaderI2C.c **** * Parameters:
 387:.\Generated_Source\PSoC5/BootloaderI2C.c **** *  None
 388:.\Generated_Source\PSoC5/BootloaderI2C.c **** *
 389:.\Generated_Source\PSoC5/BootloaderI2C.c **** * Returns:
 390:.\Generated_Source\PSoC5/BootloaderI2C.c **** *  This method will never return if it succesfully goes to the user application.
 391:.\Generated_Source\PSoC5/BootloaderI2C.c **** *
 392:.\Generated_Source\PSoC5/BootloaderI2C.c **** *******************************************************************************/
 393:.\Generated_Source\PSoC5/BootloaderI2C.c **** static void BootloaderI2C_LaunchApplication(void) CYSMALL 
 394:.\Generated_Source\PSoC5/BootloaderI2C.c **** {
 358              		.loc 1 394 0
 359              		.cfi_startproc
 360              		@ args = 0, pretend = 0, frame = 0
 361              		@ frame_needed = 1, uses_anonymous_args = 0
 362 0000 80B5     		push	{r7, lr}
 363              	.LCFI12:
 364              		.cfi_def_cfa_offset 8
 365              		.cfi_offset 7, -8
 366              		.cfi_offset 14, -4
 367 0002 00AF     		add	r7, sp, #0
 368              	.LCFI13:
 369              		.cfi_def_cfa_register 7
 395:.\Generated_Source\PSoC5/BootloaderI2C.c ****     /* Schedule Bootloadable to start after reset */
 396:.\Generated_Source\PSoC5/BootloaderI2C.c ****     BootloaderI2C_SET_RUN_TYPE(BootloaderI2C_START_APP);
 370              		.loc 1 396 0
 371 0004 44F2FA63 		movw	r3, #18170
 372 0008 C4F20003 		movt	r3, 16384
 373 000c 4FF08002 		mov	r2, #128
 374 0010 1A70     		strb	r2, [r3, #0]
 397:.\Generated_Source\PSoC5/BootloaderI2C.c **** 
 398:.\Generated_Source\PSoC5/BootloaderI2C.c ****     CySoftwareReset();
 375              		.loc 1 398 0
 376 0012 FFF7FEFF 		bl	CySoftwareReset
 399:.\Generated_Source\PSoC5/BootloaderI2C.c **** }
 377              		.loc 1 399 0
 378 0016 80BD     		pop	{r7, pc}
 379              		.cfi_endproc
 380              	.LFE60:
 381              		.size	BootloaderI2C_LaunchApplication, .-BootloaderI2C_LaunchApplication
 382              		.section	.text.CyBtldr_CheckLaunch,"ax",%progbits
 383              		.align	2
 384              		.global	CyBtldr_CheckLaunch
 385              		.thumb
 386              		.thumb_func
 387              		.type	CyBtldr_CheckLaunch, %function
 388              	CyBtldr_CheckLaunch:
 389              	.LFB61:
 400:.\Generated_Source\PSoC5/BootloaderI2C.c **** 
 401:.\Generated_Source\PSoC5/BootloaderI2C.c **** 
 402:.\Generated_Source\PSoC5/BootloaderI2C.c **** /*******************************************************************************
 403:.\Generated_Source\PSoC5/BootloaderI2C.c **** * Function Name: CyBtldr_CheckLaunch
 404:.\Generated_Source\PSoC5/BootloaderI2C.c **** ********************************************************************************
 405:.\Generated_Source\PSoC5/BootloaderI2C.c **** *
ARM GAS  C:\Users\bramamu\AppData\Local\Temp\cczceNxl.s 			page 15


 406:.\Generated_Source\PSoC5/BootloaderI2C.c **** * Summary:
 407:.\Generated_Source\PSoC5/BootloaderI2C.c **** *  This routine checks to see if the bootloader or the bootloadable application
 408:.\Generated_Source\PSoC5/BootloaderI2C.c **** *  should be run.  If the application is to be run, it will start executing.
 409:.\Generated_Source\PSoC5/BootloaderI2C.c **** *  If the bootloader is to be run, it will return so the bootloader can
 410:.\Generated_Source\PSoC5/BootloaderI2C.c **** *  continue starting up.
 411:.\Generated_Source\PSoC5/BootloaderI2C.c **** *
 412:.\Generated_Source\PSoC5/BootloaderI2C.c **** * Parameters:
 413:.\Generated_Source\PSoC5/BootloaderI2C.c **** *  None
 414:.\Generated_Source\PSoC5/BootloaderI2C.c **** *
 415:.\Generated_Source\PSoC5/BootloaderI2C.c **** * Returns:
 416:.\Generated_Source\PSoC5/BootloaderI2C.c **** *  None
 417:.\Generated_Source\PSoC5/BootloaderI2C.c **** *
 418:.\Generated_Source\PSoC5/BootloaderI2C.c **** *******************************************************************************/
 419:.\Generated_Source\PSoC5/BootloaderI2C.c **** void CyBtldr_CheckLaunch(void) CYSMALL 
 420:.\Generated_Source\PSoC5/BootloaderI2C.c **** {
 390              		.loc 1 420 0
 391              		.cfi_startproc
 392              		@ args = 0, pretend = 0, frame = 0
 393              		@ frame_needed = 1, uses_anonymous_args = 0
 394 0000 80B5     		push	{r7, lr}
 395              	.LCFI14:
 396              		.cfi_def_cfa_offset 8
 397              		.cfi_offset 7, -8
 398              		.cfi_offset 14, -4
 399 0002 00AF     		add	r7, sp, #0
 400              	.LCFI15:
 401              		.cfi_def_cfa_register 7
 421:.\Generated_Source\PSoC5/BootloaderI2C.c **** 
 422:.\Generated_Source\PSoC5/BootloaderI2C.c **** #if(CY_PSOC4)
 423:.\Generated_Source\PSoC5/BootloaderI2C.c **** 
 424:.\Generated_Source\PSoC5/BootloaderI2C.c ****     /*******************************************************************************
 425:.\Generated_Source\PSoC5/BootloaderI2C.c ****     * Set cyBtldrRunType to zero in case of non-software reset occured. This means
 426:.\Generated_Source\PSoC5/BootloaderI2C.c ****     * that bootloader application is scheduled - that is initial clean state. The
 427:.\Generated_Source\PSoC5/BootloaderI2C.c ****     * value of cyBtldrRunType is valid only in case of software reset.
 428:.\Generated_Source\PSoC5/BootloaderI2C.c ****     *******************************************************************************/
 429:.\Generated_Source\PSoC5/BootloaderI2C.c ****     if (0u == (BootloaderI2C_RES_CAUSE_REG & BootloaderI2C_RES_CAUSE_RESET_SOFT))
 430:.\Generated_Source\PSoC5/BootloaderI2C.c ****     {
 431:.\Generated_Source\PSoC5/BootloaderI2C.c ****         cyBtldrRunType = 0u;
 432:.\Generated_Source\PSoC5/BootloaderI2C.c ****     }
 433:.\Generated_Source\PSoC5/BootloaderI2C.c **** 
 434:.\Generated_Source\PSoC5/BootloaderI2C.c **** #endif /* (CY_PSOC4) */
 435:.\Generated_Source\PSoC5/BootloaderI2C.c **** 
 436:.\Generated_Source\PSoC5/BootloaderI2C.c **** 
 437:.\Generated_Source\PSoC5/BootloaderI2C.c ****     if (BootloaderI2C_GET_RUN_TYPE == BootloaderI2C_START_APP)
 402              		.loc 1 437 0
 403 0004 44F2FA63 		movw	r3, #18170
 404 0008 C4F20003 		movt	r3, 16384
 405 000c 1B78     		ldrb	r3, [r3, #0]
 406 000e DBB2     		uxtb	r3, r3
 407 0010 03F0C003 		and	r3, r3, #192
 408 0014 802B     		cmp	r3, #128
 409 0016 19D1     		bne	.L21
 438:.\Generated_Source\PSoC5/BootloaderI2C.c ****     {
 439:.\Generated_Source\PSoC5/BootloaderI2C.c ****         BootloaderI2C_SET_RUN_TYPE(0u);
 410              		.loc 1 439 0
 411 0018 44F2FA63 		movw	r3, #18170
 412 001c C4F20003 		movt	r3, 16384
ARM GAS  C:\Users\bramamu\AppData\Local\Temp\cczceNxl.s 			page 16


 413 0020 4FF00002 		mov	r2, #0
 414 0024 1A70     		strb	r2, [r3, #0]
 440:.\Generated_Source\PSoC5/BootloaderI2C.c **** 
 441:.\Generated_Source\PSoC5/BootloaderI2C.c ****         /*******************************************************************************
 442:.\Generated_Source\PSoC5/BootloaderI2C.c ****         * Indicates that we have told ourselves to jump to the application since we have
 443:.\Generated_Source\PSoC5/BootloaderI2C.c ****         * already told ourselves to jump, we do not do any expensive verification of the
 444:.\Generated_Source\PSoC5/BootloaderI2C.c ****         * application. We just check to make sure that the value at CY_APP_ADDR_ADDRESS
 445:.\Generated_Source\PSoC5/BootloaderI2C.c ****         * is something other than 0.
 446:.\Generated_Source\PSoC5/BootloaderI2C.c ****         *******************************************************************************/
 447:.\Generated_Source\PSoC5/BootloaderI2C.c ****         if(0u != BootloaderI2C_GetMetadata(BootloaderI2C_GET_METADATA_BTLDB_ADDR, BootloaderI2C_act
 415              		.loc 1 447 0
 416 0026 4FF00100 		mov	r0, #1
 417 002a 4FF00001 		mov	r1, #0
 418 002e FFF7FEFF 		bl	BootloaderI2C_GetMetadata
 419 0032 0346     		mov	r3, r0
 420 0034 002B     		cmp	r3, #0
 421 0036 09D0     		beq	.L21
 448:.\Generated_Source\PSoC5/BootloaderI2C.c ****         {
 449:.\Generated_Source\PSoC5/BootloaderI2C.c ****             /* Never return from this method */
 450:.\Generated_Source\PSoC5/BootloaderI2C.c ****             BootloaderI2C_LaunchBootloadable(BootloaderI2C_GetMetadata(BootloaderI2C_GET_METADATA_B
 422              		.loc 1 450 0
 423 0038 4FF00100 		mov	r0, #1
 424 003c 4FF00001 		mov	r1, #0
 425 0040 FFF7FEFF 		bl	BootloaderI2C_GetMetadata
 426 0044 0346     		mov	r3, r0
 427 0046 1846     		mov	r0, r3
 428 0048 FFF7FEFF 		bl	BootloaderI2C_LaunchBootloadable
 429              	.L21:
 451:.\Generated_Source\PSoC5/BootloaderI2C.c ****                                                                              BootloaderI2C_activeAp
 452:.\Generated_Source\PSoC5/BootloaderI2C.c ****         }
 453:.\Generated_Source\PSoC5/BootloaderI2C.c ****     }
 454:.\Generated_Source\PSoC5/BootloaderI2C.c **** }
 430              		.loc 1 454 0
 431 004c 80BD     		pop	{r7, pc}
 432              		.cfi_endproc
 433              	.LFE61:
 434              		.size	CyBtldr_CheckLaunch, .-CyBtldr_CheckLaunch
 435 004e 00BF     		.section	.text.BootloaderI2C_LaunchBootloadable,"ax",%progbits
 436              		.align	2
 437              		.thumb
 438              		.thumb_func
 439              		.type	BootloaderI2C_LaunchBootloadable, %function
 440              	BootloaderI2C_LaunchBootloadable:
 441              	.LFB62:
 455:.\Generated_Source\PSoC5/BootloaderI2C.c **** 
 456:.\Generated_Source\PSoC5/BootloaderI2C.c **** 
 457:.\Generated_Source\PSoC5/BootloaderI2C.c **** /* Moves the arguement appAddr (RO) into PC, moving execution to the appAddr */
 458:.\Generated_Source\PSoC5/BootloaderI2C.c **** #if defined (__ARMCC_VERSION)
 459:.\Generated_Source\PSoC5/BootloaderI2C.c **** 
 460:.\Generated_Source\PSoC5/BootloaderI2C.c ****     __asm static void BootloaderI2C_LaunchBootloadable(uint32 appAddr)
 461:.\Generated_Source\PSoC5/BootloaderI2C.c ****     {
 462:.\Generated_Source\PSoC5/BootloaderI2C.c ****         BX  R0
 463:.\Generated_Source\PSoC5/BootloaderI2C.c ****         ALIGN
 464:.\Generated_Source\PSoC5/BootloaderI2C.c ****     }
 465:.\Generated_Source\PSoC5/BootloaderI2C.c **** 
 466:.\Generated_Source\PSoC5/BootloaderI2C.c **** #elif defined(__GNUC__)
 467:.\Generated_Source\PSoC5/BootloaderI2C.c **** 
ARM GAS  C:\Users\bramamu\AppData\Local\Temp\cczceNxl.s 			page 17


 468:.\Generated_Source\PSoC5/BootloaderI2C.c ****     __attribute__((noinline)) /* Workaround for GCC toolchain bug with inlining */
 469:.\Generated_Source\PSoC5/BootloaderI2C.c ****     __attribute__((naked))
 470:.\Generated_Source\PSoC5/BootloaderI2C.c ****     static void BootloaderI2C_LaunchBootloadable(uint32 appAddr)
 471:.\Generated_Source\PSoC5/BootloaderI2C.c ****     {
 442              		.loc 1 471 0
 443              		.cfi_startproc
 444              		@ Naked Function: prologue and epilogue provided by programmer.
 445              		@ args = 0, pretend = 0, frame = 0
 446              		@ frame_needed = 1, uses_anonymous_args = 0
 472:.\Generated_Source\PSoC5/BootloaderI2C.c ****         __asm volatile("    BX  R0\n");
 447              		.loc 1 472 0
 448              	@ 472 ".\Generated_Source\PSoC5\BootloaderI2C.c" 1
 449 0000 0047     		    BX  R0
 450              	
 451              	@ 0 "" 2
 473:.\Generated_Source\PSoC5/BootloaderI2C.c ****     }
 452              		.loc 1 473 0
 453              		.thumb
 454              		.cfi_endproc
 455              	.LFE62:
 456              		.size	BootloaderI2C_LaunchBootloadable, .-BootloaderI2C_LaunchBootloadable
 457 0002 00BF     		.section	.text.BootloaderI2C_ValidateBootloadable,"ax",%progbits
 458              		.align	2
 459              		.thumb
 460              		.thumb_func
 461              		.type	BootloaderI2C_ValidateBootloadable, %function
 462              	BootloaderI2C_ValidateBootloadable:
 463              	.LFB63:
 474:.\Generated_Source\PSoC5/BootloaderI2C.c **** 
 475:.\Generated_Source\PSoC5/BootloaderI2C.c **** #elif defined (__ICCARM__)
 476:.\Generated_Source\PSoC5/BootloaderI2C.c **** 
 477:.\Generated_Source\PSoC5/BootloaderI2C.c ****     static void BootloaderI2C_LaunchBootloadable(uint32 appAddr)
 478:.\Generated_Source\PSoC5/BootloaderI2C.c ****     {
 479:.\Generated_Source\PSoC5/BootloaderI2C.c ****         __asm volatile("    BX  R0\n");
 480:.\Generated_Source\PSoC5/BootloaderI2C.c ****     }
 481:.\Generated_Source\PSoC5/BootloaderI2C.c **** 
 482:.\Generated_Source\PSoC5/BootloaderI2C.c **** #endif  /* (__ARMCC_VERSION) */
 483:.\Generated_Source\PSoC5/BootloaderI2C.c **** 
 484:.\Generated_Source\PSoC5/BootloaderI2C.c **** 
 485:.\Generated_Source\PSoC5/BootloaderI2C.c **** /*******************************************************************************
 486:.\Generated_Source\PSoC5/BootloaderI2C.c **** * Function Name: BootloaderI2C_ValidateBootloadable
 487:.\Generated_Source\PSoC5/BootloaderI2C.c **** ********************************************************************************
 488:.\Generated_Source\PSoC5/BootloaderI2C.c **** * Summary:
 489:.\Generated_Source\PSoC5/BootloaderI2C.c **** *  This routine computes the checksum, zero check, 0xFF check of the
 490:.\Generated_Source\PSoC5/BootloaderI2C.c **** *  application area to determine whether a valid application is loaded.
 491:.\Generated_Source\PSoC5/BootloaderI2C.c **** *
 492:.\Generated_Source\PSoC5/BootloaderI2C.c **** * Parameters:
 493:.\Generated_Source\PSoC5/BootloaderI2C.c **** *  appId:
 494:.\Generated_Source\PSoC5/BootloaderI2C.c **** *      The application number to verify
 495:.\Generated_Source\PSoC5/BootloaderI2C.c **** *
 496:.\Generated_Source\PSoC5/BootloaderI2C.c **** * Returns:
 497:.\Generated_Source\PSoC5/BootloaderI2C.c **** *  CYRET_SUCCESS  - if successful
 498:.\Generated_Source\PSoC5/BootloaderI2C.c **** *  CYRET_BAD_DATA - if the bootloadable is corrupt
 499:.\Generated_Source\PSoC5/BootloaderI2C.c **** *
 500:.\Generated_Source\PSoC5/BootloaderI2C.c **** *******************************************************************************/
 501:.\Generated_Source\PSoC5/BootloaderI2C.c **** static cystatus BootloaderI2C_ValidateBootloadable(uint8 appId) CYSMALL \
 502:.\Generated_Source\PSoC5/BootloaderI2C.c **** 
ARM GAS  C:\Users\bramamu\AppData\Local\Temp\cczceNxl.s 			page 18


 503:.\Generated_Source\PSoC5/BootloaderI2C.c ****     {
 464              		.loc 1 503 0
 465              		.cfi_startproc
 466              		@ args = 0, pretend = 0, frame = 24
 467              		@ frame_needed = 1, uses_anonymous_args = 0
 468 0000 90B5     		push	{r4, r7, lr}
 469              	.LCFI16:
 470              		.cfi_def_cfa_offset 12
 471              		.cfi_offset 4, -12
 472              		.cfi_offset 7, -8
 473              		.cfi_offset 14, -4
 474 0002 87B0     		sub	sp, sp, #28
 475              	.LCFI17:
 476              		.cfi_def_cfa_offset 40
 477 0004 00AF     		add	r7, sp, #0
 478              	.LCFI18:
 479              		.cfi_def_cfa_register 7
 480 0006 0346     		mov	r3, r0
 481 0008 FB71     		strb	r3, [r7, #7]
 504:.\Generated_Source\PSoC5/BootloaderI2C.c ****         uint32 CYDATA idx;
 505:.\Generated_Source\PSoC5/BootloaderI2C.c **** 
 506:.\Generated_Source\PSoC5/BootloaderI2C.c ****         uint32 CYDATA end   = BootloaderI2C_FIRST_APP_BYTE(appId) +
 482              		.loc 1 506 0
 483 000a FB79     		ldrb	r3, [r7, #7]	@ zero_extendqisi2
 484 000c 4FF00200 		mov	r0, #2
 485 0010 1946     		mov	r1, r3
 486 0012 FFF7FEFF 		bl	BootloaderI2C_GetMetadata
 487 0016 0346     		mov	r3, r0
 488 0018 03F10103 		add	r3, r3, #1
 489 001c 4FEA0324 		lsl	r4, r3, #8
 507:.\Generated_Source\PSoC5/BootloaderI2C.c ****                                 BootloaderI2C_GetMetadata(BootloaderI2C_GET_METADATA_BTLDB_LENGTH,
 490              		.loc 1 507 0
 491 0020 FB79     		ldrb	r3, [r7, #7]	@ zero_extendqisi2
 492 0022 4FF00300 		mov	r0, #3
 493 0026 1946     		mov	r1, r3
 494 0028 FFF7FEFF 		bl	BootloaderI2C_GetMetadata
 495 002c 0346     		mov	r3, r0
 506:.\Generated_Source\PSoC5/BootloaderI2C.c ****         uint32 CYDATA end   = BootloaderI2C_FIRST_APP_BYTE(appId) +
 496              		.loc 1 506 0
 497 002e E318     		adds	r3, r4, r3
 498 0030 FB60     		str	r3, [r7, #12]
 508:.\Generated_Source\PSoC5/BootloaderI2C.c ****                                                        appId);
 509:.\Generated_Source\PSoC5/BootloaderI2C.c **** 
 510:.\Generated_Source\PSoC5/BootloaderI2C.c ****         CYBIT         valid = 0u; /* Assume bad flash image */
 499              		.loc 1 510 0
 500 0032 4FF00003 		mov	r3, #0
 501 0036 FB74     		strb	r3, [r7, #19]
 511:.\Generated_Source\PSoC5/BootloaderI2C.c ****         uint8  CYDATA calcedChecksum = 0u;
 502              		.loc 1 511 0
 503 0038 4FF00003 		mov	r3, #0
 504 003c BB74     		strb	r3, [r7, #18]
 512:.\Generated_Source\PSoC5/BootloaderI2C.c **** 
 513:.\Generated_Source\PSoC5/BootloaderI2C.c **** 
 514:.\Generated_Source\PSoC5/BootloaderI2C.c ****         #if(0u != BootloaderI2C_DUAL_APP_BOOTLOADER)
 515:.\Generated_Source\PSoC5/BootloaderI2C.c **** 
 516:.\Generated_Source\PSoC5/BootloaderI2C.c ****             if(appId > 1u)
 517:.\Generated_Source\PSoC5/BootloaderI2C.c ****             {
ARM GAS  C:\Users\bramamu\AppData\Local\Temp\cczceNxl.s 			page 19


 518:.\Generated_Source\PSoC5/BootloaderI2C.c ****                 return(CYRET_BAD_DATA);
 519:.\Generated_Source\PSoC5/BootloaderI2C.c ****             }
 520:.\Generated_Source\PSoC5/BootloaderI2C.c **** 
 521:.\Generated_Source\PSoC5/BootloaderI2C.c ****         #endif  /* (0u != BootloaderI2C_DUAL_APP_BOOTLOADER) */
 522:.\Generated_Source\PSoC5/BootloaderI2C.c **** 
 523:.\Generated_Source\PSoC5/BootloaderI2C.c **** 
 524:.\Generated_Source\PSoC5/BootloaderI2C.c ****         #if(0u != BootloaderI2C_FAST_APP_VALIDATION)
 525:.\Generated_Source\PSoC5/BootloaderI2C.c **** 
 526:.\Generated_Source\PSoC5/BootloaderI2C.c ****             if(BootloaderI2C_MD_BTLDB_VERIFIED_VALUE(appId) == BootloaderI2C_MD_BTLDB_IS_VERIFIED)
 527:.\Generated_Source\PSoC5/BootloaderI2C.c ****             {
 528:.\Generated_Source\PSoC5/BootloaderI2C.c ****                 return(CYRET_SUCCESS);
 529:.\Generated_Source\PSoC5/BootloaderI2C.c ****             }
 530:.\Generated_Source\PSoC5/BootloaderI2C.c **** 
 531:.\Generated_Source\PSoC5/BootloaderI2C.c ****         #endif  /* (0u != BootloaderI2C_FAST_APP_VALIDATION) */
 532:.\Generated_Source\PSoC5/BootloaderI2C.c **** 
 533:.\Generated_Source\PSoC5/BootloaderI2C.c **** 
 534:.\Generated_Source\PSoC5/BootloaderI2C.c ****         /* Calculate checksum of bootloadable image */
 535:.\Generated_Source\PSoC5/BootloaderI2C.c ****         for(idx = BootloaderI2C_FIRST_APP_BYTE(appId); idx < end; ++idx)
 505              		.loc 1 535 0
 506 003e FB79     		ldrb	r3, [r7, #7]	@ zero_extendqisi2
 507 0040 4FF00200 		mov	r0, #2
 508 0044 1946     		mov	r1, r3
 509 0046 FFF7FEFF 		bl	BootloaderI2C_GetMetadata
 510 004a 0346     		mov	r3, r0
 511 004c 03F10103 		add	r3, r3, #1
 512 0050 4FEA0323 		lsl	r3, r3, #8
 513 0054 7B61     		str	r3, [r7, #20]
 514 0056 13E0     		b	.L25
 515              	.L27:
 516              	.LBB2:
 536:.\Generated_Source\PSoC5/BootloaderI2C.c ****         {
 537:.\Generated_Source\PSoC5/BootloaderI2C.c ****             uint8 CYDATA curByte = BootloaderI2C_GET_CODE_BYTE(idx);
 517              		.loc 1 537 0
 518 0058 7B69     		ldr	r3, [r7, #20]
 519 005a 1B78     		ldrb	r3, [r3, #0]
 520 005c FB72     		strb	r3, [r7, #11]
 538:.\Generated_Source\PSoC5/BootloaderI2C.c **** 
 539:.\Generated_Source\PSoC5/BootloaderI2C.c ****             if((curByte != 0u) && (curByte != 0xFFu))
 521              		.loc 1 539 0
 522 005e FB7A     		ldrb	r3, [r7, #11]	@ zero_extendqisi2
 523 0060 002B     		cmp	r3, #0
 524 0062 05D0     		beq	.L26
 525              		.loc 1 539 0 is_stmt 0 discriminator 1
 526 0064 FB7A     		ldrb	r3, [r7, #11]	@ zero_extendqisi2
 527 0066 FF2B     		cmp	r3, #255
 528 0068 02D0     		beq	.L26
 540:.\Generated_Source\PSoC5/BootloaderI2C.c ****             {
 541:.\Generated_Source\PSoC5/BootloaderI2C.c ****                 valid = 1u;
 529              		.loc 1 541 0 is_stmt 1
 530 006a 4FF00103 		mov	r3, #1
 531 006e FB74     		strb	r3, [r7, #19]
 532              	.L26:
 542:.\Generated_Source\PSoC5/BootloaderI2C.c ****             }
 543:.\Generated_Source\PSoC5/BootloaderI2C.c **** 
 544:.\Generated_Source\PSoC5/BootloaderI2C.c ****             calcedChecksum += curByte;
 533              		.loc 1 544 0
 534 0070 BA7C     		ldrb	r2, [r7, #18]
ARM GAS  C:\Users\bramamu\AppData\Local\Temp\cczceNxl.s 			page 20


 535 0072 FB7A     		ldrb	r3, [r7, #11]
 536 0074 D318     		adds	r3, r2, r3
 537 0076 BB74     		strb	r3, [r7, #18]
 538              	.LBE2:
 535:.\Generated_Source\PSoC5/BootloaderI2C.c ****         for(idx = BootloaderI2C_FIRST_APP_BYTE(appId); idx < end; ++idx)
 539              		.loc 1 535 0
 540 0078 7B69     		ldr	r3, [r7, #20]
 541 007a 03F10103 		add	r3, r3, #1
 542 007e 7B61     		str	r3, [r7, #20]
 543              	.L25:
 535:.\Generated_Source\PSoC5/BootloaderI2C.c ****         for(idx = BootloaderI2C_FIRST_APP_BYTE(appId); idx < end; ++idx)
 544              		.loc 1 535 0 is_stmt 0 discriminator 1
 545 0080 7A69     		ldr	r2, [r7, #20]
 546 0082 FB68     		ldr	r3, [r7, #12]
 547 0084 9A42     		cmp	r2, r3
 548 0086 E7D3     		bcc	.L27
 545:.\Generated_Source\PSoC5/BootloaderI2C.c ****         }
 546:.\Generated_Source\PSoC5/BootloaderI2C.c **** 
 547:.\Generated_Source\PSoC5/BootloaderI2C.c **** 
 548:.\Generated_Source\PSoC5/BootloaderI2C.c ****         /***************************************************************************
 549:.\Generated_Source\PSoC5/BootloaderI2C.c ****         * We do not compute checksum over the meta data section, so no need to
 550:.\Generated_Source\PSoC5/BootloaderI2C.c ****         * subtract off App Verified or App Active information here like we do when
 551:.\Generated_Source\PSoC5/BootloaderI2C.c ****         * verifying a row.
 552:.\Generated_Source\PSoC5/BootloaderI2C.c ****         ***************************************************************************/
 553:.\Generated_Source\PSoC5/BootloaderI2C.c **** 
 554:.\Generated_Source\PSoC5/BootloaderI2C.c **** 
 555:.\Generated_Source\PSoC5/BootloaderI2C.c ****         #if((!CY_PSOC4) && (CYDEV_ECC_ENABLE == 0u))
 556:.\Generated_Source\PSoC5/BootloaderI2C.c **** 
 557:.\Generated_Source\PSoC5/BootloaderI2C.c ****             /* Add ECC data to checksum */
 558:.\Generated_Source\PSoC5/BootloaderI2C.c ****             idx = ((BootloaderI2C_FIRST_APP_BYTE(appId)) >> 3u);
 549              		.loc 1 558 0 is_stmt 1
 550 0088 FB79     		ldrb	r3, [r7, #7]	@ zero_extendqisi2
 551 008a 4FF00200 		mov	r0, #2
 552 008e 1946     		mov	r1, r3
 553 0090 FFF7FEFF 		bl	BootloaderI2C_GetMetadata
 554 0094 0346     		mov	r3, r0
 555 0096 03F10103 		add	r3, r3, #1
 556 009a 4FEA0323 		lsl	r3, r3, #8
 557 009e 4FEAD303 		lsr	r3, r3, #3
 558 00a2 7B61     		str	r3, [r7, #20]
 559:.\Generated_Source\PSoC5/BootloaderI2C.c **** 
 560:.\Generated_Source\PSoC5/BootloaderI2C.c ****             /* Flash may run into meta data, ECC does not so use full row */
 561:.\Generated_Source\PSoC5/BootloaderI2C.c ****             end = (end == (CY_FLASH_SIZE - BootloaderI2C_MD_SIZEOF))
 562:.\Generated_Source\PSoC5/BootloaderI2C.c ****                 ? (CY_FLASH_SIZE >> 3u)
 563:.\Generated_Source\PSoC5/BootloaderI2C.c ****                 : (end >> 3u);
 559              		.loc 1 563 0
 560 00a4 FA68     		ldr	r2, [r7, #12]
 561 00a6 4FF6C073 		movw	r3, #65472
 562 00aa C0F20303 		movt	r3, 3
 563 00ae 9A42     		cmp	r2, r3
 564 00b0 03D0     		beq	.L28
 565              		.loc 1 563 0 is_stmt 0 discriminator 1
 566 00b2 FB68     		ldr	r3, [r7, #12]
 567 00b4 4FEAD303 		lsr	r3, r3, #3
 568 00b8 01E0     		b	.L29
 569              	.L28:
 570              		.loc 1 563 0 discriminator 2
ARM GAS  C:\Users\bramamu\AppData\Local\Temp\cczceNxl.s 			page 21


 571 00ba 4FF40043 		mov	r3, #32768
 572              	.L29:
 561:.\Generated_Source\PSoC5/BootloaderI2C.c ****             end = (end == (CY_FLASH_SIZE - BootloaderI2C_MD_SIZEOF))
 573              		.loc 1 561 0 is_stmt 1
 574 00be FB60     		str	r3, [r7, #12]
 564:.\Generated_Source\PSoC5/BootloaderI2C.c **** 
 565:.\Generated_Source\PSoC5/BootloaderI2C.c ****             for (; idx < end; ++idx)
 575              		.loc 1 565 0
 576 00c0 0BE0     		b	.L30
 577              	.L31:
 566:.\Generated_Source\PSoC5/BootloaderI2C.c ****             {
 567:.\Generated_Source\PSoC5/BootloaderI2C.c ****                 calcedChecksum += CY_GET_XTND_REG8((volatile uint8 *)(CYDEV_ECC_BASE + idx));
 578              		.loc 1 567 0 discriminator 2
 579 00c2 7B69     		ldr	r3, [r7, #20]
 580 00c4 03F19043 		add	r3, r3, #1207959552
 581 00c8 1B78     		ldrb	r3, [r3, #0]
 582 00ca DAB2     		uxtb	r2, r3
 583 00cc BB7C     		ldrb	r3, [r7, #18]
 584 00ce D318     		adds	r3, r2, r3
 585 00d0 BB74     		strb	r3, [r7, #18]
 565:.\Generated_Source\PSoC5/BootloaderI2C.c ****             for (; idx < end; ++idx)
 586              		.loc 1 565 0 discriminator 2
 587 00d2 7B69     		ldr	r3, [r7, #20]
 588 00d4 03F10103 		add	r3, r3, #1
 589 00d8 7B61     		str	r3, [r7, #20]
 590              	.L30:
 565:.\Generated_Source\PSoC5/BootloaderI2C.c ****             for (; idx < end; ++idx)
 591              		.loc 1 565 0 is_stmt 0 discriminator 1
 592 00da 7A69     		ldr	r2, [r7, #20]
 593 00dc FB68     		ldr	r3, [r7, #12]
 594 00de 9A42     		cmp	r2, r3
 595 00e0 EFD3     		bcc	.L31
 568:.\Generated_Source\PSoC5/BootloaderI2C.c ****             }
 569:.\Generated_Source\PSoC5/BootloaderI2C.c **** 
 570:.\Generated_Source\PSoC5/BootloaderI2C.c ****         #endif  /* ((!CY_PSOC4) && (CYDEV_ECC_ENABLE == 0u)) */
 571:.\Generated_Source\PSoC5/BootloaderI2C.c **** 
 572:.\Generated_Source\PSoC5/BootloaderI2C.c **** 
 573:.\Generated_Source\PSoC5/BootloaderI2C.c ****         calcedChecksum = ( uint8 )1u + ( uint8 )(~calcedChecksum);
 596              		.loc 1 573 0 is_stmt 1
 597 00e2 BB7C     		ldrb	r3, [r7, #18]
 598 00e4 C3F10003 		rsb	r3, r3, #0
 599 00e8 BB74     		strb	r3, [r7, #18]
 574:.\Generated_Source\PSoC5/BootloaderI2C.c **** 
 575:.\Generated_Source\PSoC5/BootloaderI2C.c ****         if((calcedChecksum != BootloaderI2C_MD_BTLDB_CHECKSUM_VALUE(appId)) ||
 600              		.loc 1 575 0
 601 00ea FA79     		ldrb	r2, [r7, #7]	@ zero_extendqisi2
 602 00ec 1346     		mov	r3, r2
 603 00ee 4FEA0363 		lsl	r3, r3, #24
 604 00f2 9B1A     		subs	r3, r3, r2
 605 00f4 4FEA0323 		lsl	r3, r3, #8
 606 00f8 03F57F33 		add	r3, r3, #261120
 607 00fc 03F57073 		add	r3, r3, #960
 608 0100 1B78     		ldrb	r3, [r3, #0]
 609 0102 DBB2     		uxtb	r3, r3
 610 0104 BA7C     		ldrb	r2, [r7, #18]	@ zero_extendqisi2
 611 0106 9A42     		cmp	r2, r3
 612 0108 02D1     		bne	.L32
ARM GAS  C:\Users\bramamu\AppData\Local\Temp\cczceNxl.s 			page 22


 613              		.loc 1 575 0 is_stmt 0 discriminator 1
 614 010a FB7C     		ldrb	r3, [r7, #19]	@ zero_extendqisi2
 615 010c 002B     		cmp	r3, #0
 616 010e 02D1     		bne	.L33
 617              	.L32:
 576:.\Generated_Source\PSoC5/BootloaderI2C.c ****            (0u == valid))
 577:.\Generated_Source\PSoC5/BootloaderI2C.c ****         {
 578:.\Generated_Source\PSoC5/BootloaderI2C.c ****             return(CYRET_BAD_DATA);
 618              		.loc 1 578 0 is_stmt 1
 619 0110 4FF00603 		mov	r3, #6
 620 0114 01E0     		b	.L34
 621              	.L33:
 579:.\Generated_Source\PSoC5/BootloaderI2C.c ****         }
 580:.\Generated_Source\PSoC5/BootloaderI2C.c **** 
 581:.\Generated_Source\PSoC5/BootloaderI2C.c **** 
 582:.\Generated_Source\PSoC5/BootloaderI2C.c ****         #if(0u != BootloaderI2C_FAST_APP_VALIDATION)
 583:.\Generated_Source\PSoC5/BootloaderI2C.c ****             BootloaderI2C_SetFlashByte((uint32) BootloaderI2C_MD_BTLDB_VERIFIED_OFFSET(appId),
 584:.\Generated_Source\PSoC5/BootloaderI2C.c ****                                           BootloaderI2C_MD_BTLDB_IS_VERIFIED);
 585:.\Generated_Source\PSoC5/BootloaderI2C.c ****         #endif  /* (0u != BootloaderI2C_FAST_APP_VALIDATION) */
 586:.\Generated_Source\PSoC5/BootloaderI2C.c **** 
 587:.\Generated_Source\PSoC5/BootloaderI2C.c **** 
 588:.\Generated_Source\PSoC5/BootloaderI2C.c ****         return(CYRET_SUCCESS);
 622              		.loc 1 588 0
 623 0116 4FF00003 		mov	r3, #0
 624              	.L34:
 589:.\Generated_Source\PSoC5/BootloaderI2C.c **** }
 625              		.loc 1 589 0
 626 011a 1846     		mov	r0, r3
 627 011c 07F11C07 		add	r7, r7, #28
 628 0120 BD46     		mov	sp, r7
 629 0122 90BD     		pop	{r4, r7, pc}
 630              		.cfi_endproc
 631              	.LFE63:
 632              		.size	BootloaderI2C_ValidateBootloadable, .-BootloaderI2C_ValidateBootloadable
 633              		.section	.rodata
 634              		.align	2
 635              	.LC0:
 636 0000 69E0112E 		.word	772923497
 637 0004 00       		.byte	0
 638 0005 14       		.byte	20
 639 0006 01       		.byte	1
 640 0007 01       		.byte	1
 641              		.section	.text.BootloaderI2C_HostLink,"ax",%progbits
 642              		.align	2
 643              		.thumb
 644              		.thumb_func
 645              		.type	BootloaderI2C_HostLink, %function
 646              	BootloaderI2C_HostLink:
 647              	.LFB64:
 590:.\Generated_Source\PSoC5/BootloaderI2C.c **** 
 591:.\Generated_Source\PSoC5/BootloaderI2C.c **** 
 592:.\Generated_Source\PSoC5/BootloaderI2C.c **** /*******************************************************************************
 593:.\Generated_Source\PSoC5/BootloaderI2C.c **** * Function Name: BootloaderI2C_HostLink
 594:.\Generated_Source\PSoC5/BootloaderI2C.c **** ********************************************************************************
 595:.\Generated_Source\PSoC5/BootloaderI2C.c **** *
 596:.\Generated_Source\PSoC5/BootloaderI2C.c **** * Summary:
 597:.\Generated_Source\PSoC5/BootloaderI2C.c **** *  Causes the bootloader to attempt to read data being transmitted by the
ARM GAS  C:\Users\bramamu\AppData\Local\Temp\cczceNxl.s 			page 23


 598:.\Generated_Source\PSoC5/BootloaderI2C.c **** *  host application.  If data is sent from the host, this establishes the
 599:.\Generated_Source\PSoC5/BootloaderI2C.c **** *  communication interface to process all requests.
 600:.\Generated_Source\PSoC5/BootloaderI2C.c **** *
 601:.\Generated_Source\PSoC5/BootloaderI2C.c **** * Parameters:
 602:.\Generated_Source\PSoC5/BootloaderI2C.c **** *  timeOut:
 603:.\Generated_Source\PSoC5/BootloaderI2C.c **** *   The amount of time to listen for data before giving up. Timeout is
 604:.\Generated_Source\PSoC5/BootloaderI2C.c **** *   measured in 10s of ms.  Use 0 for infinite wait.
 605:.\Generated_Source\PSoC5/BootloaderI2C.c **** *
 606:.\Generated_Source\PSoC5/BootloaderI2C.c **** * Return:
 607:.\Generated_Source\PSoC5/BootloaderI2C.c **** *   None
 608:.\Generated_Source\PSoC5/BootloaderI2C.c **** *
 609:.\Generated_Source\PSoC5/BootloaderI2C.c **** *******************************************************************************/
 610:.\Generated_Source\PSoC5/BootloaderI2C.c **** static void BootloaderI2C_HostLink(uint8 timeOut) 
 611:.\Generated_Source\PSoC5/BootloaderI2C.c **** {
 648              		.loc 1 611 0
 649              		.cfi_startproc
 650              		@ args = 0, pretend = 0, frame = 944
 651              		@ frame_needed = 1, uses_anonymous_args = 0
 652 0000 80B5     		push	{r7, lr}
 653              	.LCFI19:
 654              		.cfi_def_cfa_offset 8
 655              		.cfi_offset 7, -8
 656              		.cfi_offset 14, -4
 657 0002 ADF56C7D 		sub	sp, sp, #944
 658              	.LCFI20:
 659              		.cfi_def_cfa_offset 952
 660 0006 00AF     		add	r7, sp, #0
 661              	.LCFI21:
 662              		.cfi_def_cfa_register 7
 663 0008 0246     		mov	r2, r0
 664 000a 07F10703 		add	r3, r7, #7
 665 000e 1A70     		strb	r2, [r3, #0]
 612:.\Generated_Source\PSoC5/BootloaderI2C.c ****     uint16    CYDATA numberRead;
 613:.\Generated_Source\PSoC5/BootloaderI2C.c ****     uint16    CYDATA rspSize;
 614:.\Generated_Source\PSoC5/BootloaderI2C.c ****     uint8     CYDATA ackCode;
 615:.\Generated_Source\PSoC5/BootloaderI2C.c ****     uint16    CYDATA pktChecksum;
 616:.\Generated_Source\PSoC5/BootloaderI2C.c ****     cystatus  CYDATA readStat;
 617:.\Generated_Source\PSoC5/BootloaderI2C.c ****     uint16    CYDATA pktSize    = 0u;
 666              		.loc 1 617 0
 667 0010 4FF00003 		mov	r3, #0
 668 0014 A7F8AA33 		strh	r3, [r7, #938]	@ movhi
 618:.\Generated_Source\PSoC5/BootloaderI2C.c ****     uint16    CYDATA dataOffset = 0u;
 669              		.loc 1 618 0
 670 0018 4FF00003 		mov	r3, #0
 671 001c A7F8A833 		strh	r3, [r7, #936]	@ movhi
 619:.\Generated_Source\PSoC5/BootloaderI2C.c ****     uint8     CYDATA timeOutCnt = 10u;
 672              		.loc 1 619 0
 673 0020 4FF00A03 		mov	r3, #10
 674 0024 87F8A733 		strb	r3, [r7, #935]
 620:.\Generated_Source\PSoC5/BootloaderI2C.c **** 
 621:.\Generated_Source\PSoC5/BootloaderI2C.c ****     #if(0u == BootloaderI2C_DUAL_APP_BOOTLOADER)
 622:.\Generated_Source\PSoC5/BootloaderI2C.c ****         uint8 CYDATA clearedMetaData = 0u;
 675              		.loc 1 622 0
 676 0028 4FF00003 		mov	r3, #0
 677 002c 87F8A633 		strb	r3, [r7, #934]
 623:.\Generated_Source\PSoC5/BootloaderI2C.c ****     #endif  /* (0u == BootloaderI2C_DUAL_APP_BOOTLOADER) */
 624:.\Generated_Source\PSoC5/BootloaderI2C.c **** 
ARM GAS  C:\Users\bramamu\AppData\Local\Temp\cczceNxl.s 			page 24


 625:.\Generated_Source\PSoC5/BootloaderI2C.c ****     CYBIT     communicationState = BootloaderI2C_COMMUNICATION_STATE_IDLE;
 678              		.loc 1 625 0
 679 0030 4FF00003 		mov	r3, #0
 680 0034 87F8A533 		strb	r3, [r7, #933]
 626:.\Generated_Source\PSoC5/BootloaderI2C.c **** 
 627:.\Generated_Source\PSoC5/BootloaderI2C.c ****     uint8     packetBuffer[BootloaderI2C_SIZEOF_COMMAND_BUFFER];
 628:.\Generated_Source\PSoC5/BootloaderI2C.c ****     uint8     dataBuffer  [BootloaderI2C_SIZEOF_COMMAND_BUFFER];
 629:.\Generated_Source\PSoC5/BootloaderI2C.c **** 
 630:.\Generated_Source\PSoC5/BootloaderI2C.c **** 
 631:.\Generated_Source\PSoC5/BootloaderI2C.c ****     /* Initialize communications channel. */
 632:.\Generated_Source\PSoC5/BootloaderI2C.c ****     CyBtldrCommStart();
 681              		.loc 1 632 0
 682 0038 FFF7FEFF 		bl	I2CSlave_CyBtldrCommStart
 633:.\Generated_Source\PSoC5/BootloaderI2C.c **** 
 634:.\Generated_Source\PSoC5/BootloaderI2C.c ****     /* Enable global interrupts */
 635:.\Generated_Source\PSoC5/BootloaderI2C.c ****     CyGlobalIntEnable;
 683              		.loc 1 635 0
 684              	@ 635 ".\Generated_Source\PSoC5\BootloaderI2C.c" 1
 685 003c 62B6     		CPSIE   i
 686              	@ 0 "" 2
 687              		.thumb
 688              	.L84:
 636:.\Generated_Source\PSoC5/BootloaderI2C.c **** 
 637:.\Generated_Source\PSoC5/BootloaderI2C.c ****     do
 638:.\Generated_Source\PSoC5/BootloaderI2C.c ****     {
 639:.\Generated_Source\PSoC5/BootloaderI2C.c ****         ackCode = CYRET_SUCCESS;
 689              		.loc 1 639 0
 690 003e 4FF00003 		mov	r3, #0
 691 0042 87F8AD33 		strb	r3, [r7, #941]
 692              	.L40:
 640:.\Generated_Source\PSoC5/BootloaderI2C.c **** 
 641:.\Generated_Source\PSoC5/BootloaderI2C.c ****         do
 642:.\Generated_Source\PSoC5/BootloaderI2C.c ****         {
 643:.\Generated_Source\PSoC5/BootloaderI2C.c ****             readStat = CyBtldrCommRead(packetBuffer,
 693              		.loc 1 643 0
 694 0046 07F10703 		add	r3, r7, #7
 695 004a 1B78     		ldrb	r3, [r3, #0]	@ zero_extendqisi2
 696 004c 002B     		cmp	r3, #0
 697 004e 03D0     		beq	.L36
 698              		.loc 1 643 0 is_stmt 0 discriminator 1
 699 0050 07F10703 		add	r3, r7, #7
 700 0054 1B78     		ldrb	r3, [r3, #0]	@ zero_extendqisi2
 701 0056 01E0     		b	.L37
 702              	.L36:
 703              		.loc 1 643 0 discriminator 2
 704 0058 4FF0FF03 		mov	r3, #255
 705              	.L37:
 706              		.loc 1 643 0 discriminator 3
 707 005c 07F51871 		add	r1, r7, #608
 708 0060 07F28E32 		addw	r2, r7, #910
 709 0064 0846     		mov	r0, r1
 710 0066 4FF49671 		mov	r1, #300
 711 006a FFF7FEFF 		bl	I2CSlave_CyBtldrCommRead
 712 006e C7F89C03 		str	r0, [r7, #924]
 644:.\Generated_Source\PSoC5/BootloaderI2C.c ****                                         BootloaderI2C_SIZEOF_COMMAND_BUFFER,
 645:.\Generated_Source\PSoC5/BootloaderI2C.c ****                                         &numberRead,
 646:.\Generated_Source\PSoC5/BootloaderI2C.c ****                                         (0u == timeOut) ? 0xFFu : timeOut);
ARM GAS  C:\Users\bramamu\AppData\Local\Temp\cczceNxl.s 			page 25


 647:.\Generated_Source\PSoC5/BootloaderI2C.c ****             if (0u != timeOut)
 713              		.loc 1 647 0 is_stmt 1 discriminator 3
 714 0072 07F10703 		add	r3, r7, #7
 715 0076 1B78     		ldrb	r3, [r3, #0]	@ zero_extendqisi2
 716 0078 002B     		cmp	r3, #0
 717 007a 05D0     		beq	.L38
 648:.\Generated_Source\PSoC5/BootloaderI2C.c ****             {
 649:.\Generated_Source\PSoC5/BootloaderI2C.c ****                 timeOutCnt--;
 718              		.loc 1 649 0
 719 007c 97F8A733 		ldrb	r3, [r7, #935]
 720 0080 03F1FF33 		add	r3, r3, #-1
 721 0084 87F8A733 		strb	r3, [r7, #935]
 722              	.L38:
 650:.\Generated_Source\PSoC5/BootloaderI2C.c ****             }
 651:.\Generated_Source\PSoC5/BootloaderI2C.c **** 
 652:.\Generated_Source\PSoC5/BootloaderI2C.c ****         } while ( (0u != timeOutCnt) && (readStat != CYRET_SUCCESS) );
 723              		.loc 1 652 0
 724 0088 97F8A733 		ldrb	r3, [r7, #935]	@ zero_extendqisi2
 725 008c 002B     		cmp	r3, #0
 726 008e 03D0     		beq	.L39
 727              		.loc 1 652 0 is_stmt 0 discriminator 1
 728 0090 D7F89C33 		ldr	r3, [r7, #924]
 729 0094 002B     		cmp	r3, #0
 730 0096 D6D1     		bne	.L40
 731              	.L39:
 653:.\Generated_Source\PSoC5/BootloaderI2C.c **** 
 654:.\Generated_Source\PSoC5/BootloaderI2C.c **** 
 655:.\Generated_Source\PSoC5/BootloaderI2C.c ****         if( readStat != CYRET_SUCCESS )
 732              		.loc 1 655 0 is_stmt 1
 733 0098 D7F89C33 		ldr	r3, [r7, #924]
 734 009c 002B     		cmp	r3, #0
 735 009e 40F0CA82 		bne	.L85
 736              	.L41:
 656:.\Generated_Source\PSoC5/BootloaderI2C.c ****         {
 657:.\Generated_Source\PSoC5/BootloaderI2C.c ****             continue;
 658:.\Generated_Source\PSoC5/BootloaderI2C.c ****         }
 659:.\Generated_Source\PSoC5/BootloaderI2C.c **** 
 660:.\Generated_Source\PSoC5/BootloaderI2C.c ****         if((numberRead < BootloaderI2C_MIN_PKT_SIZE) ||
 737              		.loc 1 660 0
 738 00a2 B7F88E33 		ldrh	r3, [r7, #910]
 739 00a6 062B     		cmp	r3, #6
 740 00a8 04D9     		bls	.L43
 661:.\Generated_Source\PSoC5/BootloaderI2C.c ****            (packetBuffer[BootloaderI2C_SOP_ADDR] != BootloaderI2C_SOP))
 741              		.loc 1 661 0 discriminator 1
 742 00aa 07F51873 		add	r3, r7, #608
 743 00ae 1B78     		ldrb	r3, [r3, #0]	@ zero_extendqisi2
 660:.\Generated_Source\PSoC5/BootloaderI2C.c ****         if((numberRead < BootloaderI2C_MIN_PKT_SIZE) ||
 744              		.loc 1 660 0 discriminator 1
 745 00b0 012B     		cmp	r3, #1
 746 00b2 04D0     		beq	.L44
 747              	.L43:
 662:.\Generated_Source\PSoC5/BootloaderI2C.c ****         {
 663:.\Generated_Source\PSoC5/BootloaderI2C.c ****             ackCode = BootloaderI2C_ERR_DATA;
 748              		.loc 1 663 0
 749 00b4 4FF00403 		mov	r3, #4
 750 00b8 87F8AD33 		strb	r3, [r7, #941]
 751 00bc 4EE0     		b	.L45
ARM GAS  C:\Users\bramamu\AppData\Local\Temp\cczceNxl.s 			page 26


 752              	.L44:
 664:.\Generated_Source\PSoC5/BootloaderI2C.c ****         }
 665:.\Generated_Source\PSoC5/BootloaderI2C.c ****         else
 666:.\Generated_Source\PSoC5/BootloaderI2C.c ****         {
 667:.\Generated_Source\PSoC5/BootloaderI2C.c ****             pktSize = ((uint16)((uint16)packetBuffer[BootloaderI2C_SIZE_ADDR + 1u] << 8u)) |
 753              		.loc 1 667 0
 754 00be 07F51873 		add	r3, r7, #608
 755 00c2 DB78     		ldrb	r3, [r3, #3]	@ zero_extendqisi2
 756 00c4 4FEA0323 		lsl	r3, r3, #8
 757 00c8 9AB2     		uxth	r2, r3
 668:.\Generated_Source\PSoC5/BootloaderI2C.c ****                                packetBuffer[BootloaderI2C_SIZE_ADDR];
 758              		.loc 1 668 0
 759 00ca 07F51873 		add	r3, r7, #608
 760 00ce 9B78     		ldrb	r3, [r3, #2]	@ zero_extendqisi2
 667:.\Generated_Source\PSoC5/BootloaderI2C.c ****             pktSize = ((uint16)((uint16)packetBuffer[BootloaderI2C_SIZE_ADDR + 1u] << 8u)) |
 761              		.loc 1 667 0
 762 00d0 1343     		orrs	r3, r3, r2
 763 00d2 A7F8AA33 		strh	r3, [r7, #938]	@ movhi
 669:.\Generated_Source\PSoC5/BootloaderI2C.c **** 
 670:.\Generated_Source\PSoC5/BootloaderI2C.c ****             pktChecksum = ((uint16)((uint16)packetBuffer[BootloaderI2C_CHK_ADDR(pktSize) + 1u] << 8
 764              		.loc 1 670 0
 765 00d6 B7F8AA33 		ldrh	r3, [r7, #938]
 766 00da 03F10503 		add	r3, r3, #5
 767 00de 07F51872 		add	r2, r7, #608
 768 00e2 D35C     		ldrb	r3, [r2, r3]	@ zero_extendqisi2
 769 00e4 4FEA0323 		lsl	r3, r3, #8
 770 00e8 9AB2     		uxth	r2, r3
 671:.\Generated_Source\PSoC5/BootloaderI2C.c ****                                    packetBuffer[BootloaderI2C_CHK_ADDR(pktSize)];
 771              		.loc 1 671 0
 772 00ea B7F8AA33 		ldrh	r3, [r7, #938]
 773 00ee 03F10403 		add	r3, r3, #4
 774 00f2 07F51871 		add	r1, r7, #608
 775 00f6 CB5C     		ldrb	r3, [r1, r3]	@ zero_extendqisi2
 670:.\Generated_Source\PSoC5/BootloaderI2C.c ****             pktChecksum = ((uint16)((uint16)packetBuffer[BootloaderI2C_CHK_ADDR(pktSize) + 1u] << 8
 776              		.loc 1 670 0
 777 00f8 1343     		orrs	r3, r3, r2
 778 00fa A7F89A33 		strh	r3, [r7, #922]	@ movhi
 672:.\Generated_Source\PSoC5/BootloaderI2C.c **** 
 673:.\Generated_Source\PSoC5/BootloaderI2C.c ****             if((pktSize + BootloaderI2C_MIN_PKT_SIZE) > numberRead)
 779              		.loc 1 673 0
 780 00fe B7F8AA33 		ldrh	r3, [r7, #938]
 781 0102 03F10702 		add	r2, r3, #7
 782 0106 B7F88E33 		ldrh	r3, [r7, #910]
 783 010a 9A42     		cmp	r2, r3
 784 010c 04D9     		bls	.L46
 674:.\Generated_Source\PSoC5/BootloaderI2C.c ****             {
 675:.\Generated_Source\PSoC5/BootloaderI2C.c ****                 ackCode = BootloaderI2C_ERR_LENGTH;
 785              		.loc 1 675 0
 786 010e 4FF00303 		mov	r3, #3
 787 0112 87F8AD33 		strb	r3, [r7, #941]
 788 0116 21E0     		b	.L45
 789              	.L46:
 676:.\Generated_Source\PSoC5/BootloaderI2C.c ****             }
 677:.\Generated_Source\PSoC5/BootloaderI2C.c ****             else if(packetBuffer[BootloaderI2C_EOP_ADDR(pktSize)] != BootloaderI2C_EOP)
 790              		.loc 1 677 0
 791 0118 B7F8AA33 		ldrh	r3, [r7, #938]
 792 011c 03F10603 		add	r3, r3, #6
ARM GAS  C:\Users\bramamu\AppData\Local\Temp\cczceNxl.s 			page 27


 793 0120 07F51872 		add	r2, r7, #608
 794 0124 D35C     		ldrb	r3, [r2, r3]	@ zero_extendqisi2
 795 0126 172B     		cmp	r3, #23
 796 0128 04D0     		beq	.L47
 678:.\Generated_Source\PSoC5/BootloaderI2C.c ****             {
 679:.\Generated_Source\PSoC5/BootloaderI2C.c ****                 ackCode = BootloaderI2C_ERR_DATA;
 797              		.loc 1 679 0
 798 012a 4FF00403 		mov	r3, #4
 799 012e 87F8AD33 		strb	r3, [r7, #941]
 800 0132 13E0     		b	.L45
 801              	.L47:
 680:.\Generated_Source\PSoC5/BootloaderI2C.c ****             }
 681:.\Generated_Source\PSoC5/BootloaderI2C.c ****             else if(pktChecksum != BootloaderI2C_CalcPacketChecksum(packetBuffer,
 802              		.loc 1 681 0
 803 0134 B7F8AA33 		ldrh	r3, [r7, #938]	@ movhi
 804 0138 03F10403 		add	r3, r3, #4
 805 013c 9BB2     		uxth	r3, r3
 806 013e 07F51872 		add	r2, r7, #608
 807 0142 1046     		mov	r0, r2
 808 0144 1946     		mov	r1, r3
 809 0146 FFF7FEFF 		bl	BootloaderI2C_CalcPacketChecksum
 810 014a 0346     		mov	r3, r0
 811 014c B7F89A23 		ldrh	r2, [r7, #922]
 812 0150 9A42     		cmp	r2, r3
 813 0152 03D0     		beq	.L45
 682:.\Generated_Source\PSoC5/BootloaderI2C.c ****                                                                         pktSize + BootloaderI2C_DAT
 683:.\Generated_Source\PSoC5/BootloaderI2C.c ****             {
 684:.\Generated_Source\PSoC5/BootloaderI2C.c ****                 ackCode = BootloaderI2C_ERR_CHECKSUM;
 814              		.loc 1 684 0
 815 0154 4FF00803 		mov	r3, #8
 816 0158 87F8AD33 		strb	r3, [r7, #941]
 817              	.L45:
 685:.\Generated_Source\PSoC5/BootloaderI2C.c ****             }
 686:.\Generated_Source\PSoC5/BootloaderI2C.c ****             else
 687:.\Generated_Source\PSoC5/BootloaderI2C.c ****             {
 688:.\Generated_Source\PSoC5/BootloaderI2C.c ****                 /* Empty section */
 689:.\Generated_Source\PSoC5/BootloaderI2C.c ****             }
 690:.\Generated_Source\PSoC5/BootloaderI2C.c ****         }
 691:.\Generated_Source\PSoC5/BootloaderI2C.c **** 
 692:.\Generated_Source\PSoC5/BootloaderI2C.c ****         rspSize = 0u;
 818              		.loc 1 692 0
 819 015c 4FF00003 		mov	r3, #0
 820 0160 A7F8AE33 		strh	r3, [r7, #942]	@ movhi
 693:.\Generated_Source\PSoC5/BootloaderI2C.c ****         if(ackCode == CYRET_SUCCESS)
 821              		.loc 1 693 0
 822 0164 97F8AD33 		ldrb	r3, [r7, #941]	@ zero_extendqisi2
 823 0168 002B     		cmp	r3, #0
 824 016a 40F05882 		bne	.L48
 825              	.LBB3:
 694:.\Generated_Source\PSoC5/BootloaderI2C.c ****         {
 695:.\Generated_Source\PSoC5/BootloaderI2C.c ****             uint8 CYDATA btldrData = packetBuffer[BootloaderI2C_DATA_ADDR];
 826              		.loc 1 695 0
 827 016e 07F51873 		add	r3, r7, #608
 828 0172 1B79     		ldrb	r3, [r3, #4]
 829 0174 87F89933 		strb	r3, [r7, #921]
 696:.\Generated_Source\PSoC5/BootloaderI2C.c **** 
 697:.\Generated_Source\PSoC5/BootloaderI2C.c ****             ackCode = BootloaderI2C_ERR_DATA;
ARM GAS  C:\Users\bramamu\AppData\Local\Temp\cczceNxl.s 			page 28


 830              		.loc 1 697 0
 831 0178 4FF00403 		mov	r3, #4
 832 017c 87F8AD33 		strb	r3, [r7, #941]
 698:.\Generated_Source\PSoC5/BootloaderI2C.c ****             switch(packetBuffer[BootloaderI2C_CMD_ADDR])
 833              		.loc 1 698 0
 834 0180 07F51873 		add	r3, r7, #608
 835 0184 5B78     		ldrb	r3, [r3, #1]	@ zero_extendqisi2
 836 0186 A3F13103 		sub	r3, r3, #49
 837 018a 0A2B     		cmp	r3, #10
 838 018c 00F23582 		bhi	.L49
 839 0190 01A2     		adr	r2, .L58
 840 0192 52F823F0 		ldr	pc, [r2, r3, lsl #2]
 841 0196 00BF     		.align	2
 842              	.L58:
 843 0198 C5010000 		.word	.L50+1
 844 019c 07020000 		.word	.L51+1
 845 01a0 FB050000 		.word	.L49+1
 846 01a4 71020000 		.word	.L52+1
 847 01a8 DB030000 		.word	.L53+1
 848 01ac FB050000 		.word	.L49+1
 849 01b0 EF030000 		.word	.L54+1
 850 01b4 4B040000 		.word	.L55+1
 851 01b8 71020000 		.word	.L52+1
 852 01bc 9D040000 		.word	.L56+1
 853 01c0 D9050000 		.word	.L57+1
 854              	.L50:
 699:.\Generated_Source\PSoC5/BootloaderI2C.c ****             {
 700:.\Generated_Source\PSoC5/BootloaderI2C.c **** 
 701:.\Generated_Source\PSoC5/BootloaderI2C.c **** 
 702:.\Generated_Source\PSoC5/BootloaderI2C.c ****             /***************************************************************************
 703:.\Generated_Source\PSoC5/BootloaderI2C.c ****             *   Get metadata
 704:.\Generated_Source\PSoC5/BootloaderI2C.c ****             ***************************************************************************/
 705:.\Generated_Source\PSoC5/BootloaderI2C.c ****             #if(0u != BootloaderI2C_CMD_GET_METADATA)
 706:.\Generated_Source\PSoC5/BootloaderI2C.c **** 
 707:.\Generated_Source\PSoC5/BootloaderI2C.c ****                 case BootloaderI2C_COMMAND_GET_METADATA:
 708:.\Generated_Source\PSoC5/BootloaderI2C.c **** 
 709:.\Generated_Source\PSoC5/BootloaderI2C.c ****                     if((BootloaderI2C_COMMUNICATION_STATE_ACTIVE == communicationState) && (pktSize
 710:.\Generated_Source\PSoC5/BootloaderI2C.c ****                     {
 711:.\Generated_Source\PSoC5/BootloaderI2C.c ****                         if (btldrData >= BootloaderI2C_MAX_NUM_OF_BTLDB)
 712:.\Generated_Source\PSoC5/BootloaderI2C.c ****                         {
 713:.\Generated_Source\PSoC5/BootloaderI2C.c ****                             ackCode = BootloaderI2C_ERR_APP;
 714:.\Generated_Source\PSoC5/BootloaderI2C.c ****                         }
 715:.\Generated_Source\PSoC5/BootloaderI2C.c ****                         else if(CYRET_SUCCESS == BootloaderI2C_ValidateBootloadable(btldrData))
 716:.\Generated_Source\PSoC5/BootloaderI2C.c ****                         {
 717:.\Generated_Source\PSoC5/BootloaderI2C.c ****                             #if(CY_PSOC3)
 718:.\Generated_Source\PSoC5/BootloaderI2C.c ****                                 (void) memcpy(&packetBuffer[BootloaderI2C_DATA_ADDR],
 719:.\Generated_Source\PSoC5/BootloaderI2C.c ****                                             ((uint8  CYCODE *) (BootloaderI2C_META_BASE(btldrData))
 720:.\Generated_Source\PSoC5/BootloaderI2C.c ****                             #else
 721:.\Generated_Source\PSoC5/BootloaderI2C.c ****                                 (void) memcpy(&packetBuffer[BootloaderI2C_DATA_ADDR],
 722:.\Generated_Source\PSoC5/BootloaderI2C.c ****                                             (uint8 *) BootloaderI2C_META_BASE(btldrData), 56u);
 723:.\Generated_Source\PSoC5/BootloaderI2C.c ****                             #endif  /* (CY_PSOC3) */
 724:.\Generated_Source\PSoC5/BootloaderI2C.c **** 
 725:.\Generated_Source\PSoC5/BootloaderI2C.c ****                             rspSize = 56u;
 726:.\Generated_Source\PSoC5/BootloaderI2C.c ****                             ackCode = CYRET_SUCCESS;
 727:.\Generated_Source\PSoC5/BootloaderI2C.c ****                         }
 728:.\Generated_Source\PSoC5/BootloaderI2C.c ****                         else
 729:.\Generated_Source\PSoC5/BootloaderI2C.c ****                         {
ARM GAS  C:\Users\bramamu\AppData\Local\Temp\cczceNxl.s 			page 29


 730:.\Generated_Source\PSoC5/BootloaderI2C.c ****                             ackCode = BootloaderI2C_ERR_APP;
 731:.\Generated_Source\PSoC5/BootloaderI2C.c ****                         }
 732:.\Generated_Source\PSoC5/BootloaderI2C.c ****                     }
 733:.\Generated_Source\PSoC5/BootloaderI2C.c ****                     break;
 734:.\Generated_Source\PSoC5/BootloaderI2C.c **** 
 735:.\Generated_Source\PSoC5/BootloaderI2C.c ****             #endif  /* (0u != BootloaderI2C_CMD_GET_METADATA) */
 736:.\Generated_Source\PSoC5/BootloaderI2C.c **** 
 737:.\Generated_Source\PSoC5/BootloaderI2C.c **** 
 738:.\Generated_Source\PSoC5/BootloaderI2C.c ****             /***************************************************************************
 739:.\Generated_Source\PSoC5/BootloaderI2C.c ****             *   Verify checksum
 740:.\Generated_Source\PSoC5/BootloaderI2C.c ****             ***************************************************************************/
 741:.\Generated_Source\PSoC5/BootloaderI2C.c ****             case BootloaderI2C_COMMAND_CHECKSUM:
 742:.\Generated_Source\PSoC5/BootloaderI2C.c **** 
 743:.\Generated_Source\PSoC5/BootloaderI2C.c ****                 if((BootloaderI2C_COMMUNICATION_STATE_ACTIVE == communicationState) && (pktSize == 
 855              		.loc 1 743 0
 856 01c4 97F8A533 		ldrb	r3, [r7, #933]	@ zero_extendqisi2
 857 01c8 012B     		cmp	r3, #1
 858 01ca 40F01B82 		bne	.L86
 859              		.loc 1 743 0 is_stmt 0 discriminator 1
 860 01ce B7F8AA33 		ldrh	r3, [r7, #938]
 861 01d2 002B     		cmp	r3, #0
 862 01d4 40F01682 		bne	.L86
 744:.\Generated_Source\PSoC5/BootloaderI2C.c ****                 {
 745:.\Generated_Source\PSoC5/BootloaderI2C.c ****                     packetBuffer[BootloaderI2C_DATA_ADDR] =
 746:.\Generated_Source\PSoC5/BootloaderI2C.c ****                             (uint8)(BootloaderI2C_ValidateBootloadable(BootloaderI2C_activeApp) == 
 863              		.loc 1 746 0 is_stmt 1
 864 01d8 4FF00000 		mov	r0, #0
 865 01dc FFF7FEFF 		bl	BootloaderI2C_ValidateBootloadable
 866 01e0 0346     		mov	r3, r0
 867 01e2 002B     		cmp	r3, #0
 868 01e4 14BF     		ite	ne
 869 01e6 0023     		movne	r3, #0
 870 01e8 0123     		moveq	r3, #1
 871 01ea DBB2     		uxtb	r3, r3
 872 01ec 1A46     		mov	r2, r3
 745:.\Generated_Source\PSoC5/BootloaderI2C.c ****                     packetBuffer[BootloaderI2C_DATA_ADDR] =
 873              		.loc 1 745 0
 874 01ee 07F51873 		add	r3, r7, #608
 875 01f2 1A71     		strb	r2, [r3, #4]
 747:.\Generated_Source\PSoC5/BootloaderI2C.c **** 
 748:.\Generated_Source\PSoC5/BootloaderI2C.c ****                     rspSize = 1u;
 876              		.loc 1 748 0
 877 01f4 4FF00103 		mov	r3, #1
 878 01f8 A7F8AE33 		strh	r3, [r7, #942]	@ movhi
 749:.\Generated_Source\PSoC5/BootloaderI2C.c ****                     ackCode = CYRET_SUCCESS;
 879              		.loc 1 749 0
 880 01fc 4FF00003 		mov	r3, #0
 881 0200 87F8AD33 		strb	r3, [r7, #941]
 750:.\Generated_Source\PSoC5/BootloaderI2C.c ****                 }
 751:.\Generated_Source\PSoC5/BootloaderI2C.c ****                 break;
 882              		.loc 1 751 0
 883 0204 FEE1     		b	.L86
 884              	.L51:
 752:.\Generated_Source\PSoC5/BootloaderI2C.c **** 
 753:.\Generated_Source\PSoC5/BootloaderI2C.c **** 
 754:.\Generated_Source\PSoC5/BootloaderI2C.c ****             /***************************************************************************
 755:.\Generated_Source\PSoC5/BootloaderI2C.c ****             *   Get flash size
ARM GAS  C:\Users\bramamu\AppData\Local\Temp\cczceNxl.s 			page 30


 756:.\Generated_Source\PSoC5/BootloaderI2C.c ****             ***************************************************************************/
 757:.\Generated_Source\PSoC5/BootloaderI2C.c ****             #if(0u != BootloaderI2C_CMD_GET_FLASH_SIZE_AVAIL)
 758:.\Generated_Source\PSoC5/BootloaderI2C.c **** 
 759:.\Generated_Source\PSoC5/BootloaderI2C.c ****                 case BootloaderI2C_COMMAND_REPORT_SIZE:
 760:.\Generated_Source\PSoC5/BootloaderI2C.c **** 
 761:.\Generated_Source\PSoC5/BootloaderI2C.c ****                     if((BootloaderI2C_COMMUNICATION_STATE_ACTIVE == communicationState) && (pktSize
 885              		.loc 1 761 0
 886 0206 97F8A533 		ldrb	r3, [r7, #933]	@ zero_extendqisi2
 887 020a 012B     		cmp	r3, #1
 888 020c 40F0FC81 		bne	.L87
 889              		.loc 1 761 0 is_stmt 0 discriminator 1
 890 0210 B7F8AA33 		ldrh	r3, [r7, #938]
 891 0214 012B     		cmp	r3, #1
 892 0216 40F0F781 		bne	.L87
 762:.\Generated_Source\PSoC5/BootloaderI2C.c ****                     {
 763:.\Generated_Source\PSoC5/BootloaderI2C.c ****                         /* btldrData holds flash array ID sent by host */
 764:.\Generated_Source\PSoC5/BootloaderI2C.c ****                         if(btldrData < BootloaderI2C_NUM_OF_FLASH_ARRAYS)
 893              		.loc 1 764 0 is_stmt 1
 894 021a 97F89933 		ldrb	r3, [r7, #921]	@ zero_extendqisi2
 895 021e 032B     		cmp	r3, #3
 896 0220 00F2F281 		bhi	.L87
 897              	.LBB4:
 765:.\Generated_Source\PSoC5/BootloaderI2C.c ****                         {
 766:.\Generated_Source\PSoC5/BootloaderI2C.c ****                             #if (1u == BootloaderI2C_NUM_OF_FLASH_ARRAYS)
 767:.\Generated_Source\PSoC5/BootloaderI2C.c ****                                 uint16 CYDATA startRow = (uint16)*BootloaderI2C_SizeBytesAccess / C
 768:.\Generated_Source\PSoC5/BootloaderI2C.c ****                             #else
 769:.\Generated_Source\PSoC5/BootloaderI2C.c ****                                 uint16 CYDATA startRow = 0u;
 898              		.loc 1 769 0
 899 0224 4FF00003 		mov	r3, #0
 900 0228 A7F89633 		strh	r3, [r7, #918]	@ movhi
 770:.\Generated_Source\PSoC5/BootloaderI2C.c ****                             #endif  /* (1u == BootloaderI2C_NUM_OF_FLASH_ARRAYS) */
 771:.\Generated_Source\PSoC5/BootloaderI2C.c **** 
 772:.\Generated_Source\PSoC5/BootloaderI2C.c ****                             packetBuffer[BootloaderI2C_DATA_ADDR]      = LO8(startRow);
 901              		.loc 1 772 0
 902 022c B7F89633 		ldrh	r3, [r7, #918]	@ movhi
 903 0230 DAB2     		uxtb	r2, r3
 904 0232 07F51873 		add	r3, r7, #608
 905 0236 1A71     		strb	r2, [r3, #4]
 773:.\Generated_Source\PSoC5/BootloaderI2C.c ****                             packetBuffer[BootloaderI2C_DATA_ADDR + 1u] = HI8(startRow);
 906              		.loc 1 773 0
 907 0238 B7F89633 		ldrh	r3, [r7, #918]
 908 023c 4FEA1323 		lsr	r3, r3, #8
 909 0240 9BB2     		uxth	r3, r3
 910 0242 DAB2     		uxtb	r2, r3
 911 0244 07F51873 		add	r3, r7, #608
 912 0248 5A71     		strb	r2, [r3, #5]
 774:.\Generated_Source\PSoC5/BootloaderI2C.c ****                             packetBuffer[BootloaderI2C_DATA_ADDR + 2u] = LO8(CY_FLASH_NUMBER_ROWS -
 913              		.loc 1 774 0
 914 024a 07F51873 		add	r3, r7, #608
 915 024e 4FF0FF02 		mov	r2, #255
 916 0252 9A71     		strb	r2, [r3, #6]
 775:.\Generated_Source\PSoC5/BootloaderI2C.c ****                             packetBuffer[BootloaderI2C_DATA_ADDR + 3u] = HI8(CY_FLASH_NUMBER_ROWS -
 917              		.loc 1 775 0
 918 0254 07F51873 		add	r3, r7, #608
 919 0258 4FF00302 		mov	r2, #3
 920 025c DA71     		strb	r2, [r3, #7]
 776:.\Generated_Source\PSoC5/BootloaderI2C.c **** 
ARM GAS  C:\Users\bramamu\AppData\Local\Temp\cczceNxl.s 			page 31


 777:.\Generated_Source\PSoC5/BootloaderI2C.c ****                             rspSize = 4u;
 921              		.loc 1 777 0
 922 025e 4FF00403 		mov	r3, #4
 923 0262 A7F8AE33 		strh	r3, [r7, #942]	@ movhi
 778:.\Generated_Source\PSoC5/BootloaderI2C.c ****                             ackCode = CYRET_SUCCESS;
 924              		.loc 1 778 0
 925 0266 4FF00003 		mov	r3, #0
 926 026a 87F8AD33 		strb	r3, [r7, #941]
 927              	.LBE4:
 779:.\Generated_Source\PSoC5/BootloaderI2C.c ****                         }
 780:.\Generated_Source\PSoC5/BootloaderI2C.c **** 
 781:.\Generated_Source\PSoC5/BootloaderI2C.c ****                     }
 782:.\Generated_Source\PSoC5/BootloaderI2C.c ****                     break;
 928              		.loc 1 782 0
 929 026e CBE1     		b	.L87
 930              	.L52:
 783:.\Generated_Source\PSoC5/BootloaderI2C.c **** 
 784:.\Generated_Source\PSoC5/BootloaderI2C.c ****             #endif  /* (0u != BootloaderI2C_CMD_GET_FLASH_SIZE_AVAIL) */
 785:.\Generated_Source\PSoC5/BootloaderI2C.c **** 
 786:.\Generated_Source\PSoC5/BootloaderI2C.c **** 
 787:.\Generated_Source\PSoC5/BootloaderI2C.c ****             /***************************************************************************
 788:.\Generated_Source\PSoC5/BootloaderI2C.c ****             *   Get application status
 789:.\Generated_Source\PSoC5/BootloaderI2C.c ****             ***************************************************************************/
 790:.\Generated_Source\PSoC5/BootloaderI2C.c ****             #if(0u != BootloaderI2C_DUAL_APP_BOOTLOADER)
 791:.\Generated_Source\PSoC5/BootloaderI2C.c **** 
 792:.\Generated_Source\PSoC5/BootloaderI2C.c ****                 #if(0u != BootloaderI2C_CMD_GET_APP_STATUS_AVAIL)
 793:.\Generated_Source\PSoC5/BootloaderI2C.c **** 
 794:.\Generated_Source\PSoC5/BootloaderI2C.c ****                     case BootloaderI2C_COMMAND_APP_STATUS:
 795:.\Generated_Source\PSoC5/BootloaderI2C.c **** 
 796:.\Generated_Source\PSoC5/BootloaderI2C.c ****                         if((BootloaderI2C_COMMUNICATION_STATE_ACTIVE == communicationState) && (pkt
 797:.\Generated_Source\PSoC5/BootloaderI2C.c ****                         {
 798:.\Generated_Source\PSoC5/BootloaderI2C.c **** 
 799:.\Generated_Source\PSoC5/BootloaderI2C.c ****                             packetBuffer[BootloaderI2C_DATA_ADDR] =
 800:.\Generated_Source\PSoC5/BootloaderI2C.c ****                                 (uint8)BootloaderI2C_ValidateBootloadable(btldrData);
 801:.\Generated_Source\PSoC5/BootloaderI2C.c **** 
 802:.\Generated_Source\PSoC5/BootloaderI2C.c ****                             packetBuffer[BootloaderI2C_DATA_ADDR + 1u] =
 803:.\Generated_Source\PSoC5/BootloaderI2C.c ****                                 (uint8)BootloaderI2C_MD_BTLDB_ACTIVE_VALUE(btldrData);
 804:.\Generated_Source\PSoC5/BootloaderI2C.c **** 
 805:.\Generated_Source\PSoC5/BootloaderI2C.c ****                             rspSize = 2u;
 806:.\Generated_Source\PSoC5/BootloaderI2C.c ****                             ackCode = CYRET_SUCCESS;
 807:.\Generated_Source\PSoC5/BootloaderI2C.c ****                         }
 808:.\Generated_Source\PSoC5/BootloaderI2C.c ****                         break;
 809:.\Generated_Source\PSoC5/BootloaderI2C.c **** 
 810:.\Generated_Source\PSoC5/BootloaderI2C.c ****                 #endif  /* (0u != BootloaderI2C_CMD_GET_APP_STATUS_AVAIL) */
 811:.\Generated_Source\PSoC5/BootloaderI2C.c **** 
 812:.\Generated_Source\PSoC5/BootloaderI2C.c ****             #endif  /* (0u != BootloaderI2C_DUAL_APP_BOOTLOADER) */
 813:.\Generated_Source\PSoC5/BootloaderI2C.c **** 
 814:.\Generated_Source\PSoC5/BootloaderI2C.c **** 
 815:.\Generated_Source\PSoC5/BootloaderI2C.c ****             /***************************************************************************
 816:.\Generated_Source\PSoC5/BootloaderI2C.c ****             *   Program / Erase row
 817:.\Generated_Source\PSoC5/BootloaderI2C.c ****             ***************************************************************************/
 818:.\Generated_Source\PSoC5/BootloaderI2C.c ****             case BootloaderI2C_COMMAND_PROGRAM:
 819:.\Generated_Source\PSoC5/BootloaderI2C.c **** 
 820:.\Generated_Source\PSoC5/BootloaderI2C.c ****             /* The btldrData variable holds Flash Array ID */
 821:.\Generated_Source\PSoC5/BootloaderI2C.c **** 
 822:.\Generated_Source\PSoC5/BootloaderI2C.c ****         #if (0u != BootloaderI2C_CMD_ERASE_ROW_AVAIL)
 823:.\Generated_Source\PSoC5/BootloaderI2C.c **** 
ARM GAS  C:\Users\bramamu\AppData\Local\Temp\cczceNxl.s 			page 32


 824:.\Generated_Source\PSoC5/BootloaderI2C.c ****             case BootloaderI2C_COMMAND_ERASE:
 825:.\Generated_Source\PSoC5/BootloaderI2C.c ****                 if (BootloaderI2C_COMMAND_ERASE == packetBuffer[BootloaderI2C_CMD_ADDR])
 931              		.loc 1 825 0
 932 0270 07F51873 		add	r3, r7, #608
 933 0274 5B78     		ldrb	r3, [r3, #1]	@ zero_extendqisi2
 934 0276 342B     		cmp	r3, #52
 935 0278 25D1     		bne	.L61
 826:.\Generated_Source\PSoC5/BootloaderI2C.c ****                 {
 827:.\Generated_Source\PSoC5/BootloaderI2C.c ****                     if ((BootloaderI2C_COMMUNICATION_STATE_ACTIVE == communicationState) && (pktSiz
 936              		.loc 1 827 0
 937 027a 97F8A533 		ldrb	r3, [r7, #933]	@ zero_extendqisi2
 938 027e 012B     		cmp	r3, #1
 939 0280 40F0CD81 		bne	.L48
 940              		.loc 1 827 0 is_stmt 0 discriminator 1
 941 0284 B7F8AA33 		ldrh	r3, [r7, #938]
 942 0288 032B     		cmp	r3, #3
 943 028a 40F0C881 		bne	.L48
 828:.\Generated_Source\PSoC5/BootloaderI2C.c ****                     {
 829:.\Generated_Source\PSoC5/BootloaderI2C.c ****                         #if(!CY_PSOC4)
 830:.\Generated_Source\PSoC5/BootloaderI2C.c ****                             if((btldrData >= BootloaderI2C_FIRST_EE_ARRAYID) &&
 944              		.loc 1 830 0 is_stmt 1
 945 028e 97F89933 		ldrb	r3, [r7, #921]	@ zero_extendqisi2
 946 0292 3F2B     		cmp	r3, #63
 947 0294 09D9     		bls	.L62
 831:.\Generated_Source\PSoC5/BootloaderI2C.c ****                                (btldrData <= BootloaderI2C_LAST_EE_ARRAYID))
 948              		.loc 1 831 0 discriminator 1
 949 0296 97F89933 		ldrb	r3, [r7, #921]	@ zero_extendqisi2
 830:.\Generated_Source\PSoC5/BootloaderI2C.c ****                             if((btldrData >= BootloaderI2C_FIRST_EE_ARRAYID) &&
 950              		.loc 1 830 0 discriminator 1
 951 029a 5BB2     		sxtb	r3, r3
 952 029c 002B     		cmp	r3, #0
 953 029e 04DB     		blt	.L62
 832:.\Generated_Source\PSoC5/BootloaderI2C.c ****                             {
 833:.\Generated_Source\PSoC5/BootloaderI2C.c ****                                 /* Size of EEPROM row */
 834:.\Generated_Source\PSoC5/BootloaderI2C.c ****                                 dataOffset = CY_EEPROM_SIZEOF_ROW;
 954              		.loc 1 834 0
 955 02a0 4FF01003 		mov	r3, #16
 956 02a4 A7F8A833 		strh	r3, [r7, #936]	@ movhi
 957 02a8 03E0     		b	.L63
 958              	.L62:
 835:.\Generated_Source\PSoC5/BootloaderI2C.c ****                             }
 836:.\Generated_Source\PSoC5/BootloaderI2C.c ****                             else
 837:.\Generated_Source\PSoC5/BootloaderI2C.c ****                             {
 838:.\Generated_Source\PSoC5/BootloaderI2C.c ****                                 /* Size of FLASH row (depends on ECC configuration) */
 839:.\Generated_Source\PSoC5/BootloaderI2C.c ****                                 dataOffset = BootloaderI2C_FROW_SIZE;
 959              		.loc 1 839 0
 960 02aa 4FF49073 		mov	r3, #288
 961 02ae A7F8A833 		strh	r3, [r7, #936]	@ movhi
 962              	.L63:
 840:.\Generated_Source\PSoC5/BootloaderI2C.c ****                             }
 841:.\Generated_Source\PSoC5/BootloaderI2C.c ****                         #else
 842:.\Generated_Source\PSoC5/BootloaderI2C.c ****                             /* Size of FLASH row (no ECC available) */
 843:.\Generated_Source\PSoC5/BootloaderI2C.c ****                             dataOffset = BootloaderI2C_FROW_SIZE;
 844:.\Generated_Source\PSoC5/BootloaderI2C.c ****                         #endif  /* (!CY_PSOC4) */
 845:.\Generated_Source\PSoC5/BootloaderI2C.c **** 
 846:.\Generated_Source\PSoC5/BootloaderI2C.c ****                         #if(CY_PSOC3)
 847:.\Generated_Source\PSoC5/BootloaderI2C.c ****                             (void) memset(dataBuffer, (char8) 0, (int16) dataOffset);
ARM GAS  C:\Users\bramamu\AppData\Local\Temp\cczceNxl.s 			page 33


 848:.\Generated_Source\PSoC5/BootloaderI2C.c ****                         #else
 849:.\Generated_Source\PSoC5/BootloaderI2C.c ****                             (void) memset(dataBuffer, 0, dataOffset);
 963              		.loc 1 849 0
 964 02b2 B7F8A833 		ldrh	r3, [r7, #936]
 965 02b6 07F59A72 		add	r2, r7, #308
 966 02ba 1046     		mov	r0, r2
 967 02bc 4FF00001 		mov	r1, #0
 968 02c0 1A46     		mov	r2, r3
 969 02c2 FFF7FEFF 		bl	memset
 970              	.L61:
 850:.\Generated_Source\PSoC5/BootloaderI2C.c ****                         #endif  /* (CY_PSOC3) */
 851:.\Generated_Source\PSoC5/BootloaderI2C.c ****                     }
 852:.\Generated_Source\PSoC5/BootloaderI2C.c ****                     else
 853:.\Generated_Source\PSoC5/BootloaderI2C.c ****                     {
 854:.\Generated_Source\PSoC5/BootloaderI2C.c ****                         break;
 855:.\Generated_Source\PSoC5/BootloaderI2C.c ****                     }
 856:.\Generated_Source\PSoC5/BootloaderI2C.c ****                 }
 857:.\Generated_Source\PSoC5/BootloaderI2C.c **** 
 858:.\Generated_Source\PSoC5/BootloaderI2C.c ****         #endif  /* (0u != BootloaderI2C_CMD_ERASE_ROW_AVAIL) */
 859:.\Generated_Source\PSoC5/BootloaderI2C.c **** 
 860:.\Generated_Source\PSoC5/BootloaderI2C.c **** 
 861:.\Generated_Source\PSoC5/BootloaderI2C.c ****                 if((BootloaderI2C_COMMUNICATION_STATE_ACTIVE == communicationState) && (pktSize >= 
 971              		.loc 1 861 0
 972 02c6 97F8A533 		ldrb	r3, [r7, #933]	@ zero_extendqisi2
 973 02ca 012B     		cmp	r3, #1
 974 02cc 40F09E81 		bne	.L88
 975              		.loc 1 861 0 is_stmt 0 discriminator 1
 976 02d0 B7F8AA33 		ldrh	r3, [r7, #938]
 977 02d4 022B     		cmp	r3, #2
 978 02d6 40F29981 		bls	.L88
 862:.\Generated_Source\PSoC5/BootloaderI2C.c ****                 {
 863:.\Generated_Source\PSoC5/BootloaderI2C.c **** 
 864:.\Generated_Source\PSoC5/BootloaderI2C.c ****                     /* The command may be sent along with the last block of data, to program the ro
 865:.\Generated_Source\PSoC5/BootloaderI2C.c ****                     #if(CY_PSOC3)
 866:.\Generated_Source\PSoC5/BootloaderI2C.c ****                         (void) memcpy(&dataBuffer[dataOffset],
 867:.\Generated_Source\PSoC5/BootloaderI2C.c ****                                       &packetBuffer[BootloaderI2C_DATA_ADDR + 3u],
 868:.\Generated_Source\PSoC5/BootloaderI2C.c ****                                       ( int16 )pktSize - 3);
 869:.\Generated_Source\PSoC5/BootloaderI2C.c ****                     #else
 870:.\Generated_Source\PSoC5/BootloaderI2C.c ****                         (void) memcpy(&dataBuffer[dataOffset],
 979              		.loc 1 870 0 is_stmt 1
 980 02da B7F8A833 		ldrh	r3, [r7, #936]
 981 02de 07F59A72 		add	r2, r7, #308
 982 02e2 D118     		adds	r1, r2, r3
 983 02e4 B7F8AA33 		ldrh	r3, [r7, #938]
 984 02e8 A3F10303 		sub	r3, r3, #3
 871:.\Generated_Source\PSoC5/BootloaderI2C.c ****                                       &packetBuffer[BootloaderI2C_DATA_ADDR + 3u],
 985              		.loc 1 871 0
 986 02ec 07F51872 		add	r2, r7, #608
 987 02f0 02F10702 		add	r2, r2, #7
 870:.\Generated_Source\PSoC5/BootloaderI2C.c ****                         (void) memcpy(&dataBuffer[dataOffset],
 988              		.loc 1 870 0
 989 02f4 0846     		mov	r0, r1
 990 02f6 1146     		mov	r1, r2
 991 02f8 1A46     		mov	r2, r3
 992 02fa FFF7FEFF 		bl	memcpy
 872:.\Generated_Source\PSoC5/BootloaderI2C.c ****                                       pktSize - 3u);
 873:.\Generated_Source\PSoC5/BootloaderI2C.c ****                     #endif  /* (CY_PSOC3) */
ARM GAS  C:\Users\bramamu\AppData\Local\Temp\cczceNxl.s 			page 34


 874:.\Generated_Source\PSoC5/BootloaderI2C.c **** 
 875:.\Generated_Source\PSoC5/BootloaderI2C.c ****                     dataOffset += (pktSize - 3u);
 993              		.loc 1 875 0
 994 02fe B7F8A823 		ldrh	r2, [r7, #936]	@ movhi
 995 0302 B7F8AA33 		ldrh	r3, [r7, #938]	@ movhi
 996 0306 D318     		adds	r3, r2, r3
 997 0308 9BB2     		uxth	r3, r3
 998 030a A3F10303 		sub	r3, r3, #3
 999 030e A7F8A833 		strh	r3, [r7, #936]	@ movhi
 876:.\Generated_Source\PSoC5/BootloaderI2C.c **** 
 877:.\Generated_Source\PSoC5/BootloaderI2C.c ****                     #if(!CY_PSOC4)
 878:.\Generated_Source\PSoC5/BootloaderI2C.c ****                         if((btldrData >= BootloaderI2C_FIRST_EE_ARRAYID) &&
 1000              		.loc 1 878 0
 1001 0312 97F89933 		ldrb	r3, [r7, #921]	@ zero_extendqisi2
 1002 0316 3F2B     		cmp	r3, #63
 1003 0318 0BD9     		bls	.L65
 879:.\Generated_Source\PSoC5/BootloaderI2C.c ****                            (btldrData <= BootloaderI2C_LAST_EE_ARRAYID))
 1004              		.loc 1 879 0 discriminator 1
 1005 031a 97F89933 		ldrb	r3, [r7, #921]	@ zero_extendqisi2
 878:.\Generated_Source\PSoC5/BootloaderI2C.c ****                         if((btldrData >= BootloaderI2C_FIRST_EE_ARRAYID) &&
 1006              		.loc 1 878 0 discriminator 1
 1007 031e 5BB2     		sxtb	r3, r3
 1008 0320 002B     		cmp	r3, #0
 1009 0322 06DB     		blt	.L65
 880:.\Generated_Source\PSoC5/BootloaderI2C.c ****                         {
 881:.\Generated_Source\PSoC5/BootloaderI2C.c **** 
 882:.\Generated_Source\PSoC5/BootloaderI2C.c ****                             CyEEPROM_Start();
 1010              		.loc 1 882 0
 1011 0324 FFF7FEFF 		bl	CyEEPROM_Start
 883:.\Generated_Source\PSoC5/BootloaderI2C.c **** 
 884:.\Generated_Source\PSoC5/BootloaderI2C.c ****                             /* Size of EEPROM row */
 885:.\Generated_Source\PSoC5/BootloaderI2C.c ****                             pktSize = CY_EEPROM_SIZEOF_ROW;
 1012              		.loc 1 885 0
 1013 0328 4FF01003 		mov	r3, #16
 1014 032c A7F8AA33 		strh	r3, [r7, #938]	@ movhi
 1015 0330 03E0     		b	.L66
 1016              	.L65:
 886:.\Generated_Source\PSoC5/BootloaderI2C.c ****                         }
 887:.\Generated_Source\PSoC5/BootloaderI2C.c ****                         else
 888:.\Generated_Source\PSoC5/BootloaderI2C.c ****                         {
 889:.\Generated_Source\PSoC5/BootloaderI2C.c ****                             /* Size of FLASH row (depends on ECC configuration) */
 890:.\Generated_Source\PSoC5/BootloaderI2C.c ****                             pktSize = BootloaderI2C_FROW_SIZE;
 1017              		.loc 1 890 0
 1018 0332 4FF49073 		mov	r3, #288
 1019 0336 A7F8AA33 		strh	r3, [r7, #938]	@ movhi
 1020              	.L66:
 891:.\Generated_Source\PSoC5/BootloaderI2C.c ****                         }
 892:.\Generated_Source\PSoC5/BootloaderI2C.c ****                     #else
 893:.\Generated_Source\PSoC5/BootloaderI2C.c ****                         /* Size of FLASH row (no ECC available) */
 894:.\Generated_Source\PSoC5/BootloaderI2C.c ****                         pktSize = BootloaderI2C_FROW_SIZE;
 895:.\Generated_Source\PSoC5/BootloaderI2C.c ****                     #endif  /* (!CY_PSOC4) */
 896:.\Generated_Source\PSoC5/BootloaderI2C.c **** 
 897:.\Generated_Source\PSoC5/BootloaderI2C.c **** 
 898:.\Generated_Source\PSoC5/BootloaderI2C.c ****                     /* Check if we have all data to program */
 899:.\Generated_Source\PSoC5/BootloaderI2C.c ****                     if(dataOffset == pktSize)
 1021              		.loc 1 899 0
 1022 033a B7F8A823 		ldrh	r2, [r7, #936]
ARM GAS  C:\Users\bramamu\AppData\Local\Temp\cczceNxl.s 			page 35


 1023 033e B7F8AA33 		ldrh	r3, [r7, #938]
 1024 0342 9A42     		cmp	r2, r3
 1025 0344 40D1     		bne	.L67
 900:.\Generated_Source\PSoC5/BootloaderI2C.c ****                     {
 901:.\Generated_Source\PSoC5/BootloaderI2C.c ****                         /* Get FLASH/EEPROM row number */
 902:.\Generated_Source\PSoC5/BootloaderI2C.c ****                         dataOffset = ((uint16)((uint16)packetBuffer[BootloaderI2C_DATA_ADDR + 2u] <
 1026              		.loc 1 902 0
 1027 0346 07F51873 		add	r3, r7, #608
 1028 034a 9B79     		ldrb	r3, [r3, #6]	@ zero_extendqisi2
 1029 034c 4FEA0323 		lsl	r3, r3, #8
 1030 0350 9AB2     		uxth	r2, r3
 903:.\Generated_Source\PSoC5/BootloaderI2C.c ****                                               packetBuffer[BootloaderI2C_DATA_ADDR + 1u];
 1031              		.loc 1 903 0
 1032 0352 07F51873 		add	r3, r7, #608
 1033 0356 5B79     		ldrb	r3, [r3, #5]	@ zero_extendqisi2
 902:.\Generated_Source\PSoC5/BootloaderI2C.c ****                         dataOffset = ((uint16)((uint16)packetBuffer[BootloaderI2C_DATA_ADDR + 2u] <
 1034              		.loc 1 902 0
 1035 0358 1343     		orrs	r3, r3, r2
 1036 035a A7F8A833 		strh	r3, [r7, #936]	@ movhi
 904:.\Generated_Source\PSoC5/BootloaderI2C.c **** 
 905:.\Generated_Source\PSoC5/BootloaderI2C.c ****                         #if(!CY_PSOC4)
 906:.\Generated_Source\PSoC5/BootloaderI2C.c ****                             if(btldrData <= BootloaderI2C_LAST_FLASH_ARRAYID)
 1037              		.loc 1 906 0
 1038 035e 97F89933 		ldrb	r3, [r7, #921]	@ zero_extendqisi2
 1039 0362 3F2B     		cmp	r3, #63
 1040 0364 1BD8     		bhi	.L68
 907:.\Generated_Source\PSoC5/BootloaderI2C.c ****                             {
 908:.\Generated_Source\PSoC5/BootloaderI2C.c ****                         #endif  /* (!CY_PSOC4) */
 909:.\Generated_Source\PSoC5/BootloaderI2C.c **** 
 910:.\Generated_Source\PSoC5/BootloaderI2C.c ****                         #if(0u == BootloaderI2C_DUAL_APP_BOOTLOADER)
 911:.\Generated_Source\PSoC5/BootloaderI2C.c **** 
 912:.\Generated_Source\PSoC5/BootloaderI2C.c ****                             if(0u == clearedMetaData)
 1041              		.loc 1 912 0
 1042 0366 97F8A633 		ldrb	r3, [r7, #934]	@ zero_extendqisi2
 1043 036a 002B     		cmp	r3, #0
 1044 036c 17D1     		bne	.L68
 1045              	.LBB5:
 913:.\Generated_Source\PSoC5/BootloaderI2C.c ****                             {
 914:.\Generated_Source\PSoC5/BootloaderI2C.c ****                                 /* Metadata section must be filled with zeroes */
 915:.\Generated_Source\PSoC5/BootloaderI2C.c **** 
 916:.\Generated_Source\PSoC5/BootloaderI2C.c ****                                 uint8 erase[BootloaderI2C_FROW_SIZE];
 917:.\Generated_Source\PSoC5/BootloaderI2C.c **** 
 918:.\Generated_Source\PSoC5/BootloaderI2C.c ****                                 #if(CY_PSOC3)
 919:.\Generated_Source\PSoC5/BootloaderI2C.c ****                                     (void) memset(erase, (char8) 0, (int16) BootloaderI2C_FROW_SIZE
 920:.\Generated_Source\PSoC5/BootloaderI2C.c ****                                 #else
 921:.\Generated_Source\PSoC5/BootloaderI2C.c ****                                     (void) memset(erase, 0, BootloaderI2C_FROW_SIZE);
 1046              		.loc 1 921 0
 1047 036e 07F10C03 		add	r3, r7, #12
 1048 0372 1846     		mov	r0, r3
 1049 0374 4FF00001 		mov	r1, #0
 1050 0378 4FF49072 		mov	r2, #288
 1051 037c FFF7FEFF 		bl	memset
 922:.\Generated_Source\PSoC5/BootloaderI2C.c ****                                 #endif  /* (CY_PSOC3) */
 923:.\Generated_Source\PSoC5/BootloaderI2C.c **** 
 924:.\Generated_Source\PSoC5/BootloaderI2C.c ****                                 #if(CY_PSOC4)
 925:.\Generated_Source\PSoC5/BootloaderI2C.c ****                                     (void) CySysFlashWriteRow(BootloaderI2C_MD_ROW, erase);
 926:.\Generated_Source\PSoC5/BootloaderI2C.c ****                                 #else
ARM GAS  C:\Users\bramamu\AppData\Local\Temp\cczceNxl.s 			page 36


 927:.\Generated_Source\PSoC5/BootloaderI2C.c ****                                     (void) CyWriteRowFull((uint8)  BootloaderI2C_MD_FLASH_ARRAY_NUM
 928:.\Generated_Source\PSoC5/BootloaderI2C.c ****                                                           (uint16) BootloaderI2C_MD_ROW,
 929:.\Generated_Source\PSoC5/BootloaderI2C.c ****                                                                     erase,
 1052              		.loc 1 929 0
 1053 0380 07F10C03 		add	r3, r7, #12
 927:.\Generated_Source\PSoC5/BootloaderI2C.c ****                                     (void) CyWriteRowFull((uint8)  BootloaderI2C_MD_FLASH_ARRAY_NUM
 1054              		.loc 1 927 0
 1055 0384 4FF00300 		mov	r0, #3
 1056 0388 4FF0FF01 		mov	r1, #255
 1057 038c 1A46     		mov	r2, r3
 1058 038e 4FF49073 		mov	r3, #288
 1059 0392 FFF7FEFF 		bl	CyWriteRowFull
 930:.\Generated_Source\PSoC5/BootloaderI2C.c ****                                                                     BootloaderI2C_FROW_SIZE);
 931:.\Generated_Source\PSoC5/BootloaderI2C.c ****                                 #endif  /* (CY_PSOC4) */
 932:.\Generated_Source\PSoC5/BootloaderI2C.c **** 
 933:.\Generated_Source\PSoC5/BootloaderI2C.c ****                                 /* Set up flag that metadata was cleared */
 934:.\Generated_Source\PSoC5/BootloaderI2C.c ****                                 clearedMetaData = 1u;
 1060              		.loc 1 934 0
 1061 0396 4FF00103 		mov	r3, #1
 1062 039a 87F8A633 		strb	r3, [r7, #934]
 1063              	.L68:
 1064              	.LBE5:
 935:.\Generated_Source\PSoC5/BootloaderI2C.c ****                             }
 936:.\Generated_Source\PSoC5/BootloaderI2C.c **** 
 937:.\Generated_Source\PSoC5/BootloaderI2C.c ****                         #else
 938:.\Generated_Source\PSoC5/BootloaderI2C.c **** 
 939:.\Generated_Source\PSoC5/BootloaderI2C.c ****                             if(BootloaderI2C_activeApp < BootloaderI2C_MD_BTLDB_ACTIVE_NONE)
 940:.\Generated_Source\PSoC5/BootloaderI2C.c ****                             {
 941:.\Generated_Source\PSoC5/BootloaderI2C.c ****                                 /* First active bootloadable application row */
 942:.\Generated_Source\PSoC5/BootloaderI2C.c ****                                 uint16 firstRow = (uint16) 1u +
 943:.\Generated_Source\PSoC5/BootloaderI2C.c ****                                     (uint16) BootloaderI2C_GetMetadata(BootloaderI2C_GET_METADATA_B
 944:.\Generated_Source\PSoC5/BootloaderI2C.c ****                                                                           BootloaderI2C_activeApp);
 945:.\Generated_Source\PSoC5/BootloaderI2C.c **** 
 946:.\Generated_Source\PSoC5/BootloaderI2C.c ****                                 #if(CY_PSOC4)
 947:.\Generated_Source\PSoC5/BootloaderI2C.c ****                                     uint16 row = dataOffset;
 948:.\Generated_Source\PSoC5/BootloaderI2C.c ****                                 #else
 949:.\Generated_Source\PSoC5/BootloaderI2C.c ****                                     uint16 row = (uint16)(btldrData * (CYDEV_FLS_SECTOR_SIZE / CYDE
 950:.\Generated_Source\PSoC5/BootloaderI2C.c ****                                                   dataOffset;
 951:.\Generated_Source\PSoC5/BootloaderI2C.c ****                                 #endif  /* (CY_PSOC4) */
 952:.\Generated_Source\PSoC5/BootloaderI2C.c **** 
 953:.\Generated_Source\PSoC5/BootloaderI2C.c **** 
 954:.\Generated_Source\PSoC5/BootloaderI2C.c ****                                 /******************************************************************
 955:.\Generated_Source\PSoC5/BootloaderI2C.c ****                                 * Last row is equal to the first row plus the number of rows availa
 956:.\Generated_Source\PSoC5/BootloaderI2C.c ****                                 * app. To compute this, we first subtract the number of appliaction
 957:.\Generated_Source\PSoC5/BootloaderI2C.c ****                                 * the total flash rows: (CY_FLASH_NUMBER_ROWS - 2u).
 958:.\Generated_Source\PSoC5/BootloaderI2C.c ****                                 *
 959:.\Generated_Source\PSoC5/BootloaderI2C.c ****                                 * Then subtract off the first row:
 960:.\Generated_Source\PSoC5/BootloaderI2C.c ****                                 * App Rows = (CY_FLASH_NUMBER_ROWS - 2u - firstRow)
 961:.\Generated_Source\PSoC5/BootloaderI2C.c ****                                 * Then divide that number by the number of application that must fi
 962:.\Generated_Source\PSoC5/BootloaderI2C.c ****                                 * space, if we are app1 then that number is 2, if app2 then 1.  Our
 963:.\Generated_Source\PSoC5/BootloaderI2C.c ****                                 * then: (2u - BootloaderI2C_activeApp).
 964:.\Generated_Source\PSoC5/BootloaderI2C.c ****                                 *
 965:.\Generated_Source\PSoC5/BootloaderI2C.c ****                                 * Adding this number to firstRow gives the address right beyond our
 966:.\Generated_Source\PSoC5/BootloaderI2C.c ****                                 * so we subtract 1.
 967:.\Generated_Source\PSoC5/BootloaderI2C.c ****                                 *******************************************************************
 968:.\Generated_Source\PSoC5/BootloaderI2C.c ****                                 uint16 lastRow = (firstRow - 1u) +
 969:.\Generated_Source\PSoC5/BootloaderI2C.c ****                                                   ((uint16)((CYDEV_FLASH_SIZE / CYDEV_FLS_ROW_SIZE)
ARM GAS  C:\Users\bramamu\AppData\Local\Temp\cczceNxl.s 			page 37


 970:.\Generated_Source\PSoC5/BootloaderI2C.c ****                                                   ((uint16)2u - (uint16)BootloaderI2C_activeApp));
 971:.\Generated_Source\PSoC5/BootloaderI2C.c **** 
 972:.\Generated_Source\PSoC5/BootloaderI2C.c **** 
 973:.\Generated_Source\PSoC5/BootloaderI2C.c ****                                 /******************************************************************
 974:.\Generated_Source\PSoC5/BootloaderI2C.c ****                                 * Check to see if the row to program is within the range of the act
 975:.\Generated_Source\PSoC5/BootloaderI2C.c ****                                 * application, or if it maches the active application's metadata ro
 976:.\Generated_Source\PSoC5/BootloaderI2C.c ****                                 * refuse to program as it would corrupt the active app.
 977:.\Generated_Source\PSoC5/BootloaderI2C.c ****                                 *******************************************************************
 978:.\Generated_Source\PSoC5/BootloaderI2C.c ****                                 if(((row >= firstRow) && (row <= lastRow)) ||
 979:.\Generated_Source\PSoC5/BootloaderI2C.c ****                                    ((btldrData == BootloaderI2C_MD_FLASH_ARRAY_NUM) &&
 980:.\Generated_Source\PSoC5/BootloaderI2C.c ****                                    (dataOffset == BootloaderI2C_MD_ROW_NUM(BootloaderI2C_activeApp)
 981:.\Generated_Source\PSoC5/BootloaderI2C.c ****                                 {
 982:.\Generated_Source\PSoC5/BootloaderI2C.c ****                                     ackCode = BootloaderI2C_ERR_ACTIVE;
 983:.\Generated_Source\PSoC5/BootloaderI2C.c ****                                     dataOffset = 0u;
 984:.\Generated_Source\PSoC5/BootloaderI2C.c ****                                     break;
 985:.\Generated_Source\PSoC5/BootloaderI2C.c ****                                 }
 986:.\Generated_Source\PSoC5/BootloaderI2C.c ****                             }
 987:.\Generated_Source\PSoC5/BootloaderI2C.c **** 
 988:.\Generated_Source\PSoC5/BootloaderI2C.c ****                         #endif  /* (0u == BootloaderI2C_DUAL_APP_BOOTLOADER) */
 989:.\Generated_Source\PSoC5/BootloaderI2C.c **** 
 990:.\Generated_Source\PSoC5/BootloaderI2C.c ****                         #if(!CY_PSOC4)
 991:.\Generated_Source\PSoC5/BootloaderI2C.c ****                             }
 992:.\Generated_Source\PSoC5/BootloaderI2C.c ****                         #endif  /* (!CY_PSOC4) */
 993:.\Generated_Source\PSoC5/BootloaderI2C.c **** 
 994:.\Generated_Source\PSoC5/BootloaderI2C.c ****                         #if(CY_PSOC4)
 995:.\Generated_Source\PSoC5/BootloaderI2C.c **** 
 996:.\Generated_Source\PSoC5/BootloaderI2C.c ****                             ackCode = (CYRET_SUCCESS != CySysFlashWriteRow((uint32) dataOffset, dat
 997:.\Generated_Source\PSoC5/BootloaderI2C.c ****                                 ? BootloaderI2C_ERR_ROW \
 998:.\Generated_Source\PSoC5/BootloaderI2C.c ****                                 : CYRET_SUCCESS;
 999:.\Generated_Source\PSoC5/BootloaderI2C.c **** 
1000:.\Generated_Source\PSoC5/BootloaderI2C.c ****                         #else
1001:.\Generated_Source\PSoC5/BootloaderI2C.c **** 
1002:.\Generated_Source\PSoC5/BootloaderI2C.c ****                             ackCode = (CYRET_SUCCESS != CyWriteRowFull(btldrData, dataOffset, dataB
 1065              		.loc 1 1002 0
 1066 039e 97F89903 		ldrb	r0, [r7, #921]	@ zero_extendqisi2
 1067 03a2 B7F8A813 		ldrh	r1, [r7, #936]
 1068 03a6 07F59A72 		add	r2, r7, #308
 1069 03aa B7F8AA33 		ldrh	r3, [r7, #938]
 1070 03ae FFF7FEFF 		bl	CyWriteRowFull
 1071 03b2 0346     		mov	r3, r0
 1072 03b4 002B     		cmp	r3, #0
 1073 03b6 02D0     		beq	.L69
 1074              		.loc 1 1002 0 is_stmt 0 discriminator 1
 1075 03b8 4FF00A03 		mov	r3, #10
 1076 03bc 01E0     		b	.L70
 1077              	.L69:
 1078              		.loc 1 1002 0 discriminator 2
 1079 03be 4FF00003 		mov	r3, #0
 1080              	.L70:
 1081              		.loc 1 1002 0 discriminator 3
 1082 03c2 87F8AD33 		strb	r3, [r7, #941]
 1083 03c6 03E0     		b	.L71
 1084              	.L67:
1003:.\Generated_Source\PSoC5/BootloaderI2C.c ****                                 ? BootloaderI2C_ERR_ROW \
1004:.\Generated_Source\PSoC5/BootloaderI2C.c ****                                 : CYRET_SUCCESS;
1005:.\Generated_Source\PSoC5/BootloaderI2C.c **** 
1006:.\Generated_Source\PSoC5/BootloaderI2C.c ****                         #endif  /* (CY_PSOC4) */
ARM GAS  C:\Users\bramamu\AppData\Local\Temp\cczceNxl.s 			page 38


1007:.\Generated_Source\PSoC5/BootloaderI2C.c **** 
1008:.\Generated_Source\PSoC5/BootloaderI2C.c ****                     }
1009:.\Generated_Source\PSoC5/BootloaderI2C.c ****                     else
1010:.\Generated_Source\PSoC5/BootloaderI2C.c ****                     {
1011:.\Generated_Source\PSoC5/BootloaderI2C.c ****                         ackCode = BootloaderI2C_ERR_LENGTH;
 1085              		.loc 1 1011 0 is_stmt 1
 1086 03c8 4FF00303 		mov	r3, #3
 1087 03cc 87F8AD33 		strb	r3, [r7, #941]
 1088              	.L71:
1012:.\Generated_Source\PSoC5/BootloaderI2C.c ****                     }
1013:.\Generated_Source\PSoC5/BootloaderI2C.c **** 
1014:.\Generated_Source\PSoC5/BootloaderI2C.c ****                     dataOffset = 0u;
 1089              		.loc 1 1014 0
 1090 03d0 4FF00003 		mov	r3, #0
 1091 03d4 A7F8A833 		strh	r3, [r7, #936]	@ movhi
1015:.\Generated_Source\PSoC5/BootloaderI2C.c ****                 }
1016:.\Generated_Source\PSoC5/BootloaderI2C.c ****                 break;
 1092              		.loc 1 1016 0
 1093 03d8 18E1     		b	.L88
 1094              	.L53:
1017:.\Generated_Source\PSoC5/BootloaderI2C.c **** 
1018:.\Generated_Source\PSoC5/BootloaderI2C.c **** 
1019:.\Generated_Source\PSoC5/BootloaderI2C.c ****             /***************************************************************************
1020:.\Generated_Source\PSoC5/BootloaderI2C.c ****             *   Sync bootloader
1021:.\Generated_Source\PSoC5/BootloaderI2C.c ****             ***************************************************************************/
1022:.\Generated_Source\PSoC5/BootloaderI2C.c ****             #if(0u != BootloaderI2C_CMD_SYNC_BOOTLOADER_AVAIL)
1023:.\Generated_Source\PSoC5/BootloaderI2C.c **** 
1024:.\Generated_Source\PSoC5/BootloaderI2C.c ****             case BootloaderI2C_COMMAND_SYNC:
1025:.\Generated_Source\PSoC5/BootloaderI2C.c **** 
1026:.\Generated_Source\PSoC5/BootloaderI2C.c ****                 if(BootloaderI2C_COMMUNICATION_STATE_ACTIVE == communicationState)
 1095              		.loc 1 1026 0
 1096 03da 97F8A533 		ldrb	r3, [r7, #933]	@ zero_extendqisi2
 1097 03de 012B     		cmp	r3, #1
 1098 03e0 40F01681 		bne	.L89
1027:.\Generated_Source\PSoC5/BootloaderI2C.c ****                 {
1028:.\Generated_Source\PSoC5/BootloaderI2C.c ****                     /* If something failed the host would send this command to reset the bootloader
1029:.\Generated_Source\PSoC5/BootloaderI2C.c ****                     dataOffset = 0u;
 1099              		.loc 1 1029 0
 1100 03e4 4FF00003 		mov	r3, #0
 1101 03e8 A7F8A833 		strh	r3, [r7, #936]	@ movhi
1030:.\Generated_Source\PSoC5/BootloaderI2C.c **** 
1031:.\Generated_Source\PSoC5/BootloaderI2C.c ****                     /* Don't ack the packet, just get ready to accept the next one */
1032:.\Generated_Source\PSoC5/BootloaderI2C.c ****                     continue;
 1102              		.loc 1 1032 0
 1103 03ec 24E1     		b	.L42
 1104              	.L54:
1033:.\Generated_Source\PSoC5/BootloaderI2C.c ****                 }
1034:.\Generated_Source\PSoC5/BootloaderI2C.c ****                 break;
1035:.\Generated_Source\PSoC5/BootloaderI2C.c **** 
1036:.\Generated_Source\PSoC5/BootloaderI2C.c ****             #endif  /* (0u != BootloaderI2C_CMD_SYNC_BOOTLOADER_AVAIL) */
1037:.\Generated_Source\PSoC5/BootloaderI2C.c **** 
1038:.\Generated_Source\PSoC5/BootloaderI2C.c **** 
1039:.\Generated_Source\PSoC5/BootloaderI2C.c ****             /***************************************************************************
1040:.\Generated_Source\PSoC5/BootloaderI2C.c ****             *   Set active application
1041:.\Generated_Source\PSoC5/BootloaderI2C.c ****             ***************************************************************************/
1042:.\Generated_Source\PSoC5/BootloaderI2C.c ****             #if(0u != BootloaderI2C_DUAL_APP_BOOTLOADER)
1043:.\Generated_Source\PSoC5/BootloaderI2C.c **** 
ARM GAS  C:\Users\bramamu\AppData\Local\Temp\cczceNxl.s 			page 39


1044:.\Generated_Source\PSoC5/BootloaderI2C.c ****                 case BootloaderI2C_COMMAND_APP_ACTIVE:
1045:.\Generated_Source\PSoC5/BootloaderI2C.c **** 
1046:.\Generated_Source\PSoC5/BootloaderI2C.c ****                     if((BootloaderI2C_COMMUNICATION_STATE_ACTIVE == communicationState) && (pktSize
1047:.\Generated_Source\PSoC5/BootloaderI2C.c ****                     {
1048:.\Generated_Source\PSoC5/BootloaderI2C.c ****                         if(CYRET_SUCCESS == BootloaderI2C_ValidateBootloadable(btldrData))
1049:.\Generated_Source\PSoC5/BootloaderI2C.c ****                         {
1050:.\Generated_Source\PSoC5/BootloaderI2C.c ****                             uint8 CYDATA idx;
1051:.\Generated_Source\PSoC5/BootloaderI2C.c **** 
1052:.\Generated_Source\PSoC5/BootloaderI2C.c ****                             for(idx = 0u; idx < BootloaderI2C_MAX_NUM_OF_BTLDB; idx++)
1053:.\Generated_Source\PSoC5/BootloaderI2C.c ****                             {
1054:.\Generated_Source\PSoC5/BootloaderI2C.c ****                                 BootloaderI2C_SetFlashByte((uint32) BootloaderI2C_MD_BTLDB_ACTIVE_O
1055:.\Generated_Source\PSoC5/BootloaderI2C.c ****                                                               (uint8 )(idx == btldrData));
1056:.\Generated_Source\PSoC5/BootloaderI2C.c ****                             }
1057:.\Generated_Source\PSoC5/BootloaderI2C.c ****                             BootloaderI2C_activeApp = btldrData;
1058:.\Generated_Source\PSoC5/BootloaderI2C.c ****                             ackCode = CYRET_SUCCESS;
1059:.\Generated_Source\PSoC5/BootloaderI2C.c ****                         }
1060:.\Generated_Source\PSoC5/BootloaderI2C.c ****                         else
1061:.\Generated_Source\PSoC5/BootloaderI2C.c ****                         {
1062:.\Generated_Source\PSoC5/BootloaderI2C.c ****                             ackCode = BootloaderI2C_ERR_APP;
1063:.\Generated_Source\PSoC5/BootloaderI2C.c ****                         }
1064:.\Generated_Source\PSoC5/BootloaderI2C.c ****                     }
1065:.\Generated_Source\PSoC5/BootloaderI2C.c ****                     break;
1066:.\Generated_Source\PSoC5/BootloaderI2C.c **** 
1067:.\Generated_Source\PSoC5/BootloaderI2C.c ****             #endif  /* (0u != BootloaderI2C_DUAL_APP_BOOTLOADER) */
1068:.\Generated_Source\PSoC5/BootloaderI2C.c **** 
1069:.\Generated_Source\PSoC5/BootloaderI2C.c **** 
1070:.\Generated_Source\PSoC5/BootloaderI2C.c ****             /***************************************************************************
1071:.\Generated_Source\PSoC5/BootloaderI2C.c ****             *   Send data
1072:.\Generated_Source\PSoC5/BootloaderI2C.c ****             ***************************************************************************/
1073:.\Generated_Source\PSoC5/BootloaderI2C.c ****             #if (0u != BootloaderI2C_CMD_SEND_DATA_AVAIL)
1074:.\Generated_Source\PSoC5/BootloaderI2C.c **** 
1075:.\Generated_Source\PSoC5/BootloaderI2C.c ****                 case BootloaderI2C_COMMAND_DATA:
1076:.\Generated_Source\PSoC5/BootloaderI2C.c **** 
1077:.\Generated_Source\PSoC5/BootloaderI2C.c ****                     if(BootloaderI2C_COMMUNICATION_STATE_ACTIVE == communicationState)
 1105              		.loc 1 1077 0
 1106 03ee 97F8A533 		ldrb	r3, [r7, #933]	@ zero_extendqisi2
 1107 03f2 012B     		cmp	r3, #1
 1108 03f4 40F00E81 		bne	.L90
1078:.\Generated_Source\PSoC5/BootloaderI2C.c ****                     {
1079:.\Generated_Source\PSoC5/BootloaderI2C.c ****                         /*  Make sure that dataOffset is valid before copying the data */
1080:.\Generated_Source\PSoC5/BootloaderI2C.c ****                         if((dataOffset + pktSize) <= BootloaderI2C_SIZEOF_COMMAND_BUFFER)
 1109              		.loc 1 1080 0
 1110 03f8 B7F8A823 		ldrh	r2, [r7, #936]
 1111 03fc B7F8AA33 		ldrh	r3, [r7, #938]
 1112 0400 D318     		adds	r3, r2, r3
 1113 0402 B3F5967F 		cmp	r3, #300
 1114 0406 1BD8     		bhi	.L74
1081:.\Generated_Source\PSoC5/BootloaderI2C.c ****                         {
1082:.\Generated_Source\PSoC5/BootloaderI2C.c ****                             ackCode = CYRET_SUCCESS;
 1115              		.loc 1 1082 0
 1116 0408 4FF00003 		mov	r3, #0
 1117 040c 87F8AD33 		strb	r3, [r7, #941]
1083:.\Generated_Source\PSoC5/BootloaderI2C.c **** 
1084:.\Generated_Source\PSoC5/BootloaderI2C.c ****                             #if(CY_PSOC3)
1085:.\Generated_Source\PSoC5/BootloaderI2C.c ****                                 (void) memcpy(&dataBuffer[dataOffset],
1086:.\Generated_Source\PSoC5/BootloaderI2C.c ****                                               &packetBuffer[BootloaderI2C_DATA_ADDR],
1087:.\Generated_Source\PSoC5/BootloaderI2C.c ****                                               ( int16 )pktSize);
ARM GAS  C:\Users\bramamu\AppData\Local\Temp\cczceNxl.s 			page 40


1088:.\Generated_Source\PSoC5/BootloaderI2C.c ****                             #else
1089:.\Generated_Source\PSoC5/BootloaderI2C.c ****                                 (void) memcpy(&dataBuffer[dataOffset],
 1118              		.loc 1 1089 0
 1119 0410 B7F8A833 		ldrh	r3, [r7, #936]
 1120 0414 07F59A72 		add	r2, r7, #308
 1121 0418 D118     		adds	r1, r2, r3
 1122 041a B7F8AA33 		ldrh	r3, [r7, #938]
1090:.\Generated_Source\PSoC5/BootloaderI2C.c ****                                               &packetBuffer[BootloaderI2C_DATA_ADDR],
 1123              		.loc 1 1090 0
 1124 041e 07F51872 		add	r2, r7, #608
 1125 0422 02F10402 		add	r2, r2, #4
1089:.\Generated_Source\PSoC5/BootloaderI2C.c ****                                 (void) memcpy(&dataBuffer[dataOffset],
 1126              		.loc 1 1089 0
 1127 0426 0846     		mov	r0, r1
 1128 0428 1146     		mov	r1, r2
 1129 042a 1A46     		mov	r2, r3
 1130 042c FFF7FEFF 		bl	memcpy
1091:.\Generated_Source\PSoC5/BootloaderI2C.c ****                                               pktSize);
1092:.\Generated_Source\PSoC5/BootloaderI2C.c ****                             #endif  /* (CY_PSOC3) */
1093:.\Generated_Source\PSoC5/BootloaderI2C.c **** 
1094:.\Generated_Source\PSoC5/BootloaderI2C.c ****                             dataOffset += pktSize;
 1131              		.loc 1 1094 0
 1132 0430 B7F8A823 		ldrh	r2, [r7, #936]	@ movhi
 1133 0434 B7F8AA33 		ldrh	r3, [r7, #938]	@ movhi
 1134 0438 D318     		adds	r3, r2, r3
 1135 043a A7F8A833 		strh	r3, [r7, #936]	@ movhi
1095:.\Generated_Source\PSoC5/BootloaderI2C.c ****                         }
1096:.\Generated_Source\PSoC5/BootloaderI2C.c ****                         else
1097:.\Generated_Source\PSoC5/BootloaderI2C.c ****                         {
1098:.\Generated_Source\PSoC5/BootloaderI2C.c ****                             ackCode = BootloaderI2C_ERR_LENGTH;
1099:.\Generated_Source\PSoC5/BootloaderI2C.c ****                         }
1100:.\Generated_Source\PSoC5/BootloaderI2C.c ****                     }
1101:.\Generated_Source\PSoC5/BootloaderI2C.c **** 
1102:.\Generated_Source\PSoC5/BootloaderI2C.c ****                     break;
 1136              		.loc 1 1102 0
 1137 043e E9E0     		b	.L90
 1138              	.L74:
1098:.\Generated_Source\PSoC5/BootloaderI2C.c ****                             ackCode = BootloaderI2C_ERR_LENGTH;
 1139              		.loc 1 1098 0
 1140 0440 4FF00303 		mov	r3, #3
 1141 0444 87F8AD33 		strb	r3, [r7, #941]
 1142              		.loc 1 1102 0
 1143 0448 E4E0     		b	.L90
 1144              	.L55:
1103:.\Generated_Source\PSoC5/BootloaderI2C.c **** 
1104:.\Generated_Source\PSoC5/BootloaderI2C.c ****             #endif  /* (0u != BootloaderI2C_CMD_SEND_DATA_AVAIL) */
1105:.\Generated_Source\PSoC5/BootloaderI2C.c **** 
1106:.\Generated_Source\PSoC5/BootloaderI2C.c **** 
1107:.\Generated_Source\PSoC5/BootloaderI2C.c ****             /***************************************************************************
1108:.\Generated_Source\PSoC5/BootloaderI2C.c ****             *   Enter bootloader
1109:.\Generated_Source\PSoC5/BootloaderI2C.c ****             ***************************************************************************/
1110:.\Generated_Source\PSoC5/BootloaderI2C.c ****             case BootloaderI2C_COMMAND_ENTER:
1111:.\Generated_Source\PSoC5/BootloaderI2C.c **** 
1112:.\Generated_Source\PSoC5/BootloaderI2C.c ****                 if(pktSize == 0u)
 1145              		.loc 1 1112 0
 1146 044a B7F8AA33 		ldrh	r3, [r7, #938]
 1147 044e 002B     		cmp	r3, #0
ARM GAS  C:\Users\bramamu\AppData\Local\Temp\cczceNxl.s 			page 41


 1148 0450 40F0E280 		bne	.L91
 1149              	.LBB6:
1113:.\Generated_Source\PSoC5/BootloaderI2C.c ****                 {
1114:.\Generated_Source\PSoC5/BootloaderI2C.c ****                     #if(CY_PSOC3)
1115:.\Generated_Source\PSoC5/BootloaderI2C.c **** 
1116:.\Generated_Source\PSoC5/BootloaderI2C.c ****                         BootloaderI2C_ENTER CYDATA BtldrVersion =
1117:.\Generated_Source\PSoC5/BootloaderI2C.c ****                             {CYSWAP_ENDIAN32(CYDEV_CHIP_JTAG_ID), CYDEV_CHIP_REV_EXPECT, Bootloader
1118:.\Generated_Source\PSoC5/BootloaderI2C.c **** 
1119:.\Generated_Source\PSoC5/BootloaderI2C.c ****                     #else
1120:.\Generated_Source\PSoC5/BootloaderI2C.c **** 
1121:.\Generated_Source\PSoC5/BootloaderI2C.c ****                         BootloaderI2C_ENTER CYDATA BtldrVersion =
 1150              		.loc 1 1121 0
 1151 0454 07F59672 		add	r2, r7, #300
 1152 0458 40F20003 		movw	r3, #:lower16:.LC0
 1153 045c C0F20003 		movt	r3, #:upper16:.LC0
 1154 0460 93E80300 		ldmia	r3, {r0, r1}
 1155 0464 82E80300 		stmia	r2, {r0, r1}
1122:.\Generated_Source\PSoC5/BootloaderI2C.c ****                             {CYDEV_CHIP_JTAG_ID, CYDEV_CHIP_REV_EXPECT, BootloaderI2C_VERSION};
1123:.\Generated_Source\PSoC5/BootloaderI2C.c **** 
1124:.\Generated_Source\PSoC5/BootloaderI2C.c ****                     #endif  /* (CY_PSOC3) */
1125:.\Generated_Source\PSoC5/BootloaderI2C.c **** 
1126:.\Generated_Source\PSoC5/BootloaderI2C.c ****                     communicationState = BootloaderI2C_COMMUNICATION_STATE_ACTIVE;
 1156              		.loc 1 1126 0
 1157 0468 4FF00103 		mov	r3, #1
 1158 046c 87F8A533 		strb	r3, [r7, #933]
1127:.\Generated_Source\PSoC5/BootloaderI2C.c **** 
1128:.\Generated_Source\PSoC5/BootloaderI2C.c ****                     rspSize = sizeof(BootloaderI2C_ENTER);
 1159              		.loc 1 1128 0
 1160 0470 4FF00803 		mov	r3, #8
 1161 0474 A7F8AE33 		strh	r3, [r7, #942]	@ movhi
1129:.\Generated_Source\PSoC5/BootloaderI2C.c **** 
1130:.\Generated_Source\PSoC5/BootloaderI2C.c ****                     #if(CY_PSOC3)
1131:.\Generated_Source\PSoC5/BootloaderI2C.c ****                         (void) memcpy(&packetBuffer[BootloaderI2C_DATA_ADDR],
1132:.\Generated_Source\PSoC5/BootloaderI2C.c ****                                       &BtldrVersion,
1133:.\Generated_Source\PSoC5/BootloaderI2C.c ****                                       ( int16 )rspSize);
1134:.\Generated_Source\PSoC5/BootloaderI2C.c ****                     #else
1135:.\Generated_Source\PSoC5/BootloaderI2C.c ****                         (void) memcpy(&packetBuffer[BootloaderI2C_DATA_ADDR],
 1162              		.loc 1 1135 0
 1163 0478 B7F8AE33 		ldrh	r3, [r7, #942]
 1164 047c 07F51872 		add	r2, r7, #608
 1165 0480 02F10401 		add	r1, r2, #4
1136:.\Generated_Source\PSoC5/BootloaderI2C.c ****                                       &BtldrVersion,
 1166              		.loc 1 1136 0
 1167 0484 07F59672 		add	r2, r7, #300
1135:.\Generated_Source\PSoC5/BootloaderI2C.c ****                         (void) memcpy(&packetBuffer[BootloaderI2C_DATA_ADDR],
 1168              		.loc 1 1135 0
 1169 0488 0846     		mov	r0, r1
 1170 048a 1146     		mov	r1, r2
 1171 048c 1A46     		mov	r2, r3
 1172 048e FFF7FEFF 		bl	memcpy
1137:.\Generated_Source\PSoC5/BootloaderI2C.c ****                                       rspSize);
1138:.\Generated_Source\PSoC5/BootloaderI2C.c ****                     #endif  /* (CY_PSOC3) */
1139:.\Generated_Source\PSoC5/BootloaderI2C.c **** 
1140:.\Generated_Source\PSoC5/BootloaderI2C.c ****                     ackCode = CYRET_SUCCESS;
 1173              		.loc 1 1140 0
 1174 0492 4FF00003 		mov	r3, #0
 1175 0496 87F8AD33 		strb	r3, [r7, #941]
ARM GAS  C:\Users\bramamu\AppData\Local\Temp\cczceNxl.s 			page 42


 1176              	.LBE6:
1141:.\Generated_Source\PSoC5/BootloaderI2C.c ****                 }
1142:.\Generated_Source\PSoC5/BootloaderI2C.c ****                 break;
 1177              		.loc 1 1142 0
 1178 049a BDE0     		b	.L91
 1179              	.L56:
1143:.\Generated_Source\PSoC5/BootloaderI2C.c **** 
1144:.\Generated_Source\PSoC5/BootloaderI2C.c **** 
1145:.\Generated_Source\PSoC5/BootloaderI2C.c ****             /***************************************************************************
1146:.\Generated_Source\PSoC5/BootloaderI2C.c ****             *   Verify row
1147:.\Generated_Source\PSoC5/BootloaderI2C.c ****             ***************************************************************************/
1148:.\Generated_Source\PSoC5/BootloaderI2C.c ****             case BootloaderI2C_COMMAND_VERIFY:
1149:.\Generated_Source\PSoC5/BootloaderI2C.c **** 
1150:.\Generated_Source\PSoC5/BootloaderI2C.c ****                 if((BootloaderI2C_COMMUNICATION_STATE_ACTIVE == communicationState) && (pktSize == 
 1180              		.loc 1 1150 0
 1181 049c 97F8A533 		ldrb	r3, [r7, #933]	@ zero_extendqisi2
 1182 04a0 012B     		cmp	r3, #1
 1183 04a2 40F0BB80 		bne	.L92
 1184              		.loc 1 1150 0 is_stmt 0 discriminator 1
 1185 04a6 B7F8AA33 		ldrh	r3, [r7, #938]
 1186 04aa 032B     		cmp	r3, #3
 1187 04ac 40F0B680 		bne	.L92
 1188              	.LBB7:
1151:.\Generated_Source\PSoC5/BootloaderI2C.c ****                 {
1152:.\Generated_Source\PSoC5/BootloaderI2C.c ****                     /* Get FLASH/EEPROM row number */
1153:.\Generated_Source\PSoC5/BootloaderI2C.c ****                     uint16 CYDATA rowNum = ((uint16)((uint16)packetBuffer[BootloaderI2C_DATA_ADDR +
 1189              		.loc 1 1153 0 is_stmt 1
 1190 04b0 07F51873 		add	r3, r7, #608
 1191 04b4 9B79     		ldrb	r3, [r3, #6]	@ zero_extendqisi2
 1192 04b6 4FEA0323 		lsl	r3, r3, #8
 1193 04ba 9AB2     		uxth	r2, r3
1154:.\Generated_Source\PSoC5/BootloaderI2C.c ****                                                     packetBuffer[BootloaderI2C_DATA_ADDR + 1u];
 1194              		.loc 1 1154 0
 1195 04bc 07F51873 		add	r3, r7, #608
 1196 04c0 5B79     		ldrb	r3, [r3, #5]	@ zero_extendqisi2
1153:.\Generated_Source\PSoC5/BootloaderI2C.c ****                     uint16 CYDATA rowNum = ((uint16)((uint16)packetBuffer[BootloaderI2C_DATA_ADDR +
 1197              		.loc 1 1153 0
 1198 04c2 1343     		orrs	r3, r3, r2
 1199 04c4 A7F89433 		strh	r3, [r7, #916]	@ movhi
1155:.\Generated_Source\PSoC5/BootloaderI2C.c **** 
1156:.\Generated_Source\PSoC5/BootloaderI2C.c ****                     #if(!CY_PSOC4)
1157:.\Generated_Source\PSoC5/BootloaderI2C.c **** 
1158:.\Generated_Source\PSoC5/BootloaderI2C.c ****                         uint32 CYDATA rowAddr;
1159:.\Generated_Source\PSoC5/BootloaderI2C.c ****                         uint8 CYDATA checksum;
1160:.\Generated_Source\PSoC5/BootloaderI2C.c **** 
1161:.\Generated_Source\PSoC5/BootloaderI2C.c ****                         if((btldrData >= BootloaderI2C_FIRST_EE_ARRAYID) &&
 1200              		.loc 1 1161 0
 1201 04c8 97F89933 		ldrb	r3, [r7, #921]	@ zero_extendqisi2
 1202 04cc 3F2B     		cmp	r3, #63
 1203 04ce 14D9     		bls	.L77
1162:.\Generated_Source\PSoC5/BootloaderI2C.c ****                            (btldrData <= BootloaderI2C_LAST_EE_ARRAYID))
 1204              		.loc 1 1162 0 discriminator 1
 1205 04d0 97F89933 		ldrb	r3, [r7, #921]	@ zero_extendqisi2
1161:.\Generated_Source\PSoC5/BootloaderI2C.c ****                         if((btldrData >= BootloaderI2C_FIRST_EE_ARRAYID) &&
 1206              		.loc 1 1161 0 discriminator 1
 1207 04d4 5BB2     		sxtb	r3, r3
 1208 04d6 002B     		cmp	r3, #0
ARM GAS  C:\Users\bramamu\AppData\Local\Temp\cczceNxl.s 			page 43


 1209 04d8 0FDB     		blt	.L77
1163:.\Generated_Source\PSoC5/BootloaderI2C.c ****                         {
1164:.\Generated_Source\PSoC5/BootloaderI2C.c ****                             /* EEPROM */
1165:.\Generated_Source\PSoC5/BootloaderI2C.c ****                             /* Both PSoC 3 and PSoC 5LP architectures have one EEPROM array. */
1166:.\Generated_Source\PSoC5/BootloaderI2C.c ****                             rowAddr = (uint32)rowNum * CYDEV_EEPROM_ROW_SIZE;
 1210              		.loc 1 1166 0
 1211 04da B7F89433 		ldrh	r3, [r7, #916]
 1212 04de 4FEA0313 		lsl	r3, r3, #4
 1213 04e2 C7F89033 		str	r3, [r7, #912]
1167:.\Generated_Source\PSoC5/BootloaderI2C.c **** 
1168:.\Generated_Source\PSoC5/BootloaderI2C.c ****                             checksum = BootloaderI2C_Calc8BitEepromSum(rowAddr, CYDEV_EEPROM_ROW_SI
 1214              		.loc 1 1168 0
 1215 04e6 D7F89003 		ldr	r0, [r7, #912]
 1216 04ea 4FF01001 		mov	r1, #16
 1217 04ee FFF7FEFF 		bl	BootloaderI2C_Calc8BitEepromSum
 1218 04f2 0346     		mov	r3, r0
 1219 04f4 87F8A433 		strb	r3, [r7, #932]
 1220 04f8 13E0     		b	.L78
 1221              	.L77:
1169:.\Generated_Source\PSoC5/BootloaderI2C.c ****                         }
1170:.\Generated_Source\PSoC5/BootloaderI2C.c ****                         else
1171:.\Generated_Source\PSoC5/BootloaderI2C.c ****                         {
1172:.\Generated_Source\PSoC5/BootloaderI2C.c ****                             /* FLASH */
1173:.\Generated_Source\PSoC5/BootloaderI2C.c ****                             rowAddr = ((uint32)btldrData * CYDEV_FLS_SECTOR_SIZE)
 1222              		.loc 1 1173 0
 1223 04fa 97F89933 		ldrb	r3, [r7, #921]	@ zero_extendqisi2
1174:.\Generated_Source\PSoC5/BootloaderI2C.c ****                                        + ((uint32)rowNum * CYDEV_FLS_ROW_SIZE);
 1224              		.loc 1 1174 0
 1225 04fe 4FEA0322 		lsl	r2, r3, #8
 1226 0502 B7F89433 		ldrh	r3, [r7, #916]
 1227 0506 D318     		adds	r3, r2, r3
1173:.\Generated_Source\PSoC5/BootloaderI2C.c ****                             rowAddr = ((uint32)btldrData * CYDEV_FLS_SECTOR_SIZE)
 1228              		.loc 1 1173 0
 1229 0508 4FEA0323 		lsl	r3, r3, #8
 1230 050c C7F89033 		str	r3, [r7, #912]
1175:.\Generated_Source\PSoC5/BootloaderI2C.c **** 
1176:.\Generated_Source\PSoC5/BootloaderI2C.c ****                             checksum = BootloaderI2C_Calc8BitFlashSum(rowAddr, CYDEV_FLS_ROW_SIZE);
 1231              		.loc 1 1176 0
 1232 0510 D7F89003 		ldr	r0, [r7, #912]
 1233 0514 4FF48071 		mov	r1, #256
 1234 0518 FFF7FEFF 		bl	BootloaderI2C_Calc8BitFlashSum
 1235 051c 0346     		mov	r3, r0
 1236 051e 87F8A433 		strb	r3, [r7, #932]
 1237              	.L78:
1177:.\Generated_Source\PSoC5/BootloaderI2C.c ****                         }
1178:.\Generated_Source\PSoC5/BootloaderI2C.c **** 
1179:.\Generated_Source\PSoC5/BootloaderI2C.c ****                     #else
1180:.\Generated_Source\PSoC5/BootloaderI2C.c **** 
1181:.\Generated_Source\PSoC5/BootloaderI2C.c ****                         uint32 CYDATA rowAddr = ((uint32)btldrData * CYDEV_FLS_SECTOR_SIZE)
1182:.\Generated_Source\PSoC5/BootloaderI2C.c ****                                             + ((uint32)rowNum * CYDEV_FLS_ROW_SIZE);
1183:.\Generated_Source\PSoC5/BootloaderI2C.c **** 
1184:.\Generated_Source\PSoC5/BootloaderI2C.c ****                         uint8 CYDATA checksum = BootloaderI2C_Calc8BitFlashSum(rowAddr, CYDEV_FLS_R
1185:.\Generated_Source\PSoC5/BootloaderI2C.c **** 
1186:.\Generated_Source\PSoC5/BootloaderI2C.c ****                     #endif  /* (!CY_PSOC4) */
1187:.\Generated_Source\PSoC5/BootloaderI2C.c **** 
1188:.\Generated_Source\PSoC5/BootloaderI2C.c **** 
1189:.\Generated_Source\PSoC5/BootloaderI2C.c ****                     /* Calculate checksum on data from ECC */
ARM GAS  C:\Users\bramamu\AppData\Local\Temp\cczceNxl.s 			page 44


1190:.\Generated_Source\PSoC5/BootloaderI2C.c ****                     #if(!CY_PSOC4) && (CYDEV_ECC_ENABLE == 0u)
1191:.\Generated_Source\PSoC5/BootloaderI2C.c **** 
1192:.\Generated_Source\PSoC5/BootloaderI2C.c ****                         if(btldrData <= BootloaderI2C_LAST_FLASH_ARRAYID)
 1238              		.loc 1 1192 0
 1239 0522 97F89933 		ldrb	r3, [r7, #921]	@ zero_extendqisi2
 1240 0526 3F2B     		cmp	r3, #63
 1241 0528 27D8     		bhi	.L79
 1242              	.LBB8:
1193:.\Generated_Source\PSoC5/BootloaderI2C.c ****                         {
1194:.\Generated_Source\PSoC5/BootloaderI2C.c ****                             uint16 CYDATA tmpIndex;
1195:.\Generated_Source\PSoC5/BootloaderI2C.c **** 
1196:.\Generated_Source\PSoC5/BootloaderI2C.c ****                             rowAddr = CYDEV_ECC_BASE + ((uint32)btldrData * (CYDEV_FLS_SECTOR_SIZE 
 1243              		.loc 1 1196 0
 1244 052a 97F89933 		ldrb	r3, [r7, #921]	@ zero_extendqisi2
1197:.\Generated_Source\PSoC5/BootloaderI2C.c ****                                         + ((uint32)rowNum * CYDEV_ECC_ROW_SIZE);
 1245              		.loc 1 1197 0
 1246 052e 03F51033 		add	r3, r3, #147456
 1247 0532 4FEA0322 		lsl	r2, r3, #8
 1248 0536 B7F89433 		ldrh	r3, [r7, #916]
 1249 053a D318     		adds	r3, r2, r3
1196:.\Generated_Source\PSoC5/BootloaderI2C.c ****                             rowAddr = CYDEV_ECC_BASE + ((uint32)btldrData * (CYDEV_FLS_SECTOR_SIZE 
 1250              		.loc 1 1196 0
 1251 053c 4FEA4313 		lsl	r3, r3, #5
 1252 0540 C7F89033 		str	r3, [r7, #912]
1198:.\Generated_Source\PSoC5/BootloaderI2C.c **** 
1199:.\Generated_Source\PSoC5/BootloaderI2C.c ****                             for(tmpIndex = 0u; tmpIndex < CYDEV_ECC_ROW_SIZE; tmpIndex++)
 1253              		.loc 1 1199 0
 1254 0544 4FF00003 		mov	r3, #0
 1255 0548 A7F8A233 		strh	r3, [r7, #930]	@ movhi
 1256 054c 11E0     		b	.L80
 1257              	.L81:
1200:.\Generated_Source\PSoC5/BootloaderI2C.c ****                             {
1201:.\Generated_Source\PSoC5/BootloaderI2C.c ****                                 checksum += CY_GET_XTND_REG8((uint8 CYFAR *)(rowAddr + tmpIndex));
 1258              		.loc 1 1201 0 discriminator 2
 1259 054e B7F8A223 		ldrh	r2, [r7, #930]
 1260 0552 D7F89033 		ldr	r3, [r7, #912]
 1261 0556 D318     		adds	r3, r2, r3
 1262 0558 1B78     		ldrb	r3, [r3, #0]
 1263 055a DAB2     		uxtb	r2, r3
 1264 055c 97F8A433 		ldrb	r3, [r7, #932]
 1265 0560 D318     		adds	r3, r2, r3
 1266 0562 87F8A433 		strb	r3, [r7, #932]
1199:.\Generated_Source\PSoC5/BootloaderI2C.c ****                             for(tmpIndex = 0u; tmpIndex < CYDEV_ECC_ROW_SIZE; tmpIndex++)
 1267              		.loc 1 1199 0 discriminator 2
 1268 0566 B7F8A233 		ldrh	r3, [r7, #930]	@ movhi
 1269 056a 03F10103 		add	r3, r3, #1
 1270 056e A7F8A233 		strh	r3, [r7, #930]	@ movhi
 1271              	.L80:
1199:.\Generated_Source\PSoC5/BootloaderI2C.c ****                             for(tmpIndex = 0u; tmpIndex < CYDEV_ECC_ROW_SIZE; tmpIndex++)
 1272              		.loc 1 1199 0 is_stmt 0 discriminator 1
 1273 0572 B7F8A233 		ldrh	r3, [r7, #930]
 1274 0576 1F2B     		cmp	r3, #31
 1275 0578 E9D9     		bls	.L81
 1276              	.L79:
 1277              	.LBE8:
1202:.\Generated_Source\PSoC5/BootloaderI2C.c ****                             }
1203:.\Generated_Source\PSoC5/BootloaderI2C.c ****                         }
ARM GAS  C:\Users\bramamu\AppData\Local\Temp\cczceNxl.s 			page 45


1204:.\Generated_Source\PSoC5/BootloaderI2C.c **** 
1205:.\Generated_Source\PSoC5/BootloaderI2C.c ****                     #endif  /* (!CY_PSOC4) && (CYDEV_ECC_ENABLE == 0u) */
1206:.\Generated_Source\PSoC5/BootloaderI2C.c **** 
1207:.\Generated_Source\PSoC5/BootloaderI2C.c **** 
1208:.\Generated_Source\PSoC5/BootloaderI2C.c ****                     /******************************************************************************
1209:.\Generated_Source\PSoC5/BootloaderI2C.c ****                     * App Verified & App Active are information that is updated in flash at runtime
1210:.\Generated_Source\PSoC5/BootloaderI2C.c ****                     * remove these items from the checksum to allow the host to verify everything i
1211:.\Generated_Source\PSoC5/BootloaderI2C.c ****                     * correct.
1212:.\Generated_Source\PSoC5/BootloaderI2C.c ****                      ******************************************************************************
1213:.\Generated_Source\PSoC5/BootloaderI2C.c ****                     if((BootloaderI2C_MD_FLASH_ARRAY_NUM == btldrData) &&
 1278              		.loc 1 1213 0 is_stmt 1
 1279 057a 97F89933 		ldrb	r3, [r7, #921]	@ zero_extendqisi2
 1280 057e 032B     		cmp	r3, #3
 1281 0580 19D1     		bne	.L82
 1282              		.loc 1 1213 0 is_stmt 0 discriminator 1
 1283 0582 B7F89433 		ldrh	r3, [r7, #916]
 1284 0586 FF2B     		cmp	r3, #255
 1285 0588 15D1     		bne	.L82
1214:.\Generated_Source\PSoC5/BootloaderI2C.c ****                        (BootloaderI2C_CONTAIN_METADATA(rowNum)))
1215:.\Generated_Source\PSoC5/BootloaderI2C.c ****                     {
1216:.\Generated_Source\PSoC5/BootloaderI2C.c ****                         checksum -= BootloaderI2C_MD_BTLDB_ACTIVE_VALUE  (BootloaderI2C_GET_APP_ID(
 1286              		.loc 1 1216 0 is_stmt 1
 1287 058a 4FF6D073 		movw	r3, #65488
 1288 058e C0F20303 		movt	r3, 3
 1289 0592 1B78     		ldrb	r3, [r3, #0]
 1290 0594 DBB2     		uxtb	r3, r3
 1291 0596 97F8A423 		ldrb	r2, [r7, #932]
 1292 059a D31A     		subs	r3, r2, r3
 1293 059c 87F8A433 		strb	r3, [r7, #932]
1217:.\Generated_Source\PSoC5/BootloaderI2C.c ****                         checksum -= BootloaderI2C_MD_BTLDB_VERIFIED_VALUE(BootloaderI2C_GET_APP_ID(
 1294              		.loc 1 1217 0
 1295 05a0 4FF6D173 		movw	r3, #65489
 1296 05a4 C0F20303 		movt	r3, 3
 1297 05a8 1B78     		ldrb	r3, [r3, #0]
 1298 05aa DBB2     		uxtb	r3, r3
 1299 05ac 97F8A423 		ldrb	r2, [r7, #932]
 1300 05b0 D31A     		subs	r3, r2, r3
 1301 05b2 87F8A433 		strb	r3, [r7, #932]
 1302              	.L82:
1218:.\Generated_Source\PSoC5/BootloaderI2C.c ****                     }
1219:.\Generated_Source\PSoC5/BootloaderI2C.c **** 
1220:.\Generated_Source\PSoC5/BootloaderI2C.c ****                     packetBuffer[BootloaderI2C_DATA_ADDR] = (uint8)1u + (uint8)(~checksum);
 1303              		.loc 1 1220 0
 1304 05b6 97F8A433 		ldrb	r3, [r7, #932]
 1305 05ba C3F10003 		rsb	r3, r3, #0
 1306 05be DAB2     		uxtb	r2, r3
 1307 05c0 07F51873 		add	r3, r7, #608
 1308 05c4 1A71     		strb	r2, [r3, #4]
1221:.\Generated_Source\PSoC5/BootloaderI2C.c ****                     ackCode = CYRET_SUCCESS;
 1309              		.loc 1 1221 0
 1310 05c6 4FF00003 		mov	r3, #0
 1311 05ca 87F8AD33 		strb	r3, [r7, #941]
1222:.\Generated_Source\PSoC5/BootloaderI2C.c ****                     rspSize = 1u;
 1312              		.loc 1 1222 0
 1313 05ce 4FF00103 		mov	r3, #1
 1314 05d2 A7F8AE33 		strh	r3, [r7, #942]	@ movhi
 1315              	.LBE7:
ARM GAS  C:\Users\bramamu\AppData\Local\Temp\cczceNxl.s 			page 46


1223:.\Generated_Source\PSoC5/BootloaderI2C.c ****                 }
1224:.\Generated_Source\PSoC5/BootloaderI2C.c ****                 break;
 1316              		.loc 1 1224 0
 1317 05d6 21E0     		b	.L92
 1318              	.L57:
1225:.\Generated_Source\PSoC5/BootloaderI2C.c **** 
1226:.\Generated_Source\PSoC5/BootloaderI2C.c **** 
1227:.\Generated_Source\PSoC5/BootloaderI2C.c ****             /***************************************************************************
1228:.\Generated_Source\PSoC5/BootloaderI2C.c ****             *   Exit bootloader
1229:.\Generated_Source\PSoC5/BootloaderI2C.c ****             ***************************************************************************/
1230:.\Generated_Source\PSoC5/BootloaderI2C.c ****             case BootloaderI2C_COMMAND_EXIT:
1231:.\Generated_Source\PSoC5/BootloaderI2C.c **** 
1232:.\Generated_Source\PSoC5/BootloaderI2C.c ****                 if(CYRET_SUCCESS == BootloaderI2C_ValidateBootloadable(BootloaderI2C_activeApp))
 1319              		.loc 1 1232 0
 1320 05d8 4FF00000 		mov	r0, #0
 1321 05dc FFF7FEFF 		bl	BootloaderI2C_ValidateBootloadable
 1322 05e0 0346     		mov	r3, r0
 1323 05e2 002B     		cmp	r3, #0
 1324 05e4 06D1     		bne	.L83
1233:.\Generated_Source\PSoC5/BootloaderI2C.c ****                 {
1234:.\Generated_Source\PSoC5/BootloaderI2C.c ****                     BootloaderI2C_SET_RUN_TYPE(BootloaderI2C_START_APP);
 1325              		.loc 1 1234 0
 1326 05e6 44F2FA63 		movw	r3, #18170
 1327 05ea C4F20003 		movt	r3, 16384
 1328 05ee 4FF08002 		mov	r2, #128
 1329 05f2 1A70     		strb	r2, [r3, #0]
 1330              	.L83:
1235:.\Generated_Source\PSoC5/BootloaderI2C.c ****                 }
1236:.\Generated_Source\PSoC5/BootloaderI2C.c **** 
1237:.\Generated_Source\PSoC5/BootloaderI2C.c ****                 CySoftwareReset();
 1331              		.loc 1 1237 0
 1332 05f4 FFF7FEFF 		bl	CySoftwareReset
1238:.\Generated_Source\PSoC5/BootloaderI2C.c **** 
1239:.\Generated_Source\PSoC5/BootloaderI2C.c ****                 /* Will never get here */
1240:.\Generated_Source\PSoC5/BootloaderI2C.c ****                 break;
 1333              		.loc 1 1240 0
 1334 05f8 11E0     		b	.L48
 1335              	.L49:
1241:.\Generated_Source\PSoC5/BootloaderI2C.c **** 
1242:.\Generated_Source\PSoC5/BootloaderI2C.c **** 
1243:.\Generated_Source\PSoC5/BootloaderI2C.c ****             /***************************************************************************
1244:.\Generated_Source\PSoC5/BootloaderI2C.c ****             *   Unsupported command
1245:.\Generated_Source\PSoC5/BootloaderI2C.c ****             ***************************************************************************/
1246:.\Generated_Source\PSoC5/BootloaderI2C.c ****             default:
1247:.\Generated_Source\PSoC5/BootloaderI2C.c ****                 ackCode = BootloaderI2C_ERR_CMD;
 1336              		.loc 1 1247 0
 1337 05fa 4FF00503 		mov	r3, #5
 1338 05fe 87F8AD33 		strb	r3, [r7, #941]
1248:.\Generated_Source\PSoC5/BootloaderI2C.c ****                 break;
 1339              		.loc 1 1248 0
 1340 0602 0CE0     		b	.L48
 1341              	.L86:
 751:.\Generated_Source\PSoC5/BootloaderI2C.c ****                 break;
 1342              		.loc 1 751 0
 1343 0604 00BF     		nop
 1344 0606 0AE0     		b	.L48
 1345              	.L87:
ARM GAS  C:\Users\bramamu\AppData\Local\Temp\cczceNxl.s 			page 47


 782:.\Generated_Source\PSoC5/BootloaderI2C.c ****                     break;
 1346              		.loc 1 782 0
 1347 0608 00BF     		nop
 1348 060a 08E0     		b	.L48
 1349              	.L88:
1016:.\Generated_Source\PSoC5/BootloaderI2C.c ****                 break;
 1350              		.loc 1 1016 0
 1351 060c 00BF     		nop
 1352 060e 06E0     		b	.L48
 1353              	.L89:
1034:.\Generated_Source\PSoC5/BootloaderI2C.c ****                 break;
 1354              		.loc 1 1034 0
 1355 0610 00BF     		nop
 1356 0612 04E0     		b	.L48
 1357              	.L90:
1102:.\Generated_Source\PSoC5/BootloaderI2C.c ****                     break;
 1358              		.loc 1 1102 0
 1359 0614 00BF     		nop
 1360 0616 02E0     		b	.L48
 1361              	.L91:
1142:.\Generated_Source\PSoC5/BootloaderI2C.c ****                 break;
 1362              		.loc 1 1142 0
 1363 0618 00BF     		nop
 1364 061a 00E0     		b	.L48
 1365              	.L92:
1224:.\Generated_Source\PSoC5/BootloaderI2C.c ****                 break;
 1366              		.loc 1 1224 0
 1367 061c 00BF     		nop
 1368              	.L48:
 1369              	.LBE3:
1249:.\Generated_Source\PSoC5/BootloaderI2C.c ****             }
1250:.\Generated_Source\PSoC5/BootloaderI2C.c ****         }
1251:.\Generated_Source\PSoC5/BootloaderI2C.c **** 
1252:.\Generated_Source\PSoC5/BootloaderI2C.c ****         /* ?CK the packet and function. */
1253:.\Generated_Source\PSoC5/BootloaderI2C.c ****         (void) BootloaderI2C_WritePacket(ackCode, packetBuffer, rspSize);
 1370              		.loc 1 1253 0
 1371 061e 97F8AD13 		ldrb	r1, [r7, #941]	@ zero_extendqisi2
 1372 0622 07F51872 		add	r2, r7, #608
 1373 0626 B7F8AE33 		ldrh	r3, [r7, #942]
 1374 062a 0846     		mov	r0, r1
 1375 062c 1146     		mov	r1, r2
 1376 062e 1A46     		mov	r2, r3
 1377 0630 FFF7FEFF 		bl	BootloaderI2C_WritePacket
 1378 0634 00E0     		b	.L42
 1379              	.L85:
 657:.\Generated_Source\PSoC5/BootloaderI2C.c ****             continue;
 1380              		.loc 1 657 0
 1381 0636 00BF     		nop
 1382              	.L42:
1254:.\Generated_Source\PSoC5/BootloaderI2C.c **** 
1255:.\Generated_Source\PSoC5/BootloaderI2C.c ****     } while ((0u == timeOut) || (BootloaderI2C_COMMUNICATION_STATE_ACTIVE == communicationState));
 1383              		.loc 1 1255 0
 1384 0638 07F10703 		add	r3, r7, #7
 1385 063c 1B78     		ldrb	r3, [r3, #0]	@ zero_extendqisi2
 1386 063e 002B     		cmp	r3, #0
 1387 0640 3FF4FDAC 		beq	.L84
 1388              		.loc 1 1255 0 is_stmt 0 discriminator 1
ARM GAS  C:\Users\bramamu\AppData\Local\Temp\cczceNxl.s 			page 48


 1389 0644 97F8A533 		ldrb	r3, [r7, #933]	@ zero_extendqisi2
 1390 0648 012B     		cmp	r3, #1
 1391 064a 3FF4F8AC 		beq	.L84
1256:.\Generated_Source\PSoC5/BootloaderI2C.c **** }
 1392              		.loc 1 1256 0 is_stmt 1
 1393 064e 07F56C77 		add	r7, r7, #944
 1394 0652 BD46     		mov	sp, r7
 1395 0654 80BD     		pop	{r7, pc}
 1396              		.cfi_endproc
 1397              	.LFE64:
 1398              		.size	BootloaderI2C_HostLink, .-BootloaderI2C_HostLink
 1399 0656 00BF     		.section	.text.BootloaderI2C_WritePacket,"ax",%progbits
 1400              		.align	2
 1401              		.thumb
 1402              		.thumb_func
 1403              		.type	BootloaderI2C_WritePacket, %function
 1404              	BootloaderI2C_WritePacket:
 1405              	.LFB65:
1257:.\Generated_Source\PSoC5/BootloaderI2C.c **** 
1258:.\Generated_Source\PSoC5/BootloaderI2C.c **** 
1259:.\Generated_Source\PSoC5/BootloaderI2C.c **** /*******************************************************************************
1260:.\Generated_Source\PSoC5/BootloaderI2C.c **** * Function Name: BootloaderI2C_WritePacket
1261:.\Generated_Source\PSoC5/BootloaderI2C.c **** ********************************************************************************
1262:.\Generated_Source\PSoC5/BootloaderI2C.c **** *
1263:.\Generated_Source\PSoC5/BootloaderI2C.c **** * Summary:
1264:.\Generated_Source\PSoC5/BootloaderI2C.c **** *  Creates a bootloader responce packet and transmits it back to the bootloader
1265:.\Generated_Source\PSoC5/BootloaderI2C.c **** *  host application over the already established communications protocol.
1266:.\Generated_Source\PSoC5/BootloaderI2C.c **** *
1267:.\Generated_Source\PSoC5/BootloaderI2C.c **** * Parameters:
1268:.\Generated_Source\PSoC5/BootloaderI2C.c **** *  status:
1269:.\Generated_Source\PSoC5/BootloaderI2C.c **** *      The status code to pass back as the second byte of the packet
1270:.\Generated_Source\PSoC5/BootloaderI2C.c **** *  buffer:
1271:.\Generated_Source\PSoC5/BootloaderI2C.c **** *      The buffer containing the data portion of the packet
1272:.\Generated_Source\PSoC5/BootloaderI2C.c **** *  size:
1273:.\Generated_Source\PSoC5/BootloaderI2C.c **** *      The number of bytes contained within the buffer to pass back
1274:.\Generated_Source\PSoC5/BootloaderI2C.c **** *
1275:.\Generated_Source\PSoC5/BootloaderI2C.c **** * Return:
1276:.\Generated_Source\PSoC5/BootloaderI2C.c **** *   CYRET_SUCCESS if successful.
1277:.\Generated_Source\PSoC5/BootloaderI2C.c **** *   CYRET_UNKNOWN if there was an error tranmitting the packet.
1278:.\Generated_Source\PSoC5/BootloaderI2C.c **** *
1279:.\Generated_Source\PSoC5/BootloaderI2C.c **** *******************************************************************************/
1280:.\Generated_Source\PSoC5/BootloaderI2C.c **** static cystatus BootloaderI2C_WritePacket(uint8 status, uint8 buffer[], uint16 size) CYSMALL \
1281:.\Generated_Source\PSoC5/BootloaderI2C.c ****                                             
1282:.\Generated_Source\PSoC5/BootloaderI2C.c **** {
 1406              		.loc 1 1282 0
 1407              		.cfi_startproc
 1408              		@ args = 0, pretend = 0, frame = 16
 1409              		@ frame_needed = 1, uses_anonymous_args = 0
 1410 0000 80B5     		push	{r7, lr}
 1411              	.LCFI22:
 1412              		.cfi_def_cfa_offset 8
 1413              		.cfi_offset 7, -8
 1414              		.cfi_offset 14, -4
 1415 0002 84B0     		sub	sp, sp, #16
 1416              	.LCFI23:
 1417              		.cfi_def_cfa_offset 24
 1418 0004 00AF     		add	r7, sp, #0
ARM GAS  C:\Users\bramamu\AppData\Local\Temp\cczceNxl.s 			page 49


 1419              	.LCFI24:
 1420              		.cfi_def_cfa_register 7
 1421 0006 3960     		str	r1, [r7, #0]
 1422 0008 1346     		mov	r3, r2
 1423 000a 0246     		mov	r2, r0
 1424 000c FA71     		strb	r2, [r7, #7]
 1425 000e BB80     		strh	r3, [r7, #4]	@ movhi
1283:.\Generated_Source\PSoC5/BootloaderI2C.c ****     uint16 CYDATA checksum;
1284:.\Generated_Source\PSoC5/BootloaderI2C.c **** 
1285:.\Generated_Source\PSoC5/BootloaderI2C.c ****     /* Start of the packet. */
1286:.\Generated_Source\PSoC5/BootloaderI2C.c ****     buffer[BootloaderI2C_SOP_ADDR]      = BootloaderI2C_SOP;
 1426              		.loc 1 1286 0
 1427 0010 3B68     		ldr	r3, [r7, #0]
 1428 0012 4FF00102 		mov	r2, #1
 1429 0016 1A70     		strb	r2, [r3, #0]
1287:.\Generated_Source\PSoC5/BootloaderI2C.c ****     buffer[BootloaderI2C_CMD_ADDR]      = status;
 1430              		.loc 1 1287 0
 1431 0018 3B68     		ldr	r3, [r7, #0]
 1432 001a 03F10103 		add	r3, r3, #1
 1433 001e FA79     		ldrb	r2, [r7, #7]
 1434 0020 1A70     		strb	r2, [r3, #0]
1288:.\Generated_Source\PSoC5/BootloaderI2C.c ****     buffer[BootloaderI2C_SIZE_ADDR]     = LO8(size);
 1435              		.loc 1 1288 0
 1436 0022 3B68     		ldr	r3, [r7, #0]
 1437 0024 03F10203 		add	r3, r3, #2
 1438 0028 BA88     		ldrh	r2, [r7, #4]
 1439 002a D2B2     		uxtb	r2, r2
 1440 002c 1A70     		strb	r2, [r3, #0]
1289:.\Generated_Source\PSoC5/BootloaderI2C.c ****     buffer[BootloaderI2C_SIZE_ADDR + 1u] = HI8(size);
 1441              		.loc 1 1289 0
 1442 002e 3B68     		ldr	r3, [r7, #0]
 1443 0030 03F10303 		add	r3, r3, #3
 1444 0034 BA88     		ldrh	r2, [r7, #4]
 1445 0036 4FEA1222 		lsr	r2, r2, #8
 1446 003a 92B2     		uxth	r2, r2
 1447 003c D2B2     		uxtb	r2, r2
 1448 003e 1A70     		strb	r2, [r3, #0]
1290:.\Generated_Source\PSoC5/BootloaderI2C.c **** 
1291:.\Generated_Source\PSoC5/BootloaderI2C.c ****     /* Compute the checksum. */
1292:.\Generated_Source\PSoC5/BootloaderI2C.c ****     checksum = BootloaderI2C_CalcPacketChecksum(buffer, size + BootloaderI2C_DATA_ADDR);
 1449              		.loc 1 1292 0
 1450 0040 BB88     		ldrh	r3, [r7, #4]
 1451 0042 03F10403 		add	r3, r3, #4
 1452 0046 9BB2     		uxth	r3, r3
 1453 0048 3868     		ldr	r0, [r7, #0]
 1454 004a 1946     		mov	r1, r3
 1455 004c FFF7FEFF 		bl	BootloaderI2C_CalcPacketChecksum
 1456 0050 0346     		mov	r3, r0
 1457 0052 FB81     		strh	r3, [r7, #14]	@ movhi
1293:.\Generated_Source\PSoC5/BootloaderI2C.c **** 
1294:.\Generated_Source\PSoC5/BootloaderI2C.c ****     buffer[BootloaderI2C_CHK_ADDR(size)]     = LO8(checksum);
 1458              		.loc 1 1294 0
 1459 0054 BB88     		ldrh	r3, [r7, #4]
 1460 0056 03F10403 		add	r3, r3, #4
 1461 005a 3A68     		ldr	r2, [r7, #0]
 1462 005c D318     		adds	r3, r2, r3
 1463 005e FA89     		ldrh	r2, [r7, #14]	@ movhi
ARM GAS  C:\Users\bramamu\AppData\Local\Temp\cczceNxl.s 			page 50


 1464 0060 D2B2     		uxtb	r2, r2
 1465 0062 1A70     		strb	r2, [r3, #0]
1295:.\Generated_Source\PSoC5/BootloaderI2C.c ****     buffer[BootloaderI2C_CHK_ADDR(1u + size)] = HI8(checksum);
 1466              		.loc 1 1295 0
 1467 0064 BB88     		ldrh	r3, [r7, #4]
 1468 0066 03F10503 		add	r3, r3, #5
 1469 006a 3A68     		ldr	r2, [r7, #0]
 1470 006c D318     		adds	r3, r2, r3
 1471 006e FA89     		ldrh	r2, [r7, #14]
 1472 0070 4FEA1222 		lsr	r2, r2, #8
 1473 0074 92B2     		uxth	r2, r2
 1474 0076 D2B2     		uxtb	r2, r2
 1475 0078 1A70     		strb	r2, [r3, #0]
1296:.\Generated_Source\PSoC5/BootloaderI2C.c ****     buffer[BootloaderI2C_EOP_ADDR(size)]     = BootloaderI2C_EOP;
 1476              		.loc 1 1296 0
 1477 007a BB88     		ldrh	r3, [r7, #4]
 1478 007c 03F10603 		add	r3, r3, #6
 1479 0080 3A68     		ldr	r2, [r7, #0]
 1480 0082 D318     		adds	r3, r2, r3
 1481 0084 4FF01702 		mov	r2, #23
 1482 0088 1A70     		strb	r2, [r3, #0]
1297:.\Generated_Source\PSoC5/BootloaderI2C.c **** 
1298:.\Generated_Source\PSoC5/BootloaderI2C.c ****     /* Start the packet transmit. */
1299:.\Generated_Source\PSoC5/BootloaderI2C.c ****     return(CyBtldrCommWrite(buffer, size + BootloaderI2C_MIN_PKT_SIZE, &size, 150u));
 1483              		.loc 1 1299 0
 1484 008a BB88     		ldrh	r3, [r7, #4]
 1485 008c 03F10703 		add	r3, r3, #7
 1486 0090 9AB2     		uxth	r2, r3
 1487 0092 07F10403 		add	r3, r7, #4
 1488 0096 3868     		ldr	r0, [r7, #0]
 1489 0098 1146     		mov	r1, r2
 1490 009a 1A46     		mov	r2, r3
 1491 009c 4FF09603 		mov	r3, #150
 1492 00a0 FFF7FEFF 		bl	I2CSlave_CyBtldrCommWrite
 1493 00a4 0346     		mov	r3, r0
1300:.\Generated_Source\PSoC5/BootloaderI2C.c **** }
 1494              		.loc 1 1300 0
 1495 00a6 1846     		mov	r0, r3
 1496 00a8 07F11007 		add	r7, r7, #16
 1497 00ac BD46     		mov	sp, r7
 1498 00ae 80BD     		pop	{r7, pc}
 1499              		.cfi_endproc
 1500              	.LFE65:
 1501              		.size	BootloaderI2C_WritePacket, .-BootloaderI2C_WritePacket
 1502              		.section	.text.BootloaderI2C_SetFlashByte,"ax",%progbits
 1503              		.align	2
 1504              		.global	BootloaderI2C_SetFlashByte
 1505              		.thumb
 1506              		.thumb_func
 1507              		.type	BootloaderI2C_SetFlashByte, %function
 1508              	BootloaderI2C_SetFlashByte:
 1509              	.LFB66:
1301:.\Generated_Source\PSoC5/BootloaderI2C.c **** 
1302:.\Generated_Source\PSoC5/BootloaderI2C.c **** 
1303:.\Generated_Source\PSoC5/BootloaderI2C.c **** /*******************************************************************************
1304:.\Generated_Source\PSoC5/BootloaderI2C.c **** * Function Name: BootloaderI2C_SetFlashByte
1305:.\Generated_Source\PSoC5/BootloaderI2C.c **** ********************************************************************************
ARM GAS  C:\Users\bramamu\AppData\Local\Temp\cczceNxl.s 			page 51


1306:.\Generated_Source\PSoC5/BootloaderI2C.c **** *
1307:.\Generated_Source\PSoC5/BootloaderI2C.c **** * Summary:
1308:.\Generated_Source\PSoC5/BootloaderI2C.c **** *  Writes byte a flash memory location
1309:.\Generated_Source\PSoC5/BootloaderI2C.c **** *
1310:.\Generated_Source\PSoC5/BootloaderI2C.c **** * Parameters:
1311:.\Generated_Source\PSoC5/BootloaderI2C.c **** *  address:
1312:.\Generated_Source\PSoC5/BootloaderI2C.c **** *      Address in Flash memory where data will be written
1313:.\Generated_Source\PSoC5/BootloaderI2C.c **** *
1314:.\Generated_Source\PSoC5/BootloaderI2C.c **** *  runType:
1315:.\Generated_Source\PSoC5/BootloaderI2C.c **** *      Byte to be written
1316:.\Generated_Source\PSoC5/BootloaderI2C.c **** *
1317:.\Generated_Source\PSoC5/BootloaderI2C.c **** * Return:
1318:.\Generated_Source\PSoC5/BootloaderI2C.c **** *  None
1319:.\Generated_Source\PSoC5/BootloaderI2C.c **** *
1320:.\Generated_Source\PSoC5/BootloaderI2C.c **** *******************************************************************************/
1321:.\Generated_Source\PSoC5/BootloaderI2C.c **** void BootloaderI2C_SetFlashByte(uint32 address, uint8 runType) 
1322:.\Generated_Source\PSoC5/BootloaderI2C.c **** {
 1510              		.loc 1 1322 0
 1511              		.cfi_startproc
 1512              		@ args = 0, pretend = 0, frame = 280
 1513              		@ frame_needed = 1, uses_anonymous_args = 0
 1514 0000 80B5     		push	{r7, lr}
 1515              	.LCFI25:
 1516              		.cfi_def_cfa_offset 8
 1517              		.cfi_offset 7, -8
 1518              		.cfi_offset 14, -4
 1519 0002 C6B0     		sub	sp, sp, #280
 1520              	.LCFI26:
 1521              		.cfi_def_cfa_offset 288
 1522 0004 00AF     		add	r7, sp, #0
 1523              	.LCFI27:
 1524              		.cfi_def_cfa_register 7
 1525 0006 07F10403 		add	r3, r7, #4
 1526 000a 1860     		str	r0, [r3, #0]
 1527 000c 0A46     		mov	r2, r1
 1528 000e 07F10303 		add	r3, r7, #3
 1529 0012 1A70     		strb	r2, [r3, #0]
1323:.\Generated_Source\PSoC5/BootloaderI2C.c ****     uint32 flsAddr = address - CYDEV_FLASH_BASE;
 1530              		.loc 1 1323 0
 1531 0014 07F10403 		add	r3, r7, #4
 1532 0018 1B68     		ldr	r3, [r3, #0]
 1533 001a C7F81031 		str	r3, [r7, #272]
1324:.\Generated_Source\PSoC5/BootloaderI2C.c ****     uint8  rowData[CYDEV_FLS_ROW_SIZE];
1325:.\Generated_Source\PSoC5/BootloaderI2C.c **** 
1326:.\Generated_Source\PSoC5/BootloaderI2C.c ****     #if !(CY_PSOC4)
1327:.\Generated_Source\PSoC5/BootloaderI2C.c ****         uint8 arrayId = ( uint8 )(flsAddr / CYDEV_FLS_SECTOR_SIZE);
 1534              		.loc 1 1327 0
 1535 001e D7F81031 		ldr	r3, [r7, #272]
 1536 0022 4FEA1343 		lsr	r3, r3, #16
 1537 0026 87F80F31 		strb	r3, [r7, #271]
1328:.\Generated_Source\PSoC5/BootloaderI2C.c ****     #endif  /* !(CY_PSOC4) */
1329:.\Generated_Source\PSoC5/BootloaderI2C.c **** 
1330:.\Generated_Source\PSoC5/BootloaderI2C.c ****     uint16 rowNum = ( uint16 )((flsAddr % CYDEV_FLS_SECTOR_SIZE) / CYDEV_FLS_ROW_SIZE);
 1538              		.loc 1 1330 0
 1539 002a D7F81031 		ldr	r3, [r7, #272]
 1540 002e 4FEA0343 		lsl	r3, r3, #16
 1541 0032 4FEA1343 		lsr	r3, r3, #16
ARM GAS  C:\Users\bramamu\AppData\Local\Temp\cczceNxl.s 			page 52


 1542 0036 4FEA1323 		lsr	r3, r3, #8
 1543 003a A7F80C31 		strh	r3, [r7, #268]	@ movhi
1331:.\Generated_Source\PSoC5/BootloaderI2C.c ****     uint32 baseAddr = address - (address % CYDEV_FLS_ROW_SIZE);
 1544              		.loc 1 1331 0
 1545 003e 07F10403 		add	r3, r7, #4
 1546 0042 1B68     		ldr	r3, [r3, #0]
 1547 0044 23F0FF03 		bic	r3, r3, #255
 1548 0048 C7F80831 		str	r3, [r7, #264]
1332:.\Generated_Source\PSoC5/BootloaderI2C.c ****     uint16 idx;
1333:.\Generated_Source\PSoC5/BootloaderI2C.c **** 
1334:.\Generated_Source\PSoC5/BootloaderI2C.c ****     for(idx = 0u; idx < CYDEV_FLS_ROW_SIZE; idx++)
 1549              		.loc 1 1334 0
 1550 004c 4FF00003 		mov	r3, #0
 1551 0050 A7F81631 		strh	r3, [r7, #278]	@ movhi
 1552 0054 10E0     		b	.L96
 1553              	.L97:
1335:.\Generated_Source\PSoC5/BootloaderI2C.c ****     {
1336:.\Generated_Source\PSoC5/BootloaderI2C.c ****         rowData[idx] = BootloaderI2C_GET_CODE_BYTE(baseAddr + idx);
 1554              		.loc 1 1336 0 discriminator 2
 1555 0056 B7F81631 		ldrh	r3, [r7, #278]
 1556 005a B7F81611 		ldrh	r1, [r7, #278]
 1557 005e D7F80821 		ldr	r2, [r7, #264]
 1558 0062 8A18     		adds	r2, r1, r2
 1559 0064 1178     		ldrb	r1, [r2, #0]	@ zero_extendqisi2
 1560 0066 07F10802 		add	r2, r7, #8
 1561 006a D154     		strb	r1, [r2, r3]
1334:.\Generated_Source\PSoC5/BootloaderI2C.c ****     for(idx = 0u; idx < CYDEV_FLS_ROW_SIZE; idx++)
 1562              		.loc 1 1334 0 discriminator 2
 1563 006c B7F81631 		ldrh	r3, [r7, #278]	@ movhi
 1564 0070 03F10103 		add	r3, r3, #1
 1565 0074 A7F81631 		strh	r3, [r7, #278]	@ movhi
 1566              	.L96:
1334:.\Generated_Source\PSoC5/BootloaderI2C.c ****     for(idx = 0u; idx < CYDEV_FLS_ROW_SIZE; idx++)
 1567              		.loc 1 1334 0 is_stmt 0 discriminator 1
 1568 0078 B7F81631 		ldrh	r3, [r7, #278]
 1569 007c FF2B     		cmp	r3, #255
 1570 007e EAD9     		bls	.L97
1337:.\Generated_Source\PSoC5/BootloaderI2C.c ****     }
1338:.\Generated_Source\PSoC5/BootloaderI2C.c **** 
1339:.\Generated_Source\PSoC5/BootloaderI2C.c ****     rowData[address % CYDEV_FLS_ROW_SIZE] = runType;
 1571              		.loc 1 1339 0 is_stmt 1
 1572 0080 07F10403 		add	r3, r7, #4
 1573 0084 1B68     		ldr	r3, [r3, #0]
 1574 0086 DBB2     		uxtb	r3, r3
 1575 0088 07F10802 		add	r2, r7, #8
 1576 008c 07F10301 		add	r1, r7, #3
 1577 0090 0978     		ldrb	r1, [r1, #0]
 1578 0092 D154     		strb	r1, [r2, r3]
1340:.\Generated_Source\PSoC5/BootloaderI2C.c **** 
1341:.\Generated_Source\PSoC5/BootloaderI2C.c ****     #if(CY_PSOC4)
1342:.\Generated_Source\PSoC5/BootloaderI2C.c ****         (void) CySysFlashWriteRow((uint32) rowNum, rowData);
1343:.\Generated_Source\PSoC5/BootloaderI2C.c ****     #else
1344:.\Generated_Source\PSoC5/BootloaderI2C.c ****         (void) CyWriteRowData(arrayId, rowNum, rowData);
 1579              		.loc 1 1344 0
 1580 0094 97F80F11 		ldrb	r1, [r7, #271]	@ zero_extendqisi2
 1581 0098 B7F80C21 		ldrh	r2, [r7, #268]
 1582 009c 07F10803 		add	r3, r7, #8
ARM GAS  C:\Users\bramamu\AppData\Local\Temp\cczceNxl.s 			page 53


 1583 00a0 0846     		mov	r0, r1
 1584 00a2 1146     		mov	r1, r2
 1585 00a4 1A46     		mov	r2, r3
 1586 00a6 FFF7FEFF 		bl	CyWriteRowData
1345:.\Generated_Source\PSoC5/BootloaderI2C.c ****     #endif  /* (CY_PSOC4) */
1346:.\Generated_Source\PSoC5/BootloaderI2C.c **** }
 1587              		.loc 1 1346 0
 1588 00aa 07F58C77 		add	r7, r7, #280
 1589 00ae BD46     		mov	sp, r7
 1590 00b0 80BD     		pop	{r7, pc}
 1591              		.cfi_endproc
 1592              	.LFE66:
 1593              		.size	BootloaderI2C_SetFlashByte, .-BootloaderI2C_SetFlashByte
 1594 00b2 00BF     		.section	.text.BootloaderI2C_GetMetadata,"ax",%progbits
 1595              		.align	2
 1596              		.thumb
 1597              		.thumb_func
 1598              		.type	BootloaderI2C_GetMetadata, %function
 1599              	BootloaderI2C_GetMetadata:
 1600              	.LFB67:
1347:.\Generated_Source\PSoC5/BootloaderI2C.c **** 
1348:.\Generated_Source\PSoC5/BootloaderI2C.c **** 
1349:.\Generated_Source\PSoC5/BootloaderI2C.c **** /*******************************************************************************
1350:.\Generated_Source\PSoC5/BootloaderI2C.c **** * Function Name: BootloaderI2C_GetMetadata
1351:.\Generated_Source\PSoC5/BootloaderI2C.c **** ********************************************************************************
1352:.\Generated_Source\PSoC5/BootloaderI2C.c **** *
1353:.\Generated_Source\PSoC5/BootloaderI2C.c **** * Summary:
1354:.\Generated_Source\PSoC5/BootloaderI2C.c **** *  Returns value of the multi-byte field.
1355:.\Generated_Source\PSoC5/BootloaderI2C.c **** *
1356:.\Generated_Source\PSoC5/BootloaderI2C.c **** * Parameters:
1357:.\Generated_Source\PSoC5/BootloaderI2C.c **** *  fieldName:
1358:.\Generated_Source\PSoC5/BootloaderI2C.c **** *   The field to get data from:
1359:.\Generated_Source\PSoC5/BootloaderI2C.c **** *     BootloaderI2C_GET_METADATA_BTLDB_ADDR
1360:.\Generated_Source\PSoC5/BootloaderI2C.c **** *     BootloaderI2C_GET_METADATA_BTLDR_LAST_ROW
1361:.\Generated_Source\PSoC5/BootloaderI2C.c **** *     BootloaderI2C_GET_METADATA_BTLDB_LENGTH
1362:.\Generated_Source\PSoC5/BootloaderI2C.c **** *     BootloaderI2C_GET_METADATA_BTLDR_APP_VERSION
1363:.\Generated_Source\PSoC5/BootloaderI2C.c **** *     BootloaderI2C_GET_METADATA_BTLDB_APP_VERSION
1364:.\Generated_Source\PSoC5/BootloaderI2C.c **** *     BootloaderI2C_GET_METADATA_BTLDB_APP_ID
1365:.\Generated_Source\PSoC5/BootloaderI2C.c **** *     BootloaderI2C_GET_METADATA_BTLDB_APP_CUST_ID
1366:.\Generated_Source\PSoC5/BootloaderI2C.c **** *
1367:.\Generated_Source\PSoC5/BootloaderI2C.c **** *  appId:
1368:.\Generated_Source\PSoC5/BootloaderI2C.c **** *   Number of the bootlodable application.
1369:.\Generated_Source\PSoC5/BootloaderI2C.c **** *
1370:.\Generated_Source\PSoC5/BootloaderI2C.c **** * Return:
1371:.\Generated_Source\PSoC5/BootloaderI2C.c **** *  None
1372:.\Generated_Source\PSoC5/BootloaderI2C.c **** *
1373:.\Generated_Source\PSoC5/BootloaderI2C.c **** *******************************************************************************/
1374:.\Generated_Source\PSoC5/BootloaderI2C.c **** static uint32 BootloaderI2C_GetMetadata(uint8 fieldName, uint8 appId)
1375:.\Generated_Source\PSoC5/BootloaderI2C.c **** {
 1601              		.loc 1 1375 0
 1602              		.cfi_startproc
 1603              		@ args = 0, pretend = 0, frame = 24
 1604              		@ frame_needed = 1, uses_anonymous_args = 0
 1605 0000 80B5     		push	{r7, lr}
 1606              	.LCFI28:
 1607              		.cfi_def_cfa_offset 8
 1608              		.cfi_offset 7, -8
ARM GAS  C:\Users\bramamu\AppData\Local\Temp\cczceNxl.s 			page 54


 1609              		.cfi_offset 14, -4
 1610 0002 86B0     		sub	sp, sp, #24
 1611              	.LCFI29:
 1612              		.cfi_def_cfa_offset 32
 1613 0004 00AF     		add	r7, sp, #0
 1614              	.LCFI30:
 1615              		.cfi_def_cfa_register 7
 1616 0006 0246     		mov	r2, r0
 1617 0008 0B46     		mov	r3, r1
 1618 000a FA71     		strb	r2, [r7, #7]
 1619 000c BB71     		strb	r3, [r7, #6]
1376:.\Generated_Source\PSoC5/BootloaderI2C.c ****     uint32 fieldPtr;
1377:.\Generated_Source\PSoC5/BootloaderI2C.c ****     uint8  fieldSize = 2u;
 1620              		.loc 1 1377 0
 1621 000e 4FF00203 		mov	r3, #2
 1622 0012 FB74     		strb	r3, [r7, #19]
1378:.\Generated_Source\PSoC5/BootloaderI2C.c ****     uint32 result;
1379:.\Generated_Source\PSoC5/BootloaderI2C.c **** 
1380:.\Generated_Source\PSoC5/BootloaderI2C.c ****     switch (fieldName)
 1623              		.loc 1 1380 0
 1624 0014 FB79     		ldrb	r3, [r7, #7]	@ zero_extendqisi2
 1625 0016 03F1FF33 		add	r3, r3, #-1
 1626 001a 062B     		cmp	r3, #6
 1627 001c 74D8     		bhi	.L99
 1628 001e 01A2     		adr	r2, .L107
 1629 0020 52F823F0 		ldr	pc, [r2, r3, lsl #2]
 1630              		.align	2
 1631              	.L107:
 1632 0024 7B000000 		.word	.L100+1
 1633 0028 9B000000 		.word	.L101+1
 1634 002c B5000000 		.word	.L102+1
 1635 0030 61000000 		.word	.L103+1
 1636 0034 D5000000 		.word	.L104+1
 1637 0038 EF000000 		.word	.L105+1
 1638 003c 41000000 		.word	.L106+1
 1639              	.L106:
1381:.\Generated_Source\PSoC5/BootloaderI2C.c ****     {
1382:.\Generated_Source\PSoC5/BootloaderI2C.c ****     case BootloaderI2C_GET_METADATA_BTLDB_APP_CUST_ID:
1383:.\Generated_Source\PSoC5/BootloaderI2C.c ****         fieldPtr  = BootloaderI2C_MD_BTLDB_APP_CUST_ID_OFFSET(appId);
 1640              		.loc 1 1383 0
 1641 0040 BA79     		ldrb	r2, [r7, #6]	@ zero_extendqisi2
 1642 0042 1346     		mov	r3, r2
 1643 0044 4FEA0363 		lsl	r3, r3, #24
 1644 0048 9B1A     		subs	r3, r3, r2
 1645 004a 4FEA0323 		lsl	r3, r3, #8
 1646 004e 03F57F33 		add	r3, r3, #261120
 1647 0052 03F57673 		add	r3, r3, #984
 1648 0056 7B61     		str	r3, [r7, #20]
1384:.\Generated_Source\PSoC5/BootloaderI2C.c ****         fieldSize = 4u;
 1649              		.loc 1 1384 0
 1650 0058 4FF00403 		mov	r3, #4
 1651 005c FB74     		strb	r3, [r7, #19]
1385:.\Generated_Source\PSoC5/BootloaderI2C.c ****         break;
 1652              		.loc 1 1385 0
 1653 005e 5BE0     		b	.L108
 1654              	.L103:
1386:.\Generated_Source\PSoC5/BootloaderI2C.c **** 
ARM GAS  C:\Users\bramamu\AppData\Local\Temp\cczceNxl.s 			page 55


1387:.\Generated_Source\PSoC5/BootloaderI2C.c ****     case BootloaderI2C_GET_METADATA_BTLDR_APP_VERSION:
1388:.\Generated_Source\PSoC5/BootloaderI2C.c ****         fieldPtr  = BootloaderI2C_MD_BTLDR_APP_VERSION_OFFSET(appId);
 1655              		.loc 1 1388 0
 1656 0060 BA79     		ldrb	r2, [r7, #6]	@ zero_extendqisi2
 1657 0062 1346     		mov	r3, r2
 1658 0064 4FEA0363 		lsl	r3, r3, #24
 1659 0068 9B1A     		subs	r3, r3, r2
 1660 006a 4FEA0323 		lsl	r3, r3, #8
 1661 006e 03F57F33 		add	r3, r3, #261120
 1662 0072 03F2D233 		addw	r3, r3, #978
 1663 0076 7B61     		str	r3, [r7, #20]
1389:.\Generated_Source\PSoC5/BootloaderI2C.c ****         break;
 1664              		.loc 1 1389 0
 1665 0078 4EE0     		b	.L108
 1666              	.L100:
1390:.\Generated_Source\PSoC5/BootloaderI2C.c **** 
1391:.\Generated_Source\PSoC5/BootloaderI2C.c ****     case BootloaderI2C_GET_METADATA_BTLDB_ADDR:
1392:.\Generated_Source\PSoC5/BootloaderI2C.c ****         fieldPtr  = BootloaderI2C_MD_BTLDB_ADDR_OFFSET(appId);
 1667              		.loc 1 1392 0
 1668 007a BA79     		ldrb	r2, [r7, #6]	@ zero_extendqisi2
 1669 007c 1346     		mov	r3, r2
 1670 007e 4FEA0363 		lsl	r3, r3, #24
 1671 0082 9B1A     		subs	r3, r3, r2
 1672 0084 4FEA0323 		lsl	r3, r3, #8
 1673 0088 03F57F33 		add	r3, r3, #261120
 1674 008c 03F2C133 		addw	r3, r3, #961
 1675 0090 7B61     		str	r3, [r7, #20]
1393:.\Generated_Source\PSoC5/BootloaderI2C.c ****     #if(!CY_PSOC3)
1394:.\Generated_Source\PSoC5/BootloaderI2C.c ****         fieldSize = 4u;
 1676              		.loc 1 1394 0
 1677 0092 4FF00403 		mov	r3, #4
 1678 0096 FB74     		strb	r3, [r7, #19]
1395:.\Generated_Source\PSoC5/BootloaderI2C.c ****     #endif  /* (!CY_PSOC3) */
1396:.\Generated_Source\PSoC5/BootloaderI2C.c ****         break;
 1679              		.loc 1 1396 0
 1680 0098 3EE0     		b	.L108
 1681              	.L101:
1397:.\Generated_Source\PSoC5/BootloaderI2C.c **** 
1398:.\Generated_Source\PSoC5/BootloaderI2C.c ****     case BootloaderI2C_GET_METADATA_BTLDR_LAST_ROW:
1399:.\Generated_Source\PSoC5/BootloaderI2C.c ****         fieldPtr  = BootloaderI2C_MD_BTLDR_LAST_ROW_OFFSET(appId);
 1682              		.loc 1 1399 0
 1683 009a BA79     		ldrb	r2, [r7, #6]	@ zero_extendqisi2
 1684 009c 1346     		mov	r3, r2
 1685 009e 4FEA0363 		lsl	r3, r3, #24
 1686 00a2 9B1A     		subs	r3, r3, r2
 1687 00a4 4FEA0323 		lsl	r3, r3, #8
 1688 00a8 03F57F33 		add	r3, r3, #261120
 1689 00ac 03F2C533 		addw	r3, r3, #965
 1690 00b0 7B61     		str	r3, [r7, #20]
1400:.\Generated_Source\PSoC5/BootloaderI2C.c ****         break;
 1691              		.loc 1 1400 0
 1692 00b2 31E0     		b	.L108
 1693              	.L102:
1401:.\Generated_Source\PSoC5/BootloaderI2C.c **** 
1402:.\Generated_Source\PSoC5/BootloaderI2C.c ****     case BootloaderI2C_GET_METADATA_BTLDB_LENGTH:
1403:.\Generated_Source\PSoC5/BootloaderI2C.c ****         fieldPtr  = BootloaderI2C_MD_BTLDB_LENGTH_OFFSET(appId);
 1694              		.loc 1 1403 0
ARM GAS  C:\Users\bramamu\AppData\Local\Temp\cczceNxl.s 			page 56


 1695 00b4 BA79     		ldrb	r2, [r7, #6]	@ zero_extendqisi2
 1696 00b6 1346     		mov	r3, r2
 1697 00b8 4FEA0363 		lsl	r3, r3, #24
 1698 00bc 9B1A     		subs	r3, r3, r2
 1699 00be 4FEA0323 		lsl	r3, r3, #8
 1700 00c2 03F57F33 		add	r3, r3, #261120
 1701 00c6 03F2C933 		addw	r3, r3, #969
 1702 00ca 7B61     		str	r3, [r7, #20]
1404:.\Generated_Source\PSoC5/BootloaderI2C.c ****     #if(!CY_PSOC3)
1405:.\Generated_Source\PSoC5/BootloaderI2C.c ****         fieldSize = 4u;
 1703              		.loc 1 1405 0
 1704 00cc 4FF00403 		mov	r3, #4
 1705 00d0 FB74     		strb	r3, [r7, #19]
1406:.\Generated_Source\PSoC5/BootloaderI2C.c ****     #endif  /* (!CY_PSOC3) */
1407:.\Generated_Source\PSoC5/BootloaderI2C.c ****         break;
 1706              		.loc 1 1407 0
 1707 00d2 21E0     		b	.L108
 1708              	.L104:
1408:.\Generated_Source\PSoC5/BootloaderI2C.c **** 
1409:.\Generated_Source\PSoC5/BootloaderI2C.c ****     case BootloaderI2C_GET_METADATA_BTLDB_APP_VERSION:
1410:.\Generated_Source\PSoC5/BootloaderI2C.c ****         fieldPtr  = BootloaderI2C_MD_BTLDB_APP_VERSION_OFFSET(appId);
 1709              		.loc 1 1410 0
 1710 00d4 BA79     		ldrb	r2, [r7, #6]	@ zero_extendqisi2
 1711 00d6 1346     		mov	r3, r2
 1712 00d8 4FEA0363 		lsl	r3, r3, #24
 1713 00dc 9B1A     		subs	r3, r3, r2
 1714 00de 4FEA0323 		lsl	r3, r3, #8
 1715 00e2 03F57F33 		add	r3, r3, #261120
 1716 00e6 03F2D633 		addw	r3, r3, #982
 1717 00ea 7B61     		str	r3, [r7, #20]
1411:.\Generated_Source\PSoC5/BootloaderI2C.c ****         break;
 1718              		.loc 1 1411 0
 1719 00ec 14E0     		b	.L108
 1720              	.L105:
1412:.\Generated_Source\PSoC5/BootloaderI2C.c **** 
1413:.\Generated_Source\PSoC5/BootloaderI2C.c ****     case BootloaderI2C_GET_METADATA_BTLDB_APP_ID:
1414:.\Generated_Source\PSoC5/BootloaderI2C.c ****         fieldPtr  = BootloaderI2C_MD_BTLDB_APP_ID_OFFSET(appId);
 1721              		.loc 1 1414 0
 1722 00ee BA79     		ldrb	r2, [r7, #6]	@ zero_extendqisi2
 1723 00f0 1346     		mov	r3, r2
 1724 00f2 4FEA0363 		lsl	r3, r3, #24
 1725 00f6 9B1A     		subs	r3, r3, r2
 1726 00f8 4FEA0323 		lsl	r3, r3, #8
 1727 00fc 03F57F33 		add	r3, r3, #261120
 1728 0100 03F57573 		add	r3, r3, #980
 1729 0104 7B61     		str	r3, [r7, #20]
1415:.\Generated_Source\PSoC5/BootloaderI2C.c ****         break;
 1730              		.loc 1 1415 0
 1731 0106 07E0     		b	.L108
 1732              	.L99:
1416:.\Generated_Source\PSoC5/BootloaderI2C.c **** 
1417:.\Generated_Source\PSoC5/BootloaderI2C.c ****     default:
1418:.\Generated_Source\PSoC5/BootloaderI2C.c ****         /* Should never be here */
1419:.\Generated_Source\PSoC5/BootloaderI2C.c ****         CYASSERT(0u != 0u);
 1733              		.loc 1 1419 0 discriminator 1
 1734 0108 4FF00000 		mov	r0, #0
 1735 010c FFF7FEFF 		bl	CyHalt
ARM GAS  C:\Users\bramamu\AppData\Local\Temp\cczceNxl.s 			page 57


1420:.\Generated_Source\PSoC5/BootloaderI2C.c ****         fieldPtr  = 0u;
 1736              		.loc 1 1420 0 discriminator 1
 1737 0110 4FF00003 		mov	r3, #0
 1738 0114 7B61     		str	r3, [r7, #20]
1421:.\Generated_Source\PSoC5/BootloaderI2C.c ****         break;
 1739              		.loc 1 1421 0
 1740 0116 00BF     		nop
 1741              	.L108:
1422:.\Generated_Source\PSoC5/BootloaderI2C.c ****     }
1423:.\Generated_Source\PSoC5/BootloaderI2C.c **** 
1424:.\Generated_Source\PSoC5/BootloaderI2C.c **** 
1425:.\Generated_Source\PSoC5/BootloaderI2C.c ****     /* Read all fields as big-endian */
1426:.\Generated_Source\PSoC5/BootloaderI2C.c ****     if (2u == fieldSize)
 1742              		.loc 1 1426 0
 1743 0118 FB7C     		ldrb	r3, [r7, #19]	@ zero_extendqisi2
 1744 011a 022B     		cmp	r3, #2
 1745 011c 0ED1     		bne	.L109
1427:.\Generated_Source\PSoC5/BootloaderI2C.c ****     {
1428:.\Generated_Source\PSoC5/BootloaderI2C.c ****         result =  (uint32) CY_GET_XTND_REG8((volatile uint8 *)(fieldPtr + 1u));
 1746              		.loc 1 1428 0
 1747 011e 7B69     		ldr	r3, [r7, #20]
 1748 0120 03F10103 		add	r3, r3, #1
 1749 0124 1B78     		ldrb	r3, [r3, #0]
 1750 0126 DBB2     		uxtb	r3, r3
 1751 0128 FB60     		str	r3, [r7, #12]
1429:.\Generated_Source\PSoC5/BootloaderI2C.c ****         result |= (uint32) CY_GET_XTND_REG8((volatile uint8 *) fieldPtr      ) <<  8u;
 1752              		.loc 1 1429 0
 1753 012a 7B69     		ldr	r3, [r7, #20]
 1754 012c 1B78     		ldrb	r3, [r3, #0]
 1755 012e DBB2     		uxtb	r3, r3
 1756 0130 4FEA0323 		lsl	r3, r3, #8
 1757 0134 FA68     		ldr	r2, [r7, #12]
 1758 0136 1343     		orrs	r3, r3, r2
 1759 0138 FB60     		str	r3, [r7, #12]
 1760 013a 21E0     		b	.L110
 1761              	.L109:
1430:.\Generated_Source\PSoC5/BootloaderI2C.c ****     }
1431:.\Generated_Source\PSoC5/BootloaderI2C.c ****     else
1432:.\Generated_Source\PSoC5/BootloaderI2C.c ****     {
1433:.\Generated_Source\PSoC5/BootloaderI2C.c ****         result =  (uint32) CY_GET_XTND_REG8((volatile uint8 *)(fieldPtr + 3u));
 1762              		.loc 1 1433 0
 1763 013c 7B69     		ldr	r3, [r7, #20]
 1764 013e 03F10303 		add	r3, r3, #3
 1765 0142 1B78     		ldrb	r3, [r3, #0]
 1766 0144 DBB2     		uxtb	r3, r3
 1767 0146 FB60     		str	r3, [r7, #12]
1434:.\Generated_Source\PSoC5/BootloaderI2C.c ****         result |= (uint32) CY_GET_XTND_REG8((volatile uint8 *)(fieldPtr + 2u)) <<  8u;
 1768              		.loc 1 1434 0
 1769 0148 7B69     		ldr	r3, [r7, #20]
 1770 014a 03F10203 		add	r3, r3, #2
 1771 014e 1B78     		ldrb	r3, [r3, #0]
 1772 0150 DBB2     		uxtb	r3, r3
 1773 0152 4FEA0323 		lsl	r3, r3, #8
 1774 0156 FA68     		ldr	r2, [r7, #12]
 1775 0158 1343     		orrs	r3, r3, r2
 1776 015a FB60     		str	r3, [r7, #12]
1435:.\Generated_Source\PSoC5/BootloaderI2C.c ****         result |= (uint32) CY_GET_XTND_REG8((volatile uint8 *)(fieldPtr + 1u)) << 16u;
ARM GAS  C:\Users\bramamu\AppData\Local\Temp\cczceNxl.s 			page 58


 1777              		.loc 1 1435 0
 1778 015c 7B69     		ldr	r3, [r7, #20]
 1779 015e 03F10103 		add	r3, r3, #1
 1780 0162 1B78     		ldrb	r3, [r3, #0]
 1781 0164 DBB2     		uxtb	r3, r3
 1782 0166 4FEA0343 		lsl	r3, r3, #16
 1783 016a FA68     		ldr	r2, [r7, #12]
 1784 016c 1343     		orrs	r3, r3, r2
 1785 016e FB60     		str	r3, [r7, #12]
1436:.\Generated_Source\PSoC5/BootloaderI2C.c ****         result |= (uint32) CY_GET_XTND_REG8((volatile uint8 *)(fieldPtr     )) << 24u;
 1786              		.loc 1 1436 0
 1787 0170 7B69     		ldr	r3, [r7, #20]
 1788 0172 1B78     		ldrb	r3, [r3, #0]
 1789 0174 DBB2     		uxtb	r3, r3
 1790 0176 4FEA0363 		lsl	r3, r3, #24
 1791 017a FA68     		ldr	r2, [r7, #12]
 1792 017c 1343     		orrs	r3, r3, r2
 1793 017e FB60     		str	r3, [r7, #12]
 1794              	.L110:
1437:.\Generated_Source\PSoC5/BootloaderI2C.c ****     }
1438:.\Generated_Source\PSoC5/BootloaderI2C.c **** 
1439:.\Generated_Source\PSoC5/BootloaderI2C.c ****     /* Following fields should be little-endian */
1440:.\Generated_Source\PSoC5/BootloaderI2C.c **** #if(!CY_PSOC3)
1441:.\Generated_Source\PSoC5/BootloaderI2C.c ****     switch (fieldName)
 1795              		.loc 1 1441 0
 1796 0180 FB79     		ldrb	r3, [r7, #7]	@ zero_extendqisi2
 1797 0182 022B     		cmp	r3, #2
 1798 0184 04D0     		beq	.L113
 1799 0186 032B     		cmp	r3, #3
 1800 0188 0FD0     		beq	.L112
 1801 018a 012B     		cmp	r3, #1
 1802 018c 0DD0     		beq	.L112
 1803 018e 21E0     		b	.L116
 1804              	.L113:
1442:.\Generated_Source\PSoC5/BootloaderI2C.c ****     {
1443:.\Generated_Source\PSoC5/BootloaderI2C.c ****     case BootloaderI2C_GET_METADATA_BTLDR_LAST_ROW:
1444:.\Generated_Source\PSoC5/BootloaderI2C.c ****         result = CYSWAP_ENDIAN16(result);
 1805              		.loc 1 1444 0
 1806 0190 FB68     		ldr	r3, [r7, #12]
 1807 0192 9BB2     		uxth	r3, r3
 1808 0194 4FEA0323 		lsl	r3, r3, #8
 1809 0198 9AB2     		uxth	r2, r3
 1810 019a FB68     		ldr	r3, [r7, #12]
 1811 019c 4FEA1323 		lsr	r3, r3, #8
 1812 01a0 9BB2     		uxth	r3, r3
 1813 01a2 1343     		orrs	r3, r3, r2
 1814 01a4 9BB2     		uxth	r3, r3
 1815 01a6 FB60     		str	r3, [r7, #12]
1445:.\Generated_Source\PSoC5/BootloaderI2C.c ****         break;
 1816              		.loc 1 1445 0
 1817 01a8 15E0     		b	.L114
 1818              	.L112:
1446:.\Generated_Source\PSoC5/BootloaderI2C.c **** 
1447:.\Generated_Source\PSoC5/BootloaderI2C.c ****     case BootloaderI2C_GET_METADATA_BTLDB_ADDR:
1448:.\Generated_Source\PSoC5/BootloaderI2C.c ****     case BootloaderI2C_GET_METADATA_BTLDB_LENGTH:
1449:.\Generated_Source\PSoC5/BootloaderI2C.c ****         result = CYSWAP_ENDIAN32(result);
 1819              		.loc 1 1449 0
ARM GAS  C:\Users\bramamu\AppData\Local\Temp\cczceNxl.s 			page 59


 1820 01aa FB68     		ldr	r3, [r7, #12]
 1821 01ac 4FEA1362 		lsr	r2, r3, #24
 1822 01b0 FB68     		ldr	r3, [r7, #12]
 1823 01b2 03F47F03 		and	r3, r3, #16711680
 1824 01b6 4FEA1323 		lsr	r3, r3, #8
 1825 01ba 1A43     		orrs	r2, r2, r3
 1826 01bc FB68     		ldr	r3, [r7, #12]
 1827 01be 03F47F43 		and	r3, r3, #65280
 1828 01c2 4FEA0323 		lsl	r3, r3, #8
 1829 01c6 1A43     		orrs	r2, r2, r3
 1830 01c8 FB68     		ldr	r3, [r7, #12]
 1831 01ca 4FEA0363 		lsl	r3, r3, #24
 1832 01ce 1343     		orrs	r3, r3, r2
 1833 01d0 FB60     		str	r3, [r7, #12]
1450:.\Generated_Source\PSoC5/BootloaderI2C.c ****         break;
 1834              		.loc 1 1450 0
 1835 01d2 00E0     		b	.L114
 1836              	.L116:
1451:.\Generated_Source\PSoC5/BootloaderI2C.c **** 
1452:.\Generated_Source\PSoC5/BootloaderI2C.c ****     default:
1453:.\Generated_Source\PSoC5/BootloaderI2C.c ****         break;
 1837              		.loc 1 1453 0
 1838 01d4 00BF     		nop
 1839              	.L114:
1454:.\Generated_Source\PSoC5/BootloaderI2C.c ****     }
1455:.\Generated_Source\PSoC5/BootloaderI2C.c **** 
1456:.\Generated_Source\PSoC5/BootloaderI2C.c **** #endif  /* (!CY_PSOC3) */
1457:.\Generated_Source\PSoC5/BootloaderI2C.c **** 
1458:.\Generated_Source\PSoC5/BootloaderI2C.c ****     return (result);
 1840              		.loc 1 1458 0
 1841 01d6 FB68     		ldr	r3, [r7, #12]
1459:.\Generated_Source\PSoC5/BootloaderI2C.c **** }
 1842              		.loc 1 1459 0
 1843 01d8 1846     		mov	r0, r3
 1844 01da 07F11807 		add	r7, r7, #24
 1845 01de BD46     		mov	sp, r7
 1846 01e0 80BD     		pop	{r7, pc}
 1847              		.cfi_endproc
 1848              	.LFE67:
 1849              		.size	BootloaderI2C_GetMetadata, .-BootloaderI2C_GetMetadata
 1850 01e2 00BF     		.text
 1851              	.Letext0:
 1852              		.file 2 "c:\\program files (x86)\\cypress\\psoc creator\\3.0\\psoc creator\\import\\gnu_cs\\arm\\4
 1853              		.file 3 ".\\Generated_Source\\PSoC5\\cytypes.h"
 1854              		.file 4 ".\\Generated_Source\\PSoC5\\BootloaderI2C_PVT.h"
 1855              		.file 5 "./Generated_Source/PSoC5/core_cm3.h"
 1856              		.section	.debug_info,"",%progbits
 1857              	.Ldebug_info0:
 1858 0000 BF060000 		.4byte	0x6bf
 1859 0004 0200     		.2byte	0x2
 1860 0006 00000000 		.4byte	.Ldebug_abbrev0
 1861 000a 04       		.byte	0x4
 1862 000b 01       		.uleb128 0x1
 1863 000c FA010000 		.4byte	.LASF80
 1864 0010 01       		.byte	0x1
 1865 0011 F8020000 		.4byte	.LASF81
 1866 0015 E9000000 		.4byte	.LASF82
ARM GAS  C:\Users\bramamu\AppData\Local\Temp\cczceNxl.s 			page 60


 1867 0019 00000000 		.4byte	.Ldebug_ranges0+0
 1868 001d 00000000 		.4byte	0
 1869 0021 00000000 		.4byte	0
 1870 0025 00000000 		.4byte	.Ldebug_line0
 1871 0029 02       		.uleb128 0x2
 1872 002a 01       		.byte	0x1
 1873 002b 06       		.byte	0x6
 1874 002c AD020000 		.4byte	.LASF0
 1875 0030 02       		.uleb128 0x2
 1876 0031 01       		.byte	0x1
 1877 0032 08       		.byte	0x8
 1878 0033 8B020000 		.4byte	.LASF1
 1879 0037 02       		.uleb128 0x2
 1880 0038 02       		.byte	0x2
 1881 0039 05       		.byte	0x5
 1882 003a 62000000 		.4byte	.LASF2
 1883 003e 02       		.uleb128 0x2
 1884 003f 02       		.byte	0x2
 1885 0040 07       		.byte	0x7
 1886 0041 42030000 		.4byte	.LASF3
 1887 0045 03       		.uleb128 0x3
 1888 0046 B9020000 		.4byte	.LASF9
 1889 004a 02       		.byte	0x2
 1890 004b 4F       		.byte	0x4f
 1891 004c 50000000 		.4byte	0x50
 1892 0050 02       		.uleb128 0x2
 1893 0051 04       		.byte	0x4
 1894 0052 05       		.byte	0x5
 1895 0053 8A030000 		.4byte	.LASF4
 1896 0057 02       		.uleb128 0x2
 1897 0058 04       		.byte	0x4
 1898 0059 07       		.byte	0x7
 1899 005a 11040000 		.4byte	.LASF5
 1900 005e 02       		.uleb128 0x2
 1901 005f 08       		.byte	0x8
 1902 0060 05       		.byte	0x5
 1903 0061 80010000 		.4byte	.LASF6
 1904 0065 02       		.uleb128 0x2
 1905 0066 08       		.byte	0x8
 1906 0067 07       		.byte	0x7
 1907 0068 C1020000 		.4byte	.LASF7
 1908 006c 04       		.uleb128 0x4
 1909 006d 04       		.byte	0x4
 1910 006e 05       		.byte	0x5
 1911 006f 696E7400 		.ascii	"int\000"
 1912 0073 02       		.uleb128 0x2
 1913 0074 04       		.byte	0x4
 1914 0075 07       		.byte	0x7
 1915 0076 E9040000 		.4byte	.LASF8
 1916 007a 03       		.uleb128 0x3
 1917 007b 41010000 		.4byte	.LASF10
 1918 007f 03       		.byte	0x3
 1919 0080 5B       		.byte	0x5b
 1920 0081 30000000 		.4byte	0x30
 1921 0085 03       		.uleb128 0x3
 1922 0086 E2000000 		.4byte	.LASF11
 1923 008a 03       		.byte	0x3
ARM GAS  C:\Users\bramamu\AppData\Local\Temp\cczceNxl.s 			page 61


 1924 008b 5C       		.byte	0x5c
 1925 008c 3E000000 		.4byte	0x3e
 1926 0090 03       		.uleb128 0x3
 1927 0091 05040000 		.4byte	.LASF12
 1928 0095 03       		.byte	0x3
 1929 0096 5D       		.byte	0x5d
 1930 0097 57000000 		.4byte	0x57
 1931 009b 02       		.uleb128 0x2
 1932 009c 04       		.byte	0x4
 1933 009d 04       		.byte	0x4
 1934 009e 7A010000 		.4byte	.LASF13
 1935 00a2 02       		.uleb128 0x2
 1936 00a3 08       		.byte	0x8
 1937 00a4 04       		.byte	0x4
 1938 00a5 2B040000 		.4byte	.LASF14
 1939 00a9 02       		.uleb128 0x2
 1940 00aa 01       		.byte	0x1
 1941 00ab 08       		.byte	0x8
 1942 00ac 85030000 		.4byte	.LASF15
 1943 00b0 03       		.uleb128 0x3
 1944 00b1 A4020000 		.4byte	.LASF16
 1945 00b5 03       		.byte	0x3
 1946 00b6 E8       		.byte	0xe8
 1947 00b7 57000000 		.4byte	0x57
 1948 00bb 03       		.uleb128 0x3
 1949 00bc 0C040000 		.4byte	.LASF17
 1950 00c0 03       		.byte	0x3
 1951 00c1 F0       		.byte	0xf0
 1952 00c2 C6000000 		.4byte	0xc6
 1953 00c6 05       		.uleb128 0x5
 1954 00c7 7A000000 		.4byte	0x7a
 1955 00cb 06       		.uleb128 0x6
 1956 00cc 08       		.byte	0x8
 1957 00cd 04       		.byte	0x4
 1958 00ce 15       		.byte	0x15
 1959 00cf FE000000 		.4byte	0xfe
 1960 00d3 07       		.uleb128 0x7
 1961 00d4 42000000 		.4byte	.LASF18
 1962 00d8 04       		.byte	0x4
 1963 00d9 17       		.byte	0x17
 1964 00da 90000000 		.4byte	0x90
 1965 00de 02       		.byte	0x2
 1966 00df 23       		.byte	0x23
 1967 00e0 00       		.uleb128 0
 1968 00e1 07       		.uleb128 0x7
 1969 00e2 B9040000 		.4byte	.LASF19
 1970 00e6 04       		.byte	0x4
 1971 00e7 18       		.byte	0x18
 1972 00e8 7A000000 		.4byte	0x7a
 1973 00ec 02       		.byte	0x2
 1974 00ed 23       		.byte	0x23
 1975 00ee 04       		.uleb128 0x4
 1976 00ef 07       		.uleb128 0x7
 1977 00f0 68010000 		.4byte	.LASF20
 1978 00f4 04       		.byte	0x4
 1979 00f5 19       		.byte	0x19
 1980 00f6 FE000000 		.4byte	0xfe
ARM GAS  C:\Users\bramamu\AppData\Local\Temp\cczceNxl.s 			page 62


 1981 00fa 02       		.byte	0x2
 1982 00fb 23       		.byte	0x23
 1983 00fc 05       		.uleb128 0x5
 1984 00fd 00       		.byte	0
 1985 00fe 08       		.uleb128 0x8
 1986 00ff 7A000000 		.4byte	0x7a
 1987 0103 0E010000 		.4byte	0x10e
 1988 0107 09       		.uleb128 0x9
 1989 0108 0E010000 		.4byte	0x10e
 1990 010c 02       		.byte	0x2
 1991 010d 00       		.byte	0
 1992 010e 02       		.uleb128 0x2
 1993 010f 04       		.byte	0x4
 1994 0110 07       		.byte	0x7
 1995 0111 74000000 		.4byte	.LASF21
 1996 0115 03       		.uleb128 0x3
 1997 0116 06000000 		.4byte	.LASF22
 1998 011a 04       		.byte	0x4
 1999 011b 1B       		.byte	0x1b
 2000 011c CB000000 		.4byte	0xcb
 2001 0120 0A       		.uleb128 0xa
 2002 0121 47010000 		.4byte	.LASF25
 2003 0125 01       		.byte	0x1
 2004 0126 6E       		.byte	0x6e
 2005 0127 01       		.byte	0x1
 2006 0128 85000000 		.4byte	0x85
 2007 012c 00000000 		.4byte	.LFB56
 2008 0130 4A000000 		.4byte	.LFE56
 2009 0134 00000000 		.4byte	.LLST0
 2010 0138 01       		.byte	0x1
 2011 0139 68010000 		.4byte	0x168
 2012 013d 0B       		.uleb128 0xb
 2013 013e FE030000 		.4byte	.LASF23
 2014 0142 01       		.byte	0x1
 2015 0143 6E       		.byte	0x6e
 2016 0144 68010000 		.4byte	0x168
 2017 0148 02       		.byte	0x2
 2018 0149 91       		.byte	0x91
 2019 014a 6C       		.sleb128 -20
 2020 014b 0B       		.uleb128 0xb
 2021 014c 32040000 		.4byte	.LASF24
 2022 0150 01       		.byte	0x1
 2023 0151 6E       		.byte	0x6e
 2024 0152 85000000 		.4byte	0x85
 2025 0156 02       		.byte	0x2
 2026 0157 91       		.byte	0x91
 2027 0158 6A       		.sleb128 -22
 2028 0159 0C       		.uleb128 0xc
 2029 015a 73756D00 		.ascii	"sum\000"
 2030 015e 01       		.byte	0x1
 2031 015f 9D       		.byte	0x9d
 2032 0160 85000000 		.4byte	0x85
 2033 0164 02       		.byte	0x2
 2034 0165 91       		.byte	0x91
 2035 0166 76       		.sleb128 -10
 2036 0167 00       		.byte	0
 2037 0168 0D       		.uleb128 0xd
ARM GAS  C:\Users\bramamu\AppData\Local\Temp\cczceNxl.s 			page 63


 2038 0169 04       		.byte	0x4
 2039 016a 6E010000 		.4byte	0x16e
 2040 016e 0E       		.uleb128 0xe
 2041 016f 7A000000 		.4byte	0x7a
 2042 0173 0A       		.uleb128 0xa
 2043 0174 86000000 		.4byte	.LASF26
 2044 0178 01       		.byte	0x1
 2045 0179 BD       		.byte	0xbd
 2046 017a 01       		.byte	0x1
 2047 017b 7A000000 		.4byte	0x7a
 2048 017f 00000000 		.4byte	.LFB57
 2049 0183 3C000000 		.4byte	.LFE57
 2050 0187 38000000 		.4byte	.LLST1
 2051 018b 01       		.byte	0x1
 2052 018c BB010000 		.4byte	0x1bb
 2053 0190 0B       		.uleb128 0xb
 2054 0191 6E020000 		.4byte	.LASF27
 2055 0195 01       		.byte	0x1
 2056 0196 BD       		.byte	0xbd
 2057 0197 90000000 		.4byte	0x90
 2058 019b 02       		.byte	0x2
 2059 019c 91       		.byte	0x91
 2060 019d 6C       		.sleb128 -20
 2061 019e 0B       		.uleb128 0xb
 2062 019f 32040000 		.4byte	.LASF24
 2063 01a3 01       		.byte	0x1
 2064 01a4 BD       		.byte	0xbd
 2065 01a5 90000000 		.4byte	0x90
 2066 01a9 02       		.byte	0x2
 2067 01aa 91       		.byte	0x91
 2068 01ab 68       		.sleb128 -24
 2069 01ac 0C       		.uleb128 0xc
 2070 01ad 73756D00 		.ascii	"sum\000"
 2071 01b1 01       		.byte	0x1
 2072 01b2 C0       		.byte	0xc0
 2073 01b3 7A000000 		.4byte	0x7a
 2074 01b7 02       		.byte	0x2
 2075 01b8 91       		.byte	0x91
 2076 01b9 77       		.sleb128 -9
 2077 01ba 00       		.byte	0
 2078 01bb 0A       		.uleb128 0xa
 2079 01bc DE030000 		.4byte	.LASF28
 2080 01c0 01       		.byte	0x1
 2081 01c1 E0       		.byte	0xe0
 2082 01c2 01       		.byte	0x1
 2083 01c3 7A000000 		.4byte	0x7a
 2084 01c7 00000000 		.4byte	.LFB58
 2085 01cb 44000000 		.4byte	.LFE58
 2086 01cf 70000000 		.4byte	.LLST2
 2087 01d3 01       		.byte	0x1
 2088 01d4 03020000 		.4byte	0x203
 2089 01d8 0B       		.uleb128 0xb
 2090 01d9 6E020000 		.4byte	.LASF27
 2091 01dd 01       		.byte	0x1
 2092 01de E0       		.byte	0xe0
 2093 01df 90000000 		.4byte	0x90
 2094 01e3 02       		.byte	0x2
ARM GAS  C:\Users\bramamu\AppData\Local\Temp\cczceNxl.s 			page 64


 2095 01e4 91       		.byte	0x91
 2096 01e5 6C       		.sleb128 -20
 2097 01e6 0B       		.uleb128 0xb
 2098 01e7 32040000 		.4byte	.LASF24
 2099 01eb 01       		.byte	0x1
 2100 01ec E0       		.byte	0xe0
 2101 01ed 90000000 		.4byte	0x90
 2102 01f1 02       		.byte	0x2
 2103 01f2 91       		.byte	0x91
 2104 01f3 68       		.sleb128 -24
 2105 01f4 0C       		.uleb128 0xc
 2106 01f5 73756D00 		.ascii	"sum\000"
 2107 01f9 01       		.byte	0x1
 2108 01fa E3       		.byte	0xe3
 2109 01fb 7A000000 		.4byte	0x7a
 2110 01ff 02       		.byte	0x2
 2111 0200 91       		.byte	0x91
 2112 0201 77       		.sleb128 -9
 2113 0202 00       		.byte	0
 2114 0203 0F       		.uleb128 0xf
 2115 0204 01       		.byte	0x1
 2116 0205 D7010000 		.4byte	.LASF62
 2117 0209 01       		.byte	0x1
 2118 020a 1001     		.2byte	0x110
 2119 020c 01       		.byte	0x1
 2120 020d 00000000 		.4byte	.LFB59
 2121 0211 EA000000 		.4byte	.LFE59
 2122 0215 A8000000 		.4byte	.LLST3
 2123 0219 01       		.byte	0x1
 2124 021a 4D020000 		.4byte	0x24d
 2125 021e 10       		.uleb128 0x10
 2126 021f EB010000 		.4byte	.LASF29
 2127 0223 01       		.byte	0x1
 2128 0224 1301     		.2byte	0x113
 2129 0226 7A000000 		.4byte	0x7a
 2130 022a 02       		.byte	0x2
 2131 022b 91       		.byte	0x91
 2132 022c 77       		.sleb128 -9
 2133 022d 10       		.uleb128 0x10
 2134 022e C2040000 		.4byte	.LASF30
 2135 0232 01       		.byte	0x1
 2136 0233 1701     		.2byte	0x117
 2137 0235 4D020000 		.4byte	0x24d
 2138 0239 03       		.byte	0x3
 2139 023a 91       		.byte	0x91
 2140 023b D07D     		.sleb128 -304
 2141 023d 10       		.uleb128 0x10
 2142 023e 27000000 		.4byte	.LASF31
 2143 0242 01       		.byte	0x1
 2144 0243 1A01     		.2byte	0x11a
 2145 0245 B0000000 		.4byte	0xb0
 2146 0249 02       		.byte	0x2
 2147 024a 91       		.byte	0x91
 2148 024b 70       		.sleb128 -16
 2149 024c 00       		.byte	0
 2150 024d 08       		.uleb128 0x8
 2151 024e 7A000000 		.4byte	0x7a
ARM GAS  C:\Users\bramamu\AppData\Local\Temp\cczceNxl.s 			page 65


 2152 0252 5E020000 		.4byte	0x25e
 2153 0256 11       		.uleb128 0x11
 2154 0257 0E010000 		.4byte	0x10e
 2155 025b 1F01     		.2byte	0x11f
 2156 025d 00       		.byte	0
 2157 025e 12       		.uleb128 0x12
 2158 025f 37040000 		.4byte	.LASF83
 2159 0263 01       		.byte	0x1
 2160 0264 8901     		.2byte	0x189
 2161 0266 01       		.byte	0x1
 2162 0267 00000000 		.4byte	.LFB60
 2163 026b 18000000 		.4byte	.LFE60
 2164 026f E2000000 		.4byte	.LLST4
 2165 0273 01       		.byte	0x1
 2166 0274 13       		.uleb128 0x13
 2167 0275 01       		.byte	0x1
 2168 0276 E4020000 		.4byte	.LASF84
 2169 027a 01       		.byte	0x1
 2170 027b A301     		.2byte	0x1a3
 2171 027d 01       		.byte	0x1
 2172 027e 00000000 		.4byte	.LFB61
 2173 0282 4E000000 		.4byte	.LFE61
 2174 0286 0E010000 		.4byte	.LLST5
 2175 028a 01       		.byte	0x1
 2176 028b 14       		.uleb128 0x14
 2177 028c 00050000 		.4byte	.LASF37
 2178 0290 01       		.byte	0x1
 2179 0291 D601     		.2byte	0x1d6
 2180 0293 01       		.byte	0x1
 2181 0294 00000000 		.4byte	.LFB62
 2182 0298 02000000 		.4byte	.LFE62
 2183 029c 02       		.byte	0x2
 2184 029d 7D       		.byte	0x7d
 2185 029e 00       		.sleb128 0
 2186 029f 01       		.byte	0x1
 2187 02a0 B3020000 		.4byte	0x2b3
 2188 02a4 15       		.uleb128 0x15
 2189 02a5 4C000000 		.4byte	.LASF32
 2190 02a9 01       		.byte	0x1
 2191 02aa D601     		.2byte	0x1d6
 2192 02ac 90000000 		.4byte	0x90
 2193 02b0 01       		.byte	0x1
 2194 02b1 50       		.byte	0x50
 2195 02b2 00       		.byte	0
 2196 02b3 16       		.uleb128 0x16
 2197 02b4 55030000 		.4byte	.LASF33
 2198 02b8 01       		.byte	0x1
 2199 02b9 F501     		.2byte	0x1f5
 2200 02bb 01       		.byte	0x1
 2201 02bc B0000000 		.4byte	0xb0
 2202 02c0 00000000 		.4byte	.LFB63
 2203 02c4 24010000 		.4byte	.LFE63
 2204 02c8 3A010000 		.4byte	.LLST6
 2205 02cc 01       		.byte	0x1
 2206 02cd 36030000 		.4byte	0x336
 2207 02d1 15       		.uleb128 0x15
 2208 02d2 1A000000 		.4byte	.LASF34
ARM GAS  C:\Users\bramamu\AppData\Local\Temp\cczceNxl.s 			page 66


 2209 02d6 01       		.byte	0x1
 2210 02d7 F501     		.2byte	0x1f5
 2211 02d9 7A000000 		.4byte	0x7a
 2212 02dd 02       		.byte	0x2
 2213 02de 91       		.byte	0x91
 2214 02df 5F       		.sleb128 -33
 2215 02e0 17       		.uleb128 0x17
 2216 02e1 69647800 		.ascii	"idx\000"
 2217 02e5 01       		.byte	0x1
 2218 02e6 F801     		.2byte	0x1f8
 2219 02e8 90000000 		.4byte	0x90
 2220 02ec 02       		.byte	0x2
 2221 02ed 91       		.byte	0x91
 2222 02ee 6C       		.sleb128 -20
 2223 02ef 17       		.uleb128 0x17
 2224 02f0 656E6400 		.ascii	"end\000"
 2225 02f4 01       		.byte	0x1
 2226 02f5 FA01     		.2byte	0x1fa
 2227 02f7 90000000 		.4byte	0x90
 2228 02fb 02       		.byte	0x2
 2229 02fc 91       		.byte	0x91
 2230 02fd 64       		.sleb128 -28
 2231 02fe 10       		.uleb128 0x10
 2232 02ff 00000000 		.4byte	.LASF35
 2233 0303 01       		.byte	0x1
 2234 0304 FE01     		.2byte	0x1fe
 2235 0306 7A000000 		.4byte	0x7a
 2236 030a 02       		.byte	0x2
 2237 030b 91       		.byte	0x91
 2238 030c 6B       		.sleb128 -21
 2239 030d 10       		.uleb128 0x10
 2240 030e EB010000 		.4byte	.LASF29
 2241 0312 01       		.byte	0x1
 2242 0313 FF01     		.2byte	0x1ff
 2243 0315 7A000000 		.4byte	0x7a
 2244 0319 02       		.byte	0x2
 2245 031a 91       		.byte	0x91
 2246 031b 6A       		.sleb128 -22
 2247 031c 18       		.uleb128 0x18
 2248 031d 58000000 		.4byte	.LBB2
 2249 0321 78000000 		.4byte	.LBE2
 2250 0325 10       		.uleb128 0x10
 2251 0326 BB010000 		.4byte	.LASF36
 2252 032a 01       		.byte	0x1
 2253 032b 1902     		.2byte	0x219
 2254 032d 7A000000 		.4byte	0x7a
 2255 0331 02       		.byte	0x2
 2256 0332 91       		.byte	0x91
 2257 0333 63       		.sleb128 -29
 2258 0334 00       		.byte	0
 2259 0335 00       		.byte	0
 2260 0336 19       		.uleb128 0x19
 2261 0337 74020000 		.4byte	.LASF38
 2262 033b 01       		.byte	0x1
 2263 033c 6202     		.2byte	0x262
 2264 033e 01       		.byte	0x1
 2265 033f 00000000 		.4byte	.LFB64
ARM GAS  C:\Users\bramamu\AppData\Local\Temp\cczceNxl.s 			page 67


 2266 0343 56060000 		.4byte	.LFE64
 2267 0347 72010000 		.4byte	.LLST7
 2268 034b 01       		.byte	0x1
 2269 034c D9040000 		.4byte	0x4d9
 2270 0350 15       		.uleb128 0x15
 2271 0351 CE030000 		.4byte	.LASF39
 2272 0355 01       		.byte	0x1
 2273 0356 6202     		.2byte	0x262
 2274 0358 7A000000 		.4byte	0x7a
 2275 035c 03       		.byte	0x3
 2276 035d 91       		.byte	0x91
 2277 035e CF78     		.sleb128 -945
 2278 0360 10       		.uleb128 0x10
 2279 0361 CC010000 		.4byte	.LASF40
 2280 0365 01       		.byte	0x1
 2281 0366 6402     		.2byte	0x264
 2282 0368 85000000 		.4byte	0x85
 2283 036c 02       		.byte	0x2
 2284 036d 91       		.byte	0x91
 2285 036e 56       		.sleb128 -42
 2286 036f 10       		.uleb128 0x10
 2287 0370 D6030000 		.4byte	.LASF41
 2288 0374 01       		.byte	0x1
 2289 0375 6502     		.2byte	0x265
 2290 0377 85000000 		.4byte	0x85
 2291 037b 02       		.byte	0x2
 2292 037c 91       		.byte	0x91
 2293 037d 76       		.sleb128 -10
 2294 037e 10       		.uleb128 0x10
 2295 037f 6C000000 		.4byte	.LASF42
 2296 0383 01       		.byte	0x1
 2297 0384 6602     		.2byte	0x266
 2298 0386 7A000000 		.4byte	0x7a
 2299 038a 02       		.byte	0x2
 2300 038b 91       		.byte	0x91
 2301 038c 75       		.sleb128 -11
 2302 038d 10       		.uleb128 0x10
 2303 038e D8020000 		.4byte	.LASF43
 2304 0392 01       		.byte	0x1
 2305 0393 6702     		.2byte	0x267
 2306 0395 85000000 		.4byte	0x85
 2307 0399 02       		.byte	0x2
 2308 039a 91       		.byte	0x91
 2309 039b 62       		.sleb128 -30
 2310 039c 10       		.uleb128 0x10
 2311 039d AD030000 		.4byte	.LASF44
 2312 03a1 01       		.byte	0x1
 2313 03a2 6802     		.2byte	0x268
 2314 03a4 B0000000 		.4byte	0xb0
 2315 03a8 02       		.byte	0x2
 2316 03a9 91       		.byte	0x91
 2317 03aa 64       		.sleb128 -28
 2318 03ab 10       		.uleb128 0x10
 2319 03ac 3A000000 		.4byte	.LASF45
 2320 03b0 01       		.byte	0x1
 2321 03b1 6902     		.2byte	0x269
 2322 03b3 85000000 		.4byte	0x85
ARM GAS  C:\Users\bramamu\AppData\Local\Temp\cczceNxl.s 			page 68


 2323 03b7 02       		.byte	0x2
 2324 03b8 91       		.byte	0x91
 2325 03b9 72       		.sleb128 -14
 2326 03ba 10       		.uleb128 0x10
 2327 03bb AF000000 		.4byte	.LASF46
 2328 03bf 01       		.byte	0x1
 2329 03c0 6A02     		.2byte	0x26a
 2330 03c2 85000000 		.4byte	0x85
 2331 03c6 02       		.byte	0x2
 2332 03c7 91       		.byte	0x91
 2333 03c8 70       		.sleb128 -16
 2334 03c9 10       		.uleb128 0x10
 2335 03ca 63020000 		.4byte	.LASF47
 2336 03ce 01       		.byte	0x1
 2337 03cf 6B02     		.2byte	0x26b
 2338 03d1 7A000000 		.4byte	0x7a
 2339 03d5 02       		.byte	0x2
 2340 03d6 91       		.byte	0x91
 2341 03d7 6F       		.sleb128 -17
 2342 03d8 10       		.uleb128 0x10
 2343 03d9 4A020000 		.4byte	.LASF48
 2344 03dd 01       		.byte	0x1
 2345 03de 6E02     		.2byte	0x26e
 2346 03e0 7A000000 		.4byte	0x7a
 2347 03e4 02       		.byte	0x2
 2348 03e5 91       		.byte	0x91
 2349 03e6 6E       		.sleb128 -18
 2350 03e7 10       		.uleb128 0x10
 2351 03e8 BA000000 		.4byte	.LASF49
 2352 03ec 01       		.byte	0x1
 2353 03ed 7102     		.2byte	0x271
 2354 03ef 7A000000 		.4byte	0x7a
 2355 03f3 02       		.byte	0x2
 2356 03f4 91       		.byte	0x91
 2357 03f5 6D       		.sleb128 -19
 2358 03f6 10       		.uleb128 0x10
 2359 03f7 78030000 		.4byte	.LASF50
 2360 03fb 01       		.byte	0x1
 2361 03fc 7302     		.2byte	0x273
 2362 03fe D9040000 		.4byte	0x4d9
 2363 0402 03       		.byte	0x3
 2364 0403 91       		.byte	0x91
 2365 0404 A87D     		.sleb128 -344
 2366 0406 10       		.uleb128 0x10
 2367 0407 99020000 		.4byte	.LASF51
 2368 040b 01       		.byte	0x1
 2369 040c 7402     		.2byte	0x274
 2370 040e D9040000 		.4byte	0x4d9
 2371 0412 03       		.byte	0x3
 2372 0413 91       		.byte	0x91
 2373 0414 FC7A     		.sleb128 -644
 2374 0416 18       		.uleb128 0x18
 2375 0417 6E010000 		.4byte	.LBB3
 2376 041b 1E060000 		.4byte	.LBE3
 2377 041f 10       		.uleb128 0x10
 2378 0420 A5000000 		.4byte	.LASF52
 2379 0424 01       		.byte	0x1
ARM GAS  C:\Users\bramamu\AppData\Local\Temp\cczceNxl.s 			page 69


 2380 0425 B702     		.2byte	0x2b7
 2381 0427 7A000000 		.4byte	0x7a
 2382 042b 02       		.byte	0x2
 2383 042c 91       		.byte	0x91
 2384 042d 61       		.sleb128 -31
 2385 042e 1A       		.uleb128 0x1a
 2386 042f 24020000 		.4byte	.LBB4
 2387 0433 6E020000 		.4byte	.LBE4
 2388 0437 4B040000 		.4byte	0x44b
 2389 043b 10       		.uleb128 0x10
 2390 043c 7D000000 		.4byte	.LASF53
 2391 0440 01       		.byte	0x1
 2392 0441 0103     		.2byte	0x301
 2393 0443 85000000 		.4byte	0x85
 2394 0447 02       		.byte	0x2
 2395 0448 91       		.byte	0x91
 2396 0449 5E       		.sleb128 -34
 2397 044a 00       		.byte	0
 2398 044b 1A       		.uleb128 0x1a
 2399 044c 6E030000 		.4byte	.LBB5
 2400 0450 9E030000 		.4byte	.LBE5
 2401 0454 69040000 		.4byte	0x469
 2402 0458 10       		.uleb128 0x10
 2403 0459 54000000 		.4byte	.LASF54
 2404 045d 01       		.byte	0x1
 2405 045e 9403     		.2byte	0x394
 2406 0460 4D020000 		.4byte	0x24d
 2407 0464 03       		.byte	0x3
 2408 0465 91       		.byte	0x91
 2409 0466 D478     		.sleb128 -940
 2410 0468 00       		.byte	0
 2411 0469 1A       		.uleb128 0x1a
 2412 046a 54040000 		.4byte	.LBB6
 2413 046e 9A040000 		.4byte	.LBE6
 2414 0472 87040000 		.4byte	0x487
 2415 0476 10       		.uleb128 0x10
 2416 0477 CD000000 		.4byte	.LASF55
 2417 047b 01       		.byte	0x1
 2418 047c 6104     		.2byte	0x461
 2419 047e 15010000 		.4byte	0x115
 2420 0482 03       		.byte	0x3
 2421 0483 91       		.byte	0x91
 2422 0484 F47A     		.sleb128 -652
 2423 0486 00       		.byte	0
 2424 0487 18       		.uleb128 0x18
 2425 0488 B0040000 		.4byte	.LBB7
 2426 048c D6050000 		.4byte	.LBE7
 2427 0490 10       		.uleb128 0x10
 2428 0491 43020000 		.4byte	.LASF56
 2429 0495 01       		.byte	0x1
 2430 0496 8104     		.2byte	0x481
 2431 0498 85000000 		.4byte	0x85
 2432 049c 02       		.byte	0x2
 2433 049d 91       		.byte	0x91
 2434 049e 5C       		.sleb128 -36
 2435 049f 10       		.uleb128 0x10
 2436 04a0 23040000 		.4byte	.LASF57
ARM GAS  C:\Users\bramamu\AppData\Local\Temp\cczceNxl.s 			page 70


 2437 04a4 01       		.byte	0x1
 2438 04a5 8604     		.2byte	0x486
 2439 04a7 90000000 		.4byte	0x90
 2440 04ab 02       		.byte	0x2
 2441 04ac 91       		.byte	0x91
 2442 04ad 58       		.sleb128 -40
 2443 04ae 10       		.uleb128 0x10
 2444 04af 38010000 		.4byte	.LASF58
 2445 04b3 01       		.byte	0x1
 2446 04b4 8704     		.2byte	0x487
 2447 04b6 7A000000 		.4byte	0x7a
 2448 04ba 02       		.byte	0x2
 2449 04bb 91       		.byte	0x91
 2450 04bc 6C       		.sleb128 -20
 2451 04bd 18       		.uleb128 0x18
 2452 04be 2A050000 		.4byte	.LBB8
 2453 04c2 7A050000 		.4byte	.LBE8
 2454 04c6 10       		.uleb128 0x10
 2455 04c7 C3010000 		.4byte	.LASF59
 2456 04cb 01       		.byte	0x1
 2457 04cc AA04     		.2byte	0x4aa
 2458 04ce 85000000 		.4byte	0x85
 2459 04d2 02       		.byte	0x2
 2460 04d3 91       		.byte	0x91
 2461 04d4 6A       		.sleb128 -22
 2462 04d5 00       		.byte	0
 2463 04d6 00       		.byte	0
 2464 04d7 00       		.byte	0
 2465 04d8 00       		.byte	0
 2466 04d9 08       		.uleb128 0x8
 2467 04da 7A000000 		.4byte	0x7a
 2468 04de EA040000 		.4byte	0x4ea
 2469 04e2 11       		.uleb128 0x11
 2470 04e3 0E010000 		.4byte	0x10e
 2471 04e7 2B01     		.2byte	0x12b
 2472 04e9 00       		.byte	0
 2473 04ea 16       		.uleb128 0x16
 2474 04eb 21030000 		.4byte	.LASF60
 2475 04ef 01       		.byte	0x1
 2476 04f0 0005     		.2byte	0x500
 2477 04f2 01       		.byte	0x1
 2478 04f3 B0000000 		.4byte	0xb0
 2479 04f7 00000000 		.4byte	.LFB65
 2480 04fb B0000000 		.4byte	.LFE65
 2481 04ff AC010000 		.4byte	.LLST8
 2482 0503 01       		.byte	0x1
 2483 0504 45050000 		.4byte	0x545
 2484 0508 15       		.uleb128 0x15
 2485 0509 3B030000 		.4byte	.LASF61
 2486 050d 01       		.byte	0x1
 2487 050e 0005     		.2byte	0x500
 2488 0510 7A000000 		.4byte	0x7a
 2489 0514 02       		.byte	0x2
 2490 0515 91       		.byte	0x91
 2491 0516 6F       		.sleb128 -17
 2492 0517 15       		.uleb128 0x15
 2493 0518 FE030000 		.4byte	.LASF23
ARM GAS  C:\Users\bramamu\AppData\Local\Temp\cczceNxl.s 			page 71


 2494 051c 01       		.byte	0x1
 2495 051d 0005     		.2byte	0x500
 2496 051f 45050000 		.4byte	0x545
 2497 0523 02       		.byte	0x2
 2498 0524 91       		.byte	0x91
 2499 0525 68       		.sleb128 -24
 2500 0526 15       		.uleb128 0x15
 2501 0527 32040000 		.4byte	.LASF24
 2502 052b 01       		.byte	0x1
 2503 052c 0005     		.2byte	0x500
 2504 052e 85000000 		.4byte	0x85
 2505 0532 02       		.byte	0x2
 2506 0533 91       		.byte	0x91
 2507 0534 6C       		.sleb128 -20
 2508 0535 10       		.uleb128 0x10
 2509 0536 38010000 		.4byte	.LASF58
 2510 053a 01       		.byte	0x1
 2511 053b 0305     		.2byte	0x503
 2512 053d 85000000 		.4byte	0x85
 2513 0541 02       		.byte	0x2
 2514 0542 91       		.byte	0x91
 2515 0543 76       		.sleb128 -10
 2516 0544 00       		.byte	0
 2517 0545 0D       		.uleb128 0xd
 2518 0546 04       		.byte	0x4
 2519 0547 7A000000 		.4byte	0x7a
 2520 054b 0F       		.uleb128 0xf
 2521 054c 01       		.byte	0x1
 2522 054d 78040000 		.4byte	.LASF63
 2523 0551 01       		.byte	0x1
 2524 0552 2905     		.2byte	0x529
 2525 0554 01       		.byte	0x1
 2526 0555 00000000 		.4byte	.LFB66
 2527 0559 B2000000 		.4byte	.LFE66
 2528 055d E4010000 		.4byte	.LLST9
 2529 0561 01       		.byte	0x1
 2530 0562 E2050000 		.4byte	0x5e2
 2531 0566 15       		.uleb128 0x15
 2532 0567 B3010000 		.4byte	.LASF64
 2533 056b 01       		.byte	0x1
 2534 056c 2905     		.2byte	0x529
 2535 056e 90000000 		.4byte	0x90
 2536 0572 03       		.byte	0x3
 2537 0573 91       		.byte	0x91
 2538 0574 E47D     		.sleb128 -284
 2539 0576 15       		.uleb128 0x15
 2540 0577 DA000000 		.4byte	.LASF65
 2541 057b 01       		.byte	0x1
 2542 057c 2905     		.2byte	0x529
 2543 057e 7A000000 		.4byte	0x7a
 2544 0582 03       		.byte	0x3
 2545 0583 91       		.byte	0x91
 2546 0584 E37D     		.sleb128 -285
 2547 0586 10       		.uleb128 0x10
 2548 0587 AB010000 		.4byte	.LASF66
 2549 058b 01       		.byte	0x1
 2550 058c 2B05     		.2byte	0x52b
ARM GAS  C:\Users\bramamu\AppData\Local\Temp\cczceNxl.s 			page 72


 2551 058e 90000000 		.4byte	0x90
 2552 0592 02       		.byte	0x2
 2553 0593 91       		.byte	0x91
 2554 0594 70       		.sleb128 -16
 2555 0595 10       		.uleb128 0x10
 2556 0596 5A000000 		.4byte	.LASF67
 2557 059a 01       		.byte	0x1
 2558 059b 2C05     		.2byte	0x52c
 2559 059d E2050000 		.4byte	0x5e2
 2560 05a1 03       		.byte	0x3
 2561 05a2 91       		.byte	0x91
 2562 05a3 E87D     		.sleb128 -280
 2563 05a5 10       		.uleb128 0x10
 2564 05a6 93040000 		.4byte	.LASF68
 2565 05aa 01       		.byte	0x1
 2566 05ab 2F05     		.2byte	0x52f
 2567 05ad 7A000000 		.4byte	0x7a
 2568 05b1 02       		.byte	0x2
 2569 05b2 91       		.byte	0x91
 2570 05b3 6F       		.sleb128 -17
 2571 05b4 10       		.uleb128 0x10
 2572 05b5 43020000 		.4byte	.LASF56
 2573 05b9 01       		.byte	0x1
 2574 05ba 3205     		.2byte	0x532
 2575 05bc 85000000 		.4byte	0x85
 2576 05c0 02       		.byte	0x2
 2577 05c1 91       		.byte	0x91
 2578 05c2 6C       		.sleb128 -20
 2579 05c3 10       		.uleb128 0x10
 2580 05c4 31000000 		.4byte	.LASF69
 2581 05c8 01       		.byte	0x1
 2582 05c9 3305     		.2byte	0x533
 2583 05cb 90000000 		.4byte	0x90
 2584 05cf 02       		.byte	0x2
 2585 05d0 91       		.byte	0x91
 2586 05d1 68       		.sleb128 -24
 2587 05d2 17       		.uleb128 0x17
 2588 05d3 69647800 		.ascii	"idx\000"
 2589 05d7 01       		.byte	0x1
 2590 05d8 3405     		.2byte	0x534
 2591 05da 85000000 		.4byte	0x85
 2592 05de 02       		.byte	0x2
 2593 05df 91       		.byte	0x91
 2594 05e0 76       		.sleb128 -10
 2595 05e1 00       		.byte	0
 2596 05e2 08       		.uleb128 0x8
 2597 05e3 7A000000 		.4byte	0x7a
 2598 05e7 F2050000 		.4byte	0x5f2
 2599 05eb 09       		.uleb128 0x9
 2600 05ec 0E010000 		.4byte	0x10e
 2601 05f0 FF       		.byte	0xff
 2602 05f1 00       		.byte	0
 2603 05f2 16       		.uleb128 0x16
 2604 05f3 93030000 		.4byte	.LASF70
 2605 05f7 01       		.byte	0x1
 2606 05f8 5E05     		.2byte	0x55e
 2607 05fa 01       		.byte	0x1
ARM GAS  C:\Users\bramamu\AppData\Local\Temp\cczceNxl.s 			page 73


 2608 05fb 90000000 		.4byte	0x90
 2609 05ff 00000000 		.4byte	.LFB67
 2610 0603 E2010000 		.4byte	.LFE67
 2611 0607 1E020000 		.4byte	.LLST10
 2612 060b 01       		.byte	0x1
 2613 060c 5C060000 		.4byte	0x65c
 2614 0610 15       		.uleb128 0x15
 2615 0611 F6040000 		.4byte	.LASF71
 2616 0615 01       		.byte	0x1
 2617 0616 5E05     		.2byte	0x55e
 2618 0618 7A000000 		.4byte	0x7a
 2619 061c 02       		.byte	0x2
 2620 061d 91       		.byte	0x91
 2621 061e 67       		.sleb128 -25
 2622 061f 15       		.uleb128 0x15
 2623 0620 1A000000 		.4byte	.LASF34
 2624 0624 01       		.byte	0x1
 2625 0625 5E05     		.2byte	0x55e
 2626 0627 7A000000 		.4byte	0x7a
 2627 062b 02       		.byte	0x2
 2628 062c 91       		.byte	0x91
 2629 062d 66       		.sleb128 -26
 2630 062e 10       		.uleb128 0x10
 2631 062f 5A020000 		.4byte	.LASF72
 2632 0633 01       		.byte	0x1
 2633 0634 6005     		.2byte	0x560
 2634 0636 90000000 		.4byte	0x90
 2635 063a 02       		.byte	0x2
 2636 063b 91       		.byte	0x91
 2637 063c 74       		.sleb128 -12
 2638 063d 10       		.uleb128 0x10
 2639 063e 57040000 		.4byte	.LASF73
 2640 0642 01       		.byte	0x1
 2641 0643 6105     		.2byte	0x561
 2642 0645 7A000000 		.4byte	0x7a
 2643 0649 02       		.byte	0x2
 2644 064a 91       		.byte	0x91
 2645 064b 73       		.sleb128 -13
 2646 064c 10       		.uleb128 0x10
 2647 064d 20000000 		.4byte	.LASF74
 2648 0651 01       		.byte	0x1
 2649 0652 6205     		.2byte	0x562
 2650 0654 90000000 		.4byte	0x90
 2651 0658 02       		.byte	0x2
 2652 0659 91       		.byte	0x91
 2653 065a 6C       		.sleb128 -20
 2654 065b 00       		.byte	0
 2655 065c 1B       		.uleb128 0x1b
 2656 065d 61040000 		.4byte	.LASF75
 2657 0661 01       		.byte	0x1
 2658 0662 26       		.byte	0x26
 2659 0663 6E010000 		.4byte	0x16e
 2660 0667 01       		.byte	0x1
 2661 0668 05       		.byte	0x5
 2662 0669 03       		.byte	0x3
 2663 066a 00000000 		.4byte	BootloaderI2C_Checksum
 2664 066e 1B       		.uleb128 0x1b
ARM GAS  C:\Users\bramamu\AppData\Local\Temp\cczceNxl.s 			page 74


 2665 066f 8E010000 		.4byte	.LASF76
 2666 0673 01       		.byte	0x1
 2667 0674 27       		.byte	0x27
 2668 0675 68010000 		.4byte	0x168
 2669 0679 01       		.byte	0x1
 2670 067a 05       		.byte	0x5
 2671 067b 03       		.byte	0x3
 2672 067c 00000000 		.4byte	BootloaderI2C_ChecksumAccess
 2673 0680 1B       		.uleb128 0x1b
 2674 0681 B6030000 		.4byte	.LASF77
 2675 0685 01       		.byte	0x1
 2676 0686 2F       		.byte	0x2f
 2677 0687 92060000 		.4byte	0x692
 2678 068b 01       		.byte	0x1
 2679 068c 05       		.byte	0x5
 2680 068d 03       		.byte	0x3
 2681 068e 00000000 		.4byte	BootloaderI2C_SizeBytes
 2682 0692 0E       		.uleb128 0xe
 2683 0693 90000000 		.4byte	0x90
 2684 0697 1B       		.uleb128 0x1b
 2685 0698 9B040000 		.4byte	.LASF78
 2686 069c 01       		.byte	0x1
 2687 069d 30       		.byte	0x30
 2688 069e A9060000 		.4byte	0x6a9
 2689 06a2 01       		.byte	0x1
 2690 06a3 05       		.byte	0x5
 2691 06a4 03       		.byte	0x3
 2692 06a5 00000000 		.4byte	BootloaderI2C_SizeBytesAccess
 2693 06a9 0D       		.uleb128 0xd
 2694 06aa 04       		.byte	0x4
 2695 06ab 92060000 		.4byte	0x692
 2696 06af 1C       		.uleb128 0x1c
 2697 06b0 DC040000 		.4byte	.LASF79
 2698 06b4 05       		.byte	0x5
 2699 06b5 1606     		.2byte	0x616
 2700 06b7 BD060000 		.4byte	0x6bd
 2701 06bb 01       		.byte	0x1
 2702 06bc 01       		.byte	0x1
 2703 06bd 05       		.uleb128 0x5
 2704 06be 45000000 		.4byte	0x45
 2705 06c2 00       		.byte	0
 2706              		.section	.debug_abbrev,"",%progbits
 2707              	.Ldebug_abbrev0:
 2708 0000 01       		.uleb128 0x1
 2709 0001 11       		.uleb128 0x11
 2710 0002 01       		.byte	0x1
 2711 0003 25       		.uleb128 0x25
 2712 0004 0E       		.uleb128 0xe
 2713 0005 13       		.uleb128 0x13
 2714 0006 0B       		.uleb128 0xb
 2715 0007 03       		.uleb128 0x3
 2716 0008 0E       		.uleb128 0xe
 2717 0009 1B       		.uleb128 0x1b
 2718 000a 0E       		.uleb128 0xe
 2719 000b 55       		.uleb128 0x55
 2720 000c 06       		.uleb128 0x6
 2721 000d 11       		.uleb128 0x11
ARM GAS  C:\Users\bramamu\AppData\Local\Temp\cczceNxl.s 			page 75


 2722 000e 01       		.uleb128 0x1
 2723 000f 52       		.uleb128 0x52
 2724 0010 01       		.uleb128 0x1
 2725 0011 10       		.uleb128 0x10
 2726 0012 06       		.uleb128 0x6
 2727 0013 00       		.byte	0
 2728 0014 00       		.byte	0
 2729 0015 02       		.uleb128 0x2
 2730 0016 24       		.uleb128 0x24
 2731 0017 00       		.byte	0
 2732 0018 0B       		.uleb128 0xb
 2733 0019 0B       		.uleb128 0xb
 2734 001a 3E       		.uleb128 0x3e
 2735 001b 0B       		.uleb128 0xb
 2736 001c 03       		.uleb128 0x3
 2737 001d 0E       		.uleb128 0xe
 2738 001e 00       		.byte	0
 2739 001f 00       		.byte	0
 2740 0020 03       		.uleb128 0x3
 2741 0021 16       		.uleb128 0x16
 2742 0022 00       		.byte	0
 2743 0023 03       		.uleb128 0x3
 2744 0024 0E       		.uleb128 0xe
 2745 0025 3A       		.uleb128 0x3a
 2746 0026 0B       		.uleb128 0xb
 2747 0027 3B       		.uleb128 0x3b
 2748 0028 0B       		.uleb128 0xb
 2749 0029 49       		.uleb128 0x49
 2750 002a 13       		.uleb128 0x13
 2751 002b 00       		.byte	0
 2752 002c 00       		.byte	0
 2753 002d 04       		.uleb128 0x4
 2754 002e 24       		.uleb128 0x24
 2755 002f 00       		.byte	0
 2756 0030 0B       		.uleb128 0xb
 2757 0031 0B       		.uleb128 0xb
 2758 0032 3E       		.uleb128 0x3e
 2759 0033 0B       		.uleb128 0xb
 2760 0034 03       		.uleb128 0x3
 2761 0035 08       		.uleb128 0x8
 2762 0036 00       		.byte	0
 2763 0037 00       		.byte	0
 2764 0038 05       		.uleb128 0x5
 2765 0039 35       		.uleb128 0x35
 2766 003a 00       		.byte	0
 2767 003b 49       		.uleb128 0x49
 2768 003c 13       		.uleb128 0x13
 2769 003d 00       		.byte	0
 2770 003e 00       		.byte	0
 2771 003f 06       		.uleb128 0x6
 2772 0040 13       		.uleb128 0x13
 2773 0041 01       		.byte	0x1
 2774 0042 0B       		.uleb128 0xb
 2775 0043 0B       		.uleb128 0xb
 2776 0044 3A       		.uleb128 0x3a
 2777 0045 0B       		.uleb128 0xb
 2778 0046 3B       		.uleb128 0x3b
ARM GAS  C:\Users\bramamu\AppData\Local\Temp\cczceNxl.s 			page 76


 2779 0047 0B       		.uleb128 0xb
 2780 0048 01       		.uleb128 0x1
 2781 0049 13       		.uleb128 0x13
 2782 004a 00       		.byte	0
 2783 004b 00       		.byte	0
 2784 004c 07       		.uleb128 0x7
 2785 004d 0D       		.uleb128 0xd
 2786 004e 00       		.byte	0
 2787 004f 03       		.uleb128 0x3
 2788 0050 0E       		.uleb128 0xe
 2789 0051 3A       		.uleb128 0x3a
 2790 0052 0B       		.uleb128 0xb
 2791 0053 3B       		.uleb128 0x3b
 2792 0054 0B       		.uleb128 0xb
 2793 0055 49       		.uleb128 0x49
 2794 0056 13       		.uleb128 0x13
 2795 0057 38       		.uleb128 0x38
 2796 0058 0A       		.uleb128 0xa
 2797 0059 00       		.byte	0
 2798 005a 00       		.byte	0
 2799 005b 08       		.uleb128 0x8
 2800 005c 01       		.uleb128 0x1
 2801 005d 01       		.byte	0x1
 2802 005e 49       		.uleb128 0x49
 2803 005f 13       		.uleb128 0x13
 2804 0060 01       		.uleb128 0x1
 2805 0061 13       		.uleb128 0x13
 2806 0062 00       		.byte	0
 2807 0063 00       		.byte	0
 2808 0064 09       		.uleb128 0x9
 2809 0065 21       		.uleb128 0x21
 2810 0066 00       		.byte	0
 2811 0067 49       		.uleb128 0x49
 2812 0068 13       		.uleb128 0x13
 2813 0069 2F       		.uleb128 0x2f
 2814 006a 0B       		.uleb128 0xb
 2815 006b 00       		.byte	0
 2816 006c 00       		.byte	0
 2817 006d 0A       		.uleb128 0xa
 2818 006e 2E       		.uleb128 0x2e
 2819 006f 01       		.byte	0x1
 2820 0070 03       		.uleb128 0x3
 2821 0071 0E       		.uleb128 0xe
 2822 0072 3A       		.uleb128 0x3a
 2823 0073 0B       		.uleb128 0xb
 2824 0074 3B       		.uleb128 0x3b
 2825 0075 0B       		.uleb128 0xb
 2826 0076 27       		.uleb128 0x27
 2827 0077 0C       		.uleb128 0xc
 2828 0078 49       		.uleb128 0x49
 2829 0079 13       		.uleb128 0x13
 2830 007a 11       		.uleb128 0x11
 2831 007b 01       		.uleb128 0x1
 2832 007c 12       		.uleb128 0x12
 2833 007d 01       		.uleb128 0x1
 2834 007e 40       		.uleb128 0x40
 2835 007f 06       		.uleb128 0x6
ARM GAS  C:\Users\bramamu\AppData\Local\Temp\cczceNxl.s 			page 77


 2836 0080 9742     		.uleb128 0x2117
 2837 0082 0C       		.uleb128 0xc
 2838 0083 01       		.uleb128 0x1
 2839 0084 13       		.uleb128 0x13
 2840 0085 00       		.byte	0
 2841 0086 00       		.byte	0
 2842 0087 0B       		.uleb128 0xb
 2843 0088 05       		.uleb128 0x5
 2844 0089 00       		.byte	0
 2845 008a 03       		.uleb128 0x3
 2846 008b 0E       		.uleb128 0xe
 2847 008c 3A       		.uleb128 0x3a
 2848 008d 0B       		.uleb128 0xb
 2849 008e 3B       		.uleb128 0x3b
 2850 008f 0B       		.uleb128 0xb
 2851 0090 49       		.uleb128 0x49
 2852 0091 13       		.uleb128 0x13
 2853 0092 02       		.uleb128 0x2
 2854 0093 0A       		.uleb128 0xa
 2855 0094 00       		.byte	0
 2856 0095 00       		.byte	0
 2857 0096 0C       		.uleb128 0xc
 2858 0097 34       		.uleb128 0x34
 2859 0098 00       		.byte	0
 2860 0099 03       		.uleb128 0x3
 2861 009a 08       		.uleb128 0x8
 2862 009b 3A       		.uleb128 0x3a
 2863 009c 0B       		.uleb128 0xb
 2864 009d 3B       		.uleb128 0x3b
 2865 009e 0B       		.uleb128 0xb
 2866 009f 49       		.uleb128 0x49
 2867 00a0 13       		.uleb128 0x13
 2868 00a1 02       		.uleb128 0x2
 2869 00a2 0A       		.uleb128 0xa
 2870 00a3 00       		.byte	0
 2871 00a4 00       		.byte	0
 2872 00a5 0D       		.uleb128 0xd
 2873 00a6 0F       		.uleb128 0xf
 2874 00a7 00       		.byte	0
 2875 00a8 0B       		.uleb128 0xb
 2876 00a9 0B       		.uleb128 0xb
 2877 00aa 49       		.uleb128 0x49
 2878 00ab 13       		.uleb128 0x13
 2879 00ac 00       		.byte	0
 2880 00ad 00       		.byte	0
 2881 00ae 0E       		.uleb128 0xe
 2882 00af 26       		.uleb128 0x26
 2883 00b0 00       		.byte	0
 2884 00b1 49       		.uleb128 0x49
 2885 00b2 13       		.uleb128 0x13
 2886 00b3 00       		.byte	0
 2887 00b4 00       		.byte	0
 2888 00b5 0F       		.uleb128 0xf
 2889 00b6 2E       		.uleb128 0x2e
 2890 00b7 01       		.byte	0x1
 2891 00b8 3F       		.uleb128 0x3f
 2892 00b9 0C       		.uleb128 0xc
ARM GAS  C:\Users\bramamu\AppData\Local\Temp\cczceNxl.s 			page 78


 2893 00ba 03       		.uleb128 0x3
 2894 00bb 0E       		.uleb128 0xe
 2895 00bc 3A       		.uleb128 0x3a
 2896 00bd 0B       		.uleb128 0xb
 2897 00be 3B       		.uleb128 0x3b
 2898 00bf 05       		.uleb128 0x5
 2899 00c0 27       		.uleb128 0x27
 2900 00c1 0C       		.uleb128 0xc
 2901 00c2 11       		.uleb128 0x11
 2902 00c3 01       		.uleb128 0x1
 2903 00c4 12       		.uleb128 0x12
 2904 00c5 01       		.uleb128 0x1
 2905 00c6 40       		.uleb128 0x40
 2906 00c7 06       		.uleb128 0x6
 2907 00c8 9642     		.uleb128 0x2116
 2908 00ca 0C       		.uleb128 0xc
 2909 00cb 01       		.uleb128 0x1
 2910 00cc 13       		.uleb128 0x13
 2911 00cd 00       		.byte	0
 2912 00ce 00       		.byte	0
 2913 00cf 10       		.uleb128 0x10
 2914 00d0 34       		.uleb128 0x34
 2915 00d1 00       		.byte	0
 2916 00d2 03       		.uleb128 0x3
 2917 00d3 0E       		.uleb128 0xe
 2918 00d4 3A       		.uleb128 0x3a
 2919 00d5 0B       		.uleb128 0xb
 2920 00d6 3B       		.uleb128 0x3b
 2921 00d7 05       		.uleb128 0x5
 2922 00d8 49       		.uleb128 0x49
 2923 00d9 13       		.uleb128 0x13
 2924 00da 02       		.uleb128 0x2
 2925 00db 0A       		.uleb128 0xa
 2926 00dc 00       		.byte	0
 2927 00dd 00       		.byte	0
 2928 00de 11       		.uleb128 0x11
 2929 00df 21       		.uleb128 0x21
 2930 00e0 00       		.byte	0
 2931 00e1 49       		.uleb128 0x49
 2932 00e2 13       		.uleb128 0x13
 2933 00e3 2F       		.uleb128 0x2f
 2934 00e4 05       		.uleb128 0x5
 2935 00e5 00       		.byte	0
 2936 00e6 00       		.byte	0
 2937 00e7 12       		.uleb128 0x12
 2938 00e8 2E       		.uleb128 0x2e
 2939 00e9 00       		.byte	0
 2940 00ea 03       		.uleb128 0x3
 2941 00eb 0E       		.uleb128 0xe
 2942 00ec 3A       		.uleb128 0x3a
 2943 00ed 0B       		.uleb128 0xb
 2944 00ee 3B       		.uleb128 0x3b
 2945 00ef 05       		.uleb128 0x5
 2946 00f0 27       		.uleb128 0x27
 2947 00f1 0C       		.uleb128 0xc
 2948 00f2 11       		.uleb128 0x11
 2949 00f3 01       		.uleb128 0x1
ARM GAS  C:\Users\bramamu\AppData\Local\Temp\cczceNxl.s 			page 79


 2950 00f4 12       		.uleb128 0x12
 2951 00f5 01       		.uleb128 0x1
 2952 00f6 40       		.uleb128 0x40
 2953 00f7 06       		.uleb128 0x6
 2954 00f8 9642     		.uleb128 0x2116
 2955 00fa 0C       		.uleb128 0xc
 2956 00fb 00       		.byte	0
 2957 00fc 00       		.byte	0
 2958 00fd 13       		.uleb128 0x13
 2959 00fe 2E       		.uleb128 0x2e
 2960 00ff 00       		.byte	0
 2961 0100 3F       		.uleb128 0x3f
 2962 0101 0C       		.uleb128 0xc
 2963 0102 03       		.uleb128 0x3
 2964 0103 0E       		.uleb128 0xe
 2965 0104 3A       		.uleb128 0x3a
 2966 0105 0B       		.uleb128 0xb
 2967 0106 3B       		.uleb128 0x3b
 2968 0107 05       		.uleb128 0x5
 2969 0108 27       		.uleb128 0x27
 2970 0109 0C       		.uleb128 0xc
 2971 010a 11       		.uleb128 0x11
 2972 010b 01       		.uleb128 0x1
 2973 010c 12       		.uleb128 0x12
 2974 010d 01       		.uleb128 0x1
 2975 010e 40       		.uleb128 0x40
 2976 010f 06       		.uleb128 0x6
 2977 0110 9642     		.uleb128 0x2116
 2978 0112 0C       		.uleb128 0xc
 2979 0113 00       		.byte	0
 2980 0114 00       		.byte	0
 2981 0115 14       		.uleb128 0x14
 2982 0116 2E       		.uleb128 0x2e
 2983 0117 01       		.byte	0x1
 2984 0118 03       		.uleb128 0x3
 2985 0119 0E       		.uleb128 0xe
 2986 011a 3A       		.uleb128 0x3a
 2987 011b 0B       		.uleb128 0xb
 2988 011c 3B       		.uleb128 0x3b
 2989 011d 05       		.uleb128 0x5
 2990 011e 27       		.uleb128 0x27
 2991 011f 0C       		.uleb128 0xc
 2992 0120 11       		.uleb128 0x11
 2993 0121 01       		.uleb128 0x1
 2994 0122 12       		.uleb128 0x12
 2995 0123 01       		.uleb128 0x1
 2996 0124 40       		.uleb128 0x40
 2997 0125 0A       		.uleb128 0xa
 2998 0126 9742     		.uleb128 0x2117
 2999 0128 0C       		.uleb128 0xc
 3000 0129 01       		.uleb128 0x1
 3001 012a 13       		.uleb128 0x13
 3002 012b 00       		.byte	0
 3003 012c 00       		.byte	0
 3004 012d 15       		.uleb128 0x15
 3005 012e 05       		.uleb128 0x5
 3006 012f 00       		.byte	0
ARM GAS  C:\Users\bramamu\AppData\Local\Temp\cczceNxl.s 			page 80


 3007 0130 03       		.uleb128 0x3
 3008 0131 0E       		.uleb128 0xe
 3009 0132 3A       		.uleb128 0x3a
 3010 0133 0B       		.uleb128 0xb
 3011 0134 3B       		.uleb128 0x3b
 3012 0135 05       		.uleb128 0x5
 3013 0136 49       		.uleb128 0x49
 3014 0137 13       		.uleb128 0x13
 3015 0138 02       		.uleb128 0x2
 3016 0139 0A       		.uleb128 0xa
 3017 013a 00       		.byte	0
 3018 013b 00       		.byte	0
 3019 013c 16       		.uleb128 0x16
 3020 013d 2E       		.uleb128 0x2e
 3021 013e 01       		.byte	0x1
 3022 013f 03       		.uleb128 0x3
 3023 0140 0E       		.uleb128 0xe
 3024 0141 3A       		.uleb128 0x3a
 3025 0142 0B       		.uleb128 0xb
 3026 0143 3B       		.uleb128 0x3b
 3027 0144 05       		.uleb128 0x5
 3028 0145 27       		.uleb128 0x27
 3029 0146 0C       		.uleb128 0xc
 3030 0147 49       		.uleb128 0x49
 3031 0148 13       		.uleb128 0x13
 3032 0149 11       		.uleb128 0x11
 3033 014a 01       		.uleb128 0x1
 3034 014b 12       		.uleb128 0x12
 3035 014c 01       		.uleb128 0x1
 3036 014d 40       		.uleb128 0x40
 3037 014e 06       		.uleb128 0x6
 3038 014f 9642     		.uleb128 0x2116
 3039 0151 0C       		.uleb128 0xc
 3040 0152 01       		.uleb128 0x1
 3041 0153 13       		.uleb128 0x13
 3042 0154 00       		.byte	0
 3043 0155 00       		.byte	0
 3044 0156 17       		.uleb128 0x17
 3045 0157 34       		.uleb128 0x34
 3046 0158 00       		.byte	0
 3047 0159 03       		.uleb128 0x3
 3048 015a 08       		.uleb128 0x8
 3049 015b 3A       		.uleb128 0x3a
 3050 015c 0B       		.uleb128 0xb
 3051 015d 3B       		.uleb128 0x3b
 3052 015e 05       		.uleb128 0x5
 3053 015f 49       		.uleb128 0x49
 3054 0160 13       		.uleb128 0x13
 3055 0161 02       		.uleb128 0x2
 3056 0162 0A       		.uleb128 0xa
 3057 0163 00       		.byte	0
 3058 0164 00       		.byte	0
 3059 0165 18       		.uleb128 0x18
 3060 0166 0B       		.uleb128 0xb
 3061 0167 01       		.byte	0x1
 3062 0168 11       		.uleb128 0x11
 3063 0169 01       		.uleb128 0x1
ARM GAS  C:\Users\bramamu\AppData\Local\Temp\cczceNxl.s 			page 81


 3064 016a 12       		.uleb128 0x12
 3065 016b 01       		.uleb128 0x1
 3066 016c 00       		.byte	0
 3067 016d 00       		.byte	0
 3068 016e 19       		.uleb128 0x19
 3069 016f 2E       		.uleb128 0x2e
 3070 0170 01       		.byte	0x1
 3071 0171 03       		.uleb128 0x3
 3072 0172 0E       		.uleb128 0xe
 3073 0173 3A       		.uleb128 0x3a
 3074 0174 0B       		.uleb128 0xb
 3075 0175 3B       		.uleb128 0x3b
 3076 0176 05       		.uleb128 0x5
 3077 0177 27       		.uleb128 0x27
 3078 0178 0C       		.uleb128 0xc
 3079 0179 11       		.uleb128 0x11
 3080 017a 01       		.uleb128 0x1
 3081 017b 12       		.uleb128 0x12
 3082 017c 01       		.uleb128 0x1
 3083 017d 40       		.uleb128 0x40
 3084 017e 06       		.uleb128 0x6
 3085 017f 9642     		.uleb128 0x2116
 3086 0181 0C       		.uleb128 0xc
 3087 0182 01       		.uleb128 0x1
 3088 0183 13       		.uleb128 0x13
 3089 0184 00       		.byte	0
 3090 0185 00       		.byte	0
 3091 0186 1A       		.uleb128 0x1a
 3092 0187 0B       		.uleb128 0xb
 3093 0188 01       		.byte	0x1
 3094 0189 11       		.uleb128 0x11
 3095 018a 01       		.uleb128 0x1
 3096 018b 12       		.uleb128 0x12
 3097 018c 01       		.uleb128 0x1
 3098 018d 01       		.uleb128 0x1
 3099 018e 13       		.uleb128 0x13
 3100 018f 00       		.byte	0
 3101 0190 00       		.byte	0
 3102 0191 1B       		.uleb128 0x1b
 3103 0192 34       		.uleb128 0x34
 3104 0193 00       		.byte	0
 3105 0194 03       		.uleb128 0x3
 3106 0195 0E       		.uleb128 0xe
 3107 0196 3A       		.uleb128 0x3a
 3108 0197 0B       		.uleb128 0xb
 3109 0198 3B       		.uleb128 0x3b
 3110 0199 0B       		.uleb128 0xb
 3111 019a 49       		.uleb128 0x49
 3112 019b 13       		.uleb128 0x13
 3113 019c 3F       		.uleb128 0x3f
 3114 019d 0C       		.uleb128 0xc
 3115 019e 02       		.uleb128 0x2
 3116 019f 0A       		.uleb128 0xa
 3117 01a0 00       		.byte	0
 3118 01a1 00       		.byte	0
 3119 01a2 1C       		.uleb128 0x1c
 3120 01a3 34       		.uleb128 0x34
ARM GAS  C:\Users\bramamu\AppData\Local\Temp\cczceNxl.s 			page 82


 3121 01a4 00       		.byte	0
 3122 01a5 03       		.uleb128 0x3
 3123 01a6 0E       		.uleb128 0xe
 3124 01a7 3A       		.uleb128 0x3a
 3125 01a8 0B       		.uleb128 0xb
 3126 01a9 3B       		.uleb128 0x3b
 3127 01aa 05       		.uleb128 0x5
 3128 01ab 49       		.uleb128 0x49
 3129 01ac 13       		.uleb128 0x13
 3130 01ad 3F       		.uleb128 0x3f
 3131 01ae 0C       		.uleb128 0xc
 3132 01af 3C       		.uleb128 0x3c
 3133 01b0 0C       		.uleb128 0xc
 3134 01b1 00       		.byte	0
 3135 01b2 00       		.byte	0
 3136 01b3 00       		.byte	0
 3137              		.section	.debug_loc,"",%progbits
 3138              	.Ldebug_loc0:
 3139              	.LLST0:
 3140 0000 00000000 		.4byte	.LFB56
 3141 0004 02000000 		.4byte	.LCFI0
 3142 0008 0200     		.2byte	0x2
 3143 000a 7D       		.byte	0x7d
 3144 000b 00       		.sleb128 0
 3145 000c 02000000 		.4byte	.LCFI0
 3146 0010 04000000 		.4byte	.LCFI1
 3147 0014 0200     		.2byte	0x2
 3148 0016 7D       		.byte	0x7d
 3149 0017 04       		.sleb128 4
 3150 0018 04000000 		.4byte	.LCFI1
 3151 001c 06000000 		.4byte	.LCFI2
 3152 0020 0200     		.2byte	0x2
 3153 0022 7D       		.byte	0x7d
 3154 0023 18       		.sleb128 24
 3155 0024 06000000 		.4byte	.LCFI2
 3156 0028 4A000000 		.4byte	.LFE56
 3157 002c 0200     		.2byte	0x2
 3158 002e 77       		.byte	0x77
 3159 002f 18       		.sleb128 24
 3160 0030 00000000 		.4byte	0
 3161 0034 00000000 		.4byte	0
 3162              	.LLST1:
 3163 0038 00000000 		.4byte	.LFB57
 3164 003c 02000000 		.4byte	.LCFI3
 3165 0040 0200     		.2byte	0x2
 3166 0042 7D       		.byte	0x7d
 3167 0043 00       		.sleb128 0
 3168 0044 02000000 		.4byte	.LCFI3
 3169 0048 04000000 		.4byte	.LCFI4
 3170 004c 0200     		.2byte	0x2
 3171 004e 7D       		.byte	0x7d
 3172 004f 04       		.sleb128 4
 3173 0050 04000000 		.4byte	.LCFI4
 3174 0054 06000000 		.4byte	.LCFI5
 3175 0058 0200     		.2byte	0x2
 3176 005a 7D       		.byte	0x7d
 3177 005b 18       		.sleb128 24
ARM GAS  C:\Users\bramamu\AppData\Local\Temp\cczceNxl.s 			page 83


 3178 005c 06000000 		.4byte	.LCFI5
 3179 0060 3C000000 		.4byte	.LFE57
 3180 0064 0200     		.2byte	0x2
 3181 0066 77       		.byte	0x77
 3182 0067 18       		.sleb128 24
 3183 0068 00000000 		.4byte	0
 3184 006c 00000000 		.4byte	0
 3185              	.LLST2:
 3186 0070 00000000 		.4byte	.LFB58
 3187 0074 02000000 		.4byte	.LCFI6
 3188 0078 0200     		.2byte	0x2
 3189 007a 7D       		.byte	0x7d
 3190 007b 00       		.sleb128 0
 3191 007c 02000000 		.4byte	.LCFI6
 3192 0080 04000000 		.4byte	.LCFI7
 3193 0084 0200     		.2byte	0x2
 3194 0086 7D       		.byte	0x7d
 3195 0087 04       		.sleb128 4
 3196 0088 04000000 		.4byte	.LCFI7
 3197 008c 06000000 		.4byte	.LCFI8
 3198 0090 0200     		.2byte	0x2
 3199 0092 7D       		.byte	0x7d
 3200 0093 18       		.sleb128 24
 3201 0094 06000000 		.4byte	.LCFI8
 3202 0098 44000000 		.4byte	.LFE58
 3203 009c 0200     		.2byte	0x2
 3204 009e 77       		.byte	0x77
 3205 009f 18       		.sleb128 24
 3206 00a0 00000000 		.4byte	0
 3207 00a4 00000000 		.4byte	0
 3208              	.LLST3:
 3209 00a8 00000000 		.4byte	.LFB59
 3210 00ac 02000000 		.4byte	.LCFI9
 3211 00b0 0200     		.2byte	0x2
 3212 00b2 7D       		.byte	0x7d
 3213 00b3 00       		.sleb128 0
 3214 00b4 02000000 		.4byte	.LCFI9
 3215 00b8 04000000 		.4byte	.LCFI10
 3216 00bc 0200     		.2byte	0x2
 3217 00be 7D       		.byte	0x7d
 3218 00bf 08       		.sleb128 8
 3219 00c0 04000000 		.4byte	.LCFI10
 3220 00c4 06000000 		.4byte	.LCFI11
 3221 00c8 0300     		.2byte	0x3
 3222 00ca 7D       		.byte	0x7d
 3223 00cb B002     		.sleb128 304
 3224 00cd 06000000 		.4byte	.LCFI11
 3225 00d1 EA000000 		.4byte	.LFE59
 3226 00d5 0300     		.2byte	0x3
 3227 00d7 77       		.byte	0x77
 3228 00d8 B002     		.sleb128 304
 3229 00da 00000000 		.4byte	0
 3230 00de 00000000 		.4byte	0
 3231              	.LLST4:
 3232 00e2 00000000 		.4byte	.LFB60
 3233 00e6 02000000 		.4byte	.LCFI12
 3234 00ea 0200     		.2byte	0x2
ARM GAS  C:\Users\bramamu\AppData\Local\Temp\cczceNxl.s 			page 84


 3235 00ec 7D       		.byte	0x7d
 3236 00ed 00       		.sleb128 0
 3237 00ee 02000000 		.4byte	.LCFI12
 3238 00f2 04000000 		.4byte	.LCFI13
 3239 00f6 0200     		.2byte	0x2
 3240 00f8 7D       		.byte	0x7d
 3241 00f9 08       		.sleb128 8
 3242 00fa 04000000 		.4byte	.LCFI13
 3243 00fe 18000000 		.4byte	.LFE60
 3244 0102 0200     		.2byte	0x2
 3245 0104 77       		.byte	0x77
 3246 0105 08       		.sleb128 8
 3247 0106 00000000 		.4byte	0
 3248 010a 00000000 		.4byte	0
 3249              	.LLST5:
 3250 010e 00000000 		.4byte	.LFB61
 3251 0112 02000000 		.4byte	.LCFI14
 3252 0116 0200     		.2byte	0x2
 3253 0118 7D       		.byte	0x7d
 3254 0119 00       		.sleb128 0
 3255 011a 02000000 		.4byte	.LCFI14
 3256 011e 04000000 		.4byte	.LCFI15
 3257 0122 0200     		.2byte	0x2
 3258 0124 7D       		.byte	0x7d
 3259 0125 08       		.sleb128 8
 3260 0126 04000000 		.4byte	.LCFI15
 3261 012a 4E000000 		.4byte	.LFE61
 3262 012e 0200     		.2byte	0x2
 3263 0130 77       		.byte	0x77
 3264 0131 08       		.sleb128 8
 3265 0132 00000000 		.4byte	0
 3266 0136 00000000 		.4byte	0
 3267              	.LLST6:
 3268 013a 00000000 		.4byte	.LFB63
 3269 013e 02000000 		.4byte	.LCFI16
 3270 0142 0200     		.2byte	0x2
 3271 0144 7D       		.byte	0x7d
 3272 0145 00       		.sleb128 0
 3273 0146 02000000 		.4byte	.LCFI16
 3274 014a 04000000 		.4byte	.LCFI17
 3275 014e 0200     		.2byte	0x2
 3276 0150 7D       		.byte	0x7d
 3277 0151 0C       		.sleb128 12
 3278 0152 04000000 		.4byte	.LCFI17
 3279 0156 06000000 		.4byte	.LCFI18
 3280 015a 0200     		.2byte	0x2
 3281 015c 7D       		.byte	0x7d
 3282 015d 28       		.sleb128 40
 3283 015e 06000000 		.4byte	.LCFI18
 3284 0162 24010000 		.4byte	.LFE63
 3285 0166 0200     		.2byte	0x2
 3286 0168 77       		.byte	0x77
 3287 0169 28       		.sleb128 40
 3288 016a 00000000 		.4byte	0
 3289 016e 00000000 		.4byte	0
 3290              	.LLST7:
 3291 0172 00000000 		.4byte	.LFB64
ARM GAS  C:\Users\bramamu\AppData\Local\Temp\cczceNxl.s 			page 85


 3292 0176 02000000 		.4byte	.LCFI19
 3293 017a 0200     		.2byte	0x2
 3294 017c 7D       		.byte	0x7d
 3295 017d 00       		.sleb128 0
 3296 017e 02000000 		.4byte	.LCFI19
 3297 0182 06000000 		.4byte	.LCFI20
 3298 0186 0200     		.2byte	0x2
 3299 0188 7D       		.byte	0x7d
 3300 0189 08       		.sleb128 8
 3301 018a 06000000 		.4byte	.LCFI20
 3302 018e 08000000 		.4byte	.LCFI21
 3303 0192 0300     		.2byte	0x3
 3304 0194 7D       		.byte	0x7d
 3305 0195 B807     		.sleb128 952
 3306 0197 08000000 		.4byte	.LCFI21
 3307 019b 56060000 		.4byte	.LFE64
 3308 019f 0300     		.2byte	0x3
 3309 01a1 77       		.byte	0x77
 3310 01a2 B807     		.sleb128 952
 3311 01a4 00000000 		.4byte	0
 3312 01a8 00000000 		.4byte	0
 3313              	.LLST8:
 3314 01ac 00000000 		.4byte	.LFB65
 3315 01b0 02000000 		.4byte	.LCFI22
 3316 01b4 0200     		.2byte	0x2
 3317 01b6 7D       		.byte	0x7d
 3318 01b7 00       		.sleb128 0
 3319 01b8 02000000 		.4byte	.LCFI22
 3320 01bc 04000000 		.4byte	.LCFI23
 3321 01c0 0200     		.2byte	0x2
 3322 01c2 7D       		.byte	0x7d
 3323 01c3 08       		.sleb128 8
 3324 01c4 04000000 		.4byte	.LCFI23
 3325 01c8 06000000 		.4byte	.LCFI24
 3326 01cc 0200     		.2byte	0x2
 3327 01ce 7D       		.byte	0x7d
 3328 01cf 18       		.sleb128 24
 3329 01d0 06000000 		.4byte	.LCFI24
 3330 01d4 B0000000 		.4byte	.LFE65
 3331 01d8 0200     		.2byte	0x2
 3332 01da 77       		.byte	0x77
 3333 01db 18       		.sleb128 24
 3334 01dc 00000000 		.4byte	0
 3335 01e0 00000000 		.4byte	0
 3336              	.LLST9:
 3337 01e4 00000000 		.4byte	.LFB66
 3338 01e8 02000000 		.4byte	.LCFI25
 3339 01ec 0200     		.2byte	0x2
 3340 01ee 7D       		.byte	0x7d
 3341 01ef 00       		.sleb128 0
 3342 01f0 02000000 		.4byte	.LCFI25
 3343 01f4 04000000 		.4byte	.LCFI26
 3344 01f8 0200     		.2byte	0x2
 3345 01fa 7D       		.byte	0x7d
 3346 01fb 08       		.sleb128 8
 3347 01fc 04000000 		.4byte	.LCFI26
 3348 0200 06000000 		.4byte	.LCFI27
ARM GAS  C:\Users\bramamu\AppData\Local\Temp\cczceNxl.s 			page 86


 3349 0204 0300     		.2byte	0x3
 3350 0206 7D       		.byte	0x7d
 3351 0207 A002     		.sleb128 288
 3352 0209 06000000 		.4byte	.LCFI27
 3353 020d B2000000 		.4byte	.LFE66
 3354 0211 0300     		.2byte	0x3
 3355 0213 77       		.byte	0x77
 3356 0214 A002     		.sleb128 288
 3357 0216 00000000 		.4byte	0
 3358 021a 00000000 		.4byte	0
 3359              	.LLST10:
 3360 021e 00000000 		.4byte	.LFB67
 3361 0222 02000000 		.4byte	.LCFI28
 3362 0226 0200     		.2byte	0x2
 3363 0228 7D       		.byte	0x7d
 3364 0229 00       		.sleb128 0
 3365 022a 02000000 		.4byte	.LCFI28
 3366 022e 04000000 		.4byte	.LCFI29
 3367 0232 0200     		.2byte	0x2
 3368 0234 7D       		.byte	0x7d
 3369 0235 08       		.sleb128 8
 3370 0236 04000000 		.4byte	.LCFI29
 3371 023a 06000000 		.4byte	.LCFI30
 3372 023e 0200     		.2byte	0x2
 3373 0240 7D       		.byte	0x7d
 3374 0241 20       		.sleb128 32
 3375 0242 06000000 		.4byte	.LCFI30
 3376 0246 E2010000 		.4byte	.LFE67
 3377 024a 0200     		.2byte	0x2
 3378 024c 77       		.byte	0x77
 3379 024d 20       		.sleb128 32
 3380 024e 00000000 		.4byte	0
 3381 0252 00000000 		.4byte	0
 3382              		.section	.debug_aranges,"",%progbits
 3383 0000 74000000 		.4byte	0x74
 3384 0004 0200     		.2byte	0x2
 3385 0006 00000000 		.4byte	.Ldebug_info0
 3386 000a 04       		.byte	0x4
 3387 000b 00       		.byte	0
 3388 000c 0000     		.2byte	0
 3389 000e 0000     		.2byte	0
 3390 0010 00000000 		.4byte	.LFB56
 3391 0014 4A000000 		.4byte	.LFE56-.LFB56
 3392 0018 00000000 		.4byte	.LFB57
 3393 001c 3C000000 		.4byte	.LFE57-.LFB57
 3394 0020 00000000 		.4byte	.LFB58
 3395 0024 44000000 		.4byte	.LFE58-.LFB58
 3396 0028 00000000 		.4byte	.LFB59
 3397 002c EA000000 		.4byte	.LFE59-.LFB59
 3398 0030 00000000 		.4byte	.LFB60
 3399 0034 18000000 		.4byte	.LFE60-.LFB60
 3400 0038 00000000 		.4byte	.LFB61
 3401 003c 4E000000 		.4byte	.LFE61-.LFB61
 3402 0040 00000000 		.4byte	.LFB62
 3403 0044 02000000 		.4byte	.LFE62-.LFB62
 3404 0048 00000000 		.4byte	.LFB63
 3405 004c 24010000 		.4byte	.LFE63-.LFB63
ARM GAS  C:\Users\bramamu\AppData\Local\Temp\cczceNxl.s 			page 87


 3406 0050 00000000 		.4byte	.LFB64
 3407 0054 56060000 		.4byte	.LFE64-.LFB64
 3408 0058 00000000 		.4byte	.LFB65
 3409 005c B0000000 		.4byte	.LFE65-.LFB65
 3410 0060 00000000 		.4byte	.LFB66
 3411 0064 B2000000 		.4byte	.LFE66-.LFB66
 3412 0068 00000000 		.4byte	.LFB67
 3413 006c E2010000 		.4byte	.LFE67-.LFB67
 3414 0070 00000000 		.4byte	0
 3415 0074 00000000 		.4byte	0
 3416              		.section	.debug_ranges,"",%progbits
 3417              	.Ldebug_ranges0:
 3418 0000 00000000 		.4byte	.LFB56
 3419 0004 4A000000 		.4byte	.LFE56
 3420 0008 00000000 		.4byte	.LFB57
 3421 000c 3C000000 		.4byte	.LFE57
 3422 0010 00000000 		.4byte	.LFB58
 3423 0014 44000000 		.4byte	.LFE58
 3424 0018 00000000 		.4byte	.LFB59
 3425 001c EA000000 		.4byte	.LFE59
 3426 0020 00000000 		.4byte	.LFB60
 3427 0024 18000000 		.4byte	.LFE60
 3428 0028 00000000 		.4byte	.LFB61
 3429 002c 4E000000 		.4byte	.LFE61
 3430 0030 00000000 		.4byte	.LFB62
 3431 0034 02000000 		.4byte	.LFE62
 3432 0038 00000000 		.4byte	.LFB63
 3433 003c 24010000 		.4byte	.LFE63
 3434 0040 00000000 		.4byte	.LFB64
 3435 0044 56060000 		.4byte	.LFE64
 3436 0048 00000000 		.4byte	.LFB65
 3437 004c B0000000 		.4byte	.LFE65
 3438 0050 00000000 		.4byte	.LFB66
 3439 0054 B2000000 		.4byte	.LFE66
 3440 0058 00000000 		.4byte	.LFB67
 3441 005c E2010000 		.4byte	.LFE67
 3442 0060 00000000 		.4byte	0
 3443 0064 00000000 		.4byte	0
 3444              		.section	.debug_line,"",%progbits
 3445              	.Ldebug_line0:
 3446 0000 34040000 		.section	.debug_str,"MS",%progbits,1
 3446      02001701 
 3446      00000201 
 3446      FB0E0D00 
 3446      01010101 
 3447              	.LASF35:
 3448 0000 76616C69 		.ascii	"valid\000"
 3448      6400
 3449              	.LASF22:
 3450 0006 426F6F74 		.ascii	"BootloaderI2C_ENTER\000"
 3450      6C6F6164 
 3450      65724932 
 3450      435F454E 
 3450      54455200 
 3451              	.LASF34:
 3452 001a 61707049 		.ascii	"appId\000"
 3452      6400
ARM GAS  C:\Users\bramamu\AppData\Local\Temp\cczceNxl.s 			page 88


 3453              	.LASF74:
 3454 0020 72657375 		.ascii	"result\000"
 3454      6C7400
 3455              	.LASF31:
 3456 0027 746D7053 		.ascii	"tmpStatus\000"
 3456      74617475 
 3456      7300
 3457              	.LASF69:
 3458 0031 62617365 		.ascii	"baseAddr\000"
 3458      41646472 
 3458      00
 3459              	.LASF45:
 3460 003a 706B7453 		.ascii	"pktSize\000"
 3460      697A6500 
 3461              	.LASF18:
 3462 0042 53696C69 		.ascii	"SiliconId\000"
 3462      636F6E49 
 3462      6400
 3463              	.LASF32:
 3464 004c 61707041 		.ascii	"appAddr\000"
 3464      64647200 
 3465              	.LASF54:
 3466 0054 65726173 		.ascii	"erase\000"
 3466      6500
 3467              	.LASF67:
 3468 005a 726F7744 		.ascii	"rowData\000"
 3468      61746100 
 3469              	.LASF2:
 3470 0062 73686F72 		.ascii	"short int\000"
 3470      7420696E 
 3470      7400
 3471              	.LASF42:
 3472 006c 61636B43 		.ascii	"ackCode\000"
 3472      6F646500 
 3473              	.LASF21:
 3474 0074 73697A65 		.ascii	"sizetype\000"
 3474      74797065 
 3474      00
 3475              	.LASF53:
 3476 007d 73746172 		.ascii	"startRow\000"
 3476      74526F77 
 3476      00
 3477              	.LASF26:
 3478 0086 426F6F74 		.ascii	"BootloaderI2C_Calc8BitFlashSum\000"
 3478      6C6F6164 
 3478      65724932 
 3478      435F4361 
 3478      6C633842 
 3479              	.LASF52:
 3480 00a5 62746C64 		.ascii	"btldrData\000"
 3480      72446174 
 3480      6100
 3481              	.LASF46:
 3482 00af 64617461 		.ascii	"dataOffset\000"
 3482      4F666673 
 3482      657400
 3483              	.LASF49:
ARM GAS  C:\Users\bramamu\AppData\Local\Temp\cczceNxl.s 			page 89


 3484 00ba 636F6D6D 		.ascii	"communicationState\000"
 3484      756E6963 
 3484      6174696F 
 3484      6E537461 
 3484      746500
 3485              	.LASF55:
 3486 00cd 42746C64 		.ascii	"BtldrVersion\000"
 3486      72566572 
 3486      73696F6E 
 3486      00
 3487              	.LASF65:
 3488 00da 72756E54 		.ascii	"runType\000"
 3488      79706500 
 3489              	.LASF11:
 3490 00e2 75696E74 		.ascii	"uint16\000"
 3490      313600
 3491              	.LASF82:
 3492 00e9 433A5C55 		.ascii	"C:\\Users\\bramamu\\Desktop\\nanoNxt_ICM3_Bootlaode"
 3492      73657273 
 3492      5C627261 
 3492      6D616D75 
 3492      5C446573 
 3493 0118 725C6E61 		.ascii	"r\\nanoNxt_ICM3_Bootlaoder.cydsn\000"
 3493      6E6F4E78 
 3493      745F4943 
 3493      4D335F42 
 3493      6F6F746C 
 3494              	.LASF58:
 3495 0138 63686563 		.ascii	"checksum\000"
 3495      6B73756D 
 3495      00
 3496              	.LASF10:
 3497 0141 75696E74 		.ascii	"uint8\000"
 3497      3800
 3498              	.LASF25:
 3499 0147 426F6F74 		.ascii	"BootloaderI2C_CalcPacketChecksum\000"
 3499      6C6F6164 
 3499      65724932 
 3499      435F4361 
 3499      6C635061 
 3500              	.LASF20:
 3501 0168 426F6F74 		.ascii	"BootLoaderVersion\000"
 3501      4C6F6164 
 3501      65725665 
 3501      7273696F 
 3501      6E00
 3502              	.LASF13:
 3503 017a 666C6F61 		.ascii	"float\000"
 3503      7400
 3504              	.LASF6:
 3505 0180 6C6F6E67 		.ascii	"long long int\000"
 3505      206C6F6E 
 3505      6720696E 
 3505      7400
 3506              	.LASF76:
 3507 018e 426F6F74 		.ascii	"BootloaderI2C_ChecksumAccess\000"
 3507      6C6F6164 
ARM GAS  C:\Users\bramamu\AppData\Local\Temp\cczceNxl.s 			page 90


 3507      65724932 
 3507      435F4368 
 3507      65636B73 
 3508              	.LASF66:
 3509 01ab 666C7341 		.ascii	"flsAddr\000"
 3509      64647200 
 3510              	.LASF64:
 3511 01b3 61646472 		.ascii	"address\000"
 3511      65737300 
 3512              	.LASF36:
 3513 01bb 63757242 		.ascii	"curByte\000"
 3513      79746500 
 3514              	.LASF59:
 3515 01c3 746D7049 		.ascii	"tmpIndex\000"
 3515      6E646578 
 3515      00
 3516              	.LASF40:
 3517 01cc 6E756D62 		.ascii	"numberRead\000"
 3517      65725265 
 3517      616400
 3518              	.LASF62:
 3519 01d7 426F6F74 		.ascii	"BootloaderI2C_Start\000"
 3519      6C6F6164 
 3519      65724932 
 3519      435F5374 
 3519      61727400 
 3520              	.LASF29:
 3521 01eb 63616C63 		.ascii	"calcedChecksum\000"
 3521      65644368 
 3521      65636B73 
 3521      756D00
 3522              	.LASF80:
 3523 01fa 474E5520 		.ascii	"GNU C 4.7.3 20130312 (release) [ARM/embedded-4_7-br"
 3523      4320342E 
 3523      372E3320 
 3523      32303133 
 3523      30333132 
 3524 022d 616E6368 		.ascii	"anch revision 196615]\000"
 3524      20726576 
 3524      6973696F 
 3524      6E203139 
 3524      36363135 
 3525              	.LASF56:
 3526 0243 726F774E 		.ascii	"rowNum\000"
 3526      756D00
 3527              	.LASF48:
 3528 024a 636C6561 		.ascii	"clearedMetaData\000"
 3528      7265644D 
 3528      65746144 
 3528      61746100 
 3529              	.LASF72:
 3530 025a 6669656C 		.ascii	"fieldPtr\000"
 3530      64507472 
 3530      00
 3531              	.LASF47:
 3532 0263 74696D65 		.ascii	"timeOutCnt\000"
 3532      4F757443 
ARM GAS  C:\Users\bramamu\AppData\Local\Temp\cczceNxl.s 			page 91


 3532      6E7400
 3533              	.LASF27:
 3534 026e 73746172 		.ascii	"start\000"
 3534      7400
 3535              	.LASF38:
 3536 0274 426F6F74 		.ascii	"BootloaderI2C_HostLink\000"
 3536      6C6F6164 
 3536      65724932 
 3536      435F486F 
 3536      73744C69 
 3537              	.LASF1:
 3538 028b 756E7369 		.ascii	"unsigned char\000"
 3538      676E6564 
 3538      20636861 
 3538      7200
 3539              	.LASF51:
 3540 0299 64617461 		.ascii	"dataBuffer\000"
 3540      42756666 
 3540      657200
 3541              	.LASF16:
 3542 02a4 63797374 		.ascii	"cystatus\000"
 3542      61747573 
 3542      00
 3543              	.LASF0:
 3544 02ad 7369676E 		.ascii	"signed char\000"
 3544      65642063 
 3544      68617200 
 3545              	.LASF9:
 3546 02b9 696E7433 		.ascii	"int32_t\000"
 3546      325F7400 
 3547              	.LASF7:
 3548 02c1 6C6F6E67 		.ascii	"long long unsigned int\000"
 3548      206C6F6E 
 3548      6720756E 
 3548      7369676E 
 3548      65642069 
 3549              	.LASF43:
 3550 02d8 706B7443 		.ascii	"pktChecksum\000"
 3550      6865636B 
 3550      73756D00 
 3551              	.LASF84:
 3552 02e4 43794274 		.ascii	"CyBtldr_CheckLaunch\000"
 3552      6C64725F 
 3552      43686563 
 3552      6B4C6175 
 3552      6E636800 
 3553              	.LASF81:
 3554 02f8 2E5C4765 		.ascii	".\\Generated_Source\\PSoC5\\BootloaderI2C.c\000"
 3554      6E657261 
 3554      7465645F 
 3554      536F7572 
 3554      63655C50 
 3555              	.LASF60:
 3556 0321 426F6F74 		.ascii	"BootloaderI2C_WritePacket\000"
 3556      6C6F6164 
 3556      65724932 
 3556      435F5772 
ARM GAS  C:\Users\bramamu\AppData\Local\Temp\cczceNxl.s 			page 92


 3556      69746550 
 3557              	.LASF61:
 3558 033b 73746174 		.ascii	"status\000"
 3558      757300
 3559              	.LASF3:
 3560 0342 73686F72 		.ascii	"short unsigned int\000"
 3560      7420756E 
 3560      7369676E 
 3560      65642069 
 3560      6E7400
 3561              	.LASF33:
 3562 0355 426F6F74 		.ascii	"BootloaderI2C_ValidateBootloadable\000"
 3562      6C6F6164 
 3562      65724932 
 3562      435F5661 
 3562      6C696461 
 3563              	.LASF50:
 3564 0378 7061636B 		.ascii	"packetBuffer\000"
 3564      65744275 
 3564      66666572 
 3564      00
 3565              	.LASF15:
 3566 0385 63686172 		.ascii	"char\000"
 3566      00
 3567              	.LASF4:
 3568 038a 6C6F6E67 		.ascii	"long int\000"
 3568      20696E74 
 3568      00
 3569              	.LASF70:
 3570 0393 426F6F74 		.ascii	"BootloaderI2C_GetMetadata\000"
 3570      6C6F6164 
 3570      65724932 
 3570      435F4765 
 3570      744D6574 
 3571              	.LASF44:
 3572 03ad 72656164 		.ascii	"readStat\000"
 3572      53746174 
 3572      00
 3573              	.LASF77:
 3574 03b6 426F6F74 		.ascii	"BootloaderI2C_SizeBytes\000"
 3574      6C6F6164 
 3574      65724932 
 3574      435F5369 
 3574      7A654279 
 3575              	.LASF39:
 3576 03ce 74696D65 		.ascii	"timeOut\000"
 3576      4F757400 
 3577              	.LASF41:
 3578 03d6 72737053 		.ascii	"rspSize\000"
 3578      697A6500 
 3579              	.LASF28:
 3580 03de 426F6F74 		.ascii	"BootloaderI2C_Calc8BitEepromSum\000"
 3580      6C6F6164 
 3580      65724932 
 3580      435F4361 
 3580      6C633842 
 3581              	.LASF23:
ARM GAS  C:\Users\bramamu\AppData\Local\Temp\cczceNxl.s 			page 93


 3582 03fe 62756666 		.ascii	"buffer\000"
 3582      657200
 3583              	.LASF12:
 3584 0405 75696E74 		.ascii	"uint32\000"
 3584      333200
 3585              	.LASF17:
 3586 040c 72656738 		.ascii	"reg8\000"
 3586      00
 3587              	.LASF5:
 3588 0411 6C6F6E67 		.ascii	"long unsigned int\000"
 3588      20756E73 
 3588      69676E65 
 3588      6420696E 
 3588      7400
 3589              	.LASF57:
 3590 0423 726F7741 		.ascii	"rowAddr\000"
 3590      64647200 
 3591              	.LASF14:
 3592 042b 646F7562 		.ascii	"double\000"
 3592      6C6500
 3593              	.LASF24:
 3594 0432 73697A65 		.ascii	"size\000"
 3594      00
 3595              	.LASF83:
 3596 0437 426F6F74 		.ascii	"BootloaderI2C_LaunchApplication\000"
 3596      6C6F6164 
 3596      65724932 
 3596      435F4C61 
 3596      756E6368 
 3597              	.LASF73:
 3598 0457 6669656C 		.ascii	"fieldSize\000"
 3598      6453697A 
 3598      6500
 3599              	.LASF75:
 3600 0461 426F6F74 		.ascii	"BootloaderI2C_Checksum\000"
 3600      6C6F6164 
 3600      65724932 
 3600      435F4368 
 3600      65636B73 
 3601              	.LASF63:
 3602 0478 426F6F74 		.ascii	"BootloaderI2C_SetFlashByte\000"
 3602      6C6F6164 
 3602      65724932 
 3602      435F5365 
 3602      74466C61 
 3603              	.LASF68:
 3604 0493 61727261 		.ascii	"arrayId\000"
 3604      79496400 
 3605              	.LASF78:
 3606 049b 426F6F74 		.ascii	"BootloaderI2C_SizeBytesAccess\000"
 3606      6C6F6164 
 3606      65724932 
 3606      435F5369 
 3606      7A654279 
 3607              	.LASF19:
 3608 04b9 52657669 		.ascii	"Revision\000"
 3608      73696F6E 
ARM GAS  C:\Users\bramamu\AppData\Local\Temp\cczceNxl.s 			page 94


 3608      00
 3609              	.LASF30:
 3610 04c2 426F6F74 		.ascii	"BootloaderI2C_flashBuffer\000"
 3610      6C6F6164 
 3610      65724932 
 3610      435F666C 
 3610      61736842 
 3611              	.LASF79:
 3612 04dc 49544D5F 		.ascii	"ITM_RxBuffer\000"
 3612      52784275 
 3612      66666572 
 3612      00
 3613              	.LASF8:
 3614 04e9 756E7369 		.ascii	"unsigned int\000"
 3614      676E6564 
 3614      20696E74 
 3614      00
 3615              	.LASF71:
 3616 04f6 6669656C 		.ascii	"fieldName\000"
 3616      644E616D 
 3616      6500
 3617              	.LASF37:
 3618 0500 426F6F74 		.ascii	"BootloaderI2C_LaunchBootloadable\000"
 3618      6C6F6164 
 3618      65724932 
 3618      435F4C61 
 3618      756E6368 
 3619              		.ident	"GCC: (GNU Tools for ARM Embedded Processors) 4.7.3 20130312 (release) [ARM/embedded-4_7-br
